ARM GAS  C:\Users\LUKASC~1\AppData\Local\Temp\ccv54092.s 			page 1


   1              		.syntax unified
   2              		.cpu cortex-m3
   3              		.fpu softvfp
   4              		.eabi_attribute 20, 1
   5              		.eabi_attribute 21, 1
   6              		.eabi_attribute 23, 3
   7              		.eabi_attribute 24, 1
   8              		.eabi_attribute 25, 1
   9              		.eabi_attribute 26, 1
  10              		.eabi_attribute 30, 1
  11              		.eabi_attribute 34, 1
  12              		.eabi_attribute 18, 4
  13              		.thumb
  14              		.file	"cyfitter_cfg.c"
  15              		.text
  16              	.Ltext0:
  17              		.cfi_sections	.debug_frame
  18              		.section	.text.CyClockStartupError,"ax",%progbits
  19              		.align	2
  20              		.thumb
  21              		.thumb_func
  22              		.type	CyClockStartupError, %function
  23              	CyClockStartupError:
  24              	.LFB3:
  25              		.file 1 ".\\Generated_Source\\PSoC5\\cyfitter_cfg.c"
   1:.\Generated_Source\PSoC5/cyfitter_cfg.c **** /*******************************************************************************
   2:.\Generated_Source\PSoC5/cyfitter_cfg.c **** * File Name: cyfitter_cfg.c
   3:.\Generated_Source\PSoC5/cyfitter_cfg.c **** * 
   4:.\Generated_Source\PSoC5/cyfitter_cfg.c **** * PSoC Creator  3.3 SP1
   5:.\Generated_Source\PSoC5/cyfitter_cfg.c **** *
   6:.\Generated_Source\PSoC5/cyfitter_cfg.c **** * Description:
   7:.\Generated_Source\PSoC5/cyfitter_cfg.c **** * This file contains device initialization code.
   8:.\Generated_Source\PSoC5/cyfitter_cfg.c **** * Except for the user defined sections in CyClockStartupError(), this file should not be modified.
   9:.\Generated_Source\PSoC5/cyfitter_cfg.c **** * This file is automatically generated by PSoC Creator.
  10:.\Generated_Source\PSoC5/cyfitter_cfg.c **** *
  11:.\Generated_Source\PSoC5/cyfitter_cfg.c **** ********************************************************************************
  12:.\Generated_Source\PSoC5/cyfitter_cfg.c **** * Copyright (c) 2007-2015 Cypress Semiconductor.  All rights reserved.
  13:.\Generated_Source\PSoC5/cyfitter_cfg.c **** * You may use this file only in accordance with the license, terms, conditions, 
  14:.\Generated_Source\PSoC5/cyfitter_cfg.c **** * disclaimers, and limitations in the end user license agreement accompanying 
  15:.\Generated_Source\PSoC5/cyfitter_cfg.c **** * the software package with which this file was provided.
  16:.\Generated_Source\PSoC5/cyfitter_cfg.c **** ********************************************************************************/
  17:.\Generated_Source\PSoC5/cyfitter_cfg.c **** 
  18:.\Generated_Source\PSoC5/cyfitter_cfg.c **** #include <string.h>
  19:.\Generated_Source\PSoC5/cyfitter_cfg.c **** #include "cytypes.h"
  20:.\Generated_Source\PSoC5/cyfitter_cfg.c **** #include "cydevice_trm.h"
  21:.\Generated_Source\PSoC5/cyfitter_cfg.c **** #include "cyfitter.h"
  22:.\Generated_Source\PSoC5/cyfitter_cfg.c **** #include "CyLib.h"
  23:.\Generated_Source\PSoC5/cyfitter_cfg.c **** #include "cyfitter_cfg.h"
  24:.\Generated_Source\PSoC5/cyfitter_cfg.c **** 
  25:.\Generated_Source\PSoC5/cyfitter_cfg.c **** #define CY_NEED_CYCLOCKSTARTUPERROR 1
  26:.\Generated_Source\PSoC5/cyfitter_cfg.c **** 
  27:.\Generated_Source\PSoC5/cyfitter_cfg.c **** 
  28:.\Generated_Source\PSoC5/cyfitter_cfg.c **** #if defined(__GNUC__) || defined(__ARMCC_VERSION)
  29:.\Generated_Source\PSoC5/cyfitter_cfg.c ****     #define CYPACKED 
  30:.\Generated_Source\PSoC5/cyfitter_cfg.c ****     #define CYPACKED_ATTR __attribute__ ((packed))
  31:.\Generated_Source\PSoC5/cyfitter_cfg.c ****     #define CYALIGNED __attribute__ ((aligned))
  32:.\Generated_Source\PSoC5/cyfitter_cfg.c ****     #define CY_CFG_UNUSED __attribute__ ((unused))
ARM GAS  C:\Users\LUKASC~1\AppData\Local\Temp\ccv54092.s 			page 2


  33:.\Generated_Source\PSoC5/cyfitter_cfg.c ****     #ifndef CY_CFG_SECTION
  34:.\Generated_Source\PSoC5/cyfitter_cfg.c ****         #define CY_CFG_SECTION __attribute__ ((section(".psocinit")))
  35:.\Generated_Source\PSoC5/cyfitter_cfg.c ****     #endif
  36:.\Generated_Source\PSoC5/cyfitter_cfg.c ****     
  37:.\Generated_Source\PSoC5/cyfitter_cfg.c ****     #if defined(__ARMCC_VERSION)
  38:.\Generated_Source\PSoC5/cyfitter_cfg.c ****         #define CY_CFG_MEMORY_BARRIER() __memory_changed()
  39:.\Generated_Source\PSoC5/cyfitter_cfg.c ****     #else
  40:.\Generated_Source\PSoC5/cyfitter_cfg.c ****         #define CY_CFG_MEMORY_BARRIER() __sync_synchronize()
  41:.\Generated_Source\PSoC5/cyfitter_cfg.c ****     #endif
  42:.\Generated_Source\PSoC5/cyfitter_cfg.c ****     
  43:.\Generated_Source\PSoC5/cyfitter_cfg.c **** #elif defined(__ICCARM__)
  44:.\Generated_Source\PSoC5/cyfitter_cfg.c ****     #include <intrinsics.h>
  45:.\Generated_Source\PSoC5/cyfitter_cfg.c **** 
  46:.\Generated_Source\PSoC5/cyfitter_cfg.c ****     #define CYPACKED __packed
  47:.\Generated_Source\PSoC5/cyfitter_cfg.c ****     #define CYPACKED_ATTR 
  48:.\Generated_Source\PSoC5/cyfitter_cfg.c ****     #define CYALIGNED _Pragma("data_alignment=4")
  49:.\Generated_Source\PSoC5/cyfitter_cfg.c ****     #define CY_CFG_UNUSED _Pragma("diag_suppress=Pe177")
  50:.\Generated_Source\PSoC5/cyfitter_cfg.c ****     #define CY_CFG_SECTION _Pragma("location=\".psocinit\"")
  51:.\Generated_Source\PSoC5/cyfitter_cfg.c ****     
  52:.\Generated_Source\PSoC5/cyfitter_cfg.c ****     #define CY_CFG_MEMORY_BARRIER() __DMB()
  53:.\Generated_Source\PSoC5/cyfitter_cfg.c ****     
  54:.\Generated_Source\PSoC5/cyfitter_cfg.c **** #else
  55:.\Generated_Source\PSoC5/cyfitter_cfg.c ****     #error Unsupported toolchain
  56:.\Generated_Source\PSoC5/cyfitter_cfg.c **** #endif
  57:.\Generated_Source\PSoC5/cyfitter_cfg.c **** 
  58:.\Generated_Source\PSoC5/cyfitter_cfg.c **** 
  59:.\Generated_Source\PSoC5/cyfitter_cfg.c **** CY_CFG_UNUSED
  60:.\Generated_Source\PSoC5/cyfitter_cfg.c **** static void CYMEMZERO(void *s, size_t n);
  61:.\Generated_Source\PSoC5/cyfitter_cfg.c **** CY_CFG_UNUSED
  62:.\Generated_Source\PSoC5/cyfitter_cfg.c **** static void CYMEMZERO(void *s, size_t n)
  63:.\Generated_Source\PSoC5/cyfitter_cfg.c **** {
  64:.\Generated_Source\PSoC5/cyfitter_cfg.c **** 	(void)memset(s, 0, n);
  65:.\Generated_Source\PSoC5/cyfitter_cfg.c **** }
  66:.\Generated_Source\PSoC5/cyfitter_cfg.c **** CY_CFG_UNUSED
  67:.\Generated_Source\PSoC5/cyfitter_cfg.c **** static void CYCONFIGCPY(void *dest, const void *src, size_t n);
  68:.\Generated_Source\PSoC5/cyfitter_cfg.c **** CY_CFG_UNUSED
  69:.\Generated_Source\PSoC5/cyfitter_cfg.c **** static void CYCONFIGCPY(void *dest, const void *src, size_t n)
  70:.\Generated_Source\PSoC5/cyfitter_cfg.c **** {
  71:.\Generated_Source\PSoC5/cyfitter_cfg.c **** 	(void)memcpy(dest, src, n);
  72:.\Generated_Source\PSoC5/cyfitter_cfg.c **** }
  73:.\Generated_Source\PSoC5/cyfitter_cfg.c **** CY_CFG_UNUSED
  74:.\Generated_Source\PSoC5/cyfitter_cfg.c **** static void CYCONFIGCPYCODE(void *dest, const void *src, size_t n);
  75:.\Generated_Source\PSoC5/cyfitter_cfg.c **** CY_CFG_UNUSED
  76:.\Generated_Source\PSoC5/cyfitter_cfg.c **** static void CYCONFIGCPYCODE(void *dest, const void *src, size_t n)
  77:.\Generated_Source\PSoC5/cyfitter_cfg.c **** {
  78:.\Generated_Source\PSoC5/cyfitter_cfg.c **** 	(void)memcpy(dest, src, n);
  79:.\Generated_Source\PSoC5/cyfitter_cfg.c **** }
  80:.\Generated_Source\PSoC5/cyfitter_cfg.c **** 
  81:.\Generated_Source\PSoC5/cyfitter_cfg.c **** 
  82:.\Generated_Source\PSoC5/cyfitter_cfg.c **** 
  83:.\Generated_Source\PSoC5/cyfitter_cfg.c **** /* Clock startup error codes                                                   */
  84:.\Generated_Source\PSoC5/cyfitter_cfg.c **** #define CYCLOCKSTART_NO_ERROR    0u
  85:.\Generated_Source\PSoC5/cyfitter_cfg.c **** #define CYCLOCKSTART_XTAL_ERROR  1u
  86:.\Generated_Source\PSoC5/cyfitter_cfg.c **** #define CYCLOCKSTART_32KHZ_ERROR 2u
  87:.\Generated_Source\PSoC5/cyfitter_cfg.c **** #define CYCLOCKSTART_PLL_ERROR   3u
  88:.\Generated_Source\PSoC5/cyfitter_cfg.c **** 
  89:.\Generated_Source\PSoC5/cyfitter_cfg.c **** #ifdef CY_NEED_CYCLOCKSTARTUPERROR
ARM GAS  C:\Users\LUKASC~1\AppData\Local\Temp\ccv54092.s 			page 3


  90:.\Generated_Source\PSoC5/cyfitter_cfg.c **** /*******************************************************************************
  91:.\Generated_Source\PSoC5/cyfitter_cfg.c **** * Function Name: CyClockStartupError
  92:.\Generated_Source\PSoC5/cyfitter_cfg.c **** ********************************************************************************
  93:.\Generated_Source\PSoC5/cyfitter_cfg.c **** * Summary:
  94:.\Generated_Source\PSoC5/cyfitter_cfg.c **** *  If an error is encountered during clock configuration (crystal startup error,
  95:.\Generated_Source\PSoC5/cyfitter_cfg.c **** *  PLL lock error, etc.), the system will end up here.  Unless reimplemented by
  96:.\Generated_Source\PSoC5/cyfitter_cfg.c **** *  the customer, this function will stop in an infinite loop.
  97:.\Generated_Source\PSoC5/cyfitter_cfg.c **** *
  98:.\Generated_Source\PSoC5/cyfitter_cfg.c **** * Parameters:
  99:.\Generated_Source\PSoC5/cyfitter_cfg.c **** *   void
 100:.\Generated_Source\PSoC5/cyfitter_cfg.c **** *
 101:.\Generated_Source\PSoC5/cyfitter_cfg.c **** * Return:
 102:.\Generated_Source\PSoC5/cyfitter_cfg.c **** *   void
 103:.\Generated_Source\PSoC5/cyfitter_cfg.c **** *
 104:.\Generated_Source\PSoC5/cyfitter_cfg.c **** *******************************************************************************/
 105:.\Generated_Source\PSoC5/cyfitter_cfg.c **** CY_CFG_UNUSED
 106:.\Generated_Source\PSoC5/cyfitter_cfg.c **** static void CyClockStartupError(uint8 errorCode);
 107:.\Generated_Source\PSoC5/cyfitter_cfg.c **** CY_CFG_UNUSED
 108:.\Generated_Source\PSoC5/cyfitter_cfg.c **** static void CyClockStartupError(uint8 errorCode)
 109:.\Generated_Source\PSoC5/cyfitter_cfg.c **** {
  26              		.loc 1 109 0
  27              		.cfi_startproc
  28              		@ Volatile: function does not return.
  29              		@ args = 0, pretend = 0, frame = 0
  30              		@ frame_needed = 0, uses_anonymous_args = 0
  31              		@ link register save eliminated.
  32              	.LVL0:
  33              	.L2:
 110:.\Generated_Source\PSoC5/cyfitter_cfg.c ****     /* To remove the compiler warning if errorCode not used.                */
 111:.\Generated_Source\PSoC5/cyfitter_cfg.c ****     errorCode = errorCode;
 112:.\Generated_Source\PSoC5/cyfitter_cfg.c **** 
 113:.\Generated_Source\PSoC5/cyfitter_cfg.c ****     /* `#START CyClockStartupError` */
 114:.\Generated_Source\PSoC5/cyfitter_cfg.c **** 
 115:.\Generated_Source\PSoC5/cyfitter_cfg.c ****     /* If we have a clock startup error (bad MHz crystal, PLL lock, etc.),  */
 116:.\Generated_Source\PSoC5/cyfitter_cfg.c ****     /* we will end up here to allow the customer to implement something to  */
 117:.\Generated_Source\PSoC5/cyfitter_cfg.c ****     /* deal with the clock condition.                                       */
 118:.\Generated_Source\PSoC5/cyfitter_cfg.c **** 
 119:.\Generated_Source\PSoC5/cyfitter_cfg.c ****     /* `#END` */
 120:.\Generated_Source\PSoC5/cyfitter_cfg.c **** 
 121:.\Generated_Source\PSoC5/cyfitter_cfg.c ****     /* If nothing else, stop here since the clocks have not started         */
 122:.\Generated_Source\PSoC5/cyfitter_cfg.c ****     /* correctly.                                                           */
 123:.\Generated_Source\PSoC5/cyfitter_cfg.c ****     while(1) {}
  34              		.loc 1 123 0 discriminator 1
  35 0000 FEE7     		b	.L2
  36              		.cfi_endproc
  37              	.LFE3:
  38              		.size	CyClockStartupError, .-CyClockStartupError
  39 0002 00BF     		.section	.text.cfg_write_bytes32,"ax",%progbits
  40              		.align	2
  41              		.thumb
  42              		.thumb_func
  43              		.type	cfg_write_bytes32, %function
  44              	cfg_write_bytes32:
  45              	.LFB4:
 124:.\Generated_Source\PSoC5/cyfitter_cfg.c **** }
 125:.\Generated_Source\PSoC5/cyfitter_cfg.c **** #endif
 126:.\Generated_Source\PSoC5/cyfitter_cfg.c **** 
ARM GAS  C:\Users\LUKASC~1\AppData\Local\Temp\ccv54092.s 			page 4


 127:.\Generated_Source\PSoC5/cyfitter_cfg.c **** #define CY_CFG_BASE_ADDR_COUNT 24u
 128:.\Generated_Source\PSoC5/cyfitter_cfg.c **** CYPACKED typedef struct
 129:.\Generated_Source\PSoC5/cyfitter_cfg.c **** {
 130:.\Generated_Source\PSoC5/cyfitter_cfg.c **** 	uint8 offset;
 131:.\Generated_Source\PSoC5/cyfitter_cfg.c **** 	uint8 value;
 132:.\Generated_Source\PSoC5/cyfitter_cfg.c **** } CYPACKED_ATTR cy_cfg_addrvalue_t;
 133:.\Generated_Source\PSoC5/cyfitter_cfg.c **** 
 134:.\Generated_Source\PSoC5/cyfitter_cfg.c **** #define cy_cfg_addr_table ((const uint32 CYFAR *)0x48000000u)
 135:.\Generated_Source\PSoC5/cyfitter_cfg.c **** #define cy_cfg_data_table ((const cy_cfg_addrvalue_t CYFAR *)0x48000060u)
 136:.\Generated_Source\PSoC5/cyfitter_cfg.c **** 
 137:.\Generated_Source\PSoC5/cyfitter_cfg.c **** /* IOPINS0_0 Address: CYREG_PRT0_DR Size (bytes): 10 */
 138:.\Generated_Source\PSoC5/cyfitter_cfg.c **** #define BS_IOPINS0_0_VAL ((const uint8 CYFAR *)0x48000110u)
 139:.\Generated_Source\PSoC5/cyfitter_cfg.c **** 
 140:.\Generated_Source\PSoC5/cyfitter_cfg.c **** /* IOPINS0_8 Address: CYREG_PRT15_DR Size (bytes): 10 */
 141:.\Generated_Source\PSoC5/cyfitter_cfg.c **** #define BS_IOPINS0_8_VAL ((const uint8 CYFAR *)0x4800011Cu)
 142:.\Generated_Source\PSoC5/cyfitter_cfg.c **** 
 143:.\Generated_Source\PSoC5/cyfitter_cfg.c **** 
 144:.\Generated_Source\PSoC5/cyfitter_cfg.c **** /*******************************************************************************
 145:.\Generated_Source\PSoC5/cyfitter_cfg.c **** * Function Name: cfg_write_bytes32
 146:.\Generated_Source\PSoC5/cyfitter_cfg.c **** ********************************************************************************
 147:.\Generated_Source\PSoC5/cyfitter_cfg.c **** * Summary:
 148:.\Generated_Source\PSoC5/cyfitter_cfg.c **** *  This function is used for setting up the chip configuration areas that
 149:.\Generated_Source\PSoC5/cyfitter_cfg.c **** *  contain relatively sparse data.
 150:.\Generated_Source\PSoC5/cyfitter_cfg.c **** *
 151:.\Generated_Source\PSoC5/cyfitter_cfg.c **** * Parameters:
 152:.\Generated_Source\PSoC5/cyfitter_cfg.c **** *   void
 153:.\Generated_Source\PSoC5/cyfitter_cfg.c **** *
 154:.\Generated_Source\PSoC5/cyfitter_cfg.c **** * Return:
 155:.\Generated_Source\PSoC5/cyfitter_cfg.c **** *   void
 156:.\Generated_Source\PSoC5/cyfitter_cfg.c **** *
 157:.\Generated_Source\PSoC5/cyfitter_cfg.c **** *******************************************************************************/
 158:.\Generated_Source\PSoC5/cyfitter_cfg.c **** static void cfg_write_bytes32(const uint32 addr_table[], const cy_cfg_addrvalue_t data_table[]);
 159:.\Generated_Source\PSoC5/cyfitter_cfg.c **** static void cfg_write_bytes32(const uint32 addr_table[], const cy_cfg_addrvalue_t data_table[])
 160:.\Generated_Source\PSoC5/cyfitter_cfg.c **** {
  46              		.loc 1 160 0
  47              		.cfi_startproc
  48              		@ args = 0, pretend = 0, frame = 0
  49              		@ frame_needed = 0, uses_anonymous_args = 0
  50              		@ link register save eliminated.
  51              	.LVL1:
  52 0000 F0B4     		push	{r4, r5, r6, r7}
  53              		.cfi_def_cfa_offset 16
  54              		.cfi_offset 4, -16
  55              		.cfi_offset 5, -12
  56              		.cfi_offset 6, -8
  57              		.cfi_offset 7, -4
  58              	.LVL2:
 161:.\Generated_Source\PSoC5/cyfitter_cfg.c **** 	/* For 32-bit little-endian architectures */
 162:.\Generated_Source\PSoC5/cyfitter_cfg.c **** 	uint32 i, j = 0u;
  59              		.loc 1 162 0
  60 0002 0022     		movs	r2, #0
 163:.\Generated_Source\PSoC5/cyfitter_cfg.c **** 	for (i = 0u; i < CY_CFG_BASE_ADDR_COUNT; i++)
  61              		.loc 1 163 0
  62 0004 1746     		mov	r7, r2
  63 0006 11E0     		b	.L4
  64              	.LVL3:
  65              	.L7:
ARM GAS  C:\Users\LUKASC~1\AppData\Local\Temp\ccv54092.s 			page 5


  66              	.LBB2:
 164:.\Generated_Source\PSoC5/cyfitter_cfg.c **** 	{
 165:.\Generated_Source\PSoC5/cyfitter_cfg.c **** 		uint32 baseAddr = addr_table[i];
  67              		.loc 1 165 0
  68 0008 50F82760 		ldr	r6, [r0, r7, lsl #2]
  69              	.LVL4:
 166:.\Generated_Source\PSoC5/cyfitter_cfg.c **** 		uint8 count = (uint8)baseAddr;
  70              		.loc 1 166 0
  71 000c F3B2     		uxtb	r3, r6
  72              	.LVL5:
 167:.\Generated_Source\PSoC5/cyfitter_cfg.c **** 		baseAddr &= 0xFFFFFF00u;
  73              		.loc 1 167 0
  74 000e 26F0FF06 		bic	r6, r6, #255
  75              	.LVL6:
 168:.\Generated_Source\PSoC5/cyfitter_cfg.c **** 		while (count != 0u)
  76              		.loc 1 168 0
  77 0012 08E0     		b	.L5
  78              	.L6:
 169:.\Generated_Source\PSoC5/cyfitter_cfg.c **** 		{
 170:.\Generated_Source\PSoC5/cyfitter_cfg.c **** 			CY_SET_XTND_REG8((void CYFAR *)(baseAddr + data_table[j].offset), data_table[j].value);
  79              		.loc 1 170 0
  80 0014 01EB4205 		add	r5, r1, r2, lsl #1
  81 0018 11F81240 		ldrb	r4, [r1, r2, lsl #1]	@ zero_extendqisi2
  82 001c 6D78     		ldrb	r5, [r5, #1]	@ zero_extendqisi2
  83 001e A555     		strb	r5, [r4, r6]
 171:.\Generated_Source\PSoC5/cyfitter_cfg.c **** 			j++;
  84              		.loc 1 171 0
  85 0020 0132     		adds	r2, r2, #1
  86              	.LVL7:
 172:.\Generated_Source\PSoC5/cyfitter_cfg.c **** 			count--;
  87              		.loc 1 172 0
  88 0022 013B     		subs	r3, r3, #1
  89              	.LVL8:
  90 0024 DBB2     		uxtb	r3, r3
  91              	.LVL9:
  92              	.L5:
 168:.\Generated_Source\PSoC5/cyfitter_cfg.c **** 		{
  93              		.loc 1 168 0
  94 0026 002B     		cmp	r3, #0
  95 0028 F4D1     		bne	.L6
  96              	.LBE2:
 163:.\Generated_Source\PSoC5/cyfitter_cfg.c **** 	{
  97              		.loc 1 163 0 discriminator 2
  98 002a 0137     		adds	r7, r7, #1
  99              	.LVL10:
 100              	.L4:
 163:.\Generated_Source\PSoC5/cyfitter_cfg.c **** 	{
 101              		.loc 1 163 0 is_stmt 0 discriminator 1
 102 002c 172F     		cmp	r7, #23
 103 002e EBD9     		bls	.L7
 173:.\Generated_Source\PSoC5/cyfitter_cfg.c **** 		}
 174:.\Generated_Source\PSoC5/cyfitter_cfg.c **** 	}
 175:.\Generated_Source\PSoC5/cyfitter_cfg.c **** }
 104              		.loc 1 175 0 is_stmt 1
 105 0030 F0BC     		pop	{r4, r5, r6, r7}
 106              		.cfi_restore 7
 107              		.cfi_restore 6
ARM GAS  C:\Users\LUKASC~1\AppData\Local\Temp\ccv54092.s 			page 6


 108              		.cfi_restore 5
 109              		.cfi_restore 4
 110              		.cfi_def_cfa_offset 0
 111              	.LVL11:
 112 0032 7047     		bx	lr
 113              		.cfi_endproc
 114              	.LFE4:
 115              		.size	cfg_write_bytes32, .-cfg_write_bytes32
 116              		.section	.text.AnalogSetDefault,"ax",%progbits
 117              		.align	2
 118              		.thumb
 119              		.thumb_func
 120              		.type	AnalogSetDefault, %function
 121              	AnalogSetDefault:
 122              	.LFB6:
 176:.\Generated_Source\PSoC5/cyfitter_cfg.c **** 
 177:.\Generated_Source\PSoC5/cyfitter_cfg.c **** /*******************************************************************************
 178:.\Generated_Source\PSoC5/cyfitter_cfg.c **** * Function Name: ClockSetup
 179:.\Generated_Source\PSoC5/cyfitter_cfg.c **** ********************************************************************************
 180:.\Generated_Source\PSoC5/cyfitter_cfg.c **** *
 181:.\Generated_Source\PSoC5/cyfitter_cfg.c **** * Summary:
 182:.\Generated_Source\PSoC5/cyfitter_cfg.c **** *  Performs the initialization of all of the clocks in the device based on the
 183:.\Generated_Source\PSoC5/cyfitter_cfg.c **** *  settings in the Clock tab of the DWR.  This includes enabling the requested
 184:.\Generated_Source\PSoC5/cyfitter_cfg.c **** *  clocks and setting the necessary dividers to produce the desired frequency. 
 185:.\Generated_Source\PSoC5/cyfitter_cfg.c **** *
 186:.\Generated_Source\PSoC5/cyfitter_cfg.c **** * Parameters:
 187:.\Generated_Source\PSoC5/cyfitter_cfg.c **** *  void
 188:.\Generated_Source\PSoC5/cyfitter_cfg.c **** *
 189:.\Generated_Source\PSoC5/cyfitter_cfg.c **** * Return:
 190:.\Generated_Source\PSoC5/cyfitter_cfg.c **** *  void
 191:.\Generated_Source\PSoC5/cyfitter_cfg.c **** *
 192:.\Generated_Source\PSoC5/cyfitter_cfg.c **** *******************************************************************************/
 193:.\Generated_Source\PSoC5/cyfitter_cfg.c **** static void ClockSetup(void);
 194:.\Generated_Source\PSoC5/cyfitter_cfg.c **** static void ClockSetup(void)
 195:.\Generated_Source\PSoC5/cyfitter_cfg.c **** {
 196:.\Generated_Source\PSoC5/cyfitter_cfg.c **** 	uint32 timeout;
 197:.\Generated_Source\PSoC5/cyfitter_cfg.c **** 	uint8 pllLock;
 198:.\Generated_Source\PSoC5/cyfitter_cfg.c **** 
 199:.\Generated_Source\PSoC5/cyfitter_cfg.c **** 
 200:.\Generated_Source\PSoC5/cyfitter_cfg.c **** 	/* Configure ILO based on settings from Clock DWR */
 201:.\Generated_Source\PSoC5/cyfitter_cfg.c **** 	CY_SET_XTND_REG8((void CYFAR *)(CYREG_SLOWCLK_ILO_CR0), 0x06u);
 202:.\Generated_Source\PSoC5/cyfitter_cfg.c **** 
 203:.\Generated_Source\PSoC5/cyfitter_cfg.c **** 	/* Configure XTAL based on settings from Clock DWR */
 204:.\Generated_Source\PSoC5/cyfitter_cfg.c **** 	CY_SET_XTND_REG16((void CYFAR *)(CYREG_FASTCLK_XMHZ_CFG0), 0x3313u);
 205:.\Generated_Source\PSoC5/cyfitter_cfg.c **** 	CY_SET_XTND_REG8((void CYFAR *)(CYREG_FASTCLK_XMHZ_CSR), 0x05u);
 206:.\Generated_Source\PSoC5/cyfitter_cfg.c **** 	/* Wait up to 130000us for the XTAL to lock */
 207:.\Generated_Source\PSoC5/cyfitter_cfg.c **** 	CY_GET_XTND_REG8((void CYFAR *)CYREG_FASTCLK_XMHZ_CSR);
 208:.\Generated_Source\PSoC5/cyfitter_cfg.c **** 	for (timeout = 130000u / 10u; (timeout > 0u) && ((CY_GET_XTND_REG8((void CYFAR *)CYREG_FASTCLK_XMH
 209:.\Generated_Source\PSoC5/cyfitter_cfg.c **** 	{ 
 210:.\Generated_Source\PSoC5/cyfitter_cfg.c **** 		
 211:.\Generated_Source\PSoC5/cyfitter_cfg.c **** 		CyDelayCycles(10u * 48u); /* Delay 10us based on 48MHz clock */
 212:.\Generated_Source\PSoC5/cyfitter_cfg.c **** 	}
 213:.\Generated_Source\PSoC5/cyfitter_cfg.c **** 	if (timeout == 0u)
 214:.\Generated_Source\PSoC5/cyfitter_cfg.c **** 	{
 215:.\Generated_Source\PSoC5/cyfitter_cfg.c **** 		CyClockStartupError(CYCLOCKSTART_XTAL_ERROR);
 216:.\Generated_Source\PSoC5/cyfitter_cfg.c **** 	}
 217:.\Generated_Source\PSoC5/cyfitter_cfg.c **** 	CY_SET_XTND_REG8((void CYFAR *)(CYREG_CLKDIST_CR), 0x40u);
ARM GAS  C:\Users\LUKASC~1\AppData\Local\Temp\ccv54092.s 			page 7


 218:.\Generated_Source\PSoC5/cyfitter_cfg.c **** 
 219:.\Generated_Source\PSoC5/cyfitter_cfg.c **** 	/* Configure IMO based on settings from Clock DWR */
 220:.\Generated_Source\PSoC5/cyfitter_cfg.c **** 	CY_SET_XTND_REG8((void CYFAR *)(CYREG_FASTCLK_IMO_CR), 0x70u);
 221:.\Generated_Source\PSoC5/cyfitter_cfg.c **** 
 222:.\Generated_Source\PSoC5/cyfitter_cfg.c **** 	/* Configure PLL based on settings from Clock DWR */
 223:.\Generated_Source\PSoC5/cyfitter_cfg.c **** 	CY_SET_XTND_REG16((void CYFAR *)(CYREG_FASTCLK_PLL_P), 0x0708u);
 224:.\Generated_Source\PSoC5/cyfitter_cfg.c **** 	CY_SET_XTND_REG16((void CYFAR *)(CYREG_FASTCLK_PLL_CFG0), 0x1251u);
 225:.\Generated_Source\PSoC5/cyfitter_cfg.c **** 	/* Wait up to 250us for the PLL to lock */
 226:.\Generated_Source\PSoC5/cyfitter_cfg.c **** 	pllLock = 0u;
 227:.\Generated_Source\PSoC5/cyfitter_cfg.c **** 	for (timeout = 250u / 10u; (timeout > 0u) && (pllLock != 0x03u); timeout--)
 228:.\Generated_Source\PSoC5/cyfitter_cfg.c **** 	{ 
 229:.\Generated_Source\PSoC5/cyfitter_cfg.c **** 		pllLock = 0x03u & ((uint8)((uint8)pllLock << 1) | ((CY_GET_XTND_REG8((void CYFAR *)CYREG_FASTCLK_
 230:.\Generated_Source\PSoC5/cyfitter_cfg.c **** 		CyDelayCycles(10u * 48u); /* Delay 10us based on 48MHz clock */
 231:.\Generated_Source\PSoC5/cyfitter_cfg.c **** 	}
 232:.\Generated_Source\PSoC5/cyfitter_cfg.c **** 	/* If we ran out of time the PLL didn't lock so go to the error function */
 233:.\Generated_Source\PSoC5/cyfitter_cfg.c **** 	if (timeout == 0u)
 234:.\Generated_Source\PSoC5/cyfitter_cfg.c **** 	{
 235:.\Generated_Source\PSoC5/cyfitter_cfg.c **** 		CyClockStartupError(CYCLOCKSTART_PLL_ERROR);
 236:.\Generated_Source\PSoC5/cyfitter_cfg.c **** 	}
 237:.\Generated_Source\PSoC5/cyfitter_cfg.c **** 
 238:.\Generated_Source\PSoC5/cyfitter_cfg.c **** 	/* Configure Bus/Master Clock based on settings from Clock DWR */
 239:.\Generated_Source\PSoC5/cyfitter_cfg.c **** 	CY_SET_XTND_REG16((void CYFAR *)(CYREG_CLKDIST_MSTR0), 0x0100u);
 240:.\Generated_Source\PSoC5/cyfitter_cfg.c **** 	CY_SET_XTND_REG8((void CYFAR *)(CYREG_CLKDIST_MSTR0), 0x07u);
 241:.\Generated_Source\PSoC5/cyfitter_cfg.c **** 	CY_SET_XTND_REG8((void CYFAR *)(CYREG_CLKDIST_BCFG0), 0x00u);
 242:.\Generated_Source\PSoC5/cyfitter_cfg.c **** 	CY_SET_XTND_REG8((void CYFAR *)(CYREG_CLKDIST_BCFG2), 0x48u);
 243:.\Generated_Source\PSoC5/cyfitter_cfg.c **** 	CY_SET_XTND_REG8((void CYFAR *)(CYREG_CLKDIST_MSTR0), 0x00u);
 244:.\Generated_Source\PSoC5/cyfitter_cfg.c **** 
 245:.\Generated_Source\PSoC5/cyfitter_cfg.c **** 	/* Configure USB Clock based on settings from Clock DWR */
 246:.\Generated_Source\PSoC5/cyfitter_cfg.c **** 	CY_SET_XTND_REG8((void CYFAR *)(CYREG_CLKDIST_UCFG), 0x00u);
 247:.\Generated_Source\PSoC5/cyfitter_cfg.c **** 	CY_SET_XTND_REG8((void CYFAR *)(CYREG_CLKDIST_LD), 0x02u);
 248:.\Generated_Source\PSoC5/cyfitter_cfg.c **** }
 249:.\Generated_Source\PSoC5/cyfitter_cfg.c **** 
 250:.\Generated_Source\PSoC5/cyfitter_cfg.c **** 
 251:.\Generated_Source\PSoC5/cyfitter_cfg.c **** /* Analog API Functions */
 252:.\Generated_Source\PSoC5/cyfitter_cfg.c **** 
 253:.\Generated_Source\PSoC5/cyfitter_cfg.c **** 
 254:.\Generated_Source\PSoC5/cyfitter_cfg.c **** /*******************************************************************************
 255:.\Generated_Source\PSoC5/cyfitter_cfg.c **** * Function Name: AnalogSetDefault
 256:.\Generated_Source\PSoC5/cyfitter_cfg.c **** ********************************************************************************
 257:.\Generated_Source\PSoC5/cyfitter_cfg.c **** *
 258:.\Generated_Source\PSoC5/cyfitter_cfg.c **** * Summary:
 259:.\Generated_Source\PSoC5/cyfitter_cfg.c **** *  Sets up the analog portions of the chip to default values based on chip
 260:.\Generated_Source\PSoC5/cyfitter_cfg.c **** *  configuration options from the project.
 261:.\Generated_Source\PSoC5/cyfitter_cfg.c **** *
 262:.\Generated_Source\PSoC5/cyfitter_cfg.c **** * Parameters:
 263:.\Generated_Source\PSoC5/cyfitter_cfg.c **** *  void
 264:.\Generated_Source\PSoC5/cyfitter_cfg.c **** *
 265:.\Generated_Source\PSoC5/cyfitter_cfg.c **** * Return:
 266:.\Generated_Source\PSoC5/cyfitter_cfg.c **** *  void
 267:.\Generated_Source\PSoC5/cyfitter_cfg.c **** *
 268:.\Generated_Source\PSoC5/cyfitter_cfg.c **** *******************************************************************************/
 269:.\Generated_Source\PSoC5/cyfitter_cfg.c **** static void AnalogSetDefault(void);
 270:.\Generated_Source\PSoC5/cyfitter_cfg.c **** static void AnalogSetDefault(void)
 271:.\Generated_Source\PSoC5/cyfitter_cfg.c **** {
 123              		.loc 1 271 0
 124              		.cfi_startproc
 125              		@ args = 0, pretend = 0, frame = 0
ARM GAS  C:\Users\LUKASC~1\AppData\Local\Temp\ccv54092.s 			page 8


 126              		@ frame_needed = 0, uses_anonymous_args = 0
 127              		@ link register save eliminated.
 272:.\Generated_Source\PSoC5/cyfitter_cfg.c **** 	uint8 bg_xover_inl_trim = CY_GET_XTND_REG8((void CYFAR *)(CYREG_FLSHID_MFG_CFG_BG_XOVER_INL_TRIM +
 128              		.loc 1 272 0
 129 0000 064B     		ldr	r3, .L10
 130 0002 1B78     		ldrb	r3, [r3]	@ zero_extendqisi2
 131 0004 DBB2     		uxtb	r3, r3
 132              	.LVL12:
 273:.\Generated_Source\PSoC5/cyfitter_cfg.c **** 	CY_SET_XTND_REG8((void CYFAR *)(CYREG_BG_DFT0), (bg_xover_inl_trim & 0x07u));
 133              		.loc 1 273 0
 134 0006 03F00701 		and	r1, r3, #7
 135 000a 054A     		ldr	r2, .L10+4
 136 000c 1170     		strb	r1, [r2]
 274:.\Generated_Source\PSoC5/cyfitter_cfg.c **** 	CY_SET_XTND_REG8((void CYFAR *)(CYREG_BG_DFT1), ((bg_xover_inl_trim >> 4) & 0x0Fu));
 137              		.loc 1 274 0
 138 000e 1B09     		lsrs	r3, r3, #4
 139              	.LVL13:
 140 0010 0132     		adds	r2, r2, #1
 141 0012 1370     		strb	r3, [r2]
 275:.\Generated_Source\PSoC5/cyfitter_cfg.c **** 	CY_SET_XTND_REG8((void CYFAR *)CYREG_PUMP_CR0, 0x44u);
 142              		.loc 1 275 0
 143 0014 4422     		movs	r2, #68
 144 0016 034B     		ldr	r3, .L10+8
 145 0018 1A70     		strb	r2, [r3]
 146 001a 7047     		bx	lr
 147              	.L11:
 148              		.align	2
 149              	.L10:
 150 001c CF010049 		.word	1224737231
 151 0020 6E580040 		.word	1073764462
 152 0024 76580040 		.word	1073764470
 153              		.cfi_endproc
 154              	.LFE6:
 155              		.size	AnalogSetDefault, .-AnalogSetDefault
 156              		.section	.text.CYMEMZERO,"ax",%progbits
 157              		.align	2
 158              		.thumb
 159              		.thumb_func
 160              		.type	CYMEMZERO, %function
 161              	CYMEMZERO:
 162              	.LFB0:
  63:.\Generated_Source\PSoC5/cyfitter_cfg.c **** 	(void)memset(s, 0, n);
 163              		.loc 1 63 0
 164              		.cfi_startproc
 165              		@ args = 0, pretend = 0, frame = 0
 166              		@ frame_needed = 0, uses_anonymous_args = 0
 167              	.LVL14:
 168 0000 08B5     		push	{r3, lr}
 169              		.cfi_def_cfa_offset 8
 170              		.cfi_offset 3, -8
 171              		.cfi_offset 14, -4
 172 0002 0A46     		mov	r2, r1
  64:.\Generated_Source\PSoC5/cyfitter_cfg.c **** }
 173              		.loc 1 64 0
 174 0004 0021     		movs	r1, #0
 175              	.LVL15:
 176 0006 FFF7FEFF 		bl	memset
ARM GAS  C:\Users\LUKASC~1\AppData\Local\Temp\ccv54092.s 			page 9


 177              	.LVL16:
 178 000a 08BD     		pop	{r3, pc}
 179              		.cfi_endproc
 180              	.LFE0:
 181              		.size	CYMEMZERO, .-CYMEMZERO
 182              		.section	.text.ClockSetup,"ax",%progbits
 183              		.align	2
 184              		.thumb
 185              		.thumb_func
 186              		.type	ClockSetup, %function
 187              	ClockSetup:
 188              	.LFB5:
 195:.\Generated_Source\PSoC5/cyfitter_cfg.c **** 	uint32 timeout;
 189              		.loc 1 195 0
 190              		.cfi_startproc
 191              		@ args = 0, pretend = 0, frame = 0
 192              		@ frame_needed = 0, uses_anonymous_args = 0
 193 0000 38B5     		push	{r3, r4, r5, lr}
 194              		.cfi_def_cfa_offset 16
 195              		.cfi_offset 3, -16
 196              		.cfi_offset 4, -12
 197              		.cfi_offset 5, -8
 198              		.cfi_offset 14, -4
 201:.\Generated_Source\PSoC5/cyfitter_cfg.c **** 
 199              		.loc 1 201 0
 200 0002 0622     		movs	r2, #6
 201 0004 2A4B     		ldr	r3, .L24
 202 0006 1A70     		strb	r2, [r3]
 204:.\Generated_Source\PSoC5/cyfitter_cfg.c **** 	CY_SET_XTND_REG8((void CYFAR *)(CYREG_FASTCLK_XMHZ_CSR), 0x05u);
 203              		.loc 1 204 0
 204 0008 43F21332 		movw	r2, #13075
 205 000c EE3B     		subs	r3, r3, #238
 206 000e 1A80     		strh	r2, [r3]	@ movhi
 205:.\Generated_Source\PSoC5/cyfitter_cfg.c **** 	/* Wait up to 130000us for the XTAL to lock */
 207              		.loc 1 205 0
 208 0010 023B     		subs	r3, r3, #2
 209 0012 0522     		movs	r2, #5
 210 0014 1A70     		strb	r2, [r3]
 207:.\Generated_Source\PSoC5/cyfitter_cfg.c **** 	for (timeout = 130000u / 10u; (timeout > 0u) && ((CY_GET_XTND_REG8((void CYFAR *)CYREG_FASTCLK_XMH
 211              		.loc 1 207 0
 212 0016 1B78     		ldrb	r3, [r3]	@ zero_extendqisi2
 213              	.LVL17:
 208:.\Generated_Source\PSoC5/cyfitter_cfg.c **** 	{ 
 214              		.loc 1 208 0
 215 0018 43F2C824 		movw	r4, #13000
 216 001c 04E0     		b	.L15
 217              	.LVL18:
 218              	.L17:
 211:.\Generated_Source\PSoC5/cyfitter_cfg.c **** 	}
 219              		.loc 1 211 0 discriminator 4
 220 001e 4FF4F070 		mov	r0, #480
 221 0022 FFF7FEFF 		bl	CyDelayCycles
 222              	.LVL19:
 208:.\Generated_Source\PSoC5/cyfitter_cfg.c **** 	{ 
 223              		.loc 1 208 0 discriminator 4
 224 0026 013C     		subs	r4, r4, #1
 225              	.LVL20:
ARM GAS  C:\Users\LUKASC~1\AppData\Local\Temp\ccv54092.s 			page 10


 226              	.L15:
 208:.\Generated_Source\PSoC5/cyfitter_cfg.c **** 	{ 
 227              		.loc 1 208 0 is_stmt 0 discriminator 1
 228 0028 24B1     		cbz	r4, .L16
 208:.\Generated_Source\PSoC5/cyfitter_cfg.c **** 	{ 
 229              		.loc 1 208 0 discriminator 3
 230 002a 224B     		ldr	r3, .L24+4
 231 002c 1B78     		ldrb	r3, [r3]	@ zero_extendqisi2
 232 002e 13F0800F 		tst	r3, #128
 233 0032 F4D1     		bne	.L17
 234              	.L16:
 213:.\Generated_Source\PSoC5/cyfitter_cfg.c **** 	{
 235              		.loc 1 213 0 is_stmt 1
 236 0034 14B9     		cbnz	r4, .L18
 215:.\Generated_Source\PSoC5/cyfitter_cfg.c **** 	}
 237              		.loc 1 215 0
 238 0036 0120     		movs	r0, #1
 239 0038 FFF7FEFF 		bl	CyClockStartupError
 240              	.LVL21:
 241              	.L18:
 217:.\Generated_Source\PSoC5/cyfitter_cfg.c **** 
 242              		.loc 1 217 0
 243 003c 4022     		movs	r2, #64
 244 003e 4FF04023 		mov	r3, #1073758208
 245 0042 1A70     		strb	r2, [r3]
 220:.\Generated_Source\PSoC5/cyfitter_cfg.c **** 
 246              		.loc 1 220 0
 247 0044 7022     		movs	r2, #112
 248 0046 03F50073 		add	r3, r3, #512
 249 004a 1A70     		strb	r2, [r3]
 223:.\Generated_Source\PSoC5/cyfitter_cfg.c **** 	CY_SET_XTND_REG16((void CYFAR *)(CYREG_FASTCLK_PLL_CFG0), 0x1251u);
 250              		.loc 1 223 0
 251 004c 4FF4E162 		mov	r2, #1800
 252 0050 2233     		adds	r3, r3, #34
 253 0052 1A80     		strh	r2, [r3]	@ movhi
 224:.\Generated_Source\PSoC5/cyfitter_cfg.c **** 	/* Wait up to 250us for the PLL to lock */
 254              		.loc 1 224 0
 255 0054 41F25122 		movw	r2, #4689
 256 0058 023B     		subs	r3, r3, #2
 257 005a 1A80     		strh	r2, [r3]	@ movhi
 258              	.LVL22:
 226:.\Generated_Source\PSoC5/cyfitter_cfg.c **** 	for (timeout = 250u / 10u; (timeout > 0u) && (pllLock != 0x03u); timeout--)
 259              		.loc 1 226 0
 260 005c 0024     		movs	r4, #0
 227:.\Generated_Source\PSoC5/cyfitter_cfg.c **** 	{ 
 261              		.loc 1 227 0
 262 005e 1925     		movs	r5, #25
 263 0060 0CE0     		b	.L19
 264              	.LVL23:
 265              	.L21:
 229:.\Generated_Source\PSoC5/cyfitter_cfg.c **** 		CyDelayCycles(10u * 48u); /* Delay 10us based on 48MHz clock */
 266              		.loc 1 229 0 discriminator 4
 267 0062 154B     		ldr	r3, .L24+8
 268 0064 1B78     		ldrb	r3, [r3]	@ zero_extendqisi2
 269 0066 03F00103 		and	r3, r3, #1
 270 006a 43EA4404 		orr	r4, r3, r4, lsl #1
 271              	.LVL24:
ARM GAS  C:\Users\LUKASC~1\AppData\Local\Temp\ccv54092.s 			page 11


 272 006e 04F00304 		and	r4, r4, #3
 273              	.LVL25:
 230:.\Generated_Source\PSoC5/cyfitter_cfg.c **** 	}
 274              		.loc 1 230 0 discriminator 4
 275 0072 4FF4F070 		mov	r0, #480
 276 0076 FFF7FEFF 		bl	CyDelayCycles
 277              	.LVL26:
 227:.\Generated_Source\PSoC5/cyfitter_cfg.c **** 	{ 
 278              		.loc 1 227 0 discriminator 4
 279 007a 013D     		subs	r5, r5, #1
 280              	.LVL27:
 281              	.L19:
 227:.\Generated_Source\PSoC5/cyfitter_cfg.c **** 	{ 
 282              		.loc 1 227 0 is_stmt 0 discriminator 1
 283 007c 0DB1     		cbz	r5, .L20
 227:.\Generated_Source\PSoC5/cyfitter_cfg.c **** 	{ 
 284              		.loc 1 227 0 discriminator 3
 285 007e 032C     		cmp	r4, #3
 286 0080 EFD1     		bne	.L21
 287              	.L20:
 233:.\Generated_Source\PSoC5/cyfitter_cfg.c **** 	{
 288              		.loc 1 233 0 is_stmt 1
 289 0082 15B9     		cbnz	r5, .L22
 235:.\Generated_Source\PSoC5/cyfitter_cfg.c **** 	}
 290              		.loc 1 235 0
 291 0084 0320     		movs	r0, #3
 292 0086 FFF7FEFF 		bl	CyClockStartupError
 293              	.LVL28:
 294              	.L22:
 239:.\Generated_Source\PSoC5/cyfitter_cfg.c **** 	CY_SET_XTND_REG8((void CYFAR *)(CYREG_CLKDIST_MSTR0), 0x07u);
 295              		.loc 1 239 0
 296 008a 0C4A     		ldr	r2, .L24+12
 297 008c 4FF48073 		mov	r3, #256
 298 0090 1380     		strh	r3, [r2]	@ movhi
 240:.\Generated_Source\PSoC5/cyfitter_cfg.c **** 	CY_SET_XTND_REG8((void CYFAR *)(CYREG_CLKDIST_BCFG0), 0x00u);
 299              		.loc 1 240 0
 300 0092 0723     		movs	r3, #7
 301 0094 1370     		strb	r3, [r2]
 241:.\Generated_Source\PSoC5/cyfitter_cfg.c **** 	CY_SET_XTND_REG8((void CYFAR *)(CYREG_CLKDIST_BCFG2), 0x48u);
 302              		.loc 1 241 0
 303 0096 0023     		movs	r3, #0
 304 0098 0949     		ldr	r1, .L24+16
 305 009a 0B70     		strb	r3, [r1]
 242:.\Generated_Source\PSoC5/cyfitter_cfg.c **** 	CY_SET_XTND_REG8((void CYFAR *)(CYREG_CLKDIST_MSTR0), 0x00u);
 306              		.loc 1 242 0
 307 009c 4820     		movs	r0, #72
 308 009e 0231     		adds	r1, r1, #2
 309 00a0 0870     		strb	r0, [r1]
 243:.\Generated_Source\PSoC5/cyfitter_cfg.c **** 
 310              		.loc 1 243 0
 311 00a2 1370     		strb	r3, [r2]
 246:.\Generated_Source\PSoC5/cyfitter_cfg.c **** 	CY_SET_XTND_REG8((void CYFAR *)(CYREG_CLKDIST_LD), 0x02u);
 312              		.loc 1 246 0
 313 00a4 0532     		adds	r2, r2, #5
 314 00a6 1370     		strb	r3, [r2]
 247:.\Generated_Source\PSoC5/cyfitter_cfg.c **** }
 315              		.loc 1 247 0
ARM GAS  C:\Users\LUKASC~1\AppData\Local\Temp\ccv54092.s 			page 12


 316 00a8 0222     		movs	r2, #2
 317 00aa 064B     		ldr	r3, .L24+20
 318 00ac 1A70     		strb	r2, [r3]
 319 00ae 38BD     		pop	{r3, r4, r5, pc}
 320              	.LVL29:
 321              	.L25:
 322              		.align	2
 323              	.L24:
 324 00b0 00430040 		.word	1073758976
 325 00b4 10420040 		.word	1073758736
 326 00b8 25420040 		.word	1073758757
 327 00bc 04400040 		.word	1073758212
 328 00c0 06400040 		.word	1073758214
 329 00c4 01400040 		.word	1073758209
 330              		.cfi_endproc
 331              	.LFE5:
 332              		.size	ClockSetup, .-ClockSetup
 333              		.section	.text.CYCONFIGCPY,"ax",%progbits
 334              		.align	2
 335              		.thumb
 336              		.thumb_func
 337              		.type	CYCONFIGCPY, %function
 338              	CYCONFIGCPY:
 339              	.LFB1:
  70:.\Generated_Source\PSoC5/cyfitter_cfg.c **** 	(void)memcpy(dest, src, n);
 340              		.loc 1 70 0
 341              		.cfi_startproc
 342              		@ args = 0, pretend = 0, frame = 0
 343              		@ frame_needed = 0, uses_anonymous_args = 0
 344              	.LVL30:
 345 0000 08B5     		push	{r3, lr}
 346              		.cfi_def_cfa_offset 8
 347              		.cfi_offset 3, -8
 348              		.cfi_offset 14, -4
  71:.\Generated_Source\PSoC5/cyfitter_cfg.c **** }
 349              		.loc 1 71 0
 350 0002 FFF7FEFF 		bl	memcpy
 351              	.LVL31:
 352 0006 08BD     		pop	{r3, pc}
 353              		.cfi_endproc
 354              	.LFE1:
 355              		.size	CYCONFIGCPY, .-CYCONFIGCPY
 356              		.section	.text.SetAnalogRoutingPumps,"ax",%progbits
 357              		.align	2
 358              		.global	SetAnalogRoutingPumps
 359              		.thumb
 360              		.thumb_func
 361              		.type	SetAnalogRoutingPumps, %function
 362              	SetAnalogRoutingPumps:
 363              	.LFB7:
 276:.\Generated_Source\PSoC5/cyfitter_cfg.c **** }
 277:.\Generated_Source\PSoC5/cyfitter_cfg.c **** 
 278:.\Generated_Source\PSoC5/cyfitter_cfg.c **** 
 279:.\Generated_Source\PSoC5/cyfitter_cfg.c **** /*******************************************************************************
 280:.\Generated_Source\PSoC5/cyfitter_cfg.c **** * Function Name: SetAnalogRoutingPumps
 281:.\Generated_Source\PSoC5/cyfitter_cfg.c **** ********************************************************************************
 282:.\Generated_Source\PSoC5/cyfitter_cfg.c **** *
ARM GAS  C:\Users\LUKASC~1\AppData\Local\Temp\ccv54092.s 			page 13


 283:.\Generated_Source\PSoC5/cyfitter_cfg.c **** * Summary:
 284:.\Generated_Source\PSoC5/cyfitter_cfg.c **** * Enables or disables the analog pumps feeding analog routing switches.
 285:.\Generated_Source\PSoC5/cyfitter_cfg.c **** * Intended to be called at startup, based on the Vdda system configuration;
 286:.\Generated_Source\PSoC5/cyfitter_cfg.c **** * may be called during operation when the user informs us that the Vdda voltage
 287:.\Generated_Source\PSoC5/cyfitter_cfg.c **** * crossed the pump threshold.
 288:.\Generated_Source\PSoC5/cyfitter_cfg.c **** *
 289:.\Generated_Source\PSoC5/cyfitter_cfg.c **** * Parameters:
 290:.\Generated_Source\PSoC5/cyfitter_cfg.c **** *  enabled - 1 to enable the pumps, 0 to disable the pumps
 291:.\Generated_Source\PSoC5/cyfitter_cfg.c **** *
 292:.\Generated_Source\PSoC5/cyfitter_cfg.c **** * Return:
 293:.\Generated_Source\PSoC5/cyfitter_cfg.c **** *  void
 294:.\Generated_Source\PSoC5/cyfitter_cfg.c **** *
 295:.\Generated_Source\PSoC5/cyfitter_cfg.c **** *******************************************************************************/
 296:.\Generated_Source\PSoC5/cyfitter_cfg.c **** void SetAnalogRoutingPumps(uint8 enabled)
 297:.\Generated_Source\PSoC5/cyfitter_cfg.c **** {
 364              		.loc 1 297 0
 365              		.cfi_startproc
 366              		@ args = 0, pretend = 0, frame = 0
 367              		@ frame_needed = 0, uses_anonymous_args = 0
 368              		@ link register save eliminated.
 369              	.LVL32:
 298:.\Generated_Source\PSoC5/cyfitter_cfg.c **** 	uint8 regValue = CY_GET_XTND_REG8((void CYFAR *)CYREG_PUMP_CR0);
 370              		.loc 1 298 0
 371 0000 024A     		ldr	r2, .L29
 372 0002 1378     		ldrb	r3, [r2]	@ zero_extendqisi2
 373 0004 DBB2     		uxtb	r3, r3
 374              	.LVL33:
 299:.\Generated_Source\PSoC5/cyfitter_cfg.c **** 	if (enabled != 0u)
 300:.\Generated_Source\PSoC5/cyfitter_cfg.c **** 	{
 301:.\Generated_Source\PSoC5/cyfitter_cfg.c **** 		regValue |= 0x00u;
 302:.\Generated_Source\PSoC5/cyfitter_cfg.c **** 	}
 303:.\Generated_Source\PSoC5/cyfitter_cfg.c **** 	else
 304:.\Generated_Source\PSoC5/cyfitter_cfg.c **** 	{
 305:.\Generated_Source\PSoC5/cyfitter_cfg.c **** 		regValue &= (uint8)~0x00u;
 306:.\Generated_Source\PSoC5/cyfitter_cfg.c **** 	}
 307:.\Generated_Source\PSoC5/cyfitter_cfg.c **** 	CY_SET_XTND_REG8((void CYFAR *)CYREG_PUMP_CR0, regValue);
 375              		.loc 1 307 0
 376 0006 1370     		strb	r3, [r2]
 377 0008 7047     		bx	lr
 378              	.L30:
 379 000a 00BF     		.align	2
 380              	.L29:
 381 000c 76580040 		.word	1073764470
 382              		.cfi_endproc
 383              	.LFE7:
 384              		.size	SetAnalogRoutingPumps, .-SetAnalogRoutingPumps
 385              		.section	.text.cyfitter_cfg,"ax",%progbits
 386              		.align	2
 387              		.global	cyfitter_cfg
 388              		.thumb
 389              		.thumb_func
 390              		.type	cyfitter_cfg, %function
 391              	cyfitter_cfg:
 392              	.LFB8:
 308:.\Generated_Source\PSoC5/cyfitter_cfg.c **** }
 309:.\Generated_Source\PSoC5/cyfitter_cfg.c **** 
 310:.\Generated_Source\PSoC5/cyfitter_cfg.c **** #define CY_AMUX_UNUSED CYREG_BOOST_SR
ARM GAS  C:\Users\LUKASC~1\AppData\Local\Temp\ccv54092.s 			page 14


 311:.\Generated_Source\PSoC5/cyfitter_cfg.c **** 
 312:.\Generated_Source\PSoC5/cyfitter_cfg.c **** 
 313:.\Generated_Source\PSoC5/cyfitter_cfg.c **** /*******************************************************************************
 314:.\Generated_Source\PSoC5/cyfitter_cfg.c **** * Function Name: cyfitter_cfg
 315:.\Generated_Source\PSoC5/cyfitter_cfg.c **** ********************************************************************************
 316:.\Generated_Source\PSoC5/cyfitter_cfg.c **** * Summary:
 317:.\Generated_Source\PSoC5/cyfitter_cfg.c **** *  This function is called by the start-up code for the selected device. It
 318:.\Generated_Source\PSoC5/cyfitter_cfg.c **** *  performs all of the necessary device configuration based on the design
 319:.\Generated_Source\PSoC5/cyfitter_cfg.c **** *  settings.  This includes settings from the Design Wide Resources (DWR) such
 320:.\Generated_Source\PSoC5/cyfitter_cfg.c **** *  as Clocks and Pins as well as any component configuration that is necessary.
 321:.\Generated_Source\PSoC5/cyfitter_cfg.c **** *
 322:.\Generated_Source\PSoC5/cyfitter_cfg.c **** * Parameters:  
 323:.\Generated_Source\PSoC5/cyfitter_cfg.c **** *   void
 324:.\Generated_Source\PSoC5/cyfitter_cfg.c **** *
 325:.\Generated_Source\PSoC5/cyfitter_cfg.c **** * Return:
 326:.\Generated_Source\PSoC5/cyfitter_cfg.c **** *   void
 327:.\Generated_Source\PSoC5/cyfitter_cfg.c **** *
 328:.\Generated_Source\PSoC5/cyfitter_cfg.c **** *******************************************************************************/
 329:.\Generated_Source\PSoC5/cyfitter_cfg.c **** 
 330:.\Generated_Source\PSoC5/cyfitter_cfg.c **** void cyfitter_cfg(void)
 331:.\Generated_Source\PSoC5/cyfitter_cfg.c **** {
 393              		.loc 1 331 0
 394              		.cfi_startproc
 395              		@ args = 0, pretend = 0, frame = 0
 396              		@ frame_needed = 0, uses_anonymous_args = 0
 397 0000 38B5     		push	{r3, r4, r5, lr}
 398              		.cfi_def_cfa_offset 16
 399              		.cfi_offset 3, -16
 400              		.cfi_offset 4, -12
 401              		.cfi_offset 5, -8
 402              		.cfi_offset 14, -4
 332:.\Generated_Source\PSoC5/cyfitter_cfg.c **** #ifdef CYGlobalIntDisable
 333:.\Generated_Source\PSoC5/cyfitter_cfg.c **** 	/* Disable interrupts by default. Let user enable if/when they want. */
 334:.\Generated_Source\PSoC5/cyfitter_cfg.c **** 	CYGlobalIntDisable
 403              		.loc 1 334 0
 404              	@ 334 ".\Generated_Source\PSoC5\cyfitter_cfg.c" 1
 405 0002 72B6     		CPSID   i
 406              	@ 0 "" 2
 335:.\Generated_Source\PSoC5/cyfitter_cfg.c **** #endif
 336:.\Generated_Source\PSoC5/cyfitter_cfg.c **** 
 337:.\Generated_Source\PSoC5/cyfitter_cfg.c **** 	/* Enable/Disable Debug functionality based on settings from System DWR */
 338:.\Generated_Source\PSoC5/cyfitter_cfg.c **** 	CY_SET_XTND_REG8((void CYFAR *)CYREG_MLOGIC_DEBUG, (CY_GET_XTND_REG8((void CYFAR *)CYREG_MLOGIC_DE
 407              		.loc 1 338 0
 408              		.thumb
 409 0004 274A     		ldr	r2, .L35
 410 0006 1378     		ldrb	r3, [r2]	@ zero_extendqisi2
 411 0008 43F00403 		orr	r3, r3, #4
 412 000c 1370     		strb	r3, [r2]
 413              	.LVL34:
 414              	.LBB3:
 339:.\Generated_Source\PSoC5/cyfitter_cfg.c **** 
 340:.\Generated_Source\PSoC5/cyfitter_cfg.c **** 	{
 341:.\Generated_Source\PSoC5/cyfitter_cfg.c **** 
 342:.\Generated_Source\PSoC5/cyfitter_cfg.c **** 		CYPACKED typedef struct {
 343:.\Generated_Source\PSoC5/cyfitter_cfg.c **** 			void CYFAR *address;
 344:.\Generated_Source\PSoC5/cyfitter_cfg.c **** 			uint16 size;
 345:.\Generated_Source\PSoC5/cyfitter_cfg.c **** 		} CYPACKED_ATTR cfg_memset_t;
ARM GAS  C:\Users\LUKASC~1\AppData\Local\Temp\ccv54092.s 			page 15


 346:.\Generated_Source\PSoC5/cyfitter_cfg.c **** 
 347:.\Generated_Source\PSoC5/cyfitter_cfg.c **** 		static const cfg_memset_t CYCODE cfg_memset_list [] = {
 348:.\Generated_Source\PSoC5/cyfitter_cfg.c **** 			/* address, size */
 349:.\Generated_Source\PSoC5/cyfitter_cfg.c **** 			{(void CYFAR *)(CYREG_I2C_XCFG), 25u},
 350:.\Generated_Source\PSoC5/cyfitter_cfg.c **** 			{(void CYFAR *)(CYREG_PRT1_DR), 96u},
 351:.\Generated_Source\PSoC5/cyfitter_cfg.c **** 			{(void CYFAR *)(CYREG_PRT12_DR), 16u},
 352:.\Generated_Source\PSoC5/cyfitter_cfg.c **** 			{(void CYFAR *)(CYDEV_UCFG_B0_P0_U0_BASE), 4096u},
 353:.\Generated_Source\PSoC5/cyfitter_cfg.c **** 			{(void CYFAR *)(CYDEV_UCFG_B1_P2_U0_BASE), 2048u},
 354:.\Generated_Source\PSoC5/cyfitter_cfg.c **** 			{(void CYFAR *)(CYDEV_UCFG_DSI0_BASE), 2560u},
 355:.\Generated_Source\PSoC5/cyfitter_cfg.c **** 			{(void CYFAR *)(CYDEV_UCFG_DSI12_BASE), 512u},
 356:.\Generated_Source\PSoC5/cyfitter_cfg.c **** 			{(void CYFAR *)(CYREG_BCTL0_MDCLK_EN), 32u},
 357:.\Generated_Source\PSoC5/cyfitter_cfg.c **** 		};
 358:.\Generated_Source\PSoC5/cyfitter_cfg.c **** 
 359:.\Generated_Source\PSoC5/cyfitter_cfg.c **** 		uint8 CYDATA i;
 360:.\Generated_Source\PSoC5/cyfitter_cfg.c **** 
 361:.\Generated_Source\PSoC5/cyfitter_cfg.c **** 		/* Zero out critical memory blocks before beginning configuration */
 362:.\Generated_Source\PSoC5/cyfitter_cfg.c **** 		for (i = 0u; i < (sizeof(cfg_memset_list)/sizeof(cfg_memset_list[0])); i++)
 415              		.loc 1 362 0
 416 000e 0024     		movs	r4, #0
 417 0010 0CE0     		b	.L32
 418              	.LVL35:
 419              	.L33:
 420              	.LBB4:
 363:.\Generated_Source\PSoC5/cyfitter_cfg.c **** 		{
 364:.\Generated_Source\PSoC5/cyfitter_cfg.c **** 			const cfg_memset_t CYCODE * CYDATA ms = &cfg_memset_list[i];
 365:.\Generated_Source\PSoC5/cyfitter_cfg.c **** 			CYMEMZERO(ms->address, (size_t)(uint32)(ms->size));
 421              		.loc 1 365 0 discriminator 3
 422 0012 2549     		ldr	r1, .L35+4
 423 0014 6300     		lsls	r3, r4, #1
 424 0016 1A19     		adds	r2, r3, r4
 425 0018 5200     		lsls	r2, r2, #1
 426 001a 0A44     		add	r2, r2, r1
 427 001c 2344     		add	r3, r3, r4
 428 001e 5B00     		lsls	r3, r3, #1
 429 0020 C858     		ldr	r0, [r1, r3]	@ unaligned
 430 0022 9188     		ldrh	r1, [r2, #4]
 431 0024 FFF7FEFF 		bl	CYMEMZERO
 432              	.LVL36:
 433              	.LBE4:
 362:.\Generated_Source\PSoC5/cyfitter_cfg.c **** 		{
 434              		.loc 1 362 0 discriminator 3
 435 0028 0134     		adds	r4, r4, #1
 436              	.LVL37:
 437 002a E4B2     		uxtb	r4, r4
 438              	.LVL38:
 439              	.L32:
 362:.\Generated_Source\PSoC5/cyfitter_cfg.c **** 		{
 440              		.loc 1 362 0 is_stmt 0 discriminator 1
 441 002c 072C     		cmp	r4, #7
 442 002e F0D9     		bls	.L33
 366:.\Generated_Source\PSoC5/cyfitter_cfg.c **** 		}
 367:.\Generated_Source\PSoC5/cyfitter_cfg.c **** 
 368:.\Generated_Source\PSoC5/cyfitter_cfg.c **** 		cfg_write_bytes32(cy_cfg_addr_table, cy_cfg_data_table);
 443              		.loc 1 368 0 is_stmt 1
 444 0030 4FF09040 		mov	r0, #1207959552
 445 0034 1D49     		ldr	r1, .L35+8
 446 0036 FFF7FEFF 		bl	cfg_write_bytes32
ARM GAS  C:\Users\LUKASC~1\AppData\Local\Temp\ccv54092.s 			page 16


 447              	.LVL39:
 369:.\Generated_Source\PSoC5/cyfitter_cfg.c **** 
 370:.\Generated_Source\PSoC5/cyfitter_cfg.c **** 		/* Enable digital routing */
 371:.\Generated_Source\PSoC5/cyfitter_cfg.c **** 		CY_SET_XTND_REG8((void CYFAR *)CYREG_BCTL0_BANK_CTL, CY_GET_XTND_REG8((void CYFAR *)CYREG_BCTL0_B
 448              		.loc 1 371 0
 449 003a 1D4A     		ldr	r2, .L35+12
 450 003c 1378     		ldrb	r3, [r2]	@ zero_extendqisi2
 451 003e 43F00203 		orr	r3, r3, #2
 452 0042 1370     		strb	r3, [r2]
 372:.\Generated_Source\PSoC5/cyfitter_cfg.c **** 		CY_SET_XTND_REG8((void CYFAR *)CYREG_BCTL1_BANK_CTL, CY_GET_XTND_REG8((void CYFAR *)CYREG_BCTL1_B
 453              		.loc 1 372 0
 454 0044 1032     		adds	r2, r2, #16
 455 0046 1378     		ldrb	r3, [r2]	@ zero_extendqisi2
 456 0048 43F00203 		orr	r3, r3, #2
 457 004c 1370     		strb	r3, [r2]
 373:.\Generated_Source\PSoC5/cyfitter_cfg.c **** 
 374:.\Generated_Source\PSoC5/cyfitter_cfg.c **** 		/* Enable UDB array */
 375:.\Generated_Source\PSoC5/cyfitter_cfg.c **** 		CY_SET_XTND_REG8((void CYFAR *)CYREG_PM_ACT_CFG0, CY_GET_XTND_REG8((void CYFAR *)CYREG_PM_ACT_CFG
 458              		.loc 1 375 0
 459 004e 194C     		ldr	r4, .L35+16
 460              	.LVL40:
 461 0050 2378     		ldrb	r3, [r4]	@ zero_extendqisi2
 462 0052 43F04003 		orr	r3, r3, #64
 463 0056 2370     		strb	r3, [r4]
 376:.\Generated_Source\PSoC5/cyfitter_cfg.c **** 		CY_SET_XTND_REG8((void CYFAR *)CYREG_PM_AVAIL_CR2, CY_GET_XTND_REG8((void CYFAR *)CYREG_PM_AVAIL_
 464              		.loc 1 376 0
 465 0058 A2F58632 		sub	r2, r2, #68608
 466 005c 513A     		subs	r2, r2, #81
 467 005e 1378     		ldrb	r3, [r2]	@ zero_extendqisi2
 468 0060 43F01003 		orr	r3, r3, #16
 469 0064 1370     		strb	r3, [r2]
 470              	.LBE3:
 377:.\Generated_Source\PSoC5/cyfitter_cfg.c **** 	}
 378:.\Generated_Source\PSoC5/cyfitter_cfg.c **** 
 379:.\Generated_Source\PSoC5/cyfitter_cfg.c **** 
 380:.\Generated_Source\PSoC5/cyfitter_cfg.c **** 	/* Perform second pass device configuration. These items must be configured in specific order afte
 381:.\Generated_Source\PSoC5/cyfitter_cfg.c **** 	CYCONFIGCPY((void CYFAR *)(CYREG_PRT0_DR), (const void CYFAR *)(BS_IOPINS0_0_VAL), 10u);
 471              		.loc 1 381 0
 472 0066 1448     		ldr	r0, .L35+20
 473 0068 1449     		ldr	r1, .L35+24
 474 006a 0A22     		movs	r2, #10
 475 006c FFF7FEFF 		bl	CYCONFIGCPY
 476              	.LVL41:
 382:.\Generated_Source\PSoC5/cyfitter_cfg.c **** 	CYCONFIGCPY((void CYFAR *)(CYREG_PRT15_DR), (const void CYFAR *)(BS_IOPINS0_8_VAL), 10u);
 477              		.loc 1 382 0
 478 0070 1348     		ldr	r0, .L35+28
 479 0072 1449     		ldr	r1, .L35+32
 480 0074 0A22     		movs	r2, #10
 481 0076 FFF7FEFF 		bl	CYCONFIGCPY
 482              	.LVL42:
 383:.\Generated_Source\PSoC5/cyfitter_cfg.c **** 	/* Switch Boost to the precision bandgap reference from its internal reference */
 384:.\Generated_Source\PSoC5/cyfitter_cfg.c **** 	CY_SET_REG8((void CYXDATA *)CYREG_BOOST_CR2, (CY_GET_REG8((void CYXDATA *)CYREG_BOOST_CR2) | 0x08u
 483              		.loc 1 384 0
 484 007a 134A     		ldr	r2, .L35+36
 485 007c 1378     		ldrb	r3, [r2]	@ zero_extendqisi2
 486 007e 43F00803 		orr	r3, r3, #8
 487 0082 1370     		strb	r3, [r2]
ARM GAS  C:\Users\LUKASC~1\AppData\Local\Temp\ccv54092.s 			page 17


 385:.\Generated_Source\PSoC5/cyfitter_cfg.c **** 
 386:.\Generated_Source\PSoC5/cyfitter_cfg.c **** 	/* Set Flash Cycles based on max possible frequency in case a glitch occurs during ClockSetup(). *
 387:.\Generated_Source\PSoC5/cyfitter_cfg.c **** 	CY_SET_XTND_REG8((void CYFAR *)(CYREG_CACHE_CC_CTL), (((CYDEV_INSTRUCT_CACHE_ENABLED) != 0) ? 0x01
 488              		.loc 1 387 0
 489 0084 114D     		ldr	r5, .L35+40
 490 0086 0123     		movs	r3, #1
 491 0088 2B70     		strb	r3, [r5]
 388:.\Generated_Source\PSoC5/cyfitter_cfg.c **** 	/* Setup clocks based on selections from Clock DWR */
 389:.\Generated_Source\PSoC5/cyfitter_cfg.c **** 	ClockSetup();
 492              		.loc 1 389 0
 493 008a FFF7FEFF 		bl	ClockSetup
 494              	.LVL43:
 390:.\Generated_Source\PSoC5/cyfitter_cfg.c **** 	/* Set Flash Cycles based on newly configured 24.00MHz Bus Clock. */
 391:.\Generated_Source\PSoC5/cyfitter_cfg.c **** 	CY_SET_XTND_REG8((void CYFAR *)(CYREG_CACHE_CC_CTL), (((CYDEV_INSTRUCT_CACHE_ENABLED) != 0) ? 0x81
 495              		.loc 1 391 0
 496 008e 8123     		movs	r3, #129
 497 0090 2B70     		strb	r3, [r5]
 392:.\Generated_Source\PSoC5/cyfitter_cfg.c **** 
 393:.\Generated_Source\PSoC5/cyfitter_cfg.c **** 	/* Perform basic analog initialization to defaults */
 394:.\Generated_Source\PSoC5/cyfitter_cfg.c **** 	AnalogSetDefault();
 498              		.loc 1 394 0
 499 0092 FFF7FEFF 		bl	AnalogSetDefault
 500              	.LVL44:
 395:.\Generated_Source\PSoC5/cyfitter_cfg.c **** 
 396:.\Generated_Source\PSoC5/cyfitter_cfg.c **** 	/* Configure alternate active mode */
 397:.\Generated_Source\PSoC5/cyfitter_cfg.c **** 	CYCONFIGCPY((void CYFAR *)CYDEV_PM_STBY_BASE, (const void CYFAR *)CYDEV_PM_ACT_BASE, 14u);
 501              		.loc 1 397 0
 502 0096 0E48     		ldr	r0, .L35+44
 503 0098 2146     		mov	r1, r4
 504 009a 0E22     		movs	r2, #14
 505 009c FFF7FEFF 		bl	CYCONFIGCPY
 506              	.LVL45:
 507 00a0 38BD     		pop	{r3, r4, r5, pc}
 508              	.L36:
 509 00a2 00BF     		.align	2
 510              	.L35:
 511 00a4 E8460040 		.word	1073759976
 512 00a8 00000000 		.word	.LANCHOR0
 513 00ac 60000048 		.word	1207959648
 514 00b0 03500140 		.word	1073827843
 515 00b4 A0430040 		.word	1073759136
 516 00b8 00510040 		.word	1073762560
 517 00bc 10010048 		.word	1207959824
 518 00c0 F0510040 		.word	1073762800
 519 00c4 1C010048 		.word	1207959836
 520 00c8 22430040 		.word	1073759010
 521 00cc 00480040 		.word	1073760256
 522 00d0 B0430040 		.word	1073759152
 523              		.cfi_endproc
 524              	.LFE8:
 525              		.size	cyfitter_cfg, .-cyfitter_cfg
 526              		.section	.rodata
 527              		.align	2
 528              		.set	.LANCHOR0,. + 0
 529              		.type	cfg_memset_list.4883, %object
 530              		.size	cfg_memset_list.4883, 48
 531              	cfg_memset_list.4883:
ARM GAS  C:\Users\LUKASC~1\AppData\Local\Temp\ccv54092.s 			page 18


 532 0000 C8490040 		.word	1073760712
 533 0004 1900     		.short	25
 534 0006 10510040 		.4byte	1073762576
 535 000a 6000     		.short	96
 536 000c C0510040 		.word	1073762752
 537 0010 1000     		.short	16
 538 0012 00000140 		.4byte	1073807360
 539 0016 0010     		.short	4096
 540 0018 00140140 		.word	1073812480
 541 001c 0008     		.short	2048
 542 001e 00400140 		.4byte	1073823744
 543 0022 000A     		.short	2560
 544 0024 004C0140 		.word	1073826816
 545 0028 0002     		.short	512
 546 002a 00500140 		.4byte	1073827840
 547 002e 2000     		.short	32
 548              		.text
 549              	.Letext0:
 550              		.file 2 "c:\\program files (x86)\\cypress\\psoc creator\\3.3\\psoc creator\\import\\gnu\\arm\\4.9.
 551              		.file 3 ".\\Generated_Source\\PSoC5\\cytypes.h"
 552              		.file 4 ".\\Generated_Source\\PSoC5\\CyLib.h"