ARM GAS  C:\Users\LUKASC~1\AppData\Local\Temp\cc3bjTyy.s 			page 1


   1              		.syntax unified
   2              		.cpu cortex-m3
   3              		.fpu softvfp
   4              		.eabi_attribute 20, 1
   5              		.eabi_attribute 21, 1
   6              		.eabi_attribute 23, 3
   7              		.eabi_attribute 24, 1
   8              		.eabi_attribute 25, 1
   9              		.eabi_attribute 26, 1
  10              		.eabi_attribute 30, 1
  11              		.eabi_attribute 34, 1
  12              		.eabi_attribute 18, 4
  13              		.thumb
  14              		.file	"I2CS_PM.c"
  15              		.text
  16              	.Ltext0:
  17              		.cfi_sections	.debug_frame
  18              		.section	.text.I2CS_SaveConfig,"ax",%progbits
  19              		.align	2
  20              		.global	I2CS_SaveConfig
  21              		.thumb
  22              		.thumb_func
  23              		.type	I2CS_SaveConfig, %function
  24              	I2CS_SaveConfig:
  25              	.LFB0:
  26              		.file 1 ".\\Generated_Source\\PSoC5\\I2CS_PM.c"
   1:.\Generated_Source\PSoC5/I2CS_PM.c **** /*******************************************************************************
   2:.\Generated_Source\PSoC5/I2CS_PM.c **** * File Name: I2CS_PM.c
   3:.\Generated_Source\PSoC5/I2CS_PM.c **** * Version 3.50
   4:.\Generated_Source\PSoC5/I2CS_PM.c **** *
   5:.\Generated_Source\PSoC5/I2CS_PM.c **** * Description:
   6:.\Generated_Source\PSoC5/I2CS_PM.c **** *  This file provides low power mode APIs for the I2C component.
   7:.\Generated_Source\PSoC5/I2CS_PM.c **** *
   8:.\Generated_Source\PSoC5/I2CS_PM.c **** ********************************************************************************
   9:.\Generated_Source\PSoC5/I2CS_PM.c **** * Copyright 2008-2015, Cypress Semiconductor Corporation. All rights reserved.
  10:.\Generated_Source\PSoC5/I2CS_PM.c **** * You may use this file only in accordance with the license, terms, conditions,
  11:.\Generated_Source\PSoC5/I2CS_PM.c **** * disclaimers, and limitations in the end user license agreement accompanying
  12:.\Generated_Source\PSoC5/I2CS_PM.c **** * the software package with which this file was provided.
  13:.\Generated_Source\PSoC5/I2CS_PM.c **** *******************************************************************************/
  14:.\Generated_Source\PSoC5/I2CS_PM.c **** 
  15:.\Generated_Source\PSoC5/I2CS_PM.c **** #include "I2CS_PVT.h"
  16:.\Generated_Source\PSoC5/I2CS_PM.c **** 
  17:.\Generated_Source\PSoC5/I2CS_PM.c **** I2CS_BACKUP_STRUCT I2CS_backup =
  18:.\Generated_Source\PSoC5/I2CS_PM.c **** {
  19:.\Generated_Source\PSoC5/I2CS_PM.c ****     I2CS_DISABLE,
  20:.\Generated_Source\PSoC5/I2CS_PM.c **** 
  21:.\Generated_Source\PSoC5/I2CS_PM.c **** #if (I2CS_FF_IMPLEMENTED)
  22:.\Generated_Source\PSoC5/I2CS_PM.c ****     I2CS_DEFAULT_XCFG,
  23:.\Generated_Source\PSoC5/I2CS_PM.c ****     I2CS_DEFAULT_CFG,
  24:.\Generated_Source\PSoC5/I2CS_PM.c ****     I2CS_DEFAULT_ADDR,
  25:.\Generated_Source\PSoC5/I2CS_PM.c ****     LO8(I2CS_DEFAULT_DIVIDE_FACTOR),
  26:.\Generated_Source\PSoC5/I2CS_PM.c ****     HI8(I2CS_DEFAULT_DIVIDE_FACTOR),
  27:.\Generated_Source\PSoC5/I2CS_PM.c **** #else  /* (I2CS_UDB_IMPLEMENTED) */
  28:.\Generated_Source\PSoC5/I2CS_PM.c ****     I2CS_DEFAULT_CFG,
  29:.\Generated_Source\PSoC5/I2CS_PM.c **** #endif /* (I2CS_FF_IMPLEMENTED) */
  30:.\Generated_Source\PSoC5/I2CS_PM.c **** 
  31:.\Generated_Source\PSoC5/I2CS_PM.c **** #if (I2CS_TIMEOUT_ENABLED)
ARM GAS  C:\Users\LUKASC~1\AppData\Local\Temp\cc3bjTyy.s 			page 2


  32:.\Generated_Source\PSoC5/I2CS_PM.c ****     I2CS_DEFAULT_TMOUT_PERIOD,
  33:.\Generated_Source\PSoC5/I2CS_PM.c ****     I2CS_DEFAULT_TMOUT_INTR_MASK,
  34:.\Generated_Source\PSoC5/I2CS_PM.c **** #endif /* (I2CS_TIMEOUT_ENABLED) */
  35:.\Generated_Source\PSoC5/I2CS_PM.c **** };
  36:.\Generated_Source\PSoC5/I2CS_PM.c **** 
  37:.\Generated_Source\PSoC5/I2CS_PM.c **** #if ((I2CS_FF_IMPLEMENTED) && (I2CS_WAKEUP_ENABLED))
  38:.\Generated_Source\PSoC5/I2CS_PM.c ****     volatile uint8 I2CS_wakeupSource;
  39:.\Generated_Source\PSoC5/I2CS_PM.c **** #endif /* ((I2CS_FF_IMPLEMENTED) && (I2CS_WAKEUP_ENABLED)) */
  40:.\Generated_Source\PSoC5/I2CS_PM.c **** 
  41:.\Generated_Source\PSoC5/I2CS_PM.c **** 
  42:.\Generated_Source\PSoC5/I2CS_PM.c **** /*******************************************************************************
  43:.\Generated_Source\PSoC5/I2CS_PM.c **** * Function Name: I2CS_SaveConfig
  44:.\Generated_Source\PSoC5/I2CS_PM.c **** ********************************************************************************
  45:.\Generated_Source\PSoC5/I2CS_PM.c **** *
  46:.\Generated_Source\PSoC5/I2CS_PM.c **** * Summary:
  47:.\Generated_Source\PSoC5/I2CS_PM.c **** *  The Enable wakeup from Sleep Mode selection influences this function
  48:.\Generated_Source\PSoC5/I2CS_PM.c **** *  implementation:
  49:.\Generated_Source\PSoC5/I2CS_PM.c **** *   Unchecked: Stores the component non-retention configuration registers.
  50:.\Generated_Source\PSoC5/I2CS_PM.c **** *   Checked:   Disables the master, if it was enabled before, and enables
  51:.\Generated_Source\PSoC5/I2CS_PM.c **** *              backup regulator of the I2C hardware. If a transaction intended
  52:.\Generated_Source\PSoC5/I2CS_PM.c **** *              for component executes during this function call, it waits until
  53:.\Generated_Source\PSoC5/I2CS_PM.c **** *              the current transaction is completed and I2C hardware is ready
  54:.\Generated_Source\PSoC5/I2CS_PM.c **** *              to enter sleep mode. All subsequent I2C traffic is NAKed until
  55:.\Generated_Source\PSoC5/I2CS_PM.c **** *              the device is put into sleep mode.
  56:.\Generated_Source\PSoC5/I2CS_PM.c **** *
  57:.\Generated_Source\PSoC5/I2CS_PM.c **** * Parameters:
  58:.\Generated_Source\PSoC5/I2CS_PM.c **** *  None.
  59:.\Generated_Source\PSoC5/I2CS_PM.c **** *
  60:.\Generated_Source\PSoC5/I2CS_PM.c **** * Return:
  61:.\Generated_Source\PSoC5/I2CS_PM.c **** *  None.
  62:.\Generated_Source\PSoC5/I2CS_PM.c **** *
  63:.\Generated_Source\PSoC5/I2CS_PM.c **** * Global Variables:
  64:.\Generated_Source\PSoC5/I2CS_PM.c **** *  I2CS_backup - The global variable used to save the component
  65:.\Generated_Source\PSoC5/I2CS_PM.c **** *                            configuration and non-retention registers before
  66:.\Generated_Source\PSoC5/I2CS_PM.c **** *                            entering the sleep mode.
  67:.\Generated_Source\PSoC5/I2CS_PM.c **** *
  68:.\Generated_Source\PSoC5/I2CS_PM.c **** * Reentrant:
  69:.\Generated_Source\PSoC5/I2CS_PM.c **** *  No.
  70:.\Generated_Source\PSoC5/I2CS_PM.c **** *
  71:.\Generated_Source\PSoC5/I2CS_PM.c **** *******************************************************************************/
  72:.\Generated_Source\PSoC5/I2CS_PM.c **** void I2CS_SaveConfig(void) 
  73:.\Generated_Source\PSoC5/I2CS_PM.c **** {
  27              		.loc 1 73 0
  28              		.cfi_startproc
  29              		@ args = 0, pretend = 0, frame = 0
  30              		@ frame_needed = 0, uses_anonymous_args = 0
  31              		@ link register save eliminated.
  74:.\Generated_Source\PSoC5/I2CS_PM.c **** #if (I2CS_FF_IMPLEMENTED)
  75:.\Generated_Source\PSoC5/I2CS_PM.c ****     #if (I2CS_WAKEUP_ENABLED)
  76:.\Generated_Source\PSoC5/I2CS_PM.c ****         uint8 intState;
  77:.\Generated_Source\PSoC5/I2CS_PM.c ****     #endif /* (I2CS_WAKEUP_ENABLED) */
  78:.\Generated_Source\PSoC5/I2CS_PM.c **** 
  79:.\Generated_Source\PSoC5/I2CS_PM.c ****     /* Store registers before enter low power mode */
  80:.\Generated_Source\PSoC5/I2CS_PM.c ****     I2CS_backup.cfg     = I2CS_CFG_REG;
  32              		.loc 1 80 0
  33 0000 084B     		ldr	r3, .L2
  34 0002 1A78     		ldrb	r2, [r3]	@ zero_extendqisi2
ARM GAS  C:\Users\LUKASC~1\AppData\Local\Temp\cc3bjTyy.s 			page 3


  35 0004 084B     		ldr	r3, .L2+4
  36 0006 9A70     		strb	r2, [r3, #2]
  81:.\Generated_Source\PSoC5/I2CS_PM.c ****     I2CS_backup.xcfg    = I2CS_XCFG_REG;
  37              		.loc 1 81 0
  38 0008 084A     		ldr	r2, .L2+8
  39 000a 1278     		ldrb	r2, [r2]	@ zero_extendqisi2
  40 000c 5A70     		strb	r2, [r3, #1]
  82:.\Generated_Source\PSoC5/I2CS_PM.c ****     I2CS_backup.addr    = I2CS_ADDR_REG;
  41              		.loc 1 82 0
  42 000e 084A     		ldr	r2, .L2+12
  43 0010 1278     		ldrb	r2, [r2]	@ zero_extendqisi2
  44 0012 DA70     		strb	r2, [r3, #3]
  83:.\Generated_Source\PSoC5/I2CS_PM.c ****     I2CS_backup.clkDiv1 = I2CS_CLKDIV1_REG;
  45              		.loc 1 83 0
  46 0014 074A     		ldr	r2, .L2+16
  47 0016 1278     		ldrb	r2, [r2]	@ zero_extendqisi2
  48 0018 1A71     		strb	r2, [r3, #4]
  84:.\Generated_Source\PSoC5/I2CS_PM.c ****     I2CS_backup.clkDiv2 = I2CS_CLKDIV2_REG;
  49              		.loc 1 84 0
  50 001a 074A     		ldr	r2, .L2+20
  51 001c 1278     		ldrb	r2, [r2]	@ zero_extendqisi2
  52 001e 5A71     		strb	r2, [r3, #5]
  53 0020 7047     		bx	lr
  54              	.L3:
  55 0022 00BF     		.align	2
  56              	.L2:
  57 0024 D6490040 		.word	1073760726
  58 0028 00000000 		.word	.LANCHOR0
  59 002c C8490040 		.word	1073760712
  60 0030 CA490040 		.word	1073760714
  61 0034 DB490040 		.word	1073760731
  62 0038 DC490040 		.word	1073760732
  63              		.cfi_endproc
  64              	.LFE0:
  65              		.size	I2CS_SaveConfig, .-I2CS_SaveConfig
  66              		.section	.text.I2CS_Sleep,"ax",%progbits
  67              		.align	2
  68              		.global	I2CS_Sleep
  69              		.thumb
  70              		.thumb_func
  71              		.type	I2CS_Sleep, %function
  72              	I2CS_Sleep:
  73              	.LFB1:
  85:.\Generated_Source\PSoC5/I2CS_PM.c **** 
  86:.\Generated_Source\PSoC5/I2CS_PM.c **** #if (I2CS_WAKEUP_ENABLED)
  87:.\Generated_Source\PSoC5/I2CS_PM.c ****     /* Disable master */
  88:.\Generated_Source\PSoC5/I2CS_PM.c ****     I2CS_CFG_REG &= (uint8) ~I2CS_ENABLE_MASTER;
  89:.\Generated_Source\PSoC5/I2CS_PM.c **** 
  90:.\Generated_Source\PSoC5/I2CS_PM.c ****     /* Enable backup regulator to keep block powered in low power mode */
  91:.\Generated_Source\PSoC5/I2CS_PM.c ****     intState = CyEnterCriticalSection();
  92:.\Generated_Source\PSoC5/I2CS_PM.c ****     I2CS_PWRSYS_CR1_REG |= I2CS_PWRSYS_CR1_I2C_REG_BACKUP;
  93:.\Generated_Source\PSoC5/I2CS_PM.c ****     CyExitCriticalSection(intState);
  94:.\Generated_Source\PSoC5/I2CS_PM.c **** 
  95:.\Generated_Source\PSoC5/I2CS_PM.c ****     /* 1) Set force NACK to ignore I2C transactions;
  96:.\Generated_Source\PSoC5/I2CS_PM.c ****     *  2) Wait unti I2C is ready go to Sleep; !!
  97:.\Generated_Source\PSoC5/I2CS_PM.c ****     *  3) These bits are cleared on wake up.
  98:.\Generated_Source\PSoC5/I2CS_PM.c ****     */
ARM GAS  C:\Users\LUKASC~1\AppData\Local\Temp\cc3bjTyy.s 			page 4


  99:.\Generated_Source\PSoC5/I2CS_PM.c ****     /* Wait when block is ready for sleep */
 100:.\Generated_Source\PSoC5/I2CS_PM.c ****     I2CS_XCFG_REG |= I2CS_XCFG_FORCE_NACK;
 101:.\Generated_Source\PSoC5/I2CS_PM.c ****     while (0u == (I2CS_XCFG_REG & I2CS_XCFG_RDY_TO_SLEEP))
 102:.\Generated_Source\PSoC5/I2CS_PM.c ****     {
 103:.\Generated_Source\PSoC5/I2CS_PM.c ****     }
 104:.\Generated_Source\PSoC5/I2CS_PM.c **** 
 105:.\Generated_Source\PSoC5/I2CS_PM.c ****     /* Setup wakeup interrupt */
 106:.\Generated_Source\PSoC5/I2CS_PM.c ****     I2CS_DisableInt();
 107:.\Generated_Source\PSoC5/I2CS_PM.c ****     (void) CyIntSetVector(I2CS_ISR_NUMBER, &I2CS_WAKEUP_ISR);
 108:.\Generated_Source\PSoC5/I2CS_PM.c ****     I2CS_wakeupSource = 0u;
 109:.\Generated_Source\PSoC5/I2CS_PM.c ****     I2CS_EnableInt();
 110:.\Generated_Source\PSoC5/I2CS_PM.c **** #endif /* (I2CS_WAKEUP_ENABLED) */
 111:.\Generated_Source\PSoC5/I2CS_PM.c **** 
 112:.\Generated_Source\PSoC5/I2CS_PM.c **** #else
 113:.\Generated_Source\PSoC5/I2CS_PM.c ****     /* Store only address match bit */
 114:.\Generated_Source\PSoC5/I2CS_PM.c ****     I2CS_backup.control = (I2CS_CFG_REG & I2CS_CTRL_ANY_ADDRESS_MASK);
 115:.\Generated_Source\PSoC5/I2CS_PM.c **** #endif /* (I2CS_FF_IMPLEMENTED) */
 116:.\Generated_Source\PSoC5/I2CS_PM.c **** 
 117:.\Generated_Source\PSoC5/I2CS_PM.c **** #if (I2CS_TIMEOUT_ENABLED)
 118:.\Generated_Source\PSoC5/I2CS_PM.c ****     I2CS_TimeoutSaveConfig();
 119:.\Generated_Source\PSoC5/I2CS_PM.c **** #endif /* (I2CS_TIMEOUT_ENABLED) */
 120:.\Generated_Source\PSoC5/I2CS_PM.c **** }
 121:.\Generated_Source\PSoC5/I2CS_PM.c **** 
 122:.\Generated_Source\PSoC5/I2CS_PM.c **** 
 123:.\Generated_Source\PSoC5/I2CS_PM.c **** /*******************************************************************************
 124:.\Generated_Source\PSoC5/I2CS_PM.c **** * Function Name: I2CS_Sleep
 125:.\Generated_Source\PSoC5/I2CS_PM.c **** ********************************************************************************
 126:.\Generated_Source\PSoC5/I2CS_PM.c **** *
 127:.\Generated_Source\PSoC5/I2CS_PM.c **** * Summary:
 128:.\Generated_Source\PSoC5/I2CS_PM.c **** *  This is the preferred method to prepare the component before device enters
 129:.\Generated_Source\PSoC5/I2CS_PM.c **** *  sleep mode. The Enable wakeup from Sleep Mode selection influences this
 130:.\Generated_Source\PSoC5/I2CS_PM.c **** *  function implementation:
 131:.\Generated_Source\PSoC5/I2CS_PM.c **** *   Unchecked: Checks current I2C component state, saves it, and disables the
 132:.\Generated_Source\PSoC5/I2CS_PM.c **** *              component by calling I2C_Stop() if it is currently enabled.
 133:.\Generated_Source\PSoC5/I2CS_PM.c **** *              I2C_SaveConfig() is then called to save the component
 134:.\Generated_Source\PSoC5/I2CS_PM.c **** *              non-retention configuration registers.
 135:.\Generated_Source\PSoC5/I2CS_PM.c **** *   Checked:   If a transaction intended for component executes during this
 136:.\Generated_Source\PSoC5/I2CS_PM.c **** *              function call, it waits until the current transaction is
 137:.\Generated_Source\PSoC5/I2CS_PM.c **** *              completed. All subsequent I2C traffic intended for component
 138:.\Generated_Source\PSoC5/I2CS_PM.c **** *              is NAKed until the device is put to sleep mode. The address
 139:.\Generated_Source\PSoC5/I2CS_PM.c **** *              match event wakes up the device.
 140:.\Generated_Source\PSoC5/I2CS_PM.c **** *
 141:.\Generated_Source\PSoC5/I2CS_PM.c **** * Parameters:
 142:.\Generated_Source\PSoC5/I2CS_PM.c **** *  None.
 143:.\Generated_Source\PSoC5/I2CS_PM.c **** *
 144:.\Generated_Source\PSoC5/I2CS_PM.c **** * Return:
 145:.\Generated_Source\PSoC5/I2CS_PM.c **** *  None.
 146:.\Generated_Source\PSoC5/I2CS_PM.c **** *
 147:.\Generated_Source\PSoC5/I2CS_PM.c **** * Reentrant:
 148:.\Generated_Source\PSoC5/I2CS_PM.c **** *  No.
 149:.\Generated_Source\PSoC5/I2CS_PM.c **** *
 150:.\Generated_Source\PSoC5/I2CS_PM.c **** *******************************************************************************/
 151:.\Generated_Source\PSoC5/I2CS_PM.c **** void I2CS_Sleep(void) 
 152:.\Generated_Source\PSoC5/I2CS_PM.c **** {
  74              		.loc 1 152 0
  75              		.cfi_startproc
  76              		@ args = 0, pretend = 0, frame = 0
ARM GAS  C:\Users\LUKASC~1\AppData\Local\Temp\cc3bjTyy.s 			page 5


  77              		@ frame_needed = 0, uses_anonymous_args = 0
  78 0000 08B5     		push	{r3, lr}
  79              		.cfi_def_cfa_offset 8
  80              		.cfi_offset 3, -8
  81              		.cfi_offset 14, -4
 153:.\Generated_Source\PSoC5/I2CS_PM.c **** #if (I2CS_WAKEUP_ENABLED)
 154:.\Generated_Source\PSoC5/I2CS_PM.c ****     /* Do not enable block after exit low power mode if it is wakeup source */
 155:.\Generated_Source\PSoC5/I2CS_PM.c ****     I2CS_backup.enableState = I2CS_DISABLE;
 156:.\Generated_Source\PSoC5/I2CS_PM.c **** 
 157:.\Generated_Source\PSoC5/I2CS_PM.c ****     #if (I2CS_TIMEOUT_ENABLED)
 158:.\Generated_Source\PSoC5/I2CS_PM.c ****         I2CS_TimeoutStop();
 159:.\Generated_Source\PSoC5/I2CS_PM.c ****     #endif /* (I2CS_TIMEOUT_ENABLED) */
 160:.\Generated_Source\PSoC5/I2CS_PM.c **** 
 161:.\Generated_Source\PSoC5/I2CS_PM.c **** #else
 162:.\Generated_Source\PSoC5/I2CS_PM.c ****     /* Store enable state */
 163:.\Generated_Source\PSoC5/I2CS_PM.c ****     I2CS_backup.enableState = (uint8) I2CS_IS_ENABLED;
  82              		.loc 1 163 0
  83 0002 064B     		ldr	r3, .L7
  84 0004 1B78     		ldrb	r3, [r3]	@ zero_extendqisi2
  85 0006 C3F38003 		ubfx	r3, r3, #2, #1
  86 000a 054A     		ldr	r2, .L7+4
  87 000c 1370     		strb	r3, [r2]
 164:.\Generated_Source\PSoC5/I2CS_PM.c **** 
 165:.\Generated_Source\PSoC5/I2CS_PM.c ****     if (0u != I2CS_backup.enableState)
  88              		.loc 1 165 0
  89 000e 0BB1     		cbz	r3, .L5
 166:.\Generated_Source\PSoC5/I2CS_PM.c ****     {
 167:.\Generated_Source\PSoC5/I2CS_PM.c ****         I2CS_Stop();
  90              		.loc 1 167 0
  91 0010 FFF7FEFF 		bl	I2CS_Stop
  92              	.LVL0:
  93              	.L5:
 168:.\Generated_Source\PSoC5/I2CS_PM.c ****     }
 169:.\Generated_Source\PSoC5/I2CS_PM.c **** #endif /* (I2CS_WAKEUP_ENABLED) */
 170:.\Generated_Source\PSoC5/I2CS_PM.c **** 
 171:.\Generated_Source\PSoC5/I2CS_PM.c ****     I2CS_SaveConfig();
  94              		.loc 1 171 0
  95 0014 FFF7FEFF 		bl	I2CS_SaveConfig
  96              	.LVL1:
  97 0018 08BD     		pop	{r3, pc}
  98              	.L8:
  99 001a 00BF     		.align	2
 100              	.L7:
 101 001c A5430040 		.word	1073759141
 102 0020 00000000 		.word	.LANCHOR0
 103              		.cfi_endproc
 104              	.LFE1:
 105              		.size	I2CS_Sleep, .-I2CS_Sleep
 106              		.section	.text.I2CS_RestoreConfig,"ax",%progbits
 107              		.align	2
 108              		.global	I2CS_RestoreConfig
 109              		.thumb
 110              		.thumb_func
 111              		.type	I2CS_RestoreConfig, %function
 112              	I2CS_RestoreConfig:
 113              	.LFB2:
 172:.\Generated_Source\PSoC5/I2CS_PM.c **** }
ARM GAS  C:\Users\LUKASC~1\AppData\Local\Temp\cc3bjTyy.s 			page 6


 173:.\Generated_Source\PSoC5/I2CS_PM.c **** 
 174:.\Generated_Source\PSoC5/I2CS_PM.c **** 
 175:.\Generated_Source\PSoC5/I2CS_PM.c **** /*******************************************************************************
 176:.\Generated_Source\PSoC5/I2CS_PM.c **** * Function Name: I2CS_RestoreConfig
 177:.\Generated_Source\PSoC5/I2CS_PM.c **** ********************************************************************************
 178:.\Generated_Source\PSoC5/I2CS_PM.c **** *
 179:.\Generated_Source\PSoC5/I2CS_PM.c **** * Summary:
 180:.\Generated_Source\PSoC5/I2CS_PM.c **** *  The Enable wakeup from Sleep Mode selection influences this function
 181:.\Generated_Source\PSoC5/I2CS_PM.c **** *  implementation:
 182:.\Generated_Source\PSoC5/I2CS_PM.c **** *   Unchecked: Restores the component non-retention configuration registers
 183:.\Generated_Source\PSoC5/I2CS_PM.c **** *              to the state they were in before I2C_Sleep() or I2C_SaveConfig()
 184:.\Generated_Source\PSoC5/I2CS_PM.c **** *              was called.
 185:.\Generated_Source\PSoC5/I2CS_PM.c **** *   Checked:   Disables the backup regulator of the I2C hardware. Sets up the
 186:.\Generated_Source\PSoC5/I2CS_PM.c **** *              regular component interrupt handler and generates the component
 187:.\Generated_Source\PSoC5/I2CS_PM.c **** *              interrupt if it was wake up source to release the bus and
 188:.\Generated_Source\PSoC5/I2CS_PM.c **** *              continue in-coming I2C transaction.
 189:.\Generated_Source\PSoC5/I2CS_PM.c **** *
 190:.\Generated_Source\PSoC5/I2CS_PM.c **** * Parameters:
 191:.\Generated_Source\PSoC5/I2CS_PM.c **** *  None.
 192:.\Generated_Source\PSoC5/I2CS_PM.c **** *
 193:.\Generated_Source\PSoC5/I2CS_PM.c **** * Return:
 194:.\Generated_Source\PSoC5/I2CS_PM.c **** *  None.
 195:.\Generated_Source\PSoC5/I2CS_PM.c **** *
 196:.\Generated_Source\PSoC5/I2CS_PM.c **** * Global Variables:
 197:.\Generated_Source\PSoC5/I2CS_PM.c **** *  I2CS_backup - The global variable used to save the component
 198:.\Generated_Source\PSoC5/I2CS_PM.c **** *                            configuration and non-retention registers before
 199:.\Generated_Source\PSoC5/I2CS_PM.c **** *                            exiting the sleep mode.
 200:.\Generated_Source\PSoC5/I2CS_PM.c **** *
 201:.\Generated_Source\PSoC5/I2CS_PM.c **** * Reentrant:
 202:.\Generated_Source\PSoC5/I2CS_PM.c **** *  No.
 203:.\Generated_Source\PSoC5/I2CS_PM.c **** *
 204:.\Generated_Source\PSoC5/I2CS_PM.c **** * Side Effects:
 205:.\Generated_Source\PSoC5/I2CS_PM.c **** *  Calling this function before I2CS_SaveConfig() or
 206:.\Generated_Source\PSoC5/I2CS_PM.c **** *  I2CS_Sleep() will lead to unpredictable results.
 207:.\Generated_Source\PSoC5/I2CS_PM.c **** *
 208:.\Generated_Source\PSoC5/I2CS_PM.c **** *******************************************************************************/
 209:.\Generated_Source\PSoC5/I2CS_PM.c **** void I2CS_RestoreConfig(void) 
 210:.\Generated_Source\PSoC5/I2CS_PM.c **** {
 114              		.loc 1 210 0
 115              		.cfi_startproc
 116              		@ args = 0, pretend = 0, frame = 0
 117              		@ frame_needed = 0, uses_anonymous_args = 0
 118 0000 08B5     		push	{r3, lr}
 119              		.cfi_def_cfa_offset 8
 120              		.cfi_offset 3, -8
 121              		.cfi_offset 14, -4
 211:.\Generated_Source\PSoC5/I2CS_PM.c **** #if (I2CS_FF_IMPLEMENTED)
 212:.\Generated_Source\PSoC5/I2CS_PM.c ****     uint8 intState;
 213:.\Generated_Source\PSoC5/I2CS_PM.c **** 
 214:.\Generated_Source\PSoC5/I2CS_PM.c ****     if (I2CS_CHECK_PWRSYS_I2C_BACKUP)
 122              		.loc 1 214 0
 123 0002 124B     		ldr	r3, .L13
 124 0004 1B78     		ldrb	r3, [r3]	@ zero_extendqisi2
 125 0006 13F0040F 		tst	r3, #4
 126 000a 0DD0     		beq	.L10
 215:.\Generated_Source\PSoC5/I2CS_PM.c ****     /* Low power mode was Sleep - backup regulator is enabled */
 216:.\Generated_Source\PSoC5/I2CS_PM.c ****     {
ARM GAS  C:\Users\LUKASC~1\AppData\Local\Temp\cc3bjTyy.s 			page 7


 217:.\Generated_Source\PSoC5/I2CS_PM.c ****         /* Enable backup regulator in active mode */
 218:.\Generated_Source\PSoC5/I2CS_PM.c ****         intState = CyEnterCriticalSection();
 127              		.loc 1 218 0
 128 000c FFF7FEFF 		bl	CyEnterCriticalSection
 129              	.LVL2:
 219:.\Generated_Source\PSoC5/I2CS_PM.c ****         I2CS_PWRSYS_CR1_REG &= (uint8) ~I2CS_PWRSYS_CR1_I2C_REG_BACKUP;
 130              		.loc 1 219 0
 131 0010 0E4A     		ldr	r2, .L13
 132 0012 1378     		ldrb	r3, [r2]	@ zero_extendqisi2
 133 0014 03F0FB03 		and	r3, r3, #251
 134 0018 1370     		strb	r3, [r2]
 220:.\Generated_Source\PSoC5/I2CS_PM.c ****         CyExitCriticalSection(intState);
 135              		.loc 1 220 0
 136 001a FFF7FEFF 		bl	CyExitCriticalSection
 137              	.LVL3:
 221:.\Generated_Source\PSoC5/I2CS_PM.c **** 
 222:.\Generated_Source\PSoC5/I2CS_PM.c ****         /* Restore master */
 223:.\Generated_Source\PSoC5/I2CS_PM.c ****         I2CS_CFG_REG = I2CS_backup.cfg;
 138              		.loc 1 223 0
 139 001e 0C4B     		ldr	r3, .L13+4
 140 0020 9A78     		ldrb	r2, [r3, #2]	@ zero_extendqisi2
 141 0022 0C4B     		ldr	r3, .L13+8
 142 0024 1A70     		strb	r2, [r3]
 143 0026 08BD     		pop	{r3, pc}
 144              	.L10:
 224:.\Generated_Source\PSoC5/I2CS_PM.c ****     }
 225:.\Generated_Source\PSoC5/I2CS_PM.c ****     else
 226:.\Generated_Source\PSoC5/I2CS_PM.c ****     /* Low power mode was Hibernate - backup regulator is disabled. All registers are cleared */
 227:.\Generated_Source\PSoC5/I2CS_PM.c ****     {
 228:.\Generated_Source\PSoC5/I2CS_PM.c ****     #if (I2CS_WAKEUP_ENABLED)
 229:.\Generated_Source\PSoC5/I2CS_PM.c ****         /* Disable power to block before register restore */
 230:.\Generated_Source\PSoC5/I2CS_PM.c ****         intState = CyEnterCriticalSection();
 231:.\Generated_Source\PSoC5/I2CS_PM.c ****         I2CS_ACT_PWRMGR_REG  &= (uint8) ~I2CS_ACT_PWR_EN;
 232:.\Generated_Source\PSoC5/I2CS_PM.c ****         I2CS_STBY_PWRMGR_REG &= (uint8) ~I2CS_STBY_PWR_EN;
 233:.\Generated_Source\PSoC5/I2CS_PM.c ****         CyExitCriticalSection(intState);
 234:.\Generated_Source\PSoC5/I2CS_PM.c **** 
 235:.\Generated_Source\PSoC5/I2CS_PM.c ****         /* Enable component in I2C_Wakeup() after register restore */
 236:.\Generated_Source\PSoC5/I2CS_PM.c ****         I2CS_backup.enableState = I2CS_ENABLE;
 237:.\Generated_Source\PSoC5/I2CS_PM.c ****     #endif /* (I2CS_WAKEUP_ENABLED) */
 238:.\Generated_Source\PSoC5/I2CS_PM.c **** 
 239:.\Generated_Source\PSoC5/I2CS_PM.c ****         /* Restore component registers after Hibernate */
 240:.\Generated_Source\PSoC5/I2CS_PM.c ****         I2CS_XCFG_REG    = I2CS_backup.xcfg;
 145              		.loc 1 240 0
 146 0028 094B     		ldr	r3, .L13+4
 147 002a 5978     		ldrb	r1, [r3, #1]	@ zero_extendqisi2
 148 002c 0A4A     		ldr	r2, .L13+12
 149 002e 1170     		strb	r1, [r2]
 241:.\Generated_Source\PSoC5/I2CS_PM.c ****         I2CS_CFG_REG     = I2CS_backup.cfg;
 150              		.loc 1 241 0
 151 0030 9978     		ldrb	r1, [r3, #2]	@ zero_extendqisi2
 152 0032 0E32     		adds	r2, r2, #14
 153 0034 1170     		strb	r1, [r2]
 242:.\Generated_Source\PSoC5/I2CS_PM.c ****         I2CS_ADDR_REG    = I2CS_backup.addr;
 154              		.loc 1 242 0
 155 0036 D978     		ldrb	r1, [r3, #3]	@ zero_extendqisi2
 156 0038 0C3A     		subs	r2, r2, #12
 157 003a 1170     		strb	r1, [r2]
ARM GAS  C:\Users\LUKASC~1\AppData\Local\Temp\cc3bjTyy.s 			page 8


 243:.\Generated_Source\PSoC5/I2CS_PM.c ****         I2CS_CLKDIV1_REG = I2CS_backup.clkDiv1;
 158              		.loc 1 243 0
 159 003c 1979     		ldrb	r1, [r3, #4]	@ zero_extendqisi2
 160 003e 1132     		adds	r2, r2, #17
 161 0040 1170     		strb	r1, [r2]
 244:.\Generated_Source\PSoC5/I2CS_PM.c ****         I2CS_CLKDIV2_REG = I2CS_backup.clkDiv2;
 162              		.loc 1 244 0
 163 0042 5A79     		ldrb	r2, [r3, #5]	@ zero_extendqisi2
 164 0044 054B     		ldr	r3, .L13+16
 165 0046 1A70     		strb	r2, [r3]
 166 0048 08BD     		pop	{r3, pc}
 167              	.L14:
 168 004a 00BF     		.align	2
 169              	.L13:
 170 004c 31430040 		.word	1073759025
 171 0050 00000000 		.word	.LANCHOR0
 172 0054 D6490040 		.word	1073760726
 173 0058 C8490040 		.word	1073760712
 174 005c DC490040 		.word	1073760732
 175              		.cfi_endproc
 176              	.LFE2:
 177              		.size	I2CS_RestoreConfig, .-I2CS_RestoreConfig
 178              		.section	.text.I2CS_Wakeup,"ax",%progbits
 179              		.align	2
 180              		.global	I2CS_Wakeup
 181              		.thumb
 182              		.thumb_func
 183              		.type	I2CS_Wakeup, %function
 184              	I2CS_Wakeup:
 185              	.LFB3:
 245:.\Generated_Source\PSoC5/I2CS_PM.c ****     }
 246:.\Generated_Source\PSoC5/I2CS_PM.c **** 
 247:.\Generated_Source\PSoC5/I2CS_PM.c **** #if (I2CS_WAKEUP_ENABLED)
 248:.\Generated_Source\PSoC5/I2CS_PM.c ****     I2CS_DisableInt();
 249:.\Generated_Source\PSoC5/I2CS_PM.c ****     (void) CyIntSetVector(I2CS_ISR_NUMBER, &I2CS_ISR);
 250:.\Generated_Source\PSoC5/I2CS_PM.c ****     if (0u != I2CS_wakeupSource)
 251:.\Generated_Source\PSoC5/I2CS_PM.c ****     {
 252:.\Generated_Source\PSoC5/I2CS_PM.c ****         /* Generate interrupt to process incoming transaction */
 253:.\Generated_Source\PSoC5/I2CS_PM.c ****         I2CS_SetPendingInt();
 254:.\Generated_Source\PSoC5/I2CS_PM.c ****     }
 255:.\Generated_Source\PSoC5/I2CS_PM.c ****     I2CS_EnableInt();
 256:.\Generated_Source\PSoC5/I2CS_PM.c **** #endif /* (I2CS_WAKEUP_ENABLED) */
 257:.\Generated_Source\PSoC5/I2CS_PM.c **** 
 258:.\Generated_Source\PSoC5/I2CS_PM.c **** #else
 259:.\Generated_Source\PSoC5/I2CS_PM.c ****     I2CS_CFG_REG = I2CS_backup.control;
 260:.\Generated_Source\PSoC5/I2CS_PM.c **** #endif /* (I2CS_FF_IMPLEMENTED) */
 261:.\Generated_Source\PSoC5/I2CS_PM.c **** 
 262:.\Generated_Source\PSoC5/I2CS_PM.c **** #if (I2CS_TIMEOUT_ENABLED)
 263:.\Generated_Source\PSoC5/I2CS_PM.c ****     I2CS_TimeoutRestoreConfig();
 264:.\Generated_Source\PSoC5/I2CS_PM.c **** #endif /* (I2CS_TIMEOUT_ENABLED) */
 265:.\Generated_Source\PSoC5/I2CS_PM.c **** }
 266:.\Generated_Source\PSoC5/I2CS_PM.c **** 
 267:.\Generated_Source\PSoC5/I2CS_PM.c **** 
 268:.\Generated_Source\PSoC5/I2CS_PM.c **** /*******************************************************************************
 269:.\Generated_Source\PSoC5/I2CS_PM.c **** * Function Name: I2CS_Wakeup
 270:.\Generated_Source\PSoC5/I2CS_PM.c **** ********************************************************************************
 271:.\Generated_Source\PSoC5/I2CS_PM.c **** *
ARM GAS  C:\Users\LUKASC~1\AppData\Local\Temp\cc3bjTyy.s 			page 9


 272:.\Generated_Source\PSoC5/I2CS_PM.c **** * Summary:
 273:.\Generated_Source\PSoC5/I2CS_PM.c **** *  This is the preferred method to prepare the component for active mode
 274:.\Generated_Source\PSoC5/I2CS_PM.c **** *  operation (when device exits sleep mode). The Enable wakeup from Sleep Mode
 275:.\Generated_Source\PSoC5/I2CS_PM.c **** *  selection influences this function implementation:
 276:.\Generated_Source\PSoC5/I2CS_PM.c **** *   Unchecked: Restores the component non-retention configuration registers
 277:.\Generated_Source\PSoC5/I2CS_PM.c **** *              by calling I2C_RestoreConfig(). If the component was enabled
 278:.\Generated_Source\PSoC5/I2CS_PM.c **** *              before the I2C_Sleep() function was called, I2C_Wakeup()
 279:.\Generated_Source\PSoC5/I2CS_PM.c **** *              re-enables it.
 280:.\Generated_Source\PSoC5/I2CS_PM.c **** *   Checked:   Enables  master functionality if it was enabled before sleep,
 281:.\Generated_Source\PSoC5/I2CS_PM.c **** *              and disables the backup regulator of the I2C hardware.
 282:.\Generated_Source\PSoC5/I2CS_PM.c **** *              The incoming transaction continues as soon as the regular
 283:.\Generated_Source\PSoC5/I2CS_PM.c **** *              I2C interrupt handler is set up (global interrupts has to be
 284:.\Generated_Source\PSoC5/I2CS_PM.c **** *              enabled to service I2C component interrupt).
 285:.\Generated_Source\PSoC5/I2CS_PM.c **** *
 286:.\Generated_Source\PSoC5/I2CS_PM.c **** * Parameters:
 287:.\Generated_Source\PSoC5/I2CS_PM.c **** *  None.
 288:.\Generated_Source\PSoC5/I2CS_PM.c **** *
 289:.\Generated_Source\PSoC5/I2CS_PM.c **** * Return:
 290:.\Generated_Source\PSoC5/I2CS_PM.c **** *  None.
 291:.\Generated_Source\PSoC5/I2CS_PM.c **** *
 292:.\Generated_Source\PSoC5/I2CS_PM.c **** * Reentrant:
 293:.\Generated_Source\PSoC5/I2CS_PM.c **** *  No.
 294:.\Generated_Source\PSoC5/I2CS_PM.c **** *
 295:.\Generated_Source\PSoC5/I2CS_PM.c **** * Side Effects:
 296:.\Generated_Source\PSoC5/I2CS_PM.c **** *  Calling this function before I2CS_SaveConfig() or
 297:.\Generated_Source\PSoC5/I2CS_PM.c **** *  I2CS_Sleep() will lead to unpredictable results.
 298:.\Generated_Source\PSoC5/I2CS_PM.c **** *
 299:.\Generated_Source\PSoC5/I2CS_PM.c **** *******************************************************************************/
 300:.\Generated_Source\PSoC5/I2CS_PM.c **** void I2CS_Wakeup(void) 
 301:.\Generated_Source\PSoC5/I2CS_PM.c **** {
 186              		.loc 1 301 0
 187              		.cfi_startproc
 188              		@ args = 0, pretend = 0, frame = 0
 189              		@ frame_needed = 0, uses_anonymous_args = 0
 190 0000 08B5     		push	{r3, lr}
 191              		.cfi_def_cfa_offset 8
 192              		.cfi_offset 3, -8
 193              		.cfi_offset 14, -4
 302:.\Generated_Source\PSoC5/I2CS_PM.c ****     I2CS_RestoreConfig();
 194              		.loc 1 302 0
 195 0002 FFF7FEFF 		bl	I2CS_RestoreConfig
 196              	.LVL4:
 303:.\Generated_Source\PSoC5/I2CS_PM.c **** 
 304:.\Generated_Source\PSoC5/I2CS_PM.c ****     /* Restore component enable state */
 305:.\Generated_Source\PSoC5/I2CS_PM.c ****     if (0u != I2CS_backup.enableState)
 197              		.loc 1 305 0
 198 0006 054B     		ldr	r3, .L18
 199 0008 1B78     		ldrb	r3, [r3]	@ zero_extendqisi2
 200 000a 2BB1     		cbz	r3, .L15
 306:.\Generated_Source\PSoC5/I2CS_PM.c ****     {
 307:.\Generated_Source\PSoC5/I2CS_PM.c ****         I2CS_Enable();
 201              		.loc 1 307 0
 202 000c FFF7FEFF 		bl	I2CS_Enable
 203              	.LVL5:
 308:.\Generated_Source\PSoC5/I2CS_PM.c ****         I2CS_EnableInt();
 204              		.loc 1 308 0
 205 0010 4FF40042 		mov	r2, #32768
ARM GAS  C:\Users\LUKASC~1\AppData\Local\Temp\cc3bjTyy.s 			page 10


 206 0014 024B     		ldr	r3, .L18+4
 207 0016 1A60     		str	r2, [r3]
 208              	.L15:
 209 0018 08BD     		pop	{r3, pc}
 210              	.L19:
 211 001a 00BF     		.align	2
 212              	.L18:
 213 001c 00000000 		.word	.LANCHOR0
 214 0020 00E100E0 		.word	-536813312
 215              		.cfi_endproc
 216              	.LFE3:
 217              		.size	I2CS_Wakeup, .-I2CS_Wakeup
 218              		.global	I2CS_backup
 219              		.data
 220              		.align	2
 221              		.set	.LANCHOR0,. + 0
 222              		.type	I2CS_backup, %object
 223              		.size	I2CS_backup, 6
 224              	I2CS_backup:
 225 0000 00       		.byte	0
 226 0001 81       		.byte	-127
 227 0002 01       		.byte	1
 228 0003 08       		.byte	8
 229 0004 0F       		.byte	15
 230 0005 00       		.byte	0
 231 0006 0000     		.text
 232              	.Letext0:
 233              		.file 2 ".\\Generated_Source\\PSoC5\\cytypes.h"
 234              		.file 3 ".\\Generated_Source\\PSoC5\\I2CS.h"
 235              		.file 4 ".\\Generated_Source\\PSoC5\\CyLib.h"