ARM GAS  C:\Users\LUKASC~1\AppData\Local\Temp\ccvRrwCL.s 			page 1


   1              		.syntax unified
   2              		.cpu cortex-m3
   3              		.fpu softvfp
   4              		.eabi_attribute 20, 1
   5              		.eabi_attribute 21, 1
   6              		.eabi_attribute 23, 3
   7              		.eabi_attribute 24, 1
   8              		.eabi_attribute 25, 1
   9              		.eabi_attribute 26, 1
  10              		.eabi_attribute 30, 1
  11              		.eabi_attribute 34, 1
  12              		.eabi_attribute 18, 4
  13              		.thumb
  14              		.file	"main.c"
  15              		.text
  16              	.Ltext0:
  17              		.cfi_sections	.debug_frame
  18              		.section	.text.ExecuteCommand,"ax",%progbits
  19              		.align	2
  20              		.global	ExecuteCommand
  21              		.thumb
  22              		.thumb_func
  23              		.type	ExecuteCommand, %function
  24              	ExecuteCommand:
  25              	.LFB64:
  26              		.file 1 ".\\main.c"
   1:.\main.c      **** /*******************************************************************************
   2:.\main.c      **** * File Name: main.c
   3:.\main.c      **** *
   4:.\main.c      **** * Version: 1.20
   5:.\main.c      **** *
   6:.\main.c      **** * Description:
   7:.\main.c      **** *  This example project demonstrates the basic operation of the I2C slave
   8:.\main.c      **** *  (SCB mode) component. The I2C slave accepts a packet with a command from
   9:.\main.c      **** *  the I2C master to control the RGB LED color. The I2C slave updates its
  10:.\main.c      **** *  buffer with a status packet in response to the accepted command.
  11:.\main.c      **** *  For more information refer to the example project datasheet.
  12:.\main.c      **** *
  13:.\main.c      **** ********************************************************************************
  14:.\main.c      **** * Copyright 2014-2015, Cypress Semiconductor Corporation. All rights reserved.
  15:.\main.c      **** * This software is owned by Cypress Semiconductor Corporation and is protected
  16:.\main.c      **** * by and subject to worldwide patent and copyright laws and treaties.
  17:.\main.c      **** * Therefore, you may use this software only as provided in the license agreement
  18:.\main.c      **** * accompanying the software package from which you obtained this software.
  19:.\main.c      **** * CYPRESS AND ITS SUPPLIERS MAKE NO WARRANTY OF ANY KIND, EXPRESS OR IMPLIED,
  20:.\main.c      **** * WITH REGARD TO THIS SOFTWARE, INCLUDING, BUT NOT LIMITED TO, NONINFRINGEMENT,
  21:.\main.c      **** * IMPLIED WARRANTIES OF MERCHANTABILITY AND FITNESS FOR A PARTICULAR PURPOSE.
  22:.\main.c      **** *******************************************************************************/
  23:.\main.c      **** 
  24:.\main.c      **** #include <main.h>
  25:.\main.c      **** #include "uart.h"
  26:.\main.c      **** 
  27:.\main.c      **** /* I2C slave read and write buffers */
  28:.\main.c      **** uint8 i2cReadBuffer [BUFFER_SIZE] = {PACKET_SOP, STS_CMD_FAIL, PACKET_EOP};
  29:.\main.c      **** uint8 i2cWriteBuffer[BUFFER_SIZE];
  30:.\main.c      **** 
  31:.\main.c      **** 
ARM GAS  C:\Users\LUKASC~1\AppData\Local\Temp\ccvRrwCL.s 			page 2


  32:.\main.c      **** /*******************************************************************************
  33:.\main.c      **** * Function Name: main
  34:.\main.c      **** ********************************************************************************
  35:.\main.c      **** * Summary:
  36:.\main.c      **** *  Main function performs following actions:
  37:.\main.c      **** *   1. Turns off status RGB LED
  38:.\main.c      **** *   2. Sets up I2C slave write and read buffers.
  39:.\main.c      **** *   3. Starts I2C slave (SCB mode) component.
  40:.\main.c      **** *   4. Enables global interrupts.
  41:.\main.c      **** *   5. Waits for command from the I2C master to control the RGB LED.
  42:.\main.c      **** *
  43:.\main.c      **** * Parameters:
  44:.\main.c      **** *  None
  45:.\main.c      **** *
  46:.\main.c      **** * Return:
  47:.\main.c      **** *  None
  48:.\main.c      **** *
  49:.\main.c      **** *******************************************************************************/
  50:.\main.c      **** int main()
  51:.\main.c      **** {
  52:.\main.c      ****     uint8 status = STS_CMD_FAIL;
  53:.\main.c      **** 
  54:.\main.c      ****     /* Start I2C slave (SCB mode) */
  55:.\main.c      ****     I2CS_SlaveInitReadBuf (i2cReadBuffer,  BUFFER_SIZE);
  56:.\main.c      ****     I2CS_SlaveInitWriteBuf(i2cWriteBuffer, BUFFER_SIZE);
  57:.\main.c      ****     I2CS_Start();
  58:.\main.c      ****     UARTInit();
  59:.\main.c      **** 
  60:.\main.c      ****     CyGlobalIntEnable;
  61:.\main.c      **** 
  62:.\main.c      ****     /***************************************************************************
  63:.\main.c      ****     * Main polling loop
  64:.\main.c      ****     ***************************************************************************/
  65:.\main.c      ****     for (;;)
  66:.\main.c      ****     {
  67:.\main.c      ****         /* Write complete: parse command packet */
  68:.\main.c      ****         if (0u != (I2CS_SlaveStatus() & I2CS_SSTAT_WR_CMPLT))
  69:.\main.c      ****         {
  70:.\main.c      ****             /* Check packet length */
  71:.\main.c      ****             if (PACKET_SIZE == I2CS_SlaveGetWriteBufSize())
  72:.\main.c      ****             {
  73:.\main.c      ****                 /* Check start and end of packet markers */
  74:.\main.c      ****                 if ((i2cWriteBuffer[PACKET_SOP_POS] == PACKET_SOP) &&
  75:.\main.c      ****                     (i2cWriteBuffer[PACKET_EOP_POS] == PACKET_EOP))
  76:.\main.c      ****                 {
  77:.\main.c      ****                     status = ExecuteCommand(i2cWriteBuffer[PACKET_CMD_POS]);
  78:.\main.c      ****                 }
  79:.\main.c      ****             }
  80:.\main.c      **** 
  81:.\main.c      ****             /* Clear slave write buffer and status */
  82:.\main.c      ****             I2CS_SlaveClearWriteBuf();
  83:.\main.c      ****             (void) I2CS_SlaveClearWriteStatus();
  84:.\main.c      **** 
  85:.\main.c      ****             /* Update read buffer */
  86:.\main.c      ****             i2cReadBuffer[PACKET_STS_POS] = status;
  87:.\main.c      ****             status = STS_CMD_FAIL;
  88:.\main.c      ****         }
ARM GAS  C:\Users\LUKASC~1\AppData\Local\Temp\ccvRrwCL.s 			page 3


  89:.\main.c      **** 
  90:.\main.c      ****         /* Read complete: expose buffer to master */
  91:.\main.c      ****         if (0u != (I2CS_SlaveStatus() & I2CS_SSTAT_RD_CMPLT))
  92:.\main.c      ****         {
  93:.\main.c      ****             /* Clear slave read buffer and status */
  94:.\main.c      ****             I2CS_SlaveClearReadBuf();
  95:.\main.c      ****             (void) I2CS_SlaveClearReadStatus();
  96:.\main.c      ****         }
  97:.\main.c      ****     }
  98:.\main.c      **** }
  99:.\main.c      **** 
 100:.\main.c      **** 
 101:.\main.c      **** /*******************************************************************************
 102:.\main.c      **** * Function Name: ExecuteCommand
 103:.\main.c      **** ********************************************************************************
 104:.\main.c      **** * Summary:
 105:.\main.c      **** *  Executes received command to control the LED color and returns status.
 106:.\main.c      **** *  If the command is unknown, the LED color is not changed.
 107:.\main.c      **** *
 108:.\main.c      **** * Parameters:
 109:.\main.c      **** *
 110:.\main.c      **** * Return:
 111:.\main.c      **** *  Returns status of command execution. There are two statuses
 112:.\main.c      **** *  - STS_CMD_DONE: command is executed successfully.
 113:.\main.c      **** *  - STS_CMD_FAIL: unknown command
 114:.\main.c      **** *
 115:.\main.c      **** *******************************************************************************/
 116:.\main.c      **** uint8 ExecuteCommand(uint32 cmd)
 117:.\main.c      **** {
  27              		.loc 1 117 0
  28              		.cfi_startproc
  29              		@ args = 0, pretend = 0, frame = 0
  30              		@ frame_needed = 0, uses_anonymous_args = 0
  31              	.LVL0:
  32 0000 10B5     		push	{r4, lr}
  33              		.cfi_def_cfa_offset 8
  34              		.cfi_offset 4, -8
  35              		.cfi_offset 14, -4
  36 0002 0446     		mov	r4, r0
  37              	.LVL1:
 118:.\main.c      ****     uint8 status;
 119:.\main.c      **** 
 120:.\main.c      ****     status = STS_CMD_DONE;
 121:.\main.c      ****     UART_1_PutString("Received: ");
  38              		.loc 1 121 0
  39 0004 0348     		ldr	r0, .L3
  40              	.LVL2:
  41 0006 FFF7FEFF 		bl	UART_1_PutString
  42              	.LVL3:
 122:.\main.c      ****     UART_SendNumber(cmd);
  43              		.loc 1 122 0
  44 000a 2046     		mov	r0, r4
  45 000c FFF7FEFF 		bl	UART_SendNumber
  46              	.LVL4:
 123:.\main.c      **** //    /* Execute received command */
 124:.\main.c      **** //    switch (cmd)
 125:.\main.c      **** //    {
ARM GAS  C:\Users\LUKASC~1\AppData\Local\Temp\ccvRrwCL.s 			page 4


 126:.\main.c      **** //        case CMD_SET_RED:
 127:.\main.c      **** //            RGB_LED_ON_RED;
 128:.\main.c      **** //            break;
 129:.\main.c      **** //
 130:.\main.c      **** //        case CMD_SET_GREEN:
 131:.\main.c      **** //            RGB_LED_ON_GREEN;
 132:.\main.c      **** //            break;
 133:.\main.c      **** //
 134:.\main.c      **** //        case CMD_SET_BLUE:
 135:.\main.c      **** //            RGB_LED_ON_BLUE;
 136:.\main.c      **** //            break;
 137:.\main.c      **** //
 138:.\main.c      **** //        case CMD_SET_OFF:
 139:.\main.c      **** //            RGB_LED_OFF;
 140:.\main.c      **** //            break;
 141:.\main.c      **** //
 142:.\main.c      **** //        default:
 143:.\main.c      **** //            status = STS_CMD_FAIL;
 144:.\main.c      **** //            break;
 145:.\main.c      **** //    }
 146:.\main.c      **** 
 147:.\main.c      ****     return (status);
 148:.\main.c      **** }
  47              		.loc 1 148 0
  48 0010 0020     		movs	r0, #0
  49 0012 10BD     		pop	{r4, pc}
  50              	.LVL5:
  51              	.L4:
  52              		.align	2
  53              	.L3:
  54 0014 00000000 		.word	.LC0
  55              		.cfi_endproc
  56              	.LFE64:
  57              		.size	ExecuteCommand, .-ExecuteCommand
  58              		.section	.text.main,"ax",%progbits
  59              		.align	2
  60              		.global	main
  61              		.thumb
  62              		.thumb_func
  63              		.type	main, %function
  64              	main:
  65              	.LFB63:
  51:.\main.c      ****     uint8 status = STS_CMD_FAIL;
  66              		.loc 1 51 0
  67              		.cfi_startproc
  68              		@ args = 0, pretend = 0, frame = 0
  69              		@ frame_needed = 0, uses_anonymous_args = 0
  70 0000 10B5     		push	{r4, lr}
  71              		.cfi_def_cfa_offset 8
  72              		.cfi_offset 4, -8
  73              		.cfi_offset 14, -4
  74              	.LVL6:
  55:.\main.c      ****     I2CS_SlaveInitWriteBuf(i2cWriteBuffer, BUFFER_SIZE);
  75              		.loc 1 55 0
  76 0002 1C48     		ldr	r0, .L14
  77 0004 0321     		movs	r1, #3
  78 0006 FFF7FEFF 		bl	I2CS_SlaveInitReadBuf
ARM GAS  C:\Users\LUKASC~1\AppData\Local\Temp\ccvRrwCL.s 			page 5


  79              	.LVL7:
  56:.\main.c      ****     I2CS_Start();
  80              		.loc 1 56 0
  81 000a 1B48     		ldr	r0, .L14+4
  82 000c 0321     		movs	r1, #3
  83 000e FFF7FEFF 		bl	I2CS_SlaveInitWriteBuf
  84              	.LVL8:
  57:.\main.c      ****     UARTInit();
  85              		.loc 1 57 0
  86 0012 FFF7FEFF 		bl	I2CS_Start
  87              	.LVL9:
  58:.\main.c      **** 
  88              		.loc 1 58 0
  89 0016 FFF7FEFF 		bl	UARTInit
  90              	.LVL10:
  60:.\main.c      **** 
  91              		.loc 1 60 0
  92              	@ 60 ".\main.c" 1
  93 001a 62B6     		CPSIE   i
  94              	@ 0 "" 2
  95              		.thumb
  96              	.L8:
  68:.\main.c      ****         {
  97              		.loc 1 68 0
  98 001c FFF7FEFF 		bl	I2CS_SlaveStatus
  99              	.LVL11:
 100 0020 10F0100F 		tst	r0, #16
 101 0024 1CD0     		beq	.L6
  71:.\main.c      ****             {
 102              		.loc 1 71 0
 103 0026 FFF7FEFF 		bl	I2CS_SlaveGetWriteBufSize
 104              	.LVL12:
 105 002a 0328     		cmp	r0, #3
 106 002c 0DD1     		bne	.L10
  74:.\main.c      ****                     (i2cWriteBuffer[PACKET_EOP_POS] == PACKET_EOP))
 107              		.loc 1 74 0
 108 002e 124B     		ldr	r3, .L14+4
 109 0030 1B78     		ldrb	r3, [r3]	@ zero_extendqisi2
 110 0032 012B     		cmp	r3, #1
 111 0034 0BD1     		bne	.L11
  75:.\main.c      ****                 {
 112              		.loc 1 75 0 discriminator 1
 113 0036 104B     		ldr	r3, .L14+4
 114 0038 9B78     		ldrb	r3, [r3, #2]	@ zero_extendqisi2
  74:.\main.c      ****                     (i2cWriteBuffer[PACKET_EOP_POS] == PACKET_EOP))
 115              		.loc 1 74 0 discriminator 1
 116 003a 172B     		cmp	r3, #23
 117 003c 09D1     		bne	.L12
  77:.\main.c      ****                 }
 118              		.loc 1 77 0
 119 003e 0E4B     		ldr	r3, .L14+4
 120 0040 5878     		ldrb	r0, [r3, #1]	@ zero_extendqisi2
 121 0042 FFF7FEFF 		bl	ExecuteCommand
 122              	.LVL13:
 123 0046 0446     		mov	r4, r0
 124              	.LVL14:
 125 0048 04E0     		b	.L7
ARM GAS  C:\Users\LUKASC~1\AppData\Local\Temp\ccvRrwCL.s 			page 6


 126              	.LVL15:
 127              	.L10:
 128 004a FF24     		movs	r4, #255
 129 004c 02E0     		b	.L7
 130              	.L11:
 131 004e FF24     		movs	r4, #255
 132 0050 00E0     		b	.L7
 133              	.L12:
 134 0052 FF24     		movs	r4, #255
 135              	.LVL16:
 136              	.L7:
  82:.\main.c      ****             (void) I2CS_SlaveClearWriteStatus();
 137              		.loc 1 82 0
 138 0054 FFF7FEFF 		bl	I2CS_SlaveClearWriteBuf
 139              	.LVL17:
  83:.\main.c      **** 
 140              		.loc 1 83 0
 141 0058 FFF7FEFF 		bl	I2CS_SlaveClearWriteStatus
 142              	.LVL18:
  86:.\main.c      ****             status = STS_CMD_FAIL;
 143              		.loc 1 86 0
 144 005c 054B     		ldr	r3, .L14
 145 005e 5C70     		strb	r4, [r3, #1]
 146              	.LVL19:
 147              	.L6:
  91:.\main.c      ****         {
 148              		.loc 1 91 0
 149 0060 FFF7FEFF 		bl	I2CS_SlaveStatus
 150              	.LVL20:
 151 0064 10F0010F 		tst	r0, #1
 152 0068 D8D0     		beq	.L8
  94:.\main.c      ****             (void) I2CS_SlaveClearReadStatus();
 153              		.loc 1 94 0
 154 006a FFF7FEFF 		bl	I2CS_SlaveClearReadBuf
 155              	.LVL21:
  95:.\main.c      ****         }
 156              		.loc 1 95 0
 157 006e FFF7FEFF 		bl	I2CS_SlaveClearReadStatus
 158              	.LVL22:
 159 0072 D3E7     		b	.L8
 160              	.L15:
 161              		.align	2
 162              	.L14:
 163 0074 00000000 		.word	.LANCHOR0
 164 0078 00000000 		.word	i2cWriteBuffer
 165              		.cfi_endproc
 166              	.LFE63:
 167              		.size	main, .-main
 168              		.comm	i2cWriteBuffer,3,4
 169              		.global	i2cReadBuffer
 170              		.data
 171              		.align	2
 172              		.set	.LANCHOR0,. + 0
 173              		.type	i2cReadBuffer, %object
 174              		.size	i2cReadBuffer, 3
 175              	i2cReadBuffer:
 176 0000 01       		.byte	1
ARM GAS  C:\Users\LUKASC~1\AppData\Local\Temp\ccvRrwCL.s 			page 7


 177 0001 FF       		.byte	-1
 178 0002 17       		.byte	23
 179 0003 00       		.section	.rodata.str1.4,"aMS",%progbits,1
 180              		.align	2
 181              	.LC0:
 182 0000 52656365 		.ascii	"Received: \000"
 182      69766564 
 182      3A2000
 183 000b 00       		.text
 184              	.Letext0:
 185              		.file 2 "c:\\program files (x86)\\cypress\\psoc creator\\3.3\\psoc creator\\import\\gnu\\arm\\4.9.
 186              		.file 3 "c:\\program files (x86)\\cypress\\psoc creator\\3.3\\psoc creator\\import\\gnu\\arm\\4.9.
 187              		.file 4 "Generated_Source\\PSoC5/cytypes.h"
 188              		.file 5 "Generated_Source\\PSoC5/core_cm3.h"
 189              		.file 6 "Generated_Source\\PSoC5/UART_1_cdc.h"
 190              		.file 7 "./uart.h"
 191              		.file 8 "Generated_Source\\PSoC5/I2CS.h"