ARM GAS  C:\Users\LUKASC~1\AppData\Local\Temp\ccIX3k9B.s 			page 1


   1              		.syntax unified
   2              		.cpu cortex-m3
   3              		.fpu softvfp
   4              		.eabi_attribute 20, 1
   5              		.eabi_attribute 21, 1
   6              		.eabi_attribute 23, 3
   7              		.eabi_attribute 24, 1
   8              		.eabi_attribute 25, 1
   9              		.eabi_attribute 26, 1
  10              		.eabi_attribute 30, 1
  11              		.eabi_attribute 34, 1
  12              		.eabi_attribute 18, 4
  13              		.thumb
  14              		.file	"uart.c"
  15              		.text
  16              	.Ltext0:
  17              		.cfi_sections	.debug_frame
  18              		.section	.text.UARTInit,"ax",%progbits
  19              		.align	2
  20              		.global	UARTInit
  21              		.thumb
  22              		.thumb_func
  23              		.type	UARTInit, %function
  24              	UARTInit:
  25              	.LFB63:
  26              		.file 1 ".\\uart.c"
   1:.\uart.c      **** /* ========================================
   2:.\uart.c      **** * File Name: capsense.h
   3:.\uart.c      **** *
   4:.\uart.c      **** * Version: 0
   5:.\uart.c      **** * Author: Lukas Creutzburg
   6:.\uart.c      **** *
   7:.\uart.c      **** *  Description:
   8:.\uart.c      **** *  CapSense module
   9:.\uart.c      **** *
  10:.\uart.c      **** * =================================================================================================
  11:.\uart.c      **** */
  12:.\uart.c      **** #include "uart.h"
  13:.\uart.c      **** 
  14:.\uart.c      **** /* Variables */
  15:.\uart.c      **** 
  16:.\uart.c      **** //_________________________________
  17:.\uart.c      **** 
  18:.\uart.c      **** /*******************************************************************************
  19:.\uart.c      **** * Function Name:  UARTInit
  20:.\uart.c      **** ********************************************************************************
  21:.\uart.c      **** *
  22:.\uart.c      **** * Summary:
  23:.\uart.c      **** *   Initializes CapSense  
  24:.\uart.c      **** *
  25:.\uart.c      **** * Parameters:  
  26:.\uart.c      **** *  None
  27:.\uart.c      **** *
  28:.\uart.c      **** * Return: 
  29:.\uart.c      **** *  None 
  30:.\uart.c      **** *  
  31:.\uart.c      **** *******************************************************************************/
ARM GAS  C:\Users\LUKASC~1\AppData\Local\Temp\ccIX3k9B.s 			page 2


  32:.\uart.c      **** void UARTInit(void)
  33:.\uart.c      **** {
  27              		.loc 1 33 0
  28              		.cfi_startproc
  29              		@ args = 0, pretend = 0, frame = 0
  30              		@ frame_needed = 0, uses_anonymous_args = 0
  31 0000 08B5     		push	{r3, lr}
  32              		.cfi_def_cfa_offset 8
  33              		.cfi_offset 3, -8
  34              		.cfi_offset 14, -4
  34:.\uart.c      ****     UART_1_Start((0u),UART_1_5V_OPERATION);
  35              		.loc 1 34 0
  36 0002 0020     		movs	r0, #0
  37 0004 0121     		movs	r1, #1
  38 0006 FFF7FEFF 		bl	UART_1_Start
  39              	.LVL0:
  40 000a 08BD     		pop	{r3, pc}
  41              		.cfi_endproc
  42              	.LFE63:
  43              		.size	UARTInit, .-UARTInit
  44              		.section	.text.UART_SendNumber,"ax",%progbits
  45              		.align	2
  46              		.global	UART_SendNumber
  47              		.thumb
  48              		.thumb_func
  49              		.type	UART_SendNumber, %function
  50              	UART_SendNumber:
  51              	.LFB64:
  35:.\uart.c      **** }
  36:.\uart.c      **** //_________________________________________________________________
  37:.\uart.c      **** 
  38:.\uart.c      **** 
  39:.\uart.c      **** /*******************************************************************************
  40:.\uart.c      **** * Function Name: UART_SendNumber
  41:.\uart.c      **** ********************************************************************************
  42:.\uart.c      **** *
  43:.\uart.c      **** * Summary:
  44:.\uart.c      **** *  Sends number via UART
  45:.\uart.c      **** *
  46:.\uart.c      **** * Parameters:  
  47:.\uart.c      **** *   uint32: number to send
  48:.\uart.c      **** * Return: 
  49:.\uart.c      **** *   None
  50:.\uart.c      **** *
  51:.\uart.c      **** *******************************************************************************/
  52:.\uart.c      **** void UART_SendNumber(uint32 number)
  53:.\uart.c      **** {
  52              		.loc 1 53 0
  53              		.cfi_startproc
  54              		@ args = 0, pretend = 0, frame = 56
  55              		@ frame_needed = 0, uses_anonymous_args = 0
  56              	.LVL1:
  57 0000 00B5     		push	{lr}
  58              		.cfi_def_cfa_offset 4
  59              		.cfi_offset 14, -4
  60 0002 8FB0     		sub	sp, sp, #60
  61              		.cfi_def_cfa_offset 64
ARM GAS  C:\Users\LUKASC~1\AppData\Local\Temp\ccIX3k9B.s 			page 3


  62 0004 0246     		mov	r2, r0
  54:.\uart.c      ****     int bytesWritten; 
  55:.\uart.c      ****     char myString[50]; 
  56:.\uart.c      ****     bytesWritten = sprintf(myString, "%lu", number); 
  63              		.loc 1 56 0
  64 0006 01A8     		add	r0, sp, #4
  65              	.LVL2:
  66 0008 0C49     		ldr	r1, .L5
  67 000a FFF7FEFF 		bl	sprintf
  68              	.LVL3:
  57:.\uart.c      ****     myString[bytesWritten]='\r';
  69              		.loc 1 57 0
  70 000e 0EAB     		add	r3, sp, #56
  71 0010 0344     		add	r3, r3, r0
  72 0012 0D22     		movs	r2, #13
  73 0014 03F8342C 		strb	r2, [r3, #-52]
  58:.\uart.c      ****     myString[bytesWritten+1]='\n';
  74              		.loc 1 58 0
  75 0018 0EAB     		add	r3, sp, #56
  76 001a 0344     		add	r3, r3, r0
  77 001c 0A22     		movs	r2, #10
  78 001e 03F8332C 		strb	r2, [r3, #-51]
  59:.\uart.c      ****     myString[bytesWritten+2]='\0';
  79              		.loc 1 59 0
  80 0022 0230     		adds	r0, r0, #2
  81              	.LVL4:
  82 0024 0EAB     		add	r3, sp, #56
  83 0026 1844     		add	r0, r0, r3
  84              	.LVL5:
  85 0028 0023     		movs	r3, #0
  86 002a 00F8343C 		strb	r3, [r0, #-52]
  60:.\uart.c      ****     UART_1_PutString(myString);
  87              		.loc 1 60 0
  88 002e 01A8     		add	r0, sp, #4
  89 0030 FFF7FEFF 		bl	UART_1_PutString
  90              	.LVL6:
  61:.\uart.c      **** }
  91              		.loc 1 61 0
  92 0034 0FB0     		add	sp, sp, #60
  93              		.cfi_def_cfa_offset 4
  94              		@ sp needed
  95 0036 5DF804FB 		ldr	pc, [sp], #4
  96              	.L6:
  97 003a 00BF     		.align	2
  98              	.L5:
  99 003c 00000000 		.word	.LC0
 100              		.cfi_endproc
 101              	.LFE64:
 102              		.size	UART_SendNumber, .-UART_SendNumber
 103              		.section	.text.UART_SendString,"ax",%progbits
 104              		.align	2
 105              		.global	UART_SendString
 106              		.thumb
 107              		.thumb_func
 108              		.type	UART_SendString, %function
 109              	UART_SendString:
 110              	.LFB65:
ARM GAS  C:\Users\LUKASC~1\AppData\Local\Temp\ccIX3k9B.s 			page 4


  62:.\uart.c      **** //_________________________________________________________________
  63:.\uart.c      **** 
  64:.\uart.c      **** 
  65:.\uart.c      **** /*******************************************************************************
  66:.\uart.c      **** * Function Name: UART_SendString
  67:.\uart.c      **** ********************************************************************************
  68:.\uart.c      **** *
  69:.\uart.c      **** * Summary:
  70:.\uart.c      **** *  Sends string via UART
  71:.\uart.c      **** *
  72:.\uart.c      **** * Parameters:  
  73:.\uart.c      **** *   char[]: String
  74:.\uart.c      **** * Return: 
  75:.\uart.c      **** *   None
  76:.\uart.c      **** *
  77:.\uart.c      **** *******************************************************************************/
  78:.\uart.c      **** void UART_SendString(char string[])
  79:.\uart.c      **** {
 111              		.loc 1 79 0
 112              		.cfi_startproc
 113              		@ args = 0, pretend = 0, frame = 0
 114              		@ frame_needed = 0, uses_anonymous_args = 0
 115              	.LVL7:
 116 0000 08B5     		push	{r3, lr}
 117              		.cfi_def_cfa_offset 8
 118              		.cfi_offset 3, -8
 119              		.cfi_offset 14, -4
  80:.\uart.c      ****     UART_1_PutString(string);
 120              		.loc 1 80 0
 121 0002 FFF7FEFF 		bl	UART_1_PutString
 122              	.LVL8:
 123 0006 08BD     		pop	{r3, pc}
 124              		.cfi_endproc
 125              	.LFE65:
 126              		.size	UART_SendString, .-UART_SendString
 127              		.section	.rodata.str1.4,"aMS",%progbits,1
 128              		.align	2
 129              	.LC0:
 130 0000 256C7500 		.ascii	"%lu\000"
 131              		.text
 132              	.Letext0:
 133              		.file 2 "c:\\program files (x86)\\cypress\\psoc creator\\3.3\\psoc creator\\import\\gnu\\arm\\4.9.
 134              		.file 3 "c:\\program files (x86)\\cypress\\psoc creator\\3.3\\psoc creator\\import\\gnu\\arm\\4.9.
 135              		.file 4 "Generated_Source\\PSoC5/cytypes.h"
 136              		.file 5 "Generated_Source\\PSoC5/UART_1.h"
 137              		.file 6 "Generated_Source\\PSoC5/UART_1_cdc.h"
 138              		.file 7 "Generated_Source\\PSoC5/core_cm3.h"
 139              		.file 8 "c:\\program files (x86)\\cypress\\psoc creator\\3.3\\psoc creator\\import\\gnu\\arm\\4.9.