ARM GAS  C:\Users\LUKASC~1\AppData\Local\Temp\cco469yK.s 			page 1


   1              		.syntax unified
   2              		.cpu cortex-m3
   3              		.fpu softvfp
   4              		.eabi_attribute 20, 1
   5              		.eabi_attribute 21, 1
   6              		.eabi_attribute 23, 3
   7              		.eabi_attribute 24, 1
   8              		.eabi_attribute 25, 1
   9              		.eabi_attribute 26, 1
  10              		.eabi_attribute 30, 1
  11              		.eabi_attribute 34, 1
  12              		.eabi_attribute 18, 4
  13              		.thumb
  14              		.file	"CapSense_CSD_PM.c"
  15              		.text
  16              	.Ltext0:
  17              		.cfi_sections	.debug_frame
  18              		.section	.text.CapSense_CSD_SaveConfig,"ax",%progbits
  19              		.align	2
  20              		.global	CapSense_CSD_SaveConfig
  21              		.thumb
  22              		.thumb_func
  23              		.type	CapSense_CSD_SaveConfig, %function
  24              	CapSense_CSD_SaveConfig:
  25              	.LFB0:
  26              		.file 1 ".\\Generated_Source\\PSoC5\\CapSense_CSD_PM.c"
   1:.\Generated_Source\PSoC5/CapSense_CSD_PM.c **** /*******************************************************************************
   2:.\Generated_Source\PSoC5/CapSense_CSD_PM.c **** * File Name: CapSense_CSD_PM.c
   3:.\Generated_Source\PSoC5/CapSense_CSD_PM.c **** * Version 3.50
   4:.\Generated_Source\PSoC5/CapSense_CSD_PM.c **** *
   5:.\Generated_Source\PSoC5/CapSense_CSD_PM.c **** * Description:
   6:.\Generated_Source\PSoC5/CapSense_CSD_PM.c **** *  This file provides Sleep APIs for CapSense CSD Component.
   7:.\Generated_Source\PSoC5/CapSense_CSD_PM.c **** *
   8:.\Generated_Source\PSoC5/CapSense_CSD_PM.c **** * Note:
   9:.\Generated_Source\PSoC5/CapSense_CSD_PM.c **** *
  10:.\Generated_Source\PSoC5/CapSense_CSD_PM.c **** ********************************************************************************
  11:.\Generated_Source\PSoC5/CapSense_CSD_PM.c **** * Copyright 2008-2013, Cypress Semiconductor Corporation.  All rights reserved.
  12:.\Generated_Source\PSoC5/CapSense_CSD_PM.c **** * You may use this file only in accordance with the license, terms, conditions, 
  13:.\Generated_Source\PSoC5/CapSense_CSD_PM.c **** * disclaimers, and limitations in the end user license agreement accompanying 
  14:.\Generated_Source\PSoC5/CapSense_CSD_PM.c **** * the software package with which this file was provided.
  15:.\Generated_Source\PSoC5/CapSense_CSD_PM.c **** *******************************************************************************/
  16:.\Generated_Source\PSoC5/CapSense_CSD_PM.c **** 
  17:.\Generated_Source\PSoC5/CapSense_CSD_PM.c **** #include "CapSense_CSD.h"
  18:.\Generated_Source\PSoC5/CapSense_CSD_PM.c **** 
  19:.\Generated_Source\PSoC5/CapSense_CSD_PM.c **** CapSense_CSD_BACKUP_STRUCT CapSense_CSD_backup =
  20:.\Generated_Source\PSoC5/CapSense_CSD_PM.c **** {   
  21:.\Generated_Source\PSoC5/CapSense_CSD_PM.c ****     0x00u, /* enableState; */
  22:.\Generated_Source\PSoC5/CapSense_CSD_PM.c ****     
  23:.\Generated_Source\PSoC5/CapSense_CSD_PM.c **** };
  24:.\Generated_Source\PSoC5/CapSense_CSD_PM.c **** 
  25:.\Generated_Source\PSoC5/CapSense_CSD_PM.c **** 
  26:.\Generated_Source\PSoC5/CapSense_CSD_PM.c **** /*******************************************************************************
  27:.\Generated_Source\PSoC5/CapSense_CSD_PM.c **** * Function Name: CapSense_CSD_SaveConfig
  28:.\Generated_Source\PSoC5/CapSense_CSD_PM.c **** ********************************************************************************
  29:.\Generated_Source\PSoC5/CapSense_CSD_PM.c **** *
  30:.\Generated_Source\PSoC5/CapSense_CSD_PM.c **** * Summary:
  31:.\Generated_Source\PSoC5/CapSense_CSD_PM.c **** *  Saves customer configuration of CapSense none-retention registers. Resets 
ARM GAS  C:\Users\LUKASC~1\AppData\Local\Temp\cco469yK.s 			page 2


  32:.\Generated_Source\PSoC5/CapSense_CSD_PM.c **** *  all sensors to an inactive state.
  33:.\Generated_Source\PSoC5/CapSense_CSD_PM.c **** *
  34:.\Generated_Source\PSoC5/CapSense_CSD_PM.c **** * Parameters:
  35:.\Generated_Source\PSoC5/CapSense_CSD_PM.c **** *  None
  36:.\Generated_Source\PSoC5/CapSense_CSD_PM.c **** *
  37:.\Generated_Source\PSoC5/CapSense_CSD_PM.c **** * Return:
  38:.\Generated_Source\PSoC5/CapSense_CSD_PM.c **** *  None
  39:.\Generated_Source\PSoC5/CapSense_CSD_PM.c **** *
  40:.\Generated_Source\PSoC5/CapSense_CSD_PM.c **** * Side Effects:
  41:.\Generated_Source\PSoC5/CapSense_CSD_PM.c **** *  Function CapSense_CSD_SaveConfig disconnects all sensors from the
  42:.\Generated_Source\PSoC5/CapSense_CSD_PM.c **** *  Analog MUX Bus and puts them into inactive state. Call this function
  43:.\Generated_Source\PSoC5/CapSense_CSD_PM.c **** *  during the active scan can cause unpredictable component behavior.
  44:.\Generated_Source\PSoC5/CapSense_CSD_PM.c **** *
  45:.\Generated_Source\PSoC5/CapSense_CSD_PM.c **** * Note:
  46:.\Generated_Source\PSoC5/CapSense_CSD_PM.c **** *  This function should be called after completion of all scans.
  47:.\Generated_Source\PSoC5/CapSense_CSD_PM.c **** *
  48:.\Generated_Source\PSoC5/CapSense_CSD_PM.c **** * Global Variables:
  49:.\Generated_Source\PSoC5/CapSense_CSD_PM.c **** *  CapSense_CSD_backup - used to save component state before enter sleep 
  50:.\Generated_Source\PSoC5/CapSense_CSD_PM.c **** *  mode and none-retention registers.
  51:.\Generated_Source\PSoC5/CapSense_CSD_PM.c **** *
  52:.\Generated_Source\PSoC5/CapSense_CSD_PM.c **** * Reentrant:
  53:.\Generated_Source\PSoC5/CapSense_CSD_PM.c **** *  Yes.
  54:.\Generated_Source\PSoC5/CapSense_CSD_PM.c **** *
  55:.\Generated_Source\PSoC5/CapSense_CSD_PM.c **** *******************************************************************************/
  56:.\Generated_Source\PSoC5/CapSense_CSD_PM.c **** void CapSense_CSD_SaveConfig(void) 
  57:.\Generated_Source\PSoC5/CapSense_CSD_PM.c **** {    
  27              		.loc 1 57 0
  28              		.cfi_startproc
  29              		@ args = 0, pretend = 0, frame = 0
  30              		@ frame_needed = 0, uses_anonymous_args = 0
  31 0000 08B5     		push	{r3, lr}
  32              		.cfi_def_cfa_offset 8
  33              		.cfi_offset 3, -8
  34              		.cfi_offset 14, -4
  58:.\Generated_Source\PSoC5/CapSense_CSD_PM.c **** 
  59:.\Generated_Source\PSoC5/CapSense_CSD_PM.c ****     /* Set CONTROL_REG */
  60:.\Generated_Source\PSoC5/CapSense_CSD_PM.c ****     CapSense_CSD_backup.ctrlReg = CapSense_CSD_CONTROL_REG;
  35              		.loc 1 60 0
  36 0002 034B     		ldr	r3, .L3
  37 0004 1A78     		ldrb	r2, [r3]	@ zero_extendqisi2
  38 0006 034B     		ldr	r3, .L3+4
  39 0008 5A70     		strb	r2, [r3, #1]
  61:.\Generated_Source\PSoC5/CapSense_CSD_PM.c **** 
  62:.\Generated_Source\PSoC5/CapSense_CSD_PM.c ****     /* Clear all sensors */
  63:.\Generated_Source\PSoC5/CapSense_CSD_PM.c ****     CapSense_CSD_ClearSensors();
  40              		.loc 1 63 0
  41 000a FFF7FEFF 		bl	CapSense_CSD_ClearSensors
  42              	.LVL0:
  43 000e 08BD     		pop	{r3, pc}
  44              	.L4:
  45              		.align	2
  46              	.L3:
  47 0010 7A640040 		.word	1073767546
  48 0014 00000000 		.word	.LANCHOR0
  49              		.cfi_endproc
  50              	.LFE0:
  51              		.size	CapSense_CSD_SaveConfig, .-CapSense_CSD_SaveConfig
ARM GAS  C:\Users\LUKASC~1\AppData\Local\Temp\cco469yK.s 			page 3


  52              		.section	.text.CapSense_CSD_Sleep,"ax",%progbits
  53              		.align	2
  54              		.global	CapSense_CSD_Sleep
  55              		.thumb
  56              		.thumb_func
  57              		.type	CapSense_CSD_Sleep, %function
  58              	CapSense_CSD_Sleep:
  59              	.LFB1:
  64:.\Generated_Source\PSoC5/CapSense_CSD_PM.c ****     
  65:.\Generated_Source\PSoC5/CapSense_CSD_PM.c ****     /* The pins disable is customer concern: Cmod and Rb */
  66:.\Generated_Source\PSoC5/CapSense_CSD_PM.c **** }
  67:.\Generated_Source\PSoC5/CapSense_CSD_PM.c **** 
  68:.\Generated_Source\PSoC5/CapSense_CSD_PM.c **** 
  69:.\Generated_Source\PSoC5/CapSense_CSD_PM.c **** /*******************************************************************************
  70:.\Generated_Source\PSoC5/CapSense_CSD_PM.c **** * Function Name: CapSense_CSD_Sleep
  71:.\Generated_Source\PSoC5/CapSense_CSD_PM.c **** ********************************************************************************
  72:.\Generated_Source\PSoC5/CapSense_CSD_PM.c **** *
  73:.\Generated_Source\PSoC5/CapSense_CSD_PM.c **** * Summary:
  74:.\Generated_Source\PSoC5/CapSense_CSD_PM.c **** *  Disables Active mode power template bits for number of component used within 
  75:.\Generated_Source\PSoC5/CapSense_CSD_PM.c **** *  CapSense. Calls CapSense_CSD_SaveConfig() function to save customer 
  76:.\Generated_Source\PSoC5/CapSense_CSD_PM.c **** *  configuration of CapSense none-retention registers and resets all sensors 
  77:.\Generated_Source\PSoC5/CapSense_CSD_PM.c **** *  to an inactive state.
  78:.\Generated_Source\PSoC5/CapSense_CSD_PM.c **** *
  79:.\Generated_Source\PSoC5/CapSense_CSD_PM.c **** * Parameters:
  80:.\Generated_Source\PSoC5/CapSense_CSD_PM.c **** *  None
  81:.\Generated_Source\PSoC5/CapSense_CSD_PM.c **** *
  82:.\Generated_Source\PSoC5/CapSense_CSD_PM.c **** * Return:
  83:.\Generated_Source\PSoC5/CapSense_CSD_PM.c **** *  None
  84:.\Generated_Source\PSoC5/CapSense_CSD_PM.c **** *
  85:.\Generated_Source\PSoC5/CapSense_CSD_PM.c **** * Side Effects:
  86:.\Generated_Source\PSoC5/CapSense_CSD_PM.c **** *  Function CapSense_CSD_Sleep disconnects all sensors from the
  87:.\Generated_Source\PSoC5/CapSense_CSD_PM.c **** *  Analog MUX Bus and puts them into inactive state. Call this function
  88:.\Generated_Source\PSoC5/CapSense_CSD_PM.c **** *  during the active scan can cause unpredictable component behavior.
  89:.\Generated_Source\PSoC5/CapSense_CSD_PM.c **** *
  90:.\Generated_Source\PSoC5/CapSense_CSD_PM.c **** * Note:
  91:.\Generated_Source\PSoC5/CapSense_CSD_PM.c **** *  This function should be called after completion of all scans.
  92:.\Generated_Source\PSoC5/CapSense_CSD_PM.c **** *
  93:.\Generated_Source\PSoC5/CapSense_CSD_PM.c **** * Global Variables:
  94:.\Generated_Source\PSoC5/CapSense_CSD_PM.c **** *  CapSense_CSD_backup - used to save component state before enter sleep 
  95:.\Generated_Source\PSoC5/CapSense_CSD_PM.c **** *  mode and none-retention registers.
  96:.\Generated_Source\PSoC5/CapSense_CSD_PM.c **** *
  97:.\Generated_Source\PSoC5/CapSense_CSD_PM.c **** * Reentrant:
  98:.\Generated_Source\PSoC5/CapSense_CSD_PM.c **** *  No
  99:.\Generated_Source\PSoC5/CapSense_CSD_PM.c **** *
 100:.\Generated_Source\PSoC5/CapSense_CSD_PM.c **** *******************************************************************************/
 101:.\Generated_Source\PSoC5/CapSense_CSD_PM.c **** void CapSense_CSD_Sleep(void) 
 102:.\Generated_Source\PSoC5/CapSense_CSD_PM.c **** {
  60              		.loc 1 102 0
  61              		.cfi_startproc
  62              		@ args = 0, pretend = 0, frame = 0
  63              		@ frame_needed = 0, uses_anonymous_args = 0
  64 0000 08B5     		push	{r3, lr}
  65              		.cfi_def_cfa_offset 8
  66              		.cfi_offset 3, -8
  67              		.cfi_offset 14, -4
 103:.\Generated_Source\PSoC5/CapSense_CSD_PM.c ****     /* Check and save enable state */
 104:.\Generated_Source\PSoC5/CapSense_CSD_PM.c ****     if(CapSense_CSD_IS_CAPSENSE_ENABLE(CapSense_CSD_CONTROL_REG))
ARM GAS  C:\Users\LUKASC~1\AppData\Local\Temp\cco469yK.s 			page 4


  68              		.loc 1 104 0
  69 0002 084B     		ldr	r3, .L9
  70 0004 1B78     		ldrb	r3, [r3]	@ zero_extendqisi2
  71 0006 13F0800F 		tst	r3, #128
  72 000a 05D0     		beq	.L6
 105:.\Generated_Source\PSoC5/CapSense_CSD_PM.c ****     {
 106:.\Generated_Source\PSoC5/CapSense_CSD_PM.c ****         CapSense_CSD_backup.enableState = 1u;
  73              		.loc 1 106 0
  74 000c 0122     		movs	r2, #1
  75 000e 064B     		ldr	r3, .L9+4
  76 0010 1A70     		strb	r2, [r3]
 107:.\Generated_Source\PSoC5/CapSense_CSD_PM.c ****         CapSense_CSD_Stop();
  77              		.loc 1 107 0
  78 0012 FFF7FEFF 		bl	CapSense_CSD_Stop
  79              	.LVL1:
  80 0016 02E0     		b	.L7
  81              	.L6:
 108:.\Generated_Source\PSoC5/CapSense_CSD_PM.c ****     }
 109:.\Generated_Source\PSoC5/CapSense_CSD_PM.c ****     else
 110:.\Generated_Source\PSoC5/CapSense_CSD_PM.c ****     {
 111:.\Generated_Source\PSoC5/CapSense_CSD_PM.c ****         CapSense_CSD_backup.enableState = 0u;
  82              		.loc 1 111 0
  83 0018 0022     		movs	r2, #0
  84 001a 034B     		ldr	r3, .L9+4
  85 001c 1A70     		strb	r2, [r3]
  86              	.L7:
 112:.\Generated_Source\PSoC5/CapSense_CSD_PM.c ****     }
 113:.\Generated_Source\PSoC5/CapSense_CSD_PM.c ****     
 114:.\Generated_Source\PSoC5/CapSense_CSD_PM.c ****     CapSense_CSD_SaveConfig();
  87              		.loc 1 114 0
  88 001e FFF7FEFF 		bl	CapSense_CSD_SaveConfig
  89              	.LVL2:
  90 0022 08BD     		pop	{r3, pc}
  91              	.L10:
  92              		.align	2
  93              	.L9:
  94 0024 7A640040 		.word	1073767546
  95 0028 00000000 		.word	.LANCHOR0
  96              		.cfi_endproc
  97              	.LFE1:
  98              		.size	CapSense_CSD_Sleep, .-CapSense_CSD_Sleep
  99              		.section	.text.CapSense_CSD_RestoreConfig,"ax",%progbits
 100              		.align	2
 101              		.global	CapSense_CSD_RestoreConfig
 102              		.thumb
 103              		.thumb_func
 104              		.type	CapSense_CSD_RestoreConfig, %function
 105              	CapSense_CSD_RestoreConfig:
 106              	.LFB2:
 115:.\Generated_Source\PSoC5/CapSense_CSD_PM.c **** }
 116:.\Generated_Source\PSoC5/CapSense_CSD_PM.c **** 
 117:.\Generated_Source\PSoC5/CapSense_CSD_PM.c **** 
 118:.\Generated_Source\PSoC5/CapSense_CSD_PM.c **** /*******************************************************************************
 119:.\Generated_Source\PSoC5/CapSense_CSD_PM.c **** * Function Name: CapSense_CSD_RestoreConfig
 120:.\Generated_Source\PSoC5/CapSense_CSD_PM.c **** ********************************************************************************
 121:.\Generated_Source\PSoC5/CapSense_CSD_PM.c **** *
 122:.\Generated_Source\PSoC5/CapSense_CSD_PM.c **** * Summary:
ARM GAS  C:\Users\LUKASC~1\AppData\Local\Temp\cco469yK.s 			page 5


 123:.\Generated_Source\PSoC5/CapSense_CSD_PM.c **** *  Restores CapSense configuration and non-retention register values.
 124:.\Generated_Source\PSoC5/CapSense_CSD_PM.c **** *
 125:.\Generated_Source\PSoC5/CapSense_CSD_PM.c **** * Parameters:
 126:.\Generated_Source\PSoC5/CapSense_CSD_PM.c **** *  None
 127:.\Generated_Source\PSoC5/CapSense_CSD_PM.c **** *
 128:.\Generated_Source\PSoC5/CapSense_CSD_PM.c **** * Return:
 129:.\Generated_Source\PSoC5/CapSense_CSD_PM.c **** *  None
 130:.\Generated_Source\PSoC5/CapSense_CSD_PM.c **** *
 131:.\Generated_Source\PSoC5/CapSense_CSD_PM.c **** * Side Effects:
 132:.\Generated_Source\PSoC5/CapSense_CSD_PM.c **** *  Must be called only after CapSense_CSD_SaveConfig() routine. Otherwise 
 133:.\Generated_Source\PSoC5/CapSense_CSD_PM.c **** *  the component configuration will be overwritten with its initial setting.
 134:.\Generated_Source\PSoC5/CapSense_CSD_PM.c **** *  This finction modifies the CONTROL_REG register. 
 135:.\Generated_Source\PSoC5/CapSense_CSD_PM.c **** *
 136:.\Generated_Source\PSoC5/CapSense_CSD_PM.c **** * Note:
 137:.\Generated_Source\PSoC5/CapSense_CSD_PM.c **** *  This function should be called after completion of all scans.
 138:.\Generated_Source\PSoC5/CapSense_CSD_PM.c **** *
 139:.\Generated_Source\PSoC5/CapSense_CSD_PM.c **** * Global Variables:
 140:.\Generated_Source\PSoC5/CapSense_CSD_PM.c **** *  CapSense_CSD_backup - used to save component state before enter sleep 
 141:.\Generated_Source\PSoC5/CapSense_CSD_PM.c **** *  mode and none-retention registers.
 142:.\Generated_Source\PSoC5/CapSense_CSD_PM.c **** *
 143:.\Generated_Source\PSoC5/CapSense_CSD_PM.c **** *******************************************************************************/
 144:.\Generated_Source\PSoC5/CapSense_CSD_PM.c **** void CapSense_CSD_RestoreConfig(void) 
 145:.\Generated_Source\PSoC5/CapSense_CSD_PM.c **** {       
 107              		.loc 1 145 0
 108              		.cfi_startproc
 109              		@ args = 0, pretend = 0, frame = 0
 110              		@ frame_needed = 0, uses_anonymous_args = 0
 111              		@ link register save eliminated.
 146:.\Generated_Source\PSoC5/CapSense_CSD_PM.c ****     /* Set PRS */
 147:.\Generated_Source\PSoC5/CapSense_CSD_PM.c ****     #if (CapSense_CSD_PRS_OPTIONS == CapSense_CSD_PRS_8BITS)        
 148:.\Generated_Source\PSoC5/CapSense_CSD_PM.c ****         /* Write FIFO with seed */
 149:.\Generated_Source\PSoC5/CapSense_CSD_PM.c ****         CapSense_CSD_SEED_COPY_REG = CapSense_CSD_MEASURE_FULL_RANGE_LOW;               /* F0 regis
 150:.\Generated_Source\PSoC5/CapSense_CSD_PM.c ****     
 151:.\Generated_Source\PSoC5/CapSense_CSD_PM.c ****     #elif (CapSense_CSD_PRS_OPTIONS == CapSense_CSD_PRS_16BITS)
 152:.\Generated_Source\PSoC5/CapSense_CSD_PM.c ****         /* Write FIFO with seed */
 153:.\Generated_Source\PSoC5/CapSense_CSD_PM.c ****         CY_SET_REG16(CapSense_CSD_SEED_COPY_PTR, CapSense_CSD_MEASURE_FULL_RANGE);      /* F0 regis
 112              		.loc 1 153 0
 113 0000 4FF6FF72 		movw	r2, #65535
 114 0004 084B     		ldr	r3, .L12
 115 0006 1A80     		strh	r2, [r3]	@ movhi
 154:.\Generated_Source\PSoC5/CapSense_CSD_PM.c ****                 
 155:.\Generated_Source\PSoC5/CapSense_CSD_PM.c ****     #elif (CapSense_CSD_PRS_OPTIONS == CapSense_CSD_PRS_16BITS_4X)
 156:.\Generated_Source\PSoC5/CapSense_CSD_PM.c ****         
 157:.\Generated_Source\PSoC5/CapSense_CSD_PM.c ****         /* Write FIFO with seed */
 158:.\Generated_Source\PSoC5/CapSense_CSD_PM.c ****         CapSense_CSD_SEED_COPY_A__F1_REG = CapSense_CSD_MEASURE_FULL_RANGE_LOW;         /* F0 regis
 159:.\Generated_Source\PSoC5/CapSense_CSD_PM.c ****         CapSense_CSD_SEED_COPY_A__F0_REG =CapSense_CSD_MEASURE_FULL_RANGE_LOW;          /* F1 regis
 160:.\Generated_Source\PSoC5/CapSense_CSD_PM.c ****         
 161:.\Generated_Source\PSoC5/CapSense_CSD_PM.c ****     #else
 162:.\Generated_Source\PSoC5/CapSense_CSD_PM.c ****         /* Do nothing = config without PRS */
 163:.\Generated_Source\PSoC5/CapSense_CSD_PM.c ****     #endif  /* (CapSense_CSD_PRS_OPTIONS == CapSense_CSD_PRS_8BITS) */
 164:.\Generated_Source\PSoC5/CapSense_CSD_PM.c ****     
 165:.\Generated_Source\PSoC5/CapSense_CSD_PM.c ****     /* Set the Measure */
 166:.\Generated_Source\PSoC5/CapSense_CSD_PM.c ****     #if (CapSense_CSD_IMPLEMENTATION_CH0 == CapSense_CSD_MEASURE_IMPLEMENTATION_FF)
 167:.\Generated_Source\PSoC5/CapSense_CSD_PM.c ****         /* Window PWM  - FF Timer register are retention */
 168:.\Generated_Source\PSoC5/CapSense_CSD_PM.c ****         /* Raw Counter - FF Timer register are retention */
 169:.\Generated_Source\PSoC5/CapSense_CSD_PM.c ****     #else
 170:.\Generated_Source\PSoC5/CapSense_CSD_PM.c ****         
ARM GAS  C:\Users\LUKASC~1\AppData\Local\Temp\cco469yK.s 			page 6


 171:.\Generated_Source\PSoC5/CapSense_CSD_PM.c ****         /* Window PWM */
 172:.\Generated_Source\PSoC5/CapSense_CSD_PM.c ****         CapSense_CSD_PWM_CH0_PERIOD_LO_REG    = CapSense_CSD_MEASURE_FULL_RANGE_LOW;        /* F0 r
 116              		.loc 1 172 0
 117 0008 FF23     		movs	r3, #255
 118 000a 0849     		ldr	r1, .L12+4
 119 000c 0A70     		strb	r2, [r1]
 173:.\Generated_Source\PSoC5/CapSense_CSD_PM.c ****         
 174:.\Generated_Source\PSoC5/CapSense_CSD_PM.c ****         /* Raw Counter */
 175:.\Generated_Source\PSoC5/CapSense_CSD_PM.c ****         CapSense_CSD_RAW_CH0_PERIOD_HI_REG    = CapSense_CSD_MEASURE_FULL_RANGE_LOW;        /* F1 r
 120              		.loc 1 175 0
 121 000e 084A     		ldr	r2, .L12+8
 122 0010 1370     		strb	r3, [r2]
 176:.\Generated_Source\PSoC5/CapSense_CSD_PM.c ****         CapSense_CSD_RAW_CH0_PERIOD_LO_REG    = CapSense_CSD_MEASURE_FULL_RANGE_LOW;        /* F0 r
 123              		.loc 1 176 0
 124 0012 103A     		subs	r2, r2, #16
 125 0014 1370     		strb	r3, [r2]
 177:.\Generated_Source\PSoC5/CapSense_CSD_PM.c ****     
 178:.\Generated_Source\PSoC5/CapSense_CSD_PM.c ****     #endif  /* (CapSense_CSD_IMPLEMENTATION_CH0 == CapSense_CSD_MEASURE_IMPLEMENTATION_FF) */ 
 179:.\Generated_Source\PSoC5/CapSense_CSD_PM.c ****     
 180:.\Generated_Source\PSoC5/CapSense_CSD_PM.c ****     #if (CapSense_CSD_DESIGN_TYPE == CapSense_CSD_TWO_CHANNELS_DESIGN)
 181:.\Generated_Source\PSoC5/CapSense_CSD_PM.c ****         #if (CapSense_CSD_IMPLEMENTATION_CH1 == CapSense_CSD_MEASURE_IMPLEMENTATION_FF)
 182:.\Generated_Source\PSoC5/CapSense_CSD_PM.c ****             /* Window PWM  - FF Timer register are retention */
 183:.\Generated_Source\PSoC5/CapSense_CSD_PM.c ****             /* Raw Counter - FF Timer register are retention */
 184:.\Generated_Source\PSoC5/CapSense_CSD_PM.c ****         #else
 185:.\Generated_Source\PSoC5/CapSense_CSD_PM.c ****             
 186:.\Generated_Source\PSoC5/CapSense_CSD_PM.c ****             /* Window PWM */
 187:.\Generated_Source\PSoC5/CapSense_CSD_PM.c ****             CapSense_CSD_PWM_CH1_PERIOD_LO_REG    = CapSense_CSD_MEASURE_FULL_RANGE_LOW;       /* F
 188:.\Generated_Source\PSoC5/CapSense_CSD_PM.c ****             
 189:.\Generated_Source\PSoC5/CapSense_CSD_PM.c ****             /* Raw Counter */
 190:.\Generated_Source\PSoC5/CapSense_CSD_PM.c ****             CapSense_CSD_RAW_CH1_PERIOD_HI_REG    = CapSense_CSD_MEASURE_FULL_RANGE_LOW;       /* F
 191:.\Generated_Source\PSoC5/CapSense_CSD_PM.c ****             CapSense_CSD_RAW_CH1_PERIOD_LO_REG    = CapSense_CSD_MEASURE_FULL_RANGE_LOW;       /* F
 192:.\Generated_Source\PSoC5/CapSense_CSD_PM.c ****             
 193:.\Generated_Source\PSoC5/CapSense_CSD_PM.c ****         #endif  /* (CapSense_CSD_IMPLEMENTATION_CH1 == CapSense_CSD_MEASURE_IMPLEMENTATION_FF) */
 194:.\Generated_Source\PSoC5/CapSense_CSD_PM.c ****     
 195:.\Generated_Source\PSoC5/CapSense_CSD_PM.c ****     #endif  /* (CapSense_CSD_DESIGN_TYPE == TWO_CHANNELS_DESIGN)*/
 196:.\Generated_Source\PSoC5/CapSense_CSD_PM.c **** 
 197:.\Generated_Source\PSoC5/CapSense_CSD_PM.c ****     /* Set CONTROL_REG */
 198:.\Generated_Source\PSoC5/CapSense_CSD_PM.c ****     CapSense_CSD_CONTROL_REG = CapSense_CSD_backup.ctrlReg;
 126              		.loc 1 198 0
 127 0016 074B     		ldr	r3, .L12+12
 128 0018 5A78     		ldrb	r2, [r3, #1]	@ zero_extendqisi2
 129 001a 074B     		ldr	r3, .L12+16
 130 001c 1A70     		strb	r2, [r3]
 199:.\Generated_Source\PSoC5/CapSense_CSD_PM.c **** 
 200:.\Generated_Source\PSoC5/CapSense_CSD_PM.c ****     /* Enable window generation */
 201:.\Generated_Source\PSoC5/CapSense_CSD_PM.c ****     #if (CapSense_CSD_DESIGN_TYPE == CapSense_CSD_ONE_CHANNEL_DESIGN)
 202:.\Generated_Source\PSoC5/CapSense_CSD_PM.c ****         CapSense_CSD_CONTROL_REG |= CapSense_CSD_CTRL_WINDOW_EN__CH0;
 131              		.loc 1 202 0
 132 001e 1A78     		ldrb	r2, [r3]	@ zero_extendqisi2
 133 0020 42F00402 		orr	r2, r2, #4
 134 0024 1A70     		strb	r2, [r3]
 135 0026 7047     		bx	lr
 136              	.L13:
 137              		.align	2
 138              	.L12:
 139 0028 4A640040 		.word	1073767498
 140 002c 4C640040 		.word	1073767500
ARM GAS  C:\Users\LUKASC~1\AppData\Local\Temp\cco469yK.s 			page 7


 141 0030 5D640040 		.word	1073767517
 142 0034 00000000 		.word	.LANCHOR0
 143 0038 7A640040 		.word	1073767546
 144              		.cfi_endproc
 145              	.LFE2:
 146              		.size	CapSense_CSD_RestoreConfig, .-CapSense_CSD_RestoreConfig
 147              		.section	.text.CapSense_CSD_Wakeup,"ax",%progbits
 148              		.align	2
 149              		.global	CapSense_CSD_Wakeup
 150              		.thumb
 151              		.thumb_func
 152              		.type	CapSense_CSD_Wakeup, %function
 153              	CapSense_CSD_Wakeup:
 154              	.LFB3:
 203:.\Generated_Source\PSoC5/CapSense_CSD_PM.c ****     #elif (CapSense_CSD_DESIGN_TYPE == CapSense_CSD_TWO_CHANNELS_DESIGN) 
 204:.\Generated_Source\PSoC5/CapSense_CSD_PM.c ****         CapSense_CSD_CONTROL_REG |= (CapSense_CSD_CTRL_WINDOW_EN__CH0 | CapSense_CSD_CTRL_WINDOW_EN
 205:.\Generated_Source\PSoC5/CapSense_CSD_PM.c ****     #endif  /* CapSense_CSD_DESIGN_TYPE */
 206:.\Generated_Source\PSoC5/CapSense_CSD_PM.c ****  
 207:.\Generated_Source\PSoC5/CapSense_CSD_PM.c ****     /* The pins enable are customer concern: Cmod and Rb */
 208:.\Generated_Source\PSoC5/CapSense_CSD_PM.c ****  }
 209:.\Generated_Source\PSoC5/CapSense_CSD_PM.c ****  
 210:.\Generated_Source\PSoC5/CapSense_CSD_PM.c **** 
 211:.\Generated_Source\PSoC5/CapSense_CSD_PM.c **** /*******************************************************************************
 212:.\Generated_Source\PSoC5/CapSense_CSD_PM.c **** * Function Name: CapSense_CSD_Wakeup
 213:.\Generated_Source\PSoC5/CapSense_CSD_PM.c **** ********************************************************************************
 214:.\Generated_Source\PSoC5/CapSense_CSD_PM.c **** *
 215:.\Generated_Source\PSoC5/CapSense_CSD_PM.c **** * Summary:
 216:.\Generated_Source\PSoC5/CapSense_CSD_PM.c **** *  Restores CapSense configuration and non-retention register values. 
 217:.\Generated_Source\PSoC5/CapSense_CSD_PM.c **** *  Restores enabled state of component by setting Active mode power template 
 218:.\Generated_Source\PSoC5/CapSense_CSD_PM.c **** *  bits for number of component used within CapSense.
 219:.\Generated_Source\PSoC5/CapSense_CSD_PM.c **** *
 220:.\Generated_Source\PSoC5/CapSense_CSD_PM.c **** * Parameters:
 221:.\Generated_Source\PSoC5/CapSense_CSD_PM.c **** *  None
 222:.\Generated_Source\PSoC5/CapSense_CSD_PM.c **** *
 223:.\Generated_Source\PSoC5/CapSense_CSD_PM.c **** * Return:
 224:.\Generated_Source\PSoC5/CapSense_CSD_PM.c **** *  None
 225:.\Generated_Source\PSoC5/CapSense_CSD_PM.c **** *
 226:.\Generated_Source\PSoC5/CapSense_CSD_PM.c **** * Side Effects:
 227:.\Generated_Source\PSoC5/CapSense_CSD_PM.c **** *  Must be called only after CapSense_CSD_SaveConfig() routine. Otherwise 
 228:.\Generated_Source\PSoC5/CapSense_CSD_PM.c **** *  the component configuration will be overwritten with its initial setting.
 229:.\Generated_Source\PSoC5/CapSense_CSD_PM.c **** *  This finction modifies the CONTROL_REG register. 
 230:.\Generated_Source\PSoC5/CapSense_CSD_PM.c **** *
 231:.\Generated_Source\PSoC5/CapSense_CSD_PM.c **** * Note:
 232:.\Generated_Source\PSoC5/CapSense_CSD_PM.c **** *  This function should be called after completion of all scans.
 233:.\Generated_Source\PSoC5/CapSense_CSD_PM.c **** *
 234:.\Generated_Source\PSoC5/CapSense_CSD_PM.c **** * Global Variables:
 235:.\Generated_Source\PSoC5/CapSense_CSD_PM.c **** *  CapSense_CSD_backup - used to save component state before enter sleep 
 236:.\Generated_Source\PSoC5/CapSense_CSD_PM.c **** *  mode and none-retention registers.
 237:.\Generated_Source\PSoC5/CapSense_CSD_PM.c **** *
 238:.\Generated_Source\PSoC5/CapSense_CSD_PM.c **** *******************************************************************************/
 239:.\Generated_Source\PSoC5/CapSense_CSD_PM.c **** void CapSense_CSD_Wakeup(void) 
 240:.\Generated_Source\PSoC5/CapSense_CSD_PM.c **** {
 155              		.loc 1 240 0
 156              		.cfi_startproc
 157              		@ args = 0, pretend = 0, frame = 0
 158              		@ frame_needed = 0, uses_anonymous_args = 0
 159 0000 08B5     		push	{r3, lr}
ARM GAS  C:\Users\LUKASC~1\AppData\Local\Temp\cco469yK.s 			page 8


 160              		.cfi_def_cfa_offset 8
 161              		.cfi_offset 3, -8
 162              		.cfi_offset 14, -4
 241:.\Generated_Source\PSoC5/CapSense_CSD_PM.c ****     CapSense_CSD_RestoreConfig();
 163              		.loc 1 241 0
 164 0002 FFF7FEFF 		bl	CapSense_CSD_RestoreConfig
 165              	.LVL3:
 242:.\Generated_Source\PSoC5/CapSense_CSD_PM.c ****     
 243:.\Generated_Source\PSoC5/CapSense_CSD_PM.c ****     /* Restore CapSense Enable state */
 244:.\Generated_Source\PSoC5/CapSense_CSD_PM.c ****     if (CapSense_CSD_backup.enableState != 0u)
 166              		.loc 1 244 0
 167 0006 034B     		ldr	r3, .L17
 168 0008 1B78     		ldrb	r3, [r3]	@ zero_extendqisi2
 169 000a 0BB1     		cbz	r3, .L14
 245:.\Generated_Source\PSoC5/CapSense_CSD_PM.c ****     {
 246:.\Generated_Source\PSoC5/CapSense_CSD_PM.c ****         CapSense_CSD_Enable();
 170              		.loc 1 246 0
 171 000c FFF7FEFF 		bl	CapSense_CSD_Enable
 172              	.LVL4:
 173              	.L14:
 174 0010 08BD     		pop	{r3, pc}
 175              	.L18:
 176 0012 00BF     		.align	2
 177              	.L17:
 178 0014 00000000 		.word	.LANCHOR0
 179              		.cfi_endproc
 180              	.LFE3:
 181              		.size	CapSense_CSD_Wakeup, .-CapSense_CSD_Wakeup
 182              		.global	CapSense_CSD_backup
 183              		.bss
 184              		.align	2
 185              		.set	.LANCHOR0,. + 0
 186              		.type	CapSense_CSD_backup, %object
 187              		.size	CapSense_CSD_backup, 2
 188              	CapSense_CSD_backup:
 189 0000 0000     		.space	2
 190 0002 0000     		.text
 191              	.Letext0:
 192              		.file 2 ".\\Generated_Source\\PSoC5\\cytypes.h"
 193              		.file 3 ".\\Generated_Source\\PSoC5\\CapSense_CSD.h"