ARM GAS  C:\Users\LUKASC~1\AppData\Local\Temp\ccCyuhOb.s 			page 1


   1              		.syntax unified
   2              		.cpu cortex-m3
   3              		.fpu softvfp
   4              		.eabi_attribute 20, 1
   5              		.eabi_attribute 21, 1
   6              		.eabi_attribute 23, 3
   7              		.eabi_attribute 24, 1
   8              		.eabi_attribute 25, 1
   9              		.eabi_attribute 26, 1
  10              		.eabi_attribute 30, 1
  11              		.eabi_attribute 34, 1
  12              		.eabi_attribute 18, 4
  13              		.thumb
  14              		.file	"CapSense_CSD_CompCH0.c"
  15              		.text
  16              	.Ltext0:
  17              		.cfi_sections	.debug_frame
  18              		.section	.text.CapSense_CSD_CompCH0_trimAdjust,"ax",%progbits
  19              		.align	2
  20              		.thumb
  21              		.thumb_func
  22              		.type	CapSense_CSD_CompCH0_trimAdjust, %function
  23              	CapSense_CSD_CompCH0_trimAdjust:
  24              	.LFB6:
  25              		.file 1 ".\\Generated_Source\\PSoC5\\CapSense_CSD_CompCH0.c"
   1:.\Generated_Source\PSoC5/CapSense_CSD_CompCH0.c **** /*******************************************************************************
   2:.\Generated_Source\PSoC5/CapSense_CSD_CompCH0.c **** * File Name: CapSense_CSD_CompCH0.c
   3:.\Generated_Source\PSoC5/CapSense_CSD_CompCH0.c **** * Version 2.0
   4:.\Generated_Source\PSoC5/CapSense_CSD_CompCH0.c **** *
   5:.\Generated_Source\PSoC5/CapSense_CSD_CompCH0.c **** * Description:
   6:.\Generated_Source\PSoC5/CapSense_CSD_CompCH0.c **** *  This file provides the source code to the API for the Comparator component
   7:.\Generated_Source\PSoC5/CapSense_CSD_CompCH0.c **** *
   8:.\Generated_Source\PSoC5/CapSense_CSD_CompCH0.c **** * Note:
   9:.\Generated_Source\PSoC5/CapSense_CSD_CompCH0.c **** *  None
  10:.\Generated_Source\PSoC5/CapSense_CSD_CompCH0.c **** *
  11:.\Generated_Source\PSoC5/CapSense_CSD_CompCH0.c **** ********************************************************************************
  12:.\Generated_Source\PSoC5/CapSense_CSD_CompCH0.c **** * Copyright 2008-2012, Cypress Semiconductor Corporation.  All rights reserved.
  13:.\Generated_Source\PSoC5/CapSense_CSD_CompCH0.c **** * You may use this file only in accordance with the license, terms, conditions, 
  14:.\Generated_Source\PSoC5/CapSense_CSD_CompCH0.c **** * disclaimers, and limitations in the end user license agreement accompanying 
  15:.\Generated_Source\PSoC5/CapSense_CSD_CompCH0.c **** * the software package with which this file was provided.
  16:.\Generated_Source\PSoC5/CapSense_CSD_CompCH0.c **** *******************************************************************************/
  17:.\Generated_Source\PSoC5/CapSense_CSD_CompCH0.c **** 
  18:.\Generated_Source\PSoC5/CapSense_CSD_CompCH0.c **** #include "CapSense_CSD_CompCH0.h"
  19:.\Generated_Source\PSoC5/CapSense_CSD_CompCH0.c **** 
  20:.\Generated_Source\PSoC5/CapSense_CSD_CompCH0.c **** uint8 CapSense_CSD_CompCH0_initVar = 0u;
  21:.\Generated_Source\PSoC5/CapSense_CSD_CompCH0.c **** 
  22:.\Generated_Source\PSoC5/CapSense_CSD_CompCH0.c **** /* Internal functions definitoin */
  23:.\Generated_Source\PSoC5/CapSense_CSD_CompCH0.c **** static void CapSense_CSD_CompCH0_trimAdjust(uint8 nibble) ;
  24:.\Generated_Source\PSoC5/CapSense_CSD_CompCH0.c **** 
  25:.\Generated_Source\PSoC5/CapSense_CSD_CompCH0.c **** /* static CapSense_CSD_CompCH0_backupStruct  CapSense_CSD_CompCH0_backup; */
  26:.\Generated_Source\PSoC5/CapSense_CSD_CompCH0.c **** #if (CY_PSOC5A)
  27:.\Generated_Source\PSoC5/CapSense_CSD_CompCH0.c ****     static CapSense_CSD_CompCH0_LOWPOWER_BACKUP_STRUCT  CapSense_CSD_CompCH0_lowPowerBackup;
  28:.\Generated_Source\PSoC5/CapSense_CSD_CompCH0.c **** #endif /* CY_PSOC5A */
  29:.\Generated_Source\PSoC5/CapSense_CSD_CompCH0.c **** 
  30:.\Generated_Source\PSoC5/CapSense_CSD_CompCH0.c **** /* variable to decide whether or not to restore the control register in 
  31:.\Generated_Source\PSoC5/CapSense_CSD_CompCH0.c ****    Enable() API for PSoC5A only */
  32:.\Generated_Source\PSoC5/CapSense_CSD_CompCH0.c **** #if (CY_PSOC5A)
ARM GAS  C:\Users\LUKASC~1\AppData\Local\Temp\ccCyuhOb.s 			page 2


  33:.\Generated_Source\PSoC5/CapSense_CSD_CompCH0.c ****     static uint8 CapSense_CSD_CompCH0_restoreReg = 0u;
  34:.\Generated_Source\PSoC5/CapSense_CSD_CompCH0.c **** #endif /* CY_PSOC5A */
  35:.\Generated_Source\PSoC5/CapSense_CSD_CompCH0.c **** 
  36:.\Generated_Source\PSoC5/CapSense_CSD_CompCH0.c **** 
  37:.\Generated_Source\PSoC5/CapSense_CSD_CompCH0.c **** /*******************************************************************************
  38:.\Generated_Source\PSoC5/CapSense_CSD_CompCH0.c **** * Function Name: CapSense_CSD_CompCH0_Init
  39:.\Generated_Source\PSoC5/CapSense_CSD_CompCH0.c **** ********************************************************************************
  40:.\Generated_Source\PSoC5/CapSense_CSD_CompCH0.c **** *
  41:.\Generated_Source\PSoC5/CapSense_CSD_CompCH0.c **** * Summary:
  42:.\Generated_Source\PSoC5/CapSense_CSD_CompCH0.c **** *  Initialize to the schematic state
  43:.\Generated_Source\PSoC5/CapSense_CSD_CompCH0.c **** * 
  44:.\Generated_Source\PSoC5/CapSense_CSD_CompCH0.c **** * Parameters:
  45:.\Generated_Source\PSoC5/CapSense_CSD_CompCH0.c **** *  void
  46:.\Generated_Source\PSoC5/CapSense_CSD_CompCH0.c **** *
  47:.\Generated_Source\PSoC5/CapSense_CSD_CompCH0.c **** * Return:
  48:.\Generated_Source\PSoC5/CapSense_CSD_CompCH0.c **** *  void
  49:.\Generated_Source\PSoC5/CapSense_CSD_CompCH0.c **** *
  50:.\Generated_Source\PSoC5/CapSense_CSD_CompCH0.c **** *******************************************************************************/
  51:.\Generated_Source\PSoC5/CapSense_CSD_CompCH0.c **** void CapSense_CSD_CompCH0_Init(void) 
  52:.\Generated_Source\PSoC5/CapSense_CSD_CompCH0.c **** {
  53:.\Generated_Source\PSoC5/CapSense_CSD_CompCH0.c ****     /* Set default speed/power */
  54:.\Generated_Source\PSoC5/CapSense_CSD_CompCH0.c ****     CapSense_CSD_CompCH0_SetSpeed(CapSense_CSD_CompCH0_DEFAULT_SPEED);
  55:.\Generated_Source\PSoC5/CapSense_CSD_CompCH0.c **** 
  56:.\Generated_Source\PSoC5/CapSense_CSD_CompCH0.c ****     /* Set default Hysteresis */
  57:.\Generated_Source\PSoC5/CapSense_CSD_CompCH0.c ****     #if ( CapSense_CSD_CompCH0_DEFAULT_HYSTERESIS == 0u )
  58:.\Generated_Source\PSoC5/CapSense_CSD_CompCH0.c ****         CapSense_CSD_CompCH0_CR |= CapSense_CSD_CompCH0_HYST_OFF;
  59:.\Generated_Source\PSoC5/CapSense_CSD_CompCH0.c ****     #else
  60:.\Generated_Source\PSoC5/CapSense_CSD_CompCH0.c ****         CapSense_CSD_CompCH0_CR &= (uint8)(~CapSense_CSD_CompCH0_HYST_OFF);
  61:.\Generated_Source\PSoC5/CapSense_CSD_CompCH0.c ****     #endif /* CapSense_CSD_CompCH0_DEFAULT_HYSTERESIS == 0u */
  62:.\Generated_Source\PSoC5/CapSense_CSD_CompCH0.c ****     /* Power down override feature is not supported for PSoC5A. */
  63:.\Generated_Source\PSoC5/CapSense_CSD_CompCH0.c ****     #if (CY_PSOC3 || CY_PSOC5LP)
  64:.\Generated_Source\PSoC5/CapSense_CSD_CompCH0.c ****         /* Set default Power Down Override */
  65:.\Generated_Source\PSoC5/CapSense_CSD_CompCH0.c ****         #if ( CapSense_CSD_CompCH0_DEFAULT_PWRDWN_OVRD == 0u )
  66:.\Generated_Source\PSoC5/CapSense_CSD_CompCH0.c ****             CapSense_CSD_CompCH0_CR &= (uint8)(~CapSense_CSD_CompCH0_PWRDWN_OVRD);
  67:.\Generated_Source\PSoC5/CapSense_CSD_CompCH0.c ****         #else 
  68:.\Generated_Source\PSoC5/CapSense_CSD_CompCH0.c ****             CapSense_CSD_CompCH0_CR |= CapSense_CSD_CompCH0_PWRDWN_OVRD;
  69:.\Generated_Source\PSoC5/CapSense_CSD_CompCH0.c ****         #endif /* CapSense_CSD_CompCH0_DEFAULT_PWRDWN_OVRD == 0u */
  70:.\Generated_Source\PSoC5/CapSense_CSD_CompCH0.c ****     #endif /* CY_PSOC3 || CY_PSOC5LP */
  71:.\Generated_Source\PSoC5/CapSense_CSD_CompCH0.c ****     
  72:.\Generated_Source\PSoC5/CapSense_CSD_CompCH0.c ****     /* Set mux always on logic */
  73:.\Generated_Source\PSoC5/CapSense_CSD_CompCH0.c ****     CapSense_CSD_CompCH0_CR |= CapSense_CSD_CompCH0_MX_AO;
  74:.\Generated_Source\PSoC5/CapSense_CSD_CompCH0.c **** 
  75:.\Generated_Source\PSoC5/CapSense_CSD_CompCH0.c ****     /* Set default sync */
  76:.\Generated_Source\PSoC5/CapSense_CSD_CompCH0.c ****     CapSense_CSD_CompCH0_CLK &= (uint8)(~CapSense_CSD_CompCH0_SYNCCLK_MASK);
  77:.\Generated_Source\PSoC5/CapSense_CSD_CompCH0.c ****     #if ( CapSense_CSD_CompCH0_DEFAULT_BYPASS_SYNC == 0u )
  78:.\Generated_Source\PSoC5/CapSense_CSD_CompCH0.c ****         CapSense_CSD_CompCH0_CLK |= CapSense_CSD_CompCH0_SYNC_CLK_EN;
  79:.\Generated_Source\PSoC5/CapSense_CSD_CompCH0.c ****     #else
  80:.\Generated_Source\PSoC5/CapSense_CSD_CompCH0.c ****         CapSense_CSD_CompCH0_CLK |= CapSense_CSD_CompCH0_BYPASS_SYNC;
  81:.\Generated_Source\PSoC5/CapSense_CSD_CompCH0.c ****     #endif /* CapSense_CSD_CompCH0_DEFAULT_BYPASS_SYNC == 0u */
  82:.\Generated_Source\PSoC5/CapSense_CSD_CompCH0.c **** }
  83:.\Generated_Source\PSoC5/CapSense_CSD_CompCH0.c **** 
  84:.\Generated_Source\PSoC5/CapSense_CSD_CompCH0.c **** 
  85:.\Generated_Source\PSoC5/CapSense_CSD_CompCH0.c **** /*******************************************************************************
  86:.\Generated_Source\PSoC5/CapSense_CSD_CompCH0.c **** * Function Name: CapSense_CSD_CompCH0_Enable
  87:.\Generated_Source\PSoC5/CapSense_CSD_CompCH0.c **** ********************************************************************************
  88:.\Generated_Source\PSoC5/CapSense_CSD_CompCH0.c **** *
  89:.\Generated_Source\PSoC5/CapSense_CSD_CompCH0.c **** * Summary:
ARM GAS  C:\Users\LUKASC~1\AppData\Local\Temp\ccCyuhOb.s 			page 3


  90:.\Generated_Source\PSoC5/CapSense_CSD_CompCH0.c **** *  Enable the Comparator
  91:.\Generated_Source\PSoC5/CapSense_CSD_CompCH0.c **** * 
  92:.\Generated_Source\PSoC5/CapSense_CSD_CompCH0.c **** * Parameters:
  93:.\Generated_Source\PSoC5/CapSense_CSD_CompCH0.c **** *  void
  94:.\Generated_Source\PSoC5/CapSense_CSD_CompCH0.c **** *
  95:.\Generated_Source\PSoC5/CapSense_CSD_CompCH0.c **** * Return:
  96:.\Generated_Source\PSoC5/CapSense_CSD_CompCH0.c **** *  void
  97:.\Generated_Source\PSoC5/CapSense_CSD_CompCH0.c **** *
  98:.\Generated_Source\PSoC5/CapSense_CSD_CompCH0.c **** *******************************************************************************/
  99:.\Generated_Source\PSoC5/CapSense_CSD_CompCH0.c **** void CapSense_CSD_CompCH0_Enable(void) 
 100:.\Generated_Source\PSoC5/CapSense_CSD_CompCH0.c **** {
 101:.\Generated_Source\PSoC5/CapSense_CSD_CompCH0.c ****     CapSense_CSD_CompCH0_PWRMGR |= CapSense_CSD_CompCH0_ACT_PWR_EN;
 102:.\Generated_Source\PSoC5/CapSense_CSD_CompCH0.c ****     CapSense_CSD_CompCH0_STBY_PWRMGR |= CapSense_CSD_CompCH0_STBY_PWR_EN;
 103:.\Generated_Source\PSoC5/CapSense_CSD_CompCH0.c ****      
 104:.\Generated_Source\PSoC5/CapSense_CSD_CompCH0.c ****      /* This is to restore the value of register CR which is saved 
 105:.\Generated_Source\PSoC5/CapSense_CSD_CompCH0.c ****     in prior to the modification in stop() API */
 106:.\Generated_Source\PSoC5/CapSense_CSD_CompCH0.c ****     #if (CY_PSOC5A)
 107:.\Generated_Source\PSoC5/CapSense_CSD_CompCH0.c ****         if(CapSense_CSD_CompCH0_restoreReg == 1u)
 108:.\Generated_Source\PSoC5/CapSense_CSD_CompCH0.c ****         {
 109:.\Generated_Source\PSoC5/CapSense_CSD_CompCH0.c ****             CapSense_CSD_CompCH0_CR = CapSense_CSD_CompCH0_lowPowerBackup.compCRReg;
 110:.\Generated_Source\PSoC5/CapSense_CSD_CompCH0.c **** 
 111:.\Generated_Source\PSoC5/CapSense_CSD_CompCH0.c ****             /* Clear the flag */
 112:.\Generated_Source\PSoC5/CapSense_CSD_CompCH0.c ****             CapSense_CSD_CompCH0_restoreReg = 0u;
 113:.\Generated_Source\PSoC5/CapSense_CSD_CompCH0.c ****         }
 114:.\Generated_Source\PSoC5/CapSense_CSD_CompCH0.c ****     #endif /* CY_PSOC5A */
 115:.\Generated_Source\PSoC5/CapSense_CSD_CompCH0.c **** }
 116:.\Generated_Source\PSoC5/CapSense_CSD_CompCH0.c **** 
 117:.\Generated_Source\PSoC5/CapSense_CSD_CompCH0.c **** 
 118:.\Generated_Source\PSoC5/CapSense_CSD_CompCH0.c **** /*******************************************************************************
 119:.\Generated_Source\PSoC5/CapSense_CSD_CompCH0.c **** * Function Name: CapSense_CSD_CompCH0_Start
 120:.\Generated_Source\PSoC5/CapSense_CSD_CompCH0.c **** ********************************************************************************
 121:.\Generated_Source\PSoC5/CapSense_CSD_CompCH0.c **** *
 122:.\Generated_Source\PSoC5/CapSense_CSD_CompCH0.c **** * Summary:
 123:.\Generated_Source\PSoC5/CapSense_CSD_CompCH0.c **** *  The start function initializes the Analog Comparator with the default values.
 124:.\Generated_Source\PSoC5/CapSense_CSD_CompCH0.c **** *
 125:.\Generated_Source\PSoC5/CapSense_CSD_CompCH0.c **** * Parameters:
 126:.\Generated_Source\PSoC5/CapSense_CSD_CompCH0.c **** *  void
 127:.\Generated_Source\PSoC5/CapSense_CSD_CompCH0.c **** *
 128:.\Generated_Source\PSoC5/CapSense_CSD_CompCH0.c **** * Return:
 129:.\Generated_Source\PSoC5/CapSense_CSD_CompCH0.c **** *  void 
 130:.\Generated_Source\PSoC5/CapSense_CSD_CompCH0.c **** *
 131:.\Generated_Source\PSoC5/CapSense_CSD_CompCH0.c **** * Global variables:
 132:.\Generated_Source\PSoC5/CapSense_CSD_CompCH0.c **** *  CapSense_CSD_CompCH0_initVar: Is modified when this function is called for the 
 133:.\Generated_Source\PSoC5/CapSense_CSD_CompCH0.c **** *   first time. Is used to ensure that initialization happens only once.
 134:.\Generated_Source\PSoC5/CapSense_CSD_CompCH0.c **** *  
 135:.\Generated_Source\PSoC5/CapSense_CSD_CompCH0.c **** *******************************************************************************/
 136:.\Generated_Source\PSoC5/CapSense_CSD_CompCH0.c **** void CapSense_CSD_CompCH0_Start(void) 
 137:.\Generated_Source\PSoC5/CapSense_CSD_CompCH0.c **** {
 138:.\Generated_Source\PSoC5/CapSense_CSD_CompCH0.c **** 
 139:.\Generated_Source\PSoC5/CapSense_CSD_CompCH0.c ****     if ( CapSense_CSD_CompCH0_initVar == 0u )
 140:.\Generated_Source\PSoC5/CapSense_CSD_CompCH0.c ****     {
 141:.\Generated_Source\PSoC5/CapSense_CSD_CompCH0.c ****         CapSense_CSD_CompCH0_Init();
 142:.\Generated_Source\PSoC5/CapSense_CSD_CompCH0.c ****         
 143:.\Generated_Source\PSoC5/CapSense_CSD_CompCH0.c ****         CapSense_CSD_CompCH0_initVar = 1u;
 144:.\Generated_Source\PSoC5/CapSense_CSD_CompCH0.c ****     }   
 145:.\Generated_Source\PSoC5/CapSense_CSD_CompCH0.c **** 
 146:.\Generated_Source\PSoC5/CapSense_CSD_CompCH0.c ****     /* Enable power to comparator */
ARM GAS  C:\Users\LUKASC~1\AppData\Local\Temp\ccCyuhOb.s 			page 4


 147:.\Generated_Source\PSoC5/CapSense_CSD_CompCH0.c ****     CapSense_CSD_CompCH0_Enable();    
 148:.\Generated_Source\PSoC5/CapSense_CSD_CompCH0.c **** }
 149:.\Generated_Source\PSoC5/CapSense_CSD_CompCH0.c **** 
 150:.\Generated_Source\PSoC5/CapSense_CSD_CompCH0.c **** 
 151:.\Generated_Source\PSoC5/CapSense_CSD_CompCH0.c **** /*******************************************************************************
 152:.\Generated_Source\PSoC5/CapSense_CSD_CompCH0.c **** * Function Name: CapSense_CSD_CompCH0_Stop
 153:.\Generated_Source\PSoC5/CapSense_CSD_CompCH0.c **** ********************************************************************************
 154:.\Generated_Source\PSoC5/CapSense_CSD_CompCH0.c **** *
 155:.\Generated_Source\PSoC5/CapSense_CSD_CompCH0.c **** * Summary:
 156:.\Generated_Source\PSoC5/CapSense_CSD_CompCH0.c **** *  Powers down amplifier to lowest power state.
 157:.\Generated_Source\PSoC5/CapSense_CSD_CompCH0.c **** *
 158:.\Generated_Source\PSoC5/CapSense_CSD_CompCH0.c **** * Parameters:
 159:.\Generated_Source\PSoC5/CapSense_CSD_CompCH0.c **** *  void
 160:.\Generated_Source\PSoC5/CapSense_CSD_CompCH0.c **** *
 161:.\Generated_Source\PSoC5/CapSense_CSD_CompCH0.c **** * Return:
 162:.\Generated_Source\PSoC5/CapSense_CSD_CompCH0.c **** *  void
 163:.\Generated_Source\PSoC5/CapSense_CSD_CompCH0.c **** *
 164:.\Generated_Source\PSoC5/CapSense_CSD_CompCH0.c **** *******************************************************************************/
 165:.\Generated_Source\PSoC5/CapSense_CSD_CompCH0.c **** void CapSense_CSD_CompCH0_Stop(void) 
 166:.\Generated_Source\PSoC5/CapSense_CSD_CompCH0.c **** {
 167:.\Generated_Source\PSoC5/CapSense_CSD_CompCH0.c ****     /* Disable power to comparator */
 168:.\Generated_Source\PSoC5/CapSense_CSD_CompCH0.c ****     CapSense_CSD_CompCH0_PWRMGR &= (uint8)(~CapSense_CSD_CompCH0_ACT_PWR_EN);
 169:.\Generated_Source\PSoC5/CapSense_CSD_CompCH0.c ****     CapSense_CSD_CompCH0_STBY_PWRMGR &= (uint8)(~CapSense_CSD_CompCH0_STBY_PWR_EN);
 170:.\Generated_Source\PSoC5/CapSense_CSD_CompCH0.c ****     
 171:.\Generated_Source\PSoC5/CapSense_CSD_CompCH0.c ****     #if (CY_PSOC5A)
 172:.\Generated_Source\PSoC5/CapSense_CSD_CompCH0.c ****         /* Enable the variable */
 173:.\Generated_Source\PSoC5/CapSense_CSD_CompCH0.c ****         CapSense_CSD_CompCH0_restoreReg = 1u;
 174:.\Generated_Source\PSoC5/CapSense_CSD_CompCH0.c **** 
 175:.\Generated_Source\PSoC5/CapSense_CSD_CompCH0.c ****         /* Save the control register before clearing it */
 176:.\Generated_Source\PSoC5/CapSense_CSD_CompCH0.c ****         CapSense_CSD_CompCH0_lowPowerBackup.compCRReg = CapSense_CSD_CompCH0_CR;
 177:.\Generated_Source\PSoC5/CapSense_CSD_CompCH0.c ****         CapSense_CSD_CompCH0_CR = CapSense_CSD_CompCH0_COMP_REG_CLR;
 178:.\Generated_Source\PSoC5/CapSense_CSD_CompCH0.c ****     #endif /* CY_PSOC5A */
 179:.\Generated_Source\PSoC5/CapSense_CSD_CompCH0.c **** }
 180:.\Generated_Source\PSoC5/CapSense_CSD_CompCH0.c **** 
 181:.\Generated_Source\PSoC5/CapSense_CSD_CompCH0.c **** 
 182:.\Generated_Source\PSoC5/CapSense_CSD_CompCH0.c **** /*******************************************************************************
 183:.\Generated_Source\PSoC5/CapSense_CSD_CompCH0.c **** * Function Name: CapSense_CSD_CompCH0_SetSpeed
 184:.\Generated_Source\PSoC5/CapSense_CSD_CompCH0.c **** ********************************************************************************
 185:.\Generated_Source\PSoC5/CapSense_CSD_CompCH0.c **** *
 186:.\Generated_Source\PSoC5/CapSense_CSD_CompCH0.c **** * Summary:
 187:.\Generated_Source\PSoC5/CapSense_CSD_CompCH0.c **** *  This function sets the speed of the Analog Comparator. The faster the speed
 188:.\Generated_Source\PSoC5/CapSense_CSD_CompCH0.c **** *  the more power that is used.
 189:.\Generated_Source\PSoC5/CapSense_CSD_CompCH0.c **** *
 190:.\Generated_Source\PSoC5/CapSense_CSD_CompCH0.c **** * Parameters:
 191:.\Generated_Source\PSoC5/CapSense_CSD_CompCH0.c **** *  speed: (uint8) Sets operation mode of Comparator
 192:.\Generated_Source\PSoC5/CapSense_CSD_CompCH0.c **** *
 193:.\Generated_Source\PSoC5/CapSense_CSD_CompCH0.c **** * Return:
 194:.\Generated_Source\PSoC5/CapSense_CSD_CompCH0.c **** *  void
 195:.\Generated_Source\PSoC5/CapSense_CSD_CompCH0.c **** *
 196:.\Generated_Source\PSoC5/CapSense_CSD_CompCH0.c **** *******************************************************************************/
 197:.\Generated_Source\PSoC5/CapSense_CSD_CompCH0.c **** void CapSense_CSD_CompCH0_SetSpeed(uint8 speed) 
 198:.\Generated_Source\PSoC5/CapSense_CSD_CompCH0.c **** {
 199:.\Generated_Source\PSoC5/CapSense_CSD_CompCH0.c ****     /* Clear and Set power level */    
 200:.\Generated_Source\PSoC5/CapSense_CSD_CompCH0.c ****     CapSense_CSD_CompCH0_CR = (CapSense_CSD_CompCH0_CR & (uint8)(~CapSense_CSD_CompCH0_PWR_MODE_MAS
 201:.\Generated_Source\PSoC5/CapSense_CSD_CompCH0.c ****                            (speed & CapSense_CSD_CompCH0_PWR_MODE_MASK);
 202:.\Generated_Source\PSoC5/CapSense_CSD_CompCH0.c **** 
 203:.\Generated_Source\PSoC5/CapSense_CSD_CompCH0.c ****     /* Set trim value for high speed comparator */
ARM GAS  C:\Users\LUKASC~1\AppData\Local\Temp\ccCyuhOb.s 			page 5


 204:.\Generated_Source\PSoC5/CapSense_CSD_CompCH0.c ****     if(speed == CapSense_CSD_CompCH0_HIGHSPEED)
 205:.\Generated_Source\PSoC5/CapSense_CSD_CompCH0.c ****     {
 206:.\Generated_Source\PSoC5/CapSense_CSD_CompCH0.c ****         /* PSoC5A */
 207:.\Generated_Source\PSoC5/CapSense_CSD_CompCH0.c ****         #if (CY_PSOC5A)
 208:.\Generated_Source\PSoC5/CapSense_CSD_CompCH0.c ****             CapSense_CSD_CompCH0_TR = CapSense_CSD_CompCH0_HS_TRIM_TR0;
 209:.\Generated_Source\PSoC5/CapSense_CSD_CompCH0.c ****         #endif /* CY_PSOC5A */
 210:.\Generated_Source\PSoC5/CapSense_CSD_CompCH0.c ****         
 211:.\Generated_Source\PSoC5/CapSense_CSD_CompCH0.c ****         /* PSoC3, PSoC5LP or later */
 212:.\Generated_Source\PSoC5/CapSense_CSD_CompCH0.c ****         #if (CY_PSOC3 || CY_PSOC5LP) 
 213:.\Generated_Source\PSoC5/CapSense_CSD_CompCH0.c ****             CapSense_CSD_CompCH0_TR0 = CapSense_CSD_CompCH0_HS_TRIM_TR0;
 214:.\Generated_Source\PSoC5/CapSense_CSD_CompCH0.c ****             CapSense_CSD_CompCH0_TR1 = CapSense_CSD_CompCH0_HS_TRIM_TR1;
 215:.\Generated_Source\PSoC5/CapSense_CSD_CompCH0.c ****         #endif /* CY_PSOC3 || CY_PSOC5LP */
 216:.\Generated_Source\PSoC5/CapSense_CSD_CompCH0.c ****     }
 217:.\Generated_Source\PSoC5/CapSense_CSD_CompCH0.c ****     else
 218:.\Generated_Source\PSoC5/CapSense_CSD_CompCH0.c ****     {
 219:.\Generated_Source\PSoC5/CapSense_CSD_CompCH0.c ****     /* PSoC5A */
 220:.\Generated_Source\PSoC5/CapSense_CSD_CompCH0.c ****         #if (CY_PSOC5A)
 221:.\Generated_Source\PSoC5/CapSense_CSD_CompCH0.c ****             CapSense_CSD_CompCH0_TR = CapSense_CSD_CompCH0_LS_TRIM_TR0;
 222:.\Generated_Source\PSoC5/CapSense_CSD_CompCH0.c ****         #endif /* CY_PSOC5A */
 223:.\Generated_Source\PSoC5/CapSense_CSD_CompCH0.c ****         
 224:.\Generated_Source\PSoC5/CapSense_CSD_CompCH0.c ****         /* PSoC3, PSoC5LP or later */
 225:.\Generated_Source\PSoC5/CapSense_CSD_CompCH0.c ****         #if (CY_PSOC3 || CY_PSOC5LP) 
 226:.\Generated_Source\PSoC5/CapSense_CSD_CompCH0.c ****             CapSense_CSD_CompCH0_TR0 = CapSense_CSD_CompCH0_LS_TRIM_TR0;
 227:.\Generated_Source\PSoC5/CapSense_CSD_CompCH0.c ****             CapSense_CSD_CompCH0_TR1 = CapSense_CSD_CompCH0_LS_TRIM_TR1;
 228:.\Generated_Source\PSoC5/CapSense_CSD_CompCH0.c ****         #endif /* CY_PSOC3 || CY_PSOC5LP */
 229:.\Generated_Source\PSoC5/CapSense_CSD_CompCH0.c ****     }
 230:.\Generated_Source\PSoC5/CapSense_CSD_CompCH0.c **** 
 231:.\Generated_Source\PSoC5/CapSense_CSD_CompCH0.c **** }
 232:.\Generated_Source\PSoC5/CapSense_CSD_CompCH0.c **** 
 233:.\Generated_Source\PSoC5/CapSense_CSD_CompCH0.c **** 
 234:.\Generated_Source\PSoC5/CapSense_CSD_CompCH0.c **** /*******************************************************************************
 235:.\Generated_Source\PSoC5/CapSense_CSD_CompCH0.c **** * Function Name: CapSense_CSD_CompCH0_GetCompare
 236:.\Generated_Source\PSoC5/CapSense_CSD_CompCH0.c **** ********************************************************************************
 237:.\Generated_Source\PSoC5/CapSense_CSD_CompCH0.c **** *
 238:.\Generated_Source\PSoC5/CapSense_CSD_CompCH0.c **** * Summary:
 239:.\Generated_Source\PSoC5/CapSense_CSD_CompCH0.c **** *  This function returns the comparator output value.
 240:.\Generated_Source\PSoC5/CapSense_CSD_CompCH0.c **** *  This value is not affected by the Polarity parameter.
 241:.\Generated_Source\PSoC5/CapSense_CSD_CompCH0.c **** *  This valuea lways reflects a noninverted state.
 242:.\Generated_Source\PSoC5/CapSense_CSD_CompCH0.c **** *
 243:.\Generated_Source\PSoC5/CapSense_CSD_CompCH0.c **** * Parameters:
 244:.\Generated_Source\PSoC5/CapSense_CSD_CompCH0.c **** *   None
 245:.\Generated_Source\PSoC5/CapSense_CSD_CompCH0.c **** *
 246:.\Generated_Source\PSoC5/CapSense_CSD_CompCH0.c **** * Return:
 247:.\Generated_Source\PSoC5/CapSense_CSD_CompCH0.c **** *  (uint8)  0     - if Pos_Input less than Neg_input
 248:.\Generated_Source\PSoC5/CapSense_CSD_CompCH0.c **** *           non 0 - if Pos_Input greater than Neg_input.
 249:.\Generated_Source\PSoC5/CapSense_CSD_CompCH0.c **** *
 250:.\Generated_Source\PSoC5/CapSense_CSD_CompCH0.c **** *******************************************************************************/
 251:.\Generated_Source\PSoC5/CapSense_CSD_CompCH0.c **** uint8 CapSense_CSD_CompCH0_GetCompare(void) 
 252:.\Generated_Source\PSoC5/CapSense_CSD_CompCH0.c **** {
 253:.\Generated_Source\PSoC5/CapSense_CSD_CompCH0.c ****     return( CapSense_CSD_CompCH0_WRK & CapSense_CSD_CompCH0_CMP_OUT_MASK);
 254:.\Generated_Source\PSoC5/CapSense_CSD_CompCH0.c **** }
 255:.\Generated_Source\PSoC5/CapSense_CSD_CompCH0.c **** 
 256:.\Generated_Source\PSoC5/CapSense_CSD_CompCH0.c **** 
 257:.\Generated_Source\PSoC5/CapSense_CSD_CompCH0.c **** /*******************************************************************************
 258:.\Generated_Source\PSoC5/CapSense_CSD_CompCH0.c **** * Function Name: CapSense_CSD_CompCH0_trimAdjust
 259:.\Generated_Source\PSoC5/CapSense_CSD_CompCH0.c **** ********************************************************************************
 260:.\Generated_Source\PSoC5/CapSense_CSD_CompCH0.c **** *
ARM GAS  C:\Users\LUKASC~1\AppData\Local\Temp\ccCyuhOb.s 			page 6


 261:.\Generated_Source\PSoC5/CapSense_CSD_CompCH0.c **** * Summary:
 262:.\Generated_Source\PSoC5/CapSense_CSD_CompCH0.c **** *  This function adjusts the value in the low nibble/high nibble of the Analog 
 263:.\Generated_Source\PSoC5/CapSense_CSD_CompCH0.c **** *  Comparator trim register
 264:.\Generated_Source\PSoC5/CapSense_CSD_CompCH0.c **** *
 265:.\Generated_Source\PSoC5/CapSense_CSD_CompCH0.c **** * Parameters:  
 266:.\Generated_Source\PSoC5/CapSense_CSD_CompCH0.c **** *  nibble:
 267:.\Generated_Source\PSoC5/CapSense_CSD_CompCH0.c **** *      0 -- adjusts the value in the low nibble
 268:.\Generated_Source\PSoC5/CapSense_CSD_CompCH0.c **** *      1 -- adjusts the value in the high nibble
 269:.\Generated_Source\PSoC5/CapSense_CSD_CompCH0.c **** *
 270:.\Generated_Source\PSoC5/CapSense_CSD_CompCH0.c **** * Return:
 271:.\Generated_Source\PSoC5/CapSense_CSD_CompCH0.c **** *  None
 272:.\Generated_Source\PSoC5/CapSense_CSD_CompCH0.c **** *
 273:.\Generated_Source\PSoC5/CapSense_CSD_CompCH0.c **** * Theory: 
 274:.\Generated_Source\PSoC5/CapSense_CSD_CompCH0.c **** *  Function assumes comparator block is setup for trim adjust.
 275:.\Generated_Source\PSoC5/CapSense_CSD_CompCH0.c **** *  Intended to be called from Comp_ZeroCal()
 276:.\Generated_Source\PSoC5/CapSense_CSD_CompCH0.c **** * 
 277:.\Generated_Source\PSoC5/CapSense_CSD_CompCH0.c **** * Side Effects:
 278:.\Generated_Source\PSoC5/CapSense_CSD_CompCH0.c **** *  Routine uses a course 1ms delay following each trim adjustment to allow 
 279:.\Generated_Source\PSoC5/CapSense_CSD_CompCH0.c **** *  the comparator output to respond.
 280:.\Generated_Source\PSoC5/CapSense_CSD_CompCH0.c **** *
 281:.\Generated_Source\PSoC5/CapSense_CSD_CompCH0.c **** *******************************************************************************/
 282:.\Generated_Source\PSoC5/CapSense_CSD_CompCH0.c **** static void CapSense_CSD_CompCH0_trimAdjust(uint8 nibble) 
 283:.\Generated_Source\PSoC5/CapSense_CSD_CompCH0.c **** {
  26              		.loc 1 283 0
  27              		.cfi_startproc
  28              		@ args = 0, pretend = 0, frame = 0
  29              		@ frame_needed = 0, uses_anonymous_args = 0
  30              	.LVL0:
  31 0000 F8B5     		push	{r3, r4, r5, r6, r7, lr}
  32              		.cfi_def_cfa_offset 24
  33              		.cfi_offset 3, -24
  34              		.cfi_offset 4, -20
  35              		.cfi_offset 5, -16
  36              		.cfi_offset 6, -12
  37              		.cfi_offset 7, -8
  38              		.cfi_offset 14, -4
 284:.\Generated_Source\PSoC5/CapSense_CSD_CompCH0.c ****     uint8 trimCnt, trimCntMax;
 285:.\Generated_Source\PSoC5/CapSense_CSD_CompCH0.c ****     uint8 cmpState;   
 286:.\Generated_Source\PSoC5/CapSense_CSD_CompCH0.c **** 
 287:.\Generated_Source\PSoC5/CapSense_CSD_CompCH0.c ****     /* get current state of comparator output */
 288:.\Generated_Source\PSoC5/CapSense_CSD_CompCH0.c ****     cmpState = CapSense_CSD_CompCH0_WRK & CapSense_CSD_CompCH0_CMP_OUT_MASK;
  39              		.loc 1 288 0
  40 0002 1A4B     		ldr	r3, .L12
  41 0004 1D78     		ldrb	r5, [r3]	@ zero_extendqisi2
  42 0006 05F00205 		and	r5, r5, #2
  43 000a EDB2     		uxtb	r5, r5
  44              	.LVL1:
 289:.\Generated_Source\PSoC5/CapSense_CSD_CompCH0.c ****     
 290:.\Generated_Source\PSoC5/CapSense_CSD_CompCH0.c ****     if (nibble == 0u)
  45              		.loc 1 290 0
  46 000c 0646     		mov	r6, r0
  47 000e 30B9     		cbnz	r0, .L2
 291:.\Generated_Source\PSoC5/CapSense_CSD_CompCH0.c ****     {    
 292:.\Generated_Source\PSoC5/CapSense_CSD_CompCH0.c ****         /* if comparator output is high, negative offset adjust is required */
 293:.\Generated_Source\PSoC5/CapSense_CSD_CompCH0.c ****         if ( cmpState != 0u )
  48              		.loc 1 293 0
  49 0010 5DB1     		cbz	r5, .L3
ARM GAS  C:\Users\LUKASC~1\AppData\Local\Temp\ccCyuhOb.s 			page 7


 294:.\Generated_Source\PSoC5/CapSense_CSD_CompCH0.c ****         {
 295:.\Generated_Source\PSoC5/CapSense_CSD_CompCH0.c ****             /* PSoC5A */
 296:.\Generated_Source\PSoC5/CapSense_CSD_CompCH0.c ****             #if (CY_PSOC5A)
 297:.\Generated_Source\PSoC5/CapSense_CSD_CompCH0.c ****                 CapSense_CSD_CompCH0_TR |= CapSense_CSD_CompCH0_CMP_TRIM1_DIR;
 298:.\Generated_Source\PSoC5/CapSense_CSD_CompCH0.c ****             #endif /* CY_PSOC5A */
 299:.\Generated_Source\PSoC5/CapSense_CSD_CompCH0.c ****             
 300:.\Generated_Source\PSoC5/CapSense_CSD_CompCH0.c ****             /* PSoC3, PSoC5LP or later */
 301:.\Generated_Source\PSoC5/CapSense_CSD_CompCH0.c ****             #if (CY_PSOC3 || CY_PSOC5LP)
 302:.\Generated_Source\PSoC5/CapSense_CSD_CompCH0.c ****                 CapSense_CSD_CompCH0_TR0 |= CapSense_CSD_CompCH0_CMP_TR0_DIR;
  50              		.loc 1 302 0
  51 0012 174A     		ldr	r2, .L12+4
  52 0014 1378     		ldrb	r3, [r2]	@ zero_extendqisi2
  53 0016 43F01003 		orr	r3, r3, #16
  54 001a 1370     		strb	r3, [r2]
  55 001c 05E0     		b	.L3
  56              	.L2:
 303:.\Generated_Source\PSoC5/CapSense_CSD_CompCH0.c ****             #endif /* CY_PSOC3 || CY_PSOC5LP */
 304:.\Generated_Source\PSoC5/CapSense_CSD_CompCH0.c ****         }
 305:.\Generated_Source\PSoC5/CapSense_CSD_CompCH0.c ****     }
 306:.\Generated_Source\PSoC5/CapSense_CSD_CompCH0.c ****     else
 307:.\Generated_Source\PSoC5/CapSense_CSD_CompCH0.c ****     {
 308:.\Generated_Source\PSoC5/CapSense_CSD_CompCH0.c ****         /* if comparator output is low, positive offset adjust is required */
 309:.\Generated_Source\PSoC5/CapSense_CSD_CompCH0.c ****         if ( cmpState == 0u )
  57              		.loc 1 309 0
  58 001e 25B9     		cbnz	r5, .L3
 310:.\Generated_Source\PSoC5/CapSense_CSD_CompCH0.c ****         {
 311:.\Generated_Source\PSoC5/CapSense_CSD_CompCH0.c ****             /* PSoC5A */
 312:.\Generated_Source\PSoC5/CapSense_CSD_CompCH0.c ****             #if (CY_PSOC5A)
 313:.\Generated_Source\PSoC5/CapSense_CSD_CompCH0.c ****                 CapSense_CSD_CompCH0_TR |= CapSense_CSD_CompCH0_CMP_TRIM2_DIR; 
 314:.\Generated_Source\PSoC5/CapSense_CSD_CompCH0.c ****             #endif /* CY_PSOC5A */
 315:.\Generated_Source\PSoC5/CapSense_CSD_CompCH0.c ****             
 316:.\Generated_Source\PSoC5/CapSense_CSD_CompCH0.c ****             /* PSoC3, PSoC5LP or later */
 317:.\Generated_Source\PSoC5/CapSense_CSD_CompCH0.c ****             #if (CY_PSOC3 || CY_PSOC5LP)
 318:.\Generated_Source\PSoC5/CapSense_CSD_CompCH0.c ****                 CapSense_CSD_CompCH0_TR1 |= CapSense_CSD_CompCH0_CMP_TR1_DIR;
  59              		.loc 1 318 0
  60 0020 144A     		ldr	r2, .L12+8
  61 0022 1378     		ldrb	r3, [r2]	@ zero_extendqisi2
  62 0024 43F01003 		orr	r3, r3, #16
  63 0028 1370     		strb	r3, [r2]
  64              	.L3:
 319:.\Generated_Source\PSoC5/CapSense_CSD_CompCH0.c ****             #endif /* CY_PSOC3 || CY_PSOC5LP */
 320:.\Generated_Source\PSoC5/CapSense_CSD_CompCH0.c ****         }
 321:.\Generated_Source\PSoC5/CapSense_CSD_CompCH0.c ****     }
 322:.\Generated_Source\PSoC5/CapSense_CSD_CompCH0.c **** 
 323:.\Generated_Source\PSoC5/CapSense_CSD_CompCH0.c ****     /* Increment trim value until compare output changes state */
 324:.\Generated_Source\PSoC5/CapSense_CSD_CompCH0.c **** 	
 325:.\Generated_Source\PSoC5/CapSense_CSD_CompCH0.c ****     /* PSoC5A */
 326:.\Generated_Source\PSoC5/CapSense_CSD_CompCH0.c **** 	#if (CY_PSOC5A)
 327:.\Generated_Source\PSoC5/CapSense_CSD_CompCH0.c **** 	    trimCntMax = 7u;
 328:.\Generated_Source\PSoC5/CapSense_CSD_CompCH0.c ****     #endif
 329:.\Generated_Source\PSoC5/CapSense_CSD_CompCH0.c **** 	
 330:.\Generated_Source\PSoC5/CapSense_CSD_CompCH0.c **** 	/* PSoC3, PSoC5LP or later */
 331:.\Generated_Source\PSoC5/CapSense_CSD_CompCH0.c **** 	#if (CY_PSOC3 || CY_PSOC5LP)
 332:.\Generated_Source\PSoC5/CapSense_CSD_CompCH0.c ****     	if(nibble == 0u)
  65              		.loc 1 332 0
  66 002a 0EB9     		cbnz	r6, .L10
 333:.\Generated_Source\PSoC5/CapSense_CSD_CompCH0.c ****     	{
ARM GAS  C:\Users\LUKASC~1\AppData\Local\Temp\ccCyuhOb.s 			page 8


 334:.\Generated_Source\PSoC5/CapSense_CSD_CompCH0.c ****     		trimCntMax = 15u;
  67              		.loc 1 334 0
  68 002c 0F27     		movs	r7, #15
  69 002e 00E0     		b	.L4
  70              	.L10:
 335:.\Generated_Source\PSoC5/CapSense_CSD_CompCH0.c ****     	}
 336:.\Generated_Source\PSoC5/CapSense_CSD_CompCH0.c ****     	else
 337:.\Generated_Source\PSoC5/CapSense_CSD_CompCH0.c ****     	{
 338:.\Generated_Source\PSoC5/CapSense_CSD_CompCH0.c ****     		trimCntMax = 7u;
  71              		.loc 1 338 0
  72 0030 0727     		movs	r7, #7
  73              	.L4:
  74              	.LVL2:
 339:.\Generated_Source\PSoC5/CapSense_CSD_CompCH0.c ****     	}
 340:.\Generated_Source\PSoC5/CapSense_CSD_CompCH0.c **** 	#endif
 341:.\Generated_Source\PSoC5/CapSense_CSD_CompCH0.c **** 	
 342:.\Generated_Source\PSoC5/CapSense_CSD_CompCH0.c ****     for ( trimCnt = 0u; trimCnt < trimCntMax; trimCnt++ )
  75              		.loc 1 342 0
  76 0032 0024     		movs	r4, #0
  77 0034 17E0     		b	.L5
  78              	.LVL3:
  79              	.L9:
 343:.\Generated_Source\PSoC5/CapSense_CSD_CompCH0.c **** 	{
 344:.\Generated_Source\PSoC5/CapSense_CSD_CompCH0.c ****         if (nibble == 0u)
  80              		.loc 1 344 0
  81 0036 2EB9     		cbnz	r6, .L6
 345:.\Generated_Source\PSoC5/CapSense_CSD_CompCH0.c ****         {
 346:.\Generated_Source\PSoC5/CapSense_CSD_CompCH0.c ****             /* PSoC5A */
 347:.\Generated_Source\PSoC5/CapSense_CSD_CompCH0.c ****             #if (CY_PSOC5A)
 348:.\Generated_Source\PSoC5/CapSense_CSD_CompCH0.c ****                 CapSense_CSD_CompCH0_TR += 1u;
 349:.\Generated_Source\PSoC5/CapSense_CSD_CompCH0.c ****             #endif /* CY_PSOC5A */
 350:.\Generated_Source\PSoC5/CapSense_CSD_CompCH0.c ****             
 351:.\Generated_Source\PSoC5/CapSense_CSD_CompCH0.c ****             /* PSoC3, PSoC5LP or later */
 352:.\Generated_Source\PSoC5/CapSense_CSD_CompCH0.c ****             #if (CY_PSOC3 || CY_PSOC5LP)
 353:.\Generated_Source\PSoC5/CapSense_CSD_CompCH0.c ****                 CapSense_CSD_CompCH0_TR0 += 1u;
  82              		.loc 1 353 0
  83 0038 0D4A     		ldr	r2, .L12+4
  84 003a 1378     		ldrb	r3, [r2]	@ zero_extendqisi2
  85 003c 0133     		adds	r3, r3, #1
  86 003e DBB2     		uxtb	r3, r3
  87 0040 1370     		strb	r3, [r2]
  88 0042 04E0     		b	.L7
  89              	.L6:
 354:.\Generated_Source\PSoC5/CapSense_CSD_CompCH0.c ****             #endif /* CY_PSOC3 || CY_PSOC5LP */
 355:.\Generated_Source\PSoC5/CapSense_CSD_CompCH0.c ****         }
 356:.\Generated_Source\PSoC5/CapSense_CSD_CompCH0.c ****         else
 357:.\Generated_Source\PSoC5/CapSense_CSD_CompCH0.c ****         {
 358:.\Generated_Source\PSoC5/CapSense_CSD_CompCH0.c ****             /* PSoC5A */
 359:.\Generated_Source\PSoC5/CapSense_CSD_CompCH0.c ****             #if (CY_PSOC5A)
 360:.\Generated_Source\PSoC5/CapSense_CSD_CompCH0.c ****                 CapSense_CSD_CompCH0_TR += 0x10u;
 361:.\Generated_Source\PSoC5/CapSense_CSD_CompCH0.c ****             #endif /* CY_PSOC5A */
 362:.\Generated_Source\PSoC5/CapSense_CSD_CompCH0.c ****             
 363:.\Generated_Source\PSoC5/CapSense_CSD_CompCH0.c ****             /* PSoC3, PSoC5LP or later */
 364:.\Generated_Source\PSoC5/CapSense_CSD_CompCH0.c ****             #if (CY_PSOC3 || CY_PSOC5LP)
 365:.\Generated_Source\PSoC5/CapSense_CSD_CompCH0.c ****                 CapSense_CSD_CompCH0_TR1 += 1u;
  90              		.loc 1 365 0
  91 0044 0B4A     		ldr	r2, .L12+8
ARM GAS  C:\Users\LUKASC~1\AppData\Local\Temp\ccCyuhOb.s 			page 9


  92 0046 1378     		ldrb	r3, [r2]	@ zero_extendqisi2
  93 0048 0133     		adds	r3, r3, #1
  94 004a DBB2     		uxtb	r3, r3
  95 004c 1370     		strb	r3, [r2]
  96              	.L7:
 366:.\Generated_Source\PSoC5/CapSense_CSD_CompCH0.c ****             #endif /* CY_PSOC3 || CY_PSOC5LP */
 367:.\Generated_Source\PSoC5/CapSense_CSD_CompCH0.c ****         }
 368:.\Generated_Source\PSoC5/CapSense_CSD_CompCH0.c ****         
 369:.\Generated_Source\PSoC5/CapSense_CSD_CompCH0.c ****         CyDelayUs(10u);
  97              		.loc 1 369 0
  98 004e 0A20     		movs	r0, #10
  99 0050 FFF7FEFF 		bl	CyDelayUs
 100              	.LVL4:
 370:.\Generated_Source\PSoC5/CapSense_CSD_CompCH0.c ****         
 371:.\Generated_Source\PSoC5/CapSense_CSD_CompCH0.c ****         /* Check for change in comparator output */
 372:.\Generated_Source\PSoC5/CapSense_CSD_CompCH0.c ****         if ((CapSense_CSD_CompCH0_WRK & CapSense_CSD_CompCH0_CMP_OUT_MASK) != cmpState)
 101              		.loc 1 372 0
 102 0054 054B     		ldr	r3, .L12
 103 0056 1B78     		ldrb	r3, [r3]	@ zero_extendqisi2
 104 0058 03F00203 		and	r3, r3, #2
 105 005c DBB2     		uxtb	r3, r3
 106 005e AB42     		cmp	r3, r5
 107 0060 03D1     		bne	.L1
 342:.\Generated_Source\PSoC5/CapSense_CSD_CompCH0.c **** 	{
 108              		.loc 1 342 0 discriminator 2
 109 0062 0134     		adds	r4, r4, #1
 110              	.LVL5:
 111 0064 E4B2     		uxtb	r4, r4
 112              	.LVL6:
 113              	.L5:
 342:.\Generated_Source\PSoC5/CapSense_CSD_CompCH0.c **** 	{
 114              		.loc 1 342 0 is_stmt 0 discriminator 1
 115 0066 BC42     		cmp	r4, r7
 116 0068 E5D3     		bcc	.L9
 117              	.L1:
 118 006a F8BD     		pop	{r3, r4, r5, r6, r7, pc}
 119              	.LVL7:
 120              	.L13:
 121              		.align	2
 122              	.L12:
 123 006c 965B0040 		.word	1073765270
 124 0070 32460040 		.word	1073759794
 125 0074 33460040 		.word	1073759795
 126              		.cfi_endproc
 127              	.LFE6:
 128              		.size	CapSense_CSD_CompCH0_trimAdjust, .-CapSense_CSD_CompCH0_trimAdjust
 129              		.section	.text.CapSense_CSD_CompCH0_Enable,"ax",%progbits
 130              		.align	2
 131              		.global	CapSense_CSD_CompCH0_Enable
 132              		.thumb
 133              		.thumb_func
 134              		.type	CapSense_CSD_CompCH0_Enable, %function
 135              	CapSense_CSD_CompCH0_Enable:
 136              	.LFB1:
 100:.\Generated_Source\PSoC5/CapSense_CSD_CompCH0.c ****     CapSense_CSD_CompCH0_PWRMGR |= CapSense_CSD_CompCH0_ACT_PWR_EN;
 137              		.loc 1 100 0 is_stmt 1
 138              		.cfi_startproc
ARM GAS  C:\Users\LUKASC~1\AppData\Local\Temp\ccCyuhOb.s 			page 10


 139              		@ args = 0, pretend = 0, frame = 0
 140              		@ frame_needed = 0, uses_anonymous_args = 0
 141              		@ link register save eliminated.
 101:.\Generated_Source\PSoC5/CapSense_CSD_CompCH0.c ****     CapSense_CSD_CompCH0_STBY_PWRMGR |= CapSense_CSD_CompCH0_STBY_PWR_EN;
 142              		.loc 1 101 0
 143 0000 054A     		ldr	r2, .L15
 144 0002 1378     		ldrb	r3, [r2]	@ zero_extendqisi2
 145 0004 43F00203 		orr	r3, r3, #2
 146 0008 1370     		strb	r3, [r2]
 102:.\Generated_Source\PSoC5/CapSense_CSD_CompCH0.c ****      
 147              		.loc 1 102 0
 148 000a 1032     		adds	r2, r2, #16
 149 000c 1378     		ldrb	r3, [r2]	@ zero_extendqisi2
 150 000e 43F00203 		orr	r3, r3, #2
 151 0012 1370     		strb	r3, [r2]
 152 0014 7047     		bx	lr
 153              	.L16:
 154 0016 00BF     		.align	2
 155              	.L15:
 156 0018 A7430040 		.word	1073759143
 157              		.cfi_endproc
 158              	.LFE1:
 159              		.size	CapSense_CSD_CompCH0_Enable, .-CapSense_CSD_CompCH0_Enable
 160              		.section	.text.CapSense_CSD_CompCH0_Stop,"ax",%progbits
 161              		.align	2
 162              		.global	CapSense_CSD_CompCH0_Stop
 163              		.thumb
 164              		.thumb_func
 165              		.type	CapSense_CSD_CompCH0_Stop, %function
 166              	CapSense_CSD_CompCH0_Stop:
 167              	.LFB3:
 166:.\Generated_Source\PSoC5/CapSense_CSD_CompCH0.c ****     /* Disable power to comparator */
 168              		.loc 1 166 0
 169              		.cfi_startproc
 170              		@ args = 0, pretend = 0, frame = 0
 171              		@ frame_needed = 0, uses_anonymous_args = 0
 172              		@ link register save eliminated.
 168:.\Generated_Source\PSoC5/CapSense_CSD_CompCH0.c ****     CapSense_CSD_CompCH0_STBY_PWRMGR &= (uint8)(~CapSense_CSD_CompCH0_STBY_PWR_EN);
 173              		.loc 1 168 0
 174 0000 054A     		ldr	r2, .L18
 175 0002 1378     		ldrb	r3, [r2]	@ zero_extendqisi2
 176 0004 03F0FD03 		and	r3, r3, #253
 177 0008 1370     		strb	r3, [r2]
 169:.\Generated_Source\PSoC5/CapSense_CSD_CompCH0.c ****     
 178              		.loc 1 169 0
 179 000a 1032     		adds	r2, r2, #16
 180 000c 1378     		ldrb	r3, [r2]	@ zero_extendqisi2
 181 000e 03F0FD03 		and	r3, r3, #253
 182 0012 1370     		strb	r3, [r2]
 183 0014 7047     		bx	lr
 184              	.L19:
 185 0016 00BF     		.align	2
 186              	.L18:
 187 0018 A7430040 		.word	1073759143
 188              		.cfi_endproc
 189              	.LFE3:
 190              		.size	CapSense_CSD_CompCH0_Stop, .-CapSense_CSD_CompCH0_Stop
ARM GAS  C:\Users\LUKASC~1\AppData\Local\Temp\ccCyuhOb.s 			page 11


 191              		.section	.text.CapSense_CSD_CompCH0_SetSpeed,"ax",%progbits
 192              		.align	2
 193              		.global	CapSense_CSD_CompCH0_SetSpeed
 194              		.thumb
 195              		.thumb_func
 196              		.type	CapSense_CSD_CompCH0_SetSpeed, %function
 197              	CapSense_CSD_CompCH0_SetSpeed:
 198              	.LFB4:
 198:.\Generated_Source\PSoC5/CapSense_CSD_CompCH0.c ****     /* Clear and Set power level */    
 199              		.loc 1 198 0
 200              		.cfi_startproc
 201              		@ args = 0, pretend = 0, frame = 0
 202              		@ frame_needed = 0, uses_anonymous_args = 0
 203              		@ link register save eliminated.
 204              	.LVL8:
 200:.\Generated_Source\PSoC5/CapSense_CSD_CompCH0.c ****                            (speed & CapSense_CSD_CompCH0_PWR_MODE_MASK);
 205              		.loc 1 200 0
 206 0000 0F49     		ldr	r1, .L23
 207 0002 0B78     		ldrb	r3, [r1]	@ zero_extendqisi2
 208 0004 03F0FC02 		and	r2, r3, #252
 209 0008 00F00303 		and	r3, r0, #3
 210 000c 1343     		orrs	r3, r3, r2
 211 000e 0B70     		strb	r3, [r1]
 204:.\Generated_Source\PSoC5/CapSense_CSD_CompCH0.c ****     {
 212              		.loc 1 204 0
 213 0010 0128     		cmp	r0, #1
 214 0012 0AD1     		bne	.L21
 213:.\Generated_Source\PSoC5/CapSense_CSD_CompCH0.c ****             CapSense_CSD_CompCH0_TR1 = CapSense_CSD_CompCH0_HS_TRIM_TR1;
 215              		.loc 1 213 0
 216 0014 0B4B     		ldr	r3, .L23+4
 217 0016 1B78     		ldrb	r3, [r3]	@ zero_extendqisi2
 218 0018 DBB2     		uxtb	r3, r3
 219 001a 0B4A     		ldr	r2, .L23+8
 220 001c 1370     		strb	r3, [r2]
 214:.\Generated_Source\PSoC5/CapSense_CSD_CompCH0.c ****         #endif /* CY_PSOC3 || CY_PSOC5LP */
 221              		.loc 1 214 0
 222 001e 0B4B     		ldr	r3, .L23+12
 223 0020 1B78     		ldrb	r3, [r3]	@ zero_extendqisi2
 224 0022 DBB2     		uxtb	r3, r3
 225 0024 0132     		adds	r2, r2, #1
 226 0026 1370     		strb	r3, [r2]
 227 0028 7047     		bx	lr
 228              	.L21:
 226:.\Generated_Source\PSoC5/CapSense_CSD_CompCH0.c ****             CapSense_CSD_CompCH0_TR1 = CapSense_CSD_CompCH0_LS_TRIM_TR1;
 229              		.loc 1 226 0
 230 002a 094B     		ldr	r3, .L23+16
 231 002c 1B78     		ldrb	r3, [r3]	@ zero_extendqisi2
 232 002e DBB2     		uxtb	r3, r3
 233 0030 054A     		ldr	r2, .L23+8
 234 0032 1370     		strb	r3, [r2]
 227:.\Generated_Source\PSoC5/CapSense_CSD_CompCH0.c ****         #endif /* CY_PSOC3 || CY_PSOC5LP */
 235              		.loc 1 227 0
 236 0034 074B     		ldr	r3, .L23+20
 237 0036 1B78     		ldrb	r3, [r3]	@ zero_extendqisi2
 238 0038 DBB2     		uxtb	r3, r3
 239 003a 0132     		adds	r2, r2, #1
 240 003c 1370     		strb	r3, [r2]
ARM GAS  C:\Users\LUKASC~1\AppData\Local\Temp\ccCyuhOb.s 			page 12


 241 003e 7047     		bx	lr
 242              	.L24:
 243              		.align	2
 244              	.L23:
 245 0040 41580040 		.word	1073764417
 246 0044 11010049 		.word	1224737041
 247 0048 32460040 		.word	1073759794
 248 004c 15010049 		.word	1224737045
 249 0050 AF010049 		.word	1224737199
 250 0054 B7010049 		.word	1224737207
 251              		.cfi_endproc
 252              	.LFE4:
 253              		.size	CapSense_CSD_CompCH0_SetSpeed, .-CapSense_CSD_CompCH0_SetSpeed
 254              		.section	.text.CapSense_CSD_CompCH0_Init,"ax",%progbits
 255              		.align	2
 256              		.global	CapSense_CSD_CompCH0_Init
 257              		.thumb
 258              		.thumb_func
 259              		.type	CapSense_CSD_CompCH0_Init, %function
 260              	CapSense_CSD_CompCH0_Init:
 261              	.LFB0:
  52:.\Generated_Source\PSoC5/CapSense_CSD_CompCH0.c ****     /* Set default speed/power */
 262              		.loc 1 52 0
 263              		.cfi_startproc
 264              		@ args = 0, pretend = 0, frame = 0
 265              		@ frame_needed = 0, uses_anonymous_args = 0
 266 0000 08B5     		push	{r3, lr}
 267              		.cfi_def_cfa_offset 8
 268              		.cfi_offset 3, -8
 269              		.cfi_offset 14, -4
  54:.\Generated_Source\PSoC5/CapSense_CSD_CompCH0.c **** 
 270              		.loc 1 54 0
 271 0002 0020     		movs	r0, #0
 272 0004 FFF7FEFF 		bl	CapSense_CSD_CompCH0_SetSpeed
 273              	.LVL9:
  58:.\Generated_Source\PSoC5/CapSense_CSD_CompCH0.c ****     #else
 274              		.loc 1 58 0
 275 0008 0B4B     		ldr	r3, .L27
 276 000a 1A78     		ldrb	r2, [r3]	@ zero_extendqisi2
 277 000c 42F02002 		orr	r2, r2, #32
 278 0010 1A70     		strb	r2, [r3]
  66:.\Generated_Source\PSoC5/CapSense_CSD_CompCH0.c ****         #else 
 279              		.loc 1 66 0
 280 0012 1A78     		ldrb	r2, [r3]	@ zero_extendqisi2
 281 0014 02F0FB02 		and	r2, r2, #251
 282 0018 1A70     		strb	r2, [r3]
  73:.\Generated_Source\PSoC5/CapSense_CSD_CompCH0.c **** 
 283              		.loc 1 73 0
 284 001a 1A78     		ldrb	r2, [r3]	@ zero_extendqisi2
 285 001c 42F00802 		orr	r2, r2, #8
 286 0020 1A70     		strb	r2, [r3]
  76:.\Generated_Source\PSoC5/CapSense_CSD_CompCH0.c ****     #if ( CapSense_CSD_CompCH0_DEFAULT_BYPASS_SYNC == 0u )
 287              		.loc 1 76 0
 288 0022 03F28E23 		addw	r3, r3, #654
 289 0026 1A78     		ldrb	r2, [r3]	@ zero_extendqisi2
 290 0028 02F0E702 		and	r2, r2, #231
 291 002c 1A70     		strb	r2, [r3]
ARM GAS  C:\Users\LUKASC~1\AppData\Local\Temp\ccCyuhOb.s 			page 13


  80:.\Generated_Source\PSoC5/CapSense_CSD_CompCH0.c ****     #endif /* CapSense_CSD_CompCH0_DEFAULT_BYPASS_SYNC == 0u */
 292              		.loc 1 80 0
 293 002e 1A78     		ldrb	r2, [r3]	@ zero_extendqisi2
 294 0030 42F01002 		orr	r2, r2, #16
 295 0034 1A70     		strb	r2, [r3]
 296 0036 08BD     		pop	{r3, pc}
 297              	.L28:
 298              		.align	2
 299              	.L27:
 300 0038 41580040 		.word	1073764417
 301              		.cfi_endproc
 302              	.LFE0:
 303              		.size	CapSense_CSD_CompCH0_Init, .-CapSense_CSD_CompCH0_Init
 304              		.section	.text.CapSense_CSD_CompCH0_Start,"ax",%progbits
 305              		.align	2
 306              		.global	CapSense_CSD_CompCH0_Start
 307              		.thumb
 308              		.thumb_func
 309              		.type	CapSense_CSD_CompCH0_Start, %function
 310              	CapSense_CSD_CompCH0_Start:
 311              	.LFB2:
 137:.\Generated_Source\PSoC5/CapSense_CSD_CompCH0.c **** 
 312              		.loc 1 137 0
 313              		.cfi_startproc
 314              		@ args = 0, pretend = 0, frame = 0
 315              		@ frame_needed = 0, uses_anonymous_args = 0
 316 0000 08B5     		push	{r3, lr}
 317              		.cfi_def_cfa_offset 8
 318              		.cfi_offset 3, -8
 319              		.cfi_offset 14, -4
 139:.\Generated_Source\PSoC5/CapSense_CSD_CompCH0.c ****     {
 320              		.loc 1 139 0
 321 0002 054B     		ldr	r3, .L32
 322 0004 1B78     		ldrb	r3, [r3]	@ zero_extendqisi2
 323 0006 23B9     		cbnz	r3, .L30
 141:.\Generated_Source\PSoC5/CapSense_CSD_CompCH0.c ****         
 324              		.loc 1 141 0
 325 0008 FFF7FEFF 		bl	CapSense_CSD_CompCH0_Init
 326              	.LVL10:
 143:.\Generated_Source\PSoC5/CapSense_CSD_CompCH0.c ****     }   
 327              		.loc 1 143 0
 328 000c 0122     		movs	r2, #1
 329 000e 024B     		ldr	r3, .L32
 330 0010 1A70     		strb	r2, [r3]
 331              	.L30:
 147:.\Generated_Source\PSoC5/CapSense_CSD_CompCH0.c **** }
 332              		.loc 1 147 0
 333 0012 FFF7FEFF 		bl	CapSense_CSD_CompCH0_Enable
 334              	.LVL11:
 335 0016 08BD     		pop	{r3, pc}
 336              	.L33:
 337              		.align	2
 338              	.L32:
 339 0018 00000000 		.word	.LANCHOR0
 340              		.cfi_endproc
 341              	.LFE2:
 342              		.size	CapSense_CSD_CompCH0_Start, .-CapSense_CSD_CompCH0_Start
ARM GAS  C:\Users\LUKASC~1\AppData\Local\Temp\ccCyuhOb.s 			page 14


 343              		.section	.text.CapSense_CSD_CompCH0_GetCompare,"ax",%progbits
 344              		.align	2
 345              		.global	CapSense_CSD_CompCH0_GetCompare
 346              		.thumb
 347              		.thumb_func
 348              		.type	CapSense_CSD_CompCH0_GetCompare, %function
 349              	CapSense_CSD_CompCH0_GetCompare:
 350              	.LFB5:
 252:.\Generated_Source\PSoC5/CapSense_CSD_CompCH0.c ****     return( CapSense_CSD_CompCH0_WRK & CapSense_CSD_CompCH0_CMP_OUT_MASK);
 351              		.loc 1 252 0
 352              		.cfi_startproc
 353              		@ args = 0, pretend = 0, frame = 0
 354              		@ frame_needed = 0, uses_anonymous_args = 0
 355              		@ link register save eliminated.
 253:.\Generated_Source\PSoC5/CapSense_CSD_CompCH0.c **** }
 356              		.loc 1 253 0
 357 0000 024B     		ldr	r3, .L35
 358 0002 1878     		ldrb	r0, [r3]	@ zero_extendqisi2
 254:.\Generated_Source\PSoC5/CapSense_CSD_CompCH0.c **** 
 359              		.loc 1 254 0
 360 0004 00F00200 		and	r0, r0, #2
 361 0008 7047     		bx	lr
 362              	.L36:
 363 000a 00BF     		.align	2
 364              	.L35:
 365 000c 965B0040 		.word	1073765270
 366              		.cfi_endproc
 367              	.LFE5:
 368              		.size	CapSense_CSD_CompCH0_GetCompare, .-CapSense_CSD_CompCH0_GetCompare
 369              		.section	.text.CapSense_CSD_CompCH0_ZeroCal,"ax",%progbits
 370              		.align	2
 371              		.global	CapSense_CSD_CompCH0_ZeroCal
 372              		.thumb
 373              		.thumb_func
 374              		.type	CapSense_CSD_CompCH0_ZeroCal, %function
 375              	CapSense_CSD_CompCH0_ZeroCal:
 376              	.LFB7:
 373:.\Generated_Source\PSoC5/CapSense_CSD_CompCH0.c ****         {
 374:.\Generated_Source\PSoC5/CapSense_CSD_CompCH0.c ****             break;      /* output changed state, trim phase is complete */
 375:.\Generated_Source\PSoC5/CapSense_CSD_CompCH0.c ****         }        
 376:.\Generated_Source\PSoC5/CapSense_CSD_CompCH0.c ****     }    
 377:.\Generated_Source\PSoC5/CapSense_CSD_CompCH0.c **** }
 378:.\Generated_Source\PSoC5/CapSense_CSD_CompCH0.c **** 
 379:.\Generated_Source\PSoC5/CapSense_CSD_CompCH0.c **** 
 380:.\Generated_Source\PSoC5/CapSense_CSD_CompCH0.c **** /*******************************************************************************
 381:.\Generated_Source\PSoC5/CapSense_CSD_CompCH0.c **** * Function Name: CapSense_CSD_CompCH0_ZeroCal
 382:.\Generated_Source\PSoC5/CapSense_CSD_CompCH0.c **** ********************************************************************************
 383:.\Generated_Source\PSoC5/CapSense_CSD_CompCH0.c **** *
 384:.\Generated_Source\PSoC5/CapSense_CSD_CompCH0.c **** * Summary:
 385:.\Generated_Source\PSoC5/CapSense_CSD_CompCH0.c **** *  This function calibrates the offset of the Analog Comparator.
 386:.\Generated_Source\PSoC5/CapSense_CSD_CompCH0.c **** *
 387:.\Generated_Source\PSoC5/CapSense_CSD_CompCH0.c **** * Parameters:
 388:.\Generated_Source\PSoC5/CapSense_CSD_CompCH0.c **** *  None
 389:.\Generated_Source\PSoC5/CapSense_CSD_CompCH0.c **** *
 390:.\Generated_Source\PSoC5/CapSense_CSD_CompCH0.c **** * Return:
 391:.\Generated_Source\PSoC5/CapSense_CSD_CompCH0.c **** *  (uint16)  value written in trim register when calibration complete.
 392:.\Generated_Source\PSoC5/CapSense_CSD_CompCH0.c **** *
ARM GAS  C:\Users\LUKASC~1\AppData\Local\Temp\ccCyuhOb.s 			page 15


 393:.\Generated_Source\PSoC5/CapSense_CSD_CompCH0.c **** * Theory: 
 394:.\Generated_Source\PSoC5/CapSense_CSD_CompCH0.c **** *  This function is used to optimize the calibration for user specific voltage
 395:.\Generated_Source\PSoC5/CapSense_CSD_CompCH0.c **** *  range.  The comparator trim is adjusted to counter transistor offsets
 396:.\Generated_Source\PSoC5/CapSense_CSD_CompCH0.c **** *   - offset is defined as positive if the output transitions to high before inP
 397:.\Generated_Source\PSoC5/CapSense_CSD_CompCH0.c **** *     is greater than inN
 398:.\Generated_Source\PSoC5/CapSense_CSD_CompCH0.c **** *   - offset is defined as negative if the output transitions to high after inP
 399:.\Generated_Source\PSoC5/CapSense_CSD_CompCH0.c **** *     is greater than inP
 400:.\Generated_Source\PSoC5/CapSense_CSD_CompCH0.c **** *
 401:.\Generated_Source\PSoC5/CapSense_CSD_CompCH0.c **** *  PSoC5A
 402:.\Generated_Source\PSoC5/CapSense_CSD_CompCH0.c **** *  The Analog Comparator provides 1 byte for offset trim.  The byte contains two
 403:.\Generated_Source\PSoC5/CapSense_CSD_CompCH0.c **** *  4 bit trim fields - one is a course trim and the other allows smaller
 404:.\Generated_Source\PSoC5/CapSense_CSD_CompCH0.c **** *  offset adjustments only for slow modes.
 405:.\Generated_Source\PSoC5/CapSense_CSD_CompCH0.c **** *  - low nibble - fine trim
 406:.\Generated_Source\PSoC5/CapSense_CSD_CompCH0.c **** *  - high nibble - course trim
 407:.\Generated_Source\PSoC5/CapSense_CSD_CompCH0.c **** *  PSoC3, PSoC5LP or later
 408:.\Generated_Source\PSoC5/CapSense_CSD_CompCH0.c **** *  The Analog Comparator provides 2 bytes for offset trim.  The bytes contain two
 409:.\Generated_Source\PSoC5/CapSense_CSD_CompCH0.c **** *  5 bit trim fields - one is a course trim and the other allows smaller
 410:.\Generated_Source\PSoC5/CapSense_CSD_CompCH0.c **** *  offset adjustments only for slow modes.
 411:.\Generated_Source\PSoC5/CapSense_CSD_CompCH0.c **** *  - TR0 - fine trim
 412:.\Generated_Source\PSoC5/CapSense_CSD_CompCH0.c **** *  - TR1 - course trim
 413:.\Generated_Source\PSoC5/CapSense_CSD_CompCH0.c **** *
 414:.\Generated_Source\PSoC5/CapSense_CSD_CompCH0.c **** *  Trim algorithm is a two phase process
 415:.\Generated_Source\PSoC5/CapSense_CSD_CompCH0.c **** *  The first phase performs course offset adjustment
 416:.\Generated_Source\PSoC5/CapSense_CSD_CompCH0.c **** *  The second phase serves one of two purposes depending on the outcome of the
 417:.\Generated_Source\PSoC5/CapSense_CSD_CompCH0.c **** *  first phase
 418:.\Generated_Source\PSoC5/CapSense_CSD_CompCH0.c **** *  - if the first trim value was maxed out without a comparator output 
 419:.\Generated_Source\PSoC5/CapSense_CSD_CompCH0.c **** *    transition, more offset will be added by adjusting the second trim value.
 420:.\Generated_Source\PSoC5/CapSense_CSD_CompCH0.c **** *  - if the first trim phase resulted in a comparator output transition, the
 421:.\Generated_Source\PSoC5/CapSense_CSD_CompCH0.c **** *    second trim value will serve as fine trim (in the opposite direction)to
 422:.\Generated_Source\PSoC5/CapSense_CSD_CompCH0.c **** *    ensure the offset is < 1 mV.
 423:.\Generated_Source\PSoC5/CapSense_CSD_CompCH0.c **** *
 424:.\Generated_Source\PSoC5/CapSense_CSD_CompCH0.c **** * Trim Process:   
 425:.\Generated_Source\PSoC5/CapSense_CSD_CompCH0.c **** *  1) User applies a voltage to the negative input.  Voltage should be in the
 426:.\Generated_Source\PSoC5/CapSense_CSD_CompCH0.c **** *     comparator operating range or an average of the operating voltage range.
 427:.\Generated_Source\PSoC5/CapSense_CSD_CompCH0.c **** *  2) Clear registers associated with analog routing to the positive input.
 428:.\Generated_Source\PSoC5/CapSense_CSD_CompCH0.c **** *  3) Disable Hysteresis
 429:.\Generated_Source\PSoC5/CapSense_CSD_CompCH0.c **** *  4) Set the calibration bit to short the negative and positive inputs to
 430:.\Generated_Source\PSoC5/CapSense_CSD_CompCH0.c **** *     the users calibration voltage.
 431:.\Generated_Source\PSoC5/CapSense_CSD_CompCH0.c **** *  5) Clear the TR register  ( TR = 0x00 )
 432:.\Generated_Source\PSoC5/CapSense_CSD_CompCH0.c **** *  ** LOW MODES
 433:.\Generated_Source\PSoC5/CapSense_CSD_CompCH0.c **** *  6) Check if compare output is high, if so, set the MSb of course trim field 
 434:.\Generated_Source\PSoC5/CapSense_CSD_CompCH0.c **** *     to a 1.
 435:.\Generated_Source\PSoC5/CapSense_CSD_CompCH0.c **** *  7) Increment the course trim field until the compare output changes
 436:.\Generated_Source\PSoC5/CapSense_CSD_CompCH0.c **** *  8) Check if compare output is low, if so, set the MSb of fine trim field
 437:.\Generated_Source\PSoC5/CapSense_CSD_CompCH0.c **** *     to a 1.
 438:.\Generated_Source\PSoC5/CapSense_CSD_CompCH0.c **** *  9) Increment the fine trim field until the compare output changes
 439:.\Generated_Source\PSoC5/CapSense_CSD_CompCH0.c **** *  ** FAST MODE - skip the steps 8,9
 440:.\Generated_Source\PSoC5/CapSense_CSD_CompCH0.c **** *
 441:.\Generated_Source\PSoC5/CapSense_CSD_CompCH0.c **** * Side Effects:
 442:.\Generated_Source\PSoC5/CapSense_CSD_CompCH0.c **** *  Routine clears analog routing associated with the comparator positive input.  
 443:.\Generated_Source\PSoC5/CapSense_CSD_CompCH0.c **** *  This may affect routing of signals from other components that are connected
 444:.\Generated_Source\PSoC5/CapSense_CSD_CompCH0.c **** *  to the positive input of the comparator.
 445:.\Generated_Source\PSoC5/CapSense_CSD_CompCH0.c **** *
 446:.\Generated_Source\PSoC5/CapSense_CSD_CompCH0.c **** *******************************************************************************/
 447:.\Generated_Source\PSoC5/CapSense_CSD_CompCH0.c **** uint16 CapSense_CSD_CompCH0_ZeroCal(void) 
 448:.\Generated_Source\PSoC5/CapSense_CSD_CompCH0.c **** {
 377              		.loc 1 448 0
ARM GAS  C:\Users\LUKASC~1\AppData\Local\Temp\ccCyuhOb.s 			page 16


 378              		.cfi_startproc
 379              		@ args = 0, pretend = 0, frame = 0
 380              		@ frame_needed = 0, uses_anonymous_args = 0
 381 0000 F8B5     		push	{r3, r4, r5, r6, r7, lr}
 382              		.cfi_def_cfa_offset 24
 383              		.cfi_offset 3, -24
 384              		.cfi_offset 4, -20
 385              		.cfi_offset 5, -16
 386              		.cfi_offset 6, -12
 387              		.cfi_offset 7, -8
 388              		.cfi_offset 14, -4
 449:.\Generated_Source\PSoC5/CapSense_CSD_CompCH0.c ****     uint8 tmpSW0;
 450:.\Generated_Source\PSoC5/CapSense_CSD_CompCH0.c ****     uint8 tmpSW2;
 451:.\Generated_Source\PSoC5/CapSense_CSD_CompCH0.c ****     uint8 tmpSW3;
 452:.\Generated_Source\PSoC5/CapSense_CSD_CompCH0.c ****     uint8 tmpCR;
 453:.\Generated_Source\PSoC5/CapSense_CSD_CompCH0.c **** 
 454:.\Generated_Source\PSoC5/CapSense_CSD_CompCH0.c ****     /* Save a copy of routing registers associated with inP */
 455:.\Generated_Source\PSoC5/CapSense_CSD_CompCH0.c ****     tmpSW0 = CapSense_CSD_CompCH0_SW0;
 389              		.loc 1 455 0
 390 0002 1E48     		ldr	r0, .L41
 391 0004 0678     		ldrb	r6, [r0]	@ zero_extendqisi2
 392 0006 F6B2     		uxtb	r6, r6
 393              	.LVL12:
 456:.\Generated_Source\PSoC5/CapSense_CSD_CompCH0.c ****     tmpSW2 = CapSense_CSD_CompCH0_SW2;
 394              		.loc 1 456 0
 395 0008 1D49     		ldr	r1, .L41+4
 396 000a 0D78     		ldrb	r5, [r1]	@ zero_extendqisi2
 397 000c EDB2     		uxtb	r5, r5
 398              	.LVL13:
 457:.\Generated_Source\PSoC5/CapSense_CSD_CompCH0.c ****     tmpSW3 = CapSense_CSD_CompCH0_SW3;
 399              		.loc 1 457 0
 400 000e 1D4B     		ldr	r3, .L41+8
 401 0010 1C78     		ldrb	r4, [r3]	@ zero_extendqisi2
 402 0012 E4B2     		uxtb	r4, r4
 403              	.LVL14:
 458:.\Generated_Source\PSoC5/CapSense_CSD_CompCH0.c **** 
 459:.\Generated_Source\PSoC5/CapSense_CSD_CompCH0.c ****      /* Clear routing for inP, retain routing for inN */
 460:.\Generated_Source\PSoC5/CapSense_CSD_CompCH0.c ****     CapSense_CSD_CompCH0_SW0 = 0x00u;
 404              		.loc 1 460 0
 405 0014 0022     		movs	r2, #0
 406 0016 0270     		strb	r2, [r0]
 461:.\Generated_Source\PSoC5/CapSense_CSD_CompCH0.c ****     CapSense_CSD_CompCH0_SW2 = 0x00u;
 407              		.loc 1 461 0
 408 0018 0A70     		strb	r2, [r1]
 462:.\Generated_Source\PSoC5/CapSense_CSD_CompCH0.c ****     CapSense_CSD_CompCH0_SW3 = tmpSW3 & (uint8)(~CapSense_CSD_CompCH0_CMP_SW3_INPCTL_MASK);
 409              		.loc 1 462 0
 410 001a 04F0F601 		and	r1, r4, #246
 411 001e 1970     		strb	r1, [r3]
 463:.\Generated_Source\PSoC5/CapSense_CSD_CompCH0.c **** 
 464:.\Generated_Source\PSoC5/CapSense_CSD_CompCH0.c ****     /* Preserve original configuration
 465:.\Generated_Source\PSoC5/CapSense_CSD_CompCH0.c ****      * - turn off Hysteresis
 466:.\Generated_Source\PSoC5/CapSense_CSD_CompCH0.c ****      * - set calibration bit - shorts inN to inP
 467:.\Generated_Source\PSoC5/CapSense_CSD_CompCH0.c ****     */
 468:.\Generated_Source\PSoC5/CapSense_CSD_CompCH0.c ****     tmpCR = CapSense_CSD_CompCH0_CR;
 412              		.loc 1 468 0
 413 0020 A3F28A23 		subw	r3, r3, #650
 414 0024 1F78     		ldrb	r7, [r3]	@ zero_extendqisi2
ARM GAS  C:\Users\LUKASC~1\AppData\Local\Temp\ccCyuhOb.s 			page 17


 415 0026 FFB2     		uxtb	r7, r7
 416              	.LVL15:
 469:.\Generated_Source\PSoC5/CapSense_CSD_CompCH0.c ****     CapSense_CSD_CompCH0_CR |= (CapSense_CSD_CompCH0_CAL_ON | CapSense_CSD_CompCH0_HYST_OFF);
 417              		.loc 1 469 0
 418 0028 1978     		ldrb	r1, [r3]	@ zero_extendqisi2
 419 002a 41F03001 		orr	r1, r1, #48
 420 002e 1970     		strb	r1, [r3]
 470:.\Generated_Source\PSoC5/CapSense_CSD_CompCH0.c ****     
 471:.\Generated_Source\PSoC5/CapSense_CSD_CompCH0.c ****     /* Write default low values to trim register - no offset adjust */
 472:.\Generated_Source\PSoC5/CapSense_CSD_CompCH0.c ****     /* PSoC5A */
 473:.\Generated_Source\PSoC5/CapSense_CSD_CompCH0.c ****     #if (CY_PSOC5A)
 474:.\Generated_Source\PSoC5/CapSense_CSD_CompCH0.c ****         CapSense_CSD_CompCH0_TR = CapSense_CSD_CompCH0_DEFAULT_CMP_TRIM;
 475:.\Generated_Source\PSoC5/CapSense_CSD_CompCH0.c ****     #endif /* CY_PSOC5A */
 476:.\Generated_Source\PSoC5/CapSense_CSD_CompCH0.c ****     
 477:.\Generated_Source\PSoC5/CapSense_CSD_CompCH0.c ****     /* PSoC3, PSoC5LP or later */
 478:.\Generated_Source\PSoC5/CapSense_CSD_CompCH0.c ****     #if (CY_PSOC3 || CY_PSOC5LP)
 479:.\Generated_Source\PSoC5/CapSense_CSD_CompCH0.c ****         CapSense_CSD_CompCH0_TR0 = CapSense_CSD_CompCH0_DEFAULT_CMP_TRIM;
 421              		.loc 1 479 0
 422 0030 1549     		ldr	r1, .L41+12
 423 0032 0A70     		strb	r2, [r1]
 480:.\Generated_Source\PSoC5/CapSense_CSD_CompCH0.c ****         CapSense_CSD_CompCH0_TR1 = CapSense_CSD_CompCH0_DEFAULT_CMP_TRIM;
 424              		.loc 1 480 0
 425 0034 0131     		adds	r1, r1, #1
 426 0036 0A70     		strb	r2, [r1]
 481:.\Generated_Source\PSoC5/CapSense_CSD_CompCH0.c ****     #endif /* CY_PSOC3 || CY_PSOC5LP */
 482:.\Generated_Source\PSoC5/CapSense_CSD_CompCH0.c **** 	
 483:.\Generated_Source\PSoC5/CapSense_CSD_CompCH0.c **** 	/* Two phase trim - slow modes, one phase trim - for fast */ 
 484:.\Generated_Source\PSoC5/CapSense_CSD_CompCH0.c ****     if ( (CapSense_CSD_CompCH0_CR & CapSense_CSD_CompCH0_PWR_MODE_MASK) == CapSense_CSD_CompCH0_PWR
 427              		.loc 1 484 0
 428 0038 1B78     		ldrb	r3, [r3]	@ zero_extendqisi2
 429 003a 03F00303 		and	r3, r3, #3
 430 003e 012B     		cmp	r3, #1
 431 0040 03D1     		bne	.L38
 485:.\Generated_Source\PSoC5/CapSense_CSD_CompCH0.c ****     {
 486:.\Generated_Source\PSoC5/CapSense_CSD_CompCH0.c ****         CapSense_CSD_CompCH0_trimAdjust(0u);
 432              		.loc 1 486 0
 433 0042 1046     		mov	r0, r2
 434 0044 FFF7FEFF 		bl	CapSense_CSD_CompCH0_trimAdjust
 435              	.LVL16:
 436 0048 05E0     		b	.L39
 437              	.L38:
 487:.\Generated_Source\PSoC5/CapSense_CSD_CompCH0.c ****     }
 488:.\Generated_Source\PSoC5/CapSense_CSD_CompCH0.c ****     else /* default to trim for fast modes */
 489:.\Generated_Source\PSoC5/CapSense_CSD_CompCH0.c ****     {
 490:.\Generated_Source\PSoC5/CapSense_CSD_CompCH0.c ****         CapSense_CSD_CompCH0_trimAdjust(1u);
 438              		.loc 1 490 0
 439 004a 0120     		movs	r0, #1
 440 004c FFF7FEFF 		bl	CapSense_CSD_CompCH0_trimAdjust
 441              	.LVL17:
 491:.\Generated_Source\PSoC5/CapSense_CSD_CompCH0.c **** 		CapSense_CSD_CompCH0_trimAdjust(0u);
 442              		.loc 1 491 0
 443 0050 0020     		movs	r0, #0
 444 0052 FFF7FEFF 		bl	CapSense_CSD_CompCH0_trimAdjust
 445              	.LVL18:
 446              	.L39:
 492:.\Generated_Source\PSoC5/CapSense_CSD_CompCH0.c ****     }
 493:.\Generated_Source\PSoC5/CapSense_CSD_CompCH0.c ****    
ARM GAS  C:\Users\LUKASC~1\AppData\Local\Temp\ccCyuhOb.s 			page 18


 494:.\Generated_Source\PSoC5/CapSense_CSD_CompCH0.c ****     /* Restore Config Register */
 495:.\Generated_Source\PSoC5/CapSense_CSD_CompCH0.c ****     CapSense_CSD_CompCH0_CR = tmpCR;
 447              		.loc 1 495 0
 448 0056 0D4B     		ldr	r3, .L41+16
 449 0058 1F70     		strb	r7, [r3]
 496:.\Generated_Source\PSoC5/CapSense_CSD_CompCH0.c ****     
 497:.\Generated_Source\PSoC5/CapSense_CSD_CompCH0.c ****     /* Restore routing registers for inP */
 498:.\Generated_Source\PSoC5/CapSense_CSD_CompCH0.c ****     CapSense_CSD_CompCH0_SW0 = tmpSW0;
 450              		.loc 1 498 0
 451 005a 03F28723 		addw	r3, r3, #647
 452 005e 1E70     		strb	r6, [r3]
 499:.\Generated_Source\PSoC5/CapSense_CSD_CompCH0.c ****     CapSense_CSD_CompCH0_SW2 = tmpSW2;
 453              		.loc 1 499 0
 454 0060 0233     		adds	r3, r3, #2
 455 0062 1D70     		strb	r5, [r3]
 500:.\Generated_Source\PSoC5/CapSense_CSD_CompCH0.c ****     CapSense_CSD_CompCH0_SW3 = tmpSW3;
 456              		.loc 1 500 0
 457 0064 0133     		adds	r3, r3, #1
 458 0066 1C70     		strb	r4, [r3]
 501:.\Generated_Source\PSoC5/CapSense_CSD_CompCH0.c ****     
 502:.\Generated_Source\PSoC5/CapSense_CSD_CompCH0.c ****     /* PSoC5A */
 503:.\Generated_Source\PSoC5/CapSense_CSD_CompCH0.c ****     #if (CY_PSOC5A)
 504:.\Generated_Source\PSoC5/CapSense_CSD_CompCH0.c ****         return (uint16) CapSense_CSD_CompCH0_TR;
 505:.\Generated_Source\PSoC5/CapSense_CSD_CompCH0.c ****     #endif /* CY_PSOC5A */
 506:.\Generated_Source\PSoC5/CapSense_CSD_CompCH0.c ****     
 507:.\Generated_Source\PSoC5/CapSense_CSD_CompCH0.c ****     /* PSoC3, PSoC5LP or later */
 508:.\Generated_Source\PSoC5/CapSense_CSD_CompCH0.c ****     #if (CY_PSOC3 || CY_PSOC5LP)
 509:.\Generated_Source\PSoC5/CapSense_CSD_CompCH0.c ****         return ((uint16)((uint16)CapSense_CSD_CompCH0_TR1 << 8u) | (CapSense_CSD_CompCH0_TR0));    
 459              		.loc 1 509 0
 460 0068 A3F5A453 		sub	r3, r3, #5248
 461 006c 183B     		subs	r3, r3, #24
 462 006e 1878     		ldrb	r0, [r3]	@ zero_extendqisi2
 463 0070 013B     		subs	r3, r3, #1
 464 0072 1B78     		ldrb	r3, [r3]	@ zero_extendqisi2
 510:.\Generated_Source\PSoC5/CapSense_CSD_CompCH0.c ****     #endif /* CY_PSOC3 || CY_PSOC5LP */
 511:.\Generated_Source\PSoC5/CapSense_CSD_CompCH0.c **** }
 465              		.loc 1 511 0
 466 0074 43EA0020 		orr	r0, r3, r0, lsl #8
 467 0078 F8BD     		pop	{r3, r4, r5, r6, r7, pc}
 468              	.LVL19:
 469              	.L42:
 470 007a 00BF     		.align	2
 471              	.L41:
 472 007c C85A0040 		.word	1073765064
 473 0080 CA5A0040 		.word	1073765066
 474 0084 CB5A0040 		.word	1073765067
 475 0088 32460040 		.word	1073759794
 476 008c 41580040 		.word	1073764417
 477              		.cfi_endproc
 478              	.LFE7:
 479              		.size	CapSense_CSD_CompCH0_ZeroCal, .-CapSense_CSD_CompCH0_ZeroCal
 480              		.section	.text.CapSense_CSD_CompCH0_LoadTrim,"ax",%progbits
 481              		.align	2
 482              		.global	CapSense_CSD_CompCH0_LoadTrim
 483              		.thumb
 484              		.thumb_func
 485              		.type	CapSense_CSD_CompCH0_LoadTrim, %function
ARM GAS  C:\Users\LUKASC~1\AppData\Local\Temp\ccCyuhOb.s 			page 19


 486              	CapSense_CSD_CompCH0_LoadTrim:
 487              	.LFB8:
 512:.\Generated_Source\PSoC5/CapSense_CSD_CompCH0.c **** 
 513:.\Generated_Source\PSoC5/CapSense_CSD_CompCH0.c **** 
 514:.\Generated_Source\PSoC5/CapSense_CSD_CompCH0.c **** /*******************************************************************************
 515:.\Generated_Source\PSoC5/CapSense_CSD_CompCH0.c **** * Function Name: CapSense_CSD_CompCH0_LoadTrim
 516:.\Generated_Source\PSoC5/CapSense_CSD_CompCH0.c **** ********************************************************************************
 517:.\Generated_Source\PSoC5/CapSense_CSD_CompCH0.c **** *
 518:.\Generated_Source\PSoC5/CapSense_CSD_CompCH0.c **** * Summary:
 519:.\Generated_Source\PSoC5/CapSense_CSD_CompCH0.c **** *  This function stores a value in the Analog Comparator trim register.
 520:.\Generated_Source\PSoC5/CapSense_CSD_CompCH0.c **** *
 521:.\Generated_Source\PSoC5/CapSense_CSD_CompCH0.c **** * Parameters:  
 522:.\Generated_Source\PSoC5/CapSense_CSD_CompCH0.c **** *  uint8 trimVal - trim value.  This value is the same format as the value 
 523:.\Generated_Source\PSoC5/CapSense_CSD_CompCH0.c **** *  returned by the _ZeroCal routine.
 524:.\Generated_Source\PSoC5/CapSense_CSD_CompCH0.c **** *
 525:.\Generated_Source\PSoC5/CapSense_CSD_CompCH0.c **** * Return:
 526:.\Generated_Source\PSoC5/CapSense_CSD_CompCH0.c **** *  None
 527:.\Generated_Source\PSoC5/CapSense_CSD_CompCH0.c **** *
 528:.\Generated_Source\PSoC5/CapSense_CSD_CompCH0.c **** *******************************************************************************/
 529:.\Generated_Source\PSoC5/CapSense_CSD_CompCH0.c **** void CapSense_CSD_CompCH0_LoadTrim(uint16 trimVal) 
 530:.\Generated_Source\PSoC5/CapSense_CSD_CompCH0.c **** {
 488              		.loc 1 530 0
 489              		.cfi_startproc
 490              		@ args = 0, pretend = 0, frame = 0
 491              		@ frame_needed = 0, uses_anonymous_args = 0
 492              		@ link register save eliminated.
 493              	.LVL20:
 531:.\Generated_Source\PSoC5/CapSense_CSD_CompCH0.c ****     /* Stores value in the Analog Comparator trim register */
 532:.\Generated_Source\PSoC5/CapSense_CSD_CompCH0.c ****     /* PSoC5A */
 533:.\Generated_Source\PSoC5/CapSense_CSD_CompCH0.c ****     #if (CY_PSOC5A)
 534:.\Generated_Source\PSoC5/CapSense_CSD_CompCH0.c ****         CapSense_CSD_CompCH0_TR = (uint8) trimVal;
 535:.\Generated_Source\PSoC5/CapSense_CSD_CompCH0.c ****     #endif /* CY_PSOC5A */
 536:.\Generated_Source\PSoC5/CapSense_CSD_CompCH0.c ****     
 537:.\Generated_Source\PSoC5/CapSense_CSD_CompCH0.c ****     /* PSoC3, PSoC5LP or later */
 538:.\Generated_Source\PSoC5/CapSense_CSD_CompCH0.c ****     #if (CY_PSOC3 || CY_PSOC5LP)
 539:.\Generated_Source\PSoC5/CapSense_CSD_CompCH0.c ****         /* Stores value in the Analog Comparator trim register for P-type load */
 540:.\Generated_Source\PSoC5/CapSense_CSD_CompCH0.c ****         CapSense_CSD_CompCH0_TR0 = (uint8) trimVal;
 494              		.loc 1 540 0
 495 0000 C2B2     		uxtb	r2, r0
 496 0002 034B     		ldr	r3, .L44
 497 0004 1A70     		strb	r2, [r3]
 541:.\Generated_Source\PSoC5/CapSense_CSD_CompCH0.c ****         
 542:.\Generated_Source\PSoC5/CapSense_CSD_CompCH0.c ****         /* Stores value in the Analog Comparator trim register for N-type load */
 543:.\Generated_Source\PSoC5/CapSense_CSD_CompCH0.c ****         CapSense_CSD_CompCH0_TR1 = (uint8) (trimVal >> 8); 
 498              		.loc 1 543 0
 499 0006 000A     		lsrs	r0, r0, #8
 500              	.LVL21:
 501 0008 0133     		adds	r3, r3, #1
 502 000a 1870     		strb	r0, [r3]
 503 000c 7047     		bx	lr
 504              	.L45:
 505 000e 00BF     		.align	2
 506              	.L44:
 507 0010 32460040 		.word	1073759794
 508              		.cfi_endproc
 509              	.LFE8:
 510              		.size	CapSense_CSD_CompCH0_LoadTrim, .-CapSense_CSD_CompCH0_LoadTrim
ARM GAS  C:\Users\LUKASC~1\AppData\Local\Temp\ccCyuhOb.s 			page 20


 511              		.section	.text.CapSense_CSD_CompCH0_PwrDwnOverrideEnable,"ax",%progbits
 512              		.align	2
 513              		.global	CapSense_CSD_CompCH0_PwrDwnOverrideEnable
 514              		.thumb
 515              		.thumb_func
 516              		.type	CapSense_CSD_CompCH0_PwrDwnOverrideEnable, %function
 517              	CapSense_CSD_CompCH0_PwrDwnOverrideEnable:
 518              	.LFB9:
 544:.\Generated_Source\PSoC5/CapSense_CSD_CompCH0.c ****     #endif /* CY_PSOC3 || CY_PSOC5LP */
 545:.\Generated_Source\PSoC5/CapSense_CSD_CompCH0.c **** }
 546:.\Generated_Source\PSoC5/CapSense_CSD_CompCH0.c **** 
 547:.\Generated_Source\PSoC5/CapSense_CSD_CompCH0.c **** 
 548:.\Generated_Source\PSoC5/CapSense_CSD_CompCH0.c **** #if (CY_PSOC3 || CY_PSOC5LP)
 549:.\Generated_Source\PSoC5/CapSense_CSD_CompCH0.c **** 
 550:.\Generated_Source\PSoC5/CapSense_CSD_CompCH0.c ****     /*******************************************************************************
 551:.\Generated_Source\PSoC5/CapSense_CSD_CompCH0.c ****     * Function Name: CapSense_CSD_CompCH0_PwrDwnOverrideEnable
 552:.\Generated_Source\PSoC5/CapSense_CSD_CompCH0.c ****     ********************************************************************************
 553:.\Generated_Source\PSoC5/CapSense_CSD_CompCH0.c ****     *
 554:.\Generated_Source\PSoC5/CapSense_CSD_CompCH0.c ****     * Summary:
 555:.\Generated_Source\PSoC5/CapSense_CSD_CompCH0.c ****     *  This is the power down over-ride feature. This function ignores sleep 
 556:.\Generated_Source\PSoC5/CapSense_CSD_CompCH0.c ****     *  parameter and allows the component to stay active during sleep mode.
 557:.\Generated_Source\PSoC5/CapSense_CSD_CompCH0.c ****     *
 558:.\Generated_Source\PSoC5/CapSense_CSD_CompCH0.c ****     * Parameters:
 559:.\Generated_Source\PSoC5/CapSense_CSD_CompCH0.c ****     *  None
 560:.\Generated_Source\PSoC5/CapSense_CSD_CompCH0.c ****     *
 561:.\Generated_Source\PSoC5/CapSense_CSD_CompCH0.c ****     * Return:
 562:.\Generated_Source\PSoC5/CapSense_CSD_CompCH0.c ****     *  None
 563:.\Generated_Source\PSoC5/CapSense_CSD_CompCH0.c ****     *
 564:.\Generated_Source\PSoC5/CapSense_CSD_CompCH0.c ****     *******************************************************************************/
 565:.\Generated_Source\PSoC5/CapSense_CSD_CompCH0.c ****     void CapSense_CSD_CompCH0_PwrDwnOverrideEnable(void) 
 566:.\Generated_Source\PSoC5/CapSense_CSD_CompCH0.c ****     {
 519              		.loc 1 566 0
 520              		.cfi_startproc
 521              		@ args = 0, pretend = 0, frame = 0
 522              		@ frame_needed = 0, uses_anonymous_args = 0
 523              		@ link register save eliminated.
 567:.\Generated_Source\PSoC5/CapSense_CSD_CompCH0.c ****         /* Set the pd_override bit in CMP_CR register */
 568:.\Generated_Source\PSoC5/CapSense_CSD_CompCH0.c ****         CapSense_CSD_CompCH0_CR |= CapSense_CSD_CompCH0_PWRDWN_OVRD;
 524              		.loc 1 568 0
 525 0000 024A     		ldr	r2, .L47
 526 0002 1378     		ldrb	r3, [r2]	@ zero_extendqisi2
 527 0004 43F00403 		orr	r3, r3, #4
 528 0008 1370     		strb	r3, [r2]
 529 000a 7047     		bx	lr
 530              	.L48:
 531              		.align	2
 532              	.L47:
 533 000c 41580040 		.word	1073764417
 534              		.cfi_endproc
 535              	.LFE9:
 536              		.size	CapSense_CSD_CompCH0_PwrDwnOverrideEnable, .-CapSense_CSD_CompCH0_PwrDwnOverrideEnable
 537              		.section	.text.CapSense_CSD_CompCH0_PwrDwnOverrideDisable,"ax",%progbits
 538              		.align	2
 539              		.global	CapSense_CSD_CompCH0_PwrDwnOverrideDisable
 540              		.thumb
 541              		.thumb_func
 542              		.type	CapSense_CSD_CompCH0_PwrDwnOverrideDisable, %function
ARM GAS  C:\Users\LUKASC~1\AppData\Local\Temp\ccCyuhOb.s 			page 21


 543              	CapSense_CSD_CompCH0_PwrDwnOverrideDisable:
 544              	.LFB10:
 569:.\Generated_Source\PSoC5/CapSense_CSD_CompCH0.c ****     }
 570:.\Generated_Source\PSoC5/CapSense_CSD_CompCH0.c **** 
 571:.\Generated_Source\PSoC5/CapSense_CSD_CompCH0.c **** 
 572:.\Generated_Source\PSoC5/CapSense_CSD_CompCH0.c ****     /*******************************************************************************
 573:.\Generated_Source\PSoC5/CapSense_CSD_CompCH0.c ****     * Function Name: CapSense_CSD_CompCH0_PwrDwnOverrideDisable
 574:.\Generated_Source\PSoC5/CapSense_CSD_CompCH0.c ****     ********************************************************************************
 575:.\Generated_Source\PSoC5/CapSense_CSD_CompCH0.c ****     *
 576:.\Generated_Source\PSoC5/CapSense_CSD_CompCH0.c ****     * Summary:
 577:.\Generated_Source\PSoC5/CapSense_CSD_CompCH0.c ****     *  This is the power down over-ride feature. This allows the component to stay
 578:.\Generated_Source\PSoC5/CapSense_CSD_CompCH0.c ****     *  inactive during sleep.
 579:.\Generated_Source\PSoC5/CapSense_CSD_CompCH0.c ****     *
 580:.\Generated_Source\PSoC5/CapSense_CSD_CompCH0.c ****     * Parameters:
 581:.\Generated_Source\PSoC5/CapSense_CSD_CompCH0.c ****     *  None
 582:.\Generated_Source\PSoC5/CapSense_CSD_CompCH0.c ****     *
 583:.\Generated_Source\PSoC5/CapSense_CSD_CompCH0.c ****     * Return:
 584:.\Generated_Source\PSoC5/CapSense_CSD_CompCH0.c ****     *  None
 585:.\Generated_Source\PSoC5/CapSense_CSD_CompCH0.c ****     *
 586:.\Generated_Source\PSoC5/CapSense_CSD_CompCH0.c ****     *******************************************************************************/
 587:.\Generated_Source\PSoC5/CapSense_CSD_CompCH0.c ****     void CapSense_CSD_CompCH0_PwrDwnOverrideDisable(void) 
 588:.\Generated_Source\PSoC5/CapSense_CSD_CompCH0.c ****     {
 545              		.loc 1 588 0
 546              		.cfi_startproc
 547              		@ args = 0, pretend = 0, frame = 0
 548              		@ frame_needed = 0, uses_anonymous_args = 0
 549              		@ link register save eliminated.
 589:.\Generated_Source\PSoC5/CapSense_CSD_CompCH0.c ****         /* Reset the pd_override bit in CMP_CR register */
 590:.\Generated_Source\PSoC5/CapSense_CSD_CompCH0.c ****         CapSense_CSD_CompCH0_CR &= (uint8)(~CapSense_CSD_CompCH0_PWRDWN_OVRD);
 550              		.loc 1 590 0
 551 0000 024A     		ldr	r2, .L50
 552 0002 1378     		ldrb	r3, [r2]	@ zero_extendqisi2
 553 0004 03F0FB03 		and	r3, r3, #251
 554 0008 1370     		strb	r3, [r2]
 555 000a 7047     		bx	lr
 556              	.L51:
 557              		.align	2
 558              	.L50:
 559 000c 41580040 		.word	1073764417
 560              		.cfi_endproc
 561              	.LFE10:
 562              		.size	CapSense_CSD_CompCH0_PwrDwnOverrideDisable, .-CapSense_CSD_CompCH0_PwrDwnOverrideDisable
 563              		.global	CapSense_CSD_CompCH0_initVar
 564              		.bss
 565              		.set	.LANCHOR0,. + 0
 566              		.type	CapSense_CSD_CompCH0_initVar, %object
 567              		.size	CapSense_CSD_CompCH0_initVar, 1
 568              	CapSense_CSD_CompCH0_initVar:
 569 0000 00       		.space	1
 570              		.text
 571              	.Letext0:
 572              		.file 2 ".\\Generated_Source\\PSoC5\\cytypes.h"
 573              		.file 3 ".\\Generated_Source\\PSoC5\\CyLib.h"