ARM GAS  C:\Users\LUKASC~1\AppData\Local\Temp\ccRRIPkh.s 			page 1


   1              		.syntax unified
   2              		.cpu cortex-m3
   3              		.fpu softvfp
   4              		.eabi_attribute 20, 1
   5              		.eabi_attribute 21, 1
   6              		.eabi_attribute 23, 3
   7              		.eabi_attribute 24, 1
   8              		.eabi_attribute 25, 1
   9              		.eabi_attribute 26, 1
  10              		.eabi_attribute 30, 1
  11              		.eabi_attribute 34, 1
  12              		.eabi_attribute 18, 4
  13              		.thumb
  14              		.file	"CapSense_CSD_IdacCH0.c"
  15              		.text
  16              	.Ltext0:
  17              		.cfi_sections	.debug_frame
  18              		.section	.text.CapSense_CSD_IdacCH0_Enable,"ax",%progbits
  19              		.align	2
  20              		.global	CapSense_CSD_IdacCH0_Enable
  21              		.thumb
  22              		.thumb_func
  23              		.type	CapSense_CSD_IdacCH0_Enable, %function
  24              	CapSense_CSD_IdacCH0_Enable:
  25              	.LFB1:
  26              		.file 1 ".\\Generated_Source\\PSoC5\\CapSense_CSD_IdacCH0.c"
   1:.\Generated_Source\PSoC5/CapSense_CSD_IdacCH0.c **** /*******************************************************************************
   2:.\Generated_Source\PSoC5/CapSense_CSD_IdacCH0.c **** * File Name: CapSense_CSD_IdacCH0.c
   3:.\Generated_Source\PSoC5/CapSense_CSD_IdacCH0.c **** * Version 2.0
   4:.\Generated_Source\PSoC5/CapSense_CSD_IdacCH0.c **** *
   5:.\Generated_Source\PSoC5/CapSense_CSD_IdacCH0.c **** * Description:
   6:.\Generated_Source\PSoC5/CapSense_CSD_IdacCH0.c **** *  This file provides the source code to the API for the 8-bit Current 
   7:.\Generated_Source\PSoC5/CapSense_CSD_IdacCH0.c **** *  DAC (IDAC8) User Module.
   8:.\Generated_Source\PSoC5/CapSense_CSD_IdacCH0.c **** *
   9:.\Generated_Source\PSoC5/CapSense_CSD_IdacCH0.c **** * Note:
  10:.\Generated_Source\PSoC5/CapSense_CSD_IdacCH0.c **** *  None
  11:.\Generated_Source\PSoC5/CapSense_CSD_IdacCH0.c **** *
  12:.\Generated_Source\PSoC5/CapSense_CSD_IdacCH0.c **** ********************************************************************************
  13:.\Generated_Source\PSoC5/CapSense_CSD_IdacCH0.c **** * Copyright 2008-2012, Cypress Semiconductor Corporation.  All rights reserved.
  14:.\Generated_Source\PSoC5/CapSense_CSD_IdacCH0.c **** * You may use this file only in accordance with the license, terms, conditions, 
  15:.\Generated_Source\PSoC5/CapSense_CSD_IdacCH0.c **** * disclaimers, and limitations in the end user license agreement accompanying 
  16:.\Generated_Source\PSoC5/CapSense_CSD_IdacCH0.c **** * the software package with which this file was provided.
  17:.\Generated_Source\PSoC5/CapSense_CSD_IdacCH0.c **** *******************************************************************************/
  18:.\Generated_Source\PSoC5/CapSense_CSD_IdacCH0.c **** 
  19:.\Generated_Source\PSoC5/CapSense_CSD_IdacCH0.c **** #include "cytypes.h"
  20:.\Generated_Source\PSoC5/CapSense_CSD_IdacCH0.c **** #include "CapSense_CSD_IdacCH0.h"   
  21:.\Generated_Source\PSoC5/CapSense_CSD_IdacCH0.c **** 
  22:.\Generated_Source\PSoC5/CapSense_CSD_IdacCH0.c **** #if (CY_PSOC5A)
  23:.\Generated_Source\PSoC5/CapSense_CSD_IdacCH0.c ****     #include <CyLib.h>
  24:.\Generated_Source\PSoC5/CapSense_CSD_IdacCH0.c **** #endif /* CY_PSOC5A */
  25:.\Generated_Source\PSoC5/CapSense_CSD_IdacCH0.c **** 
  26:.\Generated_Source\PSoC5/CapSense_CSD_IdacCH0.c **** 
  27:.\Generated_Source\PSoC5/CapSense_CSD_IdacCH0.c **** uint8 CapSense_CSD_IdacCH0_initVar = 0u;
  28:.\Generated_Source\PSoC5/CapSense_CSD_IdacCH0.c **** 
  29:.\Generated_Source\PSoC5/CapSense_CSD_IdacCH0.c **** 
  30:.\Generated_Source\PSoC5/CapSense_CSD_IdacCH0.c **** #if (CY_PSOC5A)
  31:.\Generated_Source\PSoC5/CapSense_CSD_IdacCH0.c ****     static CapSense_CSD_IdacCH0_LOWPOWER_BACKUP_STRUCT  CapSense_CSD_IdacCH0_lowPowerBackup;
ARM GAS  C:\Users\LUKASC~1\AppData\Local\Temp\ccRRIPkh.s 			page 2


  32:.\Generated_Source\PSoC5/CapSense_CSD_IdacCH0.c **** #endif /* CY_PSOC5A */
  33:.\Generated_Source\PSoC5/CapSense_CSD_IdacCH0.c **** 
  34:.\Generated_Source\PSoC5/CapSense_CSD_IdacCH0.c **** /* Variable to decide whether or not to restore control register in Enable()
  35:.\Generated_Source\PSoC5/CapSense_CSD_IdacCH0.c ****    API. This valid only for PSoC5A */
  36:.\Generated_Source\PSoC5/CapSense_CSD_IdacCH0.c **** #if (CY_PSOC5A)
  37:.\Generated_Source\PSoC5/CapSense_CSD_IdacCH0.c ****     static uint8 CapSense_CSD_IdacCH0_restoreReg = 0u;
  38:.\Generated_Source\PSoC5/CapSense_CSD_IdacCH0.c **** #endif /* CY_PSOC5A */
  39:.\Generated_Source\PSoC5/CapSense_CSD_IdacCH0.c **** 
  40:.\Generated_Source\PSoC5/CapSense_CSD_IdacCH0.c **** 
  41:.\Generated_Source\PSoC5/CapSense_CSD_IdacCH0.c **** /*******************************************************************************
  42:.\Generated_Source\PSoC5/CapSense_CSD_IdacCH0.c **** * Function Name: CapSense_CSD_IdacCH0_Init
  43:.\Generated_Source\PSoC5/CapSense_CSD_IdacCH0.c **** ********************************************************************************
  44:.\Generated_Source\PSoC5/CapSense_CSD_IdacCH0.c **** * Summary:
  45:.\Generated_Source\PSoC5/CapSense_CSD_IdacCH0.c **** *  Initialize to the schematic state.
  46:.\Generated_Source\PSoC5/CapSense_CSD_IdacCH0.c **** * 
  47:.\Generated_Source\PSoC5/CapSense_CSD_IdacCH0.c **** * Parameters:
  48:.\Generated_Source\PSoC5/CapSense_CSD_IdacCH0.c **** *  void:
  49:.\Generated_Source\PSoC5/CapSense_CSD_IdacCH0.c **** *
  50:.\Generated_Source\PSoC5/CapSense_CSD_IdacCH0.c **** * Return:
  51:.\Generated_Source\PSoC5/CapSense_CSD_IdacCH0.c **** *  (void)
  52:.\Generated_Source\PSoC5/CapSense_CSD_IdacCH0.c **** *
  53:.\Generated_Source\PSoC5/CapSense_CSD_IdacCH0.c **** * Theory:
  54:.\Generated_Source\PSoC5/CapSense_CSD_IdacCH0.c **** *
  55:.\Generated_Source\PSoC5/CapSense_CSD_IdacCH0.c **** * Side Effects:
  56:.\Generated_Source\PSoC5/CapSense_CSD_IdacCH0.c **** *
  57:.\Generated_Source\PSoC5/CapSense_CSD_IdacCH0.c **** *******************************************************************************/
  58:.\Generated_Source\PSoC5/CapSense_CSD_IdacCH0.c **** void CapSense_CSD_IdacCH0_Init(void) 
  59:.\Generated_Source\PSoC5/CapSense_CSD_IdacCH0.c **** {
  60:.\Generated_Source\PSoC5/CapSense_CSD_IdacCH0.c ****     CapSense_CSD_IdacCH0_CR0 = (CapSense_CSD_IdacCH0_MODE_I | CapSense_CSD_IdacCH0_DEFAULT_RANGE );
  61:.\Generated_Source\PSoC5/CapSense_CSD_IdacCH0.c **** 
  62:.\Generated_Source\PSoC5/CapSense_CSD_IdacCH0.c ****     /* Set default data source */
  63:.\Generated_Source\PSoC5/CapSense_CSD_IdacCH0.c ****     #if(CapSense_CSD_IdacCH0_DEFAULT_DATA_SRC != 0u )    
  64:.\Generated_Source\PSoC5/CapSense_CSD_IdacCH0.c ****         CapSense_CSD_IdacCH0_CR1 = (CapSense_CSD_IdacCH0_DEFAULT_CNTL | CapSense_CSD_IdacCH0_DACBUS
  65:.\Generated_Source\PSoC5/CapSense_CSD_IdacCH0.c ****     #else
  66:.\Generated_Source\PSoC5/CapSense_CSD_IdacCH0.c ****         CapSense_CSD_IdacCH0_CR1 = (CapSense_CSD_IdacCH0_DEFAULT_CNTL | CapSense_CSD_IdacCH0_DACBUS
  67:.\Generated_Source\PSoC5/CapSense_CSD_IdacCH0.c ****     #endif /* (CapSense_CSD_IdacCH0_DEFAULT_DATA_SRC != 0u ) */
  68:.\Generated_Source\PSoC5/CapSense_CSD_IdacCH0.c ****     
  69:.\Generated_Source\PSoC5/CapSense_CSD_IdacCH0.c ****     /*Controls polarity from UDB Control*/
  70:.\Generated_Source\PSoC5/CapSense_CSD_IdacCH0.c ****     #if(CapSense_CSD_IdacCH0_DEFAULT_POLARITY == CapSense_CSD_IdacCH0_HARDWARE_CONTROLLED)
  71:.\Generated_Source\PSoC5/CapSense_CSD_IdacCH0.c ****         CapSense_CSD_IdacCH0_CR1 |= CapSense_CSD_IdacCH0_IDIR_SRC_UDB;
  72:.\Generated_Source\PSoC5/CapSense_CSD_IdacCH0.c ****     #else
  73:.\Generated_Source\PSoC5/CapSense_CSD_IdacCH0.c ****         CapSense_CSD_IdacCH0_CR1 |= CapSense_CSD_IdacCH0_DEFAULT_POLARITY;
  74:.\Generated_Source\PSoC5/CapSense_CSD_IdacCH0.c ****     #endif/* (CapSense_CSD_IdacCH0_DEFAULT_POLARITY == CapSense_CSD_IdacCH0_HARDWARE_CONTROLLED) */
  75:.\Generated_Source\PSoC5/CapSense_CSD_IdacCH0.c ****     /*Controls Current Source from UDB Control*/
  76:.\Generated_Source\PSoC5/CapSense_CSD_IdacCH0.c ****     #if(CapSense_CSD_IdacCH0_HARDWARE_ENABLE != 0u ) 
  77:.\Generated_Source\PSoC5/CapSense_CSD_IdacCH0.c ****         CapSense_CSD_IdacCH0_CR1 |= CapSense_CSD_IdacCH0_IDIR_CTL_UDB;
  78:.\Generated_Source\PSoC5/CapSense_CSD_IdacCH0.c ****     #endif /* (CapSense_CSD_IdacCH0_HARDWARE_ENABLE != 0u ) */ 
  79:.\Generated_Source\PSoC5/CapSense_CSD_IdacCH0.c ****     
  80:.\Generated_Source\PSoC5/CapSense_CSD_IdacCH0.c ****     /* Set default strobe mode */
  81:.\Generated_Source\PSoC5/CapSense_CSD_IdacCH0.c ****     #if(CapSense_CSD_IdacCH0_DEFAULT_STRB != 0u)
  82:.\Generated_Source\PSoC5/CapSense_CSD_IdacCH0.c ****         CapSense_CSD_IdacCH0_Strobe |= CapSense_CSD_IdacCH0_STRB_EN;
  83:.\Generated_Source\PSoC5/CapSense_CSD_IdacCH0.c ****     #endif /* (CapSense_CSD_IdacCH0_DEFAULT_STRB != 0u) */
  84:.\Generated_Source\PSoC5/CapSense_CSD_IdacCH0.c ****     
  85:.\Generated_Source\PSoC5/CapSense_CSD_IdacCH0.c ****     /* Set default speed */
  86:.\Generated_Source\PSoC5/CapSense_CSD_IdacCH0.c ****     CapSense_CSD_IdacCH0_SetSpeed(CapSense_CSD_IdacCH0_DEFAULT_SPEED);
  87:.\Generated_Source\PSoC5/CapSense_CSD_IdacCH0.c ****     
  88:.\Generated_Source\PSoC5/CapSense_CSD_IdacCH0.c ****     /* Set proper DAC trim */
ARM GAS  C:\Users\LUKASC~1\AppData\Local\Temp\ccRRIPkh.s 			page 3


  89:.\Generated_Source\PSoC5/CapSense_CSD_IdacCH0.c ****     CapSense_CSD_IdacCH0_DacTrim();
  90:.\Generated_Source\PSoC5/CapSense_CSD_IdacCH0.c ****     
  91:.\Generated_Source\PSoC5/CapSense_CSD_IdacCH0.c **** }
  92:.\Generated_Source\PSoC5/CapSense_CSD_IdacCH0.c **** 
  93:.\Generated_Source\PSoC5/CapSense_CSD_IdacCH0.c **** 
  94:.\Generated_Source\PSoC5/CapSense_CSD_IdacCH0.c **** /*******************************************************************************
  95:.\Generated_Source\PSoC5/CapSense_CSD_IdacCH0.c **** * Function Name: CapSense_CSD_IdacCH0_Enable
  96:.\Generated_Source\PSoC5/CapSense_CSD_IdacCH0.c **** ********************************************************************************
  97:.\Generated_Source\PSoC5/CapSense_CSD_IdacCH0.c **** * Summary:
  98:.\Generated_Source\PSoC5/CapSense_CSD_IdacCH0.c **** *  Enable the IDAC8
  99:.\Generated_Source\PSoC5/CapSense_CSD_IdacCH0.c **** * 
 100:.\Generated_Source\PSoC5/CapSense_CSD_IdacCH0.c **** * Parameters:
 101:.\Generated_Source\PSoC5/CapSense_CSD_IdacCH0.c **** *  void:
 102:.\Generated_Source\PSoC5/CapSense_CSD_IdacCH0.c **** *
 103:.\Generated_Source\PSoC5/CapSense_CSD_IdacCH0.c **** * Return:
 104:.\Generated_Source\PSoC5/CapSense_CSD_IdacCH0.c **** *  (void)
 105:.\Generated_Source\PSoC5/CapSense_CSD_IdacCH0.c **** *
 106:.\Generated_Source\PSoC5/CapSense_CSD_IdacCH0.c **** * Theory:
 107:.\Generated_Source\PSoC5/CapSense_CSD_IdacCH0.c **** *
 108:.\Generated_Source\PSoC5/CapSense_CSD_IdacCH0.c **** * Side Effects:
 109:.\Generated_Source\PSoC5/CapSense_CSD_IdacCH0.c **** *
 110:.\Generated_Source\PSoC5/CapSense_CSD_IdacCH0.c **** *******************************************************************************/
 111:.\Generated_Source\PSoC5/CapSense_CSD_IdacCH0.c **** void CapSense_CSD_IdacCH0_Enable(void) 
 112:.\Generated_Source\PSoC5/CapSense_CSD_IdacCH0.c **** {
  27              		.loc 1 112 0
  28              		.cfi_startproc
  29              		@ args = 0, pretend = 0, frame = 0
  30              		@ frame_needed = 0, uses_anonymous_args = 0
  31              		@ link register save eliminated.
 113:.\Generated_Source\PSoC5/CapSense_CSD_IdacCH0.c ****     CapSense_CSD_IdacCH0_PWRMGR |= CapSense_CSD_IdacCH0_ACT_PWR_EN;
  32              		.loc 1 113 0
  33 0000 054A     		ldr	r2, .L2
  34 0002 1378     		ldrb	r3, [r2]	@ zero_extendqisi2
  35 0004 43F00103 		orr	r3, r3, #1
  36 0008 1370     		strb	r3, [r2]
 114:.\Generated_Source\PSoC5/CapSense_CSD_IdacCH0.c ****     CapSense_CSD_IdacCH0_STBY_PWRMGR |= CapSense_CSD_IdacCH0_STBY_PWR_EN;
  37              		.loc 1 114 0
  38 000a 1032     		adds	r2, r2, #16
  39 000c 1378     		ldrb	r3, [r2]	@ zero_extendqisi2
  40 000e 43F00103 		orr	r3, r3, #1
  41 0012 1370     		strb	r3, [r2]
  42 0014 7047     		bx	lr
  43              	.L3:
  44 0016 00BF     		.align	2
  45              	.L2:
  46 0018 A8430040 		.word	1073759144
  47              		.cfi_endproc
  48              	.LFE1:
  49              		.size	CapSense_CSD_IdacCH0_Enable, .-CapSense_CSD_IdacCH0_Enable
  50              		.section	.text.CapSense_CSD_IdacCH0_Stop,"ax",%progbits
  51              		.align	2
  52              		.global	CapSense_CSD_IdacCH0_Stop
  53              		.thumb
  54              		.thumb_func
  55              		.type	CapSense_CSD_IdacCH0_Stop, %function
  56              	CapSense_CSD_IdacCH0_Stop:
  57              	.LFB3:
ARM GAS  C:\Users\LUKASC~1\AppData\Local\Temp\ccRRIPkh.s 			page 4


 115:.\Generated_Source\PSoC5/CapSense_CSD_IdacCH0.c **** 
 116:.\Generated_Source\PSoC5/CapSense_CSD_IdacCH0.c ****     /* This is to restore the value of register CR0 which is saved 
 117:.\Generated_Source\PSoC5/CapSense_CSD_IdacCH0.c ****       in prior to the modification in stop() API */
 118:.\Generated_Source\PSoC5/CapSense_CSD_IdacCH0.c ****     #if (CY_PSOC5A)
 119:.\Generated_Source\PSoC5/CapSense_CSD_IdacCH0.c ****         if(CapSense_CSD_IdacCH0_restoreReg == 1u)
 120:.\Generated_Source\PSoC5/CapSense_CSD_IdacCH0.c ****         {
 121:.\Generated_Source\PSoC5/CapSense_CSD_IdacCH0.c ****             CapSense_CSD_IdacCH0_CR0 = CapSense_CSD_IdacCH0_lowPowerBackup.DACCR0Reg;
 122:.\Generated_Source\PSoC5/CapSense_CSD_IdacCH0.c **** 
 123:.\Generated_Source\PSoC5/CapSense_CSD_IdacCH0.c ****             /* Clear the flag */
 124:.\Generated_Source\PSoC5/CapSense_CSD_IdacCH0.c ****             CapSense_CSD_IdacCH0_restoreReg = 0u;
 125:.\Generated_Source\PSoC5/CapSense_CSD_IdacCH0.c ****         }
 126:.\Generated_Source\PSoC5/CapSense_CSD_IdacCH0.c ****     #endif /* CY_PSOC5A */
 127:.\Generated_Source\PSoC5/CapSense_CSD_IdacCH0.c **** }
 128:.\Generated_Source\PSoC5/CapSense_CSD_IdacCH0.c **** 
 129:.\Generated_Source\PSoC5/CapSense_CSD_IdacCH0.c **** 
 130:.\Generated_Source\PSoC5/CapSense_CSD_IdacCH0.c **** /*******************************************************************************
 131:.\Generated_Source\PSoC5/CapSense_CSD_IdacCH0.c **** * Function Name: CapSense_CSD_IdacCH0_Start
 132:.\Generated_Source\PSoC5/CapSense_CSD_IdacCH0.c **** ********************************************************************************
 133:.\Generated_Source\PSoC5/CapSense_CSD_IdacCH0.c **** * Summary:
 134:.\Generated_Source\PSoC5/CapSense_CSD_IdacCH0.c **** *  Set power level then turn on IDAC8.
 135:.\Generated_Source\PSoC5/CapSense_CSD_IdacCH0.c **** *
 136:.\Generated_Source\PSoC5/CapSense_CSD_IdacCH0.c **** * Parameters:  
 137:.\Generated_Source\PSoC5/CapSense_CSD_IdacCH0.c **** *  power: Sets power level between off (0) and (3) high power
 138:.\Generated_Source\PSoC5/CapSense_CSD_IdacCH0.c **** *
 139:.\Generated_Source\PSoC5/CapSense_CSD_IdacCH0.c **** * Return:
 140:.\Generated_Source\PSoC5/CapSense_CSD_IdacCH0.c **** *  (void)
 141:.\Generated_Source\PSoC5/CapSense_CSD_IdacCH0.c **** *
 142:.\Generated_Source\PSoC5/CapSense_CSD_IdacCH0.c **** * Global variables:
 143:.\Generated_Source\PSoC5/CapSense_CSD_IdacCH0.c **** *  CapSense_CSD_IdacCH0_initVar: Is modified when this function is called for 
 144:.\Generated_Source\PSoC5/CapSense_CSD_IdacCH0.c **** *   the first time. Is used to ensure that initialization happens only once.
 145:.\Generated_Source\PSoC5/CapSense_CSD_IdacCH0.c **** *
 146:.\Generated_Source\PSoC5/CapSense_CSD_IdacCH0.c **** *******************************************************************************/
 147:.\Generated_Source\PSoC5/CapSense_CSD_IdacCH0.c **** void CapSense_CSD_IdacCH0_Start(void) 
 148:.\Generated_Source\PSoC5/CapSense_CSD_IdacCH0.c **** {
 149:.\Generated_Source\PSoC5/CapSense_CSD_IdacCH0.c ****     /* Hardware initiazation only needs to occur the first time */
 150:.\Generated_Source\PSoC5/CapSense_CSD_IdacCH0.c ****     if ( CapSense_CSD_IdacCH0_initVar == 0u)  
 151:.\Generated_Source\PSoC5/CapSense_CSD_IdacCH0.c ****     {
 152:.\Generated_Source\PSoC5/CapSense_CSD_IdacCH0.c ****         CapSense_CSD_IdacCH0_Init();
 153:.\Generated_Source\PSoC5/CapSense_CSD_IdacCH0.c ****         
 154:.\Generated_Source\PSoC5/CapSense_CSD_IdacCH0.c ****         CapSense_CSD_IdacCH0_initVar = 1u;
 155:.\Generated_Source\PSoC5/CapSense_CSD_IdacCH0.c ****     }
 156:.\Generated_Source\PSoC5/CapSense_CSD_IdacCH0.c ****    
 157:.\Generated_Source\PSoC5/CapSense_CSD_IdacCH0.c ****     /* Enable power to DAC */
 158:.\Generated_Source\PSoC5/CapSense_CSD_IdacCH0.c ****     CapSense_CSD_IdacCH0_Enable();
 159:.\Generated_Source\PSoC5/CapSense_CSD_IdacCH0.c **** 
 160:.\Generated_Source\PSoC5/CapSense_CSD_IdacCH0.c ****     /* Set default value */
 161:.\Generated_Source\PSoC5/CapSense_CSD_IdacCH0.c ****     CapSense_CSD_IdacCH0_SetValue(CapSense_CSD_IdacCH0_DEFAULT_DATA);
 162:.\Generated_Source\PSoC5/CapSense_CSD_IdacCH0.c **** 
 163:.\Generated_Source\PSoC5/CapSense_CSD_IdacCH0.c **** }
 164:.\Generated_Source\PSoC5/CapSense_CSD_IdacCH0.c **** 
 165:.\Generated_Source\PSoC5/CapSense_CSD_IdacCH0.c **** 
 166:.\Generated_Source\PSoC5/CapSense_CSD_IdacCH0.c **** /*******************************************************************************
 167:.\Generated_Source\PSoC5/CapSense_CSD_IdacCH0.c **** * Function Name: CapSense_CSD_IdacCH0_Stop
 168:.\Generated_Source\PSoC5/CapSense_CSD_IdacCH0.c **** ********************************************************************************
 169:.\Generated_Source\PSoC5/CapSense_CSD_IdacCH0.c **** * Summary:
 170:.\Generated_Source\PSoC5/CapSense_CSD_IdacCH0.c **** *  Powers down IDAC8 to lowest power state.
 171:.\Generated_Source\PSoC5/CapSense_CSD_IdacCH0.c **** *
ARM GAS  C:\Users\LUKASC~1\AppData\Local\Temp\ccRRIPkh.s 			page 5


 172:.\Generated_Source\PSoC5/CapSense_CSD_IdacCH0.c **** * Parameters:
 173:.\Generated_Source\PSoC5/CapSense_CSD_IdacCH0.c **** *  (void)
 174:.\Generated_Source\PSoC5/CapSense_CSD_IdacCH0.c **** *
 175:.\Generated_Source\PSoC5/CapSense_CSD_IdacCH0.c **** * Return:
 176:.\Generated_Source\PSoC5/CapSense_CSD_IdacCH0.c **** *  (void)
 177:.\Generated_Source\PSoC5/CapSense_CSD_IdacCH0.c **** *
 178:.\Generated_Source\PSoC5/CapSense_CSD_IdacCH0.c **** * Theory:
 179:.\Generated_Source\PSoC5/CapSense_CSD_IdacCH0.c **** *
 180:.\Generated_Source\PSoC5/CapSense_CSD_IdacCH0.c **** * Side Effects:
 181:.\Generated_Source\PSoC5/CapSense_CSD_IdacCH0.c **** *
 182:.\Generated_Source\PSoC5/CapSense_CSD_IdacCH0.c **** *******************************************************************************/
 183:.\Generated_Source\PSoC5/CapSense_CSD_IdacCH0.c **** void CapSense_CSD_IdacCH0_Stop(void) 
 184:.\Generated_Source\PSoC5/CapSense_CSD_IdacCH0.c **** {
  58              		.loc 1 184 0
  59              		.cfi_startproc
  60              		@ args = 0, pretend = 0, frame = 0
  61              		@ frame_needed = 0, uses_anonymous_args = 0
  62              		@ link register save eliminated.
 185:.\Generated_Source\PSoC5/CapSense_CSD_IdacCH0.c ****     /* Disble power to DAC */
 186:.\Generated_Source\PSoC5/CapSense_CSD_IdacCH0.c ****     CapSense_CSD_IdacCH0_PWRMGR &= (uint8)(~CapSense_CSD_IdacCH0_ACT_PWR_EN);
  63              		.loc 1 186 0
  64 0000 054A     		ldr	r2, .L5
  65 0002 1378     		ldrb	r3, [r2]	@ zero_extendqisi2
  66 0004 03F0FE03 		and	r3, r3, #254
  67 0008 1370     		strb	r3, [r2]
 187:.\Generated_Source\PSoC5/CapSense_CSD_IdacCH0.c ****     CapSense_CSD_IdacCH0_STBY_PWRMGR &= (uint8)(~CapSense_CSD_IdacCH0_STBY_PWR_EN);
  68              		.loc 1 187 0
  69 000a 1032     		adds	r2, r2, #16
  70 000c 1378     		ldrb	r3, [r2]	@ zero_extendqisi2
  71 000e 03F0FE03 		and	r3, r3, #254
  72 0012 1370     		strb	r3, [r2]
  73 0014 7047     		bx	lr
  74              	.L6:
  75 0016 00BF     		.align	2
  76              	.L5:
  77 0018 A8430040 		.word	1073759144
  78              		.cfi_endproc
  79              	.LFE3:
  80              		.size	CapSense_CSD_IdacCH0_Stop, .-CapSense_CSD_IdacCH0_Stop
  81              		.section	.text.CapSense_CSD_IdacCH0_SetSpeed,"ax",%progbits
  82              		.align	2
  83              		.global	CapSense_CSD_IdacCH0_SetSpeed
  84              		.thumb
  85              		.thumb_func
  86              		.type	CapSense_CSD_IdacCH0_SetSpeed, %function
  87              	CapSense_CSD_IdacCH0_SetSpeed:
  88              	.LFB4:
 188:.\Generated_Source\PSoC5/CapSense_CSD_IdacCH0.c ****     
 189:.\Generated_Source\PSoC5/CapSense_CSD_IdacCH0.c ****     #if (CY_PSOC5A)
 190:.\Generated_Source\PSoC5/CapSense_CSD_IdacCH0.c ****     
 191:.\Generated_Source\PSoC5/CapSense_CSD_IdacCH0.c ****         /* Set the global variable  */
 192:.\Generated_Source\PSoC5/CapSense_CSD_IdacCH0.c ****         CapSense_CSD_IdacCH0_restoreReg = 1u;
 193:.\Generated_Source\PSoC5/CapSense_CSD_IdacCH0.c **** 
 194:.\Generated_Source\PSoC5/CapSense_CSD_IdacCH0.c ****         /* Save the control register and then Clear it. */
 195:.\Generated_Source\PSoC5/CapSense_CSD_IdacCH0.c ****         CapSense_CSD_IdacCH0_lowPowerBackup.DACCR0Reg = CapSense_CSD_IdacCH0_CR0;
 196:.\Generated_Source\PSoC5/CapSense_CSD_IdacCH0.c ****         CapSense_CSD_IdacCH0_CR0 = (CapSense_CSD_IdacCH0_MODE_I | CapSense_CSD_IdacCH0_RANGE_3 | Ca
 197:.\Generated_Source\PSoC5/CapSense_CSD_IdacCH0.c ****     #endif /* CY_PSOC5A */
ARM GAS  C:\Users\LUKASC~1\AppData\Local\Temp\ccRRIPkh.s 			page 6


 198:.\Generated_Source\PSoC5/CapSense_CSD_IdacCH0.c **** }
 199:.\Generated_Source\PSoC5/CapSense_CSD_IdacCH0.c **** 
 200:.\Generated_Source\PSoC5/CapSense_CSD_IdacCH0.c **** 
 201:.\Generated_Source\PSoC5/CapSense_CSD_IdacCH0.c **** /*******************************************************************************
 202:.\Generated_Source\PSoC5/CapSense_CSD_IdacCH0.c **** * Function Name: CapSense_CSD_IdacCH0_SetSpeed
 203:.\Generated_Source\PSoC5/CapSense_CSD_IdacCH0.c **** ********************************************************************************
 204:.\Generated_Source\PSoC5/CapSense_CSD_IdacCH0.c **** * Summary:
 205:.\Generated_Source\PSoC5/CapSense_CSD_IdacCH0.c **** *  Set DAC speed
 206:.\Generated_Source\PSoC5/CapSense_CSD_IdacCH0.c **** *
 207:.\Generated_Source\PSoC5/CapSense_CSD_IdacCH0.c **** * Parameters:
 208:.\Generated_Source\PSoC5/CapSense_CSD_IdacCH0.c **** *  power: Sets speed value
 209:.\Generated_Source\PSoC5/CapSense_CSD_IdacCH0.c **** *
 210:.\Generated_Source\PSoC5/CapSense_CSD_IdacCH0.c **** * Return:
 211:.\Generated_Source\PSoC5/CapSense_CSD_IdacCH0.c **** *  (void)
 212:.\Generated_Source\PSoC5/CapSense_CSD_IdacCH0.c **** *
 213:.\Generated_Source\PSoC5/CapSense_CSD_IdacCH0.c **** * Theory:
 214:.\Generated_Source\PSoC5/CapSense_CSD_IdacCH0.c **** *
 215:.\Generated_Source\PSoC5/CapSense_CSD_IdacCH0.c **** * Side Effects:
 216:.\Generated_Source\PSoC5/CapSense_CSD_IdacCH0.c **** *
 217:.\Generated_Source\PSoC5/CapSense_CSD_IdacCH0.c **** *******************************************************************************/
 218:.\Generated_Source\PSoC5/CapSense_CSD_IdacCH0.c **** void CapSense_CSD_IdacCH0_SetSpeed(uint8 speed) 
 219:.\Generated_Source\PSoC5/CapSense_CSD_IdacCH0.c **** {
  89              		.loc 1 219 0
  90              		.cfi_startproc
  91              		@ args = 0, pretend = 0, frame = 0
  92              		@ frame_needed = 0, uses_anonymous_args = 0
  93              		@ link register save eliminated.
  94              	.LVL0:
 220:.\Generated_Source\PSoC5/CapSense_CSD_IdacCH0.c ****     /* Clear power mask then write in new value */
 221:.\Generated_Source\PSoC5/CapSense_CSD_IdacCH0.c ****     CapSense_CSD_IdacCH0_CR0 &= (uint8)(~CapSense_CSD_IdacCH0_HS_MASK);
  95              		.loc 1 221 0
  96 0000 054B     		ldr	r3, .L8
  97 0002 1A78     		ldrb	r2, [r3]	@ zero_extendqisi2
  98 0004 02F0FD02 		and	r2, r2, #253
  99 0008 1A70     		strb	r2, [r3]
 222:.\Generated_Source\PSoC5/CapSense_CSD_IdacCH0.c ****     CapSense_CSD_IdacCH0_CR0 |=  ( speed & CapSense_CSD_IdacCH0_HS_MASK);
 100              		.loc 1 222 0
 101 000a 1A78     		ldrb	r2, [r3]	@ zero_extendqisi2
 102 000c 00F00200 		and	r0, r0, #2
 103              	.LVL1:
 104 0010 1043     		orrs	r0, r0, r2
 105 0012 1870     		strb	r0, [r3]
 106 0014 7047     		bx	lr
 107              	.L9:
 108 0016 00BF     		.align	2
 109              	.L8:
 110 0018 20580040 		.word	1073764384
 111              		.cfi_endproc
 112              	.LFE4:
 113              		.size	CapSense_CSD_IdacCH0_SetSpeed, .-CapSense_CSD_IdacCH0_SetSpeed
 114              		.section	.text.CapSense_CSD_IdacCH0_SetValue,"ax",%progbits
 115              		.align	2
 116              		.global	CapSense_CSD_IdacCH0_SetValue
 117              		.thumb
 118              		.thumb_func
 119              		.type	CapSense_CSD_IdacCH0_SetValue, %function
 120              	CapSense_CSD_IdacCH0_SetValue:
ARM GAS  C:\Users\LUKASC~1\AppData\Local\Temp\ccRRIPkh.s 			page 7


 121              	.LFB7:
 223:.\Generated_Source\PSoC5/CapSense_CSD_IdacCH0.c **** }
 224:.\Generated_Source\PSoC5/CapSense_CSD_IdacCH0.c **** 
 225:.\Generated_Source\PSoC5/CapSense_CSD_IdacCH0.c **** 
 226:.\Generated_Source\PSoC5/CapSense_CSD_IdacCH0.c **** /*******************************************************************************
 227:.\Generated_Source\PSoC5/CapSense_CSD_IdacCH0.c **** * Function Name: CapSense_CSD_IdacCH0_SetPolarity
 228:.\Generated_Source\PSoC5/CapSense_CSD_IdacCH0.c **** ********************************************************************************
 229:.\Generated_Source\PSoC5/CapSense_CSD_IdacCH0.c **** * Summary:
 230:.\Generated_Source\PSoC5/CapSense_CSD_IdacCH0.c **** *  Sets IDAC to Sink or Source current.
 231:.\Generated_Source\PSoC5/CapSense_CSD_IdacCH0.c **** *  
 232:.\Generated_Source\PSoC5/CapSense_CSD_IdacCH0.c **** * Parameters:
 233:.\Generated_Source\PSoC5/CapSense_CSD_IdacCH0.c **** *  Polarity: Sets the IDAC to Sink or Source 
 234:.\Generated_Source\PSoC5/CapSense_CSD_IdacCH0.c **** *  0x00 - Source
 235:.\Generated_Source\PSoC5/CapSense_CSD_IdacCH0.c **** *  0x04 - Sink
 236:.\Generated_Source\PSoC5/CapSense_CSD_IdacCH0.c **** *
 237:.\Generated_Source\PSoC5/CapSense_CSD_IdacCH0.c **** * Return:
 238:.\Generated_Source\PSoC5/CapSense_CSD_IdacCH0.c **** *  (void)
 239:.\Generated_Source\PSoC5/CapSense_CSD_IdacCH0.c **** *
 240:.\Generated_Source\PSoC5/CapSense_CSD_IdacCH0.c **** * Theory:
 241:.\Generated_Source\PSoC5/CapSense_CSD_IdacCH0.c **** *
 242:.\Generated_Source\PSoC5/CapSense_CSD_IdacCH0.c **** * Side Effects:
 243:.\Generated_Source\PSoC5/CapSense_CSD_IdacCH0.c **** *
 244:.\Generated_Source\PSoC5/CapSense_CSD_IdacCH0.c **** *******************************************************************************/
 245:.\Generated_Source\PSoC5/CapSense_CSD_IdacCH0.c **** #if(CapSense_CSD_IdacCH0_DEFAULT_POLARITY != CapSense_CSD_IdacCH0_HARDWARE_CONTROLLED)
 246:.\Generated_Source\PSoC5/CapSense_CSD_IdacCH0.c ****     void CapSense_CSD_IdacCH0_SetPolarity(uint8 polarity) 
 247:.\Generated_Source\PSoC5/CapSense_CSD_IdacCH0.c ****     {
 248:.\Generated_Source\PSoC5/CapSense_CSD_IdacCH0.c ****         CapSense_CSD_IdacCH0_CR1 &= (uint8)(~CapSense_CSD_IdacCH0_IDIR_MASK);                /* cle
 249:.\Generated_Source\PSoC5/CapSense_CSD_IdacCH0.c ****         CapSense_CSD_IdacCH0_CR1 |= (polarity & CapSense_CSD_IdacCH0_IDIR_MASK);             /* set
 250:.\Generated_Source\PSoC5/CapSense_CSD_IdacCH0.c ****     
 251:.\Generated_Source\PSoC5/CapSense_CSD_IdacCH0.c ****         CapSense_CSD_IdacCH0_DacTrim();
 252:.\Generated_Source\PSoC5/CapSense_CSD_IdacCH0.c ****     }
 253:.\Generated_Source\PSoC5/CapSense_CSD_IdacCH0.c **** #endif/*(CapSense_CSD_IdacCH0_DEFAULT_POLARITY != CapSense_CSD_IdacCH0_HARDWARE_CONTROLLED)*/
 254:.\Generated_Source\PSoC5/CapSense_CSD_IdacCH0.c **** 
 255:.\Generated_Source\PSoC5/CapSense_CSD_IdacCH0.c **** 
 256:.\Generated_Source\PSoC5/CapSense_CSD_IdacCH0.c **** /*******************************************************************************
 257:.\Generated_Source\PSoC5/CapSense_CSD_IdacCH0.c **** * Function Name: CapSense_CSD_IdacCH0_SetRange
 258:.\Generated_Source\PSoC5/CapSense_CSD_IdacCH0.c **** ********************************************************************************
 259:.\Generated_Source\PSoC5/CapSense_CSD_IdacCH0.c **** * Summary:
 260:.\Generated_Source\PSoC5/CapSense_CSD_IdacCH0.c **** *  Set current range
 261:.\Generated_Source\PSoC5/CapSense_CSD_IdacCH0.c **** *
 262:.\Generated_Source\PSoC5/CapSense_CSD_IdacCH0.c **** * Parameters:
 263:.\Generated_Source\PSoC5/CapSense_CSD_IdacCH0.c **** *  Range: Sets on of four valid ranges.
 264:.\Generated_Source\PSoC5/CapSense_CSD_IdacCH0.c **** *
 265:.\Generated_Source\PSoC5/CapSense_CSD_IdacCH0.c **** * Return:
 266:.\Generated_Source\PSoC5/CapSense_CSD_IdacCH0.c **** *  (void)
 267:.\Generated_Source\PSoC5/CapSense_CSD_IdacCH0.c **** *
 268:.\Generated_Source\PSoC5/CapSense_CSD_IdacCH0.c **** * Theory:
 269:.\Generated_Source\PSoC5/CapSense_CSD_IdacCH0.c **** *
 270:.\Generated_Source\PSoC5/CapSense_CSD_IdacCH0.c **** * Side Effects:
 271:.\Generated_Source\PSoC5/CapSense_CSD_IdacCH0.c **** *
 272:.\Generated_Source\PSoC5/CapSense_CSD_IdacCH0.c **** *******************************************************************************/
 273:.\Generated_Source\PSoC5/CapSense_CSD_IdacCH0.c **** void CapSense_CSD_IdacCH0_SetRange(uint8 range) 
 274:.\Generated_Source\PSoC5/CapSense_CSD_IdacCH0.c **** {
 275:.\Generated_Source\PSoC5/CapSense_CSD_IdacCH0.c ****     CapSense_CSD_IdacCH0_CR0 &= (uint8)(~CapSense_CSD_IdacCH0_RANGE_MASK);       /* Clear existing 
 276:.\Generated_Source\PSoC5/CapSense_CSD_IdacCH0.c ****     CapSense_CSD_IdacCH0_CR0 |= ( range & CapSense_CSD_IdacCH0_RANGE_MASK );     /*  Set Range  */
 277:.\Generated_Source\PSoC5/CapSense_CSD_IdacCH0.c ****     CapSense_CSD_IdacCH0_DacTrim();
 278:.\Generated_Source\PSoC5/CapSense_CSD_IdacCH0.c **** }
ARM GAS  C:\Users\LUKASC~1\AppData\Local\Temp\ccRRIPkh.s 			page 8


 279:.\Generated_Source\PSoC5/CapSense_CSD_IdacCH0.c **** 
 280:.\Generated_Source\PSoC5/CapSense_CSD_IdacCH0.c **** 
 281:.\Generated_Source\PSoC5/CapSense_CSD_IdacCH0.c **** /*******************************************************************************
 282:.\Generated_Source\PSoC5/CapSense_CSD_IdacCH0.c **** * Function Name: CapSense_CSD_IdacCH0_SetValue
 283:.\Generated_Source\PSoC5/CapSense_CSD_IdacCH0.c **** ********************************************************************************
 284:.\Generated_Source\PSoC5/CapSense_CSD_IdacCH0.c **** * Summary:
 285:.\Generated_Source\PSoC5/CapSense_CSD_IdacCH0.c **** *  Set DAC value
 286:.\Generated_Source\PSoC5/CapSense_CSD_IdacCH0.c **** *
 287:.\Generated_Source\PSoC5/CapSense_CSD_IdacCH0.c **** * Parameters:
 288:.\Generated_Source\PSoC5/CapSense_CSD_IdacCH0.c **** *  value: Sets DAC value between 0 and 255.
 289:.\Generated_Source\PSoC5/CapSense_CSD_IdacCH0.c **** *
 290:.\Generated_Source\PSoC5/CapSense_CSD_IdacCH0.c **** * Return:
 291:.\Generated_Source\PSoC5/CapSense_CSD_IdacCH0.c **** *  (void)
 292:.\Generated_Source\PSoC5/CapSense_CSD_IdacCH0.c **** *
 293:.\Generated_Source\PSoC5/CapSense_CSD_IdacCH0.c **** * Theory:
 294:.\Generated_Source\PSoC5/CapSense_CSD_IdacCH0.c **** *
 295:.\Generated_Source\PSoC5/CapSense_CSD_IdacCH0.c **** * Side Effects:
 296:.\Generated_Source\PSoC5/CapSense_CSD_IdacCH0.c **** *
 297:.\Generated_Source\PSoC5/CapSense_CSD_IdacCH0.c **** *******************************************************************************/
 298:.\Generated_Source\PSoC5/CapSense_CSD_IdacCH0.c **** void CapSense_CSD_IdacCH0_SetValue(uint8 value) 
 299:.\Generated_Source\PSoC5/CapSense_CSD_IdacCH0.c **** {
 122              		.loc 1 299 0
 123              		.cfi_startproc
 124              		@ args = 0, pretend = 0, frame = 0
 125              		@ frame_needed = 0, uses_anonymous_args = 0
 126              		@ link register save eliminated.
 127              	.LVL2:
 300:.\Generated_Source\PSoC5/CapSense_CSD_IdacCH0.c **** 
 301:.\Generated_Source\PSoC5/CapSense_CSD_IdacCH0.c ****     #if (CY_PSOC5A)
 302:.\Generated_Source\PSoC5/CapSense_CSD_IdacCH0.c ****         uint8 CapSense_CSD_IdacCH0_intrStatus = CyEnterCriticalSection();
 303:.\Generated_Source\PSoC5/CapSense_CSD_IdacCH0.c ****     #endif /* CY_PSOC5A */
 304:.\Generated_Source\PSoC5/CapSense_CSD_IdacCH0.c **** 
 305:.\Generated_Source\PSoC5/CapSense_CSD_IdacCH0.c ****     CapSense_CSD_IdacCH0_Data = value;         /*  Set Value  */
 128              		.loc 1 305 0
 129 0000 014B     		ldr	r3, .L11
 130 0002 1870     		strb	r0, [r3]
 131 0004 7047     		bx	lr
 132              	.L12:
 133 0006 00BF     		.align	2
 134              	.L11:
 135 0008 805B0040 		.word	1073765248
 136              		.cfi_endproc
 137              	.LFE7:
 138              		.size	CapSense_CSD_IdacCH0_SetValue, .-CapSense_CSD_IdacCH0_SetValue
 139              		.section	.text.CapSense_CSD_IdacCH0_DacTrim,"ax",%progbits
 140              		.align	2
 141              		.global	CapSense_CSD_IdacCH0_DacTrim
 142              		.thumb
 143              		.thumb_func
 144              		.type	CapSense_CSD_IdacCH0_DacTrim, %function
 145              	CapSense_CSD_IdacCH0_DacTrim:
 146              	.LFB8:
 306:.\Generated_Source\PSoC5/CapSense_CSD_IdacCH0.c ****     
 307:.\Generated_Source\PSoC5/CapSense_CSD_IdacCH0.c ****     /* PSOC5A silicons require a double write */
 308:.\Generated_Source\PSoC5/CapSense_CSD_IdacCH0.c ****     #if (CY_PSOC5A)
 309:.\Generated_Source\PSoC5/CapSense_CSD_IdacCH0.c ****         CapSense_CSD_IdacCH0_Data = value;
 310:.\Generated_Source\PSoC5/CapSense_CSD_IdacCH0.c ****         CyExitCriticalSection(CapSense_CSD_IdacCH0_intrStatus);
ARM GAS  C:\Users\LUKASC~1\AppData\Local\Temp\ccRRIPkh.s 			page 9


 311:.\Generated_Source\PSoC5/CapSense_CSD_IdacCH0.c ****     #endif /* CY_PSOC5A */
 312:.\Generated_Source\PSoC5/CapSense_CSD_IdacCH0.c **** }
 313:.\Generated_Source\PSoC5/CapSense_CSD_IdacCH0.c **** 
 314:.\Generated_Source\PSoC5/CapSense_CSD_IdacCH0.c **** 
 315:.\Generated_Source\PSoC5/CapSense_CSD_IdacCH0.c **** /*******************************************************************************
 316:.\Generated_Source\PSoC5/CapSense_CSD_IdacCH0.c **** * Function Name: CapSense_CSD_IdacCH0_DacTrim
 317:.\Generated_Source\PSoC5/CapSense_CSD_IdacCH0.c **** ********************************************************************************
 318:.\Generated_Source\PSoC5/CapSense_CSD_IdacCH0.c **** * Summary:
 319:.\Generated_Source\PSoC5/CapSense_CSD_IdacCH0.c **** *  Set the trim value for the given range.
 320:.\Generated_Source\PSoC5/CapSense_CSD_IdacCH0.c **** *
 321:.\Generated_Source\PSoC5/CapSense_CSD_IdacCH0.c **** * Parameters:
 322:.\Generated_Source\PSoC5/CapSense_CSD_IdacCH0.c **** *  None
 323:.\Generated_Source\PSoC5/CapSense_CSD_IdacCH0.c **** *
 324:.\Generated_Source\PSoC5/CapSense_CSD_IdacCH0.c **** * Return:
 325:.\Generated_Source\PSoC5/CapSense_CSD_IdacCH0.c **** *  (void) 
 326:.\Generated_Source\PSoC5/CapSense_CSD_IdacCH0.c **** *
 327:.\Generated_Source\PSoC5/CapSense_CSD_IdacCH0.c **** * Theory:
 328:.\Generated_Source\PSoC5/CapSense_CSD_IdacCH0.c **** *  Trim values for the IDAC blocks are stored in the "Customer Table" area in 
 329:.\Generated_Source\PSoC5/CapSense_CSD_IdacCH0.c **** *  Row 1 of the Hidden Flash.  There are 8 bytes of trim data for each 
 330:.\Generated_Source\PSoC5/CapSense_CSD_IdacCH0.c **** *  IDAC block.
 331:.\Generated_Source\PSoC5/CapSense_CSD_IdacCH0.c **** *  The values are:
 332:.\Generated_Source\PSoC5/CapSense_CSD_IdacCH0.c **** *       I Gain offset, min range, Sourcing
 333:.\Generated_Source\PSoC5/CapSense_CSD_IdacCH0.c **** *       I Gain offset, min range, Sinking
 334:.\Generated_Source\PSoC5/CapSense_CSD_IdacCH0.c **** *       I Gain offset, med range, Sourcing
 335:.\Generated_Source\PSoC5/CapSense_CSD_IdacCH0.c **** *       I Gain offset, med range, Sinking
 336:.\Generated_Source\PSoC5/CapSense_CSD_IdacCH0.c **** *       I Gain offset, max range, Sourcing
 337:.\Generated_Source\PSoC5/CapSense_CSD_IdacCH0.c **** *       I Gain offset, max range, Sinking
 338:.\Generated_Source\PSoC5/CapSense_CSD_IdacCH0.c **** *       V Gain offset, 1V range
 339:.\Generated_Source\PSoC5/CapSense_CSD_IdacCH0.c **** *       V Gain offset, 4V range
 340:.\Generated_Source\PSoC5/CapSense_CSD_IdacCH0.c **** *
 341:.\Generated_Source\PSoC5/CapSense_CSD_IdacCH0.c **** * Side Effects:
 342:.\Generated_Source\PSoC5/CapSense_CSD_IdacCH0.c **** *
 343:.\Generated_Source\PSoC5/CapSense_CSD_IdacCH0.c **** *******************************************************************************/
 344:.\Generated_Source\PSoC5/CapSense_CSD_IdacCH0.c **** void CapSense_CSD_IdacCH0_DacTrim(void) 
 345:.\Generated_Source\PSoC5/CapSense_CSD_IdacCH0.c **** {
 147              		.loc 1 345 0
 148              		.cfi_startproc
 149              		@ args = 0, pretend = 0, frame = 0
 150              		@ frame_needed = 0, uses_anonymous_args = 0
 151              		@ link register save eliminated.
 346:.\Generated_Source\PSoC5/CapSense_CSD_IdacCH0.c ****     uint8 mode;
 347:.\Generated_Source\PSoC5/CapSense_CSD_IdacCH0.c **** 
 348:.\Generated_Source\PSoC5/CapSense_CSD_IdacCH0.c ****     mode = ((CapSense_CSD_IdacCH0_CR0 & CapSense_CSD_IdacCH0_RANGE_MASK) >> 1u);
 152              		.loc 1 348 0
 153 0000 094B     		ldr	r3, .L15
 154 0002 1B78     		ldrb	r3, [r3]	@ zero_extendqisi2
 155 0004 03F00C03 		and	r3, r3, #12
 156 0008 5B08     		lsrs	r3, r3, #1
 157              	.LVL3:
 349:.\Generated_Source\PSoC5/CapSense_CSD_IdacCH0.c ****     
 350:.\Generated_Source\PSoC5/CapSense_CSD_IdacCH0.c ****     if((CapSense_CSD_IdacCH0_IDIR_MASK & CapSense_CSD_IdacCH0_CR1) == CapSense_CSD_IdacCH0_IDIR_SIN
 158              		.loc 1 350 0
 159 000a 084A     		ldr	r2, .L15+4
 160 000c 1278     		ldrb	r2, [r2]	@ zero_extendqisi2
 161 000e 12F0040F 		tst	r2, #4
 162 0012 00D0     		beq	.L14
 351:.\Generated_Source\PSoC5/CapSense_CSD_IdacCH0.c ****     {
ARM GAS  C:\Users\LUKASC~1\AppData\Local\Temp\ccRRIPkh.s 			page 10


 352:.\Generated_Source\PSoC5/CapSense_CSD_IdacCH0.c ****         mode++;
 163              		.loc 1 352 0
 164 0014 0133     		adds	r3, r3, #1
 165              	.LVL4:
 166              	.L14:
 353:.\Generated_Source\PSoC5/CapSense_CSD_IdacCH0.c ****     }
 354:.\Generated_Source\PSoC5/CapSense_CSD_IdacCH0.c **** 
 355:.\Generated_Source\PSoC5/CapSense_CSD_IdacCH0.c ****     CapSense_CSD_IdacCH0_TR = CY_GET_XTND_REG8((uint8 *)(CapSense_CSD_IdacCH0_DAC_TRIM_BASE + mode)
 167              		.loc 1 355 0
 168 0016 03F19243 		add	r3, r3, #1224736768
 169              	.LVL5:
 170 001a 93F82031 		ldrb	r3, [r3, #288]	@ zero_extendqisi2
 171 001e DBB2     		uxtb	r3, r3
 172 0020 034A     		ldr	r2, .L15+8
 173 0022 1370     		strb	r3, [r2]
 174 0024 7047     		bx	lr
 175              	.L16:
 176 0026 00BF     		.align	2
 177              	.L15:
 178 0028 20580040 		.word	1073764384
 179 002c 21580040 		.word	1073764385
 180 0030 08460040 		.word	1073759752
 181              		.cfi_endproc
 182              	.LFE8:
 183              		.size	CapSense_CSD_IdacCH0_DacTrim, .-CapSense_CSD_IdacCH0_DacTrim
 184              		.section	.text.CapSense_CSD_IdacCH0_Init,"ax",%progbits
 185              		.align	2
 186              		.global	CapSense_CSD_IdacCH0_Init
 187              		.thumb
 188              		.thumb_func
 189              		.type	CapSense_CSD_IdacCH0_Init, %function
 190              	CapSense_CSD_IdacCH0_Init:
 191              	.LFB0:
  59:.\Generated_Source\PSoC5/CapSense_CSD_IdacCH0.c ****     CapSense_CSD_IdacCH0_CR0 = (CapSense_CSD_IdacCH0_MODE_I | CapSense_CSD_IdacCH0_DEFAULT_RANGE );
 192              		.loc 1 59 0
 193              		.cfi_startproc
 194              		@ args = 0, pretend = 0, frame = 0
 195              		@ frame_needed = 0, uses_anonymous_args = 0
 196 0000 08B5     		push	{r3, lr}
 197              		.cfi_def_cfa_offset 8
 198              		.cfi_offset 3, -8
 199              		.cfi_offset 14, -4
  60:.\Generated_Source\PSoC5/CapSense_CSD_IdacCH0.c **** 
 200              		.loc 1 60 0
 201 0002 1422     		movs	r2, #20
 202 0004 084B     		ldr	r3, .L19
 203 0006 1A70     		strb	r2, [r3]
  66:.\Generated_Source\PSoC5/CapSense_CSD_IdacCH0.c ****     #endif /* (CapSense_CSD_IdacCH0_DEFAULT_DATA_SRC != 0u ) */
 204              		.loc 1 66 0
 205 0008 0133     		adds	r3, r3, #1
 206 000a 0020     		movs	r0, #0
 207 000c 1870     		strb	r0, [r3]
  73:.\Generated_Source\PSoC5/CapSense_CSD_IdacCH0.c ****     #endif/* (CapSense_CSD_IdacCH0_DEFAULT_POLARITY == CapSense_CSD_IdacCH0_HARDWARE_CONTROLLED) */
 208              		.loc 1 73 0
 209 000e 1A78     		ldrb	r2, [r3]	@ zero_extendqisi2
 210 0010 42F00402 		orr	r2, r2, #4
 211 0014 1A70     		strb	r2, [r3]
ARM GAS  C:\Users\LUKASC~1\AppData\Local\Temp\ccRRIPkh.s 			page 11


  77:.\Generated_Source\PSoC5/CapSense_CSD_IdacCH0.c ****     #endif /* (CapSense_CSD_IdacCH0_HARDWARE_ENABLE != 0u ) */ 
 212              		.loc 1 77 0
 213 0016 1A78     		ldrb	r2, [r3]	@ zero_extendqisi2
 214 0018 42F00202 		orr	r2, r2, #2
 215 001c 1A70     		strb	r2, [r3]
  86:.\Generated_Source\PSoC5/CapSense_CSD_IdacCH0.c ****     
 216              		.loc 1 86 0
 217 001e FFF7FEFF 		bl	CapSense_CSD_IdacCH0_SetSpeed
 218              	.LVL6:
  89:.\Generated_Source\PSoC5/CapSense_CSD_IdacCH0.c ****     
 219              		.loc 1 89 0
 220 0022 FFF7FEFF 		bl	CapSense_CSD_IdacCH0_DacTrim
 221              	.LVL7:
 222 0026 08BD     		pop	{r3, pc}
 223              	.L20:
 224              		.align	2
 225              	.L19:
 226 0028 20580040 		.word	1073764384
 227              		.cfi_endproc
 228              	.LFE0:
 229              		.size	CapSense_CSD_IdacCH0_Init, .-CapSense_CSD_IdacCH0_Init
 230              		.section	.text.CapSense_CSD_IdacCH0_Start,"ax",%progbits
 231              		.align	2
 232              		.global	CapSense_CSD_IdacCH0_Start
 233              		.thumb
 234              		.thumb_func
 235              		.type	CapSense_CSD_IdacCH0_Start, %function
 236              	CapSense_CSD_IdacCH0_Start:
 237              	.LFB2:
 148:.\Generated_Source\PSoC5/CapSense_CSD_IdacCH0.c ****     /* Hardware initiazation only needs to occur the first time */
 238              		.loc 1 148 0
 239              		.cfi_startproc
 240              		@ args = 0, pretend = 0, frame = 0
 241              		@ frame_needed = 0, uses_anonymous_args = 0
 242 0000 08B5     		push	{r3, lr}
 243              		.cfi_def_cfa_offset 8
 244              		.cfi_offset 3, -8
 245              		.cfi_offset 14, -4
 150:.\Generated_Source\PSoC5/CapSense_CSD_IdacCH0.c ****     {
 246              		.loc 1 150 0
 247 0002 074B     		ldr	r3, .L24
 248 0004 1B78     		ldrb	r3, [r3]	@ zero_extendqisi2
 249 0006 23B9     		cbnz	r3, .L22
 152:.\Generated_Source\PSoC5/CapSense_CSD_IdacCH0.c ****         
 250              		.loc 1 152 0
 251 0008 FFF7FEFF 		bl	CapSense_CSD_IdacCH0_Init
 252              	.LVL8:
 154:.\Generated_Source\PSoC5/CapSense_CSD_IdacCH0.c ****     }
 253              		.loc 1 154 0
 254 000c 0122     		movs	r2, #1
 255 000e 044B     		ldr	r3, .L24
 256 0010 1A70     		strb	r2, [r3]
 257              	.L22:
 158:.\Generated_Source\PSoC5/CapSense_CSD_IdacCH0.c **** 
 258              		.loc 1 158 0
 259 0012 FFF7FEFF 		bl	CapSense_CSD_IdacCH0_Enable
 260              	.LVL9:
ARM GAS  C:\Users\LUKASC~1\AppData\Local\Temp\ccRRIPkh.s 			page 12


 161:.\Generated_Source\PSoC5/CapSense_CSD_IdacCH0.c **** 
 261              		.loc 1 161 0
 262 0016 0020     		movs	r0, #0
 263 0018 FFF7FEFF 		bl	CapSense_CSD_IdacCH0_SetValue
 264              	.LVL10:
 265 001c 08BD     		pop	{r3, pc}
 266              	.L25:
 267 001e 00BF     		.align	2
 268              	.L24:
 269 0020 00000000 		.word	.LANCHOR0
 270              		.cfi_endproc
 271              	.LFE2:
 272              		.size	CapSense_CSD_IdacCH0_Start, .-CapSense_CSD_IdacCH0_Start
 273              		.section	.text.CapSense_CSD_IdacCH0_SetPolarity,"ax",%progbits
 274              		.align	2
 275              		.global	CapSense_CSD_IdacCH0_SetPolarity
 276              		.thumb
 277              		.thumb_func
 278              		.type	CapSense_CSD_IdacCH0_SetPolarity, %function
 279              	CapSense_CSD_IdacCH0_SetPolarity:
 280              	.LFB5:
 247:.\Generated_Source\PSoC5/CapSense_CSD_IdacCH0.c ****         CapSense_CSD_IdacCH0_CR1 &= (uint8)(~CapSense_CSD_IdacCH0_IDIR_MASK);                /* cle
 281              		.loc 1 247 0
 282              		.cfi_startproc
 283              		@ args = 0, pretend = 0, frame = 0
 284              		@ frame_needed = 0, uses_anonymous_args = 0
 285              	.LVL11:
 286 0000 08B5     		push	{r3, lr}
 287              		.cfi_def_cfa_offset 8
 288              		.cfi_offset 3, -8
 289              		.cfi_offset 14, -4
 248:.\Generated_Source\PSoC5/CapSense_CSD_IdacCH0.c ****         CapSense_CSD_IdacCH0_CR1 |= (polarity & CapSense_CSD_IdacCH0_IDIR_MASK);             /* set
 290              		.loc 1 248 0
 291 0002 064B     		ldr	r3, .L28
 292 0004 1A78     		ldrb	r2, [r3]	@ zero_extendqisi2
 293 0006 02F0FB02 		and	r2, r2, #251
 294 000a 1A70     		strb	r2, [r3]
 249:.\Generated_Source\PSoC5/CapSense_CSD_IdacCH0.c ****     
 295              		.loc 1 249 0
 296 000c 1A78     		ldrb	r2, [r3]	@ zero_extendqisi2
 297 000e 00F00400 		and	r0, r0, #4
 298              	.LVL12:
 299 0012 1043     		orrs	r0, r0, r2
 300 0014 1870     		strb	r0, [r3]
 251:.\Generated_Source\PSoC5/CapSense_CSD_IdacCH0.c ****     }
 301              		.loc 1 251 0
 302 0016 FFF7FEFF 		bl	CapSense_CSD_IdacCH0_DacTrim
 303              	.LVL13:
 304 001a 08BD     		pop	{r3, pc}
 305              	.L29:
 306              		.align	2
 307              	.L28:
 308 001c 21580040 		.word	1073764385
 309              		.cfi_endproc
 310              	.LFE5:
 311              		.size	CapSense_CSD_IdacCH0_SetPolarity, .-CapSense_CSD_IdacCH0_SetPolarity
 312              		.section	.text.CapSense_CSD_IdacCH0_SetRange,"ax",%progbits
ARM GAS  C:\Users\LUKASC~1\AppData\Local\Temp\ccRRIPkh.s 			page 13


 313              		.align	2
 314              		.global	CapSense_CSD_IdacCH0_SetRange
 315              		.thumb
 316              		.thumb_func
 317              		.type	CapSense_CSD_IdacCH0_SetRange, %function
 318              	CapSense_CSD_IdacCH0_SetRange:
 319              	.LFB6:
 274:.\Generated_Source\PSoC5/CapSense_CSD_IdacCH0.c ****     CapSense_CSD_IdacCH0_CR0 &= (uint8)(~CapSense_CSD_IdacCH0_RANGE_MASK);       /* Clear existing 
 320              		.loc 1 274 0
 321              		.cfi_startproc
 322              		@ args = 0, pretend = 0, frame = 0
 323              		@ frame_needed = 0, uses_anonymous_args = 0
 324              	.LVL14:
 325 0000 08B5     		push	{r3, lr}
 326              		.cfi_def_cfa_offset 8
 327              		.cfi_offset 3, -8
 328              		.cfi_offset 14, -4
 275:.\Generated_Source\PSoC5/CapSense_CSD_IdacCH0.c ****     CapSense_CSD_IdacCH0_CR0 |= ( range & CapSense_CSD_IdacCH0_RANGE_MASK );     /*  Set Range  */
 329              		.loc 1 275 0
 330 0002 064B     		ldr	r3, .L32
 331 0004 1A78     		ldrb	r2, [r3]	@ zero_extendqisi2
 332 0006 02F0F302 		and	r2, r2, #243
 333 000a 1A70     		strb	r2, [r3]
 276:.\Generated_Source\PSoC5/CapSense_CSD_IdacCH0.c ****     CapSense_CSD_IdacCH0_DacTrim();
 334              		.loc 1 276 0
 335 000c 1A78     		ldrb	r2, [r3]	@ zero_extendqisi2
 336 000e 00F00C00 		and	r0, r0, #12
 337              	.LVL15:
 338 0012 1043     		orrs	r0, r0, r2
 339 0014 1870     		strb	r0, [r3]
 277:.\Generated_Source\PSoC5/CapSense_CSD_IdacCH0.c **** }
 340              		.loc 1 277 0
 341 0016 FFF7FEFF 		bl	CapSense_CSD_IdacCH0_DacTrim
 342              	.LVL16:
 343 001a 08BD     		pop	{r3, pc}
 344              	.L33:
 345              		.align	2
 346              	.L32:
 347 001c 20580040 		.word	1073764384
 348              		.cfi_endproc
 349              	.LFE6:
 350              		.size	CapSense_CSD_IdacCH0_SetRange, .-CapSense_CSD_IdacCH0_SetRange
 351              		.global	CapSense_CSD_IdacCH0_initVar
 352              		.bss
 353              		.set	.LANCHOR0,. + 0
 354              		.type	CapSense_CSD_IdacCH0_initVar, %object
 355              		.size	CapSense_CSD_IdacCH0_initVar, 1
 356              	CapSense_CSD_IdacCH0_initVar:
 357 0000 00       		.space	1
 358              		.text
 359              	.Letext0:
 360              		.file 2 ".\\Generated_Source\\PSoC5\\cytypes.h"