ARM GAS  C:\Users\LUKASC~1\AppData\Local\Temp\cc2Lo7jj.s 			page 1


   1              		.syntax unified
   2              		.cpu cortex-m3
   3              		.fpu softvfp
   4              		.eabi_attribute 20, 1
   5              		.eabi_attribute 21, 1
   6              		.eabi_attribute 23, 3
   7              		.eabi_attribute 24, 1
   8              		.eabi_attribute 25, 1
   9              		.eabi_attribute 26, 1
  10              		.eabi_attribute 30, 1
  11              		.eabi_attribute 34, 1
  12              		.eabi_attribute 18, 4
  13              		.thumb
  14              		.file	"capsense.c"
  15              		.text
  16              	.Ltext0:
  17              		.cfi_sections	.debug_frame
  18              		.section	.text.CapSenseInit,"ax",%progbits
  19              		.align	2
  20              		.global	CapSenseInit
  21              		.thumb
  22              		.thumb_func
  23              		.type	CapSenseInit, %function
  24              	CapSenseInit:
  25              	.LFB63:
  26              		.file 1 ".\\capsense.c"
   1:.\capsense.c  **** /* ========================================
   2:.\capsense.c  **** * File Name: capsense.h
   3:.\capsense.c  **** *
   4:.\capsense.c  **** * Version: 0
   5:.\capsense.c  **** * Author: Lukas Creutzburg
   6:.\capsense.c  **** *
   7:.\capsense.c  **** *  Description:
   8:.\capsense.c  **** *  CapSense module
   9:.\capsense.c  **** *
  10:.\capsense.c  **** * =================================================================================================
  11:.\capsense.c  **** */
  12:.\capsense.c  **** #include "capsense.h"
  13:.\capsense.c  **** 
  14:.\capsense.c  **** /* Variables */
  15:.\capsense.c  **** 
  16:.\capsense.c  **** uint16 curPos, oldPos;
  17:.\capsense.c  **** 
  18:.\capsense.c  **** //_________________________________
  19:.\capsense.c  **** 
  20:.\capsense.c  **** /*******************************************************************************
  21:.\capsense.c  **** * Function Name:  CapSenseInit
  22:.\capsense.c  **** ********************************************************************************
  23:.\capsense.c  **** *
  24:.\capsense.c  **** * Summary:
  25:.\capsense.c  **** *   Initializes CapSense  
  26:.\capsense.c  **** *
  27:.\capsense.c  **** * Parameters:  
  28:.\capsense.c  **** *  None
  29:.\capsense.c  **** *
  30:.\capsense.c  **** * Return: 
  31:.\capsense.c  **** *  None 
ARM GAS  C:\Users\LUKASC~1\AppData\Local\Temp\cc2Lo7jj.s 			page 2


  32:.\capsense.c  **** *  
  33:.\capsense.c  **** *******************************************************************************/
  34:.\capsense.c  **** void CapSenseInit(void)
  35:.\capsense.c  **** {
  27              		.loc 1 35 0
  28              		.cfi_startproc
  29              		@ args = 0, pretend = 0, frame = 0
  30              		@ frame_needed = 0, uses_anonymous_args = 0
  31 0000 08B5     		push	{r3, lr}
  32              		.cfi_def_cfa_offset 8
  33              		.cfi_offset 3, -8
  34              		.cfi_offset 14, -4
  36:.\capsense.c  ****     /* Start CapSense components */
  37:.\capsense.c  ****     CapSense_CSD_Start();
  35              		.loc 1 37 0
  36 0002 FFF7FEFF 		bl	CapSense_CSD_Start
  37              	.LVL0:
  38:.\capsense.c  ****     
  39:.\capsense.c  ****     /* Initialize baselines */
  40:.\capsense.c  ****     CapSense_CSD_InitializeAllBaselines();
  38              		.loc 1 40 0
  39 0006 FFF7FEFF 		bl	CapSense_CSD_InitializeAllBaselines
  40              	.LVL1:
  41 000a 08BD     		pop	{r3, pc}
  42              		.cfi_endproc
  43              	.LFE63:
  44              		.size	CapSenseInit, .-CapSenseInit
  45              		.section	.text.CapSense_DisplayState,"ax",%progbits
  46              		.align	2
  47              		.global	CapSense_DisplayState
  48              		.thumb
  49              		.thumb_func
  50              		.type	CapSense_DisplayState, %function
  51              	CapSense_DisplayState:
  52              	.LFB64:
  41:.\capsense.c  **** }
  42:.\capsense.c  **** //_________________________________________________________
  43:.\capsense.c  **** 
  44:.\capsense.c  **** /*******************************************************************************
  45:.\capsense.c  **** * Function Name: CapSense_DisplayState
  46:.\capsense.c  **** ********************************************************************************
  47:.\capsense.c  **** *
  48:.\capsense.c  **** * Summary:
  49:.\capsense.c  **** *  Get current CapSense State
  50:.\capsense.c  **** *
  51:.\capsense.c  **** * Parameters:  
  52:.\capsense.c  **** *   None
  53:.\capsense.c  **** * Return: 
  54:.\capsense.c  **** *   uint32: Position on slider
  55:.\capsense.c  **** *
  56:.\capsense.c  **** *******************************************************************************/
  57:.\capsense.c  **** uint32 CapSense_DisplayState(void)
  58:.\capsense.c  **** {
  53              		.loc 1 58 0
  54              		.cfi_startproc
  55              		@ args = 0, pretend = 0, frame = 0
  56              		@ frame_needed = 0, uses_anonymous_args = 0
ARM GAS  C:\Users\LUKASC~1\AppData\Local\Temp\cc2Lo7jj.s 			page 3


  57 0000 08B5     		push	{r3, lr}
  58              		.cfi_def_cfa_offset 8
  59              		.cfi_offset 3, -8
  60              		.cfi_offset 14, -4
  59:.\capsense.c  ****     /* Find Slider Position */
  60:.\capsense.c  ****     curPos = CapSense_CSD_GetCentroidPos(CapSense_CSD_LINEARSLIDER0__LS);
  61              		.loc 1 60 0
  62 0002 0020     		movs	r0, #0
  63 0004 FFF7FEFF 		bl	CapSense_CSD_GetCentroidPos
  64              	.LVL2:
  65 0008 0C4B     		ldr	r3, .L9
  66 000a 1880     		strh	r0, [r3]	@ movhi
  61:.\capsense.c  **** 
  62:.\capsense.c  ****     /* Reset position */
  63:.\capsense.c  ****     if(curPos == 0xFFFFu)
  67              		.loc 1 63 0
  68 000c 4FF6FF73 		movw	r3, #65535
  69 0010 9842     		cmp	r0, r3
  70 0012 02D1     		bne	.L4
  64:.\capsense.c  ****     {
  65:.\capsense.c  ****         curPos = 0u;
  71              		.loc 1 65 0
  72 0014 0022     		movs	r2, #0
  73 0016 094B     		ldr	r3, .L9
  74 0018 1A80     		strh	r2, [r3]	@ movhi
  75              	.L4:
  66:.\capsense.c  ****     }
  67:.\capsense.c  **** 
  68:.\capsense.c  ****     /* Move bargraph */
  69:.\capsense.c  ****     if (curPos != oldPos)
  76              		.loc 1 69 0
  77 001a 084B     		ldr	r3, .L9
  78 001c 1888     		ldrh	r0, [r3]
  79 001e 084B     		ldr	r3, .L9+4
  80 0020 1B88     		ldrh	r3, [r3]
  81 0022 9842     		cmp	r0, r3
  82 0024 04D0     		beq	.L6
  70:.\capsense.c  ****     {
  71:.\capsense.c  ****         oldPos = curPos;
  83              		.loc 1 71 0
  84 0026 064B     		ldr	r3, .L9+4
  85 0028 1880     		strh	r0, [r3]	@ movhi
  72:.\capsense.c  ****         /* Display Slider bargraph */
  73:.\capsense.c  ****         if (curPos != 0u)
  86              		.loc 1 73 0
  87 002a 20B1     		cbz	r0, .L7
  88              	.LBB2:
  74:.\capsense.c  ****         {
  75:.\capsense.c  ****             uint32 myInt = (uint32)curPos << SLIDER_POS_TO_COMPARE_SHIFT; 
  89              		.loc 1 75 0
  90 002c 4002     		lsls	r0, r0, #9
  76:.\capsense.c  ****             return myInt;
  91              		.loc 1 76 0
  92 002e 08BD     		pop	{r3, pc}
  93              	.L6:
  94              	.LBE2:
  77:.\capsense.c  ****         }
ARM GAS  C:\Users\LUKASC~1\AppData\Local\Temp\cc2Lo7jj.s 			page 4


  78:.\capsense.c  ****     }
  79:.\capsense.c  ****     //not moved
  80:.\capsense.c  ****     return -1;
  95              		.loc 1 80 0
  96 0030 4FF0FF30 		mov	r0, #-1
  97 0034 08BD     		pop	{r3, pc}
  98              	.L7:
  99 0036 4FF0FF30 		mov	r0, #-1
  81:.\capsense.c  **** }
 100              		.loc 1 81 0
 101 003a 08BD     		pop	{r3, pc}
 102              	.L10:
 103              		.align	2
 104              	.L9:
 105 003c 00000000 		.word	curPos
 106 0040 00000000 		.word	oldPos
 107              		.cfi_endproc
 108              	.LFE64:
 109              		.size	CapSense_DisplayState, .-CapSense_DisplayState
 110              		.section	.text.CapSense_Refresh,"ax",%progbits
 111              		.align	2
 112              		.global	CapSense_Refresh
 113              		.thumb
 114              		.thumb_func
 115              		.type	CapSense_Refresh, %function
 116              	CapSense_Refresh:
 117              	.LFB65:
  82:.\capsense.c  **** //_________________________________________________________
  83:.\capsense.c  **** 
  84:.\capsense.c  **** /*******************************************************************************
  85:.\capsense.c  **** * Function Name: CapSense_Refresh
  86:.\capsense.c  **** ********************************************************************************
  87:.\capsense.c  **** *
  88:.\capsense.c  **** * Summary:
  89:.\capsense.c  **** *  Refresh CapSense
  90:.\capsense.c  **** *
  91:.\capsense.c  **** * Parameters:  
  92:.\capsense.c  **** *   None
  93:.\capsense.c  **** * Return: 
  94:.\capsense.c  **** *   uint32: Position on slider
  95:.\capsense.c  **** *
  96:.\capsense.c  **** *******************************************************************************/
  97:.\capsense.c  **** int32 CapSense_Refresh(void)
  98:.\capsense.c  **** {
 118              		.loc 1 98 0
 119              		.cfi_startproc
 120              		@ args = 0, pretend = 0, frame = 0
 121              		@ frame_needed = 0, uses_anonymous_args = 0
 122 0000 08B5     		push	{r3, lr}
 123              		.cfi_def_cfa_offset 8
 124              		.cfi_offset 3, -8
 125              		.cfi_offset 14, -4
  99:.\capsense.c  ****     /* Check whether the scanning of all enabled widgets is completed. */
 100:.\capsense.c  ****         if(0u == CapSense_CSD_IsBusy())
 126              		.loc 1 100 0
 127 0002 FFF7FEFF 		bl	CapSense_CSD_IsBusy
 128              	.LVL3:
ARM GAS  C:\Users\LUKASC~1\AppData\Local\Temp\cc2Lo7jj.s 			page 5


 129 0006 18B9     		cbnz	r0, .L12
 101:.\capsense.c  ****         {
 102:.\capsense.c  ****             /* Update all baselines */
 103:.\capsense.c  ****             CapSense_CSD_UpdateEnabledBaselines();
 130              		.loc 1 103 0
 131 0008 FFF7FEFF 		bl	CapSense_CSD_UpdateEnabledBaselines
 132              	.LVL4:
 104:.\capsense.c  **** 
 105:.\capsense.c  ****             /* Start scanning all enabled sensors */
 106:.\capsense.c  ****             CapSense_CSD_ScanEnabledWidgets();
 133              		.loc 1 106 0
 134 000c FFF7FEFF 		bl	CapSense_CSD_ScanEnabledWidgets
 135              	.LVL5:
 136              	.L12:
 107:.\capsense.c  ****         }
 108:.\capsense.c  **** 
 109:.\capsense.c  ****         /* Display CapSense state using LEDs */
 110:.\capsense.c  ****         return CapSense_DisplayState();
 137              		.loc 1 110 0
 138 0010 FFF7FEFF 		bl	CapSense_DisplayState
 139              	.LVL6:
 111:.\capsense.c  **** }
 140              		.loc 1 111 0
 141 0014 08BD     		pop	{r3, pc}
 142              		.cfi_endproc
 143              	.LFE65:
 144              		.size	CapSense_Refresh, .-CapSense_Refresh
 145              		.comm	oldPos,2,2
 146              		.comm	curPos,2,2
 147 0016 00BF     		.text
 148              	.Letext0:
 149              		.file 2 "c:\\program files (x86)\\cypress\\psoc creator\\3.3\\psoc creator\\import\\gnu\\arm\\4.9.
 150              		.file 3 "c:\\program files (x86)\\cypress\\psoc creator\\3.3\\psoc creator\\import\\gnu\\arm\\4.9.
 151              		.file 4 "Generated_Source\\PSoC5/cytypes.h"
 152              		.file 5 "Generated_Source\\PSoC5/core_cm3.h"
 153              		.file 6 "Generated_Source\\PSoC5/CapSense_CSD.h"
 154              		.file 7 "Generated_Source\\PSoC5/CapSense_CSD_CSHL.h"