ARM GAS  C:\Users\LUKASC~1\AppData\Local\Temp\ccaVFlcf.s 			page 1


   1              		.syntax unified
   2              		.cpu cortex-m3
   3              		.fpu softvfp
   4              		.eabi_attribute 20, 1
   5              		.eabi_attribute 21, 1
   6              		.eabi_attribute 23, 3
   7              		.eabi_attribute 24, 1
   8              		.eabi_attribute 25, 1
   9              		.eabi_attribute 26, 1
  10              		.eabi_attribute 30, 1
  11              		.eabi_attribute 34, 1
  12              		.eabi_attribute 18, 4
  13              		.thumb
  14              		.file	"CapSense_CSD_CompCH0_PM.c"
  15              		.text
  16              	.Ltext0:
  17              		.cfi_sections	.debug_frame
  18              		.section	.text.CapSense_CSD_CompCH0_SaveConfig,"ax",%progbits
  19              		.align	2
  20              		.global	CapSense_CSD_CompCH0_SaveConfig
  21              		.thumb
  22              		.thumb_func
  23              		.type	CapSense_CSD_CompCH0_SaveConfig, %function
  24              	CapSense_CSD_CompCH0_SaveConfig:
  25              	.LFB0:
  26              		.file 1 ".\\Generated_Source\\PSoC5\\CapSense_CSD_CompCH0_PM.c"
   1:.\Generated_Source\PSoC5/CapSense_CSD_CompCH0_PM.c **** /*******************************************************************************
   2:.\Generated_Source\PSoC5/CapSense_CSD_CompCH0_PM.c **** * File Name: CapSense_CSD_CompCH0.c
   3:.\Generated_Source\PSoC5/CapSense_CSD_CompCH0_PM.c **** * Version 2.0
   4:.\Generated_Source\PSoC5/CapSense_CSD_CompCH0_PM.c **** *
   5:.\Generated_Source\PSoC5/CapSense_CSD_CompCH0_PM.c **** * Description:
   6:.\Generated_Source\PSoC5/CapSense_CSD_CompCH0_PM.c **** *  This file provides the power management source code APIs for the
   7:.\Generated_Source\PSoC5/CapSense_CSD_CompCH0_PM.c **** *  Comparator.
   8:.\Generated_Source\PSoC5/CapSense_CSD_CompCH0_PM.c **** *
   9:.\Generated_Source\PSoC5/CapSense_CSD_CompCH0_PM.c **** * Note:
  10:.\Generated_Source\PSoC5/CapSense_CSD_CompCH0_PM.c **** *  None
  11:.\Generated_Source\PSoC5/CapSense_CSD_CompCH0_PM.c **** *
  12:.\Generated_Source\PSoC5/CapSense_CSD_CompCH0_PM.c **** ********************************************************************************
  13:.\Generated_Source\PSoC5/CapSense_CSD_CompCH0_PM.c **** * Copyright 2008-2012, Cypress Semiconductor Corporation.  All rights reserved.
  14:.\Generated_Source\PSoC5/CapSense_CSD_CompCH0_PM.c **** * You may use this file only in accordance with the license, terms, conditions, 
  15:.\Generated_Source\PSoC5/CapSense_CSD_CompCH0_PM.c **** * disclaimers, and limitations in the end user license agreement accompanying 
  16:.\Generated_Source\PSoC5/CapSense_CSD_CompCH0_PM.c **** * the software package with which this file was provided.
  17:.\Generated_Source\PSoC5/CapSense_CSD_CompCH0_PM.c **** *******************************************************************************/
  18:.\Generated_Source\PSoC5/CapSense_CSD_CompCH0_PM.c **** 
  19:.\Generated_Source\PSoC5/CapSense_CSD_CompCH0_PM.c **** #include "CapSense_CSD_CompCH0.h"
  20:.\Generated_Source\PSoC5/CapSense_CSD_CompCH0_PM.c **** 
  21:.\Generated_Source\PSoC5/CapSense_CSD_CompCH0_PM.c **** static CapSense_CSD_CompCH0_backupStruct CapSense_CSD_CompCH0_backup;
  22:.\Generated_Source\PSoC5/CapSense_CSD_CompCH0_PM.c **** 
  23:.\Generated_Source\PSoC5/CapSense_CSD_CompCH0_PM.c **** 
  24:.\Generated_Source\PSoC5/CapSense_CSD_CompCH0_PM.c **** /*******************************************************************************
  25:.\Generated_Source\PSoC5/CapSense_CSD_CompCH0_PM.c **** * Function Name: CapSense_CSD_CompCH0_SaveConfig
  26:.\Generated_Source\PSoC5/CapSense_CSD_CompCH0_PM.c **** ********************************************************************************
  27:.\Generated_Source\PSoC5/CapSense_CSD_CompCH0_PM.c **** *
  28:.\Generated_Source\PSoC5/CapSense_CSD_CompCH0_PM.c **** * Summary:
  29:.\Generated_Source\PSoC5/CapSense_CSD_CompCH0_PM.c **** *  Save the current user configuration
  30:.\Generated_Source\PSoC5/CapSense_CSD_CompCH0_PM.c **** *
  31:.\Generated_Source\PSoC5/CapSense_CSD_CompCH0_PM.c **** * Parameters:
ARM GAS  C:\Users\LUKASC~1\AppData\Local\Temp\ccaVFlcf.s 			page 2


  32:.\Generated_Source\PSoC5/CapSense_CSD_CompCH0_PM.c **** *  void:
  33:.\Generated_Source\PSoC5/CapSense_CSD_CompCH0_PM.c **** *
  34:.\Generated_Source\PSoC5/CapSense_CSD_CompCH0_PM.c **** * Return:
  35:.\Generated_Source\PSoC5/CapSense_CSD_CompCH0_PM.c **** *  void
  36:.\Generated_Source\PSoC5/CapSense_CSD_CompCH0_PM.c **** *
  37:.\Generated_Source\PSoC5/CapSense_CSD_CompCH0_PM.c **** *******************************************************************************/
  38:.\Generated_Source\PSoC5/CapSense_CSD_CompCH0_PM.c **** void CapSense_CSD_CompCH0_SaveConfig(void) 
  39:.\Generated_Source\PSoC5/CapSense_CSD_CompCH0_PM.c **** {
  27              		.loc 1 39 0
  28              		.cfi_startproc
  29              		@ args = 0, pretend = 0, frame = 0
  30              		@ frame_needed = 0, uses_anonymous_args = 0
  31              		@ link register save eliminated.
  32 0000 7047     		bx	lr
  33              		.cfi_endproc
  34              	.LFE0:
  35              		.size	CapSense_CSD_CompCH0_SaveConfig, .-CapSense_CSD_CompCH0_SaveConfig
  36 0002 00BF     		.section	.text.CapSense_CSD_CompCH0_RestoreConfig,"ax",%progbits
  37              		.align	2
  38              		.global	CapSense_CSD_CompCH0_RestoreConfig
  39              		.thumb
  40              		.thumb_func
  41              		.type	CapSense_CSD_CompCH0_RestoreConfig, %function
  42              	CapSense_CSD_CompCH0_RestoreConfig:
  43              	.LFB1:
  40:.\Generated_Source\PSoC5/CapSense_CSD_CompCH0_PM.c ****     /* Empty since all are system reset for retention flops */
  41:.\Generated_Source\PSoC5/CapSense_CSD_CompCH0_PM.c **** }
  42:.\Generated_Source\PSoC5/CapSense_CSD_CompCH0_PM.c **** 
  43:.\Generated_Source\PSoC5/CapSense_CSD_CompCH0_PM.c **** 
  44:.\Generated_Source\PSoC5/CapSense_CSD_CompCH0_PM.c **** /*******************************************************************************
  45:.\Generated_Source\PSoC5/CapSense_CSD_CompCH0_PM.c **** * Function Name: CapSense_CSD_CompCH0_RestoreConfig
  46:.\Generated_Source\PSoC5/CapSense_CSD_CompCH0_PM.c **** ********************************************************************************
  47:.\Generated_Source\PSoC5/CapSense_CSD_CompCH0_PM.c **** *
  48:.\Generated_Source\PSoC5/CapSense_CSD_CompCH0_PM.c **** * Summary:
  49:.\Generated_Source\PSoC5/CapSense_CSD_CompCH0_PM.c **** *  Restores the current user configuration.
  50:.\Generated_Source\PSoC5/CapSense_CSD_CompCH0_PM.c **** *
  51:.\Generated_Source\PSoC5/CapSense_CSD_CompCH0_PM.c **** * Parameters:
  52:.\Generated_Source\PSoC5/CapSense_CSD_CompCH0_PM.c **** *  void
  53:.\Generated_Source\PSoC5/CapSense_CSD_CompCH0_PM.c **** *
  54:.\Generated_Source\PSoC5/CapSense_CSD_CompCH0_PM.c **** * Return:
  55:.\Generated_Source\PSoC5/CapSense_CSD_CompCH0_PM.c **** *  void
  56:.\Generated_Source\PSoC5/CapSense_CSD_CompCH0_PM.c **** *
  57:.\Generated_Source\PSoC5/CapSense_CSD_CompCH0_PM.c **** ********************************************************************************/
  58:.\Generated_Source\PSoC5/CapSense_CSD_CompCH0_PM.c **** void CapSense_CSD_CompCH0_RestoreConfig(void) 
  59:.\Generated_Source\PSoC5/CapSense_CSD_CompCH0_PM.c **** {
  44              		.loc 1 59 0
  45              		.cfi_startproc
  46              		@ args = 0, pretend = 0, frame = 0
  47              		@ frame_needed = 0, uses_anonymous_args = 0
  48              		@ link register save eliminated.
  49 0000 7047     		bx	lr
  50              		.cfi_endproc
  51              	.LFE1:
  52              		.size	CapSense_CSD_CompCH0_RestoreConfig, .-CapSense_CSD_CompCH0_RestoreConfig
  53 0002 00BF     		.section	.text.CapSense_CSD_CompCH0_Sleep,"ax",%progbits
  54              		.align	2
  55              		.global	CapSense_CSD_CompCH0_Sleep
ARM GAS  C:\Users\LUKASC~1\AppData\Local\Temp\ccaVFlcf.s 			page 3


  56              		.thumb
  57              		.thumb_func
  58              		.type	CapSense_CSD_CompCH0_Sleep, %function
  59              	CapSense_CSD_CompCH0_Sleep:
  60              	.LFB2:
  60:.\Generated_Source\PSoC5/CapSense_CSD_CompCH0_PM.c ****     /* Empty since all are system reset for retention flops */    
  61:.\Generated_Source\PSoC5/CapSense_CSD_CompCH0_PM.c **** }
  62:.\Generated_Source\PSoC5/CapSense_CSD_CompCH0_PM.c **** 
  63:.\Generated_Source\PSoC5/CapSense_CSD_CompCH0_PM.c **** 
  64:.\Generated_Source\PSoC5/CapSense_CSD_CompCH0_PM.c **** /*******************************************************************************
  65:.\Generated_Source\PSoC5/CapSense_CSD_CompCH0_PM.c **** * Function Name: CapSense_CSD_CompCH0_Sleep
  66:.\Generated_Source\PSoC5/CapSense_CSD_CompCH0_PM.c **** ********************************************************************************
  67:.\Generated_Source\PSoC5/CapSense_CSD_CompCH0_PM.c **** *
  68:.\Generated_Source\PSoC5/CapSense_CSD_CompCH0_PM.c **** * Summary:
  69:.\Generated_Source\PSoC5/CapSense_CSD_CompCH0_PM.c **** *  Stop and Save the user configuration
  70:.\Generated_Source\PSoC5/CapSense_CSD_CompCH0_PM.c **** *
  71:.\Generated_Source\PSoC5/CapSense_CSD_CompCH0_PM.c **** * Parameters:
  72:.\Generated_Source\PSoC5/CapSense_CSD_CompCH0_PM.c **** *  void:
  73:.\Generated_Source\PSoC5/CapSense_CSD_CompCH0_PM.c **** *
  74:.\Generated_Source\PSoC5/CapSense_CSD_CompCH0_PM.c **** * Return:
  75:.\Generated_Source\PSoC5/CapSense_CSD_CompCH0_PM.c **** *  void
  76:.\Generated_Source\PSoC5/CapSense_CSD_CompCH0_PM.c **** *
  77:.\Generated_Source\PSoC5/CapSense_CSD_CompCH0_PM.c **** * Global variables:
  78:.\Generated_Source\PSoC5/CapSense_CSD_CompCH0_PM.c **** *  CapSense_CSD_CompCH0_backup.enableState:  Is modified depending on the enable 
  79:.\Generated_Source\PSoC5/CapSense_CSD_CompCH0_PM.c **** *   state of the block before entering sleep mode.
  80:.\Generated_Source\PSoC5/CapSense_CSD_CompCH0_PM.c **** *
  81:.\Generated_Source\PSoC5/CapSense_CSD_CompCH0_PM.c **** *******************************************************************************/
  82:.\Generated_Source\PSoC5/CapSense_CSD_CompCH0_PM.c **** void CapSense_CSD_CompCH0_Sleep(void) 
  83:.\Generated_Source\PSoC5/CapSense_CSD_CompCH0_PM.c **** {
  61              		.loc 1 83 0
  62              		.cfi_startproc
  63              		@ args = 0, pretend = 0, frame = 0
  64              		@ frame_needed = 0, uses_anonymous_args = 0
  65              		.loc 1 83 0
  66 0000 08B5     		push	{r3, lr}
  67              		.cfi_def_cfa_offset 8
  68              		.cfi_offset 3, -8
  69              		.cfi_offset 14, -4
  84:.\Generated_Source\PSoC5/CapSense_CSD_CompCH0_PM.c ****     /* Save Comp's enable state */    
  85:.\Generated_Source\PSoC5/CapSense_CSD_CompCH0_PM.c ****     if(CapSense_CSD_CompCH0_ACT_PWR_EN == (CapSense_CSD_CompCH0_PWRMGR & CapSense_CSD_CompCH0_ACT_P
  70              		.loc 1 85 0
  71 0002 074B     		ldr	r3, .L7
  72 0004 1B78     		ldrb	r3, [r3]	@ zero_extendqisi2
  73 0006 13F0020F 		tst	r3, #2
  74 000a 03D0     		beq	.L4
  86:.\Generated_Source\PSoC5/CapSense_CSD_CompCH0_PM.c ****     {
  87:.\Generated_Source\PSoC5/CapSense_CSD_CompCH0_PM.c ****         /* Comp is enabled */
  88:.\Generated_Source\PSoC5/CapSense_CSD_CompCH0_PM.c ****         CapSense_CSD_CompCH0_backup.enableState = 1u;
  75              		.loc 1 88 0
  76 000c 0122     		movs	r2, #1
  77 000e 054B     		ldr	r3, .L7+4
  78 0010 1A70     		strb	r2, [r3]
  79 0012 02E0     		b	.L5
  80              	.L4:
  89:.\Generated_Source\PSoC5/CapSense_CSD_CompCH0_PM.c ****     }
  90:.\Generated_Source\PSoC5/CapSense_CSD_CompCH0_PM.c ****     else
  91:.\Generated_Source\PSoC5/CapSense_CSD_CompCH0_PM.c ****     {
ARM GAS  C:\Users\LUKASC~1\AppData\Local\Temp\ccaVFlcf.s 			page 4


  92:.\Generated_Source\PSoC5/CapSense_CSD_CompCH0_PM.c ****         /* Comp is disabled */
  93:.\Generated_Source\PSoC5/CapSense_CSD_CompCH0_PM.c ****         CapSense_CSD_CompCH0_backup.enableState = 0u;
  81              		.loc 1 93 0
  82 0014 0022     		movs	r2, #0
  83 0016 034B     		ldr	r3, .L7+4
  84 0018 1A70     		strb	r2, [r3]
  85              	.L5:
  94:.\Generated_Source\PSoC5/CapSense_CSD_CompCH0_PM.c ****     }    
  95:.\Generated_Source\PSoC5/CapSense_CSD_CompCH0_PM.c ****     
  96:.\Generated_Source\PSoC5/CapSense_CSD_CompCH0_PM.c ****     CapSense_CSD_CompCH0_Stop();
  86              		.loc 1 96 0
  87 001a FFF7FEFF 		bl	CapSense_CSD_CompCH0_Stop
  88              	.LVL0:
  89 001e 08BD     		pop	{r3, pc}
  90              	.L8:
  91              		.align	2
  92              	.L7:
  93 0020 A7430040 		.word	1073759143
  94 0024 00000000 		.word	.LANCHOR0
  95              		.cfi_endproc
  96              	.LFE2:
  97              		.size	CapSense_CSD_CompCH0_Sleep, .-CapSense_CSD_CompCH0_Sleep
  98              		.section	.text.CapSense_CSD_CompCH0_Wakeup,"ax",%progbits
  99              		.align	2
 100              		.global	CapSense_CSD_CompCH0_Wakeup
 101              		.thumb
 102              		.thumb_func
 103              		.type	CapSense_CSD_CompCH0_Wakeup, %function
 104              	CapSense_CSD_CompCH0_Wakeup:
 105              	.LFB3:
  97:.\Generated_Source\PSoC5/CapSense_CSD_CompCH0_PM.c ****     CapSense_CSD_CompCH0_SaveConfig();
  98:.\Generated_Source\PSoC5/CapSense_CSD_CompCH0_PM.c **** }
  99:.\Generated_Source\PSoC5/CapSense_CSD_CompCH0_PM.c **** 
 100:.\Generated_Source\PSoC5/CapSense_CSD_CompCH0_PM.c **** 
 101:.\Generated_Source\PSoC5/CapSense_CSD_CompCH0_PM.c **** /*******************************************************************************
 102:.\Generated_Source\PSoC5/CapSense_CSD_CompCH0_PM.c **** * Function Name: CapSense_CSD_CompCH0_Wakeup
 103:.\Generated_Source\PSoC5/CapSense_CSD_CompCH0_PM.c **** ********************************************************************************
 104:.\Generated_Source\PSoC5/CapSense_CSD_CompCH0_PM.c **** *
 105:.\Generated_Source\PSoC5/CapSense_CSD_CompCH0_PM.c **** * Summary:
 106:.\Generated_Source\PSoC5/CapSense_CSD_CompCH0_PM.c **** *  Restores and enables the user configuration
 107:.\Generated_Source\PSoC5/CapSense_CSD_CompCH0_PM.c **** *  
 108:.\Generated_Source\PSoC5/CapSense_CSD_CompCH0_PM.c **** * Parameters:
 109:.\Generated_Source\PSoC5/CapSense_CSD_CompCH0_PM.c **** *  void
 110:.\Generated_Source\PSoC5/CapSense_CSD_CompCH0_PM.c **** *
 111:.\Generated_Source\PSoC5/CapSense_CSD_CompCH0_PM.c **** * Return:
 112:.\Generated_Source\PSoC5/CapSense_CSD_CompCH0_PM.c **** *  void
 113:.\Generated_Source\PSoC5/CapSense_CSD_CompCH0_PM.c **** *
 114:.\Generated_Source\PSoC5/CapSense_CSD_CompCH0_PM.c **** * Global variables:
 115:.\Generated_Source\PSoC5/CapSense_CSD_CompCH0_PM.c **** *  CapSense_CSD_CompCH0_backup.enableState:  Is used to restore the enable state of 
 116:.\Generated_Source\PSoC5/CapSense_CSD_CompCH0_PM.c **** *  block on wakeup from sleep mode.
 117:.\Generated_Source\PSoC5/CapSense_CSD_CompCH0_PM.c **** *
 118:.\Generated_Source\PSoC5/CapSense_CSD_CompCH0_PM.c **** *******************************************************************************/
 119:.\Generated_Source\PSoC5/CapSense_CSD_CompCH0_PM.c **** void CapSense_CSD_CompCH0_Wakeup(void) 
 120:.\Generated_Source\PSoC5/CapSense_CSD_CompCH0_PM.c **** {
 106              		.loc 1 120 0
 107              		.cfi_startproc
 108              		@ args = 0, pretend = 0, frame = 0
ARM GAS  C:\Users\LUKASC~1\AppData\Local\Temp\ccaVFlcf.s 			page 5


 109              		@ frame_needed = 0, uses_anonymous_args = 0
 110 0000 08B5     		push	{r3, lr}
 111              		.cfi_def_cfa_offset 8
 112              		.cfi_offset 3, -8
 113              		.cfi_offset 14, -4
 121:.\Generated_Source\PSoC5/CapSense_CSD_CompCH0_PM.c ****     CapSense_CSD_CompCH0_RestoreConfig();
 122:.\Generated_Source\PSoC5/CapSense_CSD_CompCH0_PM.c ****     
 123:.\Generated_Source\PSoC5/CapSense_CSD_CompCH0_PM.c ****     if(CapSense_CSD_CompCH0_backup.enableState == 1u)
 114              		.loc 1 123 0
 115 0002 034B     		ldr	r3, .L12
 116 0004 1B78     		ldrb	r3, [r3]	@ zero_extendqisi2
 117 0006 012B     		cmp	r3, #1
 118 0008 01D1     		bne	.L9
 124:.\Generated_Source\PSoC5/CapSense_CSD_CompCH0_PM.c ****     {
 125:.\Generated_Source\PSoC5/CapSense_CSD_CompCH0_PM.c ****         /* Enable Comp's operation */
 126:.\Generated_Source\PSoC5/CapSense_CSD_CompCH0_PM.c ****         CapSense_CSD_CompCH0_Enable();
 119              		.loc 1 126 0
 120 000a FFF7FEFF 		bl	CapSense_CSD_CompCH0_Enable
 121              	.LVL1:
 122              	.L9:
 123 000e 08BD     		pop	{r3, pc}
 124              	.L13:
 125              		.align	2
 126              	.L12:
 127 0010 00000000 		.word	.LANCHOR0
 128              		.cfi_endproc
 129              	.LFE3:
 130              		.size	CapSense_CSD_CompCH0_Wakeup, .-CapSense_CSD_CompCH0_Wakeup
 131              		.bss
 132              		.align	2
 133              		.set	.LANCHOR0,. + 0
 134              		.type	CapSense_CSD_CompCH0_backup, %object
 135              		.size	CapSense_CSD_CompCH0_backup, 1
 136              	CapSense_CSD_CompCH0_backup:
 137 0000 00       		.space	1
 138 0001 000000   		.text
 139              	.Letext0:
 140              		.file 2 ".\\Generated_Source\\PSoC5\\cytypes.h"
 141              		.file 3 ".\\Generated_Source\\PSoC5\\CapSense_CSD_CompCH0.h"