ARM GAS  C:\Users\LUKASC~1\AppData\Local\Temp\ccKrJm2d.s 			page 1


   1              		.syntax unified
   2              		.cpu cortex-m3
   3              		.fpu softvfp
   4              		.eabi_attribute 20, 1
   5              		.eabi_attribute 21, 1
   6              		.eabi_attribute 23, 3
   7              		.eabi_attribute 24, 1
   8              		.eabi_attribute 25, 1
   9              		.eabi_attribute 26, 1
  10              		.eabi_attribute 30, 1
  11              		.eabi_attribute 34, 1
  12              		.eabi_attribute 18, 4
  13              		.thumb
  14              		.file	"CapSense_CSD_CSHL.c"
  15              		.text
  16              	.Ltext0:
  17              		.cfi_sections	.debug_frame
  18              		.section	.text.CapSense_CSD_BaseInit,"ax",%progbits
  19              		.align	2
  20              		.global	CapSense_CSD_BaseInit
  21              		.thumb
  22              		.thumb_func
  23              		.type	CapSense_CSD_BaseInit, %function
  24              	CapSense_CSD_BaseInit:
  25              	.LFB0:
  26              		.file 1 ".\\Generated_Source\\PSoC5\\CapSense_CSD_CSHL.c"
   1:.\Generated_Source\PSoC5/CapSense_CSD_CSHL.c **** /*******************************************************************************
   2:.\Generated_Source\PSoC5/CapSense_CSD_CSHL.c **** * File Name: CapSense_CSD_CSHL.c
   3:.\Generated_Source\PSoC5/CapSense_CSD_CSHL.c **** * Version 3.50
   4:.\Generated_Source\PSoC5/CapSense_CSD_CSHL.c **** *
   5:.\Generated_Source\PSoC5/CapSense_CSD_CSHL.c **** * Description:
   6:.\Generated_Source\PSoC5/CapSense_CSD_CSHL.c **** *  This file provides the source code to the High Level APIs for the CapSesne
   7:.\Generated_Source\PSoC5/CapSense_CSD_CSHL.c **** *  CSD component.
   8:.\Generated_Source\PSoC5/CapSense_CSD_CSHL.c **** *
   9:.\Generated_Source\PSoC5/CapSense_CSD_CSHL.c **** * Note:
  10:.\Generated_Source\PSoC5/CapSense_CSD_CSHL.c **** *
  11:.\Generated_Source\PSoC5/CapSense_CSD_CSHL.c **** ********************************************************************************
  12:.\Generated_Source\PSoC5/CapSense_CSD_CSHL.c **** * Copyright 2008-2013, Cypress Semiconductor Corporation.  All rights reserved.
  13:.\Generated_Source\PSoC5/CapSense_CSD_CSHL.c **** * You may use this file only in accordance with the license, terms, conditions,
  14:.\Generated_Source\PSoC5/CapSense_CSD_CSHL.c **** * disclaimers, and limitations in the end user license agreement accompanying
  15:.\Generated_Source\PSoC5/CapSense_CSD_CSHL.c **** * the software package with which this file was provided.
  16:.\Generated_Source\PSoC5/CapSense_CSD_CSHL.c **** *******************************************************************************/
  17:.\Generated_Source\PSoC5/CapSense_CSD_CSHL.c **** 
  18:.\Generated_Source\PSoC5/CapSense_CSD_CSHL.c **** #include "CapSense_CSD_CSHL.h"
  19:.\Generated_Source\PSoC5/CapSense_CSD_CSHL.c **** 
  20:.\Generated_Source\PSoC5/CapSense_CSD_CSHL.c **** /* Storage of filters data */
  21:.\Generated_Source\PSoC5/CapSense_CSD_CSHL.c **** #if ( (CapSense_CSD_RAW_FILTER_MASK & CapSense_CSD_MEDIAN_FILTER) | \
  22:.\Generated_Source\PSoC5/CapSense_CSD_CSHL.c ****       (CapSense_CSD_RAW_FILTER_MASK & CapSense_CSD_AVERAGING_FILTER) )
  23:.\Generated_Source\PSoC5/CapSense_CSD_CSHL.c **** 
  24:.\Generated_Source\PSoC5/CapSense_CSD_CSHL.c ****     uint16 CapSense_CSD_rawFilterData1[CapSense_CSD_TOTAL_SENSOR_COUNT];
  25:.\Generated_Source\PSoC5/CapSense_CSD_CSHL.c ****     uint16 CapSense_CSD_rawFilterData2[CapSense_CSD_TOTAL_SENSOR_COUNT];
  26:.\Generated_Source\PSoC5/CapSense_CSD_CSHL.c **** 
  27:.\Generated_Source\PSoC5/CapSense_CSD_CSHL.c **** #elif ( (CapSense_CSD_RAW_FILTER_MASK & CapSense_CSD_IIR2_FILTER)   | \
  28:.\Generated_Source\PSoC5/CapSense_CSD_CSHL.c ****         (CapSense_CSD_RAW_FILTER_MASK & CapSense_CSD_IIR4_FILTER)   | \
  29:.\Generated_Source\PSoC5/CapSense_CSD_CSHL.c ****         (CapSense_CSD_RAW_FILTER_MASK & CapSense_CSD_JITTER_FILTER) | \
  30:.\Generated_Source\PSoC5/CapSense_CSD_CSHL.c ****         (CapSense_CSD_RAW_FILTER_MASK & CapSense_CSD_IIR8_FILTER)   | \
  31:.\Generated_Source\PSoC5/CapSense_CSD_CSHL.c ****         (CapSense_CSD_RAW_FILTER_MASK & CapSense_CSD_IIR16_FILTER) )
ARM GAS  C:\Users\LUKASC~1\AppData\Local\Temp\ccKrJm2d.s 			page 2


  32:.\Generated_Source\PSoC5/CapSense_CSD_CSHL.c ****         
  33:.\Generated_Source\PSoC5/CapSense_CSD_CSHL.c ****     uint16 CapSense_CSD_rawFilterData1[CapSense_CSD_TOTAL_SENSOR_COUNT];
  34:.\Generated_Source\PSoC5/CapSense_CSD_CSHL.c **** 
  35:.\Generated_Source\PSoC5/CapSense_CSD_CSHL.c **** #else
  36:.\Generated_Source\PSoC5/CapSense_CSD_CSHL.c ****     /* No Raw filters */
  37:.\Generated_Source\PSoC5/CapSense_CSD_CSHL.c **** #endif  /* ( (CapSense_CSD_RAW_FILTER_MASK & CapSense_CSD_MEDIAN_FILTER) || \
  38:.\Generated_Source\PSoC5/CapSense_CSD_CSHL.c ****         *    (CapSense_CSD_RAW_FILTER_MASK & CapSense_CSD_AVERAGING_FILTER) )
  39:.\Generated_Source\PSoC5/CapSense_CSD_CSHL.c ****         */
  40:.\Generated_Source\PSoC5/CapSense_CSD_CSHL.c **** 
  41:.\Generated_Source\PSoC5/CapSense_CSD_CSHL.c **** uint16 CapSense_CSD_sensorBaseline[CapSense_CSD_TOTAL_SENSOR_COUNT];
  42:.\Generated_Source\PSoC5/CapSense_CSD_CSHL.c **** uint8 CapSense_CSD_sensorBaselineLow[CapSense_CSD_TOTAL_SENSOR_COUNT];
  43:.\Generated_Source\PSoC5/CapSense_CSD_CSHL.c **** uint8 CapSense_CSD_sensorSignal[CapSense_CSD_TOTAL_SENSOR_COUNT];
  44:.\Generated_Source\PSoC5/CapSense_CSD_CSHL.c **** uint8 CapSense_CSD_sensorOnMask[(((CapSense_CSD_TOTAL_SENSOR_COUNT - 1u) / 8u) + 1u)];
  45:.\Generated_Source\PSoC5/CapSense_CSD_CSHL.c **** 
  46:.\Generated_Source\PSoC5/CapSense_CSD_CSHL.c **** uint8 CapSense_CSD_lowBaselineResetCnt[CapSense_CSD_TOTAL_SENSOR_COUNT];
  47:.\Generated_Source\PSoC5/CapSense_CSD_CSHL.c **** 
  48:.\Generated_Source\PSoC5/CapSense_CSD_CSHL.c **** uint8 CapSense_CSD_fingerThreshold[] = {
  49:.\Generated_Source\PSoC5/CapSense_CSD_CSHL.c ****     100u, 
  50:.\Generated_Source\PSoC5/CapSense_CSD_CSHL.c **** };
  51:.\Generated_Source\PSoC5/CapSense_CSD_CSHL.c **** 
  52:.\Generated_Source\PSoC5/CapSense_CSD_CSHL.c **** uint8 CapSense_CSD_noiseThreshold[] = {
  53:.\Generated_Source\PSoC5/CapSense_CSD_CSHL.c ****     20u, 
  54:.\Generated_Source\PSoC5/CapSense_CSD_CSHL.c **** };
  55:.\Generated_Source\PSoC5/CapSense_CSD_CSHL.c **** 
  56:.\Generated_Source\PSoC5/CapSense_CSD_CSHL.c **** uint8 CapSense_CSD_hysteresis[] = {
  57:.\Generated_Source\PSoC5/CapSense_CSD_CSHL.c ****     0u, 
  58:.\Generated_Source\PSoC5/CapSense_CSD_CSHL.c **** };
  59:.\Generated_Source\PSoC5/CapSense_CSD_CSHL.c **** 
  60:.\Generated_Source\PSoC5/CapSense_CSD_CSHL.c **** uint8 CapSense_CSD_debounce[] = {
  61:.\Generated_Source\PSoC5/CapSense_CSD_CSHL.c ****     1u, 
  62:.\Generated_Source\PSoC5/CapSense_CSD_CSHL.c **** };
  63:.\Generated_Source\PSoC5/CapSense_CSD_CSHL.c **** 
  64:.\Generated_Source\PSoC5/CapSense_CSD_CSHL.c **** uint8 CapSense_CSD_debounceCounter[] = {
  65:.\Generated_Source\PSoC5/CapSense_CSD_CSHL.c ****     0u, 
  66:.\Generated_Source\PSoC5/CapSense_CSD_CSHL.c **** };
  67:.\Generated_Source\PSoC5/CapSense_CSD_CSHL.c **** 
  68:.\Generated_Source\PSoC5/CapSense_CSD_CSHL.c **** const uint8 CYCODE CapSense_CSD_rawDataIndex[] = {
  69:.\Generated_Source\PSoC5/CapSense_CSD_CSHL.c ****     0u, /* LinearSlider0__LS */
  70:.\Generated_Source\PSoC5/CapSense_CSD_CSHL.c **** 
  71:.\Generated_Source\PSoC5/CapSense_CSD_CSHL.c **** };
  72:.\Generated_Source\PSoC5/CapSense_CSD_CSHL.c **** 
  73:.\Generated_Source\PSoC5/CapSense_CSD_CSHL.c **** const uint8 CYCODE CapSense_CSD_numberOfSensors[] = {
  74:.\Generated_Source\PSoC5/CapSense_CSD_CSHL.c ****     8u, /* LinearSlider0__LS */
  75:.\Generated_Source\PSoC5/CapSense_CSD_CSHL.c **** 
  76:.\Generated_Source\PSoC5/CapSense_CSD_CSHL.c **** };
  77:.\Generated_Source\PSoC5/CapSense_CSD_CSHL.c **** 
  78:.\Generated_Source\PSoC5/CapSense_CSD_CSHL.c **** const uint16 CYCODE CapSense_CSD_centroidMult[] = {
  79:.\Generated_Source\PSoC5/CapSense_CSD_CSHL.c ****     4644u, 
  80:.\Generated_Source\PSoC5/CapSense_CSD_CSHL.c **** };
  81:.\Generated_Source\PSoC5/CapSense_CSD_CSHL.c **** 
  82:.\Generated_Source\PSoC5/CapSense_CSD_CSHL.c **** const uint8 CYCODE CapSense_CSD_posFiltersMask[] = {
  83:.\Generated_Source\PSoC5/CapSense_CSD_CSHL.c ****     0x16u, 
  84:.\Generated_Source\PSoC5/CapSense_CSD_CSHL.c **** };
  85:.\Generated_Source\PSoC5/CapSense_CSD_CSHL.c **** 
  86:.\Generated_Source\PSoC5/CapSense_CSD_CSHL.c **** uint8 CapSense_CSD_posFiltersData[] = {
  87:.\Generated_Source\PSoC5/CapSense_CSD_CSHL.c ****     1u, 0u, 0u, 
  88:.\Generated_Source\PSoC5/CapSense_CSD_CSHL.c **** };
ARM GAS  C:\Users\LUKASC~1\AppData\Local\Temp\ccKrJm2d.s 			page 3


  89:.\Generated_Source\PSoC5/CapSense_CSD_CSHL.c **** 
  90:.\Generated_Source\PSoC5/CapSense_CSD_CSHL.c **** 
  91:.\Generated_Source\PSoC5/CapSense_CSD_CSHL.c **** 
  92:.\Generated_Source\PSoC5/CapSense_CSD_CSHL.c **** 
  93:.\Generated_Source\PSoC5/CapSense_CSD_CSHL.c **** /*******************************************************************************
  94:.\Generated_Source\PSoC5/CapSense_CSD_CSHL.c **** * Function Name: CapSense_CSD_BaseInit
  95:.\Generated_Source\PSoC5/CapSense_CSD_CSHL.c **** ********************************************************************************
  96:.\Generated_Source\PSoC5/CapSense_CSD_CSHL.c **** *
  97:.\Generated_Source\PSoC5/CapSense_CSD_CSHL.c **** * Summary:
  98:.\Generated_Source\PSoC5/CapSense_CSD_CSHL.c **** *  Loads the CapSense_CSD_sensorBaseline[sensor] array element with an 
  99:.\Generated_Source\PSoC5/CapSense_CSD_CSHL.c **** *  initial value which is equal to raw count value. 
 100:.\Generated_Source\PSoC5/CapSense_CSD_CSHL.c **** *  Resets to zero CapSense_CSD_sensorBaselineLow[sensor] and 
 101:.\Generated_Source\PSoC5/CapSense_CSD_CSHL.c **** *  CapSense_CSD_sensorSignal[sensor] array element.
 102:.\Generated_Source\PSoC5/CapSense_CSD_CSHL.c **** *  Loads CapSense_CSD_debounceCounter[sensor] array element with initial 
 103:.\Generated_Source\PSoC5/CapSense_CSD_CSHL.c **** *  value equal CapSense_CSD_debounce[].
 104:.\Generated_Source\PSoC5/CapSense_CSD_CSHL.c **** *  Loads the CapSense_CSD_rawFilterData2[sensor] and 
 105:.\Generated_Source\PSoC5/CapSense_CSD_CSHL.c **** *  CapSense_CSD_rawFilterData2[sensor] array element with an 
 106:.\Generated_Source\PSoC5/CapSense_CSD_CSHL.c **** *  initial value which is equal raw count value if raw data filter is enabled.
 107:.\Generated_Source\PSoC5/CapSense_CSD_CSHL.c **** *
 108:.\Generated_Source\PSoC5/CapSense_CSD_CSHL.c **** * Parameters:
 109:.\Generated_Source\PSoC5/CapSense_CSD_CSHL.c **** *  sensor:  Sensor number.
 110:.\Generated_Source\PSoC5/CapSense_CSD_CSHL.c **** *
 111:.\Generated_Source\PSoC5/CapSense_CSD_CSHL.c **** * Return:
 112:.\Generated_Source\PSoC5/CapSense_CSD_CSHL.c **** *  None
 113:.\Generated_Source\PSoC5/CapSense_CSD_CSHL.c **** *
 114:.\Generated_Source\PSoC5/CapSense_CSD_CSHL.c **** * Global Variables:
 115:.\Generated_Source\PSoC5/CapSense_CSD_CSHL.c **** *  CapSense_CSD_sensorBaseline[]    - used to store baseline value.
 116:.\Generated_Source\PSoC5/CapSense_CSD_CSHL.c **** *  CapSense_CSD_sensorBaselineLow[] - used to store fraction byte of 
 117:.\Generated_Source\PSoC5/CapSense_CSD_CSHL.c **** *  baseline value.
 118:.\Generated_Source\PSoC5/CapSense_CSD_CSHL.c **** *  CapSense_CSD_sensorSignal[]      - used to store diffence between 
 119:.\Generated_Source\PSoC5/CapSense_CSD_CSHL.c **** *  current value of raw data and previous value of baseline.
 120:.\Generated_Source\PSoC5/CapSense_CSD_CSHL.c **** *  CapSense_CSD_debounceCounter[]   - used to store current debounce 
 121:.\Generated_Source\PSoC5/CapSense_CSD_CSHL.c **** *  counter of sensor. Widget which has this parameter are buttons, matrix 
 122:.\Generated_Source\PSoC5/CapSense_CSD_CSHL.c **** *  buttons, proximity, guard. All other widgets haven't debounce parameter
 123:.\Generated_Source\PSoC5/CapSense_CSD_CSHL.c **** *  and use the last element of this array with value 0 (it means no debounce).
 124:.\Generated_Source\PSoC5/CapSense_CSD_CSHL.c **** *  CapSense_CSD_rawFilterData1[]    - used to store previous sample of 
 125:.\Generated_Source\PSoC5/CapSense_CSD_CSHL.c **** *  any enabled raw data filter.
 126:.\Generated_Source\PSoC5/CapSense_CSD_CSHL.c **** *  CapSense_CSD_rawFilterData2[]    - used to store before previous sample
 127:.\Generated_Source\PSoC5/CapSense_CSD_CSHL.c **** *  of enabled raw data filter. Only required for median or average filters.
 128:.\Generated_Source\PSoC5/CapSense_CSD_CSHL.c **** *
 129:.\Generated_Source\PSoC5/CapSense_CSD_CSHL.c **** * Reentrant:
 130:.\Generated_Source\PSoC5/CapSense_CSD_CSHL.c **** *  No
 131:.\Generated_Source\PSoC5/CapSense_CSD_CSHL.c **** *
 132:.\Generated_Source\PSoC5/CapSense_CSD_CSHL.c **** *******************************************************************************/
 133:.\Generated_Source\PSoC5/CapSense_CSD_CSHL.c **** void CapSense_CSD_BaseInit(uint8 sensor) 
 134:.\Generated_Source\PSoC5/CapSense_CSD_CSHL.c **** {
  27              		.loc 1 134 0
  28              		.cfi_startproc
  29              		@ args = 0, pretend = 0, frame = 0
  30              		@ frame_needed = 0, uses_anonymous_args = 0
  31              		@ link register save eliminated.
  32              	.LVL0:
 135:.\Generated_Source\PSoC5/CapSense_CSD_CSHL.c ****     #if ((CapSense_CSD_TOTAL_BUTTONS_COUNT) || (CapSense_CSD_TOTAL_MATRIX_BUTTONS_COUNT) || \
 136:.\Generated_Source\PSoC5/CapSense_CSD_CSHL.c ****          (CapSense_CSD_TOTAL_GENERICS_COUNT))
 137:.\Generated_Source\PSoC5/CapSense_CSD_CSHL.c ****         uint8 widget = CapSense_CSD_widgetNumber[sensor];
 138:.\Generated_Source\PSoC5/CapSense_CSD_CSHL.c ****     #endif /* ((CapSense_CSD_TOTAL_MATRIX_BUTTONS_COUNT) || (CapSense_CSD_TOTAL_MATRIX_BUTTONS_COUN
 139:.\Generated_Source\PSoC5/CapSense_CSD_CSHL.c ****     
ARM GAS  C:\Users\LUKASC~1\AppData\Local\Temp\ccKrJm2d.s 			page 4


 140:.\Generated_Source\PSoC5/CapSense_CSD_CSHL.c ****     #if (CapSense_CSD_TOTAL_MATRIX_BUTTONS_COUNT)
 141:.\Generated_Source\PSoC5/CapSense_CSD_CSHL.c ****         uint8 debounceIndex;
 142:.\Generated_Source\PSoC5/CapSense_CSD_CSHL.c ****     #endif  /* (CapSense_CSD_TOTAL_MATRIX_BUTTONS_COUNT) */
 143:.\Generated_Source\PSoC5/CapSense_CSD_CSHL.c ****     
 144:.\Generated_Source\PSoC5/CapSense_CSD_CSHL.c ****     #if (CapSense_CSD_TOTAL_GENERICS_COUNT)
 145:.\Generated_Source\PSoC5/CapSense_CSD_CSHL.c ****         /* Exclude generic widget */
 146:.\Generated_Source\PSoC5/CapSense_CSD_CSHL.c ****         if(widget < CapSense_CSD_END_OF_WIDGETS_INDEX)
 147:.\Generated_Source\PSoC5/CapSense_CSD_CSHL.c ****         {
 148:.\Generated_Source\PSoC5/CapSense_CSD_CSHL.c ****     #endif  /* CapSense_CSD_TOTAL_GENERICS_COUNT */
 149:.\Generated_Source\PSoC5/CapSense_CSD_CSHL.c ****     
 150:.\Generated_Source\PSoC5/CapSense_CSD_CSHL.c ****     /* Initialize Baseline */
 151:.\Generated_Source\PSoC5/CapSense_CSD_CSHL.c ****     CapSense_CSD_sensorBaseline[sensor] = CapSense_CSD_sensorRaw[sensor];
  33              		.loc 1 151 0
  34 0000 074B     		ldr	r3, .L2
  35 0002 33F81030 		ldrh	r3, [r3, r0, lsl #1]
  36 0006 074A     		ldr	r2, .L2+4
  37 0008 22F81030 		strh	r3, [r2, r0, lsl #1]	@ movhi
 152:.\Generated_Source\PSoC5/CapSense_CSD_CSHL.c ****     CapSense_CSD_sensorBaselineLow[sensor] = 0u;
  38              		.loc 1 152 0
  39 000c 0022     		movs	r2, #0
  40 000e 0649     		ldr	r1, .L2+8
  41 0010 0A54     		strb	r2, [r1, r0]
 153:.\Generated_Source\PSoC5/CapSense_CSD_CSHL.c ****     CapSense_CSD_sensorSignal[sensor] = 0u;
  42              		.loc 1 153 0
  43 0012 0649     		ldr	r1, .L2+12
  44 0014 0A54     		strb	r2, [r1, r0]
 154:.\Generated_Source\PSoC5/CapSense_CSD_CSHL.c ****         
 155:.\Generated_Source\PSoC5/CapSense_CSD_CSHL.c **** 
 156:.\Generated_Source\PSoC5/CapSense_CSD_CSHL.c ****     
 157:.\Generated_Source\PSoC5/CapSense_CSD_CSHL.c ****     #if ((CapSense_CSD_RAW_FILTER_MASK & CapSense_CSD_MEDIAN_FILTER) |\
 158:.\Generated_Source\PSoC5/CapSense_CSD_CSHL.c ****          (CapSense_CSD_RAW_FILTER_MASK & CapSense_CSD_AVERAGING_FILTER))
 159:.\Generated_Source\PSoC5/CapSense_CSD_CSHL.c **** 
 160:.\Generated_Source\PSoC5/CapSense_CSD_CSHL.c ****         CapSense_CSD_rawFilterData1[sensor] = CapSense_CSD_sensorRaw[sensor];
 161:.\Generated_Source\PSoC5/CapSense_CSD_CSHL.c ****         CapSense_CSD_rawFilterData2[sensor] = CapSense_CSD_sensorRaw[sensor];
 162:.\Generated_Source\PSoC5/CapSense_CSD_CSHL.c ****     
 163:.\Generated_Source\PSoC5/CapSense_CSD_CSHL.c ****     #elif ((CapSense_CSD_RAW_FILTER_MASK & CapSense_CSD_IIR2_FILTER) |\
 164:.\Generated_Source\PSoC5/CapSense_CSD_CSHL.c ****            (CapSense_CSD_RAW_FILTER_MASK & CapSense_CSD_IIR4_FILTER) |\
 165:.\Generated_Source\PSoC5/CapSense_CSD_CSHL.c ****            (CapSense_CSD_RAW_FILTER_MASK & CapSense_CSD_JITTER_FILTER) |\
 166:.\Generated_Source\PSoC5/CapSense_CSD_CSHL.c ****            (CapSense_CSD_RAW_FILTER_MASK & CapSense_CSD_IIR8_FILTER) |\
 167:.\Generated_Source\PSoC5/CapSense_CSD_CSHL.c ****            (CapSense_CSD_RAW_FILTER_MASK & CapSense_CSD_IIR16_FILTER))
 168:.\Generated_Source\PSoC5/CapSense_CSD_CSHL.c ****             
 169:.\Generated_Source\PSoC5/CapSense_CSD_CSHL.c ****         CapSense_CSD_rawFilterData1[sensor] = CapSense_CSD_sensorRaw[sensor];
  45              		.loc 1 169 0
  46 0016 064A     		ldr	r2, .L2+16
  47 0018 22F81030 		strh	r3, [r2, r0, lsl #1]	@ movhi
  48 001c 7047     		bx	lr
  49              	.L3:
  50 001e 00BF     		.align	2
  51              	.L2:
  52 0020 00000000 		.word	CapSense_CSD_sensorRaw
  53 0024 00000000 		.word	CapSense_CSD_sensorBaseline
  54 0028 00000000 		.word	CapSense_CSD_sensorBaselineLow
  55 002c 00000000 		.word	CapSense_CSD_sensorSignal
  56 0030 00000000 		.word	CapSense_CSD_rawFilterData1
  57              		.cfi_endproc
  58              	.LFE0:
  59              		.size	CapSense_CSD_BaseInit, .-CapSense_CSD_BaseInit
ARM GAS  C:\Users\LUKASC~1\AppData\Local\Temp\ccKrJm2d.s 			page 5


  60              		.section	.text.CapSense_CSD_InitializeSensorBaseline,"ax",%progbits
  61              		.align	2
  62              		.global	CapSense_CSD_InitializeSensorBaseline
  63              		.thumb
  64              		.thumb_func
  65              		.type	CapSense_CSD_InitializeSensorBaseline, %function
  66              	CapSense_CSD_InitializeSensorBaseline:
  67              	.LFB1:
 170:.\Generated_Source\PSoC5/CapSense_CSD_CSHL.c ****     
 171:.\Generated_Source\PSoC5/CapSense_CSD_CSHL.c ****     #else
 172:.\Generated_Source\PSoC5/CapSense_CSD_CSHL.c ****         /* No Raw filters */
 173:.\Generated_Source\PSoC5/CapSense_CSD_CSHL.c ****     #endif  /* ((CapSense_CSD_RAW_FILTER_MASK & CapSense_CSD_MEDIAN_FILTER) | \
 174:.\Generated_Source\PSoC5/CapSense_CSD_CSHL.c ****             *   (CapSense_CSD_RAW_FILTER_MASK & CapSense_CSD_AVERAGING_FILTER))
 175:.\Generated_Source\PSoC5/CapSense_CSD_CSHL.c ****             */
 176:.\Generated_Source\PSoC5/CapSense_CSD_CSHL.c ****     
 177:.\Generated_Source\PSoC5/CapSense_CSD_CSHL.c ****     #if (CapSense_CSD_TOTAL_GENERICS_COUNT)
 178:.\Generated_Source\PSoC5/CapSense_CSD_CSHL.c ****         /* Exclude generic widget */
 179:.\Generated_Source\PSoC5/CapSense_CSD_CSHL.c ****         }
 180:.\Generated_Source\PSoC5/CapSense_CSD_CSHL.c ****     #endif  /* CapSense_CSD_TOTAL_GENERICS_COUNT */
 181:.\Generated_Source\PSoC5/CapSense_CSD_CSHL.c **** }
 182:.\Generated_Source\PSoC5/CapSense_CSD_CSHL.c **** 
 183:.\Generated_Source\PSoC5/CapSense_CSD_CSHL.c **** 
 184:.\Generated_Source\PSoC5/CapSense_CSD_CSHL.c **** /*******************************************************************************
 185:.\Generated_Source\PSoC5/CapSense_CSD_CSHL.c **** * Function Name: CapSense_CSD_InitializeSensorBaseline
 186:.\Generated_Source\PSoC5/CapSense_CSD_CSHL.c **** ********************************************************************************
 187:.\Generated_Source\PSoC5/CapSense_CSD_CSHL.c **** *
 188:.\Generated_Source\PSoC5/CapSense_CSD_CSHL.c **** * Summary:
 189:.\Generated_Source\PSoC5/CapSense_CSD_CSHL.c **** *  Loads the CapSense_CSD_sensorBaseline[sensor] array element with an 
 190:.\Generated_Source\PSoC5/CapSense_CSD_CSHL.c **** *  initial value by scanning the selected sensor (one channel design) or pair 
 191:.\Generated_Source\PSoC5/CapSense_CSD_CSHL.c **** *  of sensors (two channels designs). The raw count value is copied into the 
 192:.\Generated_Source\PSoC5/CapSense_CSD_CSHL.c **** *  baseline array for each sensor. The raw data filters are initialized if 
 193:.\Generated_Source\PSoC5/CapSense_CSD_CSHL.c **** *  enabled.
 194:.\Generated_Source\PSoC5/CapSense_CSD_CSHL.c **** *
 195:.\Generated_Source\PSoC5/CapSense_CSD_CSHL.c **** * Parameters:
 196:.\Generated_Source\PSoC5/CapSense_CSD_CSHL.c **** *  sensor:  Sensor number.
 197:.\Generated_Source\PSoC5/CapSense_CSD_CSHL.c **** *
 198:.\Generated_Source\PSoC5/CapSense_CSD_CSHL.c **** * Return:
 199:.\Generated_Source\PSoC5/CapSense_CSD_CSHL.c **** *  None
 200:.\Generated_Source\PSoC5/CapSense_CSD_CSHL.c **** *
 201:.\Generated_Source\PSoC5/CapSense_CSD_CSHL.c **** * Reentrant:
 202:.\Generated_Source\PSoC5/CapSense_CSD_CSHL.c **** *  No
 203:.\Generated_Source\PSoC5/CapSense_CSD_CSHL.c **** *
 204:.\Generated_Source\PSoC5/CapSense_CSD_CSHL.c **** *******************************************************************************/
 205:.\Generated_Source\PSoC5/CapSense_CSD_CSHL.c **** void CapSense_CSD_InitializeSensorBaseline(uint8 sensor)
 206:.\Generated_Source\PSoC5/CapSense_CSD_CSHL.c ****                           
 207:.\Generated_Source\PSoC5/CapSense_CSD_CSHL.c **** {
  68              		.loc 1 207 0
  69              		.cfi_startproc
  70              		@ args = 0, pretend = 0, frame = 0
  71              		@ frame_needed = 0, uses_anonymous_args = 0
  72              	.LVL1:
  73 0000 10B5     		push	{r4, lr}
  74              		.cfi_def_cfa_offset 8
  75              		.cfi_offset 4, -8
  76              		.cfi_offset 14, -4
  77 0002 0446     		mov	r4, r0
 208:.\Generated_Source\PSoC5/CapSense_CSD_CSHL.c ****     /* Scan sensor */
ARM GAS  C:\Users\LUKASC~1\AppData\Local\Temp\ccKrJm2d.s 			page 6


 209:.\Generated_Source\PSoC5/CapSense_CSD_CSHL.c ****     CapSense_CSD_ScanSensor(sensor);
  78              		.loc 1 209 0
  79 0004 FFF7FEFF 		bl	CapSense_CSD_ScanSensor
  80              	.LVL2:
  81              	.L5:
 210:.\Generated_Source\PSoC5/CapSense_CSD_CSHL.c ****     while(CapSense_CSD_IsBusy() != 0u)
  82              		.loc 1 210 0 discriminator 1
  83 0008 FFF7FEFF 		bl	CapSense_CSD_IsBusy
  84              	.LVL3:
  85 000c 0028     		cmp	r0, #0
  86 000e FBD1     		bne	.L5
 211:.\Generated_Source\PSoC5/CapSense_CSD_CSHL.c ****     {
 212:.\Generated_Source\PSoC5/CapSense_CSD_CSHL.c ****         /* Wait while busy */
 213:.\Generated_Source\PSoC5/CapSense_CSD_CSHL.c ****     }
 214:.\Generated_Source\PSoC5/CapSense_CSD_CSHL.c ****     
 215:.\Generated_Source\PSoC5/CapSense_CSD_CSHL.c ****     #if (CapSense_CSD_DESIGN_TYPE == CapSense_CSD_ONE_CHANNEL_DESIGN)
 216:.\Generated_Source\PSoC5/CapSense_CSD_CSHL.c ****         /* Initialize Baseline, Signal and debounce counters */       
 217:.\Generated_Source\PSoC5/CapSense_CSD_CSHL.c ****         CapSense_CSD_BaseInit(sensor);
  87              		.loc 1 217 0
  88 0010 2046     		mov	r0, r4
  89 0012 FFF7FEFF 		bl	CapSense_CSD_BaseInit
  90              	.LVL4:
  91 0016 10BD     		pop	{r4, pc}
  92              		.cfi_endproc
  93              	.LFE1:
  94              		.size	CapSense_CSD_InitializeSensorBaseline, .-CapSense_CSD_InitializeSensorBaseline
  95              		.section	.text.CapSense_CSD_InitializeAllBaselines,"ax",%progbits
  96              		.align	2
  97              		.global	CapSense_CSD_InitializeAllBaselines
  98              		.thumb
  99              		.thumb_func
 100              		.type	CapSense_CSD_InitializeAllBaselines, %function
 101              	CapSense_CSD_InitializeAllBaselines:
 102              	.LFB2:
 218:.\Generated_Source\PSoC5/CapSense_CSD_CSHL.c ****         
 219:.\Generated_Source\PSoC5/CapSense_CSD_CSHL.c ****     #else
 220:.\Generated_Source\PSoC5/CapSense_CSD_CSHL.c ****     
 221:.\Generated_Source\PSoC5/CapSense_CSD_CSHL.c ****         if(sensor < CapSense_CSD_TOTAL_SENSOR_COUNT__CH0)
 222:.\Generated_Source\PSoC5/CapSense_CSD_CSHL.c ****         {
 223:.\Generated_Source\PSoC5/CapSense_CSD_CSHL.c ****             /* Initialize Baseline, Signal and debounce counters */ 
 224:.\Generated_Source\PSoC5/CapSense_CSD_CSHL.c ****             CapSense_CSD_BaseInit(sensor);
 225:.\Generated_Source\PSoC5/CapSense_CSD_CSHL.c ****         }
 226:.\Generated_Source\PSoC5/CapSense_CSD_CSHL.c ****         
 227:.\Generated_Source\PSoC5/CapSense_CSD_CSHL.c ****         if(sensor < CapSense_CSD_TOTAL_SENSOR_COUNT__CH1)
 228:.\Generated_Source\PSoC5/CapSense_CSD_CSHL.c ****         {
 229:.\Generated_Source\PSoC5/CapSense_CSD_CSHL.c ****             /* Initialize Baseline, Signal and debounce counters */
 230:.\Generated_Source\PSoC5/CapSense_CSD_CSHL.c ****             CapSense_CSD_BaseInit(sensor + CapSense_CSD_TOTAL_SENSOR_COUNT__CH0);
 231:.\Generated_Source\PSoC5/CapSense_CSD_CSHL.c ****         }
 232:.\Generated_Source\PSoC5/CapSense_CSD_CSHL.c ****     
 233:.\Generated_Source\PSoC5/CapSense_CSD_CSHL.c ****     #endif  /* (CapSense_CSD_DESIGN_TYPE == CapSense_CSD_ONE_CHANNEL_DESIGN) */
 234:.\Generated_Source\PSoC5/CapSense_CSD_CSHL.c **** }
 235:.\Generated_Source\PSoC5/CapSense_CSD_CSHL.c **** 
 236:.\Generated_Source\PSoC5/CapSense_CSD_CSHL.c **** 
 237:.\Generated_Source\PSoC5/CapSense_CSD_CSHL.c **** /*******************************************************************************
 238:.\Generated_Source\PSoC5/CapSense_CSD_CSHL.c **** * Function Name: CapSense_CSD_InitializeAllBaselines
 239:.\Generated_Source\PSoC5/CapSense_CSD_CSHL.c **** ********************************************************************************
 240:.\Generated_Source\PSoC5/CapSense_CSD_CSHL.c **** *
ARM GAS  C:\Users\LUKASC~1\AppData\Local\Temp\ccKrJm2d.s 			page 7


 241:.\Generated_Source\PSoC5/CapSense_CSD_CSHL.c **** * Summary:
 242:.\Generated_Source\PSoC5/CapSense_CSD_CSHL.c **** *  Uses the CapSense_CSD_InitializeSensorBaseline function to loads the 
 243:.\Generated_Source\PSoC5/CapSense_CSD_CSHL.c **** *  CapSense_CSD_sensorBaseline[] array with an initial values by scanning 
 244:.\Generated_Source\PSoC5/CapSense_CSD_CSHL.c **** *  all sensors. The raw count values are copied into the baseline array for 
 245:.\Generated_Source\PSoC5/CapSense_CSD_CSHL.c **** *  all sensors. The raw data filters are initialized if enabled.
 246:.\Generated_Source\PSoC5/CapSense_CSD_CSHL.c **** *
 247:.\Generated_Source\PSoC5/CapSense_CSD_CSHL.c **** * Parameters:
 248:.\Generated_Source\PSoC5/CapSense_CSD_CSHL.c **** *  None
 249:.\Generated_Source\PSoC5/CapSense_CSD_CSHL.c **** *
 250:.\Generated_Source\PSoC5/CapSense_CSD_CSHL.c **** * Return:
 251:.\Generated_Source\PSoC5/CapSense_CSD_CSHL.c **** *  None
 252:.\Generated_Source\PSoC5/CapSense_CSD_CSHL.c **** *
 253:.\Generated_Source\PSoC5/CapSense_CSD_CSHL.c **** * Reentrant:
 254:.\Generated_Source\PSoC5/CapSense_CSD_CSHL.c **** *  No
 255:.\Generated_Source\PSoC5/CapSense_CSD_CSHL.c **** *
 256:.\Generated_Source\PSoC5/CapSense_CSD_CSHL.c **** *******************************************************************************/
 257:.\Generated_Source\PSoC5/CapSense_CSD_CSHL.c **** void CapSense_CSD_InitializeAllBaselines(void)
 258:.\Generated_Source\PSoC5/CapSense_CSD_CSHL.c ****                           
 259:.\Generated_Source\PSoC5/CapSense_CSD_CSHL.c **** {
 103              		.loc 1 259 0
 104              		.cfi_startproc
 105              		@ args = 0, pretend = 0, frame = 0
 106              		@ frame_needed = 0, uses_anonymous_args = 0
 107 0000 10B5     		push	{r4, lr}
 108              		.cfi_def_cfa_offset 8
 109              		.cfi_offset 4, -8
 110              		.cfi_offset 14, -4
 111              	.LVL5:
 260:.\Generated_Source\PSoC5/CapSense_CSD_CSHL.c ****     uint8 i;
 261:.\Generated_Source\PSoC5/CapSense_CSD_CSHL.c ****     
 262:.\Generated_Source\PSoC5/CapSense_CSD_CSHL.c ****     /* The baseline initialize by sensor of sensor pair */
 263:.\Generated_Source\PSoC5/CapSense_CSD_CSHL.c ****     for(i = 0u; i < CapSense_CSD_TOTAL_SCANSLOT_COUNT; i++)
 112              		.loc 1 263 0
 113 0002 0024     		movs	r4, #0
 114 0004 04E0     		b	.L8
 115              	.LVL6:
 116              	.L9:
 264:.\Generated_Source\PSoC5/CapSense_CSD_CSHL.c ****     {
 265:.\Generated_Source\PSoC5/CapSense_CSD_CSHL.c ****         CapSense_CSD_InitializeSensorBaseline(i);
 117              		.loc 1 265 0 discriminator 3
 118 0006 2046     		mov	r0, r4
 119 0008 FFF7FEFF 		bl	CapSense_CSD_InitializeSensorBaseline
 120              	.LVL7:
 263:.\Generated_Source\PSoC5/CapSense_CSD_CSHL.c ****     {
 121              		.loc 1 263 0 discriminator 3
 122 000c 0134     		adds	r4, r4, #1
 123              	.LVL8:
 124 000e E4B2     		uxtb	r4, r4
 125              	.LVL9:
 126              	.L8:
 263:.\Generated_Source\PSoC5/CapSense_CSD_CSHL.c ****     {
 127              		.loc 1 263 0 is_stmt 0 discriminator 1
 128 0010 072C     		cmp	r4, #7
 129 0012 F8D9     		bls	.L9
 266:.\Generated_Source\PSoC5/CapSense_CSD_CSHL.c ****     }
 267:.\Generated_Source\PSoC5/CapSense_CSD_CSHL.c **** }
 130              		.loc 1 267 0 is_stmt 1
ARM GAS  C:\Users\LUKASC~1\AppData\Local\Temp\ccKrJm2d.s 			page 8


 131 0014 10BD     		pop	{r4, pc}
 132              		.cfi_endproc
 133              	.LFE2:
 134              		.size	CapSense_CSD_InitializeAllBaselines, .-CapSense_CSD_InitializeAllBaselines
 135 0016 00BF     		.section	.text.CapSense_CSD_InitializeEnabledBaselines,"ax",%progbits
 136              		.align	2
 137              		.global	CapSense_CSD_InitializeEnabledBaselines
 138              		.thumb
 139              		.thumb_func
 140              		.type	CapSense_CSD_InitializeEnabledBaselines, %function
 141              	CapSense_CSD_InitializeEnabledBaselines:
 142              	.LFB3:
 268:.\Generated_Source\PSoC5/CapSense_CSD_CSHL.c **** 
 269:.\Generated_Source\PSoC5/CapSense_CSD_CSHL.c **** 
 270:.\Generated_Source\PSoC5/CapSense_CSD_CSHL.c **** /*******************************************************************************
 271:.\Generated_Source\PSoC5/CapSense_CSD_CSHL.c **** * Function Name: CapSense_CSD_InitializeEnabledBaselines
 272:.\Generated_Source\PSoC5/CapSense_CSD_CSHL.c **** ********************************************************************************
 273:.\Generated_Source\PSoC5/CapSense_CSD_CSHL.c **** *
 274:.\Generated_Source\PSoC5/CapSense_CSD_CSHL.c **** * Summary:
 275:.\Generated_Source\PSoC5/CapSense_CSD_CSHL.c **** *  Scans all enabled widgets and the raw count values are copied into the 
 276:.\Generated_Source\PSoC5/CapSense_CSD_CSHL.c **** *  baseline array for all sensors enabled in scanning process. Baselines 
 277:.\Generated_Source\PSoC5/CapSense_CSD_CSHL.c **** *  initialize with zero values for sensors disabled from scanning process. 
 278:.\Generated_Source\PSoC5/CapSense_CSD_CSHL.c **** *  The raw data filters are initialized if enabled.
 279:.\Generated_Source\PSoC5/CapSense_CSD_CSHL.c **** *
 280:.\Generated_Source\PSoC5/CapSense_CSD_CSHL.c **** * Parameters:
 281:.\Generated_Source\PSoC5/CapSense_CSD_CSHL.c **** *  None
 282:.\Generated_Source\PSoC5/CapSense_CSD_CSHL.c **** *
 283:.\Generated_Source\PSoC5/CapSense_CSD_CSHL.c **** * Return:
 284:.\Generated_Source\PSoC5/CapSense_CSD_CSHL.c **** *  None
 285:.\Generated_Source\PSoC5/CapSense_CSD_CSHL.c **** *
 286:.\Generated_Source\PSoC5/CapSense_CSD_CSHL.c **** * Reentrant:
 287:.\Generated_Source\PSoC5/CapSense_CSD_CSHL.c **** *  No
 288:.\Generated_Source\PSoC5/CapSense_CSD_CSHL.c **** *
 289:.\Generated_Source\PSoC5/CapSense_CSD_CSHL.c **** *******************************************************************************/
 290:.\Generated_Source\PSoC5/CapSense_CSD_CSHL.c **** void CapSense_CSD_InitializeEnabledBaselines(void)
 291:.\Generated_Source\PSoC5/CapSense_CSD_CSHL.c ****                              
 292:.\Generated_Source\PSoC5/CapSense_CSD_CSHL.c **** {
 143              		.loc 1 292 0
 144              		.cfi_startproc
 145              		@ args = 0, pretend = 0, frame = 0
 146              		@ frame_needed = 0, uses_anonymous_args = 0
 147 0000 10B5     		push	{r4, lr}
 148              		.cfi_def_cfa_offset 8
 149              		.cfi_offset 4, -8
 150              		.cfi_offset 14, -4
 293:.\Generated_Source\PSoC5/CapSense_CSD_CSHL.c ****     uint8 i;
 294:.\Generated_Source\PSoC5/CapSense_CSD_CSHL.c ****     uint8 pos;
 295:.\Generated_Source\PSoC5/CapSense_CSD_CSHL.c ****     uint8 enMask;
 296:.\Generated_Source\PSoC5/CapSense_CSD_CSHL.c ****     
 297:.\Generated_Source\PSoC5/CapSense_CSD_CSHL.c ****     CapSense_CSD_ScanEnabledWidgets();
 151              		.loc 1 297 0
 152 0002 FFF7FEFF 		bl	CapSense_CSD_ScanEnabledWidgets
 153              	.LVL10:
 154              	.L12:
 298:.\Generated_Source\PSoC5/CapSense_CSD_CSHL.c ****     while(CapSense_CSD_IsBusy() != 0u)
 155              		.loc 1 298 0 discriminator 1
 156 0006 FFF7FEFF 		bl	CapSense_CSD_IsBusy
ARM GAS  C:\Users\LUKASC~1\AppData\Local\Temp\ccKrJm2d.s 			page 9


 157              	.LVL11:
 158 000a 0028     		cmp	r0, #0
 159 000c FBD1     		bne	.L12
 160 000e 0024     		movs	r4, #0
 161 0010 11E0     		b	.L13
 162              	.LVL12:
 163              	.L15:
 299:.\Generated_Source\PSoC5/CapSense_CSD_CSHL.c ****     {
 300:.\Generated_Source\PSoC5/CapSense_CSD_CSHL.c ****         /* Wait while busy */
 301:.\Generated_Source\PSoC5/CapSense_CSD_CSHL.c ****     }
 302:.\Generated_Source\PSoC5/CapSense_CSD_CSHL.c ****     
 303:.\Generated_Source\PSoC5/CapSense_CSD_CSHL.c ****     for(i = 0u; i < CapSense_CSD_TOTAL_SENSOR_COUNT; i++)
 304:.\Generated_Source\PSoC5/CapSense_CSD_CSHL.c ****     {
 305:.\Generated_Source\PSoC5/CapSense_CSD_CSHL.c ****         pos = (i >> 3u);
 164              		.loc 1 305 0
 165 0012 E208     		lsrs	r2, r4, #3
 306:.\Generated_Source\PSoC5/CapSense_CSD_CSHL.c ****         enMask = 0x01u << (i & 0x07u);
 166              		.loc 1 306 0
 167 0014 04F00701 		and	r1, r4, #7
 168 0018 0123     		movs	r3, #1
 169 001a 8B40     		lsls	r3, r3, r1
 170              	.LVL13:
 307:.\Generated_Source\PSoC5/CapSense_CSD_CSHL.c ****         
 308:.\Generated_Source\PSoC5/CapSense_CSD_CSHL.c ****         /* Clear raw data if sensor is disabled from scanning process */
 309:.\Generated_Source\PSoC5/CapSense_CSD_CSHL.c ****         if((CapSense_CSD_sensorEnableMask[pos] & enMask) == 0u)
 171              		.loc 1 309 0
 172 001c 0749     		ldr	r1, .L17
 173 001e 8A5C     		ldrb	r2, [r1, r2]	@ zero_extendqisi2
 174 0020 1342     		tst	r3, r2
 175 0022 03D1     		bne	.L14
 310:.\Generated_Source\PSoC5/CapSense_CSD_CSHL.c ****         {
 311:.\Generated_Source\PSoC5/CapSense_CSD_CSHL.c ****             CapSense_CSD_sensorRaw[i] = 0u;
 176              		.loc 1 311 0
 177 0024 0022     		movs	r2, #0
 178 0026 064B     		ldr	r3, .L17+4
 179              	.LVL14:
 180 0028 23F81420 		strh	r2, [r3, r4, lsl #1]	@ movhi
 181              	.L14:
 312:.\Generated_Source\PSoC5/CapSense_CSD_CSHL.c ****         }
 313:.\Generated_Source\PSoC5/CapSense_CSD_CSHL.c ****         
 314:.\Generated_Source\PSoC5/CapSense_CSD_CSHL.c ****         /* Initialize baselines */
 315:.\Generated_Source\PSoC5/CapSense_CSD_CSHL.c ****         CapSense_CSD_BaseInit(i);
 182              		.loc 1 315 0 discriminator 2
 183 002c 2046     		mov	r0, r4
 184 002e FFF7FEFF 		bl	CapSense_CSD_BaseInit
 185              	.LVL15:
 303:.\Generated_Source\PSoC5/CapSense_CSD_CSHL.c ****     {
 186              		.loc 1 303 0 discriminator 2
 187 0032 0134     		adds	r4, r4, #1
 188              	.LVL16:
 189 0034 E4B2     		uxtb	r4, r4
 190              	.LVL17:
 191              	.L13:
 303:.\Generated_Source\PSoC5/CapSense_CSD_CSHL.c ****     {
 192              		.loc 1 303 0 is_stmt 0 discriminator 1
 193 0036 072C     		cmp	r4, #7
 194 0038 EBD9     		bls	.L15
ARM GAS  C:\Users\LUKASC~1\AppData\Local\Temp\ccKrJm2d.s 			page 10


 316:.\Generated_Source\PSoC5/CapSense_CSD_CSHL.c ****     }
 317:.\Generated_Source\PSoC5/CapSense_CSD_CSHL.c **** }  
 195              		.loc 1 317 0 is_stmt 1
 196 003a 10BD     		pop	{r4, pc}
 197              	.LVL18:
 198              	.L18:
 199              		.align	2
 200              	.L17:
 201 003c 00000000 		.word	CapSense_CSD_sensorEnableMask
 202 0040 00000000 		.word	CapSense_CSD_sensorRaw
 203              		.cfi_endproc
 204              	.LFE3:
 205              		.size	CapSense_CSD_InitializeEnabledBaselines, .-CapSense_CSD_InitializeEnabledBaselines
 206              		.section	.text.CapSense_CSD_CheckIsSensorActive,"ax",%progbits
 207              		.align	2
 208              		.global	CapSense_CSD_CheckIsSensorActive
 209              		.thumb
 210              		.thumb_func
 211              		.type	CapSense_CSD_CheckIsSensorActive, %function
 212              	CapSense_CSD_CheckIsSensorActive:
 213              	.LFB6:
 318:.\Generated_Source\PSoC5/CapSense_CSD_CSHL.c **** 
 319:.\Generated_Source\PSoC5/CapSense_CSD_CSHL.c **** 
 320:.\Generated_Source\PSoC5/CapSense_CSD_CSHL.c **** /*******************************************************************************
 321:.\Generated_Source\PSoC5/CapSense_CSD_CSHL.c **** * Function Name: CapSense_CSD_UpdateSensorBaseline
 322:.\Generated_Source\PSoC5/CapSense_CSD_CSHL.c **** ********************************************************************************
 323:.\Generated_Source\PSoC5/CapSense_CSD_CSHL.c **** *
 324:.\Generated_Source\PSoC5/CapSense_CSD_CSHL.c **** * Summary:
 325:.\Generated_Source\PSoC5/CapSense_CSD_CSHL.c **** *  Updates the CapSense_CSD_sensorBaseline[sensor] array element using the 
 326:.\Generated_Source\PSoC5/CapSense_CSD_CSHL.c **** *  LP filter with k = 256. The signal calculates the difference of count by 
 327:.\Generated_Source\PSoC5/CapSense_CSD_CSHL.c **** *  subtracting the previous baseline from the current raw count value and stores
 328:.\Generated_Source\PSoC5/CapSense_CSD_CSHL.c **** *  it in CapSense_CSD_SensorSignal[sensor]. 
 329:.\Generated_Source\PSoC5/CapSense_CSD_CSHL.c **** *  If auto reset option is enabled the baseline updated regards noise threshold. 
 330:.\Generated_Source\PSoC5/CapSense_CSD_CSHL.c **** *  If auto reset option is disabled the baseline stops updating if signal is 
 331:.\Generated_Source\PSoC5/CapSense_CSD_CSHL.c **** *  greater that zero and baseline loads with raw count value if signal is less 
 332:.\Generated_Source\PSoC5/CapSense_CSD_CSHL.c **** *  that noise threshold.
 333:.\Generated_Source\PSoC5/CapSense_CSD_CSHL.c **** *  Raw data filters are applied to the values if enabled before baseline 
 334:.\Generated_Source\PSoC5/CapSense_CSD_CSHL.c **** *  calculation.
 335:.\Generated_Source\PSoC5/CapSense_CSD_CSHL.c **** *
 336:.\Generated_Source\PSoC5/CapSense_CSD_CSHL.c **** * Parameters:
 337:.\Generated_Source\PSoC5/CapSense_CSD_CSHL.c **** *  sensor:  Sensor number.
 338:.\Generated_Source\PSoC5/CapSense_CSD_CSHL.c **** *
 339:.\Generated_Source\PSoC5/CapSense_CSD_CSHL.c **** * Return:
 340:.\Generated_Source\PSoC5/CapSense_CSD_CSHL.c **** *  None
 341:.\Generated_Source\PSoC5/CapSense_CSD_CSHL.c **** *
 342:.\Generated_Source\PSoC5/CapSense_CSD_CSHL.c **** * Global Variables:
 343:.\Generated_Source\PSoC5/CapSense_CSD_CSHL.c **** *  CapSense_CSD_sensorBaseline[]    - used to store baseline value.
 344:.\Generated_Source\PSoC5/CapSense_CSD_CSHL.c **** *  CapSense_CSD_sensorBaselineLow[] - used to store fraction byte of 
 345:.\Generated_Source\PSoC5/CapSense_CSD_CSHL.c **** *  baseline value.
 346:.\Generated_Source\PSoC5/CapSense_CSD_CSHL.c **** *  CapSense_CSD_sensorSignal[]      - used to store diffence between 
 347:.\Generated_Source\PSoC5/CapSense_CSD_CSHL.c **** *  current value of raw data and previous value of baseline.
 348:.\Generated_Source\PSoC5/CapSense_CSD_CSHL.c **** *  CapSense_CSD_rawFilterData1[]    - used to store previous sample of 
 349:.\Generated_Source\PSoC5/CapSense_CSD_CSHL.c **** *  any enabled raw data filter.
 350:.\Generated_Source\PSoC5/CapSense_CSD_CSHL.c **** *  CapSense_CSD_rawFilterData2[]    - used to store before previous sample
 351:.\Generated_Source\PSoC5/CapSense_CSD_CSHL.c **** *  of enabled raw data filter. Only required for median or average filters.
 352:.\Generated_Source\PSoC5/CapSense_CSD_CSHL.c **** *
 353:.\Generated_Source\PSoC5/CapSense_CSD_CSHL.c **** * Reentrant:
ARM GAS  C:\Users\LUKASC~1\AppData\Local\Temp\ccKrJm2d.s 			page 11


 354:.\Generated_Source\PSoC5/CapSense_CSD_CSHL.c **** *  No
 355:.\Generated_Source\PSoC5/CapSense_CSD_CSHL.c **** *
 356:.\Generated_Source\PSoC5/CapSense_CSD_CSHL.c **** *******************************************************************************/
 357:.\Generated_Source\PSoC5/CapSense_CSD_CSHL.c ****  void CapSense_CSD_UpdateSensorBaseline(uint8 sensor)
 358:.\Generated_Source\PSoC5/CapSense_CSD_CSHL.c ****                                  
 359:.\Generated_Source\PSoC5/CapSense_CSD_CSHL.c **** {
 360:.\Generated_Source\PSoC5/CapSense_CSD_CSHL.c ****     uint32 calc;
 361:.\Generated_Source\PSoC5/CapSense_CSD_CSHL.c ****     uint16 tempRaw;
 362:.\Generated_Source\PSoC5/CapSense_CSD_CSHL.c ****     uint16 filteredRawData;
 363:.\Generated_Source\PSoC5/CapSense_CSD_CSHL.c ****     uint8 widget = CapSense_CSD_widgetNumber[sensor];
 364:.\Generated_Source\PSoC5/CapSense_CSD_CSHL.c ****     uint8 noiseThreshold = CapSense_CSD_noiseThreshold[widget];
 365:.\Generated_Source\PSoC5/CapSense_CSD_CSHL.c ****     
 366:.\Generated_Source\PSoC5/CapSense_CSD_CSHL.c ****     #if (CapSense_CSD_TOTAL_GENERICS_COUNT)
 367:.\Generated_Source\PSoC5/CapSense_CSD_CSHL.c ****         /* Exclude generic widget */
 368:.\Generated_Source\PSoC5/CapSense_CSD_CSHL.c ****         if(widget < CapSense_CSD_END_OF_WIDGETS_INDEX)
 369:.\Generated_Source\PSoC5/CapSense_CSD_CSHL.c ****         {
 370:.\Generated_Source\PSoC5/CapSense_CSD_CSHL.c ****     #endif  /* CapSense_CSD_TOTAL_GENERICS_COUNT */
 371:.\Generated_Source\PSoC5/CapSense_CSD_CSHL.c ****     
 372:.\Generated_Source\PSoC5/CapSense_CSD_CSHL.c ****     filteredRawData = CapSense_CSD_sensorRaw[sensor];
 373:.\Generated_Source\PSoC5/CapSense_CSD_CSHL.c ****     
 374:.\Generated_Source\PSoC5/CapSense_CSD_CSHL.c ****     #if (CapSense_CSD_RAW_FILTER_MASK & CapSense_CSD_MEDIAN_FILTER)
 375:.\Generated_Source\PSoC5/CapSense_CSD_CSHL.c ****         tempRaw = filteredRawData;
 376:.\Generated_Source\PSoC5/CapSense_CSD_CSHL.c ****         filteredRawData = CapSense_CSD_MedianFilter(filteredRawData, CapSense_CSD_rawFilterData1[se
 377:.\Generated_Source\PSoC5/CapSense_CSD_CSHL.c ****                                                         CapSense_CSD_rawFilterData2[sensor]);
 378:.\Generated_Source\PSoC5/CapSense_CSD_CSHL.c ****         CapSense_CSD_rawFilterData2[sensor] = CapSense_CSD_rawFilterData1[sensor];
 379:.\Generated_Source\PSoC5/CapSense_CSD_CSHL.c ****         CapSense_CSD_rawFilterData1[sensor] = tempRaw;
 380:.\Generated_Source\PSoC5/CapSense_CSD_CSHL.c ****         
 381:.\Generated_Source\PSoC5/CapSense_CSD_CSHL.c ****     #elif (CapSense_CSD_RAW_FILTER_MASK & CapSense_CSD_AVERAGING_FILTER)
 382:.\Generated_Source\PSoC5/CapSense_CSD_CSHL.c ****         tempRaw = filteredRawData;
 383:.\Generated_Source\PSoC5/CapSense_CSD_CSHL.c ****         filteredRawData = CapSense_CSD_AveragingFilter(filteredRawData, CapSense_CSD_rawFilterData1
 384:.\Generated_Source\PSoC5/CapSense_CSD_CSHL.c ****                                                            CapSense_CSD_rawFilterData2[sensor]);
 385:.\Generated_Source\PSoC5/CapSense_CSD_CSHL.c ****         CapSense_CSD_rawFilterData2[sensor] = CapSense_CSD_rawFilterData1[sensor];
 386:.\Generated_Source\PSoC5/CapSense_CSD_CSHL.c ****         CapSense_CSD_rawFilterData1[sensor] = tempRaw;
 387:.\Generated_Source\PSoC5/CapSense_CSD_CSHL.c ****         
 388:.\Generated_Source\PSoC5/CapSense_CSD_CSHL.c ****     #elif (CapSense_CSD_RAW_FILTER_MASK & CapSense_CSD_IIR2_FILTER)
 389:.\Generated_Source\PSoC5/CapSense_CSD_CSHL.c ****         filteredRawData = CapSense_CSD_IIR2Filter(filteredRawData, CapSense_CSD_rawFilterData1[sens
 390:.\Generated_Source\PSoC5/CapSense_CSD_CSHL.c ****         CapSense_CSD_rawFilterData1[sensor] = filteredRawData;
 391:.\Generated_Source\PSoC5/CapSense_CSD_CSHL.c ****         
 392:.\Generated_Source\PSoC5/CapSense_CSD_CSHL.c ****     #elif (CapSense_CSD_RAW_FILTER_MASK & CapSense_CSD_IIR4_FILTER)
 393:.\Generated_Source\PSoC5/CapSense_CSD_CSHL.c ****         filteredRawData = CapSense_CSD_IIR4Filter(filteredRawData, CapSense_CSD_rawFilterData1[sens
 394:.\Generated_Source\PSoC5/CapSense_CSD_CSHL.c ****         CapSense_CSD_rawFilterData1[sensor] = filteredRawData;
 395:.\Generated_Source\PSoC5/CapSense_CSD_CSHL.c ****             
 396:.\Generated_Source\PSoC5/CapSense_CSD_CSHL.c ****     #elif (CapSense_CSD_RAW_FILTER_MASK & CapSense_CSD_JITTER_FILTER)
 397:.\Generated_Source\PSoC5/CapSense_CSD_CSHL.c ****         filteredRawData = CapSense_CSD_JitterFilter(filteredRawData, CapSense_CSD_rawFilterData1[se
 398:.\Generated_Source\PSoC5/CapSense_CSD_CSHL.c ****         CapSense_CSD_rawFilterData1[sensor] = filteredRawData;
 399:.\Generated_Source\PSoC5/CapSense_CSD_CSHL.c ****         
 400:.\Generated_Source\PSoC5/CapSense_CSD_CSHL.c ****     #elif (CapSense_CSD_RAW_FILTER_MASK & CapSense_CSD_IIR8_FILTER)
 401:.\Generated_Source\PSoC5/CapSense_CSD_CSHL.c ****         filteredRawData = CapSense_CSD_IIR8Filter(filteredRawData, CapSense_CSD_rawFilterData1[sens
 402:.\Generated_Source\PSoC5/CapSense_CSD_CSHL.c ****         CapSense_CSD_rawFilterData1[sensor] = filteredRawData;
 403:.\Generated_Source\PSoC5/CapSense_CSD_CSHL.c ****         
 404:.\Generated_Source\PSoC5/CapSense_CSD_CSHL.c ****     #elif (CapSense_CSD_RAW_FILTER_MASK & CapSense_CSD_IIR16_FILTER)
 405:.\Generated_Source\PSoC5/CapSense_CSD_CSHL.c ****         filteredRawData = CapSense_CSD_IIR16Filter(filteredRawData, CapSense_CSD_rawFilterData1[sen
 406:.\Generated_Source\PSoC5/CapSense_CSD_CSHL.c ****         CapSense_CSD_rawFilterData1[sensor] = filteredRawData;
 407:.\Generated_Source\PSoC5/CapSense_CSD_CSHL.c ****         
 408:.\Generated_Source\PSoC5/CapSense_CSD_CSHL.c ****     #else
 409:.\Generated_Source\PSoC5/CapSense_CSD_CSHL.c ****         /* No Raw filters */
 410:.\Generated_Source\PSoC5/CapSense_CSD_CSHL.c ****     #endif  /* (CapSense_CSD_RAW_FILTER_MASK & CapSense_CSD_MEDIAN_FILTER) */
ARM GAS  C:\Users\LUKASC~1\AppData\Local\Temp\ccKrJm2d.s 			page 12


 411:.\Generated_Source\PSoC5/CapSense_CSD_CSHL.c ****     
 412:.\Generated_Source\PSoC5/CapSense_CSD_CSHL.c ****     #if (CapSense_CSD_TUNING_METHOD == CapSense_CSD_AUTO_TUNING)
 413:.\Generated_Source\PSoC5/CapSense_CSD_CSHL.c ****         CapSense_CSD_CalculateThresholds(sensor);
 414:.\Generated_Source\PSoC5/CapSense_CSD_CSHL.c ****     #endif /* (CapSense_CSD_TUNING_METHOD == CapSense_CSD_AUTO_TUNING) */
 415:.\Generated_Source\PSoC5/CapSense_CSD_CSHL.c **** 
 416:.\Generated_Source\PSoC5/CapSense_CSD_CSHL.c **** 
 417:.\Generated_Source\PSoC5/CapSense_CSD_CSHL.c ****     /* Baseline calculation */
 418:.\Generated_Source\PSoC5/CapSense_CSD_CSHL.c ****     /* Calculate difference RawData[cur] - Baseline[prev] */
 419:.\Generated_Source\PSoC5/CapSense_CSD_CSHL.c ****     if(filteredRawData >= CapSense_CSD_sensorBaseline[sensor])
 420:.\Generated_Source\PSoC5/CapSense_CSD_CSHL.c ****     {
 421:.\Generated_Source\PSoC5/CapSense_CSD_CSHL.c ****         tempRaw = filteredRawData - CapSense_CSD_sensorBaseline[sensor];
 422:.\Generated_Source\PSoC5/CapSense_CSD_CSHL.c ****         widget = 1u;    /* Positive difference - Calculate the Signal */
 423:.\Generated_Source\PSoC5/CapSense_CSD_CSHL.c ****     }
 424:.\Generated_Source\PSoC5/CapSense_CSD_CSHL.c ****     else
 425:.\Generated_Source\PSoC5/CapSense_CSD_CSHL.c ****     {
 426:.\Generated_Source\PSoC5/CapSense_CSD_CSHL.c ****         tempRaw = CapSense_CSD_sensorBaseline[sensor] - filteredRawData;
 427:.\Generated_Source\PSoC5/CapSense_CSD_CSHL.c ****         widget = 0u;    /* Negative difference - Do NOT calculate the Signal */
 428:.\Generated_Source\PSoC5/CapSense_CSD_CSHL.c ****     }
 429:.\Generated_Source\PSoC5/CapSense_CSD_CSHL.c **** 
 430:.\Generated_Source\PSoC5/CapSense_CSD_CSHL.c ****     if((widget == 0u) && (tempRaw > (uint16) CapSense_CSD_NEGATIVE_NOISE_THRESHOLD))
 431:.\Generated_Source\PSoC5/CapSense_CSD_CSHL.c ****     {
 432:.\Generated_Source\PSoC5/CapSense_CSD_CSHL.c ****         if(CapSense_CSD_lowBaselineResetCnt[sensor] >= CapSense_CSD_LOW_BASELINE_RESET)
 433:.\Generated_Source\PSoC5/CapSense_CSD_CSHL.c ****         {
 434:.\Generated_Source\PSoC5/CapSense_CSD_CSHL.c ****             CapSense_CSD_BaseInit(sensor);
 435:.\Generated_Source\PSoC5/CapSense_CSD_CSHL.c ****             CapSense_CSD_lowBaselineResetCnt[sensor] = 0u;
 436:.\Generated_Source\PSoC5/CapSense_CSD_CSHL.c ****         }
 437:.\Generated_Source\PSoC5/CapSense_CSD_CSHL.c ****         else
 438:.\Generated_Source\PSoC5/CapSense_CSD_CSHL.c ****         {
 439:.\Generated_Source\PSoC5/CapSense_CSD_CSHL.c ****             CapSense_CSD_lowBaselineResetCnt[sensor]++;
 440:.\Generated_Source\PSoC5/CapSense_CSD_CSHL.c ****         }
 441:.\Generated_Source\PSoC5/CapSense_CSD_CSHL.c ****     }
 442:.\Generated_Source\PSoC5/CapSense_CSD_CSHL.c ****     else
 443:.\Generated_Source\PSoC5/CapSense_CSD_CSHL.c ****     {
 444:.\Generated_Source\PSoC5/CapSense_CSD_CSHL.c ****         #if (CapSense_CSD_AUTO_RESET == CapSense_CSD_AUTO_RESET_DISABLE)
 445:.\Generated_Source\PSoC5/CapSense_CSD_CSHL.c ****             /* Update Baseline if lower that noiseThreshold */
 446:.\Generated_Source\PSoC5/CapSense_CSD_CSHL.c ****             if ( (tempRaw <= (uint16) noiseThreshold) || 
 447:.\Generated_Source\PSoC5/CapSense_CSD_CSHL.c ****                  ((tempRaw < (uint16) CapSense_CSD_NEGATIVE_NOISE_THRESHOLD)
 448:.\Generated_Source\PSoC5/CapSense_CSD_CSHL.c ****                    && (widget == 0u)))
 449:.\Generated_Source\PSoC5/CapSense_CSD_CSHL.c ****             {
 450:.\Generated_Source\PSoC5/CapSense_CSD_CSHL.c ****         #endif /* (CapSense_CSD_AUTO_RESET == CapSense_CSD_AUTO_RESET_DISABLE) */
 451:.\Generated_Source\PSoC5/CapSense_CSD_CSHL.c ****                 /* Make full Baseline 23 bits */
 452:.\Generated_Source\PSoC5/CapSense_CSD_CSHL.c ****                 calc = (uint32) CapSense_CSD_sensorBaseline[sensor] << 8u;
 453:.\Generated_Source\PSoC5/CapSense_CSD_CSHL.c ****                 calc |= (uint32) CapSense_CSD_sensorBaselineLow[sensor];
 454:.\Generated_Source\PSoC5/CapSense_CSD_CSHL.c **** 
 455:.\Generated_Source\PSoC5/CapSense_CSD_CSHL.c ****                 /* Add Raw Data to Baseline */
 456:.\Generated_Source\PSoC5/CapSense_CSD_CSHL.c ****                 calc += filteredRawData;
 457:.\Generated_Source\PSoC5/CapSense_CSD_CSHL.c **** 
 458:.\Generated_Source\PSoC5/CapSense_CSD_CSHL.c ****                 /* Sub the high Baseline */
 459:.\Generated_Source\PSoC5/CapSense_CSD_CSHL.c ****                 calc -= CapSense_CSD_sensorBaseline[sensor];
 460:.\Generated_Source\PSoC5/CapSense_CSD_CSHL.c **** 
 461:.\Generated_Source\PSoC5/CapSense_CSD_CSHL.c ****                 /* Put Baseline and BaselineLow */
 462:.\Generated_Source\PSoC5/CapSense_CSD_CSHL.c ****                 CapSense_CSD_sensorBaseline[sensor] = ((uint16) (calc >> 8u));
 463:.\Generated_Source\PSoC5/CapSense_CSD_CSHL.c ****                 CapSense_CSD_sensorBaselineLow[sensor] = ((uint8) calc);
 464:.\Generated_Source\PSoC5/CapSense_CSD_CSHL.c **** 
 465:.\Generated_Source\PSoC5/CapSense_CSD_CSHL.c ****                 CapSense_CSD_lowBaselineResetCnt[sensor] = 0u;
 466:.\Generated_Source\PSoC5/CapSense_CSD_CSHL.c ****         #if (CapSense_CSD_AUTO_RESET == CapSense_CSD_AUTO_RESET_DISABLE)
 467:.\Generated_Source\PSoC5/CapSense_CSD_CSHL.c ****             }
ARM GAS  C:\Users\LUKASC~1\AppData\Local\Temp\ccKrJm2d.s 			page 13


 468:.\Generated_Source\PSoC5/CapSense_CSD_CSHL.c ****         #endif /* (CapSense_CSD_AUTO_RESET == CapSense_CSD_AUTO_RESET_DISABLE) */
 469:.\Generated_Source\PSoC5/CapSense_CSD_CSHL.c ****     }
 470:.\Generated_Source\PSoC5/CapSense_CSD_CSHL.c **** 
 471:.\Generated_Source\PSoC5/CapSense_CSD_CSHL.c ****     /* Calculate Signal if possitive difference > noiseThreshold */
 472:.\Generated_Source\PSoC5/CapSense_CSD_CSHL.c ****     if((tempRaw > (uint16) noiseThreshold) && (widget != 0u))
 473:.\Generated_Source\PSoC5/CapSense_CSD_CSHL.c ****     {
 474:.\Generated_Source\PSoC5/CapSense_CSD_CSHL.c ****         #if (CapSense_CSD_SIGNAL_SIZE == CapSense_CSD_SIGNAL_SIZE_UINT8)
 475:.\Generated_Source\PSoC5/CapSense_CSD_CSHL.c ****             /* Over flow defence for uint8 */
 476:.\Generated_Source\PSoC5/CapSense_CSD_CSHL.c ****             if (tempRaw > 0xFFu)
 477:.\Generated_Source\PSoC5/CapSense_CSD_CSHL.c ****             {
 478:.\Generated_Source\PSoC5/CapSense_CSD_CSHL.c ****                 CapSense_CSD_sensorSignal[sensor] = 0xFFu;
 479:.\Generated_Source\PSoC5/CapSense_CSD_CSHL.c ****             }    
 480:.\Generated_Source\PSoC5/CapSense_CSD_CSHL.c ****             else 
 481:.\Generated_Source\PSoC5/CapSense_CSD_CSHL.c ****             {
 482:.\Generated_Source\PSoC5/CapSense_CSD_CSHL.c ****                 CapSense_CSD_sensorSignal[sensor] = ((uint8) tempRaw);
 483:.\Generated_Source\PSoC5/CapSense_CSD_CSHL.c ****             }
 484:.\Generated_Source\PSoC5/CapSense_CSD_CSHL.c ****         #else
 485:.\Generated_Source\PSoC5/CapSense_CSD_CSHL.c ****             CapSense_CSD_sensorSignal[sensor] = ((uint16) tempRaw);
 486:.\Generated_Source\PSoC5/CapSense_CSD_CSHL.c ****         #endif  /* (CapSense_CSD_SIGNAL_SIZE == CapSense_CSD_SIGNAL_SIZE_UINT8) */
 487:.\Generated_Source\PSoC5/CapSense_CSD_CSHL.c ****     }
 488:.\Generated_Source\PSoC5/CapSense_CSD_CSHL.c ****     else
 489:.\Generated_Source\PSoC5/CapSense_CSD_CSHL.c ****     {
 490:.\Generated_Source\PSoC5/CapSense_CSD_CSHL.c ****         /* Signal is zero */
 491:.\Generated_Source\PSoC5/CapSense_CSD_CSHL.c ****         CapSense_CSD_sensorSignal[sensor] = 0u;
 492:.\Generated_Source\PSoC5/CapSense_CSD_CSHL.c ****     }
 493:.\Generated_Source\PSoC5/CapSense_CSD_CSHL.c **** 
 494:.\Generated_Source\PSoC5/CapSense_CSD_CSHL.c ****     #if (CapSense_CSD_TOTAL_GENERICS_COUNT)
 495:.\Generated_Source\PSoC5/CapSense_CSD_CSHL.c ****         /* Exclude generic widget */
 496:.\Generated_Source\PSoC5/CapSense_CSD_CSHL.c ****         }
 497:.\Generated_Source\PSoC5/CapSense_CSD_CSHL.c ****     #endif  /* CapSense_CSD_TOTAL_GENERICS_COUNT */
 498:.\Generated_Source\PSoC5/CapSense_CSD_CSHL.c **** }
 499:.\Generated_Source\PSoC5/CapSense_CSD_CSHL.c **** 
 500:.\Generated_Source\PSoC5/CapSense_CSD_CSHL.c **** 
 501:.\Generated_Source\PSoC5/CapSense_CSD_CSHL.c **** /*******************************************************************************
 502:.\Generated_Source\PSoC5/CapSense_CSD_CSHL.c **** * Function Name: CapSense_CSD_UpdateEnabledBaselines
 503:.\Generated_Source\PSoC5/CapSense_CSD_CSHL.c **** ********************************************************************************
 504:.\Generated_Source\PSoC5/CapSense_CSD_CSHL.c **** *
 505:.\Generated_Source\PSoC5/CapSense_CSD_CSHL.c **** * Summary:
 506:.\Generated_Source\PSoC5/CapSense_CSD_CSHL.c **** *  Checks CapSense_CSD_sensorEnableMask[] array and calls the 
 507:.\Generated_Source\PSoC5/CapSense_CSD_CSHL.c **** *  CapSense_CSD_UpdateSensorBaseline function to update the baselines 
 508:.\Generated_Source\PSoC5/CapSense_CSD_CSHL.c **** *  for enabled sensors.
 509:.\Generated_Source\PSoC5/CapSense_CSD_CSHL.c **** *
 510:.\Generated_Source\PSoC5/CapSense_CSD_CSHL.c **** * Parameters:
 511:.\Generated_Source\PSoC5/CapSense_CSD_CSHL.c **** *  None
 512:.\Generated_Source\PSoC5/CapSense_CSD_CSHL.c **** *
 513:.\Generated_Source\PSoC5/CapSense_CSD_CSHL.c **** * Return:
 514:.\Generated_Source\PSoC5/CapSense_CSD_CSHL.c **** *  None
 515:.\Generated_Source\PSoC5/CapSense_CSD_CSHL.c **** *
 516:.\Generated_Source\PSoC5/CapSense_CSD_CSHL.c **** * Global Variables:
 517:.\Generated_Source\PSoC5/CapSense_CSD_CSHL.c **** *  CapSense_CSD_sensorEnableMask[] - used to store the sensor scanning 
 518:.\Generated_Source\PSoC5/CapSense_CSD_CSHL.c **** *  state.
 519:.\Generated_Source\PSoC5/CapSense_CSD_CSHL.c **** *  CapSense_CSD_sensorEnableMask[0] contains the masked bits for sensors 
 520:.\Generated_Source\PSoC5/CapSense_CSD_CSHL.c **** *   0 through 7 (sensor 0 is bit 0, sensor 1 is bit 1).
 521:.\Generated_Source\PSoC5/CapSense_CSD_CSHL.c **** *  CapSense_CSD_sensorEnableMask[1] contains the masked bits for 
 522:.\Generated_Source\PSoC5/CapSense_CSD_CSHL.c **** *  sensors 8 through 15 (if needed), and so on.
 523:.\Generated_Source\PSoC5/CapSense_CSD_CSHL.c **** *  0 - sensor doesn't scan by CapSense_CSD_ScanEnabledWidgets().
 524:.\Generated_Source\PSoC5/CapSense_CSD_CSHL.c **** *  1 - sensor scans by CapSense_CSD_ScanEnabledWidgets().
ARM GAS  C:\Users\LUKASC~1\AppData\Local\Temp\ccKrJm2d.s 			page 14


 525:.\Generated_Source\PSoC5/CapSense_CSD_CSHL.c **** *
 526:.\Generated_Source\PSoC5/CapSense_CSD_CSHL.c **** * Reentrant:
 527:.\Generated_Source\PSoC5/CapSense_CSD_CSHL.c **** *  No
 528:.\Generated_Source\PSoC5/CapSense_CSD_CSHL.c **** *
 529:.\Generated_Source\PSoC5/CapSense_CSD_CSHL.c **** *******************************************************************************/
 530:.\Generated_Source\PSoC5/CapSense_CSD_CSHL.c ****  void CapSense_CSD_UpdateEnabledBaselines(void)
 531:.\Generated_Source\PSoC5/CapSense_CSD_CSHL.c ****                                  
 532:.\Generated_Source\PSoC5/CapSense_CSD_CSHL.c **** {
 533:.\Generated_Source\PSoC5/CapSense_CSD_CSHL.c ****     uint8 i;
 534:.\Generated_Source\PSoC5/CapSense_CSD_CSHL.c ****     uint8 pos;
 535:.\Generated_Source\PSoC5/CapSense_CSD_CSHL.c ****     uint8 enMask;
 536:.\Generated_Source\PSoC5/CapSense_CSD_CSHL.c ****     
 537:.\Generated_Source\PSoC5/CapSense_CSD_CSHL.c ****     for(i = 0u; i < CapSense_CSD_TOTAL_SENSOR_COUNT; i++)
 538:.\Generated_Source\PSoC5/CapSense_CSD_CSHL.c ****     {
 539:.\Generated_Source\PSoC5/CapSense_CSD_CSHL.c ****         pos = (i >> 3u);
 540:.\Generated_Source\PSoC5/CapSense_CSD_CSHL.c ****         enMask = (uint8)(0x01u << (i & 0x07u));
 541:.\Generated_Source\PSoC5/CapSense_CSD_CSHL.c ****         if((CapSense_CSD_sensorEnableMask[pos] & enMask) != 0u)
 542:.\Generated_Source\PSoC5/CapSense_CSD_CSHL.c ****         {
 543:.\Generated_Source\PSoC5/CapSense_CSD_CSHL.c ****             CapSense_CSD_UpdateSensorBaseline(i);
 544:.\Generated_Source\PSoC5/CapSense_CSD_CSHL.c ****         }
 545:.\Generated_Source\PSoC5/CapSense_CSD_CSHL.c ****     }
 546:.\Generated_Source\PSoC5/CapSense_CSD_CSHL.c **** }
 547:.\Generated_Source\PSoC5/CapSense_CSD_CSHL.c **** 
 548:.\Generated_Source\PSoC5/CapSense_CSD_CSHL.c **** 
 549:.\Generated_Source\PSoC5/CapSense_CSD_CSHL.c **** /*******************************************************************************
 550:.\Generated_Source\PSoC5/CapSense_CSD_CSHL.c **** * Function Name: CapSense_CSD_CheckIsSensorActive
 551:.\Generated_Source\PSoC5/CapSense_CSD_CSHL.c **** ********************************************************************************
 552:.\Generated_Source\PSoC5/CapSense_CSD_CSHL.c **** *
 553:.\Generated_Source\PSoC5/CapSense_CSD_CSHL.c **** * Summary:
 554:.\Generated_Source\PSoC5/CapSense_CSD_CSHL.c **** *  Compares the CapSense_CSD_SensorSignal[sensor] array element to finger
 555:.\Generated_Source\PSoC5/CapSense_CSD_CSHL.c **** *  threshold of widget it belongs to. The hysteresis and debounce are taken into 
 556:.\Generated_Source\PSoC5/CapSense_CSD_CSHL.c **** *  account. The hysteresis is added or subtracted from the finger threshold 
 557:.\Generated_Source\PSoC5/CapSense_CSD_CSHL.c **** *  based on whether the sensor is currently active. 
 558:.\Generated_Source\PSoC5/CapSense_CSD_CSHL.c **** *  If the sensor is active, the threshold is lowered by the hysteresis amount.
 559:.\Generated_Source\PSoC5/CapSense_CSD_CSHL.c **** *  If the sensor is inactive, the threshold is raised by the hysteresis amount.
 560:.\Generated_Source\PSoC5/CapSense_CSD_CSHL.c **** *  The debounce counter added to the sensor active transition.
 561:.\Generated_Source\PSoC5/CapSense_CSD_CSHL.c **** *  This function updates CapSense_CSD_SensorOnMask[] array element.
 562:.\Generated_Source\PSoC5/CapSense_CSD_CSHL.c **** *
 563:.\Generated_Source\PSoC5/CapSense_CSD_CSHL.c **** * Parameters:
 564:.\Generated_Source\PSoC5/CapSense_CSD_CSHL.c **** *  sensor:  Sensor number.
 565:.\Generated_Source\PSoC5/CapSense_CSD_CSHL.c **** *
 566:.\Generated_Source\PSoC5/CapSense_CSD_CSHL.c **** * Return:
 567:.\Generated_Source\PSoC5/CapSense_CSD_CSHL.c **** *  Returns sensor state 1 if active, 0 if not active.
 568:.\Generated_Source\PSoC5/CapSense_CSD_CSHL.c **** *
 569:.\Generated_Source\PSoC5/CapSense_CSD_CSHL.c **** * Global Variables:
 570:.\Generated_Source\PSoC5/CapSense_CSD_CSHL.c **** *  CapSense_CSD_sensorSignal[]      - used to store diffence between 
 571:.\Generated_Source\PSoC5/CapSense_CSD_CSHL.c **** *  current value of raw data and previous value of baseline.
 572:.\Generated_Source\PSoC5/CapSense_CSD_CSHL.c **** *  CapSense_CSD_debounceCounter[]   - used to store current debounce 
 573:.\Generated_Source\PSoC5/CapSense_CSD_CSHL.c **** *  counter of sensor. Widget which has this parameter are buttons, matrix 
 574:.\Generated_Source\PSoC5/CapSense_CSD_CSHL.c **** *  buttons, proximity, guard. All other widgets haven't debounce parameter
 575:.\Generated_Source\PSoC5/CapSense_CSD_CSHL.c **** *  and use the last element of this array with value 0 (it means no debounce).
 576:.\Generated_Source\PSoC5/CapSense_CSD_CSHL.c **** *  CapSense_CSD_sensorOnMask[] - used to store sensors on/off state.
 577:.\Generated_Source\PSoC5/CapSense_CSD_CSHL.c **** *  CapSense_CSD_sensorOnMask[0] contains the masked bits for sensors 
 578:.\Generated_Source\PSoC5/CapSense_CSD_CSHL.c **** *   0 through 7 (sensor 0 is bit 0, sensor 1 is bit 1).
 579:.\Generated_Source\PSoC5/CapSense_CSD_CSHL.c **** *  CapSense_CSD_sensorEnableMask[1] contains the masked bits for 
 580:.\Generated_Source\PSoC5/CapSense_CSD_CSHL.c **** *  sensors 8 through 15 (if needed), and so on.
 581:.\Generated_Source\PSoC5/CapSense_CSD_CSHL.c **** *  0 - sensor is inactive.
ARM GAS  C:\Users\LUKASC~1\AppData\Local\Temp\ccKrJm2d.s 			page 15


 582:.\Generated_Source\PSoC5/CapSense_CSD_CSHL.c **** *  1 - sensor is active.
 583:.\Generated_Source\PSoC5/CapSense_CSD_CSHL.c **** *
 584:.\Generated_Source\PSoC5/CapSense_CSD_CSHL.c **** * Reentrant:
 585:.\Generated_Source\PSoC5/CapSense_CSD_CSHL.c **** *  No
 586:.\Generated_Source\PSoC5/CapSense_CSD_CSHL.c **** *
 587:.\Generated_Source\PSoC5/CapSense_CSD_CSHL.c **** *******************************************************************************/
 588:.\Generated_Source\PSoC5/CapSense_CSD_CSHL.c **** uint8 CapSense_CSD_CheckIsSensorActive(uint8 sensor)
 589:.\Generated_Source\PSoC5/CapSense_CSD_CSHL.c ****                                   
 590:.\Generated_Source\PSoC5/CapSense_CSD_CSHL.c **** {
 214              		.loc 1 590 0
 215              		.cfi_startproc
 216              		@ args = 0, pretend = 0, frame = 0
 217              		@ frame_needed = 0, uses_anonymous_args = 0
 218              	.LVL19:
 219 0000 F0B5     		push	{r4, r5, r6, r7, lr}
 220              		.cfi_def_cfa_offset 20
 221              		.cfi_offset 4, -20
 222              		.cfi_offset 5, -16
 223              		.cfi_offset 6, -12
 224              		.cfi_offset 7, -8
 225              		.cfi_offset 14, -4
 591:.\Generated_Source\PSoC5/CapSense_CSD_CSHL.c ****     uint8 debounceIndex;
 592:.\Generated_Source\PSoC5/CapSense_CSD_CSHL.c ****     /* Get On/Off mask */
 593:.\Generated_Source\PSoC5/CapSense_CSD_CSHL.c ****     uint8 pos = (sensor >> 3u);
 226              		.loc 1 593 0
 227 0002 C408     		lsrs	r4, r0, #3
 228              	.LVL20:
 594:.\Generated_Source\PSoC5/CapSense_CSD_CSHL.c ****     uint8 onMask = 0x01u << (sensor & 0x07u);
 229              		.loc 1 594 0
 230 0004 00F00703 		and	r3, r0, #7
 231 0008 0126     		movs	r6, #1
 232 000a 06FA03F3 		lsl	r3, r6, r3
 233 000e DBB2     		uxtb	r3, r3
 234              	.LVL21:
 595:.\Generated_Source\PSoC5/CapSense_CSD_CSHL.c ****     /* Prepare to find debounce counter index */
 596:.\Generated_Source\PSoC5/CapSense_CSD_CSHL.c ****     uint8 widget = CapSense_CSD_widgetNumber[sensor];
 235              		.loc 1 596 0
 236 0010 174A     		ldr	r2, .L25
 237 0012 125C     		ldrb	r2, [r2, r0]	@ zero_extendqisi2
 238              	.LVL22:
 597:.\Generated_Source\PSoC5/CapSense_CSD_CSHL.c ****     uint8 fingerThreshold = CapSense_CSD_fingerThreshold[widget];
 239              		.loc 1 597 0
 240 0014 174F     		ldr	r7, .L25+4
 241 0016 17F802E0 		ldrb	lr, [r7, r2]	@ zero_extendqisi2
 242              	.LVL23:
 598:.\Generated_Source\PSoC5/CapSense_CSD_CSHL.c ****     uint8 hysteresis = CapSense_CSD_hysteresis[widget];
 243              		.loc 1 598 0
 244 001a 174D     		ldr	r5, .L25+8
 245 001c A95C     		ldrb	r1, [r5, r2]	@ zero_extendqisi2
 246              	.LVL24:
 599:.\Generated_Source\PSoC5/CapSense_CSD_CSHL.c ****     uint8 debounce = CapSense_CSD_debounce[widget];
 247              		.loc 1 599 0
 248 001e 3A44     		add	r2, r2, r7
 249              	.LVL25:
 250 0020 1779     		ldrb	r7, [r2, #4]	@ zero_extendqisi2
 251              	.LVL26:
 600:.\Generated_Source\PSoC5/CapSense_CSD_CSHL.c ****     
ARM GAS  C:\Users\LUKASC~1\AppData\Local\Temp\ccKrJm2d.s 			page 16


 601:.\Generated_Source\PSoC5/CapSense_CSD_CSHL.c ****     debounceIndex = CapSense_CSD_UNUSED_DEBOUNCE_COUNTER_INDEX;
 602:.\Generated_Source\PSoC5/CapSense_CSD_CSHL.c ****     CapSense_CSD_debounceCounter[debounceIndex] = 1u;
 252              		.loc 1 602 0
 253 0022 2E71     		strb	r6, [r5, #4]
 603:.\Generated_Source\PSoC5/CapSense_CSD_CSHL.c **** 
 604:.\Generated_Source\PSoC5/CapSense_CSD_CSHL.c ****     
 605:.\Generated_Source\PSoC5/CapSense_CSD_CSHL.c ****     /* Was on */
 606:.\Generated_Source\PSoC5/CapSense_CSD_CSHL.c ****     if (0u != (CapSense_CSD_sensorOnMask[pos] & onMask))
 254              		.loc 1 606 0
 255 0024 154A     		ldr	r2, .L25+12
 256 0026 125D     		ldrb	r2, [r2, r4]	@ zero_extendqisi2
 257 0028 1A42     		tst	r2, r3
 258 002a 0CD0     		beq	.L20
 607:.\Generated_Source\PSoC5/CapSense_CSD_CSHL.c ****     {
 608:.\Generated_Source\PSoC5/CapSense_CSD_CSHL.c ****         /* Hysteresis minus */
 609:.\Generated_Source\PSoC5/CapSense_CSD_CSHL.c ****         if (CapSense_CSD_sensorSignal[sensor] < (fingerThreshold - hysteresis))
 259              		.loc 1 609 0
 260 002c 144D     		ldr	r5, .L25+16
 261 002e 285C     		ldrb	r0, [r5, r0]	@ zero_extendqisi2
 262              	.LVL27:
 263 0030 C1EB0E01 		rsb	r1, r1, lr
 264              	.LVL28:
 265 0034 8842     		cmp	r0, r1
 266 0036 14DA     		bge	.L21
 610:.\Generated_Source\PSoC5/CapSense_CSD_CSHL.c ****         {
 611:.\Generated_Source\PSoC5/CapSense_CSD_CSHL.c ****             CapSense_CSD_sensorOnMask[pos] &= (uint8)~onMask;
 267              		.loc 1 611 0
 268 0038 22EA0302 		bic	r2, r2, r3
 269 003c 0F49     		ldr	r1, .L25+12
 270 003e 0A55     		strb	r2, [r1, r4]
 612:.\Generated_Source\PSoC5/CapSense_CSD_CSHL.c ****             CapSense_CSD_debounceCounter[debounceIndex] = debounce; 
 271              		.loc 1 612 0
 272 0040 0D4A     		ldr	r2, .L25+8
 273 0042 1771     		strb	r7, [r2, #4]
 274 0044 0DE0     		b	.L21
 275              	.LVL29:
 276              	.L20:
 613:.\Generated_Source\PSoC5/CapSense_CSD_CSHL.c ****         }
 614:.\Generated_Source\PSoC5/CapSense_CSD_CSHL.c ****     }
 615:.\Generated_Source\PSoC5/CapSense_CSD_CSHL.c ****     else    /* Was off */
 616:.\Generated_Source\PSoC5/CapSense_CSD_CSHL.c ****     {
 617:.\Generated_Source\PSoC5/CapSense_CSD_CSHL.c ****         /* Hysteresis plus */
 618:.\Generated_Source\PSoC5/CapSense_CSD_CSHL.c ****         if (CapSense_CSD_sensorSignal[sensor] > (fingerThreshold + hysteresis))
 277              		.loc 1 618 0
 278 0046 0E4D     		ldr	r5, .L25+16
 279 0048 285C     		ldrb	r0, [r5, r0]	@ zero_extendqisi2
 280              	.LVL30:
 281 004a 7144     		add	r1, r1, lr
 282              	.LVL31:
 283 004c 8842     		cmp	r0, r1
 284 004e 06DD     		ble	.L22
 619:.\Generated_Source\PSoC5/CapSense_CSD_CSHL.c ****         {
 620:.\Generated_Source\PSoC5/CapSense_CSD_CSHL.c ****             /* Sensor active, decrement debounce counter */
 621:.\Generated_Source\PSoC5/CapSense_CSD_CSHL.c ****             if (CapSense_CSD_debounceCounter[debounceIndex] <= 1u)
 622:.\Generated_Source\PSoC5/CapSense_CSD_CSHL.c ****             {
 623:.\Generated_Source\PSoC5/CapSense_CSD_CSHL.c ****                 CapSense_CSD_sensorOnMask[pos] |= onMask; 
 285              		.loc 1 623 0
ARM GAS  C:\Users\LUKASC~1\AppData\Local\Temp\ccKrJm2d.s 			page 17


 286 0050 1A43     		orrs	r2, r2, r3
 287 0052 0A49     		ldr	r1, .L25+12
 288 0054 0A55     		strb	r2, [r1, r4]
 624:.\Generated_Source\PSoC5/CapSense_CSD_CSHL.c ****             }
 625:.\Generated_Source\PSoC5/CapSense_CSD_CSHL.c ****             CapSense_CSD_debounceCounter[debounceIndex]--;
 289              		.loc 1 625 0
 290 0056 0021     		movs	r1, #0
 291 0058 074A     		ldr	r2, .L25+8
 292 005a 1171     		strb	r1, [r2, #4]
 293 005c 01E0     		b	.L21
 294              	.L22:
 626:.\Generated_Source\PSoC5/CapSense_CSD_CSHL.c ****         }
 627:.\Generated_Source\PSoC5/CapSense_CSD_CSHL.c ****         else
 628:.\Generated_Source\PSoC5/CapSense_CSD_CSHL.c ****         {
 629:.\Generated_Source\PSoC5/CapSense_CSD_CSHL.c ****             /* Sensor inactive - reset Debounce counter */
 630:.\Generated_Source\PSoC5/CapSense_CSD_CSHL.c ****             CapSense_CSD_debounceCounter[debounceIndex] = debounce;
 295              		.loc 1 630 0
 296 005e 064A     		ldr	r2, .L25+8
 297 0060 1771     		strb	r7, [r2, #4]
 298              	.L21:
 631:.\Generated_Source\PSoC5/CapSense_CSD_CSHL.c ****         }
 632:.\Generated_Source\PSoC5/CapSense_CSD_CSHL.c ****     }
 633:.\Generated_Source\PSoC5/CapSense_CSD_CSHL.c ****     
 634:.\Generated_Source\PSoC5/CapSense_CSD_CSHL.c ****     return (((CapSense_CSD_sensorOnMask[pos] & onMask) != 0u) ? 1u : 0u);
 299              		.loc 1 634 0
 300 0062 064A     		ldr	r2, .L25+12
 301 0064 105D     		ldrb	r0, [r2, r4]	@ zero_extendqisi2
 302 0066 1840     		ands	r0, r0, r3
 303 0068 00D0     		beq	.L23
 304 006a 0120     		movs	r0, #1
 305              	.L23:
 635:.\Generated_Source\PSoC5/CapSense_CSD_CSHL.c **** }
 306              		.loc 1 635 0 discriminator 4
 307 006c F0BD     		pop	{r4, r5, r6, r7, pc}
 308              	.LVL32:
 309              	.L26:
 310 006e 00BF     		.align	2
 311              	.L25:
 312 0070 00000000 		.word	CapSense_CSD_widgetNumber
 313 0074 00000000 		.word	.LANCHOR0
 314 0078 00000000 		.word	.LANCHOR1
 315 007c 00000000 		.word	CapSense_CSD_sensorOnMask
 316 0080 00000000 		.word	CapSense_CSD_sensorSignal
 317              		.cfi_endproc
 318              	.LFE6:
 319              		.size	CapSense_CSD_CheckIsSensorActive, .-CapSense_CSD_CheckIsSensorActive
 320              		.section	.text.CapSense_CSD_CheckIsWidgetActive,"ax",%progbits
 321              		.align	2
 322              		.global	CapSense_CSD_CheckIsWidgetActive
 323              		.thumb
 324              		.thumb_func
 325              		.type	CapSense_CSD_CheckIsWidgetActive, %function
 326              	CapSense_CSD_CheckIsWidgetActive:
 327              	.LFB7:
 636:.\Generated_Source\PSoC5/CapSense_CSD_CSHL.c **** 
 637:.\Generated_Source\PSoC5/CapSense_CSD_CSHL.c **** 
 638:.\Generated_Source\PSoC5/CapSense_CSD_CSHL.c **** /*******************************************************************************
ARM GAS  C:\Users\LUKASC~1\AppData\Local\Temp\ccKrJm2d.s 			page 18


 639:.\Generated_Source\PSoC5/CapSense_CSD_CSHL.c **** * Function Name: CapSense_CSD_CheckIsWidgetActive
 640:.\Generated_Source\PSoC5/CapSense_CSD_CSHL.c **** ********************************************************************************
 641:.\Generated_Source\PSoC5/CapSense_CSD_CSHL.c **** *
 642:.\Generated_Source\PSoC5/CapSense_CSD_CSHL.c **** * Summary:
 643:.\Generated_Source\PSoC5/CapSense_CSD_CSHL.c **** *  Use function CapSense_CSD_CheckIsSensorActive() to update 
 644:.\Generated_Source\PSoC5/CapSense_CSD_CSHL.c **** *  CapSense_CSD_sensorOnMask[] for all sensors within the widget.
 645:.\Generated_Source\PSoC5/CapSense_CSD_CSHL.c **** *  If one of sensors within widget is active the function return that widget is 
 646:.\Generated_Source\PSoC5/CapSense_CSD_CSHL.c **** *  active.
 647:.\Generated_Source\PSoC5/CapSense_CSD_CSHL.c **** *  The touch pad and matrix buttons widgets need to have active sensor within 
 648:.\Generated_Source\PSoC5/CapSense_CSD_CSHL.c **** *  col and row to return widget active status.
 649:.\Generated_Source\PSoC5/CapSense_CSD_CSHL.c **** *
 650:.\Generated_Source\PSoC5/CapSense_CSD_CSHL.c **** * Parameters:
 651:.\Generated_Source\PSoC5/CapSense_CSD_CSHL.c **** *  widget:  widget number.
 652:.\Generated_Source\PSoC5/CapSense_CSD_CSHL.c **** *
 653:.\Generated_Source\PSoC5/CapSense_CSD_CSHL.c **** * Return:
 654:.\Generated_Source\PSoC5/CapSense_CSD_CSHL.c **** *  Returns widget sensor state 1 if one or more sensors within widget is/are 
 655:.\Generated_Source\PSoC5/CapSense_CSD_CSHL.c **** *  active, 0 if all sensors within widget are inactive.
 656:.\Generated_Source\PSoC5/CapSense_CSD_CSHL.c **** *
 657:.\Generated_Source\PSoC5/CapSense_CSD_CSHL.c **** * Reentrant:
 658:.\Generated_Source\PSoC5/CapSense_CSD_CSHL.c **** *  No
 659:.\Generated_Source\PSoC5/CapSense_CSD_CSHL.c **** *
 660:.\Generated_Source\PSoC5/CapSense_CSD_CSHL.c **** *******************************************************************************/
 661:.\Generated_Source\PSoC5/CapSense_CSD_CSHL.c **** uint8 CapSense_CSD_CheckIsWidgetActive(uint8 widget)
 662:.\Generated_Source\PSoC5/CapSense_CSD_CSHL.c ****                                  
 663:.\Generated_Source\PSoC5/CapSense_CSD_CSHL.c **** {
 328              		.loc 1 663 0
 329              		.cfi_startproc
 330              		@ args = 0, pretend = 0, frame = 0
 331              		@ frame_needed = 0, uses_anonymous_args = 0
 332              	.LVL33:
 333 0000 38B5     		push	{r3, r4, r5, lr}
 334              		.cfi_def_cfa_offset 16
 335              		.cfi_offset 3, -16
 336              		.cfi_offset 4, -12
 337              		.cfi_offset 5, -8
 338              		.cfi_offset 14, -4
 339              	.LVL34:
 664:.\Generated_Source\PSoC5/CapSense_CSD_CSHL.c ****     uint8 rawIndex = CapSense_CSD_rawDataIndex[widget];
 665:.\Generated_Source\PSoC5/CapSense_CSD_CSHL.c ****     uint8 numberOfSensors = CapSense_CSD_numberOfSensors[widget] + rawIndex;
 666:.\Generated_Source\PSoC5/CapSense_CSD_CSHL.c ****     uint8 state = 0u;
 340              		.loc 1 666 0
 341 0002 0025     		movs	r5, #0
 664:.\Generated_Source\PSoC5/CapSense_CSD_CSHL.c ****     uint8 rawIndex = CapSense_CSD_rawDataIndex[widget];
 342              		.loc 1 664 0
 343 0004 2C46     		mov	r4, r5
 344              	.LVL35:
 345              	.L29:
 667:.\Generated_Source\PSoC5/CapSense_CSD_CSHL.c **** 
 668:.\Generated_Source\PSoC5/CapSense_CSD_CSHL.c ****     /* Check all sensors of the widget */
 669:.\Generated_Source\PSoC5/CapSense_CSD_CSHL.c ****     do
 670:.\Generated_Source\PSoC5/CapSense_CSD_CSHL.c ****     {
 671:.\Generated_Source\PSoC5/CapSense_CSD_CSHL.c ****         if(CapSense_CSD_CheckIsSensorActive(rawIndex) != 0u)
 346              		.loc 1 671 0
 347 0006 2046     		mov	r0, r4
 348 0008 FFF7FEFF 		bl	CapSense_CSD_CheckIsSensorActive
 349              	.LVL36:
 350 000c 00B1     		cbz	r0, .L28
ARM GAS  C:\Users\LUKASC~1\AppData\Local\Temp\ccKrJm2d.s 			page 19


 672:.\Generated_Source\PSoC5/CapSense_CSD_CSHL.c ****         {
 673:.\Generated_Source\PSoC5/CapSense_CSD_CSHL.c ****             state = CapSense_CSD_SENSOR_1_IS_ACTIVE;
 351              		.loc 1 673 0
 352 000e 0125     		movs	r5, #1
 353              	.LVL37:
 354              	.L28:
 674:.\Generated_Source\PSoC5/CapSense_CSD_CSHL.c ****         }
 675:.\Generated_Source\PSoC5/CapSense_CSD_CSHL.c ****         rawIndex++;
 355              		.loc 1 675 0
 356 0010 0134     		adds	r4, r4, #1
 357              	.LVL38:
 358 0012 E4B2     		uxtb	r4, r4
 359              	.LVL39:
 676:.\Generated_Source\PSoC5/CapSense_CSD_CSHL.c ****     }
 677:.\Generated_Source\PSoC5/CapSense_CSD_CSHL.c ****     while(rawIndex < numberOfSensors);
 360              		.loc 1 677 0
 361 0014 072C     		cmp	r4, #7
 362 0016 F6D9     		bls	.L29
 678:.\Generated_Source\PSoC5/CapSense_CSD_CSHL.c ****     
 679:.\Generated_Source\PSoC5/CapSense_CSD_CSHL.c **** 
 680:.\Generated_Source\PSoC5/CapSense_CSD_CSHL.c ****     
 681:.\Generated_Source\PSoC5/CapSense_CSD_CSHL.c ****     return (state);
 682:.\Generated_Source\PSoC5/CapSense_CSD_CSHL.c **** }
 363              		.loc 1 682 0
 364 0018 2846     		mov	r0, r5
 365 001a 38BD     		pop	{r3, r4, r5, pc}
 366              		.cfi_endproc
 367              	.LFE7:
 368              		.size	CapSense_CSD_CheckIsWidgetActive, .-CapSense_CSD_CheckIsWidgetActive
 369              		.section	.text.CapSense_CSD_CheckIsAnyWidgetActive,"ax",%progbits
 370              		.align	2
 371              		.global	CapSense_CSD_CheckIsAnyWidgetActive
 372              		.thumb
 373              		.thumb_func
 374              		.type	CapSense_CSD_CheckIsAnyWidgetActive, %function
 375              	CapSense_CSD_CheckIsAnyWidgetActive:
 376              	.LFB8:
 683:.\Generated_Source\PSoC5/CapSense_CSD_CSHL.c **** 
 684:.\Generated_Source\PSoC5/CapSense_CSD_CSHL.c **** 
 685:.\Generated_Source\PSoC5/CapSense_CSD_CSHL.c **** /*******************************************************************************
 686:.\Generated_Source\PSoC5/CapSense_CSD_CSHL.c **** * Function Name: CapSense_CSD_CheckIsAnyWidgetActive
 687:.\Generated_Source\PSoC5/CapSense_CSD_CSHL.c **** ********************************************************************************
 688:.\Generated_Source\PSoC5/CapSense_CSD_CSHL.c **** *
 689:.\Generated_Source\PSoC5/CapSense_CSD_CSHL.c **** * Summary:
 690:.\Generated_Source\PSoC5/CapSense_CSD_CSHL.c **** *  Compares all sensors of the CapSense_CSD_signal[] array to their finger 
 691:.\Generated_Source\PSoC5/CapSense_CSD_CSHL.c **** *  threshold. Calls CapSense_CSD_CheckIsWidgetActive() for each widget so 
 692:.\Generated_Source\PSoC5/CapSense_CSD_CSHL.c **** *  the CapSense_CSD_SensorOnMask[] array is up to date after calling this 
 693:.\Generated_Source\PSoC5/CapSense_CSD_CSHL.c **** *  function.
 694:.\Generated_Source\PSoC5/CapSense_CSD_CSHL.c **** *
 695:.\Generated_Source\PSoC5/CapSense_CSD_CSHL.c **** * Parameters:
 696:.\Generated_Source\PSoC5/CapSense_CSD_CSHL.c **** *  widget:  widget number.
 697:.\Generated_Source\PSoC5/CapSense_CSD_CSHL.c **** *
 698:.\Generated_Source\PSoC5/CapSense_CSD_CSHL.c **** * Return:
 699:.\Generated_Source\PSoC5/CapSense_CSD_CSHL.c **** *  Returns 1 if any widget is active, 0 none of widgets are active.
 700:.\Generated_Source\PSoC5/CapSense_CSD_CSHL.c **** *
 701:.\Generated_Source\PSoC5/CapSense_CSD_CSHL.c **** * Reentrant:
 702:.\Generated_Source\PSoC5/CapSense_CSD_CSHL.c **** *  No
ARM GAS  C:\Users\LUKASC~1\AppData\Local\Temp\ccKrJm2d.s 			page 20


 703:.\Generated_Source\PSoC5/CapSense_CSD_CSHL.c **** *
 704:.\Generated_Source\PSoC5/CapSense_CSD_CSHL.c **** *******************************************************************************/
 705:.\Generated_Source\PSoC5/CapSense_CSD_CSHL.c **** uint8 CapSense_CSD_CheckIsAnyWidgetActive(void)
 706:.\Generated_Source\PSoC5/CapSense_CSD_CSHL.c ****                                  
 707:.\Generated_Source\PSoC5/CapSense_CSD_CSHL.c **** {
 377              		.loc 1 707 0
 378              		.cfi_startproc
 379              		@ args = 0, pretend = 0, frame = 0
 380              		@ frame_needed = 0, uses_anonymous_args = 0
 381 0000 38B5     		push	{r3, r4, r5, lr}
 382              		.cfi_def_cfa_offset 16
 383              		.cfi_offset 3, -16
 384              		.cfi_offset 4, -12
 385              		.cfi_offset 5, -8
 386              		.cfi_offset 14, -4
 387              	.LVL40:
 708:.\Generated_Source\PSoC5/CapSense_CSD_CSHL.c ****     uint8 i;
 709:.\Generated_Source\PSoC5/CapSense_CSD_CSHL.c ****     uint8 state = 0u;
 388              		.loc 1 709 0
 389 0002 0025     		movs	r5, #0
 710:.\Generated_Source\PSoC5/CapSense_CSD_CSHL.c ****     
 711:.\Generated_Source\PSoC5/CapSense_CSD_CSHL.c ****     for(i = 0u; i < CapSense_CSD_TOTAL_WIDGET_COUNT; i++)
 390              		.loc 1 711 0
 391 0004 2C46     		mov	r4, r5
 392 0006 06E0     		b	.L33
 393              	.LVL41:
 394              	.L35:
 712:.\Generated_Source\PSoC5/CapSense_CSD_CSHL.c ****     {
 713:.\Generated_Source\PSoC5/CapSense_CSD_CSHL.c ****         if (CapSense_CSD_CheckIsWidgetActive(i) != 0u)
 395              		.loc 1 713 0
 396 0008 2046     		mov	r0, r4
 397 000a FFF7FEFF 		bl	CapSense_CSD_CheckIsWidgetActive
 398              	.LVL42:
 399 000e 00B1     		cbz	r0, .L34
 714:.\Generated_Source\PSoC5/CapSense_CSD_CSHL.c ****         {
 715:.\Generated_Source\PSoC5/CapSense_CSD_CSHL.c ****             state = CapSense_CSD_WIDGET_IS_ACTIVE;
 400              		.loc 1 715 0
 401 0010 0125     		movs	r5, #1
 402              	.LVL43:
 403              	.L34:
 711:.\Generated_Source\PSoC5/CapSense_CSD_CSHL.c ****     {
 404              		.loc 1 711 0 discriminator 2
 405 0012 0134     		adds	r4, r4, #1
 406              	.LVL44:
 407 0014 E4B2     		uxtb	r4, r4
 408              	.LVL45:
 409              	.L33:
 711:.\Generated_Source\PSoC5/CapSense_CSD_CSHL.c ****     {
 410              		.loc 1 711 0 is_stmt 0 discriminator 1
 411 0016 002C     		cmp	r4, #0
 412 0018 F6D0     		beq	.L35
 716:.\Generated_Source\PSoC5/CapSense_CSD_CSHL.c ****         }
 717:.\Generated_Source\PSoC5/CapSense_CSD_CSHL.c ****     }
 718:.\Generated_Source\PSoC5/CapSense_CSD_CSHL.c ****     
 719:.\Generated_Source\PSoC5/CapSense_CSD_CSHL.c **** 
 720:.\Generated_Source\PSoC5/CapSense_CSD_CSHL.c ****     return (state);
 721:.\Generated_Source\PSoC5/CapSense_CSD_CSHL.c **** }
ARM GAS  C:\Users\LUKASC~1\AppData\Local\Temp\ccKrJm2d.s 			page 21


 413              		.loc 1 721 0 is_stmt 1
 414 001a 2846     		mov	r0, r5
 415 001c 38BD     		pop	{r3, r4, r5, pc}
 416              		.cfi_endproc
 417              	.LFE8:
 418              		.size	CapSense_CSD_CheckIsAnyWidgetActive, .-CapSense_CSD_CheckIsAnyWidgetActive
 419 001e 00BF     		.section	.text.CapSense_CSD_EnableWidget,"ax",%progbits
 420              		.align	2
 421              		.global	CapSense_CSD_EnableWidget
 422              		.thumb
 423              		.thumb_func
 424              		.type	CapSense_CSD_EnableWidget, %function
 425              	CapSense_CSD_EnableWidget:
 426              	.LFB9:
 722:.\Generated_Source\PSoC5/CapSense_CSD_CSHL.c **** 
 723:.\Generated_Source\PSoC5/CapSense_CSD_CSHL.c **** 
 724:.\Generated_Source\PSoC5/CapSense_CSD_CSHL.c **** /*******************************************************************************
 725:.\Generated_Source\PSoC5/CapSense_CSD_CSHL.c **** * Function Name: CapSense_CSD_EnableWidget
 726:.\Generated_Source\PSoC5/CapSense_CSD_CSHL.c **** ********************************************************************************
 727:.\Generated_Source\PSoC5/CapSense_CSD_CSHL.c **** *
 728:.\Generated_Source\PSoC5/CapSense_CSD_CSHL.c **** * Summary:
 729:.\Generated_Source\PSoC5/CapSense_CSD_CSHL.c **** *  Enable all widget elements (sensors) to scanning process.
 730:.\Generated_Source\PSoC5/CapSense_CSD_CSHL.c **** *
 731:.\Generated_Source\PSoC5/CapSense_CSD_CSHL.c **** * Parameters:
 732:.\Generated_Source\PSoC5/CapSense_CSD_CSHL.c **** *  widget:  widget number.
 733:.\Generated_Source\PSoC5/CapSense_CSD_CSHL.c **** *
 734:.\Generated_Source\PSoC5/CapSense_CSD_CSHL.c **** * Return:
 735:.\Generated_Source\PSoC5/CapSense_CSD_CSHL.c **** *  None
 736:.\Generated_Source\PSoC5/CapSense_CSD_CSHL.c **** *
 737:.\Generated_Source\PSoC5/CapSense_CSD_CSHL.c **** * Global Variables:
 738:.\Generated_Source\PSoC5/CapSense_CSD_CSHL.c **** *  CapSense_CSD_sensorEnableMask[] - used to store the sensor scanning 
 739:.\Generated_Source\PSoC5/CapSense_CSD_CSHL.c **** *  state.
 740:.\Generated_Source\PSoC5/CapSense_CSD_CSHL.c **** *  CapSense_CSD_sensorEnableMask[0] contains the masked bits for sensors 
 741:.\Generated_Source\PSoC5/CapSense_CSD_CSHL.c **** *  0 through 7 (sensor 0 is bit 0, sensor 1 is bit 1).
 742:.\Generated_Source\PSoC5/CapSense_CSD_CSHL.c **** *  CapSense_CSD_sensorEnableMask[1] contains the masked bits for 
 743:.\Generated_Source\PSoC5/CapSense_CSD_CSHL.c **** *  sensors 8 through 15 (if needed), and so on.
 744:.\Generated_Source\PSoC5/CapSense_CSD_CSHL.c **** *  0 - sensor doesn't scan by CapSense_CSD_ScanEnabledWidgets().
 745:.\Generated_Source\PSoC5/CapSense_CSD_CSHL.c **** *  1 - sensor scans by CapSense_CSD_ScanEnabledWidgets().
 746:.\Generated_Source\PSoC5/CapSense_CSD_CSHL.c **** *
 747:.\Generated_Source\PSoC5/CapSense_CSD_CSHL.c **** * Reentrant:
 748:.\Generated_Source\PSoC5/CapSense_CSD_CSHL.c **** *  No
 749:.\Generated_Source\PSoC5/CapSense_CSD_CSHL.c **** *
 750:.\Generated_Source\PSoC5/CapSense_CSD_CSHL.c **** *******************************************************************************/
 751:.\Generated_Source\PSoC5/CapSense_CSD_CSHL.c **** void CapSense_CSD_EnableWidget(uint8 widget)
 752:.\Generated_Source\PSoC5/CapSense_CSD_CSHL.c ****                                    
 753:.\Generated_Source\PSoC5/CapSense_CSD_CSHL.c **** {
 427              		.loc 1 753 0
 428              		.cfi_startproc
 429              		@ args = 0, pretend = 0, frame = 0
 430              		@ frame_needed = 0, uses_anonymous_args = 0
 431              		@ link register save eliminated.
 432              	.LVL46:
 433 0000 10B4     		push	{r4}
 434              		.cfi_def_cfa_offset 4
 435              		.cfi_offset 4, -4
 436              	.LVL47:
 754:.\Generated_Source\PSoC5/CapSense_CSD_CSHL.c ****     uint8 pos;
ARM GAS  C:\Users\LUKASC~1\AppData\Local\Temp\ccKrJm2d.s 			page 22


 755:.\Generated_Source\PSoC5/CapSense_CSD_CSHL.c ****     uint8 enMask;
 756:.\Generated_Source\PSoC5/CapSense_CSD_CSHL.c ****     uint8 rawIndex = CapSense_CSD_rawDataIndex[widget];
 437              		.loc 1 756 0
 438 0002 0023     		movs	r3, #0
 439              	.LVL48:
 440              	.L39:
 757:.\Generated_Source\PSoC5/CapSense_CSD_CSHL.c ****     uint8 numberOfSensors = CapSense_CSD_numberOfSensors[widget] + rawIndex;
 758:.\Generated_Source\PSoC5/CapSense_CSD_CSHL.c ****     
 759:.\Generated_Source\PSoC5/CapSense_CSD_CSHL.c ****     /* Enable all sensors of the widget */
 760:.\Generated_Source\PSoC5/CapSense_CSD_CSHL.c ****     do
 761:.\Generated_Source\PSoC5/CapSense_CSD_CSHL.c ****     {
 762:.\Generated_Source\PSoC5/CapSense_CSD_CSHL.c ****         pos = (rawIndex >> 3u);
 441              		.loc 1 762 0 discriminator 1
 442 0004 D808     		lsrs	r0, r3, #3
 443              	.LVL49:
 763:.\Generated_Source\PSoC5/CapSense_CSD_CSHL.c ****         enMask = 0x01u << (rawIndex & 0x07u);
 444              		.loc 1 763 0 discriminator 1
 445 0006 03F00701 		and	r1, r3, #7
 446 000a 0122     		movs	r2, #1
 447 000c 8A40     		lsls	r2, r2, r1
 448              	.LVL50:
 764:.\Generated_Source\PSoC5/CapSense_CSD_CSHL.c ****         
 765:.\Generated_Source\PSoC5/CapSense_CSD_CSHL.c ****         CapSense_CSD_sensorEnableMask[pos] |= enMask;
 449              		.loc 1 765 0 discriminator 1
 450 000e 054C     		ldr	r4, .L41
 451 0010 215C     		ldrb	r1, [r4, r0]	@ zero_extendqisi2
 452 0012 0A43     		orrs	r2, r2, r1
 453              	.LVL51:
 454 0014 2254     		strb	r2, [r4, r0]
 766:.\Generated_Source\PSoC5/CapSense_CSD_CSHL.c ****         rawIndex++;
 455              		.loc 1 766 0 discriminator 1
 456 0016 0133     		adds	r3, r3, #1
 457              	.LVL52:
 458 0018 DBB2     		uxtb	r3, r3
 459              	.LVL53:
 767:.\Generated_Source\PSoC5/CapSense_CSD_CSHL.c ****     }
 768:.\Generated_Source\PSoC5/CapSense_CSD_CSHL.c ****     while(rawIndex < numberOfSensors);
 460              		.loc 1 768 0 discriminator 1
 461 001a 072B     		cmp	r3, #7
 462 001c F2D9     		bls	.L39
 769:.\Generated_Source\PSoC5/CapSense_CSD_CSHL.c ****     
 770:.\Generated_Source\PSoC5/CapSense_CSD_CSHL.c **** 
 771:.\Generated_Source\PSoC5/CapSense_CSD_CSHL.c **** }
 463              		.loc 1 771 0
 464 001e 5DF8044B 		ldr	r4, [sp], #4
 465              		.cfi_restore 4
 466              		.cfi_def_cfa_offset 0
 467 0022 7047     		bx	lr
 468              	.L42:
 469              		.align	2
 470              	.L41:
 471 0024 00000000 		.word	CapSense_CSD_sensorEnableMask
 472              		.cfi_endproc
 473              	.LFE9:
 474              		.size	CapSense_CSD_EnableWidget, .-CapSense_CSD_EnableWidget
 475              		.section	.text.CapSense_CSD_DisableWidget,"ax",%progbits
 476              		.align	2
ARM GAS  C:\Users\LUKASC~1\AppData\Local\Temp\ccKrJm2d.s 			page 23


 477              		.global	CapSense_CSD_DisableWidget
 478              		.thumb
 479              		.thumb_func
 480              		.type	CapSense_CSD_DisableWidget, %function
 481              	CapSense_CSD_DisableWidget:
 482              	.LFB10:
 772:.\Generated_Source\PSoC5/CapSense_CSD_CSHL.c **** 
 773:.\Generated_Source\PSoC5/CapSense_CSD_CSHL.c **** 
 774:.\Generated_Source\PSoC5/CapSense_CSD_CSHL.c **** /*******************************************************************************
 775:.\Generated_Source\PSoC5/CapSense_CSD_CSHL.c **** * Function Name: CapSense_CSD_DisableWidget
 776:.\Generated_Source\PSoC5/CapSense_CSD_CSHL.c **** ********************************************************************************
 777:.\Generated_Source\PSoC5/CapSense_CSD_CSHL.c **** *
 778:.\Generated_Source\PSoC5/CapSense_CSD_CSHL.c **** * Summary:
 779:.\Generated_Source\PSoC5/CapSense_CSD_CSHL.c **** *  Disable all widget elements (sensors) from scanning process.
 780:.\Generated_Source\PSoC5/CapSense_CSD_CSHL.c **** *
 781:.\Generated_Source\PSoC5/CapSense_CSD_CSHL.c **** * Parameters:
 782:.\Generated_Source\PSoC5/CapSense_CSD_CSHL.c **** *  widget:  widget number.
 783:.\Generated_Source\PSoC5/CapSense_CSD_CSHL.c **** *
 784:.\Generated_Source\PSoC5/CapSense_CSD_CSHL.c **** * Return:
 785:.\Generated_Source\PSoC5/CapSense_CSD_CSHL.c **** *  None
 786:.\Generated_Source\PSoC5/CapSense_CSD_CSHL.c **** *
 787:.\Generated_Source\PSoC5/CapSense_CSD_CSHL.c **** * Global Variables:
 788:.\Generated_Source\PSoC5/CapSense_CSD_CSHL.c **** *  CapSense_CSD_sensorEnableMask[] - used to store the sensor scanning 
 789:.\Generated_Source\PSoC5/CapSense_CSD_CSHL.c **** *  state.
 790:.\Generated_Source\PSoC5/CapSense_CSD_CSHL.c **** *  CapSense_CSD_sensorEnableMask[0] contains the masked bits for sensors 
 791:.\Generated_Source\PSoC5/CapSense_CSD_CSHL.c **** *  0 through 7 (sensor 0 is bit 0, sensor 1 is bit 1).
 792:.\Generated_Source\PSoC5/CapSense_CSD_CSHL.c **** *  CapSense_CSD_sensorEnableMask[1] contains the masked bits for 
 793:.\Generated_Source\PSoC5/CapSense_CSD_CSHL.c **** *  sensors 8 through 15 (if needed), and so on.
 794:.\Generated_Source\PSoC5/CapSense_CSD_CSHL.c **** *  0 - sensor doesn't scan by CapSense_CSD_ScanEnabledWidgets().
 795:.\Generated_Source\PSoC5/CapSense_CSD_CSHL.c **** *  1 - sensor scans by CapSense_CSD_ScanEnabledWidgets().
 796:.\Generated_Source\PSoC5/CapSense_CSD_CSHL.c **** *
 797:.\Generated_Source\PSoC5/CapSense_CSD_CSHL.c **** * Reentrant:
 798:.\Generated_Source\PSoC5/CapSense_CSD_CSHL.c **** *  No
 799:.\Generated_Source\PSoC5/CapSense_CSD_CSHL.c **** *
 800:.\Generated_Source\PSoC5/CapSense_CSD_CSHL.c **** *******************************************************************************/
 801:.\Generated_Source\PSoC5/CapSense_CSD_CSHL.c **** void CapSense_CSD_DisableWidget(uint8 widget)
 802:.\Generated_Source\PSoC5/CapSense_CSD_CSHL.c ****                                     
 803:.\Generated_Source\PSoC5/CapSense_CSD_CSHL.c **** {
 483              		.loc 1 803 0
 484              		.cfi_startproc
 485              		@ args = 0, pretend = 0, frame = 0
 486              		@ frame_needed = 0, uses_anonymous_args = 0
 487              		@ link register save eliminated.
 488              	.LVL54:
 489 0000 10B4     		push	{r4}
 490              		.cfi_def_cfa_offset 4
 491              		.cfi_offset 4, -4
 492              	.LVL55:
 804:.\Generated_Source\PSoC5/CapSense_CSD_CSHL.c ****     uint8 pos;
 805:.\Generated_Source\PSoC5/CapSense_CSD_CSHL.c ****     uint8 enMask;
 806:.\Generated_Source\PSoC5/CapSense_CSD_CSHL.c ****     uint8 rawIndex = CapSense_CSD_rawDataIndex[widget];
 493              		.loc 1 806 0
 494 0002 0023     		movs	r3, #0
 495              	.LVL56:
 496              	.L44:
 807:.\Generated_Source\PSoC5/CapSense_CSD_CSHL.c ****     uint8 numberOfSensors = CapSense_CSD_numberOfSensors[widget] + rawIndex;
 808:.\Generated_Source\PSoC5/CapSense_CSD_CSHL.c ****    
ARM GAS  C:\Users\LUKASC~1\AppData\Local\Temp\ccKrJm2d.s 			page 24


 809:.\Generated_Source\PSoC5/CapSense_CSD_CSHL.c ****     /* Disable all sensors of the widget */
 810:.\Generated_Source\PSoC5/CapSense_CSD_CSHL.c ****     do
 811:.\Generated_Source\PSoC5/CapSense_CSD_CSHL.c ****     {
 812:.\Generated_Source\PSoC5/CapSense_CSD_CSHL.c ****         pos = (rawIndex >> 3u);
 497              		.loc 1 812 0 discriminator 1
 498 0004 D808     		lsrs	r0, r3, #3
 499              	.LVL57:
 813:.\Generated_Source\PSoC5/CapSense_CSD_CSHL.c ****         enMask = 0x01u << (rawIndex & 0x07u);
 500              		.loc 1 813 0 discriminator 1
 501 0006 03F00701 		and	r1, r3, #7
 502 000a 0122     		movs	r2, #1
 503 000c 8A40     		lsls	r2, r2, r1
 504              	.LVL58:
 814:.\Generated_Source\PSoC5/CapSense_CSD_CSHL.c ****         
 815:.\Generated_Source\PSoC5/CapSense_CSD_CSHL.c ****         CapSense_CSD_sensorEnableMask[pos] &= (uint8)~enMask;
 505              		.loc 1 815 0 discriminator 1
 506 000e 064C     		ldr	r4, .L46
 507 0010 215C     		ldrb	r1, [r4, r0]	@ zero_extendqisi2
 508 0012 21EA0202 		bic	r2, r1, r2
 509              	.LVL59:
 510 0016 2254     		strb	r2, [r4, r0]
 816:.\Generated_Source\PSoC5/CapSense_CSD_CSHL.c ****         rawIndex++;
 511              		.loc 1 816 0 discriminator 1
 512 0018 0133     		adds	r3, r3, #1
 513              	.LVL60:
 514 001a DBB2     		uxtb	r3, r3
 515              	.LVL61:
 817:.\Generated_Source\PSoC5/CapSense_CSD_CSHL.c ****     }
 818:.\Generated_Source\PSoC5/CapSense_CSD_CSHL.c ****     while(rawIndex < numberOfSensors);
 516              		.loc 1 818 0 discriminator 1
 517 001c 072B     		cmp	r3, #7
 518 001e F1D9     		bls	.L44
 819:.\Generated_Source\PSoC5/CapSense_CSD_CSHL.c ****     
 820:.\Generated_Source\PSoC5/CapSense_CSD_CSHL.c **** 
 821:.\Generated_Source\PSoC5/CapSense_CSD_CSHL.c **** }
 519              		.loc 1 821 0
 520 0020 5DF8044B 		ldr	r4, [sp], #4
 521              		.cfi_restore 4
 522              		.cfi_def_cfa_offset 0
 523 0024 7047     		bx	lr
 524              	.L47:
 525 0026 00BF     		.align	2
 526              	.L46:
 527 0028 00000000 		.word	CapSense_CSD_sensorEnableMask
 528              		.cfi_endproc
 529              	.LFE10:
 530              		.size	CapSense_CSD_DisableWidget, .-CapSense_CSD_DisableWidget
 531              		.section	.text.CapSense_CSD_FindMaximum,"ax",%progbits
 532              		.align	2
 533              		.global	CapSense_CSD_FindMaximum
 534              		.thumb
 535              		.thumb_func
 536              		.type	CapSense_CSD_FindMaximum, %function
 537              	CapSense_CSD_FindMaximum:
 538              	.LFB11:
 822:.\Generated_Source\PSoC5/CapSense_CSD_CSHL.c **** #if(CapSense_CSD_TOTAL_CENTROIDS_COUNT)
 823:.\Generated_Source\PSoC5/CapSense_CSD_CSHL.c ****     /*******************************************************************************
ARM GAS  C:\Users\LUKASC~1\AppData\Local\Temp\ccKrJm2d.s 			page 25


 824:.\Generated_Source\PSoC5/CapSense_CSD_CSHL.c ****     * Function Name: CapSense_CSD_FindMaximum
 825:.\Generated_Source\PSoC5/CapSense_CSD_CSHL.c ****     ********************************************************************************
 826:.\Generated_Source\PSoC5/CapSense_CSD_CSHL.c ****     *
 827:.\Generated_Source\PSoC5/CapSense_CSD_CSHL.c ****     * Summary:
 828:.\Generated_Source\PSoC5/CapSense_CSD_CSHL.c ****     *  Finds index of maximum element within defined centroid. Checks 
 829:.\Generated_Source\PSoC5/CapSense_CSD_CSHL.c ****     *  CapSense_CSD_SensorSignal[] within defined cenrtoid and 
 830:.\Generated_Source\PSoC5/CapSense_CSD_CSHL.c ****     *  returns index of maximum element. The values below finger threshold are 
 831:.\Generated_Source\PSoC5/CapSense_CSD_CSHL.c ****     *  ignored.
 832:.\Generated_Source\PSoC5/CapSense_CSD_CSHL.c ****     *  The centrod defines by offset of first element and number of elements - count.
 833:.\Generated_Source\PSoC5/CapSense_CSD_CSHL.c ****     *  The diplexed centroid requires at least consecutive two elements above
 834:.\Generated_Source\PSoC5/CapSense_CSD_CSHL.c ****     *  FingerThreshold to find index of maximum element.
 835:.\Generated_Source\PSoC5/CapSense_CSD_CSHL.c ****     * 
 836:.\Generated_Source\PSoC5/CapSense_CSD_CSHL.c ****     * Parameters:
 837:.\Generated_Source\PSoC5/CapSense_CSD_CSHL.c ****     *  offset:  Start index of cetroid in CapSense_CSD_sensorSignal[] array.
 838:.\Generated_Source\PSoC5/CapSense_CSD_CSHL.c ****     *  count:   number of elements within centroid.
 839:.\Generated_Source\PSoC5/CapSense_CSD_CSHL.c ****     *  fingerThreshold:  Finger threshould.
 840:.\Generated_Source\PSoC5/CapSense_CSD_CSHL.c ****     *  diplex:   pointer to diplex table.
 841:.\Generated_Source\PSoC5/CapSense_CSD_CSHL.c ****     * 
 842:.\Generated_Source\PSoC5/CapSense_CSD_CSHL.c ****     * Return:
 843:.\Generated_Source\PSoC5/CapSense_CSD_CSHL.c ****     *  Returns index of maximum element within defined centroid.
 844:.\Generated_Source\PSoC5/CapSense_CSD_CSHL.c ****     *  If index of maximum element doesn't find the 0xFF returns.
 845:.\Generated_Source\PSoC5/CapSense_CSD_CSHL.c ****     * 
 846:.\Generated_Source\PSoC5/CapSense_CSD_CSHL.c ****     *******************************************************************************/
 847:.\Generated_Source\PSoC5/CapSense_CSD_CSHL.c ****     #if (CapSense_CSD_IS_DIPLEX_SLIDER)
 848:.\Generated_Source\PSoC5/CapSense_CSD_CSHL.c ****         uint8 CapSense_CSD_FindMaximum(uint8 offset, uint8 count, uint8 fingerThreshold, const uint
 849:.\Generated_Source\PSoC5/CapSense_CSD_CSHL.c **** 	                                       
 850:.\Generated_Source\PSoC5/CapSense_CSD_CSHL.c ****     #else 
 851:.\Generated_Source\PSoC5/CapSense_CSD_CSHL.c ****         uint8 CapSense_CSD_FindMaximum(uint8 offset, uint8 count, uint8 fingerThreshold)
 852:.\Generated_Source\PSoC5/CapSense_CSD_CSHL.c **** 	                                       
 853:.\Generated_Source\PSoC5/CapSense_CSD_CSHL.c ****     #endif /* (CapSense_CSD_IS_DIPLEX_SLIDER) */
 854:.\Generated_Source\PSoC5/CapSense_CSD_CSHL.c ****     {
 539              		.loc 1 854 0
 540              		.cfi_startproc
 541              		@ args = 0, pretend = 0, frame = 0
 542              		@ frame_needed = 0, uses_anonymous_args = 0
 543              		@ link register save eliminated.
 544              	.LVL62:
 545 0000 70B4     		push	{r4, r5, r6}
 546              		.cfi_def_cfa_offset 12
 547              		.cfi_offset 4, -12
 548              		.cfi_offset 5, -8
 549              		.cfi_offset 6, -4
 550              	.LVL63:
 855:.\Generated_Source\PSoC5/CapSense_CSD_CSHL.c ****         uint8 i;
 856:.\Generated_Source\PSoC5/CapSense_CSD_CSHL.c ****         #if (CapSense_CSD_IS_DIPLEX_SLIDER)        
 857:.\Generated_Source\PSoC5/CapSense_CSD_CSHL.c ****             uint8 curPos = 0u;
 858:.\Generated_Source\PSoC5/CapSense_CSD_CSHL.c ****             /* No centroid at the Start */
 859:.\Generated_Source\PSoC5/CapSense_CSD_CSHL.c ****             uint8 curCntrdSize = 0u;
 860:.\Generated_Source\PSoC5/CapSense_CSD_CSHL.c ****             uint8 curCtrdStartPos = 0xFFu;
 861:.\Generated_Source\PSoC5/CapSense_CSD_CSHL.c ****             /* The biggset centroid is zero */
 862:.\Generated_Source\PSoC5/CapSense_CSD_CSHL.c ****             uint8 biggestCtrdSize = 0u;
 863:.\Generated_Source\PSoC5/CapSense_CSD_CSHL.c ****             uint8 biggestCtrdStartPos = 0u;
 864:.\Generated_Source\PSoC5/CapSense_CSD_CSHL.c ****         #endif /* (CapSense_CSD_IS_DIPLEX_SLIDER) */
 865:.\Generated_Source\PSoC5/CapSense_CSD_CSHL.c ****         uint8 maximum = 0xFFu;
 866:.\Generated_Source\PSoC5/CapSense_CSD_CSHL.c ****         uint8 temp = 0u;
 867:.\Generated_Source\PSoC5/CapSense_CSD_CSHL.c ****         uint8 *startOfSlider = &CapSense_CSD_sensorSignal[offset]; 
 551              		.loc 1 867 0
ARM GAS  C:\Users\LUKASC~1\AppData\Local\Temp\ccKrJm2d.s 			page 26


 552 0002 094D     		ldr	r5, .L54
 553 0004 0544     		add	r5, r5, r0
 554              	.LVL64:
 866:.\Generated_Source\PSoC5/CapSense_CSD_CSHL.c ****         uint8 *startOfSlider = &CapSense_CSD_sensorSignal[offset]; 
 555              		.loc 1 866 0
 556 0006 0026     		movs	r6, #0
 865:.\Generated_Source\PSoC5/CapSense_CSD_CSHL.c ****         uint8 temp = 0u;
 557              		.loc 1 865 0
 558 0008 FF20     		movs	r0, #255
 559              	.LVL65:
 868:.\Generated_Source\PSoC5/CapSense_CSD_CSHL.c **** 
 869:.\Generated_Source\PSoC5/CapSense_CSD_CSHL.c ****         #if (CapSense_CSD_IS_DIPLEX_SLIDER)        
 870:.\Generated_Source\PSoC5/CapSense_CSD_CSHL.c ****             if(diplex != 0u)
 871:.\Generated_Source\PSoC5/CapSense_CSD_CSHL.c ****             {
 872:.\Generated_Source\PSoC5/CapSense_CSD_CSHL.c ****                 /* Initialize */
 873:.\Generated_Source\PSoC5/CapSense_CSD_CSHL.c ****                 i = 0u;
 874:.\Generated_Source\PSoC5/CapSense_CSD_CSHL.c ****                 
 875:.\Generated_Source\PSoC5/CapSense_CSD_CSHL.c ****                 /* Make slider x2 as Diplexed */
 876:.\Generated_Source\PSoC5/CapSense_CSD_CSHL.c ****                 count <<= 1u;
 877:.\Generated_Source\PSoC5/CapSense_CSD_CSHL.c ****                 while(1u)
 878:.\Generated_Source\PSoC5/CapSense_CSD_CSHL.c ****                 { 
 879:.\Generated_Source\PSoC5/CapSense_CSD_CSHL.c ****                     if (startOfSlider[curPos] > 0u)    /* Looking for centroids */
 880:.\Generated_Source\PSoC5/CapSense_CSD_CSHL.c ****                     {
 881:.\Generated_Source\PSoC5/CapSense_CSD_CSHL.c ****                         if (curCtrdStartPos == 0xFFu)
 882:.\Generated_Source\PSoC5/CapSense_CSD_CSHL.c ****                         {
 883:.\Generated_Source\PSoC5/CapSense_CSD_CSHL.c ****                             /* Start of centroid */
 884:.\Generated_Source\PSoC5/CapSense_CSD_CSHL.c ****                             curCtrdStartPos = i;
 885:.\Generated_Source\PSoC5/CapSense_CSD_CSHL.c ****                             curCntrdSize++;
 886:.\Generated_Source\PSoC5/CapSense_CSD_CSHL.c ****                         }
 887:.\Generated_Source\PSoC5/CapSense_CSD_CSHL.c ****                         else
 888:.\Generated_Source\PSoC5/CapSense_CSD_CSHL.c ****                         {
 889:.\Generated_Source\PSoC5/CapSense_CSD_CSHL.c ****                             curCntrdSize++;
 890:.\Generated_Source\PSoC5/CapSense_CSD_CSHL.c ****                         }
 891:.\Generated_Source\PSoC5/CapSense_CSD_CSHL.c ****                     }
 892:.\Generated_Source\PSoC5/CapSense_CSD_CSHL.c ****                     else   /* Select the bigest and indicate zero start */
 893:.\Generated_Source\PSoC5/CapSense_CSD_CSHL.c ****                     {          
 894:.\Generated_Source\PSoC5/CapSense_CSD_CSHL.c ****                         if(curCntrdSize > 0u)
 895:.\Generated_Source\PSoC5/CapSense_CSD_CSHL.c ****                         {
 896:.\Generated_Source\PSoC5/CapSense_CSD_CSHL.c ****                             /* We are in the end of current */
 897:.\Generated_Source\PSoC5/CapSense_CSD_CSHL.c ****                             if(curCntrdSize > biggestCtrdSize)
 898:.\Generated_Source\PSoC5/CapSense_CSD_CSHL.c ****                             {
 899:.\Generated_Source\PSoC5/CapSense_CSD_CSHL.c ****                                 biggestCtrdSize = curCntrdSize;
 900:.\Generated_Source\PSoC5/CapSense_CSD_CSHL.c ****                                 biggestCtrdStartPos = curCtrdStartPos;
 901:.\Generated_Source\PSoC5/CapSense_CSD_CSHL.c ****                             }
 902:.\Generated_Source\PSoC5/CapSense_CSD_CSHL.c ****                             
 903:.\Generated_Source\PSoC5/CapSense_CSD_CSHL.c ****                             curCntrdSize = 0u;
 904:.\Generated_Source\PSoC5/CapSense_CSD_CSHL.c ****                             curCtrdStartPos = 0xFFu;
 905:.\Generated_Source\PSoC5/CapSense_CSD_CSHL.c ****                         }
 906:.\Generated_Source\PSoC5/CapSense_CSD_CSHL.c ****                     }
 907:.\Generated_Source\PSoC5/CapSense_CSD_CSHL.c ****                     
 908:.\Generated_Source\PSoC5/CapSense_CSD_CSHL.c ****                     i++; 
 909:.\Generated_Source\PSoC5/CapSense_CSD_CSHL.c ****                     curPos = diplex[i];
 910:.\Generated_Source\PSoC5/CapSense_CSD_CSHL.c ****                     if(i == count)
 911:.\Generated_Source\PSoC5/CapSense_CSD_CSHL.c ****                     {
 912:.\Generated_Source\PSoC5/CapSense_CSD_CSHL.c ****                         break;
 913:.\Generated_Source\PSoC5/CapSense_CSD_CSHL.c ****                     }            
 914:.\Generated_Source\PSoC5/CapSense_CSD_CSHL.c ****                 }
ARM GAS  C:\Users\LUKASC~1\AppData\Local\Temp\ccKrJm2d.s 			page 27


 915:.\Generated_Source\PSoC5/CapSense_CSD_CSHL.c ****                     
 916:.\Generated_Source\PSoC5/CapSense_CSD_CSHL.c ****                     /* Find the biggest centroid if two are the same size, last one wins
 917:.\Generated_Source\PSoC5/CapSense_CSD_CSHL.c ****                        We are in the end of current */
 918:.\Generated_Source\PSoC5/CapSense_CSD_CSHL.c ****                 if (curCntrdSize >= biggestCtrdSize) 
 919:.\Generated_Source\PSoC5/CapSense_CSD_CSHL.c ****                 {
 920:.\Generated_Source\PSoC5/CapSense_CSD_CSHL.c ****                     biggestCtrdSize = curCntrdSize;
 921:.\Generated_Source\PSoC5/CapSense_CSD_CSHL.c ****                     biggestCtrdStartPos = curCtrdStartPos;
 922:.\Generated_Source\PSoC5/CapSense_CSD_CSHL.c ****                 }
 923:.\Generated_Source\PSoC5/CapSense_CSD_CSHL.c ****             }
 924:.\Generated_Source\PSoC5/CapSense_CSD_CSHL.c ****             else
 925:.\Generated_Source\PSoC5/CapSense_CSD_CSHL.c ****             {
 926:.\Generated_Source\PSoC5/CapSense_CSD_CSHL.c ****                 /* Without diplexing */ 
 927:.\Generated_Source\PSoC5/CapSense_CSD_CSHL.c ****                 biggestCtrdSize = count;
 928:.\Generated_Source\PSoC5/CapSense_CSD_CSHL.c ****             }
 929:.\Generated_Source\PSoC5/CapSense_CSD_CSHL.c ****                         
 930:.\Generated_Source\PSoC5/CapSense_CSD_CSHL.c **** 
 931:.\Generated_Source\PSoC5/CapSense_CSD_CSHL.c ****             /* Check centroid size */
 932:.\Generated_Source\PSoC5/CapSense_CSD_CSHL.c ****             #if (CapSense_CSD_IS_NON_DIPLEX_SLIDER)
 933:.\Generated_Source\PSoC5/CapSense_CSD_CSHL.c ****                 if((biggestCtrdSize >= 2u) || ((biggestCtrdSize == 1u) && (diplex == 0u)))
 934:.\Generated_Source\PSoC5/CapSense_CSD_CSHL.c ****             #else                    
 935:.\Generated_Source\PSoC5/CapSense_CSD_CSHL.c ****                 if(biggestCtrdSize >= 2u)
 936:.\Generated_Source\PSoC5/CapSense_CSD_CSHL.c ****             #endif /* (CapSense_CSD_IS_NON_DIPLEX_SLIDER) */
 937:.\Generated_Source\PSoC5/CapSense_CSD_CSHL.c ****                 {
 938:.\Generated_Source\PSoC5/CapSense_CSD_CSHL.c ****                     for (i = biggestCtrdStartPos; i < (biggestCtrdStartPos + biggestCtrdSize); i++)
 939:.\Generated_Source\PSoC5/CapSense_CSD_CSHL.c ****                     {
 940:.\Generated_Source\PSoC5/CapSense_CSD_CSHL.c ****                         #if (CapSense_CSD_IS_DIPLEX_SLIDER && CapSense_CSD_IS_NON_DIPLEX_SLIDER)
 941:.\Generated_Source\PSoC5/CapSense_CSD_CSHL.c ****                             if (diplex == 0u)
 942:.\Generated_Source\PSoC5/CapSense_CSD_CSHL.c ****                             {
 943:.\Generated_Source\PSoC5/CapSense_CSD_CSHL.c ****                                 curPos = i;
 944:.\Generated_Source\PSoC5/CapSense_CSD_CSHL.c ****                             }
 945:.\Generated_Source\PSoC5/CapSense_CSD_CSHL.c ****                             else
 946:.\Generated_Source\PSoC5/CapSense_CSD_CSHL.c ****                             {
 947:.\Generated_Source\PSoC5/CapSense_CSD_CSHL.c ****                                 curPos = diplex[i];
 948:.\Generated_Source\PSoC5/CapSense_CSD_CSHL.c ****                             }                    
 949:.\Generated_Source\PSoC5/CapSense_CSD_CSHL.c ****                         #elif (CapSense_CSD_IS_DIPLEX_SLIDER)                    
 950:.\Generated_Source\PSoC5/CapSense_CSD_CSHL.c ****                             curPos = diplex[i];                    
 951:.\Generated_Source\PSoC5/CapSense_CSD_CSHL.c ****                         #endif /* (CapSense_CSD_IS_DIPLEX_SLIDER && CapSense_CSD_IS_NON_DIPLEX_SLID
 952:.\Generated_Source\PSoC5/CapSense_CSD_CSHL.c ****                         /* Looking for the grater element within centroid */
 953:.\Generated_Source\PSoC5/CapSense_CSD_CSHL.c ****                         if(startOfSlider[curPos] > fingerThreshold)
 954:.\Generated_Source\PSoC5/CapSense_CSD_CSHL.c ****                         {
 955:.\Generated_Source\PSoC5/CapSense_CSD_CSHL.c ****                             if(startOfSlider[curPos] > temp)
 956:.\Generated_Source\PSoC5/CapSense_CSD_CSHL.c ****                             {
 957:.\Generated_Source\PSoC5/CapSense_CSD_CSHL.c ****                                 maximum = i;
 958:.\Generated_Source\PSoC5/CapSense_CSD_CSHL.c ****                                 temp = startOfSlider[curPos];
 959:.\Generated_Source\PSoC5/CapSense_CSD_CSHL.c ****                             }
 960:.\Generated_Source\PSoC5/CapSense_CSD_CSHL.c ****                         }
 961:.\Generated_Source\PSoC5/CapSense_CSD_CSHL.c ****                     }
 962:.\Generated_Source\PSoC5/CapSense_CSD_CSHL.c ****                 } 
 963:.\Generated_Source\PSoC5/CapSense_CSD_CSHL.c ****         #else
 964:.\Generated_Source\PSoC5/CapSense_CSD_CSHL.c ****             for (i = 0u; i < count; i++)
 560              		.loc 1 964 0
 561 000a 3346     		mov	r3, r6
 562 000c 08E0     		b	.L49
 563              	.LVL66:
 564              	.L51:
 965:.\Generated_Source\PSoC5/CapSense_CSD_CSHL.c ****             {                      
 966:.\Generated_Source\PSoC5/CapSense_CSD_CSHL.c ****                 /* Looking for the grater element within centroid */
ARM GAS  C:\Users\LUKASC~1\AppData\Local\Temp\ccKrJm2d.s 			page 28


 967:.\Generated_Source\PSoC5/CapSense_CSD_CSHL.c ****                 if(startOfSlider[i] > fingerThreshold)
 565              		.loc 1 967 0
 566 000e EC5C     		ldrb	r4, [r5, r3]	@ zero_extendqisi2
 567 0010 9442     		cmp	r4, r2
 568 0012 03D9     		bls	.L50
 968:.\Generated_Source\PSoC5/CapSense_CSD_CSHL.c ****                 {
 969:.\Generated_Source\PSoC5/CapSense_CSD_CSHL.c ****                     if(startOfSlider[i] > temp)
 569              		.loc 1 969 0
 570 0014 A642     		cmp	r6, r4
 571 0016 01D2     		bcs	.L50
 970:.\Generated_Source\PSoC5/CapSense_CSD_CSHL.c ****                     {
 971:.\Generated_Source\PSoC5/CapSense_CSD_CSHL.c ****                         maximum = i;
 972:.\Generated_Source\PSoC5/CapSense_CSD_CSHL.c ****                         temp = startOfSlider[i];
 572              		.loc 1 972 0
 573 0018 2646     		mov	r6, r4
 574              	.LVL67:
 971:.\Generated_Source\PSoC5/CapSense_CSD_CSHL.c ****                         temp = startOfSlider[i];
 575              		.loc 1 971 0
 576 001a 1846     		mov	r0, r3
 577              	.LVL68:
 578              	.L50:
 964:.\Generated_Source\PSoC5/CapSense_CSD_CSHL.c ****             {                      
 579              		.loc 1 964 0 discriminator 2
 580 001c 0133     		adds	r3, r3, #1
 581              	.LVL69:
 582 001e DBB2     		uxtb	r3, r3
 583              	.LVL70:
 584              	.L49:
 964:.\Generated_Source\PSoC5/CapSense_CSD_CSHL.c ****             {                      
 585              		.loc 1 964 0 is_stmt 0 discriminator 1
 586 0020 8B42     		cmp	r3, r1
 587 0022 F4D3     		bcc	.L51
 973:.\Generated_Source\PSoC5/CapSense_CSD_CSHL.c ****                     }
 974:.\Generated_Source\PSoC5/CapSense_CSD_CSHL.c ****                 }
 975:.\Generated_Source\PSoC5/CapSense_CSD_CSHL.c ****             }    
 976:.\Generated_Source\PSoC5/CapSense_CSD_CSHL.c ****         #endif /* (CapSense_CSD_IS_DIPLEX_SLIDER) */
 977:.\Generated_Source\PSoC5/CapSense_CSD_CSHL.c ****         return (maximum);
 978:.\Generated_Source\PSoC5/CapSense_CSD_CSHL.c ****     }
 588              		.loc 1 978 0 is_stmt 1
 589 0024 70BC     		pop	{r4, r5, r6}
 590              		.cfi_restore 6
 591              		.cfi_restore 5
 592              		.cfi_restore 4
 593              		.cfi_def_cfa_offset 0
 594              	.LVL71:
 595 0026 7047     		bx	lr
 596              	.L55:
 597              		.align	2
 598              	.L54:
 599 0028 00000000 		.word	CapSense_CSD_sensorSignal
 600              		.cfi_endproc
 601              	.LFE11:
 602              		.size	CapSense_CSD_FindMaximum, .-CapSense_CSD_FindMaximum
 603              		.section	.text.CapSense_CSD_CalcCentroid,"ax",%progbits
 604              		.align	2
 605              		.global	CapSense_CSD_CalcCentroid
 606              		.thumb
ARM GAS  C:\Users\LUKASC~1\AppData\Local\Temp\ccKrJm2d.s 			page 29


 607              		.thumb_func
 608              		.type	CapSense_CSD_CalcCentroid, %function
 609              	CapSense_CSD_CalcCentroid:
 610              	.LFB12:
 979:.\Generated_Source\PSoC5/CapSense_CSD_CSHL.c ****     
 980:.\Generated_Source\PSoC5/CapSense_CSD_CSHL.c ****     
 981:.\Generated_Source\PSoC5/CapSense_CSD_CSHL.c ****     /*******************************************************************************
 982:.\Generated_Source\PSoC5/CapSense_CSD_CSHL.c ****     * Function Name: CapSense_CSD_CalcCentroid
 983:.\Generated_Source\PSoC5/CapSense_CSD_CSHL.c ****     ********************************************************************************
 984:.\Generated_Source\PSoC5/CapSense_CSD_CSHL.c ****     *
 985:.\Generated_Source\PSoC5/CapSense_CSD_CSHL.c ****     * Summary:
 986:.\Generated_Source\PSoC5/CapSense_CSD_CSHL.c ****     *  Returns position value calculated accoring index of maximum element and API
 987:.\Generated_Source\PSoC5/CapSense_CSD_CSHL.c ****     *  resolution.
 988:.\Generated_Source\PSoC5/CapSense_CSD_CSHL.c ****     *
 989:.\Generated_Source\PSoC5/CapSense_CSD_CSHL.c ****     * Parameters:
 990:.\Generated_Source\PSoC5/CapSense_CSD_CSHL.c ****     *  type:  widget type.
 991:.\Generated_Source\PSoC5/CapSense_CSD_CSHL.c ****     *  diplex:  pointer to diplex table.
 992:.\Generated_Source\PSoC5/CapSense_CSD_CSHL.c ****     *  maximum:  Index of maximum element within centroid.
 993:.\Generated_Source\PSoC5/CapSense_CSD_CSHL.c ****     *  offset:   Start index of cetroid in CapSense_CSD_SensorSignal[] array.
 994:.\Generated_Source\PSoC5/CapSense_CSD_CSHL.c ****     *  count:    Number of elements within centroid.
 995:.\Generated_Source\PSoC5/CapSense_CSD_CSHL.c ****     *  resolution:  multiplicator calculated according to centroid type and
 996:.\Generated_Source\PSoC5/CapSense_CSD_CSHL.c ****     *  API resolution.
 997:.\Generated_Source\PSoC5/CapSense_CSD_CSHL.c ****     *  noiseThreshold:  Noise threshould.
 998:.\Generated_Source\PSoC5/CapSense_CSD_CSHL.c ****     * 
 999:.\Generated_Source\PSoC5/CapSense_CSD_CSHL.c ****     * Return:
1000:.\Generated_Source\PSoC5/CapSense_CSD_CSHL.c ****     *  Returns position value of the slider.
1001:.\Generated_Source\PSoC5/CapSense_CSD_CSHL.c ****     * 
1002:.\Generated_Source\PSoC5/CapSense_CSD_CSHL.c ****     *
1003:.\Generated_Source\PSoC5/CapSense_CSD_CSHL.c ****     * Reentrant:
1004:.\Generated_Source\PSoC5/CapSense_CSD_CSHL.c ****     *  No.
1005:.\Generated_Source\PSoC5/CapSense_CSD_CSHL.c ****     *
1006:.\Generated_Source\PSoC5/CapSense_CSD_CSHL.c ****     *******************************************************************************/
1007:.\Generated_Source\PSoC5/CapSense_CSD_CSHL.c ****     uint8 CapSense_CSD_CalcCentroid(uint8 maximum, uint8 offset, 
1008:.\Generated_Source\PSoC5/CapSense_CSD_CSHL.c ****                                         uint8 count, uint16 resolution, uint8 noiseThreshold)
1009:.\Generated_Source\PSoC5/CapSense_CSD_CSHL.c **** 	                                    
1010:.\Generated_Source\PSoC5/CapSense_CSD_CSHL.c ****     {
 611              		.loc 1 1010 0
 612              		.cfi_startproc
 613              		@ args = 4, pretend = 0, frame = 0
 614              		@ frame_needed = 0, uses_anonymous_args = 0
 615              	.LVL72:
 616 0000 F0B5     		push	{r4, r5, r6, r7, lr}
 617              		.cfi_def_cfa_offset 20
 618              		.cfi_offset 4, -20
 619              		.cfi_offset 5, -16
 620              		.cfi_offset 6, -12
 621              		.cfi_offset 7, -8
 622              		.cfi_offset 14, -4
 623 0002 9DF81450 		ldrb	r5, [sp, #20]	@ zero_extendqisi2
 624              	.LVL73:
1011:.\Generated_Source\PSoC5/CapSense_CSD_CSHL.c ****         #if ((CapSense_CSD_TOTAL_LINEAR_SLIDERS_COUNT > 0u) || (CapSense_CSD_TOTAL_TOUCH_PADS_COUNT
1012:.\Generated_Source\PSoC5/CapSense_CSD_CSHL.c ****             uint8 posPrev = 0u;
1013:.\Generated_Source\PSoC5/CapSense_CSD_CSHL.c ****             uint8 posNext = 0u;
1014:.\Generated_Source\PSoC5/CapSense_CSD_CSHL.c ****         #endif /* ((CapSense_CSD_TOTAL_LINEAR_SLIDERS_COUNT>0u) || (CapSense_CSD_TOTAL_TOUCH_PADS_C
1015:.\Generated_Source\PSoC5/CapSense_CSD_CSHL.c ****                
1016:.\Generated_Source\PSoC5/CapSense_CSD_CSHL.c ****         #if (CapSense_CSD_IS_DIPLEX_SLIDER)                
1017:.\Generated_Source\PSoC5/CapSense_CSD_CSHL.c ****             uint8 pos;
ARM GAS  C:\Users\LUKASC~1\AppData\Local\Temp\ccKrJm2d.s 			page 30


1018:.\Generated_Source\PSoC5/CapSense_CSD_CSHL.c ****         #endif /* (CapSense_CSD_IS_DIPLEX_SLIDER) */
1019:.\Generated_Source\PSoC5/CapSense_CSD_CSHL.c ****         
1020:.\Generated_Source\PSoC5/CapSense_CSD_CSHL.c ****         /* Helps while centroid calulation */
1021:.\Generated_Source\PSoC5/CapSense_CSD_CSHL.c ****         static uint8 CapSense_CSD_centroid[3u];
1022:.\Generated_Source\PSoC5/CapSense_CSD_CSHL.c **** 
1023:.\Generated_Source\PSoC5/CapSense_CSD_CSHL.c ****         uint8 position;
1024:.\Generated_Source\PSoC5/CapSense_CSD_CSHL.c ****         uint32 numerator;
1025:.\Generated_Source\PSoC5/CapSense_CSD_CSHL.c ****         int32 denominator;
1026:.\Generated_Source\PSoC5/CapSense_CSD_CSHL.c ****         uint8 *startOfSlider = &CapSense_CSD_sensorSignal[offset];
 625              		.loc 1 1026 0
 626 0006 284C     		ldr	r4, .L67
 627 0008 2144     		add	r1, r1, r4
 628              	.LVL74:
1027:.\Generated_Source\PSoC5/CapSense_CSD_CSHL.c ****                     
1028:.\Generated_Source\PSoC5/CapSense_CSD_CSHL.c ****         #if (CapSense_CSD_ADD_SLIDER_TYPE)
1029:.\Generated_Source\PSoC5/CapSense_CSD_CSHL.c ****             if(type == CapSense_CSD_TYPE_RADIAL_SLIDER)
1030:.\Generated_Source\PSoC5/CapSense_CSD_CSHL.c ****             {
1031:.\Generated_Source\PSoC5/CapSense_CSD_CSHL.c ****         #endif /* (CapSense_CSD_ADD_SLIDER_TYPE) */
1032:.\Generated_Source\PSoC5/CapSense_CSD_CSHL.c **** 
1033:.\Generated_Source\PSoC5/CapSense_CSD_CSHL.c ****             #if (CapSense_CSD_TOTAL_RADIAL_SLIDERS_COUNT > 0u)                
1034:.\Generated_Source\PSoC5/CapSense_CSD_CSHL.c ****                 /* Copy Signal for found centriod */
1035:.\Generated_Source\PSoC5/CapSense_CSD_CSHL.c ****                 CapSense_CSD_centroid[CapSense_CSD_POS] = startOfSlider[maximum];
1036:.\Generated_Source\PSoC5/CapSense_CSD_CSHL.c ****                  
1037:.\Generated_Source\PSoC5/CapSense_CSD_CSHL.c ****                 /* Check borders for ROTARY Slider */
1038:.\Generated_Source\PSoC5/CapSense_CSD_CSHL.c ****                 if (maximum == 0u)                   /* Start of centroid */
1039:.\Generated_Source\PSoC5/CapSense_CSD_CSHL.c ****                 { 
1040:.\Generated_Source\PSoC5/CapSense_CSD_CSHL.c ****                     CapSense_CSD_centroid[CapSense_CSD_POS_PREV] = startOfSlider[count - 1u];
1041:.\Generated_Source\PSoC5/CapSense_CSD_CSHL.c ****                     CapSense_CSD_centroid[CapSense_CSD_POS_NEXT] = startOfSlider[1u];
1042:.\Generated_Source\PSoC5/CapSense_CSD_CSHL.c ****                 }
1043:.\Generated_Source\PSoC5/CapSense_CSD_CSHL.c ****                 else if (maximum == (count - 1u))    /* End of centroid */
1044:.\Generated_Source\PSoC5/CapSense_CSD_CSHL.c ****                 {
1045:.\Generated_Source\PSoC5/CapSense_CSD_CSHL.c ****                     CapSense_CSD_centroid[CapSense_CSD_POS_PREV] = startOfSlider[maximum - 1u];
1046:.\Generated_Source\PSoC5/CapSense_CSD_CSHL.c ****                     CapSense_CSD_centroid[CapSense_CSD_POS_NEXT] = startOfSlider[0u];
1047:.\Generated_Source\PSoC5/CapSense_CSD_CSHL.c ****                 }
1048:.\Generated_Source\PSoC5/CapSense_CSD_CSHL.c ****                 else                                /* Not first Not last */
1049:.\Generated_Source\PSoC5/CapSense_CSD_CSHL.c ****                 {
1050:.\Generated_Source\PSoC5/CapSense_CSD_CSHL.c ****                     CapSense_CSD_centroid[CapSense_CSD_POS_PREV] = startOfSlider[maximum - 1u];
1051:.\Generated_Source\PSoC5/CapSense_CSD_CSHL.c ****                     CapSense_CSD_centroid[CapSense_CSD_POS_NEXT] = startOfSlider[maximum + 1u];
1052:.\Generated_Source\PSoC5/CapSense_CSD_CSHL.c ****                 }
1053:.\Generated_Source\PSoC5/CapSense_CSD_CSHL.c ****             #endif /* (CapSense_CSD_TOTAL_RADIAL_SLIDERS_COUNT > 0u) */
1054:.\Generated_Source\PSoC5/CapSense_CSD_CSHL.c **** 
1055:.\Generated_Source\PSoC5/CapSense_CSD_CSHL.c ****         #if (CapSense_CSD_ADD_SLIDER_TYPE)
1056:.\Generated_Source\PSoC5/CapSense_CSD_CSHL.c ****             }
1057:.\Generated_Source\PSoC5/CapSense_CSD_CSHL.c ****             else
1058:.\Generated_Source\PSoC5/CapSense_CSD_CSHL.c ****             {
1059:.\Generated_Source\PSoC5/CapSense_CSD_CSHL.c ****         #endif /* (CapSense_CSD_ADD_SLIDER_TYPE) */
1060:.\Generated_Source\PSoC5/CapSense_CSD_CSHL.c **** 
1061:.\Generated_Source\PSoC5/CapSense_CSD_CSHL.c ****             #if ((CapSense_CSD_TOTAL_LINEAR_SLIDERS_COUNT > 0u) || (CapSense_CSD_TOTAL_TOUCH_PADS_C
1062:.\Generated_Source\PSoC5/CapSense_CSD_CSHL.c ****                 #if (CapSense_CSD_IS_DIPLEX_SLIDER && CapSense_CSD_IS_NON_DIPLEX_SLIDER)           
1063:.\Generated_Source\PSoC5/CapSense_CSD_CSHL.c ****                     /* Calculate next and previous near to maximum */
1064:.\Generated_Source\PSoC5/CapSense_CSD_CSHL.c ****                     if(diplex == 0u)
1065:.\Generated_Source\PSoC5/CapSense_CSD_CSHL.c ****                     {
1066:.\Generated_Source\PSoC5/CapSense_CSD_CSHL.c ****                         pos     = maximum;
1067:.\Generated_Source\PSoC5/CapSense_CSD_CSHL.c ****                         posPrev = maximum - 1u;
1068:.\Generated_Source\PSoC5/CapSense_CSD_CSHL.c ****                         posNext = maximum + 1u; 
1069:.\Generated_Source\PSoC5/CapSense_CSD_CSHL.c ****                     }
1070:.\Generated_Source\PSoC5/CapSense_CSD_CSHL.c ****                     else
ARM GAS  C:\Users\LUKASC~1\AppData\Local\Temp\ccKrJm2d.s 			page 31


1071:.\Generated_Source\PSoC5/CapSense_CSD_CSHL.c ****                     {
1072:.\Generated_Source\PSoC5/CapSense_CSD_CSHL.c ****                         pos     = diplex[maximum];
1073:.\Generated_Source\PSoC5/CapSense_CSD_CSHL.c ****                         posPrev = diplex[maximum - 1u];
1074:.\Generated_Source\PSoC5/CapSense_CSD_CSHL.c ****                         posNext = diplex[maximum + 1u];
1075:.\Generated_Source\PSoC5/CapSense_CSD_CSHL.c ****                         count <<= 1u;
1076:.\Generated_Source\PSoC5/CapSense_CSD_CSHL.c ****                     }                    
1077:.\Generated_Source\PSoC5/CapSense_CSD_CSHL.c ****                 #elif (CapSense_CSD_IS_DIPLEX_SLIDER)
1078:.\Generated_Source\PSoC5/CapSense_CSD_CSHL.c ****                     /* Calculate next and previous near to maximum */
1079:.\Generated_Source\PSoC5/CapSense_CSD_CSHL.c ****                     pos     = diplex[maximum];
1080:.\Generated_Source\PSoC5/CapSense_CSD_CSHL.c ****                     posPrev = diplex[maximum - 1u];
1081:.\Generated_Source\PSoC5/CapSense_CSD_CSHL.c ****                     posNext = diplex[maximum + 1u];
1082:.\Generated_Source\PSoC5/CapSense_CSD_CSHL.c ****                     count <<= 1u;                    
1083:.\Generated_Source\PSoC5/CapSense_CSD_CSHL.c ****                 #else                    
1084:.\Generated_Source\PSoC5/CapSense_CSD_CSHL.c ****                     /* Calculate next and previous near to maximum */
1085:.\Generated_Source\PSoC5/CapSense_CSD_CSHL.c ****                     if (maximum >= 1u)
 629              		.loc 1 1085 0
 630 000a 0446     		mov	r4, r0
 631 000c 10B1     		cbz	r0, .L65
1086:.\Generated_Source\PSoC5/CapSense_CSD_CSHL.c ****                     {
1087:.\Generated_Source\PSoC5/CapSense_CSD_CSHL.c ****                         posPrev = maximum - 1u;
 632              		.loc 1 1087 0
 633 000e 461E     		subs	r6, r0, #1
 634 0010 F6B2     		uxtb	r6, r6
 635              	.LVL75:
 636 0012 00E0     		b	.L57
 637              	.LVL76:
 638              	.L65:
1012:.\Generated_Source\PSoC5/CapSense_CSD_CSHL.c ****             uint8 posNext = 0u;
 639              		.loc 1 1012 0
 640 0014 0026     		movs	r6, #0
 641              	.LVL77:
 642              	.L57:
1088:.\Generated_Source\PSoC5/CapSense_CSD_CSHL.c ****                     }
1089:.\Generated_Source\PSoC5/CapSense_CSD_CSHL.c ****                     posNext = maximum + 1u; 
 643              		.loc 1 1089 0
 644 0016 601C     		adds	r0, r4, #1
 645              	.LVL78:
 646 0018 C0B2     		uxtb	r0, r0
 647              	.LVL79:
1090:.\Generated_Source\PSoC5/CapSense_CSD_CSHL.c ****                 #endif /* (CapSense_CSD_IS_DIPLEX_SLIDER && CapSense_CSD_IS_NON_DIPLEX_SLIDER) */
1091:.\Generated_Source\PSoC5/CapSense_CSD_CSHL.c ****                         
1092:.\Generated_Source\PSoC5/CapSense_CSD_CSHL.c ****                 /* Copy Signal for found centriod */
1093:.\Generated_Source\PSoC5/CapSense_CSD_CSHL.c ****                 #if (CapSense_CSD_IS_DIPLEX_SLIDER)
1094:.\Generated_Source\PSoC5/CapSense_CSD_CSHL.c ****                     CapSense_CSD_centroid[CapSense_CSD_POS] = startOfSlider[pos];
1095:.\Generated_Source\PSoC5/CapSense_CSD_CSHL.c ****                 #else
1096:.\Generated_Source\PSoC5/CapSense_CSD_CSHL.c ****                     CapSense_CSD_centroid[CapSense_CSD_POS] = startOfSlider[maximum];
 648              		.loc 1 1096 0
 649 001a 11F804E0 		ldrb	lr, [r1, r4]	@ zero_extendqisi2
 650 001e 234F     		ldr	r7, .L67+4
 651 0020 87F809E0 		strb	lr, [r7, #9]
1097:.\Generated_Source\PSoC5/CapSense_CSD_CSHL.c ****                 #endif /* (CapSense_CSD_IS_DIPLEX_SLIDER) */
1098:.\Generated_Source\PSoC5/CapSense_CSD_CSHL.c ****                     
1099:.\Generated_Source\PSoC5/CapSense_CSD_CSHL.c ****                 /* Check borders for LINEAR Slider */
1100:.\Generated_Source\PSoC5/CapSense_CSD_CSHL.c ****                 if (maximum == 0u)                   /* Start of centroid */
 652              		.loc 1 1100 0
 653 0024 24B9     		cbnz	r4, .L58
1101:.\Generated_Source\PSoC5/CapSense_CSD_CSHL.c ****                 { 
ARM GAS  C:\Users\LUKASC~1\AppData\Local\Temp\ccKrJm2d.s 			page 32


1102:.\Generated_Source\PSoC5/CapSense_CSD_CSHL.c ****                     CapSense_CSD_centroid[CapSense_CSD_POS_PREV] = 0u;
 654              		.loc 1 1102 0
 655 0026 0026     		movs	r6, #0
 656              	.LVL80:
 657 0028 3E72     		strb	r6, [r7, #8]
1103:.\Generated_Source\PSoC5/CapSense_CSD_CSHL.c ****                     CapSense_CSD_centroid[CapSense_CSD_POS_NEXT] = startOfSlider[posNext];
 658              		.loc 1 1103 0
 659 002a 095C     		ldrb	r1, [r1, r0]	@ zero_extendqisi2
 660              	.LVL81:
 661 002c B972     		strb	r1, [r7, #10]
 662 002e 0DE0     		b	.L59
 663              	.LVL82:
 664              	.L58:
1104:.\Generated_Source\PSoC5/CapSense_CSD_CSHL.c ****                 }
1105:.\Generated_Source\PSoC5/CapSense_CSD_CSHL.c ****                 else if (maximum == ((count) - 1u)) /* End of centroid */
 665              		.loc 1 1105 0
 666 0030 013A     		subs	r2, r2, #1
 667              	.LVL83:
 668 0032 9442     		cmp	r4, r2
 669 0034 05D1     		bne	.L60
1106:.\Generated_Source\PSoC5/CapSense_CSD_CSHL.c ****                 {
1107:.\Generated_Source\PSoC5/CapSense_CSD_CSHL.c ****                     CapSense_CSD_centroid[CapSense_CSD_POS_PREV] = startOfSlider[posPrev];
 670              		.loc 1 1107 0
 671 0036 895D     		ldrb	r1, [r1, r6]	@ zero_extendqisi2
 672              	.LVL84:
 673 0038 1C4A     		ldr	r2, .L67+4
 674 003a 1172     		strb	r1, [r2, #8]
1108:.\Generated_Source\PSoC5/CapSense_CSD_CSHL.c ****                     CapSense_CSD_centroid[CapSense_CSD_POS_NEXT] = 0u;
 675              		.loc 1 1108 0
 676 003c 0021     		movs	r1, #0
 677 003e 9172     		strb	r1, [r2, #10]
 678 0040 04E0     		b	.L59
 679              	.LVL85:
 680              	.L60:
1109:.\Generated_Source\PSoC5/CapSense_CSD_CSHL.c ****                 }
1110:.\Generated_Source\PSoC5/CapSense_CSD_CSHL.c ****                 else                                /* Not first Not last */
1111:.\Generated_Source\PSoC5/CapSense_CSD_CSHL.c ****                 {
1112:.\Generated_Source\PSoC5/CapSense_CSD_CSHL.c ****                     CapSense_CSD_centroid[CapSense_CSD_POS_PREV] = startOfSlider[posPrev];
 681              		.loc 1 1112 0
 682 0042 8E5D     		ldrb	r6, [r1, r6]	@ zero_extendqisi2
 683              	.LVL86:
 684 0044 194A     		ldr	r2, .L67+4
 685 0046 1672     		strb	r6, [r2, #8]
1113:.\Generated_Source\PSoC5/CapSense_CSD_CSHL.c ****                     CapSense_CSD_centroid[CapSense_CSD_POS_NEXT] = startOfSlider[posNext];
 686              		.loc 1 1113 0
 687 0048 095C     		ldrb	r1, [r1, r0]	@ zero_extendqisi2
 688              	.LVL87:
 689 004a 9172     		strb	r1, [r2, #10]
 690              	.L59:
1114:.\Generated_Source\PSoC5/CapSense_CSD_CSHL.c ****                 }
1115:.\Generated_Source\PSoC5/CapSense_CSD_CSHL.c ****             #endif /* ((CapSense_CSD_TOTAL_LINEAR_SLIDERS_COUNT>0u)||(CapSense_CSD_TOTAL_TOUCH_PADS
1116:.\Generated_Source\PSoC5/CapSense_CSD_CSHL.c **** 
1117:.\Generated_Source\PSoC5/CapSense_CSD_CSHL.c ****         #if (CapSense_CSD_ADD_SLIDER_TYPE)
1118:.\Generated_Source\PSoC5/CapSense_CSD_CSHL.c ****             }
1119:.\Generated_Source\PSoC5/CapSense_CSD_CSHL.c ****         #endif /* (CapSense_CSD_ADD_SLIDER_TYPE) */
1120:.\Generated_Source\PSoC5/CapSense_CSD_CSHL.c ****     
1121:.\Generated_Source\PSoC5/CapSense_CSD_CSHL.c ****         /* Subtract noiseThreshold */
ARM GAS  C:\Users\LUKASC~1\AppData\Local\Temp\ccKrJm2d.s 			page 33


1122:.\Generated_Source\PSoC5/CapSense_CSD_CSHL.c ****         if(CapSense_CSD_centroid[CapSense_CSD_POS_PREV] > noiseThreshold)
 691              		.loc 1 1122 0
 692 004c 174A     		ldr	r2, .L67+4
 693 004e 127A     		ldrb	r2, [r2, #8]	@ zero_extendqisi2
 694 0050 AA42     		cmp	r2, r5
 695 0052 03D9     		bls	.L61
1123:.\Generated_Source\PSoC5/CapSense_CSD_CSHL.c ****         {
1124:.\Generated_Source\PSoC5/CapSense_CSD_CSHL.c ****             CapSense_CSD_centroid[CapSense_CSD_POS_PREV] -= noiseThreshold;
 696              		.loc 1 1124 0
 697 0054 521B     		subs	r2, r2, r5
 698 0056 1549     		ldr	r1, .L67+4
 699 0058 0A72     		strb	r2, [r1, #8]
 700 005a 02E0     		b	.L62
 701              	.L61:
1125:.\Generated_Source\PSoC5/CapSense_CSD_CSHL.c ****         }
1126:.\Generated_Source\PSoC5/CapSense_CSD_CSHL.c ****         else
1127:.\Generated_Source\PSoC5/CapSense_CSD_CSHL.c ****         {
1128:.\Generated_Source\PSoC5/CapSense_CSD_CSHL.c ****             CapSense_CSD_centroid[CapSense_CSD_POS_PREV] = 0u;
 702              		.loc 1 1128 0
 703 005c 0021     		movs	r1, #0
 704 005e 134A     		ldr	r2, .L67+4
 705 0060 1172     		strb	r1, [r2, #8]
 706              	.L62:
1129:.\Generated_Source\PSoC5/CapSense_CSD_CSHL.c ****         }
1130:.\Generated_Source\PSoC5/CapSense_CSD_CSHL.c ****         
1131:.\Generated_Source\PSoC5/CapSense_CSD_CSHL.c ****         /* Maximum always grater than fingerThreshold, so grate than noiseThreshold */
1132:.\Generated_Source\PSoC5/CapSense_CSD_CSHL.c ****         CapSense_CSD_centroid[CapSense_CSD_POS] -= noiseThreshold;
 707              		.loc 1 1132 0
 708 0062 124A     		ldr	r2, .L67+4
 709 0064 517A     		ldrb	r1, [r2, #9]	@ zero_extendqisi2
 710 0066 491B     		subs	r1, r1, r5
 711 0068 C9B2     		uxtb	r1, r1
 712 006a 5172     		strb	r1, [r2, #9]
1133:.\Generated_Source\PSoC5/CapSense_CSD_CSHL.c ****         
1134:.\Generated_Source\PSoC5/CapSense_CSD_CSHL.c ****         /* Subtract noiseThreshold */
1135:.\Generated_Source\PSoC5/CapSense_CSD_CSHL.c ****         if(CapSense_CSD_centroid[CapSense_CSD_POS_NEXT] > noiseThreshold)
 713              		.loc 1 1135 0
 714 006c 927A     		ldrb	r2, [r2, #10]	@ zero_extendqisi2
 715 006e AA42     		cmp	r2, r5
 716 0070 03D9     		bls	.L63
1136:.\Generated_Source\PSoC5/CapSense_CSD_CSHL.c ****         {
1137:.\Generated_Source\PSoC5/CapSense_CSD_CSHL.c ****             CapSense_CSD_centroid[CapSense_CSD_POS_NEXT] -= noiseThreshold;
 717              		.loc 1 1137 0
 718 0072 551B     		subs	r5, r2, r5
 719 0074 0D4A     		ldr	r2, .L67+4
 720 0076 9572     		strb	r5, [r2, #10]
 721 0078 02E0     		b	.L64
 722              	.L63:
1138:.\Generated_Source\PSoC5/CapSense_CSD_CSHL.c ****         }
1139:.\Generated_Source\PSoC5/CapSense_CSD_CSHL.c ****         else
1140:.\Generated_Source\PSoC5/CapSense_CSD_CSHL.c ****         {
1141:.\Generated_Source\PSoC5/CapSense_CSD_CSHL.c ****             CapSense_CSD_centroid[CapSense_CSD_POS_NEXT] = 0u;
 723              		.loc 1 1141 0
 724 007a 0020     		movs	r0, #0
 725              	.LVL88:
 726 007c 0B4A     		ldr	r2, .L67+4
 727 007e 9072     		strb	r0, [r2, #10]
ARM GAS  C:\Users\LUKASC~1\AppData\Local\Temp\ccKrJm2d.s 			page 34


 728              	.L64:
1142:.\Generated_Source\PSoC5/CapSense_CSD_CSHL.c ****         }
1143:.\Generated_Source\PSoC5/CapSense_CSD_CSHL.c ****         
1144:.\Generated_Source\PSoC5/CapSense_CSD_CSHL.c ****         
1145:.\Generated_Source\PSoC5/CapSense_CSD_CSHL.c ****         /* Si+1 - Si-1 */
1146:.\Generated_Source\PSoC5/CapSense_CSD_CSHL.c ****         numerator = (uint32) CapSense_CSD_centroid[CapSense_CSD_POS_NEXT] -
 729              		.loc 1 1146 0
 730 0080 0A4A     		ldr	r2, .L67+4
 731 0082 907A     		ldrb	r0, [r2, #10]	@ zero_extendqisi2
1147:.\Generated_Source\PSoC5/CapSense_CSD_CSHL.c ****                     (uint32) CapSense_CSD_centroid[CapSense_CSD_POS_PREV];
 732              		.loc 1 1147 0
 733 0084 157A     		ldrb	r5, [r2, #8]	@ zero_extendqisi2
1146:.\Generated_Source\PSoC5/CapSense_CSD_CSHL.c ****                     (uint32) CapSense_CSD_centroid[CapSense_CSD_POS_PREV];
 734              		.loc 1 1146 0
 735 0086 421B     		subs	r2, r0, r5
 736              	.LVL89:
1148:.\Generated_Source\PSoC5/CapSense_CSD_CSHL.c **** 
1149:.\Generated_Source\PSoC5/CapSense_CSD_CSHL.c ****         /* Si+1 + Si + Si-1 */
1150:.\Generated_Source\PSoC5/CapSense_CSD_CSHL.c ****         denominator = (int32) CapSense_CSD_centroid[CapSense_CSD_POS_PREV] + 
 737              		.loc 1 1150 0
 738 0088 2944     		add	r1, r1, r5
 739 008a 0844     		add	r0, r0, r1
 740              	.LVL90:
1151:.\Generated_Source\PSoC5/CapSense_CSD_CSHL.c ****                       (int32) CapSense_CSD_centroid[CapSense_CSD_POS] + 
1152:.\Generated_Source\PSoC5/CapSense_CSD_CSHL.c ****                       (int32) CapSense_CSD_centroid[CapSense_CSD_POS_NEXT];
1153:.\Generated_Source\PSoC5/CapSense_CSD_CSHL.c ****         
1154:.\Generated_Source\PSoC5/CapSense_CSD_CSHL.c ****         /* (numerator/denominator) + maximum */
1155:.\Generated_Source\PSoC5/CapSense_CSD_CSHL.c ****         denominator = (((int32)(uint32)((uint32)numerator << 8u)/denominator) + (int32)(uint32)((ui
 741              		.loc 1 1155 0
 742 008c 1202     		lsls	r2, r2, #8
 743              	.LVL91:
 744 008e 92FBF0F0 		sdiv	r0, r2, r0
 745              	.LVL92:
 746 0092 00EB0420 		add	r0, r0, r4, lsl #8
 747              	.LVL93:
1156:.\Generated_Source\PSoC5/CapSense_CSD_CSHL.c **** 
1157:.\Generated_Source\PSoC5/CapSense_CSD_CSHL.c ****         #if(CapSense_CSD_TOTAL_RADIAL_SLIDERS_COUNT > 0u)
1158:.\Generated_Source\PSoC5/CapSense_CSD_CSHL.c ****             /* Only required for RADIAL Slider */
1159:.\Generated_Source\PSoC5/CapSense_CSD_CSHL.c ****             if(denominator < 0)
1160:.\Generated_Source\PSoC5/CapSense_CSD_CSHL.c ****             {
1161:.\Generated_Source\PSoC5/CapSense_CSD_CSHL.c ****                 denominator += (int32)((uint16)((uint16) count << 8u));
1162:.\Generated_Source\PSoC5/CapSense_CSD_CSHL.c ****             }
1163:.\Generated_Source\PSoC5/CapSense_CSD_CSHL.c ****         #endif /* (CapSense_CSD_TOTAL_RADIAL_SLIDERS_COUNT > 0u) */
1164:.\Generated_Source\PSoC5/CapSense_CSD_CSHL.c **** 
1165:.\Generated_Source\PSoC5/CapSense_CSD_CSHL.c ****         denominator *= (int16)resolution;
 748              		.loc 1 1165 0
 749 0096 1BB2     		sxth	r3, r3
 750 0098 00FB03F0 		mul	r0, r0, r3
 751              	.LVL94:
1166:.\Generated_Source\PSoC5/CapSense_CSD_CSHL.c **** 
1167:.\Generated_Source\PSoC5/CapSense_CSD_CSHL.c ****         /* Round the relust and put it to uint8 */
1168:.\Generated_Source\PSoC5/CapSense_CSD_CSHL.c ****         position = ((uint8) HI16((uint32)denominator + CapSense_CSD_CENTROID_ROUND_VALUE));
 752              		.loc 1 1168 0
 753 009c 00F5FE40 		add	r0, r0, #32512
 754              	.LVL95:
1169:.\Generated_Source\PSoC5/CapSense_CSD_CSHL.c **** 
1170:.\Generated_Source\PSoC5/CapSense_CSD_CSHL.c ****         return (position);
ARM GAS  C:\Users\LUKASC~1\AppData\Local\Temp\ccKrJm2d.s 			page 35


1171:.\Generated_Source\PSoC5/CapSense_CSD_CSHL.c ****     }    
 755              		.loc 1 1171 0
 756 00a0 C0F30740 		ubfx	r0, r0, #16, #8
 757              	.LVL96:
 758 00a4 F0BD     		pop	{r4, r5, r6, r7, pc}
 759              	.LVL97:
 760              	.L68:
 761 00a6 00BF     		.align	2
 762              	.L67:
 763 00a8 00000000 		.word	CapSense_CSD_sensorSignal
 764 00ac 00000000 		.word	.LANCHOR1
 765              		.cfi_endproc
 766              	.LFE12:
 767              		.size	CapSense_CSD_CalcCentroid, .-CapSense_CSD_CalcCentroid
 768              		.section	.text.CapSense_CSD_IIR4Filter,"ax",%progbits
 769              		.align	2
 770              		.global	CapSense_CSD_IIR4Filter
 771              		.thumb
 772              		.thumb_func
 773              		.type	CapSense_CSD_IIR4Filter, %function
 774              	CapSense_CSD_IIR4Filter:
 775              	.LFB14:
1172:.\Generated_Source\PSoC5/CapSense_CSD_CSHL.c **** #endif /* (CapSense_CSD_TOTAL_CENTROIDS_COUNT) */
1173:.\Generated_Source\PSoC5/CapSense_CSD_CSHL.c **** 
1174:.\Generated_Source\PSoC5/CapSense_CSD_CSHL.c **** 
1175:.\Generated_Source\PSoC5/CapSense_CSD_CSHL.c **** #if(CapSense_CSD_TOTAL_LINEAR_SLIDERS_COUNT > 0u)
1176:.\Generated_Source\PSoC5/CapSense_CSD_CSHL.c ****     /*******************************************************************************
1177:.\Generated_Source\PSoC5/CapSense_CSD_CSHL.c ****     * Function Name: CapSense_CSD_GetCentroidPos
1178:.\Generated_Source\PSoC5/CapSense_CSD_CSHL.c ****     ********************************************************************************
1179:.\Generated_Source\PSoC5/CapSense_CSD_CSHL.c ****     *
1180:.\Generated_Source\PSoC5/CapSense_CSD_CSHL.c ****     * Summary:
1181:.\Generated_Source\PSoC5/CapSense_CSD_CSHL.c ****     *  Checks the CapSense_CSD_Signal[ ] array for a centroid within
1182:.\Generated_Source\PSoC5/CapSense_CSD_CSHL.c ****     *  slider specified range. The centroid position is calculated to the resolution
1183:.\Generated_Source\PSoC5/CapSense_CSD_CSHL.c ****     *  specified in the CapSense customizer. The position filters are applied to the
1184:.\Generated_Source\PSoC5/CapSense_CSD_CSHL.c ****     *  result if enabled.
1185:.\Generated_Source\PSoC5/CapSense_CSD_CSHL.c ****     *
1186:.\Generated_Source\PSoC5/CapSense_CSD_CSHL.c ****     * Parameters:
1187:.\Generated_Source\PSoC5/CapSense_CSD_CSHL.c ****     *  widget:  Widget number.
1188:.\Generated_Source\PSoC5/CapSense_CSD_CSHL.c ****     *  For every linear slider widget there are defines in this format:
1189:.\Generated_Source\PSoC5/CapSense_CSD_CSHL.c ****     *  #define CapSense_CSD_LS__"widget_name"            5
1190:.\Generated_Source\PSoC5/CapSense_CSD_CSHL.c ****     * 
1191:.\Generated_Source\PSoC5/CapSense_CSD_CSHL.c ****     * Return:
1192:.\Generated_Source\PSoC5/CapSense_CSD_CSHL.c ****     *  Returns position value of the linear slider.
1193:.\Generated_Source\PSoC5/CapSense_CSD_CSHL.c ****     *
1194:.\Generated_Source\PSoC5/CapSense_CSD_CSHL.c ****     * Side Effects:
1195:.\Generated_Source\PSoC5/CapSense_CSD_CSHL.c ****     *  If any sensor within the slider widget is active, the function returns values
1196:.\Generated_Source\PSoC5/CapSense_CSD_CSHL.c ****     *  from zero to the API resolution value set in the CapSense customizer. If no
1197:.\Generated_Source\PSoC5/CapSense_CSD_CSHL.c ****     *  sensors are active, the function returns 0xFFFF. If an error occurs during
1198:.\Generated_Source\PSoC5/CapSense_CSD_CSHL.c ****     *  execution of the centroid/diplexing algorithm, the function returns 0xFFFF.
1199:.\Generated_Source\PSoC5/CapSense_CSD_CSHL.c ****     *  There are no checks of widget type argument provided to this function.
1200:.\Generated_Source\PSoC5/CapSense_CSD_CSHL.c ****     *  The unproper widget type provided will cause unexpected position calculations.
1201:.\Generated_Source\PSoC5/CapSense_CSD_CSHL.c ****     *
1202:.\Generated_Source\PSoC5/CapSense_CSD_CSHL.c ****     * Note:
1203:.\Generated_Source\PSoC5/CapSense_CSD_CSHL.c ****     *  If noise counts on the slider segments are greater than the noise
1204:.\Generated_Source\PSoC5/CapSense_CSD_CSHL.c ****     *  threshold, this subroutine may generate a false centroid result. The noise
1205:.\Generated_Source\PSoC5/CapSense_CSD_CSHL.c ****     *  threshold should be set carefully (high enough above the noise level) so
1206:.\Generated_Source\PSoC5/CapSense_CSD_CSHL.c ****     *  that noise will not generate a false centroid.
ARM GAS  C:\Users\LUKASC~1\AppData\Local\Temp\ccKrJm2d.s 			page 36


1207:.\Generated_Source\PSoC5/CapSense_CSD_CSHL.c ****     *
1208:.\Generated_Source\PSoC5/CapSense_CSD_CSHL.c ****     * Reentrant:
1209:.\Generated_Source\PSoC5/CapSense_CSD_CSHL.c ****     *  No.
1210:.\Generated_Source\PSoC5/CapSense_CSD_CSHL.c ****     *
1211:.\Generated_Source\PSoC5/CapSense_CSD_CSHL.c ****     *******************************************************************************/
1212:.\Generated_Source\PSoC5/CapSense_CSD_CSHL.c ****     uint16 CapSense_CSD_GetCentroidPos(uint8 widget) 
1213:.\Generated_Source\PSoC5/CapSense_CSD_CSHL.c ****     {
1214:.\Generated_Source\PSoC5/CapSense_CSD_CSHL.c ****         #if (CapSense_CSD_IS_DIPLEX_SLIDER)
1215:.\Generated_Source\PSoC5/CapSense_CSD_CSHL.c ****             const uint8 CYCODE *diplex;
1216:.\Generated_Source\PSoC5/CapSense_CSD_CSHL.c ****         #endif /* (CapSense_CSD_IS_DIPLEX_SLIDER) */
1217:.\Generated_Source\PSoC5/CapSense_CSD_CSHL.c ****                 
1218:.\Generated_Source\PSoC5/CapSense_CSD_CSHL.c ****         #if (0u != CapSense_CSD_LINEAR_SLIDERS_POS_FILTERS_MASK)
1219:.\Generated_Source\PSoC5/CapSense_CSD_CSHL.c ****             uint8 posIndex;
1220:.\Generated_Source\PSoC5/CapSense_CSD_CSHL.c ****             uint8 firstTimeIndex = CapSense_CSD_posFiltersData[widget];
1221:.\Generated_Source\PSoC5/CapSense_CSD_CSHL.c ****             uint8 posFiltersMask = CapSense_CSD_posFiltersMask[widget];  
1222:.\Generated_Source\PSoC5/CapSense_CSD_CSHL.c ****         #endif /* (0u != CapSense_CSD_LINEAR_SLIDERS_POS_FILTERS_MASK) */
1223:.\Generated_Source\PSoC5/CapSense_CSD_CSHL.c **** 
1224:.\Generated_Source\PSoC5/CapSense_CSD_CSHL.c ****         #if ((0u != (CapSense_CSD_MEDIAN_FILTER & CapSense_CSD_LINEAR_SLIDERS_POS_FILTERS_MASK)) ||
1225:.\Generated_Source\PSoC5/CapSense_CSD_CSHL.c ****              (0u != (CapSense_CSD_AVERAGING_FILTER & CapSense_CSD_LINEAR_SLIDERS_POS_FILTERS_MASK))
1226:.\Generated_Source\PSoC5/CapSense_CSD_CSHL.c ****             uint8 tempPos;
1227:.\Generated_Source\PSoC5/CapSense_CSD_CSHL.c ****         #endif /* ((0u != (CapSense_CSD_MEDIAN_FILTER & CapSense_CSD_LINEAR_SLIDERS_POS_FILTERS_MAS
1228:.\Generated_Source\PSoC5/CapSense_CSD_CSHL.c ****                *   (0u != (CapSense_CSD_AVERAGING_FILTER & CapSense_CSD_LINEAR_SLIDERS_POS_FILTERS_
1229:.\Generated_Source\PSoC5/CapSense_CSD_CSHL.c ****                */
1230:.\Generated_Source\PSoC5/CapSense_CSD_CSHL.c **** 
1231:.\Generated_Source\PSoC5/CapSense_CSD_CSHL.c ****         uint8 maximum;
1232:.\Generated_Source\PSoC5/CapSense_CSD_CSHL.c ****         uint16 position;
1233:.\Generated_Source\PSoC5/CapSense_CSD_CSHL.c ****         uint8 offset = CapSense_CSD_rawDataIndex[widget];
1234:.\Generated_Source\PSoC5/CapSense_CSD_CSHL.c ****         uint8 count = CapSense_CSD_numberOfSensors[widget];
1235:.\Generated_Source\PSoC5/CapSense_CSD_CSHL.c ****                         
1236:.\Generated_Source\PSoC5/CapSense_CSD_CSHL.c ****         #if (CapSense_CSD_IS_DIPLEX_SLIDER)
1237:.\Generated_Source\PSoC5/CapSense_CSD_CSHL.c ****             if(widget < CapSense_CSD_TOTAL_DIPLEXED_SLIDERS_COUNT)
1238:.\Generated_Source\PSoC5/CapSense_CSD_CSHL.c ****             {
1239:.\Generated_Source\PSoC5/CapSense_CSD_CSHL.c ****                 maximum = CapSense_CSD_diplexTable[widget];
1240:.\Generated_Source\PSoC5/CapSense_CSD_CSHL.c ****                 diplex = &CapSense_CSD_diplexTable[maximum];
1241:.\Generated_Source\PSoC5/CapSense_CSD_CSHL.c ****             }
1242:.\Generated_Source\PSoC5/CapSense_CSD_CSHL.c ****             else
1243:.\Generated_Source\PSoC5/CapSense_CSD_CSHL.c ****             {
1244:.\Generated_Source\PSoC5/CapSense_CSD_CSHL.c ****                 diplex = 0u;
1245:.\Generated_Source\PSoC5/CapSense_CSD_CSHL.c ****             }
1246:.\Generated_Source\PSoC5/CapSense_CSD_CSHL.c ****         #endif /* (CapSense_CSD_IS_DIPLEX_SLIDER) */
1247:.\Generated_Source\PSoC5/CapSense_CSD_CSHL.c **** 
1248:.\Generated_Source\PSoC5/CapSense_CSD_CSHL.c ****         /* Find Maximum within centroid */      
1249:.\Generated_Source\PSoC5/CapSense_CSD_CSHL.c ****         #if (CapSense_CSD_IS_DIPLEX_SLIDER)        
1250:.\Generated_Source\PSoC5/CapSense_CSD_CSHL.c ****             maximum = CapSense_CSD_FindMaximum(offset, count, CapSense_CSD_fingerThreshold[widget],
1251:.\Generated_Source\PSoC5/CapSense_CSD_CSHL.c ****         #else
1252:.\Generated_Source\PSoC5/CapSense_CSD_CSHL.c ****             maximum = CapSense_CSD_FindMaximum(offset, count, CapSense_CSD_fingerThreshold[widget])
1253:.\Generated_Source\PSoC5/CapSense_CSD_CSHL.c ****         #endif /* (CapSense_CSD_IS_DIPLEX_SLIDER) */
1254:.\Generated_Source\PSoC5/CapSense_CSD_CSHL.c **** 
1255:.\Generated_Source\PSoC5/CapSense_CSD_CSHL.c ****         if (maximum != 0xFFu)
1256:.\Generated_Source\PSoC5/CapSense_CSD_CSHL.c ****         {
1257:.\Generated_Source\PSoC5/CapSense_CSD_CSHL.c ****             /* Calculate centroid */
1258:.\Generated_Source\PSoC5/CapSense_CSD_CSHL.c ****             position = (uint16) CapSense_CSD_CalcCentroid(maximum, 
1259:.\Generated_Source\PSoC5/CapSense_CSD_CSHL.c ****                          offset, count, CapSense_CSD_centroidMult[widget], CapSense_CSD_noiseThresh
1260:.\Generated_Source\PSoC5/CapSense_CSD_CSHL.c **** 
1261:.\Generated_Source\PSoC5/CapSense_CSD_CSHL.c ****             #if (0u != CapSense_CSD_LINEAR_SLIDERS_POS_FILTERS_MASK)
1262:.\Generated_Source\PSoC5/CapSense_CSD_CSHL.c ****                 /* Check if this linear slider has enabled filters */
1263:.\Generated_Source\PSoC5/CapSense_CSD_CSHL.c ****                 if (0u != (posFiltersMask & CapSense_CSD_ANY_POS_FILTER))
ARM GAS  C:\Users\LUKASC~1\AppData\Local\Temp\ccKrJm2d.s 			page 37


1264:.\Generated_Source\PSoC5/CapSense_CSD_CSHL.c ****                 {
1265:.\Generated_Source\PSoC5/CapSense_CSD_CSHL.c ****                     /* Caluclate position to store filters data */
1266:.\Generated_Source\PSoC5/CapSense_CSD_CSHL.c ****                     posIndex  = firstTimeIndex + 1u;
1267:.\Generated_Source\PSoC5/CapSense_CSD_CSHL.c ****                     
1268:.\Generated_Source\PSoC5/CapSense_CSD_CSHL.c ****                     if (0u == CapSense_CSD_posFiltersData[firstTimeIndex])
1269:.\Generated_Source\PSoC5/CapSense_CSD_CSHL.c ****                     {
1270:.\Generated_Source\PSoC5/CapSense_CSD_CSHL.c ****                         /* Init filters */
1271:.\Generated_Source\PSoC5/CapSense_CSD_CSHL.c ****                         CapSense_CSD_posFiltersData[posIndex] = (uint8) position;
1272:.\Generated_Source\PSoC5/CapSense_CSD_CSHL.c ****                         #if ((0u != (CapSense_CSD_MEDIAN_FILTER & \
1273:.\Generated_Source\PSoC5/CapSense_CSD_CSHL.c ****                                      CapSense_CSD_LINEAR_SLIDERS_POS_FILTERS_MASK)) || \
1274:.\Generated_Source\PSoC5/CapSense_CSD_CSHL.c ****                              (0u != (CapSense_CSD_AVERAGING_FILTER & \
1275:.\Generated_Source\PSoC5/CapSense_CSD_CSHL.c ****                                      CapSense_CSD_LINEAR_SLIDERS_POS_FILTERS_MASK)))
1276:.\Generated_Source\PSoC5/CapSense_CSD_CSHL.c **** 
1277:.\Generated_Source\PSoC5/CapSense_CSD_CSHL.c ****                             if ( (0u != (posFiltersMask & CapSense_CSD_MEDIAN_FILTER)) || 
1278:.\Generated_Source\PSoC5/CapSense_CSD_CSHL.c ****                                  (0u != (posFiltersMask & CapSense_CSD_AVERAGING_FILTER)) )
1279:.\Generated_Source\PSoC5/CapSense_CSD_CSHL.c ****                             {
1280:.\Generated_Source\PSoC5/CapSense_CSD_CSHL.c ****                                 CapSense_CSD_posFiltersData[posIndex + 1u] = (uint8) position;
1281:.\Generated_Source\PSoC5/CapSense_CSD_CSHL.c ****                             }
1282:.\Generated_Source\PSoC5/CapSense_CSD_CSHL.c ****                         #endif /* ((0u != (CapSense_CSD_MEDIAN_FILTER & \
1283:.\Generated_Source\PSoC5/CapSense_CSD_CSHL.c ****                                *           CapSense_CSD_LINEAR_SLIDERS_POS_FILTERS_MASK)) || \
1284:.\Generated_Source\PSoC5/CapSense_CSD_CSHL.c ****                                *   (0u != (CapSense_CSD_AVERAGING_FILTER & \
1285:.\Generated_Source\PSoC5/CapSense_CSD_CSHL.c ****                                *           CapSense_CSD_LINEAR_SLIDERS_POS_FILTERS_MASK)))
1286:.\Generated_Source\PSoC5/CapSense_CSD_CSHL.c ****                                */
1287:.\Generated_Source\PSoC5/CapSense_CSD_CSHL.c ****                         
1288:.\Generated_Source\PSoC5/CapSense_CSD_CSHL.c ****                         CapSense_CSD_posFiltersData[firstTimeIndex] = 1u;
1289:.\Generated_Source\PSoC5/CapSense_CSD_CSHL.c ****                     }
1290:.\Generated_Source\PSoC5/CapSense_CSD_CSHL.c ****                     else
1291:.\Generated_Source\PSoC5/CapSense_CSD_CSHL.c ****                     {
1292:.\Generated_Source\PSoC5/CapSense_CSD_CSHL.c ****                         /* Do filtering */
1293:.\Generated_Source\PSoC5/CapSense_CSD_CSHL.c ****                         #if (0u != (CapSense_CSD_MEDIAN_FILTER & CapSense_CSD_LINEAR_SLIDERS_POS_FI
1294:.\Generated_Source\PSoC5/CapSense_CSD_CSHL.c ****                             if (0u != (posFiltersMask & CapSense_CSD_MEDIAN_FILTER))
1295:.\Generated_Source\PSoC5/CapSense_CSD_CSHL.c ****                             {
1296:.\Generated_Source\PSoC5/CapSense_CSD_CSHL.c ****                                 tempPos = (uint8) position;
1297:.\Generated_Source\PSoC5/CapSense_CSD_CSHL.c ****                                 position = CapSense_CSD_MedianFilter(position,
1298:.\Generated_Source\PSoC5/CapSense_CSD_CSHL.c ****                                                                 (uint16)CapSense_CSD_posFiltersData
1299:.\Generated_Source\PSoC5/CapSense_CSD_CSHL.c ****                                                                 (uint16)CapSense_CSD_posFiltersData
1300:.\Generated_Source\PSoC5/CapSense_CSD_CSHL.c ****                                 CapSense_CSD_posFiltersData[posIndex + 1u] =
1301:.\Generated_Source\PSoC5/CapSense_CSD_CSHL.c ****                                                                              CapSense_CSD_posFilter
1302:.\Generated_Source\PSoC5/CapSense_CSD_CSHL.c ****                                 CapSense_CSD_posFiltersData[posIndex] = tempPos;
1303:.\Generated_Source\PSoC5/CapSense_CSD_CSHL.c ****                             }
1304:.\Generated_Source\PSoC5/CapSense_CSD_CSHL.c ****                         #endif /*(0u != (CapSense_CSD_MEDIAN_FILTER &
1305:.\Generated_Source\PSoC5/CapSense_CSD_CSHL.c ****                                *         CapSense_CSD_LINEAR_SLIDERS_POS_FILTERS_MASK))
1306:.\Generated_Source\PSoC5/CapSense_CSD_CSHL.c ****                                */
1307:.\Generated_Source\PSoC5/CapSense_CSD_CSHL.c **** 
1308:.\Generated_Source\PSoC5/CapSense_CSD_CSHL.c ****                         #if(0u!=(CapSense_CSD_AVERAGING_FILTER & CapSense_CSD_LINEAR_SLIDERS_POS_FI
1309:.\Generated_Source\PSoC5/CapSense_CSD_CSHL.c ****                             if (0u != (posFiltersMask & CapSense_CSD_AVERAGING_FILTER)) 
1310:.\Generated_Source\PSoC5/CapSense_CSD_CSHL.c ****                             {
1311:.\Generated_Source\PSoC5/CapSense_CSD_CSHL.c ****                                 tempPos = (uint8) position;
1312:.\Generated_Source\PSoC5/CapSense_CSD_CSHL.c ****                                 position = CapSense_CSD_AveragingFilter(position,
1313:.\Generated_Source\PSoC5/CapSense_CSD_CSHL.c ****                                                                 (uint16)CapSense_CSD_posFiltersData
1314:.\Generated_Source\PSoC5/CapSense_CSD_CSHL.c ****                                                                 (uint16)CapSense_CSD_posFiltersData
1315:.\Generated_Source\PSoC5/CapSense_CSD_CSHL.c ****                                 CapSense_CSD_posFiltersData[posIndex+1u]=CapSense_CSD_posFiltersDat
1316:.\Generated_Source\PSoC5/CapSense_CSD_CSHL.c ****                                 CapSense_CSD_posFiltersData[posIndex] = tempPos;
1317:.\Generated_Source\PSoC5/CapSense_CSD_CSHL.c ****                             }
1318:.\Generated_Source\PSoC5/CapSense_CSD_CSHL.c ****                         #endif /* (0u != (CapSense_CSD_AVERAGING_FILTER & \
1319:.\Generated_Source\PSoC5/CapSense_CSD_CSHL.c ****                                *           CapSense_CSD_LINEAR_SLIDERS_POS_FILTERS_MASK))
1320:.\Generated_Source\PSoC5/CapSense_CSD_CSHL.c ****                                */
ARM GAS  C:\Users\LUKASC~1\AppData\Local\Temp\ccKrJm2d.s 			page 38


1321:.\Generated_Source\PSoC5/CapSense_CSD_CSHL.c **** 
1322:.\Generated_Source\PSoC5/CapSense_CSD_CSHL.c ****                         #if (0u != (CapSense_CSD_IIR2_FILTER & CapSense_CSD_LINEAR_SLIDERS_POS_FILT
1323:.\Generated_Source\PSoC5/CapSense_CSD_CSHL.c ****                             if (0u != (posFiltersMask & CapSense_CSD_IIR2_FILTER)) 
1324:.\Generated_Source\PSoC5/CapSense_CSD_CSHL.c ****                             {
1325:.\Generated_Source\PSoC5/CapSense_CSD_CSHL.c ****                                 position = CapSense_CSD_IIR2Filter(position,
1326:.\Generated_Source\PSoC5/CapSense_CSD_CSHL.c ****                                                                     (uint16)CapSense_CSD_posFilters
1327:.\Generated_Source\PSoC5/CapSense_CSD_CSHL.c ****                                 CapSense_CSD_posFiltersData[posIndex] = (uint8) position;
1328:.\Generated_Source\PSoC5/CapSense_CSD_CSHL.c ****                             }
1329:.\Generated_Source\PSoC5/CapSense_CSD_CSHL.c ****                         #endif /* (0u != (CapSense_CSD_IIR2_FILTER & \
1330:.\Generated_Source\PSoC5/CapSense_CSD_CSHL.c ****                                *          CapSense_CSD_LINEAR_SLIDERS_POS_FILTERS_MASK))
1331:.\Generated_Source\PSoC5/CapSense_CSD_CSHL.c ****                                */
1332:.\Generated_Source\PSoC5/CapSense_CSD_CSHL.c **** 
1333:.\Generated_Source\PSoC5/CapSense_CSD_CSHL.c ****                         #if (0u != (CapSense_CSD_IIR4_FILTER & CapSense_CSD_LINEAR_SLIDERS_POS_FILT
1334:.\Generated_Source\PSoC5/CapSense_CSD_CSHL.c ****                             if (0u != (posFiltersMask & CapSense_CSD_IIR4_FILTER))
1335:.\Generated_Source\PSoC5/CapSense_CSD_CSHL.c ****                             {
1336:.\Generated_Source\PSoC5/CapSense_CSD_CSHL.c ****                                 position = CapSense_CSD_IIR4Filter(position,
1337:.\Generated_Source\PSoC5/CapSense_CSD_CSHL.c ****                                                                     (uint16)CapSense_CSD_posFilters
1338:.\Generated_Source\PSoC5/CapSense_CSD_CSHL.c ****                                 CapSense_CSD_posFiltersData[posIndex] = (uint8) position;
1339:.\Generated_Source\PSoC5/CapSense_CSD_CSHL.c ****                             }                                
1340:.\Generated_Source\PSoC5/CapSense_CSD_CSHL.c ****                         #endif /* (0u != (CapSense_CSD_IIR4_FILTER & \
1341:.\Generated_Source\PSoC5/CapSense_CSD_CSHL.c ****                                *          CapSense_CSD_LINEAR_SLIDERS_POS_FILTERS_MASK))
1342:.\Generated_Source\PSoC5/CapSense_CSD_CSHL.c ****                                */
1343:.\Generated_Source\PSoC5/CapSense_CSD_CSHL.c **** 
1344:.\Generated_Source\PSoC5/CapSense_CSD_CSHL.c ****                         #if (0u != (CapSense_CSD_JITTER_FILTER & CapSense_CSD_LINEAR_SLIDERS_POS_FI
1345:.\Generated_Source\PSoC5/CapSense_CSD_CSHL.c ****                             if (0u != (posFiltersMask & CapSense_CSD_JITTER_FILTER))
1346:.\Generated_Source\PSoC5/CapSense_CSD_CSHL.c ****                             {
1347:.\Generated_Source\PSoC5/CapSense_CSD_CSHL.c ****                                 position = CapSense_CSD_JitterFilter(position,
1348:.\Generated_Source\PSoC5/CapSense_CSD_CSHL.c ****                                                                     (uint16)CapSense_CSD_posFilters
1349:.\Generated_Source\PSoC5/CapSense_CSD_CSHL.c ****                                 CapSense_CSD_posFiltersData[posIndex] = (uint8) position;
1350:.\Generated_Source\PSoC5/CapSense_CSD_CSHL.c ****                             }
1351:.\Generated_Source\PSoC5/CapSense_CSD_CSHL.c ****                         #endif /* (0u != (CapSense_CSD_JITTER_FILTER & \
1352:.\Generated_Source\PSoC5/CapSense_CSD_CSHL.c ****                                *           CapSense_CSD_LINEAR_SLIDERS_POS_FILTERS_MASK))
1353:.\Generated_Source\PSoC5/CapSense_CSD_CSHL.c ****                                */
1354:.\Generated_Source\PSoC5/CapSense_CSD_CSHL.c ****                     }
1355:.\Generated_Source\PSoC5/CapSense_CSD_CSHL.c ****                 }
1356:.\Generated_Source\PSoC5/CapSense_CSD_CSHL.c ****             #endif /* (0u != CapSense_CSD_LINEAR_SLIDERS_POS_FILTERS_MASK) */
1357:.\Generated_Source\PSoC5/CapSense_CSD_CSHL.c **** 
1358:.\Generated_Source\PSoC5/CapSense_CSD_CSHL.c ****         }
1359:.\Generated_Source\PSoC5/CapSense_CSD_CSHL.c ****         else
1360:.\Generated_Source\PSoC5/CapSense_CSD_CSHL.c ****         {
1361:.\Generated_Source\PSoC5/CapSense_CSD_CSHL.c ****             /* The maximum wasn't found */
1362:.\Generated_Source\PSoC5/CapSense_CSD_CSHL.c ****             position = 0xFFFFu;
1363:.\Generated_Source\PSoC5/CapSense_CSD_CSHL.c **** 
1364:.\Generated_Source\PSoC5/CapSense_CSD_CSHL.c ****             #if(0u != CapSense_CSD_LINEAR_SLIDERS_POS_FILTERS_MASK)
1365:.\Generated_Source\PSoC5/CapSense_CSD_CSHL.c ****                 /* Reset the filters */
1366:.\Generated_Source\PSoC5/CapSense_CSD_CSHL.c ****                 if(0u != (posFiltersMask & CapSense_CSD_ANY_POS_FILTER))
1367:.\Generated_Source\PSoC5/CapSense_CSD_CSHL.c ****                 {
1368:.\Generated_Source\PSoC5/CapSense_CSD_CSHL.c ****                     CapSense_CSD_posFiltersData[firstTimeIndex] = 0u;
1369:.\Generated_Source\PSoC5/CapSense_CSD_CSHL.c ****                 }
1370:.\Generated_Source\PSoC5/CapSense_CSD_CSHL.c ****             #endif /* (0u != CapSense_CSD_LINEAR_SLIDERS_POS_FILTERS_MASK) */
1371:.\Generated_Source\PSoC5/CapSense_CSD_CSHL.c ****         }
1372:.\Generated_Source\PSoC5/CapSense_CSD_CSHL.c **** 
1373:.\Generated_Source\PSoC5/CapSense_CSD_CSHL.c ****         
1374:.\Generated_Source\PSoC5/CapSense_CSD_CSHL.c ****         return (position);
1375:.\Generated_Source\PSoC5/CapSense_CSD_CSHL.c ****     }
1376:.\Generated_Source\PSoC5/CapSense_CSD_CSHL.c **** #endif /* (CapSense_CSD_TOTAL_LINEAR_SLIDERS_COUNT > 0u) */
1377:.\Generated_Source\PSoC5/CapSense_CSD_CSHL.c **** 
ARM GAS  C:\Users\LUKASC~1\AppData\Local\Temp\ccKrJm2d.s 			page 39


1378:.\Generated_Source\PSoC5/CapSense_CSD_CSHL.c **** 
1379:.\Generated_Source\PSoC5/CapSense_CSD_CSHL.c **** #if(CapSense_CSD_TOTAL_RADIAL_SLIDERS_COUNT > 0u)
1380:.\Generated_Source\PSoC5/CapSense_CSD_CSHL.c ****     /*******************************************************************************
1381:.\Generated_Source\PSoC5/CapSense_CSD_CSHL.c ****     * Function Name: CapSense_CSD_GetRadialCentroidPos
1382:.\Generated_Source\PSoC5/CapSense_CSD_CSHL.c ****     ********************************************************************************
1383:.\Generated_Source\PSoC5/CapSense_CSD_CSHL.c ****     *
1384:.\Generated_Source\PSoC5/CapSense_CSD_CSHL.c ****     * Summary:
1385:.\Generated_Source\PSoC5/CapSense_CSD_CSHL.c ****     *  Checks the CapSense_CSD_Signal[ ] array for a centroid within
1386:.\Generated_Source\PSoC5/CapSense_CSD_CSHL.c ****     *  slider specified range. The centroid position is calculated to the resolution
1387:.\Generated_Source\PSoC5/CapSense_CSD_CSHL.c ****     *  specified in the CapSense customizer. The position filters are applied to the
1388:.\Generated_Source\PSoC5/CapSense_CSD_CSHL.c ****     *  result if enabled.
1389:.\Generated_Source\PSoC5/CapSense_CSD_CSHL.c ****     *
1390:.\Generated_Source\PSoC5/CapSense_CSD_CSHL.c ****     * Parameters:
1391:.\Generated_Source\PSoC5/CapSense_CSD_CSHL.c ****     *  widget:  Widget number.
1392:.\Generated_Source\PSoC5/CapSense_CSD_CSHL.c ****     *  For every radial slider widget there are defines in this format:
1393:.\Generated_Source\PSoC5/CapSense_CSD_CSHL.c ****     *  #define CapSense_CSD_RS_"widget_name"            5
1394:.\Generated_Source\PSoC5/CapSense_CSD_CSHL.c ****     * 
1395:.\Generated_Source\PSoC5/CapSense_CSD_CSHL.c ****     * Return:
1396:.\Generated_Source\PSoC5/CapSense_CSD_CSHL.c ****     *  Returns position value of the radial slider.
1397:.\Generated_Source\PSoC5/CapSense_CSD_CSHL.c ****     *
1398:.\Generated_Source\PSoC5/CapSense_CSD_CSHL.c ****     * Side Effects:
1399:.\Generated_Source\PSoC5/CapSense_CSD_CSHL.c ****     *  If any sensor within the slider widget is active, the function returns values
1400:.\Generated_Source\PSoC5/CapSense_CSD_CSHL.c ****     *  from zero to the API resolution value set in the CapSense customizer. If no
1401:.\Generated_Source\PSoC5/CapSense_CSD_CSHL.c ****     *  sensors are active, the function returns 0xFFFF.
1402:.\Generated_Source\PSoC5/CapSense_CSD_CSHL.c ****     *  There are no checks of widget type argument provided to this function.
1403:.\Generated_Source\PSoC5/CapSense_CSD_CSHL.c ****     *  The unproper widget type provided will cause unexpected position calculations.
1404:.\Generated_Source\PSoC5/CapSense_CSD_CSHL.c ****     *
1405:.\Generated_Source\PSoC5/CapSense_CSD_CSHL.c ****     * Note:
1406:.\Generated_Source\PSoC5/CapSense_CSD_CSHL.c ****     *  If noise counts on the slider segments are greater than the noise
1407:.\Generated_Source\PSoC5/CapSense_CSD_CSHL.c ****     *  threshold, this subroutine may generate a false centroid result. The noise
1408:.\Generated_Source\PSoC5/CapSense_CSD_CSHL.c ****     *  threshold should be set carefully (high enough above the noise level) so 
1409:.\Generated_Source\PSoC5/CapSense_CSD_CSHL.c ****     *  that noise will not generate a false centroid.
1410:.\Generated_Source\PSoC5/CapSense_CSD_CSHL.c ****     *
1411:.\Generated_Source\PSoC5/CapSense_CSD_CSHL.c ****     *
1412:.\Generated_Source\PSoC5/CapSense_CSD_CSHL.c ****     * Reentrant:
1413:.\Generated_Source\PSoC5/CapSense_CSD_CSHL.c ****     *  No.
1414:.\Generated_Source\PSoC5/CapSense_CSD_CSHL.c ****     *
1415:.\Generated_Source\PSoC5/CapSense_CSD_CSHL.c ****     *******************************************************************************/
1416:.\Generated_Source\PSoC5/CapSense_CSD_CSHL.c ****      uint16 CapSense_CSD_GetRadialCentroidPos(uint8 widget)
1417:.\Generated_Source\PSoC5/CapSense_CSD_CSHL.c **** 	                                       
1418:.\Generated_Source\PSoC5/CapSense_CSD_CSHL.c ****     {
1419:.\Generated_Source\PSoC5/CapSense_CSD_CSHL.c ****         #if (0u != CapSense_CSD_RADIAL_SLIDERS_POS_FILTERS_MASK)
1420:.\Generated_Source\PSoC5/CapSense_CSD_CSHL.c ****             uint8 posIndex;
1421:.\Generated_Source\PSoC5/CapSense_CSD_CSHL.c ****             uint8 firstTimeIndex = CapSense_CSD_posFiltersData[widget];
1422:.\Generated_Source\PSoC5/CapSense_CSD_CSHL.c ****             uint8 posFiltersMask = CapSense_CSD_posFiltersMask[widget]; 
1423:.\Generated_Source\PSoC5/CapSense_CSD_CSHL.c ****         #endif /* (0u != CapSense_CSD_RADIAL_SLIDERS_POS_FILTERS_MASK) */
1424:.\Generated_Source\PSoC5/CapSense_CSD_CSHL.c **** 
1425:.\Generated_Source\PSoC5/CapSense_CSD_CSHL.c ****         #if ((0u != (CapSense_CSD_MEDIAN_FILTER & CapSense_CSD_RADIAL_SLIDERS_POS_FILTERS_MASK)) ||
1426:.\Generated_Source\PSoC5/CapSense_CSD_CSHL.c ****              (0u != (CapSense_CSD_AVERAGING_FILTER & CapSense_CSD_RADIAL_SLIDERS_POS_FILTERS_MASK))
1427:.\Generated_Source\PSoC5/CapSense_CSD_CSHL.c ****             uint8 tempPos;
1428:.\Generated_Source\PSoC5/CapSense_CSD_CSHL.c ****         #endif /* ((0u != (CapSense_CSD_MEDIAN_FILTER & CapSense_CSD_RADIAL_SLIDERS_POS_FILTERS_MAS
1429:.\Generated_Source\PSoC5/CapSense_CSD_CSHL.c ****                *   (0u != (CapSense_CSD_AVERAGING_FILTER & CapSense_CSD_RADIAL_SLIDERS_POS_FILTERS_
1430:.\Generated_Source\PSoC5/CapSense_CSD_CSHL.c ****                */
1431:.\Generated_Source\PSoC5/CapSense_CSD_CSHL.c **** 
1432:.\Generated_Source\PSoC5/CapSense_CSD_CSHL.c ****         uint8 maximum;
1433:.\Generated_Source\PSoC5/CapSense_CSD_CSHL.c ****         uint16 position;
1434:.\Generated_Source\PSoC5/CapSense_CSD_CSHL.c ****         uint8 offset = CapSense_CSD_rawDataIndex[widget];
ARM GAS  C:\Users\LUKASC~1\AppData\Local\Temp\ccKrJm2d.s 			page 40


1435:.\Generated_Source\PSoC5/CapSense_CSD_CSHL.c ****         uint8 count = CapSense_CSD_numberOfSensors[widget];
1436:.\Generated_Source\PSoC5/CapSense_CSD_CSHL.c ****         
1437:.\Generated_Source\PSoC5/CapSense_CSD_CSHL.c ****         /* Find Maximum within centroid */        
1438:.\Generated_Source\PSoC5/CapSense_CSD_CSHL.c ****         #if (CapSense_CSD_IS_DIPLEX_SLIDER)
1439:.\Generated_Source\PSoC5/CapSense_CSD_CSHL.c ****             maximum = CapSense_CSD_FindMaximum(offset, count, CapSense_CSD_fingerThreshold[widget],
1440:.\Generated_Source\PSoC5/CapSense_CSD_CSHL.c ****         #else
1441:.\Generated_Source\PSoC5/CapSense_CSD_CSHL.c ****             maximum = CapSense_CSD_FindMaximum(offset, count, CapSense_CSD_fingerThreshold[widget])
1442:.\Generated_Source\PSoC5/CapSense_CSD_CSHL.c ****         #endif /* (CapSense_CSD_IS_DIPLEX_SLIDER) */
1443:.\Generated_Source\PSoC5/CapSense_CSD_CSHL.c ****         
1444:.\Generated_Source\PSoC5/CapSense_CSD_CSHL.c ****         if (maximum != 0xFFu)
1445:.\Generated_Source\PSoC5/CapSense_CSD_CSHL.c ****         {
1446:.\Generated_Source\PSoC5/CapSense_CSD_CSHL.c ****             /* Calculate centroid */
1447:.\Generated_Source\PSoC5/CapSense_CSD_CSHL.c ****             position = (uint16) CapSense_CSD_CalcCentroid(maximum, 
1448:.\Generated_Source\PSoC5/CapSense_CSD_CSHL.c ****                          offset, count, CapSense_CSD_centroidMult[widget], CapSense_CSD_noiseThresh
1449:.\Generated_Source\PSoC5/CapSense_CSD_CSHL.c **** 
1450:.\Generated_Source\PSoC5/CapSense_CSD_CSHL.c ****             #if (0u != CapSense_CSD_RADIAL_SLIDERS_POS_FILTERS_MASK)
1451:.\Generated_Source\PSoC5/CapSense_CSD_CSHL.c ****                 /* Check if this Radial slider has enabled filters */
1452:.\Generated_Source\PSoC5/CapSense_CSD_CSHL.c ****                 if (0u != (posFiltersMask & CapSense_CSD_ANY_POS_FILTER))
1453:.\Generated_Source\PSoC5/CapSense_CSD_CSHL.c ****                 {
1454:.\Generated_Source\PSoC5/CapSense_CSD_CSHL.c ****                     /* Caluclate position to store filters data */
1455:.\Generated_Source\PSoC5/CapSense_CSD_CSHL.c ****                     posIndex  = firstTimeIndex + 1u;
1456:.\Generated_Source\PSoC5/CapSense_CSD_CSHL.c ****                     
1457:.\Generated_Source\PSoC5/CapSense_CSD_CSHL.c ****                     if (0u == CapSense_CSD_posFiltersData[firstTimeIndex])
1458:.\Generated_Source\PSoC5/CapSense_CSD_CSHL.c ****                     {
1459:.\Generated_Source\PSoC5/CapSense_CSD_CSHL.c ****                         /* Init filters */
1460:.\Generated_Source\PSoC5/CapSense_CSD_CSHL.c ****                         CapSense_CSD_posFiltersData[posIndex] = (uint8) position;
1461:.\Generated_Source\PSoC5/CapSense_CSD_CSHL.c ****                         #if ((0u != (CapSense_CSD_MEDIAN_FILTER & \
1462:.\Generated_Source\PSoC5/CapSense_CSD_CSHL.c ****                                      CapSense_CSD_RADIAL_SLIDERS_POS_FILTERS_MASK)) || \
1463:.\Generated_Source\PSoC5/CapSense_CSD_CSHL.c ****                              (0u != (CapSense_CSD_AVERAGING_FILTER & \
1464:.\Generated_Source\PSoC5/CapSense_CSD_CSHL.c ****                                      CapSense_CSD_RADIAL_SLIDERS_POS_FILTERS_MASK)))
1465:.\Generated_Source\PSoC5/CapSense_CSD_CSHL.c **** 
1466:.\Generated_Source\PSoC5/CapSense_CSD_CSHL.c ****                             if ( (0u != (posFiltersMask & CapSense_CSD_MEDIAN_FILTER))  || 
1467:.\Generated_Source\PSoC5/CapSense_CSD_CSHL.c ****                                  (0u != (posFiltersMask & CapSense_CSD_AVERAGING_FILTER)) )
1468:.\Generated_Source\PSoC5/CapSense_CSD_CSHL.c ****                             {
1469:.\Generated_Source\PSoC5/CapSense_CSD_CSHL.c ****                                 CapSense_CSD_posFiltersData[posIndex + 1u] = (uint8) position;
1470:.\Generated_Source\PSoC5/CapSense_CSD_CSHL.c ****                             }
1471:.\Generated_Source\PSoC5/CapSense_CSD_CSHL.c ****                         #endif /* ((0u != (CapSense_CSD_MEDIAN_FILTER & \
1472:.\Generated_Source\PSoC5/CapSense_CSD_CSHL.c ****                                *           CapSense_CSD_RADIAL_SLIDERS_POS_FILTERS_MASK)) || \
1473:.\Generated_Source\PSoC5/CapSense_CSD_CSHL.c ****                                *   (0u != (CapSense_CSD_AVERAGING_FILTER & \
1474:.\Generated_Source\PSoC5/CapSense_CSD_CSHL.c ****                                *           CapSense_CSD_RADIAL_SLIDERS_POS_FILTERS_MASK)))
1475:.\Generated_Source\PSoC5/CapSense_CSD_CSHL.c ****                                */
1476:.\Generated_Source\PSoC5/CapSense_CSD_CSHL.c ****                         
1477:.\Generated_Source\PSoC5/CapSense_CSD_CSHL.c ****                         CapSense_CSD_posFiltersData[firstTimeIndex] = 1u;
1478:.\Generated_Source\PSoC5/CapSense_CSD_CSHL.c ****                     }
1479:.\Generated_Source\PSoC5/CapSense_CSD_CSHL.c ****                     else
1480:.\Generated_Source\PSoC5/CapSense_CSD_CSHL.c ****                     {
1481:.\Generated_Source\PSoC5/CapSense_CSD_CSHL.c ****                         /* Do filtering */
1482:.\Generated_Source\PSoC5/CapSense_CSD_CSHL.c ****                         #if (0u != (CapSense_CSD_MEDIAN_FILTER & CapSense_CSD_RADIAL_SLIDERS_POS_FI
1483:.\Generated_Source\PSoC5/CapSense_CSD_CSHL.c ****                             if (0u != (posFiltersMask & CapSense_CSD_MEDIAN_FILTER))
1484:.\Generated_Source\PSoC5/CapSense_CSD_CSHL.c ****                             {
1485:.\Generated_Source\PSoC5/CapSense_CSD_CSHL.c ****                                 tempPos = (uint8) position;
1486:.\Generated_Source\PSoC5/CapSense_CSD_CSHL.c ****                                 position = CapSense_CSD_MedianFilter(position,
1487:.\Generated_Source\PSoC5/CapSense_CSD_CSHL.c ****                                                                         CapSense_CSD_posFiltersData
1488:.\Generated_Source\PSoC5/CapSense_CSD_CSHL.c ****                                                                         CapSense_CSD_posFiltersData
1489:.\Generated_Source\PSoC5/CapSense_CSD_CSHL.c ****                                 CapSense_CSD_posFiltersData[posIndex + 1u] = 
1490:.\Generated_Source\PSoC5/CapSense_CSD_CSHL.c ****                                                                               CapSense_CSD_posFilte
1491:.\Generated_Source\PSoC5/CapSense_CSD_CSHL.c ****                                 CapSense_CSD_posFiltersData[posIndex] = tempPos;
ARM GAS  C:\Users\LUKASC~1\AppData\Local\Temp\ccKrJm2d.s 			page 41


1492:.\Generated_Source\PSoC5/CapSense_CSD_CSHL.c ****                             }
1493:.\Generated_Source\PSoC5/CapSense_CSD_CSHL.c ****                         #endif /* (0u != (CapSense_CSD_MEDIAN_FILTER & 
1494:.\Generated_Source\PSoC5/CapSense_CSD_CSHL.c ****                                *          CapSense_CSD_RADIAL_SLIDERS_POS_FILTERS_MASK))
1495:.\Generated_Source\PSoC5/CapSense_CSD_CSHL.c ****                                */
1496:.\Generated_Source\PSoC5/CapSense_CSD_CSHL.c **** 
1497:.\Generated_Source\PSoC5/CapSense_CSD_CSHL.c ****                         #if (0u != (CapSense_CSD_AVERAGING_FILTER & \
1498:.\Generated_Source\PSoC5/CapSense_CSD_CSHL.c ****                                     CapSense_CSD_RADIAL_SLIDERS_POS_FILTERS_MASK))
1499:.\Generated_Source\PSoC5/CapSense_CSD_CSHL.c ****                             if (0u != (posFiltersMask & CapSense_CSD_AVERAGING_FILTER))
1500:.\Generated_Source\PSoC5/CapSense_CSD_CSHL.c ****                             {
1501:.\Generated_Source\PSoC5/CapSense_CSD_CSHL.c ****                                 tempPos = (uint8) position;
1502:.\Generated_Source\PSoC5/CapSense_CSD_CSHL.c ****                                 position = CapSense_CSD_AveragingFilter(position, 
1503:.\Generated_Source\PSoC5/CapSense_CSD_CSHL.c ****                                                                        CapSense_CSD_posFiltersData[
1504:.\Generated_Source\PSoC5/CapSense_CSD_CSHL.c ****                                                                        CapSense_CSD_posFiltersData[
1505:.\Generated_Source\PSoC5/CapSense_CSD_CSHL.c ****                                 CapSense_CSD_posFiltersData[posIndex+1u]= CapSense_CSD_posFiltersDa
1506:.\Generated_Source\PSoC5/CapSense_CSD_CSHL.c ****                                 CapSense_CSD_posFiltersData[posIndex] = tempPos;
1507:.\Generated_Source\PSoC5/CapSense_CSD_CSHL.c ****                             }
1508:.\Generated_Source\PSoC5/CapSense_CSD_CSHL.c ****                         #endif /* (0u != (CapSense_CSD_AVERAGING_FILTER & \
1509:.\Generated_Source\PSoC5/CapSense_CSD_CSHL.c ****                                *          CapSense_CSD_RADIAL_SLIDERS_POS_FILTERS_MASK))
1510:.\Generated_Source\PSoC5/CapSense_CSD_CSHL.c ****                                */
1511:.\Generated_Source\PSoC5/CapSense_CSD_CSHL.c **** 
1512:.\Generated_Source\PSoC5/CapSense_CSD_CSHL.c ****                         #if (0u != (CapSense_CSD_IIR2_FILTER & CapSense_CSD_RADIAL_SLIDERS_POS_FILT
1513:.\Generated_Source\PSoC5/CapSense_CSD_CSHL.c ****                             if (0u != (posFiltersMask & CapSense_CSD_IIR2_FILTER))
1514:.\Generated_Source\PSoC5/CapSense_CSD_CSHL.c ****                             {
1515:.\Generated_Source\PSoC5/CapSense_CSD_CSHL.c ****                                 position = CapSense_CSD_IIR2Filter(position,
1516:.\Generated_Source\PSoC5/CapSense_CSD_CSHL.c ****                                                                     (uint16)CapSense_CSD_posFilters
1517:.\Generated_Source\PSoC5/CapSense_CSD_CSHL.c ****                                 CapSense_CSD_posFiltersData[posIndex] = (uint8) position;
1518:.\Generated_Source\PSoC5/CapSense_CSD_CSHL.c ****                             }
1519:.\Generated_Source\PSoC5/CapSense_CSD_CSHL.c ****                         #endif /* (0u != (CapSense_CSD_IIR2_FILTER & 
1520:.\Generated_Source\PSoC5/CapSense_CSD_CSHL.c ****                                *          CapSense_CSD_RADIAL_SLIDERS_POS_FILTERS_MASK))
1521:.\Generated_Source\PSoC5/CapSense_CSD_CSHL.c ****                                */
1522:.\Generated_Source\PSoC5/CapSense_CSD_CSHL.c **** 
1523:.\Generated_Source\PSoC5/CapSense_CSD_CSHL.c ****                         #if (0u != (CapSense_CSD_IIR4_FILTER & CapSense_CSD_RADIAL_SLIDERS_POS_FILT
1524:.\Generated_Source\PSoC5/CapSense_CSD_CSHL.c ****                             if (0u != (posFiltersMask & CapSense_CSD_IIR4_FILTER))
1525:.\Generated_Source\PSoC5/CapSense_CSD_CSHL.c ****                             {
1526:.\Generated_Source\PSoC5/CapSense_CSD_CSHL.c ****                                 position = CapSense_CSD_IIR4Filter(position,
1527:.\Generated_Source\PSoC5/CapSense_CSD_CSHL.c ****                                                                     (uint16)CapSense_CSD_posFilters
1528:.\Generated_Source\PSoC5/CapSense_CSD_CSHL.c ****                                 CapSense_CSD_posFiltersData[posIndex] = (uint8) position;
1529:.\Generated_Source\PSoC5/CapSense_CSD_CSHL.c ****                             }
1530:.\Generated_Source\PSoC5/CapSense_CSD_CSHL.c ****                         #endif /* (0u != (CapSense_CSD_IIR4_FILTER & 
1531:.\Generated_Source\PSoC5/CapSense_CSD_CSHL.c ****                                *          CapSense_CSD_RADIAL_SLIDERS_POS_FILTERS_MASK))
1532:.\Generated_Source\PSoC5/CapSense_CSD_CSHL.c ****                                */
1533:.\Generated_Source\PSoC5/CapSense_CSD_CSHL.c **** 
1534:.\Generated_Source\PSoC5/CapSense_CSD_CSHL.c ****                         #if (0u != (CapSense_CSD_JITTER_FILTER & CapSense_CSD_RADIAL_SLIDERS_POS_FI
1535:.\Generated_Source\PSoC5/CapSense_CSD_CSHL.c ****                             if (0u != (posFiltersMask & CapSense_CSD_JITTER_FILTER))
1536:.\Generated_Source\PSoC5/CapSense_CSD_CSHL.c ****                             {
1537:.\Generated_Source\PSoC5/CapSense_CSD_CSHL.c ****                                 position = CapSense_CSD_JitterFilter(position, 
1538:.\Generated_Source\PSoC5/CapSense_CSD_CSHL.c ****                                                                          CapSense_CSD_posFiltersDat
1539:.\Generated_Source\PSoC5/CapSense_CSD_CSHL.c ****                                 CapSense_CSD_posFiltersData[posIndex] = (uint8) position;
1540:.\Generated_Source\PSoC5/CapSense_CSD_CSHL.c ****                             }
1541:.\Generated_Source\PSoC5/CapSense_CSD_CSHL.c ****                         #endif /* (0u != (CapSense_CSD_JITTER_FILTER &
1542:.\Generated_Source\PSoC5/CapSense_CSD_CSHL.c ****                                *           CapSense_CSD_RADIAL_SLIDERS_POS_FILTERS_MASK))
1543:.\Generated_Source\PSoC5/CapSense_CSD_CSHL.c ****                                */
1544:.\Generated_Source\PSoC5/CapSense_CSD_CSHL.c ****                     }
1545:.\Generated_Source\PSoC5/CapSense_CSD_CSHL.c ****                 }
1546:.\Generated_Source\PSoC5/CapSense_CSD_CSHL.c ****             #endif /* (0u != CapSense_CSD_RADIAL_SLIDERS_POS_FILTERS_MASK) */
1547:.\Generated_Source\PSoC5/CapSense_CSD_CSHL.c **** 
1548:.\Generated_Source\PSoC5/CapSense_CSD_CSHL.c ****         }
ARM GAS  C:\Users\LUKASC~1\AppData\Local\Temp\ccKrJm2d.s 			page 42


1549:.\Generated_Source\PSoC5/CapSense_CSD_CSHL.c ****         else
1550:.\Generated_Source\PSoC5/CapSense_CSD_CSHL.c ****         {
1551:.\Generated_Source\PSoC5/CapSense_CSD_CSHL.c ****             /* The maximum didn't find */
1552:.\Generated_Source\PSoC5/CapSense_CSD_CSHL.c ****             position = 0xFFFFu;
1553:.\Generated_Source\PSoC5/CapSense_CSD_CSHL.c **** 
1554:.\Generated_Source\PSoC5/CapSense_CSD_CSHL.c ****             #if (0u != CapSense_CSD_RADIAL_SLIDERS_POS_FILTERS_MASK)
1555:.\Generated_Source\PSoC5/CapSense_CSD_CSHL.c ****                 /* Reset the filters */
1556:.\Generated_Source\PSoC5/CapSense_CSD_CSHL.c ****                 if((posFiltersMask & CapSense_CSD_ANY_POS_FILTER) != 0u)
1557:.\Generated_Source\PSoC5/CapSense_CSD_CSHL.c ****                 {
1558:.\Generated_Source\PSoC5/CapSense_CSD_CSHL.c ****                     CapSense_CSD_posFiltersData[firstTimeIndex] = 0u;
1559:.\Generated_Source\PSoC5/CapSense_CSD_CSHL.c ****                 }
1560:.\Generated_Source\PSoC5/CapSense_CSD_CSHL.c ****             #endif /* (0u != CapSense_CSD_RADIAL_SLIDERS_POS_FILTERS_MASK) */
1561:.\Generated_Source\PSoC5/CapSense_CSD_CSHL.c ****         }
1562:.\Generated_Source\PSoC5/CapSense_CSD_CSHL.c ****         
1563:.\Generated_Source\PSoC5/CapSense_CSD_CSHL.c ****         return (position);
1564:.\Generated_Source\PSoC5/CapSense_CSD_CSHL.c ****     }
1565:.\Generated_Source\PSoC5/CapSense_CSD_CSHL.c **** #endif
1566:.\Generated_Source\PSoC5/CapSense_CSD_CSHL.c **** 
1567:.\Generated_Source\PSoC5/CapSense_CSD_CSHL.c **** 
1568:.\Generated_Source\PSoC5/CapSense_CSD_CSHL.c **** #if(CapSense_CSD_TOTAL_TOUCH_PADS_COUNT > 0u)
1569:.\Generated_Source\PSoC5/CapSense_CSD_CSHL.c ****     /*******************************************************************************
1570:.\Generated_Source\PSoC5/CapSense_CSD_CSHL.c ****     * Function Name: CapSense_CSD_GetTouchCentroidPos
1571:.\Generated_Source\PSoC5/CapSense_CSD_CSHL.c ****     ********************************************************************************
1572:.\Generated_Source\PSoC5/CapSense_CSD_CSHL.c ****     *
1573:.\Generated_Source\PSoC5/CapSense_CSD_CSHL.c ****     * Summary:
1574:.\Generated_Source\PSoC5/CapSense_CSD_CSHL.c ****     *  If a finger is present on touch pad, this function calculates the X and Y
1575:.\Generated_Source\PSoC5/CapSense_CSD_CSHL.c ****     *  position of the finger by calculating the centroids within touch pad specified
1576:.\Generated_Source\PSoC5/CapSense_CSD_CSHL.c ****     *  range. The X and Y positions are calculated to the API resolutions set in the
1577:.\Generated_Source\PSoC5/CapSense_CSD_CSHL.c ****     *  CapSense customizer. Returns a 1 if a finger is on the touchpad.
1578:.\Generated_Source\PSoC5/CapSense_CSD_CSHL.c ****     *  The position filter is applied to the result if enabled.
1579:.\Generated_Source\PSoC5/CapSense_CSD_CSHL.c ****     *  This function is available only if a touch pad is defined by the CapSense
1580:.\Generated_Source\PSoC5/CapSense_CSD_CSHL.c ****     *  customizer.
1581:.\Generated_Source\PSoC5/CapSense_CSD_CSHL.c ****     *
1582:.\Generated_Source\PSoC5/CapSense_CSD_CSHL.c ****     * Parameters:
1583:.\Generated_Source\PSoC5/CapSense_CSD_CSHL.c ****     *  widget:  Widget number. 
1584:.\Generated_Source\PSoC5/CapSense_CSD_CSHL.c ****     *  For every touchpad widget there are defines in this format:
1585:.\Generated_Source\PSoC5/CapSense_CSD_CSHL.c ****     *  #define CapSense_CSD_TP_"widget_name"            5
1586:.\Generated_Source\PSoC5/CapSense_CSD_CSHL.c ****     *
1587:.\Generated_Source\PSoC5/CapSense_CSD_CSHL.c ****     *  pos:     Pointer to the array of two uint16 elements, where result
1588:.\Generated_Source\PSoC5/CapSense_CSD_CSHL.c ****     *  result of calculation of X and Y position are stored.
1589:.\Generated_Source\PSoC5/CapSense_CSD_CSHL.c ****     *  pos[0u]  - position of X
1590:.\Generated_Source\PSoC5/CapSense_CSD_CSHL.c ****     *  pos[1u]  - position of Y
1591:.\Generated_Source\PSoC5/CapSense_CSD_CSHL.c ****     *
1592:.\Generated_Source\PSoC5/CapSense_CSD_CSHL.c ****     * Return:
1593:.\Generated_Source\PSoC5/CapSense_CSD_CSHL.c ****     *  Returns a 1 if a finger is on the touch pad, 0 - if not.
1594:.\Generated_Source\PSoC5/CapSense_CSD_CSHL.c ****     *
1595:.\Generated_Source\PSoC5/CapSense_CSD_CSHL.c ****     * Side Effects:
1596:.\Generated_Source\PSoC5/CapSense_CSD_CSHL.c ****     *   There are no checks of widget type argument provided to this function.
1597:.\Generated_Source\PSoC5/CapSense_CSD_CSHL.c ****     *   The unproper widget type provided will cause unexpected position
1598:.\Generated_Source\PSoC5/CapSense_CSD_CSHL.c ****     *   calculations.
1599:.\Generated_Source\PSoC5/CapSense_CSD_CSHL.c ****     *
1600:.\Generated_Source\PSoC5/CapSense_CSD_CSHL.c ****     * Reentrant:
1601:.\Generated_Source\PSoC5/CapSense_CSD_CSHL.c ****     *  No.
1602:.\Generated_Source\PSoC5/CapSense_CSD_CSHL.c ****     *
1603:.\Generated_Source\PSoC5/CapSense_CSD_CSHL.c ****     *******************************************************************************/
1604:.\Generated_Source\PSoC5/CapSense_CSD_CSHL.c ****     uint8 CapSense_CSD_GetTouchCentroidPos(uint8 widget, uint16* pos)
1605:.\Generated_Source\PSoC5/CapSense_CSD_CSHL.c **** 	                                    
ARM GAS  C:\Users\LUKASC~1\AppData\Local\Temp\ccKrJm2d.s 			page 43


1606:.\Generated_Source\PSoC5/CapSense_CSD_CSHL.c ****     {
1607:.\Generated_Source\PSoC5/CapSense_CSD_CSHL.c ****         #if (0u != CapSense_CSD_TOUCH_PADS_POS_FILTERS_MASK)
1608:.\Generated_Source\PSoC5/CapSense_CSD_CSHL.c ****             uint8 posXIndex;
1609:.\Generated_Source\PSoC5/CapSense_CSD_CSHL.c ****             uint8 posYIndex;
1610:.\Generated_Source\PSoC5/CapSense_CSD_CSHL.c ****             uint8 firstTimeIndex = CapSense_CSD_posFiltersData[widget];
1611:.\Generated_Source\PSoC5/CapSense_CSD_CSHL.c ****             uint8 posFiltersMask = CapSense_CSD_posFiltersMask[widget];
1612:.\Generated_Source\PSoC5/CapSense_CSD_CSHL.c ****         #endif /* (0u != CapSense_CSD_TOUCH_PADS_POS_FILTERS_MASK) */
1613:.\Generated_Source\PSoC5/CapSense_CSD_CSHL.c **** 
1614:.\Generated_Source\PSoC5/CapSense_CSD_CSHL.c ****         #if ((0u != (CapSense_CSD_MEDIAN_FILTER & CapSense_CSD_TOUCH_PADS_POS_FILTERS_MASK)) || \
1615:.\Generated_Source\PSoC5/CapSense_CSD_CSHL.c ****              (0u != (CapSense_CSD_AVERAGING_FILTER & CapSense_CSD_TOUCH_PADS_POS_FILTERS_MASK)))
1616:.\Generated_Source\PSoC5/CapSense_CSD_CSHL.c ****             uint16 tempPos;
1617:.\Generated_Source\PSoC5/CapSense_CSD_CSHL.c ****         #endif /* ((0u != (CapSense_CSD_MEDIAN_FILTER & CapSense_CSD_TOUCH_PADS_POS_FILTERS_MASK)) 
1618:.\Generated_Source\PSoC5/CapSense_CSD_CSHL.c ****                *   (0u != (CapSense_CSD_AVERAGING_FILTER & CapSense_CSD_TOUCH_PADS_POS_FILTERS_MASK
1619:.\Generated_Source\PSoC5/CapSense_CSD_CSHL.c ****                */
1620:.\Generated_Source\PSoC5/CapSense_CSD_CSHL.c **** 
1621:.\Generated_Source\PSoC5/CapSense_CSD_CSHL.c ****         uint8 maxX;
1622:.\Generated_Source\PSoC5/CapSense_CSD_CSHL.c ****         uint8 maxY;
1623:.\Generated_Source\PSoC5/CapSense_CSD_CSHL.c ****         uint8 posX;
1624:.\Generated_Source\PSoC5/CapSense_CSD_CSHL.c ****         uint8 posY;
1625:.\Generated_Source\PSoC5/CapSense_CSD_CSHL.c ****         uint8 touch = 0u;
1626:.\Generated_Source\PSoC5/CapSense_CSD_CSHL.c ****         uint8 offset = CapSense_CSD_rawDataIndex[widget];
1627:.\Generated_Source\PSoC5/CapSense_CSD_CSHL.c ****         uint8 count = CapSense_CSD_numberOfSensors[widget];
1628:.\Generated_Source\PSoC5/CapSense_CSD_CSHL.c ****         
1629:.\Generated_Source\PSoC5/CapSense_CSD_CSHL.c ****         /* Find Maximum within X centroid */
1630:.\Generated_Source\PSoC5/CapSense_CSD_CSHL.c ****         #if (CapSense_CSD_IS_DIPLEX_SLIDER)
1631:.\Generated_Source\PSoC5/CapSense_CSD_CSHL.c ****             maxX = CapSense_CSD_FindMaximum(offset, count, CapSense_CSD_fingerThreshold[widget], 0u
1632:.\Generated_Source\PSoC5/CapSense_CSD_CSHL.c ****         #else
1633:.\Generated_Source\PSoC5/CapSense_CSD_CSHL.c ****             maxX = CapSense_CSD_FindMaximum(offset, count, CapSense_CSD_fingerThreshold[widget]);
1634:.\Generated_Source\PSoC5/CapSense_CSD_CSHL.c ****         #endif /* (CapSense_CSD_IS_DIPLEX_SLIDER) */
1635:.\Generated_Source\PSoC5/CapSense_CSD_CSHL.c **** 
1636:.\Generated_Source\PSoC5/CapSense_CSD_CSHL.c ****         if (maxX != 0xFFu)
1637:.\Generated_Source\PSoC5/CapSense_CSD_CSHL.c ****         {
1638:.\Generated_Source\PSoC5/CapSense_CSD_CSHL.c ****             offset = CapSense_CSD_rawDataIndex[widget + 1u];
1639:.\Generated_Source\PSoC5/CapSense_CSD_CSHL.c ****             count = CapSense_CSD_numberOfSensors[widget + 1u];
1640:.\Generated_Source\PSoC5/CapSense_CSD_CSHL.c **** 
1641:.\Generated_Source\PSoC5/CapSense_CSD_CSHL.c ****             /* Find Maximum within Y centroid */
1642:.\Generated_Source\PSoC5/CapSense_CSD_CSHL.c ****             #if (CapSense_CSD_IS_DIPLEX_SLIDER)
1643:.\Generated_Source\PSoC5/CapSense_CSD_CSHL.c ****                 maxY = CapSense_CSD_FindMaximum(offset, count, CapSense_CSD_fingerThreshold[widget 
1644:.\Generated_Source\PSoC5/CapSense_CSD_CSHL.c ****             #else
1645:.\Generated_Source\PSoC5/CapSense_CSD_CSHL.c ****                 maxY = CapSense_CSD_FindMaximum(offset, count, CapSense_CSD_fingerThreshold[widget 
1646:.\Generated_Source\PSoC5/CapSense_CSD_CSHL.c ****             #endif /* (CapSense_CSD_IS_DIPLEX_SLIDER) */
1647:.\Generated_Source\PSoC5/CapSense_CSD_CSHL.c **** 
1648:.\Generated_Source\PSoC5/CapSense_CSD_CSHL.c ****             if (maxY != 0xFFu)
1649:.\Generated_Source\PSoC5/CapSense_CSD_CSHL.c ****             {
1650:.\Generated_Source\PSoC5/CapSense_CSD_CSHL.c ****                 /* X and Y maximums are found = true touch */
1651:.\Generated_Source\PSoC5/CapSense_CSD_CSHL.c ****                 touch = 1u;
1652:.\Generated_Source\PSoC5/CapSense_CSD_CSHL.c ****                 
1653:.\Generated_Source\PSoC5/CapSense_CSD_CSHL.c ****                 /* Calculate Y centroid */
1654:.\Generated_Source\PSoC5/CapSense_CSD_CSHL.c ****                 posY = CapSense_CSD_CalcCentroid(maxY, offset, count, 
1655:.\Generated_Source\PSoC5/CapSense_CSD_CSHL.c ****                             CapSense_CSD_centroidMult[widget + 1u], CapSense_CSD_noiseThreshold[wid
1656:.\Generated_Source\PSoC5/CapSense_CSD_CSHL.c ****                 
1657:.\Generated_Source\PSoC5/CapSense_CSD_CSHL.c ****                 /* Calculate X centroid */
1658:.\Generated_Source\PSoC5/CapSense_CSD_CSHL.c ****                 offset = CapSense_CSD_rawDataIndex[widget];
1659:.\Generated_Source\PSoC5/CapSense_CSD_CSHL.c ****                 count = CapSense_CSD_numberOfSensors[widget];
1660:.\Generated_Source\PSoC5/CapSense_CSD_CSHL.c ****                 
1661:.\Generated_Source\PSoC5/CapSense_CSD_CSHL.c ****                 posX = CapSense_CSD_CalcCentroid(maxX, offset, count, 
1662:.\Generated_Source\PSoC5/CapSense_CSD_CSHL.c ****                             CapSense_CSD_centroidMult[widget],CapSense_CSD_noiseThreshold[widget]);
ARM GAS  C:\Users\LUKASC~1\AppData\Local\Temp\ccKrJm2d.s 			page 44


1663:.\Generated_Source\PSoC5/CapSense_CSD_CSHL.c ****     
1664:.\Generated_Source\PSoC5/CapSense_CSD_CSHL.c ****                 #if (0u != CapSense_CSD_TOUCH_PADS_POS_FILTERS_MASK)
1665:.\Generated_Source\PSoC5/CapSense_CSD_CSHL.c ****                     /* Check if this TP has enabled filters */
1666:.\Generated_Source\PSoC5/CapSense_CSD_CSHL.c ****                     if (0u != (posFiltersMask & CapSense_CSD_ANY_POS_FILTER))
1667:.\Generated_Source\PSoC5/CapSense_CSD_CSHL.c ****                     {
1668:.\Generated_Source\PSoC5/CapSense_CSD_CSHL.c ****                         /* Caluclate position to store filters data */
1669:.\Generated_Source\PSoC5/CapSense_CSD_CSHL.c ****                         posXIndex  = firstTimeIndex + 1u;
1670:.\Generated_Source\PSoC5/CapSense_CSD_CSHL.c ****                         posYIndex  = CapSense_CSD_posFiltersData[widget + 1u];
1671:.\Generated_Source\PSoC5/CapSense_CSD_CSHL.c ****                         
1672:.\Generated_Source\PSoC5/CapSense_CSD_CSHL.c ****                         if (0u == CapSense_CSD_posFiltersData[firstTimeIndex])
1673:.\Generated_Source\PSoC5/CapSense_CSD_CSHL.c ****                         {
1674:.\Generated_Source\PSoC5/CapSense_CSD_CSHL.c ****                             /* Init filters */
1675:.\Generated_Source\PSoC5/CapSense_CSD_CSHL.c ****                             CapSense_CSD_posFiltersData[posXIndex] = posX;
1676:.\Generated_Source\PSoC5/CapSense_CSD_CSHL.c ****                             CapSense_CSD_posFiltersData[posYIndex] = posY;
1677:.\Generated_Source\PSoC5/CapSense_CSD_CSHL.c **** 
1678:.\Generated_Source\PSoC5/CapSense_CSD_CSHL.c ****                             #if((0u != (CapSense_CSD_MEDIAN_FILTER & \
1679:.\Generated_Source\PSoC5/CapSense_CSD_CSHL.c ****                                         CapSense_CSD_TOUCH_PADS_POS_FILTERS_MASK))|| \
1680:.\Generated_Source\PSoC5/CapSense_CSD_CSHL.c ****                                 (0u != (CapSense_CSD_AVERAGING_FILTER & \
1681:.\Generated_Source\PSoC5/CapSense_CSD_CSHL.c ****                                         CapSense_CSD_TOUCH_PADS_POS_FILTERS_MASK)))
1682:.\Generated_Source\PSoC5/CapSense_CSD_CSHL.c **** 
1683:.\Generated_Source\PSoC5/CapSense_CSD_CSHL.c ****                                 if ( (0u != (posFiltersMask & CapSense_CSD_MEDIAN_FILTER)) || 
1684:.\Generated_Source\PSoC5/CapSense_CSD_CSHL.c ****                                      (0u != (posFiltersMask & CapSense_CSD_AVERAGING_FILTER)) )
1685:.\Generated_Source\PSoC5/CapSense_CSD_CSHL.c ****                                 {
1686:.\Generated_Source\PSoC5/CapSense_CSD_CSHL.c ****                                     CapSense_CSD_posFiltersData[posXIndex + 1u] = posX;
1687:.\Generated_Source\PSoC5/CapSense_CSD_CSHL.c ****                                     CapSense_CSD_posFiltersData[posYIndex + 1u] = posY;
1688:.\Generated_Source\PSoC5/CapSense_CSD_CSHL.c ****                                 }
1689:.\Generated_Source\PSoC5/CapSense_CSD_CSHL.c ****                             #endif /* ((0u != (CapSense_CSD_MEDIAN_FILTER & \
1690:.\Generated_Source\PSoC5/CapSense_CSD_CSHL.c ****                                    *           CapSense_CSD_TOUCH_PADS_POS_FILTERS_MASK)) || \
1691:.\Generated_Source\PSoC5/CapSense_CSD_CSHL.c ****                                    *    (0u != (CapSense_CSD_AVERAGING_FILTER & \
1692:.\Generated_Source\PSoC5/CapSense_CSD_CSHL.c ****                                    *            CapSense_CSD_TOUCH_PADS_POS_FILTERS_MASK)))
1693:.\Generated_Source\PSoC5/CapSense_CSD_CSHL.c ****                                    */
1694:.\Generated_Source\PSoC5/CapSense_CSD_CSHL.c ****                             
1695:.\Generated_Source\PSoC5/CapSense_CSD_CSHL.c ****                             CapSense_CSD_posFiltersData[firstTimeIndex] = 1u;
1696:.\Generated_Source\PSoC5/CapSense_CSD_CSHL.c ****                         }
1697:.\Generated_Source\PSoC5/CapSense_CSD_CSHL.c ****                         else
1698:.\Generated_Source\PSoC5/CapSense_CSD_CSHL.c ****                         {
1699:.\Generated_Source\PSoC5/CapSense_CSD_CSHL.c ****                             /* Do filtering */
1700:.\Generated_Source\PSoC5/CapSense_CSD_CSHL.c ****                             #if (0u != (CapSense_CSD_MEDIAN_FILTER & CapSense_CSD_TOUCH_PADS_POS_FI
1701:.\Generated_Source\PSoC5/CapSense_CSD_CSHL.c ****                                 if (0u != (posFiltersMask & CapSense_CSD_MEDIAN_FILTER))
1702:.\Generated_Source\PSoC5/CapSense_CSD_CSHL.c ****                                 {
1703:.\Generated_Source\PSoC5/CapSense_CSD_CSHL.c ****                                     tempPos = posX;
1704:.\Generated_Source\PSoC5/CapSense_CSD_CSHL.c ****                                     posX = (uint8) CapSense_CSD_MedianFilter(posX,
1705:.\Generated_Source\PSoC5/CapSense_CSD_CSHL.c ****                                                                       CapSense_CSD_posFiltersData[p
1706:.\Generated_Source\PSoC5/CapSense_CSD_CSHL.c ****                                                                       CapSense_CSD_posFiltersData[p
1707:.\Generated_Source\PSoC5/CapSense_CSD_CSHL.c ****                                     CapSense_CSD_posFiltersData[posXIndex + 1u] = 
1708:.\Generated_Source\PSoC5/CapSense_CSD_CSHL.c ****                                                                              CapSense_CSD_posFilter
1709:.\Generated_Source\PSoC5/CapSense_CSD_CSHL.c ****                                     CapSense_CSD_posFiltersData[posXIndex] = tempPos;
1710:.\Generated_Source\PSoC5/CapSense_CSD_CSHL.c ****                                     
1711:.\Generated_Source\PSoC5/CapSense_CSD_CSHL.c ****                                     tempPos = posY;
1712:.\Generated_Source\PSoC5/CapSense_CSD_CSHL.c ****                                     posY = (uint8) CapSense_CSD_MedianFilter(posY,
1713:.\Generated_Source\PSoC5/CapSense_CSD_CSHL.c ****                                                                        CapSense_CSD_posFiltersData[
1714:.\Generated_Source\PSoC5/CapSense_CSD_CSHL.c ****                                                                        CapSense_CSD_posFiltersData[
1715:.\Generated_Source\PSoC5/CapSense_CSD_CSHL.c ****                                     CapSense_CSD_posFiltersData[posYIndex + 1u] = 
1716:.\Generated_Source\PSoC5/CapSense_CSD_CSHL.c ****                                                                              CapSense_CSD_posFilter
1717:.\Generated_Source\PSoC5/CapSense_CSD_CSHL.c ****                                     CapSense_CSD_posFiltersData[posYIndex] = tempPos;
1718:.\Generated_Source\PSoC5/CapSense_CSD_CSHL.c ****                                 }
1719:.\Generated_Source\PSoC5/CapSense_CSD_CSHL.c ****                                 
ARM GAS  C:\Users\LUKASC~1\AppData\Local\Temp\ccKrJm2d.s 			page 45


1720:.\Generated_Source\PSoC5/CapSense_CSD_CSHL.c ****                             #endif /* (0u != (CapSense_CSD_MEDIAN_FILTER & \
1721:.\Generated_Source\PSoC5/CapSense_CSD_CSHL.c ****                                    *          CapSense_CSD_TOUCH_PADS_POS_FILTERS_MASK))
1722:.\Generated_Source\PSoC5/CapSense_CSD_CSHL.c ****                                    */
1723:.\Generated_Source\PSoC5/CapSense_CSD_CSHL.c **** 
1724:.\Generated_Source\PSoC5/CapSense_CSD_CSHL.c ****                             #if(0u !=(CapSense_CSD_AVERAGING_FILTER & CapSense_CSD_TOUCH_PADS_POS_F
1725:.\Generated_Source\PSoC5/CapSense_CSD_CSHL.c ****                                 if (0u != (posFiltersMask & CapSense_CSD_AVERAGING_FILTER))
1726:.\Generated_Source\PSoC5/CapSense_CSD_CSHL.c ****                                 {
1727:.\Generated_Source\PSoC5/CapSense_CSD_CSHL.c ****                                     tempPos = posX;
1728:.\Generated_Source\PSoC5/CapSense_CSD_CSHL.c ****                                     posX = (uint8) CapSense_CSD_AveragingFilter(posX,
1729:.\Generated_Source\PSoC5/CapSense_CSD_CSHL.c ****                                                                        CapSense_CSD_posFiltersData[
1730:.\Generated_Source\PSoC5/CapSense_CSD_CSHL.c ****                                                                        CapSense_CSD_posFiltersData[
1731:.\Generated_Source\PSoC5/CapSense_CSD_CSHL.c ****                                     CapSense_CSD_posFiltersData[posXIndex + 1u] = 
1732:.\Generated_Source\PSoC5/CapSense_CSD_CSHL.c ****                                                                              CapSense_CSD_posFilter
1733:.\Generated_Source\PSoC5/CapSense_CSD_CSHL.c ****                                     CapSense_CSD_posFiltersData[posXIndex] = tempPos;
1734:.\Generated_Source\PSoC5/CapSense_CSD_CSHL.c ****                                     
1735:.\Generated_Source\PSoC5/CapSense_CSD_CSHL.c ****                                     tempPos = posY;
1736:.\Generated_Source\PSoC5/CapSense_CSD_CSHL.c ****                                     posY = (uint8) CapSense_CSD_AveragingFilter(posY, 
1737:.\Generated_Source\PSoC5/CapSense_CSD_CSHL.c ****                                                                       CapSense_CSD_posFiltersData[p
1738:.\Generated_Source\PSoC5/CapSense_CSD_CSHL.c ****                                                                       CapSense_CSD_posFiltersData[p
1739:.\Generated_Source\PSoC5/CapSense_CSD_CSHL.c ****                                     CapSense_CSD_posFiltersData[posYIndex + 1u] = 
1740:.\Generated_Source\PSoC5/CapSense_CSD_CSHL.c ****                                                                             CapSense_CSD_posFilters
1741:.\Generated_Source\PSoC5/CapSense_CSD_CSHL.c ****                                     CapSense_CSD_posFiltersData[posYIndex] = tempPos;
1742:.\Generated_Source\PSoC5/CapSense_CSD_CSHL.c ****                                 }
1743:.\Generated_Source\PSoC5/CapSense_CSD_CSHL.c **** 
1744:.\Generated_Source\PSoC5/CapSense_CSD_CSHL.c ****                             #endif /* (0u != (CapSense_CSD_AVERAGING_FILTER & \
1745:.\Generated_Source\PSoC5/CapSense_CSD_CSHL.c ****                                    *           CapSense_CSD_TOUCH_PADS_POS_FILTERS_MASK))
1746:.\Generated_Source\PSoC5/CapSense_CSD_CSHL.c ****                                    */
1747:.\Generated_Source\PSoC5/CapSense_CSD_CSHL.c **** 
1748:.\Generated_Source\PSoC5/CapSense_CSD_CSHL.c ****                             #if (0u != (CapSense_CSD_IIR2_FILTER & CapSense_CSD_TOUCH_PADS_POS_FILT
1749:.\Generated_Source\PSoC5/CapSense_CSD_CSHL.c ****                                 if (0u != (posFiltersMask & CapSense_CSD_IIR2_FILTER))
1750:.\Generated_Source\PSoC5/CapSense_CSD_CSHL.c ****                                 {
1751:.\Generated_Source\PSoC5/CapSense_CSD_CSHL.c ****                                     posX = (uint8) CapSense_CSD_IIR2Filter(posX, 
1752:.\Generated_Source\PSoC5/CapSense_CSD_CSHL.c ****                                                                            CapSense_CSD_posFiltersD
1753:.\Generated_Source\PSoC5/CapSense_CSD_CSHL.c ****                                     CapSense_CSD_posFiltersData[posXIndex] = posX;
1754:.\Generated_Source\PSoC5/CapSense_CSD_CSHL.c ****                                     
1755:.\Generated_Source\PSoC5/CapSense_CSD_CSHL.c ****                                     posY = (uint8) CapSense_CSD_IIR2Filter(posY, 
1756:.\Generated_Source\PSoC5/CapSense_CSD_CSHL.c ****                                                                             CapSense_CSD_posFilters
1757:.\Generated_Source\PSoC5/CapSense_CSD_CSHL.c ****                                     CapSense_CSD_posFiltersData[posYIndex] = posY;
1758:.\Generated_Source\PSoC5/CapSense_CSD_CSHL.c ****                                 }
1759:.\Generated_Source\PSoC5/CapSense_CSD_CSHL.c ****                                 
1760:.\Generated_Source\PSoC5/CapSense_CSD_CSHL.c ****                             #endif /* (0u != (CapSense_CSD_IIR2_FILTER & \
1761:.\Generated_Source\PSoC5/CapSense_CSD_CSHL.c ****                                    *          CapSense_CSD_TOUCH_PADS_POS_FILTERS_MASK))
1762:.\Generated_Source\PSoC5/CapSense_CSD_CSHL.c ****                                    */
1763:.\Generated_Source\PSoC5/CapSense_CSD_CSHL.c **** 
1764:.\Generated_Source\PSoC5/CapSense_CSD_CSHL.c ****                             #if (0u != (CapSense_CSD_IIR4_FILTER & CapSense_CSD_TOUCH_PADS_POS_FILT
1765:.\Generated_Source\PSoC5/CapSense_CSD_CSHL.c ****                                 if (0u != (posFiltersMask & CapSense_CSD_IIR4_FILTER))
1766:.\Generated_Source\PSoC5/CapSense_CSD_CSHL.c ****                                 {
1767:.\Generated_Source\PSoC5/CapSense_CSD_CSHL.c ****                                     posX = (uint8) CapSense_CSD_IIR4Filter((uint16)posX,
1768:.\Generated_Source\PSoC5/CapSense_CSD_CSHL.c ****                                                                     (uint16)CapSense_CSD_posFilters
1769:.\Generated_Source\PSoC5/CapSense_CSD_CSHL.c ****                                     CapSense_CSD_posFiltersData[posXIndex] = posX;
1770:.\Generated_Source\PSoC5/CapSense_CSD_CSHL.c **** 
1771:.\Generated_Source\PSoC5/CapSense_CSD_CSHL.c ****                                     posY = (uint8) CapSense_CSD_IIR4Filter((uint16)posY,
1772:.\Generated_Source\PSoC5/CapSense_CSD_CSHL.c ****                                                                     (uint16)CapSense_CSD_posFilters
1773:.\Generated_Source\PSoC5/CapSense_CSD_CSHL.c ****                                     CapSense_CSD_posFiltersData[posYIndex] = posY;
1774:.\Generated_Source\PSoC5/CapSense_CSD_CSHL.c ****                                 }
1775:.\Generated_Source\PSoC5/CapSense_CSD_CSHL.c ****                                 
1776:.\Generated_Source\PSoC5/CapSense_CSD_CSHL.c ****                             #endif /* (0u != (CapSense_CSD_IIR4_FILTER & \
ARM GAS  C:\Users\LUKASC~1\AppData\Local\Temp\ccKrJm2d.s 			page 46


1777:.\Generated_Source\PSoC5/CapSense_CSD_CSHL.c ****                                    *           CapSense_CSD_TOUCH_PADS_POS_FILTERS_MASK))
1778:.\Generated_Source\PSoC5/CapSense_CSD_CSHL.c ****                                    */
1779:.\Generated_Source\PSoC5/CapSense_CSD_CSHL.c **** 
1780:.\Generated_Source\PSoC5/CapSense_CSD_CSHL.c ****                             #if (0u != (CapSense_CSD_JITTER_FILTER & CapSense_CSD_TOUCH_PADS_POS_FI
1781:.\Generated_Source\PSoC5/CapSense_CSD_CSHL.c ****                                 if (0u != (posFiltersMask & CapSense_CSD_JITTER_FILTER))
1782:.\Generated_Source\PSoC5/CapSense_CSD_CSHL.c ****                                     {
1783:.\Generated_Source\PSoC5/CapSense_CSD_CSHL.c ****                                         posX = (uint8) CapSense_CSD_JitterFilter(posX, 
1784:.\Generated_Source\PSoC5/CapSense_CSD_CSHL.c ****                                                                             CapSense_CSD_posFilters
1785:.\Generated_Source\PSoC5/CapSense_CSD_CSHL.c ****                                         CapSense_CSD_posFiltersData[posXIndex] = posX;
1786:.\Generated_Source\PSoC5/CapSense_CSD_CSHL.c ****                                         
1787:.\Generated_Source\PSoC5/CapSense_CSD_CSHL.c ****                                         posY = (uint8) CapSense_CSD_JitterFilter(posY, 
1788:.\Generated_Source\PSoC5/CapSense_CSD_CSHL.c ****                                                                             CapSense_CSD_posFilters
1789:.\Generated_Source\PSoC5/CapSense_CSD_CSHL.c ****                                         CapSense_CSD_posFiltersData[posYIndex] = posY;
1790:.\Generated_Source\PSoC5/CapSense_CSD_CSHL.c ****                                     }
1791:.\Generated_Source\PSoC5/CapSense_CSD_CSHL.c ****                             #endif /* (0u != (CapSense_CSD_JITTER_FILTER & \
1792:.\Generated_Source\PSoC5/CapSense_CSD_CSHL.c ****                                    *           CapSense_CSD_TOUCH_PADS_POS_FILTERS_MASK))
1793:.\Generated_Source\PSoC5/CapSense_CSD_CSHL.c ****                                    */
1794:.\Generated_Source\PSoC5/CapSense_CSD_CSHL.c ****                         }
1795:.\Generated_Source\PSoC5/CapSense_CSD_CSHL.c ****                     }
1796:.\Generated_Source\PSoC5/CapSense_CSD_CSHL.c ****                 #endif /* (0u != CapSense_CSD_TOUCH_PADS_POS_FILTERS_MASK) */
1797:.\Generated_Source\PSoC5/CapSense_CSD_CSHL.c **** 
1798:.\Generated_Source\PSoC5/CapSense_CSD_CSHL.c ****                 /* Save positions */
1799:.\Generated_Source\PSoC5/CapSense_CSD_CSHL.c ****                 pos[0u] = posX;
1800:.\Generated_Source\PSoC5/CapSense_CSD_CSHL.c ****                 pos[1u] = posY;
1801:.\Generated_Source\PSoC5/CapSense_CSD_CSHL.c ****             }
1802:.\Generated_Source\PSoC5/CapSense_CSD_CSHL.c ****         }
1803:.\Generated_Source\PSoC5/CapSense_CSD_CSHL.c **** 
1804:.\Generated_Source\PSoC5/CapSense_CSD_CSHL.c ****         #if (0u != CapSense_CSD_TOUCH_PADS_POS_FILTERS_MASK)
1805:.\Generated_Source\PSoC5/CapSense_CSD_CSHL.c ****             if(touch == 0u)
1806:.\Generated_Source\PSoC5/CapSense_CSD_CSHL.c ****             {
1807:.\Generated_Source\PSoC5/CapSense_CSD_CSHL.c ****                 /* Reset the filters */
1808:.\Generated_Source\PSoC5/CapSense_CSD_CSHL.c ****                 if ((posFiltersMask & CapSense_CSD_ANY_POS_FILTER) != 0u)
1809:.\Generated_Source\PSoC5/CapSense_CSD_CSHL.c ****                 {
1810:.\Generated_Source\PSoC5/CapSense_CSD_CSHL.c ****                     CapSense_CSD_posFiltersData[firstTimeIndex] = 0u;
1811:.\Generated_Source\PSoC5/CapSense_CSD_CSHL.c ****                 }
1812:.\Generated_Source\PSoC5/CapSense_CSD_CSHL.c ****             }
1813:.\Generated_Source\PSoC5/CapSense_CSD_CSHL.c ****         #endif /* (0u != CapSense_CSD_TOUCH_PADS_POS_FILTERS_MASK) */
1814:.\Generated_Source\PSoC5/CapSense_CSD_CSHL.c ****         
1815:.\Generated_Source\PSoC5/CapSense_CSD_CSHL.c ****         return (touch);
1816:.\Generated_Source\PSoC5/CapSense_CSD_CSHL.c ****     }
1817:.\Generated_Source\PSoC5/CapSense_CSD_CSHL.c **** #endif /* (CapSense_CSD_TOTAL_TOUCH_PADS_COUNT > 0u) */
1818:.\Generated_Source\PSoC5/CapSense_CSD_CSHL.c **** 
1819:.\Generated_Source\PSoC5/CapSense_CSD_CSHL.c **** 
1820:.\Generated_Source\PSoC5/CapSense_CSD_CSHL.c **** #if ( (CapSense_CSD_RAW_FILTER_MASK & CapSense_CSD_MEDIAN_FILTER) | \
1821:.\Generated_Source\PSoC5/CapSense_CSD_CSHL.c ****       (CapSense_CSD_POS_FILTERS_MASK & CapSense_CSD_MEDIAN_FILTER) )
1822:.\Generated_Source\PSoC5/CapSense_CSD_CSHL.c ****     /*******************************************************************************
1823:.\Generated_Source\PSoC5/CapSense_CSD_CSHL.c ****     * Function Name: CapSense_CSD_MedianFilter
1824:.\Generated_Source\PSoC5/CapSense_CSD_CSHL.c ****     ********************************************************************************
1825:.\Generated_Source\PSoC5/CapSense_CSD_CSHL.c ****     *
1826:.\Generated_Source\PSoC5/CapSense_CSD_CSHL.c ****     * Summary:
1827:.\Generated_Source\PSoC5/CapSense_CSD_CSHL.c ****     *  Median filter function. 
1828:.\Generated_Source\PSoC5/CapSense_CSD_CSHL.c ****     *  The median filter looks at the three most recent samples and reports the 
1829:.\Generated_Source\PSoC5/CapSense_CSD_CSHL.c ****     *  median value.
1830:.\Generated_Source\PSoC5/CapSense_CSD_CSHL.c ****     *
1831:.\Generated_Source\PSoC5/CapSense_CSD_CSHL.c ****     * Parameters:
1832:.\Generated_Source\PSoC5/CapSense_CSD_CSHL.c ****     *  x1:  Current value.
1833:.\Generated_Source\PSoC5/CapSense_CSD_CSHL.c ****     *  x2:  Previous value.
ARM GAS  C:\Users\LUKASC~1\AppData\Local\Temp\ccKrJm2d.s 			page 47


1834:.\Generated_Source\PSoC5/CapSense_CSD_CSHL.c ****     *  x3:  Before previous value.
1835:.\Generated_Source\PSoC5/CapSense_CSD_CSHL.c ****     *
1836:.\Generated_Source\PSoC5/CapSense_CSD_CSHL.c ****     * Return:
1837:.\Generated_Source\PSoC5/CapSense_CSD_CSHL.c ****     *  Returns filtered value.
1838:.\Generated_Source\PSoC5/CapSense_CSD_CSHL.c ****     *
1839:.\Generated_Source\PSoC5/CapSense_CSD_CSHL.c ****     *******************************************************************************/
1840:.\Generated_Source\PSoC5/CapSense_CSD_CSHL.c ****     uint16 CapSense_CSD_MedianFilter(uint16 x1, uint16 x2, uint16 x3)
1841:.\Generated_Source\PSoC5/CapSense_CSD_CSHL.c ****                                          
1842:.\Generated_Source\PSoC5/CapSense_CSD_CSHL.c ****     {
1843:.\Generated_Source\PSoC5/CapSense_CSD_CSHL.c ****         uint16 tmp;
1844:.\Generated_Source\PSoC5/CapSense_CSD_CSHL.c ****         
1845:.\Generated_Source\PSoC5/CapSense_CSD_CSHL.c ****         if (x1 > x2)
1846:.\Generated_Source\PSoC5/CapSense_CSD_CSHL.c ****         {
1847:.\Generated_Source\PSoC5/CapSense_CSD_CSHL.c ****             tmp = x2;
1848:.\Generated_Source\PSoC5/CapSense_CSD_CSHL.c ****             x2 = x1;
1849:.\Generated_Source\PSoC5/CapSense_CSD_CSHL.c ****             x1 = tmp;
1850:.\Generated_Source\PSoC5/CapSense_CSD_CSHL.c ****         }
1851:.\Generated_Source\PSoC5/CapSense_CSD_CSHL.c ****         
1852:.\Generated_Source\PSoC5/CapSense_CSD_CSHL.c ****         if (x2 > x3)
1853:.\Generated_Source\PSoC5/CapSense_CSD_CSHL.c ****         {
1854:.\Generated_Source\PSoC5/CapSense_CSD_CSHL.c ****             x2 = x3;
1855:.\Generated_Source\PSoC5/CapSense_CSD_CSHL.c ****         }
1856:.\Generated_Source\PSoC5/CapSense_CSD_CSHL.c ****         
1857:.\Generated_Source\PSoC5/CapSense_CSD_CSHL.c ****         return ((x1 > x2) ? x1 : x2);
1858:.\Generated_Source\PSoC5/CapSense_CSD_CSHL.c ****     }
1859:.\Generated_Source\PSoC5/CapSense_CSD_CSHL.c **** #endif /* ( (CapSense_CSD_RAW_FILTER_MASK & CapSense_CSD_MEDIAN_FILTER) | \
1860:.\Generated_Source\PSoC5/CapSense_CSD_CSHL.c ****        *    (CapSense_CSD_POS_FILTERS_MASK & CapSense_CSD_MEDIAN_FILTER) )
1861:.\Generated_Source\PSoC5/CapSense_CSD_CSHL.c ****        */
1862:.\Generated_Source\PSoC5/CapSense_CSD_CSHL.c **** 
1863:.\Generated_Source\PSoC5/CapSense_CSD_CSHL.c **** 
1864:.\Generated_Source\PSoC5/CapSense_CSD_CSHL.c **** #if ( (CapSense_CSD_RAW_FILTER_MASK & CapSense_CSD_AVERAGING_FILTER) | \
1865:.\Generated_Source\PSoC5/CapSense_CSD_CSHL.c ****       (CapSense_CSD_POS_FILTERS_MASK & CapSense_CSD_AVERAGING_FILTER) )
1866:.\Generated_Source\PSoC5/CapSense_CSD_CSHL.c ****     /*******************************************************************************
1867:.\Generated_Source\PSoC5/CapSense_CSD_CSHL.c ****     * Function Name: CapSense_CSD_AveragingFilter
1868:.\Generated_Source\PSoC5/CapSense_CSD_CSHL.c ****     ********************************************************************************
1869:.\Generated_Source\PSoC5/CapSense_CSD_CSHL.c ****     *
1870:.\Generated_Source\PSoC5/CapSense_CSD_CSHL.c ****     * Summary:
1871:.\Generated_Source\PSoC5/CapSense_CSD_CSHL.c ****     *  Averaging filter function.
1872:.\Generated_Source\PSoC5/CapSense_CSD_CSHL.c ****     *  The averaging filter looks at the three most recent samples of position and
1873:.\Generated_Source\PSoC5/CapSense_CSD_CSHL.c ****     *  reports the averaging value.
1874:.\Generated_Source\PSoC5/CapSense_CSD_CSHL.c ****     *
1875:.\Generated_Source\PSoC5/CapSense_CSD_CSHL.c ****     * Parameters:
1876:.\Generated_Source\PSoC5/CapSense_CSD_CSHL.c ****     *  x1:  Current value.
1877:.\Generated_Source\PSoC5/CapSense_CSD_CSHL.c ****     *  x2:  Previous value.
1878:.\Generated_Source\PSoC5/CapSense_CSD_CSHL.c ****     *  x3:  Before previous value.
1879:.\Generated_Source\PSoC5/CapSense_CSD_CSHL.c ****     *
1880:.\Generated_Source\PSoC5/CapSense_CSD_CSHL.c ****     * Return:
1881:.\Generated_Source\PSoC5/CapSense_CSD_CSHL.c ****     *  Returns filtered value.
1882:.\Generated_Source\PSoC5/CapSense_CSD_CSHL.c ****     *
1883:.\Generated_Source\PSoC5/CapSense_CSD_CSHL.c ****     *******************************************************************************/
1884:.\Generated_Source\PSoC5/CapSense_CSD_CSHL.c ****     uint16 CapSense_CSD_AveragingFilter(uint16 x1, uint16 x2, uint16 x3)
1885:.\Generated_Source\PSoC5/CapSense_CSD_CSHL.c ****                                             
1886:.\Generated_Source\PSoC5/CapSense_CSD_CSHL.c ****     {
1887:.\Generated_Source\PSoC5/CapSense_CSD_CSHL.c ****         uint32 tmp = ((uint32)x1 + (uint32)x2 + (uint32)x3) / 3u;
1888:.\Generated_Source\PSoC5/CapSense_CSD_CSHL.c ****         
1889:.\Generated_Source\PSoC5/CapSense_CSD_CSHL.c ****         return ((uint16) tmp);
1890:.\Generated_Source\PSoC5/CapSense_CSD_CSHL.c ****     }
ARM GAS  C:\Users\LUKASC~1\AppData\Local\Temp\ccKrJm2d.s 			page 48


1891:.\Generated_Source\PSoC5/CapSense_CSD_CSHL.c **** #endif /* ( (CapSense_CSD_RAW_FILTER_MASK & CapSense_CSD_AVERAGING_FILTER) | \
1892:.\Generated_Source\PSoC5/CapSense_CSD_CSHL.c ****        *    (CapSense_CSD_POS_FILTERS_MASK & CapSense_CSD_AVERAGING_FILTER) )
1893:.\Generated_Source\PSoC5/CapSense_CSD_CSHL.c ****        */
1894:.\Generated_Source\PSoC5/CapSense_CSD_CSHL.c **** 
1895:.\Generated_Source\PSoC5/CapSense_CSD_CSHL.c **** 
1896:.\Generated_Source\PSoC5/CapSense_CSD_CSHL.c **** #if ( (CapSense_CSD_RAW_FILTER_MASK & CapSense_CSD_IIR2_FILTER) | \
1897:.\Generated_Source\PSoC5/CapSense_CSD_CSHL.c ****       (CapSense_CSD_POS_FILTERS_MASK & CapSense_CSD_IIR2_FILTER) )
1898:.\Generated_Source\PSoC5/CapSense_CSD_CSHL.c ****     /*******************************************************************************
1899:.\Generated_Source\PSoC5/CapSense_CSD_CSHL.c ****     * Function Name: CapSense_CSD_IIR2Filter
1900:.\Generated_Source\PSoC5/CapSense_CSD_CSHL.c ****     ********************************************************************************
1901:.\Generated_Source\PSoC5/CapSense_CSD_CSHL.c ****     *
1902:.\Generated_Source\PSoC5/CapSense_CSD_CSHL.c ****     * Summary:
1903:.\Generated_Source\PSoC5/CapSense_CSD_CSHL.c ****     *  IIR1/2 filter function. IIR1/2 = 1/2current + 1/2previous.
1904:.\Generated_Source\PSoC5/CapSense_CSD_CSHL.c ****     *
1905:.\Generated_Source\PSoC5/CapSense_CSD_CSHL.c ****     * Parameters:
1906:.\Generated_Source\PSoC5/CapSense_CSD_CSHL.c ****     *  x1:  Current value.
1907:.\Generated_Source\PSoC5/CapSense_CSD_CSHL.c ****     *  x2:  Previous value.
1908:.\Generated_Source\PSoC5/CapSense_CSD_CSHL.c ****     *
1909:.\Generated_Source\PSoC5/CapSense_CSD_CSHL.c ****     * Return:
1910:.\Generated_Source\PSoC5/CapSense_CSD_CSHL.c ****     *  Returns filtered value.
1911:.\Generated_Source\PSoC5/CapSense_CSD_CSHL.c ****     *
1912:.\Generated_Source\PSoC5/CapSense_CSD_CSHL.c ****     *******************************************************************************/
1913:.\Generated_Source\PSoC5/CapSense_CSD_CSHL.c ****     uint16 CapSense_CSD_IIR2Filter(uint16 x1, uint16 x2)
1914:.\Generated_Source\PSoC5/CapSense_CSD_CSHL.c ****                                        
1915:.\Generated_Source\PSoC5/CapSense_CSD_CSHL.c ****     {
1916:.\Generated_Source\PSoC5/CapSense_CSD_CSHL.c ****         uint32 tmp;
1917:.\Generated_Source\PSoC5/CapSense_CSD_CSHL.c ****         
1918:.\Generated_Source\PSoC5/CapSense_CSD_CSHL.c ****         /* IIR = 1/2 Current Value+ 1/2 Previous Value */
1919:.\Generated_Source\PSoC5/CapSense_CSD_CSHL.c ****         tmp = (uint32)x1 + (uint32)x2;
1920:.\Generated_Source\PSoC5/CapSense_CSD_CSHL.c ****         tmp >>= 1u;
1921:.\Generated_Source\PSoC5/CapSense_CSD_CSHL.c ****     
1922:.\Generated_Source\PSoC5/CapSense_CSD_CSHL.c ****         return ((uint16) tmp);
1923:.\Generated_Source\PSoC5/CapSense_CSD_CSHL.c ****     }
1924:.\Generated_Source\PSoC5/CapSense_CSD_CSHL.c **** #endif /* ( (CapSense_CSD_RAW_FILTER_MASK & CapSense_CSD_IIR2_FILTER) | \
1925:.\Generated_Source\PSoC5/CapSense_CSD_CSHL.c ****        *    (CapSense_CSD_POS_FILTERS_MASK & CapSense_CSD_IIR2_FILTER) )
1926:.\Generated_Source\PSoC5/CapSense_CSD_CSHL.c ****        */
1927:.\Generated_Source\PSoC5/CapSense_CSD_CSHL.c **** 
1928:.\Generated_Source\PSoC5/CapSense_CSD_CSHL.c **** 
1929:.\Generated_Source\PSoC5/CapSense_CSD_CSHL.c **** #if ( (CapSense_CSD_RAW_FILTER_MASK & CapSense_CSD_IIR4_FILTER) | \
1930:.\Generated_Source\PSoC5/CapSense_CSD_CSHL.c ****       (CapSense_CSD_POS_FILTERS_MASK & CapSense_CSD_IIR4_FILTER) )
1931:.\Generated_Source\PSoC5/CapSense_CSD_CSHL.c ****     /*******************************************************************************
1932:.\Generated_Source\PSoC5/CapSense_CSD_CSHL.c ****     * Function Name: CapSense_CSD_IIR4Filter
1933:.\Generated_Source\PSoC5/CapSense_CSD_CSHL.c ****     ********************************************************************************
1934:.\Generated_Source\PSoC5/CapSense_CSD_CSHL.c ****     *
1935:.\Generated_Source\PSoC5/CapSense_CSD_CSHL.c ****     * Summary:
1936:.\Generated_Source\PSoC5/CapSense_CSD_CSHL.c ****     *  IIR1/4 filter function. IIR1/4 = 1/4current + 3/4previous.
1937:.\Generated_Source\PSoC5/CapSense_CSD_CSHL.c ****     *
1938:.\Generated_Source\PSoC5/CapSense_CSD_CSHL.c ****     * Parameters:
1939:.\Generated_Source\PSoC5/CapSense_CSD_CSHL.c ****     *  x1:  Current value.
1940:.\Generated_Source\PSoC5/CapSense_CSD_CSHL.c ****     *  x2:  Previous value.
1941:.\Generated_Source\PSoC5/CapSense_CSD_CSHL.c ****     *
1942:.\Generated_Source\PSoC5/CapSense_CSD_CSHL.c ****     * Return:
1943:.\Generated_Source\PSoC5/CapSense_CSD_CSHL.c ****     *  Returns filtered value.
1944:.\Generated_Source\PSoC5/CapSense_CSD_CSHL.c ****     *
1945:.\Generated_Source\PSoC5/CapSense_CSD_CSHL.c ****     *******************************************************************************/
1946:.\Generated_Source\PSoC5/CapSense_CSD_CSHL.c ****     uint16 CapSense_CSD_IIR4Filter(uint16 x1, uint16 x2)
1947:.\Generated_Source\PSoC5/CapSense_CSD_CSHL.c ****                                        
ARM GAS  C:\Users\LUKASC~1\AppData\Local\Temp\ccKrJm2d.s 			page 49


1948:.\Generated_Source\PSoC5/CapSense_CSD_CSHL.c ****     {
 776              		.loc 1 1948 0
 777              		.cfi_startproc
 778              		@ args = 0, pretend = 0, frame = 0
 779              		@ frame_needed = 0, uses_anonymous_args = 0
 780              		@ link register save eliminated.
 781              	.LVL98:
1949:.\Generated_Source\PSoC5/CapSense_CSD_CSHL.c ****         uint32 tmp;
1950:.\Generated_Source\PSoC5/CapSense_CSD_CSHL.c ****         
1951:.\Generated_Source\PSoC5/CapSense_CSD_CSHL.c ****         /* IIR = 1/4 Current Value + 3/4 Previous Value */
1952:.\Generated_Source\PSoC5/CapSense_CSD_CSHL.c ****         tmp = (uint32)x1 + (uint32)x2;
 782              		.loc 1 1952 0
 783 0000 00EB4100 		add	r0, r0, r1, lsl #1
 784              	.LVL99:
1953:.\Generated_Source\PSoC5/CapSense_CSD_CSHL.c ****         tmp += ((uint32)x2 << 1u);
 785              		.loc 1 1953 0
 786 0004 0844     		add	r0, r0, r1
 787              	.LVL100:
1954:.\Generated_Source\PSoC5/CapSense_CSD_CSHL.c ****         tmp >>= 2u;
1955:.\Generated_Source\PSoC5/CapSense_CSD_CSHL.c ****         
1956:.\Generated_Source\PSoC5/CapSense_CSD_CSHL.c ****         return ((uint16) tmp);
1957:.\Generated_Source\PSoC5/CapSense_CSD_CSHL.c ****     }
 788              		.loc 1 1957 0
 789 0006 C0F38F00 		ubfx	r0, r0, #2, #16
 790              	.LVL101:
 791 000a 7047     		bx	lr
 792              		.cfi_endproc
 793              	.LFE14:
 794              		.size	CapSense_CSD_IIR4Filter, .-CapSense_CSD_IIR4Filter
 795              		.section	.text.CapSense_CSD_UpdateSensorBaseline,"ax",%progbits
 796              		.align	2
 797              		.global	CapSense_CSD_UpdateSensorBaseline
 798              		.thumb
 799              		.thumb_func
 800              		.type	CapSense_CSD_UpdateSensorBaseline, %function
 801              	CapSense_CSD_UpdateSensorBaseline:
 802              	.LFB4:
 359:.\Generated_Source\PSoC5/CapSense_CSD_CSHL.c ****     uint32 calc;
 803              		.loc 1 359 0
 804              		.cfi_startproc
 805              		@ args = 0, pretend = 0, frame = 0
 806              		@ frame_needed = 0, uses_anonymous_args = 0
 807              	.LVL102:
 808 0000 2DE9F041 		push	{r4, r5, r6, r7, r8, lr}
 809              		.cfi_def_cfa_offset 24
 810              		.cfi_offset 4, -24
 811              		.cfi_offset 5, -20
 812              		.cfi_offset 6, -16
 813              		.cfi_offset 7, -12
 814              		.cfi_offset 8, -8
 815              		.cfi_offset 14, -4
 816 0004 0446     		mov	r4, r0
 363:.\Generated_Source\PSoC5/CapSense_CSD_CSHL.c ****     uint8 noiseThreshold = CapSense_CSD_noiseThreshold[widget];
 817              		.loc 1 363 0
 818 0006 314B     		ldr	r3, .L81
 819 0008 1B5C     		ldrb	r3, [r3, r0]	@ zero_extendqisi2
 820              	.LVL103:
ARM GAS  C:\Users\LUKASC~1\AppData\Local\Temp\ccKrJm2d.s 			page 50


 364:.\Generated_Source\PSoC5/CapSense_CSD_CSHL.c ****     
 821              		.loc 1 364 0
 822 000a 314A     		ldr	r2, .L81+4
 823 000c 1344     		add	r3, r3, r2
 824              	.LVL104:
 825 000e 1E7A     		ldrb	r6, [r3, #8]	@ zero_extendqisi2
 826              	.LVL105:
 393:.\Generated_Source\PSoC5/CapSense_CSD_CSHL.c ****         CapSense_CSD_rawFilterData1[sensor] = filteredRawData;
 827              		.loc 1 393 0
 828 0010 304D     		ldr	r5, .L81+8
 829 0012 314B     		ldr	r3, .L81+12
 830              	.LVL106:
 831 0014 33F81000 		ldrh	r0, [r3, r0, lsl #1]
 832              	.LVL107:
 833 0018 35F81410 		ldrh	r1, [r5, r4, lsl #1]
 834 001c FFF7FEFF 		bl	CapSense_CSD_IIR4Filter
 835              	.LVL108:
 836 0020 0746     		mov	r7, r0
 837              	.LVL109:
 394:.\Generated_Source\PSoC5/CapSense_CSD_CSHL.c ****             
 838              		.loc 1 394 0
 839 0022 25F81400 		strh	r0, [r5, r4, lsl #1]	@ movhi
 413:.\Generated_Source\PSoC5/CapSense_CSD_CSHL.c ****     #endif /* (CapSense_CSD_TUNING_METHOD == CapSense_CSD_AUTO_TUNING) */
 840              		.loc 1 413 0
 841 0026 2046     		mov	r0, r4
 842              	.LVL110:
 843 0028 FFF7FEFF 		bl	CapSense_CSD_CalculateThresholds
 844              	.LVL111:
 419:.\Generated_Source\PSoC5/CapSense_CSD_CSHL.c ****     {
 845              		.loc 1 419 0
 846 002c 2B4B     		ldr	r3, .L81+16
 847 002e 33F81420 		ldrh	r2, [r3, r4, lsl #1]
 848 0032 BA42     		cmp	r2, r7
 849 0034 04D8     		bhi	.L71
 421:.\Generated_Source\PSoC5/CapSense_CSD_CSHL.c ****         widget = 1u;    /* Positive difference - Calculate the Signal */
 850              		.loc 1 421 0
 851 0036 BD1A     		subs	r5, r7, r2
 852 0038 ADB2     		uxth	r5, r5
 853              	.LVL112:
 422:.\Generated_Source\PSoC5/CapSense_CSD_CSHL.c ****     }
 854              		.loc 1 422 0
 855 003a 4FF00108 		mov	r8, #1
 856 003e 03E0     		b	.L72
 857              	.LVL113:
 858              	.L71:
 426:.\Generated_Source\PSoC5/CapSense_CSD_CSHL.c ****         widget = 0u;    /* Negative difference - Do NOT calculate the Signal */
 859              		.loc 1 426 0
 860 0040 D51B     		subs	r5, r2, r7
 861 0042 ADB2     		uxth	r5, r5
 862              	.LVL114:
 427:.\Generated_Source\PSoC5/CapSense_CSD_CSHL.c ****     }
 863              		.loc 1 427 0
 864 0044 4FF00008 		mov	r8, #0
 865              	.LVL115:
 866              	.L72:
 430:.\Generated_Source\PSoC5/CapSense_CSD_CSHL.c ****     {
 867              		.loc 1 430 0
ARM GAS  C:\Users\LUKASC~1\AppData\Local\Temp\ccKrJm2d.s 			page 51


 868 0048 B8F1000F 		cmp	r8, #0
 869 004c 10D1     		bne	.L73
 430:.\Generated_Source\PSoC5/CapSense_CSD_CSHL.c ****     {
 870              		.loc 1 430 0 is_stmt 0 discriminator 1
 871 004e 142D     		cmp	r5, #20
 872 0050 0ED9     		bls	.L73
 432:.\Generated_Source\PSoC5/CapSense_CSD_CSHL.c ****         {
 873              		.loc 1 432 0 is_stmt 1
 874 0052 234B     		ldr	r3, .L81+20
 875 0054 1B5D     		ldrb	r3, [r3, r4]	@ zero_extendqisi2
 876 0056 042B     		cmp	r3, #4
 877 0058 06D9     		bls	.L74
 434:.\Generated_Source\PSoC5/CapSense_CSD_CSHL.c ****             CapSense_CSD_lowBaselineResetCnt[sensor] = 0u;
 878              		.loc 1 434 0
 879 005a 2046     		mov	r0, r4
 880 005c FFF7FEFF 		bl	CapSense_CSD_BaseInit
 881              	.LVL116:
 435:.\Generated_Source\PSoC5/CapSense_CSD_CSHL.c ****         }
 882              		.loc 1 435 0
 883 0060 0022     		movs	r2, #0
 884 0062 1F4B     		ldr	r3, .L81+20
 885 0064 1A55     		strb	r2, [r3, r4]
 886 0066 1AE0     		b	.L75
 887              	.L74:
 439:.\Generated_Source\PSoC5/CapSense_CSD_CSHL.c ****         }
 888              		.loc 1 439 0
 889 0068 0133     		adds	r3, r3, #1
 890 006a 1D4A     		ldr	r2, .L81+20
 891 006c 1355     		strb	r3, [r2, r4]
 892 006e 16E0     		b	.L75
 893              	.L73:
 446:.\Generated_Source\PSoC5/CapSense_CSD_CSHL.c ****                  ((tempRaw < (uint16) CapSense_CSD_NEGATIVE_NOISE_THRESHOLD)
 894              		.loc 1 446 0
 895 0070 B3B2     		uxth	r3, r6
 896 0072 AB42     		cmp	r3, r5
 897 0074 04D2     		bcs	.L76
 446:.\Generated_Source\PSoC5/CapSense_CSD_CSHL.c ****                  ((tempRaw < (uint16) CapSense_CSD_NEGATIVE_NOISE_THRESHOLD)
 898              		.loc 1 446 0 is_stmt 0 discriminator 1
 899 0076 132D     		cmp	r5, #19
 900 0078 11D8     		bhi	.L75
 448:.\Generated_Source\PSoC5/CapSense_CSD_CSHL.c ****             {
 901              		.loc 1 448 0 is_stmt 1
 902 007a B8F1000F 		cmp	r8, #0
 903 007e 0ED1     		bne	.L75
 904              	.L76:
 905              	.LVL117:
 453:.\Generated_Source\PSoC5/CapSense_CSD_CSHL.c **** 
 906              		.loc 1 453 0
 907 0080 1849     		ldr	r1, .L81+24
 908 0082 0B5D     		ldrb	r3, [r1, r4]	@ zero_extendqisi2
 909 0084 43EA0223 		orr	r3, r3, r2, lsl #8
 910              	.LVL118:
 456:.\Generated_Source\PSoC5/CapSense_CSD_CSHL.c **** 
 911              		.loc 1 456 0
 912 0088 1F44     		add	r7, r7, r3
 913              	.LVL119:
 459:.\Generated_Source\PSoC5/CapSense_CSD_CSHL.c **** 
ARM GAS  C:\Users\LUKASC~1\AppData\Local\Temp\ccKrJm2d.s 			page 52


 914              		.loc 1 459 0
 915 008a BF1A     		subs	r7, r7, r2
 916              	.LVL120:
 462:.\Generated_Source\PSoC5/CapSense_CSD_CSHL.c ****                 CapSense_CSD_sensorBaselineLow[sensor] = ((uint8) calc);
 917              		.loc 1 462 0
 918 008c C7F30F22 		ubfx	r2, r7, #8, #16
 919 0090 124B     		ldr	r3, .L81+16
 920 0092 23F81420 		strh	r2, [r3, r4, lsl #1]	@ movhi
 463:.\Generated_Source\PSoC5/CapSense_CSD_CSHL.c **** 
 921              		.loc 1 463 0
 922 0096 0F55     		strb	r7, [r1, r4]
 465:.\Generated_Source\PSoC5/CapSense_CSD_CSHL.c ****         #if (CapSense_CSD_AUTO_RESET == CapSense_CSD_AUTO_RESET_DISABLE)
 923              		.loc 1 465 0
 924 0098 0022     		movs	r2, #0
 925 009a 114B     		ldr	r3, .L81+20
 926 009c 1A55     		strb	r2, [r3, r4]
 927              	.LVL121:
 928              	.L75:
 472:.\Generated_Source\PSoC5/CapSense_CSD_CSHL.c ****     {
 929              		.loc 1 472 0
 930 009e B6B2     		uxth	r6, r6
 931              	.LVL122:
 932 00a0 AE42     		cmp	r6, r5
 933 00a2 0DD2     		bcs	.L77
 472:.\Generated_Source\PSoC5/CapSense_CSD_CSHL.c ****     {
 934              		.loc 1 472 0 is_stmt 0 discriminator 1
 935 00a4 B8F1000F 		cmp	r8, #0
 936 00a8 0AD0     		beq	.L77
 476:.\Generated_Source\PSoC5/CapSense_CSD_CSHL.c ****             {
 937              		.loc 1 476 0 is_stmt 1
 938 00aa FF2D     		cmp	r5, #255
 939 00ac 04D9     		bls	.L78
 478:.\Generated_Source\PSoC5/CapSense_CSD_CSHL.c ****             }    
 940              		.loc 1 478 0
 941 00ae FF22     		movs	r2, #255
 942 00b0 0D4B     		ldr	r3, .L81+28
 943 00b2 1A55     		strb	r2, [r3, r4]
 944 00b4 BDE8F081 		pop	{r4, r5, r6, r7, r8, pc}
 945              	.LVL123:
 946              	.L78:
 482:.\Generated_Source\PSoC5/CapSense_CSD_CSHL.c ****             }
 947              		.loc 1 482 0
 948 00b8 0B4B     		ldr	r3, .L81+28
 949 00ba 1D55     		strb	r5, [r3, r4]
 950 00bc BDE8F081 		pop	{r4, r5, r6, r7, r8, pc}
 951              	.LVL124:
 952              	.L77:
 491:.\Generated_Source\PSoC5/CapSense_CSD_CSHL.c ****     }
 953              		.loc 1 491 0
 954 00c0 0022     		movs	r2, #0
 955 00c2 094B     		ldr	r3, .L81+28
 956 00c4 1A55     		strb	r2, [r3, r4]
 957 00c6 BDE8F081 		pop	{r4, r5, r6, r7, r8, pc}
 958              	.LVL125:
 959              	.L82:
 960 00ca 00BF     		.align	2
 961              	.L81:
ARM GAS  C:\Users\LUKASC~1\AppData\Local\Temp\ccKrJm2d.s 			page 53


 962 00cc 00000000 		.word	CapSense_CSD_widgetNumber
 963 00d0 00000000 		.word	.LANCHOR0
 964 00d4 00000000 		.word	CapSense_CSD_rawFilterData1
 965 00d8 00000000 		.word	CapSense_CSD_sensorRaw
 966 00dc 00000000 		.word	CapSense_CSD_sensorBaseline
 967 00e0 00000000 		.word	CapSense_CSD_lowBaselineResetCnt
 968 00e4 00000000 		.word	CapSense_CSD_sensorBaselineLow
 969 00e8 00000000 		.word	CapSense_CSD_sensorSignal
 970              		.cfi_endproc
 971              	.LFE4:
 972              		.size	CapSense_CSD_UpdateSensorBaseline, .-CapSense_CSD_UpdateSensorBaseline
 973              		.section	.text.CapSense_CSD_UpdateEnabledBaselines,"ax",%progbits
 974              		.align	2
 975              		.global	CapSense_CSD_UpdateEnabledBaselines
 976              		.thumb
 977              		.thumb_func
 978              		.type	CapSense_CSD_UpdateEnabledBaselines, %function
 979              	CapSense_CSD_UpdateEnabledBaselines:
 980              	.LFB5:
 532:.\Generated_Source\PSoC5/CapSense_CSD_CSHL.c ****     uint8 i;
 981              		.loc 1 532 0
 982              		.cfi_startproc
 983              		@ args = 0, pretend = 0, frame = 0
 984              		@ frame_needed = 0, uses_anonymous_args = 0
 985 0000 10B5     		push	{r4, lr}
 986              		.cfi_def_cfa_offset 8
 987              		.cfi_offset 4, -8
 988              		.cfi_offset 14, -4
 989              	.LVL126:
 537:.\Generated_Source\PSoC5/CapSense_CSD_CSHL.c ****     {
 990              		.loc 1 537 0
 991 0002 0024     		movs	r4, #0
 992 0004 0DE0     		b	.L84
 993              	.LVL127:
 994              	.L86:
 539:.\Generated_Source\PSoC5/CapSense_CSD_CSHL.c ****         enMask = (uint8)(0x01u << (i & 0x07u));
 995              		.loc 1 539 0
 996 0006 E208     		lsrs	r2, r4, #3
 540:.\Generated_Source\PSoC5/CapSense_CSD_CSHL.c ****         if((CapSense_CSD_sensorEnableMask[pos] & enMask) != 0u)
 997              		.loc 1 540 0
 998 0008 04F00701 		and	r1, r4, #7
 999 000c 0123     		movs	r3, #1
 1000 000e 8B40     		lsls	r3, r3, r1
 1001              	.LVL128:
 541:.\Generated_Source\PSoC5/CapSense_CSD_CSHL.c ****         {
 1002              		.loc 1 541 0
 1003 0010 0549     		ldr	r1, .L88
 1004 0012 8A5C     		ldrb	r2, [r1, r2]	@ zero_extendqisi2
 1005 0014 1342     		tst	r3, r2
 1006 0016 02D0     		beq	.L85
 543:.\Generated_Source\PSoC5/CapSense_CSD_CSHL.c ****         }
 1007              		.loc 1 543 0
 1008 0018 2046     		mov	r0, r4
 1009 001a FFF7FEFF 		bl	CapSense_CSD_UpdateSensorBaseline
 1010              	.LVL129:
 1011              	.L85:
 537:.\Generated_Source\PSoC5/CapSense_CSD_CSHL.c ****     {
ARM GAS  C:\Users\LUKASC~1\AppData\Local\Temp\ccKrJm2d.s 			page 54


 1012              		.loc 1 537 0 discriminator 2
 1013 001e 0134     		adds	r4, r4, #1
 1014              	.LVL130:
 1015 0020 E4B2     		uxtb	r4, r4
 1016              	.LVL131:
 1017              	.L84:
 537:.\Generated_Source\PSoC5/CapSense_CSD_CSHL.c ****     {
 1018              		.loc 1 537 0 is_stmt 0 discriminator 1
 1019 0022 072C     		cmp	r4, #7
 1020 0024 EFD9     		bls	.L86
 546:.\Generated_Source\PSoC5/CapSense_CSD_CSHL.c **** 
 1021              		.loc 1 546 0 is_stmt 1
 1022 0026 10BD     		pop	{r4, pc}
 1023              	.LVL132:
 1024              	.L89:
 1025              		.align	2
 1026              	.L88:
 1027 0028 00000000 		.word	CapSense_CSD_sensorEnableMask
 1028              		.cfi_endproc
 1029              	.LFE5:
 1030              		.size	CapSense_CSD_UpdateEnabledBaselines, .-CapSense_CSD_UpdateEnabledBaselines
 1031              		.section	.text.CapSense_CSD_JitterFilter,"ax",%progbits
 1032              		.align	2
 1033              		.global	CapSense_CSD_JitterFilter
 1034              		.thumb
 1035              		.thumb_func
 1036              		.type	CapSense_CSD_JitterFilter, %function
 1037              	CapSense_CSD_JitterFilter:
 1038              	.LFB15:
1958:.\Generated_Source\PSoC5/CapSense_CSD_CSHL.c **** #endif /* ( (CapSense_CSD_RAW_FILTER_MASK & CapSense_CSD_IIR4_FILTER) | \
1959:.\Generated_Source\PSoC5/CapSense_CSD_CSHL.c ****        *    (CapSense_CSD_POS_FILTERS_MASK & CapSense_CSD_IIR4_FILTER) )
1960:.\Generated_Source\PSoC5/CapSense_CSD_CSHL.c ****        */
1961:.\Generated_Source\PSoC5/CapSense_CSD_CSHL.c **** 
1962:.\Generated_Source\PSoC5/CapSense_CSD_CSHL.c **** 
1963:.\Generated_Source\PSoC5/CapSense_CSD_CSHL.c **** #if ( (CapSense_CSD_RAW_FILTER_MASK & CapSense_CSD_JITTER_FILTER) | \
1964:.\Generated_Source\PSoC5/CapSense_CSD_CSHL.c ****       (CapSense_CSD_POS_FILTERS_MASK & CapSense_CSD_JITTER_FILTER) )
1965:.\Generated_Source\PSoC5/CapSense_CSD_CSHL.c ****     /*******************************************************************************
1966:.\Generated_Source\PSoC5/CapSense_CSD_CSHL.c ****     * Function Name: uint16 CapSense_CSD_JitterFilter
1967:.\Generated_Source\PSoC5/CapSense_CSD_CSHL.c ****     ********************************************************************************
1968:.\Generated_Source\PSoC5/CapSense_CSD_CSHL.c ****     *
1969:.\Generated_Source\PSoC5/CapSense_CSD_CSHL.c ****     * Summary:
1970:.\Generated_Source\PSoC5/CapSense_CSD_CSHL.c ****     *  Jitter filter function.
1971:.\Generated_Source\PSoC5/CapSense_CSD_CSHL.c ****     *
1972:.\Generated_Source\PSoC5/CapSense_CSD_CSHL.c ****     * Parameters:
1973:.\Generated_Source\PSoC5/CapSense_CSD_CSHL.c ****     *  x1:  Current value.
1974:.\Generated_Source\PSoC5/CapSense_CSD_CSHL.c ****     *  x2:  Previous value.
1975:.\Generated_Source\PSoC5/CapSense_CSD_CSHL.c ****     *
1976:.\Generated_Source\PSoC5/CapSense_CSD_CSHL.c ****     * Return:
1977:.\Generated_Source\PSoC5/CapSense_CSD_CSHL.c ****     *  Returns filtered value.
1978:.\Generated_Source\PSoC5/CapSense_CSD_CSHL.c ****     *
1979:.\Generated_Source\PSoC5/CapSense_CSD_CSHL.c ****     *******************************************************************************/
1980:.\Generated_Source\PSoC5/CapSense_CSD_CSHL.c ****     uint16 CapSense_CSD_JitterFilter(uint16 x1, uint16 x2)
1981:.\Generated_Source\PSoC5/CapSense_CSD_CSHL.c ****                                          
1982:.\Generated_Source\PSoC5/CapSense_CSD_CSHL.c ****     {
 1039              		.loc 1 1982 0
 1040              		.cfi_startproc
 1041              		@ args = 0, pretend = 0, frame = 0
ARM GAS  C:\Users\LUKASC~1\AppData\Local\Temp\ccKrJm2d.s 			page 55


 1042              		@ frame_needed = 0, uses_anonymous_args = 0
 1043              		@ link register save eliminated.
 1044              	.LVL133:
1983:.\Generated_Source\PSoC5/CapSense_CSD_CSHL.c ****         if (x1 > x2)
 1045              		.loc 1 1983 0
 1046 0000 8842     		cmp	r0, r1
 1047 0002 02D9     		bls	.L91
1984:.\Generated_Source\PSoC5/CapSense_CSD_CSHL.c ****         {
1985:.\Generated_Source\PSoC5/CapSense_CSD_CSHL.c ****             x1--;
 1048              		.loc 1 1985 0
 1049 0004 0138     		subs	r0, r0, #1
 1050              	.LVL134:
 1051 0006 80B2     		uxth	r0, r0
 1052              	.LVL135:
 1053 0008 7047     		bx	lr
 1054              	.L91:
1986:.\Generated_Source\PSoC5/CapSense_CSD_CSHL.c ****         }
1987:.\Generated_Source\PSoC5/CapSense_CSD_CSHL.c ****         else
1988:.\Generated_Source\PSoC5/CapSense_CSD_CSHL.c ****         {
1989:.\Generated_Source\PSoC5/CapSense_CSD_CSHL.c ****             if (x1 < x2)
 1055              		.loc 1 1989 0
 1056 000a 8842     		cmp	r0, r1
 1057 000c 01D2     		bcs	.L92
1990:.\Generated_Source\PSoC5/CapSense_CSD_CSHL.c ****             {
1991:.\Generated_Source\PSoC5/CapSense_CSD_CSHL.c ****                 x1++;
 1058              		.loc 1 1991 0
 1059 000e 0130     		adds	r0, r0, #1
 1060              	.LVL136:
 1061 0010 80B2     		uxth	r0, r0
 1062              	.LVL137:
 1063              	.L92:
1992:.\Generated_Source\PSoC5/CapSense_CSD_CSHL.c ****             }
1993:.\Generated_Source\PSoC5/CapSense_CSD_CSHL.c ****         }
1994:.\Generated_Source\PSoC5/CapSense_CSD_CSHL.c ****     
1995:.\Generated_Source\PSoC5/CapSense_CSD_CSHL.c ****         return x1;
1996:.\Generated_Source\PSoC5/CapSense_CSD_CSHL.c ****     }
 1064              		.loc 1 1996 0
 1065 0012 7047     		bx	lr
 1066              		.cfi_endproc
 1067              	.LFE15:
 1068              		.size	CapSense_CSD_JitterFilter, .-CapSense_CSD_JitterFilter
 1069              		.section	.text.CapSense_CSD_GetCentroidPos,"ax",%progbits
 1070              		.align	2
 1071              		.global	CapSense_CSD_GetCentroidPos
 1072              		.thumb
 1073              		.thumb_func
 1074              		.type	CapSense_CSD_GetCentroidPos, %function
 1075              	CapSense_CSD_GetCentroidPos:
 1076              	.LFB13:
1213:.\Generated_Source\PSoC5/CapSense_CSD_CSHL.c ****         #if (CapSense_CSD_IS_DIPLEX_SLIDER)
 1077              		.loc 1 1213 0
 1078              		.cfi_startproc
 1079              		@ args = 0, pretend = 0, frame = 0
 1080              		@ frame_needed = 0, uses_anonymous_args = 0
 1081              	.LVL138:
 1082 0000 70B5     		push	{r4, r5, r6, lr}
 1083              		.cfi_def_cfa_offset 16
ARM GAS  C:\Users\LUKASC~1\AppData\Local\Temp\ccKrJm2d.s 			page 56


 1084              		.cfi_offset 4, -16
 1085              		.cfi_offset 5, -12
 1086              		.cfi_offset 6, -8
 1087              		.cfi_offset 14, -4
 1088 0002 82B0     		sub	sp, sp, #8
 1089              		.cfi_def_cfa_offset 24
 1090 0004 0446     		mov	r4, r0
1220:.\Generated_Source\PSoC5/CapSense_CSD_CSHL.c ****             uint8 posFiltersMask = CapSense_CSD_posFiltersMask[widget];  
 1091              		.loc 1 1220 0
 1092 0006 184B     		ldr	r3, .L98
 1093 0008 1A18     		adds	r2, r3, r0
 1094 000a 157B     		ldrb	r5, [r2, #12]	@ zero_extendqisi2
 1095              	.LVL139:
1252:.\Generated_Source\PSoC5/CapSense_CSD_CSHL.c ****         #endif /* (CapSense_CSD_IS_DIPLEX_SLIDER) */
 1096              		.loc 1 1252 0
 1097 000c 0020     		movs	r0, #0
 1098              	.LVL140:
 1099 000e 0821     		movs	r1, #8
 1100 0010 1A5D     		ldrb	r2, [r3, r4]	@ zero_extendqisi2
 1101 0012 FFF7FEFF 		bl	CapSense_CSD_FindMaximum
 1102              	.LVL141:
1255:.\Generated_Source\PSoC5/CapSense_CSD_CSHL.c ****         {
 1103              		.loc 1 1255 0
 1104 0016 FF28     		cmp	r0, #255
 1105 0018 1DD0     		beq	.L94
1258:.\Generated_Source\PSoC5/CapSense_CSD_CSHL.c ****                          offset, count, CapSense_CSD_centroidMult[widget], CapSense_CSD_noiseThresh
 1106              		.loc 1 1258 0
 1107 001a 134E     		ldr	r6, .L98
 1108 001c 3444     		add	r4, r4, r6
 1109 001e 237A     		ldrb	r3, [r4, #8]	@ zero_extendqisi2
 1110 0020 0093     		str	r3, [sp]
 1111 0022 0021     		movs	r1, #0
 1112 0024 0822     		movs	r2, #8
 1113 0026 41F22423 		movw	r3, #4644
 1114 002a FFF7FEFF 		bl	CapSense_CSD_CalcCentroid
 1115              	.LVL142:
 1116 002e 0246     		mov	r2, r0
 1117 0030 80B2     		uxth	r0, r0
 1118              	.LVL143:
1266:.\Generated_Source\PSoC5/CapSense_CSD_CSHL.c ****                     
 1119              		.loc 1 1266 0
 1120 0032 6B1C     		adds	r3, r5, #1
 1121 0034 DBB2     		uxtb	r3, r3
 1122              	.LVL144:
1268:.\Generated_Source\PSoC5/CapSense_CSD_CSHL.c ****                     {
 1123              		.loc 1 1268 0
 1124 0036 2E44     		add	r6, r6, r5
 1125 0038 317B     		ldrb	r1, [r6, #12]	@ zero_extendqisi2
 1126 003a 29B9     		cbnz	r1, .L95
1271:.\Generated_Source\PSoC5/CapSense_CSD_CSHL.c ****                         #if ((0u != (CapSense_CSD_MEDIAN_FILTER & \
 1127              		.loc 1 1271 0
 1128 003c 0A49     		ldr	r1, .L98
 1129 003e 0B44     		add	r3, r3, r1
 1130              	.LVL145:
 1131 0040 1A73     		strb	r2, [r3, #12]
1288:.\Generated_Source\PSoC5/CapSense_CSD_CSHL.c ****                     }
 1132              		.loc 1 1288 0
ARM GAS  C:\Users\LUKASC~1\AppData\Local\Temp\ccKrJm2d.s 			page 57


 1133 0042 0123     		movs	r3, #1
 1134              	.LVL146:
 1135 0044 3373     		strb	r3, [r6, #12]
 1136 0046 0CE0     		b	.L96
 1137              	.LVL147:
 1138              	.L95:
1348:.\Generated_Source\PSoC5/CapSense_CSD_CSHL.c ****                                 CapSense_CSD_posFiltersData[posIndex] = (uint8) position;
 1139              		.loc 1 1348 0
 1140 0048 074C     		ldr	r4, .L98
 1141 004a 1C44     		add	r4, r4, r3
1347:.\Generated_Source\PSoC5/CapSense_CSD_CSHL.c ****                                                                     (uint16)CapSense_CSD_posFilters
 1142              		.loc 1 1347 0
 1143 004c 217B     		ldrb	r1, [r4, #12]	@ zero_extendqisi2
 1144 004e FFF7FEFF 		bl	CapSense_CSD_JitterFilter
 1145              	.LVL148:
1349:.\Generated_Source\PSoC5/CapSense_CSD_CSHL.c ****                             }
 1146              		.loc 1 1349 0
 1147 0052 2073     		strb	r0, [r4, #12]
 1148 0054 05E0     		b	.L96
 1149              	.LVL149:
 1150              	.L94:
1368:.\Generated_Source\PSoC5/CapSense_CSD_CSHL.c ****                 }
 1151              		.loc 1 1368 0
 1152 0056 044B     		ldr	r3, .L98
 1153 0058 1D44     		add	r5, r5, r3
 1154              	.LVL150:
 1155 005a 0023     		movs	r3, #0
 1156 005c 2B73     		strb	r3, [r5, #12]
1362:.\Generated_Source\PSoC5/CapSense_CSD_CSHL.c **** 
 1157              		.loc 1 1362 0
 1158 005e 4FF6FF70 		movw	r0, #65535
 1159              	.LVL151:
 1160              	.L96:
1375:.\Generated_Source\PSoC5/CapSense_CSD_CSHL.c **** #endif /* (CapSense_CSD_TOTAL_LINEAR_SLIDERS_COUNT > 0u) */
 1161              		.loc 1 1375 0
 1162 0062 02B0     		add	sp, sp, #8
 1163              		.cfi_def_cfa_offset 16
 1164              		@ sp needed
 1165 0064 70BD     		pop	{r4, r5, r6, pc}
 1166              	.L99:
 1167 0066 00BF     		.align	2
 1168              	.L98:
 1169 0068 00000000 		.word	.LANCHOR0
 1170              		.cfi_endproc
 1171              	.LFE13:
 1172              		.size	CapSense_CSD_GetCentroidPos, .-CapSense_CSD_GetCentroidPos
 1173              		.global	CapSense_CSD_posFiltersData
 1174              		.global	CapSense_CSD_posFiltersMask
 1175              		.global	CapSense_CSD_centroidMult
 1176              		.global	CapSense_CSD_numberOfSensors
 1177              		.global	CapSense_CSD_rawDataIndex
 1178              		.global	CapSense_CSD_debounceCounter
 1179              		.global	CapSense_CSD_debounce
 1180              		.global	CapSense_CSD_hysteresis
 1181              		.global	CapSense_CSD_noiseThreshold
 1182              		.global	CapSense_CSD_fingerThreshold
 1183              		.comm	CapSense_CSD_lowBaselineResetCnt,8,4
ARM GAS  C:\Users\LUKASC~1\AppData\Local\Temp\ccKrJm2d.s 			page 58


 1184              		.comm	CapSense_CSD_sensorOnMask,1,4
 1185              		.comm	CapSense_CSD_sensorSignal,8,4
 1186              		.comm	CapSense_CSD_sensorBaselineLow,8,4
 1187              		.comm	CapSense_CSD_sensorBaseline,16,4
 1188              		.comm	CapSense_CSD_rawFilterData1,16,4
 1189              		.section	.rodata
 1190              		.align	2
 1191              		.type	CapSense_CSD_posFiltersMask, %object
 1192              		.size	CapSense_CSD_posFiltersMask, 1
 1193              	CapSense_CSD_posFiltersMask:
 1194 0000 16       		.byte	22
 1195 0001 000000   		.space	3
 1196              		.type	CapSense_CSD_centroidMult, %object
 1197              		.size	CapSense_CSD_centroidMult, 2
 1198              	CapSense_CSD_centroidMult:
 1199 0004 2412     		.short	4644
 1200 0006 0000     		.space	2
 1201              		.type	CapSense_CSD_numberOfSensors, %object
 1202              		.size	CapSense_CSD_numberOfSensors, 1
 1203              	CapSense_CSD_numberOfSensors:
 1204 0008 08       		.byte	8
 1205 0009 000000   		.space	3
 1206              		.type	CapSense_CSD_rawDataIndex, %object
 1207              		.size	CapSense_CSD_rawDataIndex, 1
 1208              	CapSense_CSD_rawDataIndex:
 1209 000c 00       		.space	1
 1210 000d 000000   		.data
 1211              		.align	2
 1212              		.set	.LANCHOR0,. + 0
 1213              		.type	CapSense_CSD_fingerThreshold, %object
 1214              		.size	CapSense_CSD_fingerThreshold, 1
