ARM GAS  C:\Users\LUKASC~1\AppData\Local\Temp\cczKFJhz.s 			page 1


   1              		.syntax unified
   2              		.cpu cortex-m3
   3              		.fpu softvfp
   4              		.eabi_attribute 20, 1
   5              		.eabi_attribute 21, 1
   6              		.eabi_attribute 23, 3
   7              		.eabi_attribute 24, 1
   8              		.eabi_attribute 25, 1
   9              		.eabi_attribute 26, 1
  10              		.eabi_attribute 30, 1
  11              		.eabi_attribute 34, 1
  12              		.eabi_attribute 18, 4
  13              		.thumb
  14              		.file	"cyfitter_cfg.c"
  15              		.text
  16              	.Ltext0:
  17              		.cfi_sections	.debug_frame
  18              		.section	.text.CyClockStartupError,"ax",%progbits
  19              		.align	2
  20              		.thumb
  21              		.thumb_func
  22              		.type	CyClockStartupError, %function
  23              	CyClockStartupError:
  24              	.LFB3:
  25              		.file 1 ".\\Generated_Source\\PSoC5\\cyfitter_cfg.c"
   1:.\Generated_Source\PSoC5/cyfitter_cfg.c **** /*******************************************************************************
   2:.\Generated_Source\PSoC5/cyfitter_cfg.c **** * File Name: cyfitter_cfg.c
   3:.\Generated_Source\PSoC5/cyfitter_cfg.c **** * 
   4:.\Generated_Source\PSoC5/cyfitter_cfg.c **** * PSoC Creator  3.3 SP1
   5:.\Generated_Source\PSoC5/cyfitter_cfg.c **** *
   6:.\Generated_Source\PSoC5/cyfitter_cfg.c **** * Description:
   7:.\Generated_Source\PSoC5/cyfitter_cfg.c **** * This file contains device initialization code.
   8:.\Generated_Source\PSoC5/cyfitter_cfg.c **** * Except for the user defined sections in CyClockStartupError(), this file should not be modified.
   9:.\Generated_Source\PSoC5/cyfitter_cfg.c **** * This file is automatically generated by PSoC Creator.
  10:.\Generated_Source\PSoC5/cyfitter_cfg.c **** *
  11:.\Generated_Source\PSoC5/cyfitter_cfg.c **** ********************************************************************************
  12:.\Generated_Source\PSoC5/cyfitter_cfg.c **** * Copyright (c) 2007-2015 Cypress Semiconductor.  All rights reserved.
  13:.\Generated_Source\PSoC5/cyfitter_cfg.c **** * You may use this file only in accordance with the license, terms, conditions, 
  14:.\Generated_Source\PSoC5/cyfitter_cfg.c **** * disclaimers, and limitations in the end user license agreement accompanying 
  15:.\Generated_Source\PSoC5/cyfitter_cfg.c **** * the software package with which this file was provided.
  16:.\Generated_Source\PSoC5/cyfitter_cfg.c **** ********************************************************************************/
  17:.\Generated_Source\PSoC5/cyfitter_cfg.c **** 
  18:.\Generated_Source\PSoC5/cyfitter_cfg.c **** #include <string.h>
  19:.\Generated_Source\PSoC5/cyfitter_cfg.c **** #include "cytypes.h"
  20:.\Generated_Source\PSoC5/cyfitter_cfg.c **** #include "cydevice_trm.h"
  21:.\Generated_Source\PSoC5/cyfitter_cfg.c **** #include "cyfitter.h"
  22:.\Generated_Source\PSoC5/cyfitter_cfg.c **** #include "CyLib.h"
  23:.\Generated_Source\PSoC5/cyfitter_cfg.c **** #include "cyfitter_cfg.h"
  24:.\Generated_Source\PSoC5/cyfitter_cfg.c **** 
  25:.\Generated_Source\PSoC5/cyfitter_cfg.c **** #define CY_NEED_CYCLOCKSTARTUPERROR 1
  26:.\Generated_Source\PSoC5/cyfitter_cfg.c **** 
  27:.\Generated_Source\PSoC5/cyfitter_cfg.c **** 
  28:.\Generated_Source\PSoC5/cyfitter_cfg.c **** #if defined(__GNUC__) || defined(__ARMCC_VERSION)
  29:.\Generated_Source\PSoC5/cyfitter_cfg.c ****     #define CYPACKED 
  30:.\Generated_Source\PSoC5/cyfitter_cfg.c ****     #define CYPACKED_ATTR __attribute__ ((packed))
  31:.\Generated_Source\PSoC5/cyfitter_cfg.c ****     #define CYALIGNED __attribute__ ((aligned))
  32:.\Generated_Source\PSoC5/cyfitter_cfg.c ****     #define CY_CFG_UNUSED __attribute__ ((unused))
ARM GAS  C:\Users\LUKASC~1\AppData\Local\Temp\cczKFJhz.s 			page 2


  33:.\Generated_Source\PSoC5/cyfitter_cfg.c ****     #ifndef CY_CFG_SECTION
  34:.\Generated_Source\PSoC5/cyfitter_cfg.c ****         #define CY_CFG_SECTION __attribute__ ((section(".psocinit")))
  35:.\Generated_Source\PSoC5/cyfitter_cfg.c ****     #endif
  36:.\Generated_Source\PSoC5/cyfitter_cfg.c ****     
  37:.\Generated_Source\PSoC5/cyfitter_cfg.c ****     #if defined(__ARMCC_VERSION)
  38:.\Generated_Source\PSoC5/cyfitter_cfg.c ****         #define CY_CFG_MEMORY_BARRIER() __memory_changed()
  39:.\Generated_Source\PSoC5/cyfitter_cfg.c ****     #else
  40:.\Generated_Source\PSoC5/cyfitter_cfg.c ****         #define CY_CFG_MEMORY_BARRIER() __sync_synchronize()
  41:.\Generated_Source\PSoC5/cyfitter_cfg.c ****     #endif
  42:.\Generated_Source\PSoC5/cyfitter_cfg.c ****     
  43:.\Generated_Source\PSoC5/cyfitter_cfg.c **** #elif defined(__ICCARM__)
  44:.\Generated_Source\PSoC5/cyfitter_cfg.c ****     #include <intrinsics.h>
  45:.\Generated_Source\PSoC5/cyfitter_cfg.c **** 
  46:.\Generated_Source\PSoC5/cyfitter_cfg.c ****     #define CYPACKED __packed
  47:.\Generated_Source\PSoC5/cyfitter_cfg.c ****     #define CYPACKED_ATTR 
  48:.\Generated_Source\PSoC5/cyfitter_cfg.c ****     #define CYALIGNED _Pragma("data_alignment=4")
  49:.\Generated_Source\PSoC5/cyfitter_cfg.c ****     #define CY_CFG_UNUSED _Pragma("diag_suppress=Pe177")
  50:.\Generated_Source\PSoC5/cyfitter_cfg.c ****     #define CY_CFG_SECTION _Pragma("location=\".psocinit\"")
  51:.\Generated_Source\PSoC5/cyfitter_cfg.c ****     
  52:.\Generated_Source\PSoC5/cyfitter_cfg.c ****     #define CY_CFG_MEMORY_BARRIER() __DMB()
  53:.\Generated_Source\PSoC5/cyfitter_cfg.c ****     
  54:.\Generated_Source\PSoC5/cyfitter_cfg.c **** #else
  55:.\Generated_Source\PSoC5/cyfitter_cfg.c ****     #error Unsupported toolchain
  56:.\Generated_Source\PSoC5/cyfitter_cfg.c **** #endif
  57:.\Generated_Source\PSoC5/cyfitter_cfg.c **** 
  58:.\Generated_Source\PSoC5/cyfitter_cfg.c **** 
  59:.\Generated_Source\PSoC5/cyfitter_cfg.c **** CY_CFG_UNUSED
  60:.\Generated_Source\PSoC5/cyfitter_cfg.c **** static void CYMEMZERO(void *s, size_t n);
  61:.\Generated_Source\PSoC5/cyfitter_cfg.c **** CY_CFG_UNUSED
  62:.\Generated_Source\PSoC5/cyfitter_cfg.c **** static void CYMEMZERO(void *s, size_t n)
  63:.\Generated_Source\PSoC5/cyfitter_cfg.c **** {
  64:.\Generated_Source\PSoC5/cyfitter_cfg.c **** 	(void)memset(s, 0, n);
  65:.\Generated_Source\PSoC5/cyfitter_cfg.c **** }
  66:.\Generated_Source\PSoC5/cyfitter_cfg.c **** CY_CFG_UNUSED
  67:.\Generated_Source\PSoC5/cyfitter_cfg.c **** static void CYCONFIGCPY(void *dest, const void *src, size_t n);
  68:.\Generated_Source\PSoC5/cyfitter_cfg.c **** CY_CFG_UNUSED
  69:.\Generated_Source\PSoC5/cyfitter_cfg.c **** static void CYCONFIGCPY(void *dest, const void *src, size_t n)
  70:.\Generated_Source\PSoC5/cyfitter_cfg.c **** {
  71:.\Generated_Source\PSoC5/cyfitter_cfg.c **** 	(void)memcpy(dest, src, n);
  72:.\Generated_Source\PSoC5/cyfitter_cfg.c **** }
  73:.\Generated_Source\PSoC5/cyfitter_cfg.c **** CY_CFG_UNUSED
  74:.\Generated_Source\PSoC5/cyfitter_cfg.c **** static void CYCONFIGCPYCODE(void *dest, const void *src, size_t n);
  75:.\Generated_Source\PSoC5/cyfitter_cfg.c **** CY_CFG_UNUSED
  76:.\Generated_Source\PSoC5/cyfitter_cfg.c **** static void CYCONFIGCPYCODE(void *dest, const void *src, size_t n)
  77:.\Generated_Source\PSoC5/cyfitter_cfg.c **** {
  78:.\Generated_Source\PSoC5/cyfitter_cfg.c **** 	(void)memcpy(dest, src, n);
  79:.\Generated_Source\PSoC5/cyfitter_cfg.c **** }
  80:.\Generated_Source\PSoC5/cyfitter_cfg.c **** 
  81:.\Generated_Source\PSoC5/cyfitter_cfg.c **** 
  82:.\Generated_Source\PSoC5/cyfitter_cfg.c **** 
  83:.\Generated_Source\PSoC5/cyfitter_cfg.c **** /* Clock startup error codes                                                   */
  84:.\Generated_Source\PSoC5/cyfitter_cfg.c **** #define CYCLOCKSTART_NO_ERROR    0u
  85:.\Generated_Source\PSoC5/cyfitter_cfg.c **** #define CYCLOCKSTART_XTAL_ERROR  1u
  86:.\Generated_Source\PSoC5/cyfitter_cfg.c **** #define CYCLOCKSTART_32KHZ_ERROR 2u
  87:.\Generated_Source\PSoC5/cyfitter_cfg.c **** #define CYCLOCKSTART_PLL_ERROR   3u
  88:.\Generated_Source\PSoC5/cyfitter_cfg.c **** 
  89:.\Generated_Source\PSoC5/cyfitter_cfg.c **** #ifdef CY_NEED_CYCLOCKSTARTUPERROR
ARM GAS  C:\Users\LUKASC~1\AppData\Local\Temp\cczKFJhz.s 			page 3


  90:.\Generated_Source\PSoC5/cyfitter_cfg.c **** /*******************************************************************************
  91:.\Generated_Source\PSoC5/cyfitter_cfg.c **** * Function Name: CyClockStartupError
  92:.\Generated_Source\PSoC5/cyfitter_cfg.c **** ********************************************************************************
  93:.\Generated_Source\PSoC5/cyfitter_cfg.c **** * Summary:
  94:.\Generated_Source\PSoC5/cyfitter_cfg.c **** *  If an error is encountered during clock configuration (crystal startup error,
  95:.\Generated_Source\PSoC5/cyfitter_cfg.c **** *  PLL lock error, etc.), the system will end up here.  Unless reimplemented by
  96:.\Generated_Source\PSoC5/cyfitter_cfg.c **** *  the customer, this function will stop in an infinite loop.
  97:.\Generated_Source\PSoC5/cyfitter_cfg.c **** *
  98:.\Generated_Source\PSoC5/cyfitter_cfg.c **** * Parameters:
  99:.\Generated_Source\PSoC5/cyfitter_cfg.c **** *   void
 100:.\Generated_Source\PSoC5/cyfitter_cfg.c **** *
 101:.\Generated_Source\PSoC5/cyfitter_cfg.c **** * Return:
 102:.\Generated_Source\PSoC5/cyfitter_cfg.c **** *   void
 103:.\Generated_Source\PSoC5/cyfitter_cfg.c **** *
 104:.\Generated_Source\PSoC5/cyfitter_cfg.c **** *******************************************************************************/
 105:.\Generated_Source\PSoC5/cyfitter_cfg.c **** CY_CFG_UNUSED
 106:.\Generated_Source\PSoC5/cyfitter_cfg.c **** static void CyClockStartupError(uint8 errorCode);
 107:.\Generated_Source\PSoC5/cyfitter_cfg.c **** CY_CFG_UNUSED
 108:.\Generated_Source\PSoC5/cyfitter_cfg.c **** static void CyClockStartupError(uint8 errorCode)
 109:.\Generated_Source\PSoC5/cyfitter_cfg.c **** {
  26              		.loc 1 109 0
  27              		.cfi_startproc
  28              		@ Volatile: function does not return.
  29              		@ args = 0, pretend = 0, frame = 0
  30              		@ frame_needed = 0, uses_anonymous_args = 0
  31              		@ link register save eliminated.
  32              	.LVL0:
  33              	.L2:
 110:.\Generated_Source\PSoC5/cyfitter_cfg.c ****     /* To remove the compiler warning if errorCode not used.                */
 111:.\Generated_Source\PSoC5/cyfitter_cfg.c ****     errorCode = errorCode;
 112:.\Generated_Source\PSoC5/cyfitter_cfg.c **** 
 113:.\Generated_Source\PSoC5/cyfitter_cfg.c ****     /* `#START CyClockStartupError` */
 114:.\Generated_Source\PSoC5/cyfitter_cfg.c **** 
 115:.\Generated_Source\PSoC5/cyfitter_cfg.c ****     /* If we have a clock startup error (bad MHz crystal, PLL lock, etc.),  */
 116:.\Generated_Source\PSoC5/cyfitter_cfg.c ****     /* we will end up here to allow the customer to implement something to  */
 117:.\Generated_Source\PSoC5/cyfitter_cfg.c ****     /* deal with the clock condition.                                       */
 118:.\Generated_Source\PSoC5/cyfitter_cfg.c **** 
 119:.\Generated_Source\PSoC5/cyfitter_cfg.c ****     /* `#END` */
 120:.\Generated_Source\PSoC5/cyfitter_cfg.c **** 
 121:.\Generated_Source\PSoC5/cyfitter_cfg.c ****     /* If nothing else, stop here since the clocks have not started         */
 122:.\Generated_Source\PSoC5/cyfitter_cfg.c ****     /* correctly.                                                           */
 123:.\Generated_Source\PSoC5/cyfitter_cfg.c ****     while(1) {}
  34              		.loc 1 123 0 discriminator 1
  35 0000 FEE7     		b	.L2
  36              		.cfi_endproc
  37              	.LFE3:
  38              		.size	CyClockStartupError, .-CyClockStartupError
  39 0002 00BF     		.section	.text.cfg_write_bytes32,"ax",%progbits
  40              		.align	2
  41              		.thumb
  42              		.thumb_func
  43              		.type	cfg_write_bytes32, %function
  44              	cfg_write_bytes32:
  45              	.LFB4:
 124:.\Generated_Source\PSoC5/cyfitter_cfg.c **** }
 125:.\Generated_Source\PSoC5/cyfitter_cfg.c **** #endif
 126:.\Generated_Source\PSoC5/cyfitter_cfg.c **** 
ARM GAS  C:\Users\LUKASC~1\AppData\Local\Temp\cczKFJhz.s 			page 4


 127:.\Generated_Source\PSoC5/cyfitter_cfg.c **** #define CY_CFG_BASE_ADDR_COUNT 30u
 128:.\Generated_Source\PSoC5/cyfitter_cfg.c **** CYPACKED typedef struct
 129:.\Generated_Source\PSoC5/cyfitter_cfg.c **** {
 130:.\Generated_Source\PSoC5/cyfitter_cfg.c **** 	uint8 offset;
 131:.\Generated_Source\PSoC5/cyfitter_cfg.c **** 	uint8 value;
 132:.\Generated_Source\PSoC5/cyfitter_cfg.c **** } CYPACKED_ATTR cy_cfg_addrvalue_t;
 133:.\Generated_Source\PSoC5/cyfitter_cfg.c **** 
 134:.\Generated_Source\PSoC5/cyfitter_cfg.c **** #define cy_cfg_addr_table ((const uint32 CYFAR *)0x48000000u)
 135:.\Generated_Source\PSoC5/cyfitter_cfg.c **** #define cy_cfg_data_table ((const cy_cfg_addrvalue_t CYFAR *)0x48000078u)
 136:.\Generated_Source\PSoC5/cyfitter_cfg.c **** 
 137:.\Generated_Source\PSoC5/cyfitter_cfg.c **** /* IOPINS0_8 Address: CYREG_PRT15_DR Size (bytes): 10 */
 138:.\Generated_Source\PSoC5/cyfitter_cfg.c **** #define BS_IOPINS0_8_VAL ((const uint8 CYFAR *)0x480003C8u)
 139:.\Generated_Source\PSoC5/cyfitter_cfg.c **** 
 140:.\Generated_Source\PSoC5/cyfitter_cfg.c **** /* IOPINS0_1 Address: CYREG_PRT1_DM0 Size (bytes): 8 */
 141:.\Generated_Source\PSoC5/cyfitter_cfg.c **** #define BS_IOPINS0_1_VAL ((const uint8 CYFAR *)0x480003D4u)
 142:.\Generated_Source\PSoC5/cyfitter_cfg.c **** 
 143:.\Generated_Source\PSoC5/cyfitter_cfg.c **** /* IOPINS0_2 Address: CYREG_PRT2_DR Size (bytes): 10 */
 144:.\Generated_Source\PSoC5/cyfitter_cfg.c **** #define BS_IOPINS0_2_VAL ((const uint8 CYFAR *)0x480003DCu)
 145:.\Generated_Source\PSoC5/cyfitter_cfg.c **** 
 146:.\Generated_Source\PSoC5/cyfitter_cfg.c **** /* IOPINS0_3 Address: CYREG_PRT3_DM0 Size (bytes): 8 */
 147:.\Generated_Source\PSoC5/cyfitter_cfg.c **** #define BS_IOPINS0_3_VAL ((const uint8 CYFAR *)0x480003E8u)
 148:.\Generated_Source\PSoC5/cyfitter_cfg.c **** 
 149:.\Generated_Source\PSoC5/cyfitter_cfg.c **** 
 150:.\Generated_Source\PSoC5/cyfitter_cfg.c **** /*******************************************************************************
 151:.\Generated_Source\PSoC5/cyfitter_cfg.c **** * Function Name: cfg_write_bytes32
 152:.\Generated_Source\PSoC5/cyfitter_cfg.c **** ********************************************************************************
 153:.\Generated_Source\PSoC5/cyfitter_cfg.c **** * Summary:
 154:.\Generated_Source\PSoC5/cyfitter_cfg.c **** *  This function is used for setting up the chip configuration areas that
 155:.\Generated_Source\PSoC5/cyfitter_cfg.c **** *  contain relatively sparse data.
 156:.\Generated_Source\PSoC5/cyfitter_cfg.c **** *
 157:.\Generated_Source\PSoC5/cyfitter_cfg.c **** * Parameters:
 158:.\Generated_Source\PSoC5/cyfitter_cfg.c **** *   void
 159:.\Generated_Source\PSoC5/cyfitter_cfg.c **** *
 160:.\Generated_Source\PSoC5/cyfitter_cfg.c **** * Return:
 161:.\Generated_Source\PSoC5/cyfitter_cfg.c **** *   void
 162:.\Generated_Source\PSoC5/cyfitter_cfg.c **** *
 163:.\Generated_Source\PSoC5/cyfitter_cfg.c **** *******************************************************************************/
 164:.\Generated_Source\PSoC5/cyfitter_cfg.c **** static void cfg_write_bytes32(const uint32 addr_table[], const cy_cfg_addrvalue_t data_table[]);
 165:.\Generated_Source\PSoC5/cyfitter_cfg.c **** static void cfg_write_bytes32(const uint32 addr_table[], const cy_cfg_addrvalue_t data_table[])
 166:.\Generated_Source\PSoC5/cyfitter_cfg.c **** {
  46              		.loc 1 166 0
  47              		.cfi_startproc
  48              		@ args = 0, pretend = 0, frame = 0
  49              		@ frame_needed = 0, uses_anonymous_args = 0
  50              		@ link register save eliminated.
  51              	.LVL1:
  52 0000 F0B4     		push	{r4, r5, r6, r7}
  53              		.cfi_def_cfa_offset 16
  54              		.cfi_offset 4, -16
  55              		.cfi_offset 5, -12
  56              		.cfi_offset 6, -8
  57              		.cfi_offset 7, -4
  58              	.LVL2:
 167:.\Generated_Source\PSoC5/cyfitter_cfg.c **** 	/* For 32-bit little-endian architectures */
 168:.\Generated_Source\PSoC5/cyfitter_cfg.c **** 	uint32 i, j = 0u;
  59              		.loc 1 168 0
  60 0002 0022     		movs	r2, #0
ARM GAS  C:\Users\LUKASC~1\AppData\Local\Temp\cczKFJhz.s 			page 5


 169:.\Generated_Source\PSoC5/cyfitter_cfg.c **** 	for (i = 0u; i < CY_CFG_BASE_ADDR_COUNT; i++)
  61              		.loc 1 169 0
  62 0004 1746     		mov	r7, r2
  63 0006 11E0     		b	.L4
  64              	.LVL3:
  65              	.L7:
  66              	.LBB2:
 170:.\Generated_Source\PSoC5/cyfitter_cfg.c **** 	{
 171:.\Generated_Source\PSoC5/cyfitter_cfg.c **** 		uint32 baseAddr = addr_table[i];
  67              		.loc 1 171 0
  68 0008 50F82760 		ldr	r6, [r0, r7, lsl #2]
  69              	.LVL4:
 172:.\Generated_Source\PSoC5/cyfitter_cfg.c **** 		uint8 count = (uint8)baseAddr;
  70              		.loc 1 172 0
  71 000c F3B2     		uxtb	r3, r6
  72              	.LVL5:
 173:.\Generated_Source\PSoC5/cyfitter_cfg.c **** 		baseAddr &= 0xFFFFFF00u;
  73              		.loc 1 173 0
  74 000e 26F0FF06 		bic	r6, r6, #255
  75              	.LVL6:
 174:.\Generated_Source\PSoC5/cyfitter_cfg.c **** 		while (count != 0u)
  76              		.loc 1 174 0
  77 0012 08E0     		b	.L5
  78              	.L6:
 175:.\Generated_Source\PSoC5/cyfitter_cfg.c **** 		{
 176:.\Generated_Source\PSoC5/cyfitter_cfg.c **** 			CY_SET_XTND_REG8((void CYFAR *)(baseAddr + data_table[j].offset), data_table[j].value);
  79              		.loc 1 176 0
  80 0014 01EB4205 		add	r5, r1, r2, lsl #1
  81 0018 11F81240 		ldrb	r4, [r1, r2, lsl #1]	@ zero_extendqisi2
  82 001c 6D78     		ldrb	r5, [r5, #1]	@ zero_extendqisi2
  83 001e A555     		strb	r5, [r4, r6]
 177:.\Generated_Source\PSoC5/cyfitter_cfg.c **** 			j++;
  84              		.loc 1 177 0
  85 0020 0132     		adds	r2, r2, #1
  86              	.LVL7:
 178:.\Generated_Source\PSoC5/cyfitter_cfg.c **** 			count--;
  87              		.loc 1 178 0
  88 0022 013B     		subs	r3, r3, #1
  89              	.LVL8:
  90 0024 DBB2     		uxtb	r3, r3
  91              	.LVL9:
  92              	.L5:
 174:.\Generated_Source\PSoC5/cyfitter_cfg.c **** 		{
  93              		.loc 1 174 0
  94 0026 002B     		cmp	r3, #0
  95 0028 F4D1     		bne	.L6
  96              	.LBE2:
 169:.\Generated_Source\PSoC5/cyfitter_cfg.c **** 	{
  97              		.loc 1 169 0 discriminator 2
  98 002a 0137     		adds	r7, r7, #1
  99              	.LVL10:
 100              	.L4:
 169:.\Generated_Source\PSoC5/cyfitter_cfg.c **** 	{
 101              		.loc 1 169 0 is_stmt 0 discriminator 1
 102 002c 1D2F     		cmp	r7, #29
 103 002e EBD9     		bls	.L7
 179:.\Generated_Source\PSoC5/cyfitter_cfg.c **** 		}
ARM GAS  C:\Users\LUKASC~1\AppData\Local\Temp\cczKFJhz.s 			page 6


 180:.\Generated_Source\PSoC5/cyfitter_cfg.c **** 	}
 181:.\Generated_Source\PSoC5/cyfitter_cfg.c **** }
 104              		.loc 1 181 0 is_stmt 1
 105 0030 F0BC     		pop	{r4, r5, r6, r7}
 106              		.cfi_restore 7
 107              		.cfi_restore 6
 108              		.cfi_restore 5
 109              		.cfi_restore 4
 110              		.cfi_def_cfa_offset 0
 111              	.LVL11:
 112 0032 7047     		bx	lr
 113              		.cfi_endproc
 114              	.LFE4:
 115              		.size	cfg_write_bytes32, .-cfg_write_bytes32
 116              		.section	.text.AnalogSetDefault,"ax",%progbits
 117              		.align	2
 118              		.thumb
 119              		.thumb_func
 120              		.type	AnalogSetDefault, %function
 121              	AnalogSetDefault:
 122              	.LFB6:
 182:.\Generated_Source\PSoC5/cyfitter_cfg.c **** 
 183:.\Generated_Source\PSoC5/cyfitter_cfg.c **** /*******************************************************************************
 184:.\Generated_Source\PSoC5/cyfitter_cfg.c **** * Function Name: ClockSetup
 185:.\Generated_Source\PSoC5/cyfitter_cfg.c **** ********************************************************************************
 186:.\Generated_Source\PSoC5/cyfitter_cfg.c **** *
 187:.\Generated_Source\PSoC5/cyfitter_cfg.c **** * Summary:
 188:.\Generated_Source\PSoC5/cyfitter_cfg.c **** *  Performs the initialization of all of the clocks in the device based on the
 189:.\Generated_Source\PSoC5/cyfitter_cfg.c **** *  settings in the Clock tab of the DWR.  This includes enabling the requested
 190:.\Generated_Source\PSoC5/cyfitter_cfg.c **** *  clocks and setting the necessary dividers to produce the desired frequency. 
 191:.\Generated_Source\PSoC5/cyfitter_cfg.c **** *
 192:.\Generated_Source\PSoC5/cyfitter_cfg.c **** * Parameters:
 193:.\Generated_Source\PSoC5/cyfitter_cfg.c **** *  void
 194:.\Generated_Source\PSoC5/cyfitter_cfg.c **** *
 195:.\Generated_Source\PSoC5/cyfitter_cfg.c **** * Return:
 196:.\Generated_Source\PSoC5/cyfitter_cfg.c **** *  void
 197:.\Generated_Source\PSoC5/cyfitter_cfg.c **** *
 198:.\Generated_Source\PSoC5/cyfitter_cfg.c **** *******************************************************************************/
 199:.\Generated_Source\PSoC5/cyfitter_cfg.c **** static void ClockSetup(void);
 200:.\Generated_Source\PSoC5/cyfitter_cfg.c **** static void ClockSetup(void)
 201:.\Generated_Source\PSoC5/cyfitter_cfg.c **** {
 202:.\Generated_Source\PSoC5/cyfitter_cfg.c **** 	uint32 timeout;
 203:.\Generated_Source\PSoC5/cyfitter_cfg.c **** 	uint8 pllLock;
 204:.\Generated_Source\PSoC5/cyfitter_cfg.c **** 
 205:.\Generated_Source\PSoC5/cyfitter_cfg.c **** 
 206:.\Generated_Source\PSoC5/cyfitter_cfg.c **** 	/* Configure Digital Clocks based on settings from Clock DWR */
 207:.\Generated_Source\PSoC5/cyfitter_cfg.c **** 	CY_SET_XTND_REG16((void CYFAR *)(CYREG_CLKDIST_DCFG0_CFG0), 0x0001u);
 208:.\Generated_Source\PSoC5/cyfitter_cfg.c **** 	CY_SET_XTND_REG8((void CYFAR *)(CYREG_CLKDIST_DCFG0_CFG0 + 0x2u), 0x18u);
 209:.\Generated_Source\PSoC5/cyfitter_cfg.c **** 
 210:.\Generated_Source\PSoC5/cyfitter_cfg.c **** 	/* Configure ILO based on settings from Clock DWR */
 211:.\Generated_Source\PSoC5/cyfitter_cfg.c **** 	CY_SET_XTND_REG8((void CYFAR *)(CYREG_SLOWCLK_ILO_CR0), 0x06u);
 212:.\Generated_Source\PSoC5/cyfitter_cfg.c **** 
 213:.\Generated_Source\PSoC5/cyfitter_cfg.c **** 	/* Configure XTAL based on settings from Clock DWR */
 214:.\Generated_Source\PSoC5/cyfitter_cfg.c **** 	CY_SET_XTND_REG16((void CYFAR *)(CYREG_FASTCLK_XMHZ_CFG0), 0x3313u);
 215:.\Generated_Source\PSoC5/cyfitter_cfg.c **** 	CY_SET_XTND_REG8((void CYFAR *)(CYREG_FASTCLK_XMHZ_CSR), 0x05u);
 216:.\Generated_Source\PSoC5/cyfitter_cfg.c **** 	/* Wait up to 130000us for the XTAL to lock */
 217:.\Generated_Source\PSoC5/cyfitter_cfg.c **** 	CY_GET_XTND_REG8((void CYFAR *)CYREG_FASTCLK_XMHZ_CSR);
ARM GAS  C:\Users\LUKASC~1\AppData\Local\Temp\cczKFJhz.s 			page 7


 218:.\Generated_Source\PSoC5/cyfitter_cfg.c **** 	for (timeout = 130000u / 10u; (timeout > 0u) && ((CY_GET_XTND_REG8((void CYFAR *)CYREG_FASTCLK_XMH
 219:.\Generated_Source\PSoC5/cyfitter_cfg.c **** 	{ 
 220:.\Generated_Source\PSoC5/cyfitter_cfg.c **** 		
 221:.\Generated_Source\PSoC5/cyfitter_cfg.c **** 		CyDelayCycles(10u * 48u); /* Delay 10us based on 48MHz clock */
 222:.\Generated_Source\PSoC5/cyfitter_cfg.c **** 	}
 223:.\Generated_Source\PSoC5/cyfitter_cfg.c **** 	if (timeout == 0u)
 224:.\Generated_Source\PSoC5/cyfitter_cfg.c **** 	{
 225:.\Generated_Source\PSoC5/cyfitter_cfg.c **** 		CyClockStartupError(CYCLOCKSTART_XTAL_ERROR);
 226:.\Generated_Source\PSoC5/cyfitter_cfg.c **** 	}
 227:.\Generated_Source\PSoC5/cyfitter_cfg.c **** 	CY_SET_XTND_REG8((void CYFAR *)(CYREG_CLKDIST_CR), 0x40u);
 228:.\Generated_Source\PSoC5/cyfitter_cfg.c **** 
 229:.\Generated_Source\PSoC5/cyfitter_cfg.c **** 	/* Configure IMO based on settings from Clock DWR */
 230:.\Generated_Source\PSoC5/cyfitter_cfg.c **** 	CY_SET_XTND_REG8((void CYFAR *)(CYREG_FASTCLK_IMO_CR), 0x70u);
 231:.\Generated_Source\PSoC5/cyfitter_cfg.c **** 
 232:.\Generated_Source\PSoC5/cyfitter_cfg.c **** 	/* Configure PLL based on settings from Clock DWR */
 233:.\Generated_Source\PSoC5/cyfitter_cfg.c **** 	CY_SET_XTND_REG16((void CYFAR *)(CYREG_FASTCLK_PLL_P), 0x0708u);
 234:.\Generated_Source\PSoC5/cyfitter_cfg.c **** 	CY_SET_XTND_REG16((void CYFAR *)(CYREG_FASTCLK_PLL_CFG0), 0x1251u);
 235:.\Generated_Source\PSoC5/cyfitter_cfg.c **** 	/* Wait up to 250us for the PLL to lock */
 236:.\Generated_Source\PSoC5/cyfitter_cfg.c **** 	pllLock = 0u;
 237:.\Generated_Source\PSoC5/cyfitter_cfg.c **** 	for (timeout = 250u / 10u; (timeout > 0u) && (pllLock != 0x03u); timeout--)
 238:.\Generated_Source\PSoC5/cyfitter_cfg.c **** 	{ 
 239:.\Generated_Source\PSoC5/cyfitter_cfg.c **** 		pllLock = 0x03u & ((uint8)((uint8)pllLock << 1) | ((CY_GET_XTND_REG8((void CYFAR *)CYREG_FASTCLK_
 240:.\Generated_Source\PSoC5/cyfitter_cfg.c **** 		CyDelayCycles(10u * 48u); /* Delay 10us based on 48MHz clock */
 241:.\Generated_Source\PSoC5/cyfitter_cfg.c **** 	}
 242:.\Generated_Source\PSoC5/cyfitter_cfg.c **** 	/* If we ran out of time the PLL didn't lock so go to the error function */
 243:.\Generated_Source\PSoC5/cyfitter_cfg.c **** 	if (timeout == 0u)
 244:.\Generated_Source\PSoC5/cyfitter_cfg.c **** 	{
 245:.\Generated_Source\PSoC5/cyfitter_cfg.c **** 		CyClockStartupError(CYCLOCKSTART_PLL_ERROR);
 246:.\Generated_Source\PSoC5/cyfitter_cfg.c **** 	}
 247:.\Generated_Source\PSoC5/cyfitter_cfg.c **** 
 248:.\Generated_Source\PSoC5/cyfitter_cfg.c **** 	/* Configure Bus/Master Clock based on settings from Clock DWR */
 249:.\Generated_Source\PSoC5/cyfitter_cfg.c **** 	CY_SET_XTND_REG16((void CYFAR *)(CYREG_CLKDIST_MSTR0), 0x0100u);
 250:.\Generated_Source\PSoC5/cyfitter_cfg.c **** 	CY_SET_XTND_REG8((void CYFAR *)(CYREG_CLKDIST_MSTR0), 0x07u);
 251:.\Generated_Source\PSoC5/cyfitter_cfg.c **** 	CY_SET_XTND_REG8((void CYFAR *)(CYREG_CLKDIST_BCFG0), 0x00u);
 252:.\Generated_Source\PSoC5/cyfitter_cfg.c **** 	CY_SET_XTND_REG8((void CYFAR *)(CYREG_CLKDIST_BCFG2), 0x48u);
 253:.\Generated_Source\PSoC5/cyfitter_cfg.c **** 	CY_SET_XTND_REG8((void CYFAR *)(CYREG_CLKDIST_MSTR0), 0x00u);
 254:.\Generated_Source\PSoC5/cyfitter_cfg.c **** 
 255:.\Generated_Source\PSoC5/cyfitter_cfg.c **** 	/* Configure USB Clock based on settings from Clock DWR */
 256:.\Generated_Source\PSoC5/cyfitter_cfg.c **** 	CY_SET_XTND_REG8((void CYFAR *)(CYREG_CLKDIST_UCFG), 0x00u);
 257:.\Generated_Source\PSoC5/cyfitter_cfg.c **** 	CY_SET_XTND_REG8((void CYFAR *)(CYREG_CLKDIST_LD), 0x02u);
 258:.\Generated_Source\PSoC5/cyfitter_cfg.c **** 
 259:.\Generated_Source\PSoC5/cyfitter_cfg.c **** 	CY_SET_XTND_REG8((void CYFAR *)(CYREG_PM_ACT_CFG2), ((CY_GET_XTND_REG8((void CYFAR *)CYREG_PM_ACT_
 260:.\Generated_Source\PSoC5/cyfitter_cfg.c **** }
 261:.\Generated_Source\PSoC5/cyfitter_cfg.c **** 
 262:.\Generated_Source\PSoC5/cyfitter_cfg.c **** 
 263:.\Generated_Source\PSoC5/cyfitter_cfg.c **** /* Analog API Functions */
 264:.\Generated_Source\PSoC5/cyfitter_cfg.c **** 
 265:.\Generated_Source\PSoC5/cyfitter_cfg.c **** 
 266:.\Generated_Source\PSoC5/cyfitter_cfg.c **** /*******************************************************************************
 267:.\Generated_Source\PSoC5/cyfitter_cfg.c **** * Function Name: AnalogSetDefault
 268:.\Generated_Source\PSoC5/cyfitter_cfg.c **** ********************************************************************************
 269:.\Generated_Source\PSoC5/cyfitter_cfg.c **** *
 270:.\Generated_Source\PSoC5/cyfitter_cfg.c **** * Summary:
 271:.\Generated_Source\PSoC5/cyfitter_cfg.c **** *  Sets up the analog portions of the chip to default values based on chip
 272:.\Generated_Source\PSoC5/cyfitter_cfg.c **** *  configuration options from the project.
 273:.\Generated_Source\PSoC5/cyfitter_cfg.c **** *
 274:.\Generated_Source\PSoC5/cyfitter_cfg.c **** * Parameters:
ARM GAS  C:\Users\LUKASC~1\AppData\Local\Temp\cczKFJhz.s 			page 8


 275:.\Generated_Source\PSoC5/cyfitter_cfg.c **** *  void
 276:.\Generated_Source\PSoC5/cyfitter_cfg.c **** *
 277:.\Generated_Source\PSoC5/cyfitter_cfg.c **** * Return:
 278:.\Generated_Source\PSoC5/cyfitter_cfg.c **** *  void
 279:.\Generated_Source\PSoC5/cyfitter_cfg.c **** *
 280:.\Generated_Source\PSoC5/cyfitter_cfg.c **** *******************************************************************************/
 281:.\Generated_Source\PSoC5/cyfitter_cfg.c **** static void AnalogSetDefault(void);
 282:.\Generated_Source\PSoC5/cyfitter_cfg.c **** static void AnalogSetDefault(void)
 283:.\Generated_Source\PSoC5/cyfitter_cfg.c **** {
 123              		.loc 1 283 0
 124              		.cfi_startproc
 125              		@ args = 0, pretend = 0, frame = 0
 126              		@ frame_needed = 0, uses_anonymous_args = 0
 127              		@ link register save eliminated.
 284:.\Generated_Source\PSoC5/cyfitter_cfg.c **** 	uint8 bg_xover_inl_trim = CY_GET_XTND_REG8((void CYFAR *)(CYREG_FLSHID_MFG_CFG_BG_XOVER_INL_TRIM +
 128              		.loc 1 284 0
 129 0000 0E4B     		ldr	r3, .L10
 130 0002 1B78     		ldrb	r3, [r3]	@ zero_extendqisi2
 131 0004 DBB2     		uxtb	r3, r3
 132              	.LVL12:
 285:.\Generated_Source\PSoC5/cyfitter_cfg.c **** 	CY_SET_XTND_REG8((void CYFAR *)(CYREG_BG_DFT0), (bg_xover_inl_trim & 0x07u));
 133              		.loc 1 285 0
 134 0006 03F00701 		and	r1, r3, #7
 135 000a 0D4A     		ldr	r2, .L10+4
 136 000c 1170     		strb	r1, [r2]
 286:.\Generated_Source\PSoC5/cyfitter_cfg.c **** 	CY_SET_XTND_REG8((void CYFAR *)(CYREG_BG_DFT1), ((bg_xover_inl_trim >> 4) & 0x0Fu));
 137              		.loc 1 286 0
 138 000e 1B09     		lsrs	r3, r3, #4
 139              	.LVL13:
 140 0010 0132     		adds	r2, r2, #1
 141 0012 1370     		strb	r3, [r2]
 287:.\Generated_Source\PSoC5/cyfitter_cfg.c **** 	CY_SET_XTND_REG8((void CYFAR *)CYREG_PRT1_AG, 0x10u);
 142              		.loc 1 287 0
 143 0014 1022     		movs	r2, #16
 144 0016 0B4B     		ldr	r3, .L10+8
 145 0018 1A70     		strb	r2, [r3]
 288:.\Generated_Source\PSoC5/cyfitter_cfg.c **** 	CY_SET_XTND_REG8((void CYFAR *)CYREG_CAPSR_CFG0, 0x00u);
 146              		.loc 1 288 0
 147 001a 0022     		movs	r2, #0
 148 001c 03F25573 		addw	r3, r3, #1877
 149 0020 1A70     		strb	r2, [r3]
 289:.\Generated_Source\PSoC5/cyfitter_cfg.c **** 	CY_SET_XTND_REG8((void CYFAR *)CYREG_CMP1_SW3, 0x20u);
 150              		.loc 1 289 0
 151 0022 2022     		movs	r2, #32
 152 0024 03F25923 		addw	r3, r3, #601
 153 0028 1A70     		strb	r2, [r3]
 290:.\Generated_Source\PSoC5/cyfitter_cfg.c **** 	CY_SET_XTND_REG8((void CYFAR *)CYREG_BUS_SW3, 0x01u);
 154              		.loc 1 290 0
 155 002a 0122     		movs	r2, #1
 156 002c 9033     		adds	r3, r3, #144
 157 002e 1A70     		strb	r2, [r3]
 291:.\Generated_Source\PSoC5/cyfitter_cfg.c **** 	CY_SET_XTND_REG8((void CYFAR *)CYREG_PUMP_CR0, 0x44u);
 158              		.loc 1 291 0
 159 0030 4422     		movs	r2, #68
 160 0032 A3F2E523 		subw	r3, r3, #741
 161 0036 1A70     		strb	r2, [r3]
 162 0038 7047     		bx	lr
ARM GAS  C:\Users\LUKASC~1\AppData\Local\Temp\cczKFJhz.s 			page 9


 163              	.L11:
 164 003a 00BF     		.align	2
 165              	.L10:
 166 003c CF010049 		.word	1224737231
 167 0040 6E580040 		.word	1073764462
 168 0044 1D510040 		.word	1073762589
 169              		.cfi_endproc
 170              	.LFE6:
 171              		.size	AnalogSetDefault, .-AnalogSetDefault
 172              		.section	.text.CYMEMZERO,"ax",%progbits
 173              		.align	2
 174              		.thumb
 175              		.thumb_func
 176              		.type	CYMEMZERO, %function
 177              	CYMEMZERO:
 178              	.LFB0:
  63:.\Generated_Source\PSoC5/cyfitter_cfg.c **** 	(void)memset(s, 0, n);
 179              		.loc 1 63 0
 180              		.cfi_startproc
 181              		@ args = 0, pretend = 0, frame = 0
 182              		@ frame_needed = 0, uses_anonymous_args = 0
 183              	.LVL14:
 184 0000 08B5     		push	{r3, lr}
 185              		.cfi_def_cfa_offset 8
 186              		.cfi_offset 3, -8
 187              		.cfi_offset 14, -4
 188 0002 0A46     		mov	r2, r1
  64:.\Generated_Source\PSoC5/cyfitter_cfg.c **** }
 189              		.loc 1 64 0
 190 0004 0021     		movs	r1, #0
 191              	.LVL15:
 192 0006 FFF7FEFF 		bl	memset
 193              	.LVL16:
 194 000a 08BD     		pop	{r3, pc}
 195              		.cfi_endproc
 196              	.LFE0:
 197              		.size	CYMEMZERO, .-CYMEMZERO
 198              		.section	.text.ClockSetup,"ax",%progbits
 199              		.align	2
 200              		.thumb
 201              		.thumb_func
 202              		.type	ClockSetup, %function
 203              	ClockSetup:
 204              	.LFB5:
 201:.\Generated_Source\PSoC5/cyfitter_cfg.c **** 	uint32 timeout;
 205              		.loc 1 201 0
 206              		.cfi_startproc
 207              		@ args = 0, pretend = 0, frame = 0
 208              		@ frame_needed = 0, uses_anonymous_args = 0
 209 0000 38B5     		push	{r3, r4, r5, lr}
 210              		.cfi_def_cfa_offset 16
 211              		.cfi_offset 3, -16
 212              		.cfi_offset 4, -12
 213              		.cfi_offset 5, -8
 214              		.cfi_offset 14, -4
 207:.\Generated_Source\PSoC5/cyfitter_cfg.c **** 	CY_SET_XTND_REG8((void CYFAR *)(CYREG_CLKDIST_DCFG0_CFG0 + 0x2u), 0x18u);
 215              		.loc 1 207 0
ARM GAS  C:\Users\LUKASC~1\AppData\Local\Temp\cczKFJhz.s 			page 10


 216 0002 0122     		movs	r2, #1
 217 0004 304B     		ldr	r3, .L24
 218 0006 1A80     		strh	r2, [r3]	@ movhi
 208:.\Generated_Source\PSoC5/cyfitter_cfg.c **** 
 219              		.loc 1 208 0
 220 0008 1822     		movs	r2, #24
 221 000a 0233     		adds	r3, r3, #2
 222 000c 1A70     		strb	r2, [r3]
 211:.\Generated_Source\PSoC5/cyfitter_cfg.c **** 
 223              		.loc 1 211 0
 224 000e 0622     		movs	r2, #6
 225 0010 03F27E23 		addw	r3, r3, #638
 226 0014 1A70     		strb	r2, [r3]
 214:.\Generated_Source\PSoC5/cyfitter_cfg.c **** 	CY_SET_XTND_REG8((void CYFAR *)(CYREG_FASTCLK_XMHZ_CSR), 0x05u);
 227              		.loc 1 214 0
 228 0016 43F21332 		movw	r2, #13075
 229 001a EE3B     		subs	r3, r3, #238
 230 001c 1A80     		strh	r2, [r3]	@ movhi
 215:.\Generated_Source\PSoC5/cyfitter_cfg.c **** 	/* Wait up to 130000us for the XTAL to lock */
 231              		.loc 1 215 0
 232 001e 023B     		subs	r3, r3, #2
 233 0020 0522     		movs	r2, #5
 234 0022 1A70     		strb	r2, [r3]
 217:.\Generated_Source\PSoC5/cyfitter_cfg.c **** 	for (timeout = 130000u / 10u; (timeout > 0u) && ((CY_GET_XTND_REG8((void CYFAR *)CYREG_FASTCLK_XMH
 235              		.loc 1 217 0
 236 0024 1B78     		ldrb	r3, [r3]	@ zero_extendqisi2
 237              	.LVL17:
 218:.\Generated_Source\PSoC5/cyfitter_cfg.c **** 	{ 
 238              		.loc 1 218 0
 239 0026 43F2C824 		movw	r4, #13000
 240 002a 04E0     		b	.L15
 241              	.LVL18:
 242              	.L17:
 221:.\Generated_Source\PSoC5/cyfitter_cfg.c **** 	}
 243              		.loc 1 221 0 discriminator 4
 244 002c 4FF4F070 		mov	r0, #480
 245 0030 FFF7FEFF 		bl	CyDelayCycles
 246              	.LVL19:
 218:.\Generated_Source\PSoC5/cyfitter_cfg.c **** 	{ 
 247              		.loc 1 218 0 discriminator 4
 248 0034 013C     		subs	r4, r4, #1
 249              	.LVL20:
 250              	.L15:
 218:.\Generated_Source\PSoC5/cyfitter_cfg.c **** 	{ 
 251              		.loc 1 218 0 is_stmt 0 discriminator 1
 252 0036 24B1     		cbz	r4, .L16
 218:.\Generated_Source\PSoC5/cyfitter_cfg.c **** 	{ 
 253              		.loc 1 218 0 discriminator 3
 254 0038 244B     		ldr	r3, .L24+4
 255 003a 1B78     		ldrb	r3, [r3]	@ zero_extendqisi2
 256 003c 13F0800F 		tst	r3, #128
 257 0040 F4D1     		bne	.L17
 258              	.L16:
 223:.\Generated_Source\PSoC5/cyfitter_cfg.c **** 	{
 259              		.loc 1 223 0 is_stmt 1
 260 0042 14B9     		cbnz	r4, .L18
 225:.\Generated_Source\PSoC5/cyfitter_cfg.c **** 	}
ARM GAS  C:\Users\LUKASC~1\AppData\Local\Temp\cczKFJhz.s 			page 11


 261              		.loc 1 225 0
 262 0044 0120     		movs	r0, #1
 263 0046 FFF7FEFF 		bl	CyClockStartupError
 264              	.LVL21:
 265              	.L18:
 227:.\Generated_Source\PSoC5/cyfitter_cfg.c **** 
 266              		.loc 1 227 0
 267 004a 4022     		movs	r2, #64
 268 004c 4FF04023 		mov	r3, #1073758208
 269 0050 1A70     		strb	r2, [r3]
 230:.\Generated_Source\PSoC5/cyfitter_cfg.c **** 
 270              		.loc 1 230 0
 271 0052 7022     		movs	r2, #112
 272 0054 03F50073 		add	r3, r3, #512
 273 0058 1A70     		strb	r2, [r3]
 233:.\Generated_Source\PSoC5/cyfitter_cfg.c **** 	CY_SET_XTND_REG16((void CYFAR *)(CYREG_FASTCLK_PLL_CFG0), 0x1251u);
 274              		.loc 1 233 0
 275 005a 4FF4E162 		mov	r2, #1800
 276 005e 2233     		adds	r3, r3, #34
 277 0060 1A80     		strh	r2, [r3]	@ movhi
 234:.\Generated_Source\PSoC5/cyfitter_cfg.c **** 	/* Wait up to 250us for the PLL to lock */
 278              		.loc 1 234 0
 279 0062 41F25122 		movw	r2, #4689
 280 0066 023B     		subs	r3, r3, #2
 281 0068 1A80     		strh	r2, [r3]	@ movhi
 282              	.LVL22:
 236:.\Generated_Source\PSoC5/cyfitter_cfg.c **** 	for (timeout = 250u / 10u; (timeout > 0u) && (pllLock != 0x03u); timeout--)
 283              		.loc 1 236 0
 284 006a 0024     		movs	r4, #0
 237:.\Generated_Source\PSoC5/cyfitter_cfg.c **** 	{ 
 285              		.loc 1 237 0
 286 006c 1925     		movs	r5, #25
 287 006e 0CE0     		b	.L19
 288              	.LVL23:
 289              	.L21:
 239:.\Generated_Source\PSoC5/cyfitter_cfg.c **** 		CyDelayCycles(10u * 48u); /* Delay 10us based on 48MHz clock */
 290              		.loc 1 239 0 discriminator 4
 291 0070 174B     		ldr	r3, .L24+8
 292 0072 1B78     		ldrb	r3, [r3]	@ zero_extendqisi2
 293 0074 03F00103 		and	r3, r3, #1
 294 0078 43EA4404 		orr	r4, r3, r4, lsl #1
 295              	.LVL24:
 296 007c 04F00304 		and	r4, r4, #3
 297              	.LVL25:
 240:.\Generated_Source\PSoC5/cyfitter_cfg.c **** 	}
 298              		.loc 1 240 0 discriminator 4
 299 0080 4FF4F070 		mov	r0, #480
 300 0084 FFF7FEFF 		bl	CyDelayCycles
 301              	.LVL26:
 237:.\Generated_Source\PSoC5/cyfitter_cfg.c **** 	{ 
 302              		.loc 1 237 0 discriminator 4
 303 0088 013D     		subs	r5, r5, #1
 304              	.LVL27:
 305              	.L19:
 237:.\Generated_Source\PSoC5/cyfitter_cfg.c **** 	{ 
 306              		.loc 1 237 0 is_stmt 0 discriminator 1
 307 008a 0DB1     		cbz	r5, .L20
ARM GAS  C:\Users\LUKASC~1\AppData\Local\Temp\cczKFJhz.s 			page 12


 237:.\Generated_Source\PSoC5/cyfitter_cfg.c **** 	{ 
 308              		.loc 1 237 0 discriminator 3
 309 008c 032C     		cmp	r4, #3
 310 008e EFD1     		bne	.L21
 311              	.L20:
 243:.\Generated_Source\PSoC5/cyfitter_cfg.c **** 	{
 312              		.loc 1 243 0 is_stmt 1
 313 0090 15B9     		cbnz	r5, .L22
 245:.\Generated_Source\PSoC5/cyfitter_cfg.c **** 	}
 314              		.loc 1 245 0
 315 0092 0320     		movs	r0, #3
 316 0094 FFF7FEFF 		bl	CyClockStartupError
 317              	.LVL28:
 318              	.L22:
 249:.\Generated_Source\PSoC5/cyfitter_cfg.c **** 	CY_SET_XTND_REG8((void CYFAR *)(CYREG_CLKDIST_MSTR0), 0x07u);
 319              		.loc 1 249 0
 320 0098 0E4A     		ldr	r2, .L24+12
 321 009a 4FF48073 		mov	r3, #256
 322 009e 1380     		strh	r3, [r2]	@ movhi
 250:.\Generated_Source\PSoC5/cyfitter_cfg.c **** 	CY_SET_XTND_REG8((void CYFAR *)(CYREG_CLKDIST_BCFG0), 0x00u);
 323              		.loc 1 250 0
 324 00a0 0723     		movs	r3, #7
 325 00a2 1370     		strb	r3, [r2]
 251:.\Generated_Source\PSoC5/cyfitter_cfg.c **** 	CY_SET_XTND_REG8((void CYFAR *)(CYREG_CLKDIST_BCFG2), 0x48u);
 326              		.loc 1 251 0
 327 00a4 0023     		movs	r3, #0
 328 00a6 0C49     		ldr	r1, .L24+16
 329 00a8 0B70     		strb	r3, [r1]
 252:.\Generated_Source\PSoC5/cyfitter_cfg.c **** 	CY_SET_XTND_REG8((void CYFAR *)(CYREG_CLKDIST_MSTR0), 0x00u);
 330              		.loc 1 252 0
 331 00aa 4820     		movs	r0, #72
 332 00ac 0231     		adds	r1, r1, #2
 333 00ae 0870     		strb	r0, [r1]
 253:.\Generated_Source\PSoC5/cyfitter_cfg.c **** 
 334              		.loc 1 253 0
 335 00b0 1370     		strb	r3, [r2]
 256:.\Generated_Source\PSoC5/cyfitter_cfg.c **** 	CY_SET_XTND_REG8((void CYFAR *)(CYREG_CLKDIST_LD), 0x02u);
 336              		.loc 1 256 0
 337 00b2 0532     		adds	r2, r2, #5
 338 00b4 1370     		strb	r3, [r2]
 257:.\Generated_Source\PSoC5/cyfitter_cfg.c **** 
 339              		.loc 1 257 0
 340 00b6 0222     		movs	r2, #2
 341 00b8 084B     		ldr	r3, .L24+20
 342 00ba 1A70     		strb	r2, [r3]
 259:.\Generated_Source\PSoC5/cyfitter_cfg.c **** }
 343              		.loc 1 259 0
 344 00bc 084A     		ldr	r2, .L24+24
 345 00be 1378     		ldrb	r3, [r2]	@ zero_extendqisi2
 346 00c0 43F00103 		orr	r3, r3, #1
 347 00c4 1370     		strb	r3, [r2]
 348 00c6 38BD     		pop	{r3, r4, r5, pc}
 349              	.LVL29:
 350              	.L25:
 351              		.align	2
 352              	.L24:
 353 00c8 80400040 		.word	1073758336
ARM GAS  C:\Users\LUKASC~1\AppData\Local\Temp\cczKFJhz.s 			page 13


 354 00cc 10420040 		.word	1073758736
 355 00d0 25420040 		.word	1073758757
 356 00d4 04400040 		.word	1073758212
 357 00d8 06400040 		.word	1073758214
 358 00dc 01400040 		.word	1073758209
 359 00e0 A2430040 		.word	1073759138
 360              		.cfi_endproc
 361              	.LFE5:
 362              		.size	ClockSetup, .-ClockSetup
 363              		.section	.text.CYCONFIGCPY,"ax",%progbits
 364              		.align	2
 365              		.thumb
 366              		.thumb_func
 367              		.type	CYCONFIGCPY, %function
 368              	CYCONFIGCPY:
 369              	.LFB1:
  70:.\Generated_Source\PSoC5/cyfitter_cfg.c **** 	(void)memcpy(dest, src, n);
 370              		.loc 1 70 0
 371              		.cfi_startproc
 372              		@ args = 0, pretend = 0, frame = 0
 373              		@ frame_needed = 0, uses_anonymous_args = 0
 374              	.LVL30:
 375 0000 08B5     		push	{r3, lr}
 376              		.cfi_def_cfa_offset 8
 377              		.cfi_offset 3, -8
 378              		.cfi_offset 14, -4
  71:.\Generated_Source\PSoC5/cyfitter_cfg.c **** }
 379              		.loc 1 71 0
 380 0002 FFF7FEFF 		bl	memcpy
 381              	.LVL31:
 382 0006 08BD     		pop	{r3, pc}
 383              		.cfi_endproc
 384              	.LFE1:
 385              		.size	CYCONFIGCPY, .-CYCONFIGCPY
 386              		.section	.text.SetAnalogRoutingPumps,"ax",%progbits
 387              		.align	2
 388              		.global	SetAnalogRoutingPumps
 389              		.thumb
 390              		.thumb_func
 391              		.type	SetAnalogRoutingPumps, %function
 392              	SetAnalogRoutingPumps:
 393              	.LFB7:
 292:.\Generated_Source\PSoC5/cyfitter_cfg.c **** }
 293:.\Generated_Source\PSoC5/cyfitter_cfg.c **** 
 294:.\Generated_Source\PSoC5/cyfitter_cfg.c **** 
 295:.\Generated_Source\PSoC5/cyfitter_cfg.c **** /*******************************************************************************
 296:.\Generated_Source\PSoC5/cyfitter_cfg.c **** * Function Name: SetAnalogRoutingPumps
 297:.\Generated_Source\PSoC5/cyfitter_cfg.c **** ********************************************************************************
 298:.\Generated_Source\PSoC5/cyfitter_cfg.c **** *
 299:.\Generated_Source\PSoC5/cyfitter_cfg.c **** * Summary:
 300:.\Generated_Source\PSoC5/cyfitter_cfg.c **** * Enables or disables the analog pumps feeding analog routing switches.
 301:.\Generated_Source\PSoC5/cyfitter_cfg.c **** * Intended to be called at startup, based on the Vdda system configuration;
 302:.\Generated_Source\PSoC5/cyfitter_cfg.c **** * may be called during operation when the user informs us that the Vdda voltage
 303:.\Generated_Source\PSoC5/cyfitter_cfg.c **** * crossed the pump threshold.
 304:.\Generated_Source\PSoC5/cyfitter_cfg.c **** *
 305:.\Generated_Source\PSoC5/cyfitter_cfg.c **** * Parameters:
 306:.\Generated_Source\PSoC5/cyfitter_cfg.c **** *  enabled - 1 to enable the pumps, 0 to disable the pumps
ARM GAS  C:\Users\LUKASC~1\AppData\Local\Temp\cczKFJhz.s 			page 14


 307:.\Generated_Source\PSoC5/cyfitter_cfg.c **** *
 308:.\Generated_Source\PSoC5/cyfitter_cfg.c **** * Return:
 309:.\Generated_Source\PSoC5/cyfitter_cfg.c **** *  void
 310:.\Generated_Source\PSoC5/cyfitter_cfg.c **** *
 311:.\Generated_Source\PSoC5/cyfitter_cfg.c **** *******************************************************************************/
 312:.\Generated_Source\PSoC5/cyfitter_cfg.c **** void SetAnalogRoutingPumps(uint8 enabled)
 313:.\Generated_Source\PSoC5/cyfitter_cfg.c **** {
 394              		.loc 1 313 0
 395              		.cfi_startproc
 396              		@ args = 0, pretend = 0, frame = 0
 397              		@ frame_needed = 0, uses_anonymous_args = 0
 398              		@ link register save eliminated.
 399              	.LVL32:
 314:.\Generated_Source\PSoC5/cyfitter_cfg.c **** 	uint8 regValue = CY_GET_XTND_REG8((void CYFAR *)CYREG_PUMP_CR0);
 400              		.loc 1 314 0
 401 0000 054B     		ldr	r3, .L31
 402 0002 1B78     		ldrb	r3, [r3]	@ zero_extendqisi2
 403 0004 DBB2     		uxtb	r3, r3
 404              	.LVL33:
 315:.\Generated_Source\PSoC5/cyfitter_cfg.c **** 	if (enabled != 0u)
 405              		.loc 1 315 0
 406 0006 10B1     		cbz	r0, .L29
 316:.\Generated_Source\PSoC5/cyfitter_cfg.c **** 	{
 317:.\Generated_Source\PSoC5/cyfitter_cfg.c **** 		regValue |= 0x22u;
 407              		.loc 1 317 0
 408 0008 43F02203 		orr	r3, r3, #34
 409              	.LVL34:
 410 000c 01E0     		b	.L30
 411              	.L29:
 318:.\Generated_Source\PSoC5/cyfitter_cfg.c **** 	}
 319:.\Generated_Source\PSoC5/cyfitter_cfg.c **** 	else
 320:.\Generated_Source\PSoC5/cyfitter_cfg.c **** 	{
 321:.\Generated_Source\PSoC5/cyfitter_cfg.c **** 		regValue &= (uint8)~0x22u;
 412              		.loc 1 321 0
 413 000e 03F0DD03 		and	r3, r3, #221
 414              	.LVL35:
 415              	.L30:
 322:.\Generated_Source\PSoC5/cyfitter_cfg.c **** 	}
 323:.\Generated_Source\PSoC5/cyfitter_cfg.c **** 	CY_SET_XTND_REG8((void CYFAR *)CYREG_PUMP_CR0, regValue);
 416              		.loc 1 323 0
 417 0012 014A     		ldr	r2, .L31
 418 0014 1370     		strb	r3, [r2]
 419 0016 7047     		bx	lr
 420              	.L32:
 421              		.align	2
 422              	.L31:
 423 0018 76580040 		.word	1073764470
 424              		.cfi_endproc
 425              	.LFE7:
 426              		.size	SetAnalogRoutingPumps, .-SetAnalogRoutingPumps
 427              		.section	.text.CapSense_CSD_AMuxCH0_Set,"ax",%progbits
 428              		.align	2
 429              		.global	CapSense_CSD_AMuxCH0_Set
 430              		.thumb
 431              		.thumb_func
 432              		.type	CapSense_CSD_AMuxCH0_Set, %function
 433              	CapSense_CSD_AMuxCH0_Set:
ARM GAS  C:\Users\LUKASC~1\AppData\Local\Temp\cczKFJhz.s 			page 15


 434              	.LFB8:
 324:.\Generated_Source\PSoC5/cyfitter_cfg.c **** }
 325:.\Generated_Source\PSoC5/cyfitter_cfg.c **** 
 326:.\Generated_Source\PSoC5/cyfitter_cfg.c **** #define CY_AMUX_UNUSED CYREG_BOOST_SR
 327:.\Generated_Source\PSoC5/cyfitter_cfg.c **** /* This is an implementation detail of the AMux. Code that depends on it may be
 328:.\Generated_Source\PSoC5/cyfitter_cfg.c ****    incompatible with other versions of PSoC Creator. */
 329:.\Generated_Source\PSoC5/cyfitter_cfg.c **** uint8 CYXDATA * const CYCODE CapSense_CSD_AMuxCH0__addrTable[11] = {
 330:.\Generated_Source\PSoC5/cyfitter_cfg.c **** 	(uint8 CYXDATA *)CYREG_PRT3_AMUX, 
 331:.\Generated_Source\PSoC5/cyfitter_cfg.c **** 	(uint8 CYXDATA *)CYREG_PRT3_AMUX, 
 332:.\Generated_Source\PSoC5/cyfitter_cfg.c **** 	(uint8 CYXDATA *)CYREG_PRT3_AMUX, 
 333:.\Generated_Source\PSoC5/cyfitter_cfg.c **** 	(uint8 CYXDATA *)CYREG_PRT3_AMUX, 
 334:.\Generated_Source\PSoC5/cyfitter_cfg.c **** 	(uint8 CYXDATA *)CYREG_PRT3_AMUX, 
 335:.\Generated_Source\PSoC5/cyfitter_cfg.c **** 	(uint8 CYXDATA *)CYREG_PRT3_AMUX, 
 336:.\Generated_Source\PSoC5/cyfitter_cfg.c **** 	(uint8 CYXDATA *)CYREG_PRT3_AMUX, 
 337:.\Generated_Source\PSoC5/cyfitter_cfg.c **** 	(uint8 CYXDATA *)CYREG_PRT3_AMUX, 
 338:.\Generated_Source\PSoC5/cyfitter_cfg.c **** 	(uint8 CYXDATA *)CYREG_PRT1_AMUX, 
 339:.\Generated_Source\PSoC5/cyfitter_cfg.c **** 	(uint8 CYXDATA *)CYREG_CMP1_SW3, 
 340:.\Generated_Source\PSoC5/cyfitter_cfg.c **** 	(uint8 CYXDATA *)CYREG_DAC0_SW3, 
 341:.\Generated_Source\PSoC5/cyfitter_cfg.c **** };
 342:.\Generated_Source\PSoC5/cyfitter_cfg.c **** 
 343:.\Generated_Source\PSoC5/cyfitter_cfg.c **** /* This is an implementation detail of the AMux. Code that depends on it may be
 344:.\Generated_Source\PSoC5/cyfitter_cfg.c ****    incompatible with other versions of PSoC Creator. */
 345:.\Generated_Source\PSoC5/cyfitter_cfg.c **** const uint8 CYCODE CapSense_CSD_AMuxCH0__maskTable[11] = {
 346:.\Generated_Source\PSoC5/cyfitter_cfg.c **** 	0x01u, 
 347:.\Generated_Source\PSoC5/cyfitter_cfg.c **** 	0x02u, 
 348:.\Generated_Source\PSoC5/cyfitter_cfg.c **** 	0x04u, 
 349:.\Generated_Source\PSoC5/cyfitter_cfg.c **** 	0x08u, 
 350:.\Generated_Source\PSoC5/cyfitter_cfg.c **** 	0x10u, 
 351:.\Generated_Source\PSoC5/cyfitter_cfg.c **** 	0x20u, 
 352:.\Generated_Source\PSoC5/cyfitter_cfg.c **** 	0x40u, 
 353:.\Generated_Source\PSoC5/cyfitter_cfg.c **** 	0x80u, 
 354:.\Generated_Source\PSoC5/cyfitter_cfg.c **** 	0x10u, 
 355:.\Generated_Source\PSoC5/cyfitter_cfg.c **** 	0x01u, 
 356:.\Generated_Source\PSoC5/cyfitter_cfg.c **** 	0x10u, 
 357:.\Generated_Source\PSoC5/cyfitter_cfg.c **** };
 358:.\Generated_Source\PSoC5/cyfitter_cfg.c **** 
 359:.\Generated_Source\PSoC5/cyfitter_cfg.c **** /*******************************************************************************
 360:.\Generated_Source\PSoC5/cyfitter_cfg.c **** * Function Name: CapSense_CSD_AMuxCH0_Set
 361:.\Generated_Source\PSoC5/cyfitter_cfg.c **** ********************************************************************************
 362:.\Generated_Source\PSoC5/cyfitter_cfg.c **** * Summary:
 363:.\Generated_Source\PSoC5/cyfitter_cfg.c **** *  This function is used to set a particular channel as active on the AMux.
 364:.\Generated_Source\PSoC5/cyfitter_cfg.c **** *
 365:.\Generated_Source\PSoC5/cyfitter_cfg.c **** * Parameters:  
 366:.\Generated_Source\PSoC5/cyfitter_cfg.c **** *   channel - The mux channel input to set as active
 367:.\Generated_Source\PSoC5/cyfitter_cfg.c **** *
 368:.\Generated_Source\PSoC5/cyfitter_cfg.c **** * Return:
 369:.\Generated_Source\PSoC5/cyfitter_cfg.c **** *   void
 370:.\Generated_Source\PSoC5/cyfitter_cfg.c **** *
 371:.\Generated_Source\PSoC5/cyfitter_cfg.c **** *******************************************************************************/
 372:.\Generated_Source\PSoC5/cyfitter_cfg.c **** void CapSense_CSD_AMuxCH0_Set(uint8 channel)
 373:.\Generated_Source\PSoC5/cyfitter_cfg.c **** {
 435              		.loc 1 373 0
 436              		.cfi_startproc
 437              		@ args = 0, pretend = 0, frame = 0
 438              		@ frame_needed = 0, uses_anonymous_args = 0
 439              		@ link register save eliminated.
 440              	.LVL36:
ARM GAS  C:\Users\LUKASC~1\AppData\Local\Temp\cczKFJhz.s 			page 16


 374:.\Generated_Source\PSoC5/cyfitter_cfg.c **** 	if (channel < 11)
 441              		.loc 1 374 0
 442 0000 0A28     		cmp	r0, #10
 443 0002 08D8     		bhi	.L33
 375:.\Generated_Source\PSoC5/cyfitter_cfg.c **** 	{
 376:.\Generated_Source\PSoC5/cyfitter_cfg.c **** 		*CapSense_CSD_AMuxCH0__addrTable[channel] |= CapSense_CSD_AMuxCH0__maskTable[channel];
 444              		.loc 1 376 0
 445 0004 044B     		ldr	r3, .L35
 446 0006 53F82020 		ldr	r2, [r3, r0, lsl #2]
 447 000a 1844     		add	r0, r0, r3
 448              	.LVL37:
 449 000c 90F82C10 		ldrb	r1, [r0, #44]	@ zero_extendqisi2
 450 0010 1378     		ldrb	r3, [r2]	@ zero_extendqisi2
 451 0012 0B43     		orrs	r3, r3, r1
 452 0014 1370     		strb	r3, [r2]
 453              	.L33:
 454 0016 7047     		bx	lr
 455              	.L36:
 456              		.align	2
 457              	.L35:
 458 0018 00000000 		.word	.LANCHOR0
 459              		.cfi_endproc
 460              	.LFE8:
 461              		.size	CapSense_CSD_AMuxCH0_Set, .-CapSense_CSD_AMuxCH0_Set
 462              		.section	.text.CapSense_CSD_AMuxCH0_Unset,"ax",%progbits
 463              		.align	2
 464              		.global	CapSense_CSD_AMuxCH0_Unset
 465              		.thumb
 466              		.thumb_func
 467              		.type	CapSense_CSD_AMuxCH0_Unset, %function
 468              	CapSense_CSD_AMuxCH0_Unset:
 469              	.LFB9:
 377:.\Generated_Source\PSoC5/cyfitter_cfg.c **** 	}
 378:.\Generated_Source\PSoC5/cyfitter_cfg.c **** }
 379:.\Generated_Source\PSoC5/cyfitter_cfg.c **** 
 380:.\Generated_Source\PSoC5/cyfitter_cfg.c **** /*******************************************************************************
 381:.\Generated_Source\PSoC5/cyfitter_cfg.c **** * Function Name: CapSense_CSD_AMuxCH0_Unset
 382:.\Generated_Source\PSoC5/cyfitter_cfg.c **** ********************************************************************************
 383:.\Generated_Source\PSoC5/cyfitter_cfg.c **** * Summary:
 384:.\Generated_Source\PSoC5/cyfitter_cfg.c **** *  This function is used to clear a particular channel from being active on the
 385:.\Generated_Source\PSoC5/cyfitter_cfg.c **** *  AMux.
 386:.\Generated_Source\PSoC5/cyfitter_cfg.c **** *
 387:.\Generated_Source\PSoC5/cyfitter_cfg.c **** * Parameters:  
 388:.\Generated_Source\PSoC5/cyfitter_cfg.c **** *   channel - The mux channel input to mark inactive
 389:.\Generated_Source\PSoC5/cyfitter_cfg.c **** *
 390:.\Generated_Source\PSoC5/cyfitter_cfg.c **** * Return:
 391:.\Generated_Source\PSoC5/cyfitter_cfg.c **** *   void
 392:.\Generated_Source\PSoC5/cyfitter_cfg.c **** *
 393:.\Generated_Source\PSoC5/cyfitter_cfg.c **** *******************************************************************************/
 394:.\Generated_Source\PSoC5/cyfitter_cfg.c **** void CapSense_CSD_AMuxCH0_Unset(uint8 channel)
 395:.\Generated_Source\PSoC5/cyfitter_cfg.c **** {
 470              		.loc 1 395 0
 471              		.cfi_startproc
 472              		@ args = 0, pretend = 0, frame = 0
 473              		@ frame_needed = 0, uses_anonymous_args = 0
 474              		@ link register save eliminated.
 475              	.LVL38:
ARM GAS  C:\Users\LUKASC~1\AppData\Local\Temp\cczKFJhz.s 			page 17


 396:.\Generated_Source\PSoC5/cyfitter_cfg.c **** 	if (channel < 11)
 476              		.loc 1 396 0
 477 0000 0A28     		cmp	r0, #10
 478 0002 09D8     		bhi	.L37
 397:.\Generated_Source\PSoC5/cyfitter_cfg.c **** 	{
 398:.\Generated_Source\PSoC5/cyfitter_cfg.c **** 		*CapSense_CSD_AMuxCH0__addrTable[channel] &= (uint8)~CapSense_CSD_AMuxCH0__maskTable[channel];
 479              		.loc 1 398 0
 480 0004 054B     		ldr	r3, .L39
 481 0006 53F82020 		ldr	r2, [r3, r0, lsl #2]
 482 000a 1844     		add	r0, r0, r3
 483              	.LVL39:
 484 000c 90F82C10 		ldrb	r1, [r0, #44]	@ zero_extendqisi2
 485 0010 1378     		ldrb	r3, [r2]	@ zero_extendqisi2
 486 0012 23EA0103 		bic	r3, r3, r1
 487 0016 1370     		strb	r3, [r2]
 488              	.L37:
 489 0018 7047     		bx	lr
 490              	.L40:
 491 001a 00BF     		.align	2
 492              	.L39:
 493 001c 00000000 		.word	.LANCHOR0
 494              		.cfi_endproc
 495              	.LFE9:
 496              		.size	CapSense_CSD_AMuxCH0_Unset, .-CapSense_CSD_AMuxCH0_Unset
 497              		.section	.text.cyfitter_cfg,"ax",%progbits
 498              		.align	2
 499              		.global	cyfitter_cfg
 500              		.thumb
 501              		.thumb_func
 502              		.type	cyfitter_cfg, %function
 503              	cyfitter_cfg:
 504              	.LFB10:
 399:.\Generated_Source\PSoC5/cyfitter_cfg.c **** 	}
 400:.\Generated_Source\PSoC5/cyfitter_cfg.c **** }
 401:.\Generated_Source\PSoC5/cyfitter_cfg.c **** 
 402:.\Generated_Source\PSoC5/cyfitter_cfg.c **** 
 403:.\Generated_Source\PSoC5/cyfitter_cfg.c **** 
 404:.\Generated_Source\PSoC5/cyfitter_cfg.c **** /*******************************************************************************
 405:.\Generated_Source\PSoC5/cyfitter_cfg.c **** * Function Name: cyfitter_cfg
 406:.\Generated_Source\PSoC5/cyfitter_cfg.c **** ********************************************************************************
 407:.\Generated_Source\PSoC5/cyfitter_cfg.c **** * Summary:
 408:.\Generated_Source\PSoC5/cyfitter_cfg.c **** *  This function is called by the start-up code for the selected device. It
 409:.\Generated_Source\PSoC5/cyfitter_cfg.c **** *  performs all of the necessary device configuration based on the design
 410:.\Generated_Source\PSoC5/cyfitter_cfg.c **** *  settings.  This includes settings from the Design Wide Resources (DWR) such
 411:.\Generated_Source\PSoC5/cyfitter_cfg.c **** *  as Clocks and Pins as well as any component configuration that is necessary.
 412:.\Generated_Source\PSoC5/cyfitter_cfg.c **** *
 413:.\Generated_Source\PSoC5/cyfitter_cfg.c **** * Parameters:  
 414:.\Generated_Source\PSoC5/cyfitter_cfg.c **** *   void
 415:.\Generated_Source\PSoC5/cyfitter_cfg.c **** *
 416:.\Generated_Source\PSoC5/cyfitter_cfg.c **** * Return:
 417:.\Generated_Source\PSoC5/cyfitter_cfg.c **** *   void
 418:.\Generated_Source\PSoC5/cyfitter_cfg.c **** *
 419:.\Generated_Source\PSoC5/cyfitter_cfg.c **** *******************************************************************************/
 420:.\Generated_Source\PSoC5/cyfitter_cfg.c **** 
 421:.\Generated_Source\PSoC5/cyfitter_cfg.c **** void cyfitter_cfg(void)
 422:.\Generated_Source\PSoC5/cyfitter_cfg.c **** {
 505              		.loc 1 422 0
ARM GAS  C:\Users\LUKASC~1\AppData\Local\Temp\cczKFJhz.s 			page 18


 506              		.cfi_startproc
 507              		@ args = 0, pretend = 0, frame = 0
 508              		@ frame_needed = 0, uses_anonymous_args = 0
 509 0000 38B5     		push	{r3, r4, r5, lr}
 510              		.cfi_def_cfa_offset 16
 511              		.cfi_offset 3, -16
 512              		.cfi_offset 4, -12
 513              		.cfi_offset 5, -8
 514              		.cfi_offset 14, -4
 423:.\Generated_Source\PSoC5/cyfitter_cfg.c **** #ifdef CYGlobalIntDisable
 424:.\Generated_Source\PSoC5/cyfitter_cfg.c **** 	/* Disable interrupts by default. Let user enable if/when they want. */
 425:.\Generated_Source\PSoC5/cyfitter_cfg.c **** 	CYGlobalIntDisable
 515              		.loc 1 425 0
 516              	@ 425 ".\Generated_Source\PSoC5\cyfitter_cfg.c" 1
 517 0002 72B6     		CPSID   i
 518              	@ 0 "" 2
 426:.\Generated_Source\PSoC5/cyfitter_cfg.c **** #endif
 427:.\Generated_Source\PSoC5/cyfitter_cfg.c **** 
 428:.\Generated_Source\PSoC5/cyfitter_cfg.c **** 	/* Enable/Disable Debug functionality based on settings from System DWR */
 429:.\Generated_Source\PSoC5/cyfitter_cfg.c **** 	CY_SET_XTND_REG8((void CYFAR *)CYREG_MLOGIC_DEBUG, (CY_GET_XTND_REG8((void CYFAR *)CYREG_MLOGIC_DE
 519              		.loc 1 429 0
 520              		.thumb
 521 0004 304A     		ldr	r2, .L45
 522 0006 1378     		ldrb	r3, [r2]	@ zero_extendqisi2
 523 0008 43F00403 		orr	r3, r3, #4
 524 000c 1370     		strb	r3, [r2]
 525              	.LVL40:
 526              	.LBB3:
 430:.\Generated_Source\PSoC5/cyfitter_cfg.c **** 
 431:.\Generated_Source\PSoC5/cyfitter_cfg.c **** 	{
 432:.\Generated_Source\PSoC5/cyfitter_cfg.c **** 
 433:.\Generated_Source\PSoC5/cyfitter_cfg.c **** 		CYPACKED typedef struct {
 434:.\Generated_Source\PSoC5/cyfitter_cfg.c **** 			void CYFAR *address;
 435:.\Generated_Source\PSoC5/cyfitter_cfg.c **** 			uint16 size;
 436:.\Generated_Source\PSoC5/cyfitter_cfg.c **** 		} CYPACKED_ATTR cfg_memset_t;
 437:.\Generated_Source\PSoC5/cyfitter_cfg.c **** 
 438:.\Generated_Source\PSoC5/cyfitter_cfg.c **** 		static const cfg_memset_t CYCODE cfg_memset_list [] = {
 439:.\Generated_Source\PSoC5/cyfitter_cfg.c **** 			/* address, size */
 440:.\Generated_Source\PSoC5/cyfitter_cfg.c **** 			{(void CYFAR *)(CYREG_I2C_XCFG), 25u},
 441:.\Generated_Source\PSoC5/cyfitter_cfg.c **** 			{(void CYFAR *)(CYREG_PRT0_DR), 16u},
 442:.\Generated_Source\PSoC5/cyfitter_cfg.c **** 			{(void CYFAR *)(CYREG_PRT4_DR), 48u},
 443:.\Generated_Source\PSoC5/cyfitter_cfg.c **** 			{(void CYFAR *)(CYREG_PRT12_DR), 16u},
 444:.\Generated_Source\PSoC5/cyfitter_cfg.c **** 			{(void CYFAR *)(CYDEV_UCFG_B0_P0_U0_BASE), 4096u},
 445:.\Generated_Source\PSoC5/cyfitter_cfg.c **** 			{(void CYFAR *)(CYDEV_UCFG_B1_P2_U0_BASE), 2048u},
 446:.\Generated_Source\PSoC5/cyfitter_cfg.c **** 			{(void CYFAR *)(CYDEV_UCFG_DSI0_BASE), 2560u},
 447:.\Generated_Source\PSoC5/cyfitter_cfg.c **** 			{(void CYFAR *)(CYDEV_UCFG_DSI12_BASE), 512u},
 448:.\Generated_Source\PSoC5/cyfitter_cfg.c **** 			{(void CYFAR *)(CYREG_BCTL0_MDCLK_EN), 32u},
 449:.\Generated_Source\PSoC5/cyfitter_cfg.c **** 		};
 450:.\Generated_Source\PSoC5/cyfitter_cfg.c **** 
 451:.\Generated_Source\PSoC5/cyfitter_cfg.c **** 		uint8 CYDATA i;
 452:.\Generated_Source\PSoC5/cyfitter_cfg.c **** 
 453:.\Generated_Source\PSoC5/cyfitter_cfg.c **** 		/* Zero out critical memory blocks before beginning configuration */
 454:.\Generated_Source\PSoC5/cyfitter_cfg.c **** 		for (i = 0u; i < (sizeof(cfg_memset_list)/sizeof(cfg_memset_list[0])); i++)
 527              		.loc 1 454 0
 528 000e 0024     		movs	r4, #0
 529 0010 0AE0     		b	.L42
 530              	.LVL41:
ARM GAS  C:\Users\LUKASC~1\AppData\Local\Temp\cczKFJhz.s 			page 19


 531              	.L43:
 532              	.LBB4:
 455:.\Generated_Source\PSoC5/cyfitter_cfg.c **** 		{
 456:.\Generated_Source\PSoC5/cyfitter_cfg.c **** 			const cfg_memset_t CYCODE * CYDATA ms = &cfg_memset_list[i];
 457:.\Generated_Source\PSoC5/cyfitter_cfg.c **** 			CYMEMZERO(ms->address, (size_t)(uint32)(ms->size));
 533              		.loc 1 457 0 discriminator 3
 534 0012 2E49     		ldr	r1, .L45+4
 535 0014 6300     		lsls	r3, r4, #1
 536 0016 1A19     		adds	r2, r3, r4
 537 0018 5200     		lsls	r2, r2, #1
 538 001a 0A44     		add	r2, r2, r1
 539 001c 906B     		ldr	r0, [r2, #56]	@ unaligned
 540 001e 918F     		ldrh	r1, [r2, #60]
 541 0020 FFF7FEFF 		bl	CYMEMZERO
 542              	.LVL42:
 543              	.LBE4:
 454:.\Generated_Source\PSoC5/cyfitter_cfg.c **** 		{
 544              		.loc 1 454 0 discriminator 3
 545 0024 0134     		adds	r4, r4, #1
 546              	.LVL43:
 547 0026 E4B2     		uxtb	r4, r4
 548              	.LVL44:
 549              	.L42:
 454:.\Generated_Source\PSoC5/cyfitter_cfg.c **** 		{
 550              		.loc 1 454 0 is_stmt 0 discriminator 1
 551 0028 082C     		cmp	r4, #8
 552 002a F2D9     		bls	.L43
 458:.\Generated_Source\PSoC5/cyfitter_cfg.c **** 		}
 459:.\Generated_Source\PSoC5/cyfitter_cfg.c **** 
 460:.\Generated_Source\PSoC5/cyfitter_cfg.c **** 		cfg_write_bytes32(cy_cfg_addr_table, cy_cfg_data_table);
 553              		.loc 1 460 0 is_stmt 1
 554 002c 4FF09040 		mov	r0, #1207959552
 555 0030 2749     		ldr	r1, .L45+8
 556 0032 FFF7FEFF 		bl	cfg_write_bytes32
 557              	.LVL45:
 461:.\Generated_Source\PSoC5/cyfitter_cfg.c **** 
 462:.\Generated_Source\PSoC5/cyfitter_cfg.c **** 		/* Perform normal device configuration. Order is not critical for these items. */
 463:.\Generated_Source\PSoC5/cyfitter_cfg.c **** 		CY_SET_XTND_REG16((void CYFAR *)(CYREG_CAPSR_CFG0), 0x0300u);
 558              		.loc 1 463 0
 559 0036 4FF44072 		mov	r2, #768
 560 003a 264B     		ldr	r3, .L45+12
 561 003c 1A80     		strh	r2, [r3]	@ movhi
 464:.\Generated_Source\PSoC5/cyfitter_cfg.c **** 		CY_SET_XTND_REG16((void CYFAR *)(CYREG_LUT1_CR), 0x0103u);
 562              		.loc 1 464 0
 563 003e 40F20312 		movw	r2, #259
 564 0042 283B     		subs	r3, r3, #40
 565 0044 1A80     		strh	r2, [r3]	@ movhi
 465:.\Generated_Source\PSoC5/cyfitter_cfg.c **** 
 466:.\Generated_Source\PSoC5/cyfitter_cfg.c **** 		/* Enable digital routing */
 467:.\Generated_Source\PSoC5/cyfitter_cfg.c **** 		CY_SET_XTND_REG8((void CYFAR *)CYREG_BCTL0_BANK_CTL, CY_GET_XTND_REG8((void CYFAR *)CYREG_BCTL0_B
 566              		.loc 1 467 0
 567 0046 244A     		ldr	r2, .L45+16
 568 0048 1378     		ldrb	r3, [r2]	@ zero_extendqisi2
 569 004a 43F00203 		orr	r3, r3, #2
 570 004e 1370     		strb	r3, [r2]
 468:.\Generated_Source\PSoC5/cyfitter_cfg.c **** 		CY_SET_XTND_REG8((void CYFAR *)CYREG_BCTL1_BANK_CTL, CY_GET_XTND_REG8((void CYFAR *)CYREG_BCTL1_B
 571              		.loc 1 468 0
ARM GAS  C:\Users\LUKASC~1\AppData\Local\Temp\cczKFJhz.s 			page 20


 572 0050 1032     		adds	r2, r2, #16
 573 0052 1378     		ldrb	r3, [r2]	@ zero_extendqisi2
 574 0054 43F00203 		orr	r3, r3, #2
 575 0058 1370     		strb	r3, [r2]
 469:.\Generated_Source\PSoC5/cyfitter_cfg.c **** 
 470:.\Generated_Source\PSoC5/cyfitter_cfg.c **** 		/* Enable UDB array */
 471:.\Generated_Source\PSoC5/cyfitter_cfg.c **** 		CY_SET_XTND_REG8((void CYFAR *)CYREG_PM_ACT_CFG0, CY_GET_XTND_REG8((void CYFAR *)CYREG_PM_ACT_CFG
 576              		.loc 1 471 0
 577 005a 204C     		ldr	r4, .L45+20
 578              	.LVL46:
 579 005c 2378     		ldrb	r3, [r4]	@ zero_extendqisi2
 580 005e 43F04003 		orr	r3, r3, #64
 581 0062 2370     		strb	r3, [r4]
 472:.\Generated_Source\PSoC5/cyfitter_cfg.c **** 		CY_SET_XTND_REG8((void CYFAR *)CYREG_PM_AVAIL_CR2, CY_GET_XTND_REG8((void CYFAR *)CYREG_PM_AVAIL_
 582              		.loc 1 472 0
 583 0064 A2F58632 		sub	r2, r2, #68608
 584 0068 513A     		subs	r2, r2, #81
 585 006a 1378     		ldrb	r3, [r2]	@ zero_extendqisi2
 586 006c 43F01003 		orr	r3, r3, #16
 587 0070 1370     		strb	r3, [r2]
 588              	.LBE3:
 473:.\Generated_Source\PSoC5/cyfitter_cfg.c **** 	}
 474:.\Generated_Source\PSoC5/cyfitter_cfg.c **** 
 475:.\Generated_Source\PSoC5/cyfitter_cfg.c **** 
 476:.\Generated_Source\PSoC5/cyfitter_cfg.c **** 	/* Perform second pass device configuration. These items must be configured in specific order afte
 477:.\Generated_Source\PSoC5/cyfitter_cfg.c **** 	CYCONFIGCPY((void CYFAR *)(CYREG_PRT15_DR), (const void CYFAR *)(BS_IOPINS0_8_VAL), 10u);
 589              		.loc 1 477 0
 590 0072 1B48     		ldr	r0, .L45+24
 591 0074 1B49     		ldr	r1, .L45+28
 592 0076 0A22     		movs	r2, #10
 593 0078 FFF7FEFF 		bl	CYCONFIGCPY
 594              	.LVL47:
 478:.\Generated_Source\PSoC5/cyfitter_cfg.c **** 	CYCONFIGCPY((void CYFAR *)(CYREG_PRT1_DM0), (const void CYFAR *)(BS_IOPINS0_1_VAL), 8u);
 595              		.loc 1 478 0
 596 007c 1A48     		ldr	r0, .L45+32
 597 007e 1B49     		ldr	r1, .L45+36
 598 0080 0822     		movs	r2, #8
 599 0082 FFF7FEFF 		bl	CYCONFIGCPY
 600              	.LVL48:
 479:.\Generated_Source\PSoC5/cyfitter_cfg.c **** 	CYCONFIGCPY((void CYFAR *)(CYREG_PRT2_DR), (const void CYFAR *)(BS_IOPINS0_2_VAL), 10u);
 601              		.loc 1 479 0
 602 0086 1A48     		ldr	r0, .L45+40
 603 0088 1A49     		ldr	r1, .L45+44
 604 008a 0A22     		movs	r2, #10
 605 008c FFF7FEFF 		bl	CYCONFIGCPY
 606              	.LVL49:
 480:.\Generated_Source\PSoC5/cyfitter_cfg.c **** 	CYCONFIGCPY((void CYFAR *)(CYREG_PRT3_DM0), (const void CYFAR *)(BS_IOPINS0_3_VAL), 8u);
 607              		.loc 1 480 0
 608 0090 1948     		ldr	r0, .L45+48
 609 0092 1A49     		ldr	r1, .L45+52
 610 0094 0822     		movs	r2, #8
 611 0096 FFF7FEFF 		bl	CYCONFIGCPY
 612              	.LVL50:
 481:.\Generated_Source\PSoC5/cyfitter_cfg.c **** 	CY_SET_XTND_REG8((void CYFAR *)(CYREG_B0_P4_U1_CFG27), 0x44u);
 613              		.loc 1 481 0
 614 009a 4422     		movs	r2, #68
 615 009c 184B     		ldr	r3, .L45+56
ARM GAS  C:\Users\LUKASC~1\AppData\Local\Temp\cczKFJhz.s 			page 21


 616 009e 1A70     		strb	r2, [r3]
 482:.\Generated_Source\PSoC5/cyfitter_cfg.c **** 	/* Switch Boost to the precision bandgap reference from its internal reference */
 483:.\Generated_Source\PSoC5/cyfitter_cfg.c **** 	CY_SET_REG8((void CYXDATA *)CYREG_BOOST_CR2, (CY_GET_REG8((void CYXDATA *)CYREG_BOOST_CR2) | 0x08u
 617              		.loc 1 483 0
 618 00a0 184A     		ldr	r2, .L45+60
 619 00a2 1378     		ldrb	r3, [r2]	@ zero_extendqisi2
 620 00a4 43F00803 		orr	r3, r3, #8
 621 00a8 1370     		strb	r3, [r2]
 484:.\Generated_Source\PSoC5/cyfitter_cfg.c **** 
 485:.\Generated_Source\PSoC5/cyfitter_cfg.c **** 	/* Set Flash Cycles based on max possible frequency in case a glitch occurs during ClockSetup(). *
 486:.\Generated_Source\PSoC5/cyfitter_cfg.c **** 	CY_SET_XTND_REG8((void CYFAR *)(CYREG_CACHE_CC_CTL), (((CYDEV_INSTRUCT_CACHE_ENABLED) != 0) ? 0x61
 622              		.loc 1 486 0
 623 00aa 174D     		ldr	r5, .L45+64
 624 00ac 6123     		movs	r3, #97
 625 00ae 2B70     		strb	r3, [r5]
 487:.\Generated_Source\PSoC5/cyfitter_cfg.c **** 	/* Setup clocks based on selections from Clock DWR */
 488:.\Generated_Source\PSoC5/cyfitter_cfg.c **** 	ClockSetup();
 626              		.loc 1 488 0
 627 00b0 FFF7FEFF 		bl	ClockSetup
 628              	.LVL51:
 489:.\Generated_Source\PSoC5/cyfitter_cfg.c **** 	/* Set Flash Cycles based on newly configured 24.00MHz Bus Clock. */
 490:.\Generated_Source\PSoC5/cyfitter_cfg.c **** 	CY_SET_XTND_REG8((void CYFAR *)(CYREG_CACHE_CC_CTL), (((CYDEV_INSTRUCT_CACHE_ENABLED) != 0) ? 0x81
 629              		.loc 1 490 0
 630 00b4 8123     		movs	r3, #129
 631 00b6 2B70     		strb	r3, [r5]
 491:.\Generated_Source\PSoC5/cyfitter_cfg.c **** 
 492:.\Generated_Source\PSoC5/cyfitter_cfg.c **** 	/* Perform basic analog initialization to defaults */
 493:.\Generated_Source\PSoC5/cyfitter_cfg.c **** 	AnalogSetDefault();
 632              		.loc 1 493 0
 633 00b8 FFF7FEFF 		bl	AnalogSetDefault
 634              	.LVL52:
 494:.\Generated_Source\PSoC5/cyfitter_cfg.c **** 
 495:.\Generated_Source\PSoC5/cyfitter_cfg.c **** 	/* Configure alternate active mode */
 496:.\Generated_Source\PSoC5/cyfitter_cfg.c **** 	CYCONFIGCPY((void CYFAR *)CYDEV_PM_STBY_BASE, (const void CYFAR *)CYDEV_PM_ACT_BASE, 14u);
 635              		.loc 1 496 0
 636 00bc 1348     		ldr	r0, .L45+68
 637 00be 2146     		mov	r1, r4
 638 00c0 0E22     		movs	r2, #14
 639 00c2 FFF7FEFF 		bl	CYCONFIGCPY
 640              	.LVL53:
 641 00c6 38BD     		pop	{r3, r4, r5, pc}
 642              	.L46:
 643              		.align	2
 644              	.L45:
 645 00c8 E8460040 		.word	1073759976
 646 00cc 00000000 		.word	.LANCHOR0
 647 00d0 78000048 		.word	1207959672
 648 00d4 72580040 		.word	1073764466
 649 00d8 03500140 		.word	1073827843
 650 00dc A0430040 		.word	1073759136
 651 00e0 F0510040 		.word	1073762800
 652 00e4 C8030048 		.word	1207960520
 653 00e8 12510040 		.word	1073762578
 654 00ec D4030048 		.word	1207960532
 655 00f0 20510040 		.word	1073762592
 656 00f4 DC030048 		.word	1207960540
 657 00f8 32510040 		.word	1073762610
ARM GAS  C:\Users\LUKASC~1\AppData\Local\Temp\cczKFJhz.s 			page 22


 658 00fc E8030048 		.word	1207960552
 659 0100 DB080140 		.word	1073809627
 660 0104 22430040 		.word	1073759010
 661 0108 00480040 		.word	1073760256
 662 010c B0430040 		.word	1073759152
 663              		.cfi_endproc
 664              	.LFE10:
 665              		.size	cyfitter_cfg, .-cyfitter_cfg
 666              		.global	CapSense_CSD_AMuxCH0__maskTable
 667              		.global	CapSense_CSD_AMuxCH0__addrTable
 668              		.section	.rodata
 669              		.align	2
 670              		.set	.LANCHOR0,. + 0
 671              		.type	CapSense_CSD_AMuxCH0__addrTable, %object
 672              		.size	CapSense_CSD_AMuxCH0__addrTable, 44
 673              	CapSense_CSD_AMuxCH0__addrTable:
 674 0000 3C510040 		.word	1073762620
 675 0004 3C510040 		.word	1073762620
 676 0008 3C510040 		.word	1073762620
 677 000c 3C510040 		.word	1073762620
 678 0010 3C510040 		.word	1073762620
 679 0014 3C510040 		.word	1073762620
 680 0018 3C510040 		.word	1073762620
 681 001c 3C510040 		.word	1073762620
 682 0020 1C510040 		.word	1073762588
 683 0024 CB5A0040 		.word	1073765067
 684 0028 835A0040 		.word	1073764995
 685              		.type	CapSense_CSD_AMuxCH0__maskTable, %object
 686              		.size	CapSense_CSD_AMuxCH0__maskTable, 11
 687              	CapSense_CSD_AMuxCH0__maskTable:
 688 002c 01       		.byte	1
 689 002d 02       		.byte	2
 690 002e 04       		.byte	4
 691 002f 08       		.byte	8
 692 0030 10       		.byte	16
 693 0031 20       		.byte	32
 694 0032 40       		.byte	64
 695 0033 80       		.byte	-128
 696 0034 10       		.byte	16
 697 0035 01       		.byte	1
 698 0036 10       		.byte	16
 699 0037 00       		.space	1
 700              		.type	cfg_memset_list.4897, %object
 701              		.size	cfg_memset_list.4897, 54
 702              	cfg_memset_list.4897:
 703 0038 C8490040 		.word	1073760712
 704 003c 1900     		.short	25
 705 003e 00510040 		.4byte	1073762560
 706 0042 1000     		.short	16
 707 0044 40510040 		.word	1073762624
 708 0048 3000     		.short	48
 709 004a C0510040 		.4byte	1073762752
 710 004e 1000     		.short	16
 711 0050 00000140 		.word	1073807360
 712 0054 0010     		.short	4096
 713 0056 00140140 		.4byte	1073812480
 714 005a 0008     		.short	2048
ARM GAS  C:\Users\LUKASC~1\AppData\Local\Temp\cczKFJhz.s 			page 23


 715 005c 00400140 		.word	1073823744
 716 0060 000A     		.short	2560
 717 0062 004C0140 		.4byte	1073826816
 718 0066 0002     		.short	512
 719 0068 00500140 		.word	1073827840
 720 006c 2000     		.short	32
 721 006e 0000     		.text
 722              	.Letext0:
 723              		.file 2 "c:\\program files (x86)\\cypress\\psoc creator\\3.3\\psoc creator\\import\\gnu\\arm\\4.9.
 724              		.file 3 ".\\Generated_Source\\PSoC5\\cytypes.h"
 725              		.file 4 ".\\Generated_Source\\PSoC5\\CyLib.h"