ARM GAS  C:\Users\LUKASC~1\AppData\Local\Temp\ccaygMDf.s 			page 1


   1              		.syntax unified
   2              		.cpu cortex-m3
   3              		.fpu softvfp
   4              		.eabi_attribute 20, 1
   5              		.eabi_attribute 21, 1
   6              		.eabi_attribute 23, 3
   7              		.eabi_attribute 24, 1
   8              		.eabi_attribute 25, 1
   9              		.eabi_attribute 26, 1
  10              		.eabi_attribute 30, 1
  11              		.eabi_attribute 34, 1
  12              		.eabi_attribute 18, 4
  13              		.thumb
  14              		.file	"i2cmaster.c"
  15              		.text
  16              	.Ltext0:
  17              		.cfi_sections	.debug_frame
  18              		.section	.text.I2CInit,"ax",%progbits
  19              		.align	2
  20              		.global	I2CInit
  21              		.thumb
  22              		.thumb_func
  23              		.type	I2CInit, %function
  24              	I2CInit:
  25              	.LFB63:
  26              		.file 1 ".\\i2cmaster.c"
   1:.\i2cmaster.c **** /* ========================================
   2:.\i2cmaster.c **** * File Name: capsense.h
   3:.\i2cmaster.c **** *
   4:.\i2cmaster.c **** * Version: 0
   5:.\i2cmaster.c **** * Author: Lukas Creutzburg
   6:.\i2cmaster.c **** *
   7:.\i2cmaster.c **** *  Description:
   8:.\i2cmaster.c **** *  CapSense module
   9:.\i2cmaster.c **** *
  10:.\i2cmaster.c **** * =================================================================================================
  11:.\i2cmaster.c **** */
  12:.\i2cmaster.c **** #include "i2cmaster.h"
  13:.\i2cmaster.c **** 
  14:.\i2cmaster.c **** /* Variables */
  15:.\i2cmaster.c **** 
  16:.\i2cmaster.c **** //_________________________________
  17:.\i2cmaster.c **** 
  18:.\i2cmaster.c **** /*******************************************************************************
  19:.\i2cmaster.c **** * Function Name:  UARTInit
  20:.\i2cmaster.c **** ********************************************************************************
  21:.\i2cmaster.c **** *
  22:.\i2cmaster.c **** * Summary:
  23:.\i2cmaster.c **** *   Initializes CapSense  
  24:.\i2cmaster.c **** *
  25:.\i2cmaster.c **** * Parameters:  
  26:.\i2cmaster.c **** *  None
  27:.\i2cmaster.c **** *
  28:.\i2cmaster.c **** * Return: 
  29:.\i2cmaster.c **** *  None 
  30:.\i2cmaster.c **** *  
  31:.\i2cmaster.c **** *******************************************************************************/
ARM GAS  C:\Users\LUKASC~1\AppData\Local\Temp\ccaygMDf.s 			page 2


  32:.\i2cmaster.c **** void I2CInit(void)
  33:.\i2cmaster.c **** {
  27              		.loc 1 33 0
  28              		.cfi_startproc
  29              		@ args = 0, pretend = 0, frame = 0
  30              		@ frame_needed = 0, uses_anonymous_args = 0
  31 0000 08B5     		push	{r3, lr}
  32              		.cfi_def_cfa_offset 8
  33              		.cfi_offset 3, -8
  34              		.cfi_offset 14, -4
  34:.\i2cmaster.c ****     I2CM_Start();
  35              		.loc 1 34 0
  36 0002 FFF7FEFF 		bl	I2CM_Start
  37              	.LVL0:
  38 0006 08BD     		pop	{r3, pc}
  39              		.cfi_endproc
  40              	.LFE63:
  41              		.size	I2CInit, .-I2CInit
  42              		.section	.text.I2CWriteCommandPacket,"ax",%progbits
  43              		.align	2
  44              		.global	I2CWriteCommandPacket
  45              		.thumb
  46              		.thumb_func
  47              		.type	I2CWriteCommandPacket, %function
  48              	I2CWriteCommandPacket:
  49              	.LFB64:
  35:.\i2cmaster.c **** }
  36:.\i2cmaster.c **** //_________________________________________________________________
  37:.\i2cmaster.c **** 
  38:.\i2cmaster.c **** 
  39:.\i2cmaster.c **** /*******************************************************************************
  40:.\i2cmaster.c **** * Function Name: I2CWriteCommandPacket
  41:.\i2cmaster.c **** ********************************************************************************
  42:.\i2cmaster.c **** *
  43:.\i2cmaster.c **** * Summary:
  44:.\i2cmaster.c **** *  Sends command via I2C
  45:.\i2cmaster.c **** *
  46:.\i2cmaster.c **** * Parameters:  
  47:.\i2cmaster.c **** *   uint8: command to send
  48:.\i2cmaster.c **** * Return: 
  49:.\i2cmaster.c **** *   uint32: current state
  50:.\i2cmaster.c **** *   Returns status of the transfer. There are two statuses
  51:.\i2cmaster.c **** *   - TRANSFER_CMPLT: transfer completed successfully.
  52:.\i2cmaster.c **** *   - TRANSFER_ERROR: the error occurred while transfer.
  53:.\i2cmaster.c **** *
  54:.\i2cmaster.c **** *******************************************************************************/
  55:.\i2cmaster.c **** uint32 I2CWriteCommandPacket(uint8 cmd)
  56:.\i2cmaster.c **** {
  50              		.loc 1 56 0
  51              		.cfi_startproc
  52              		@ args = 0, pretend = 0, frame = 8
  53              		@ frame_needed = 0, uses_anonymous_args = 0
  54              	.LVL1:
  55 0000 10B5     		push	{r4, lr}
  56              		.cfi_def_cfa_offset 8
  57              		.cfi_offset 4, -8
  58              		.cfi_offset 14, -4
ARM GAS  C:\Users\LUKASC~1\AppData\Local\Temp\ccaygMDf.s 			page 3


  59 0002 82B0     		sub	sp, sp, #8
  60              		.cfi_def_cfa_offset 16
  61              	.LVL2:
  57:.\i2cmaster.c ****     uint8  buffer[BUFFER_SIZE];
  58:.\i2cmaster.c ****     uint32 status = TRANSFER_ERROR;
  59:.\i2cmaster.c **** 
  60:.\i2cmaster.c ****     /* Initialize buffer with packet */
  61:.\i2cmaster.c ****     buffer[PACKET_SOP_POS] = PACKET_SOP;
  62              		.loc 1 61 0
  63 0004 0123     		movs	r3, #1
  64 0006 8DF80430 		strb	r3, [sp, #4]
  62:.\i2cmaster.c ****     buffer[PACKET_CMD_POS] = cmd;
  65              		.loc 1 62 0
  66 000a 8DF80500 		strb	r0, [sp, #5]
  63:.\i2cmaster.c ****     buffer[PACKET_EOP_POS] = PACKET_EOP;
  67              		.loc 1 63 0
  68 000e 1723     		movs	r3, #23
  69 0010 8DF80630 		strb	r3, [sp, #6]
  64:.\i2cmaster.c **** 
  65:.\i2cmaster.c ****     (void) I2CM_MasterWriteBuf(I2C_SLAVE_ADDR, buffer, PACKET_SIZE, \
  70              		.loc 1 65 0
  71 0014 0820     		movs	r0, #8
  72              	.LVL3:
  73 0016 01A9     		add	r1, sp, #4
  74 0018 0322     		movs	r2, #3
  75 001a 0023     		movs	r3, #0
  76 001c FFF7FEFF 		bl	I2CM_MasterWriteBuf
  77              	.LVL4:
  78              	.L4:
  66:.\i2cmaster.c ****                                   I2CM_MODE_COMPLETE_XFER);
  67:.\i2cmaster.c **** 
  68:.\i2cmaster.c ****     /* Waits until master completes write transfer */
  69:.\i2cmaster.c ****     while (0u == (I2CM_MasterStatus() & I2CM_MSTAT_WR_CMPLT))
  79              		.loc 1 69 0 discriminator 1
  80 0020 FFF7FEFF 		bl	I2CM_MasterStatus
  81              	.LVL5:
  82 0024 10F0020F 		tst	r0, #2
  83 0028 FAD0     		beq	.L4
  70:.\i2cmaster.c ****     {
  71:.\i2cmaster.c ****     }
  72:.\i2cmaster.c **** 
  73:.\i2cmaster.c ****     /* Displays transfer status */
  74:.\i2cmaster.c ****     if (0u == (I2CM_MSTAT_ERR_XFER & I2CM_MasterStatus()))
  84              		.loc 1 74 0
  85 002a FFF7FEFF 		bl	I2CM_MasterStatus
  86              	.LVL6:
  87 002e 10F0800F 		tst	r0, #128
  88 0032 05D1     		bne	.L6
  75:.\i2cmaster.c ****     {
  76:.\i2cmaster.c ****         /* Check if all bytes was written */
  77:.\i2cmaster.c ****         if (I2CM_MasterGetWriteBufSize() == BUFFER_SIZE)
  89              		.loc 1 77 0
  90 0034 FFF7FEFF 		bl	I2CM_MasterGetWriteBufSize
  91              	.LVL7:
  92 0038 0328     		cmp	r0, #3
  93 003a 03D0     		beq	.L7
  58:.\i2cmaster.c **** 
ARM GAS  C:\Users\LUKASC~1\AppData\Local\Temp\ccaygMDf.s 			page 4


  94              		.loc 1 58 0
  95 003c FF24     		movs	r4, #255
  96 003e 02E0     		b	.L5
  97              	.L6:
  98 0040 FF24     		movs	r4, #255
  99 0042 00E0     		b	.L5
 100              	.L7:
  78:.\i2cmaster.c ****         {
  79:.\i2cmaster.c ****             //RGB_LED_ON_GREEN;
  80:.\i2cmaster.c ****             status = TRANSFER_CMPLT;
 101              		.loc 1 80 0
 102 0044 0024     		movs	r4, #0
 103              	.L5:
 104              	.LVL8:
  81:.\i2cmaster.c ****         }
  82:.\i2cmaster.c ****     }
  83:.\i2cmaster.c ****     else
  84:.\i2cmaster.c ****     {
  85:.\i2cmaster.c ****         //RGB_LED_ON_RED;
  86:.\i2cmaster.c ****     }
  87:.\i2cmaster.c **** 
  88:.\i2cmaster.c ****     (void) I2CM_MasterClearStatus();
 105              		.loc 1 88 0
 106 0046 FFF7FEFF 		bl	I2CM_MasterClearStatus
 107              	.LVL9:
  89:.\i2cmaster.c **** 
  90:.\i2cmaster.c ****     return (status);
  91:.\i2cmaster.c **** }
 108              		.loc 1 91 0
 109 004a 2046     		mov	r0, r4
 110 004c 02B0     		add	sp, sp, #8
 111              		.cfi_def_cfa_offset 8
 112              		@ sp needed
 113 004e 10BD     		pop	{r4, pc}
 114              		.cfi_endproc
 115              	.LFE64:
 116              		.size	I2CWriteCommandPacket, .-I2CWriteCommandPacket
 117              		.section	.text.I2CReadStatusPacket,"ax",%progbits
 118              		.align	2
 119              		.global	I2CReadStatusPacket
 120              		.thumb
 121              		.thumb_func
 122              		.type	I2CReadStatusPacket, %function
 123              	I2CReadStatusPacket:
 124              	.LFB65:
  92:.\i2cmaster.c **** //_________________________________________________________________
  93:.\i2cmaster.c **** 
  94:.\i2cmaster.c **** 
  95:.\i2cmaster.c **** /*******************************************************************************
  96:.\i2cmaster.c **** * Function Name: I2CReadStatusPacket
  97:.\i2cmaster.c **** ********************************************************************************
  98:.\i2cmaster.c **** * Summary:
  99:.\i2cmaster.c **** *  Read command from slave
 100:.\i2cmaster.c **** *
 101:.\i2cmaster.c **** * Parameters:
 102:.\i2cmaster.c **** *  None
 103:.\i2cmaster.c **** *
ARM GAS  C:\Users\LUKASC~1\AppData\Local\Temp\ccaygMDf.s 			page 5


 104:.\i2cmaster.c **** * Return:
 105:.\i2cmaster.c **** *  Returns status of the transfer. There are two statuses
 106:.\i2cmaster.c **** *  - TRANSFER_CMPLT: transfer completed successfully.
 107:.\i2cmaster.c **** *  - TRANSFER_ERROR: the error occurred while transfer.
 108:.\i2cmaster.c **** *
 109:.\i2cmaster.c **** *******************************************************************************/
 110:.\i2cmaster.c **** uint32 I2CReadStatusPacket(void)
 111:.\i2cmaster.c **** {
 125              		.loc 1 111 0
 126              		.cfi_startproc
 127              		@ args = 0, pretend = 0, frame = 8
 128              		@ frame_needed = 0, uses_anonymous_args = 0
 129 0000 10B5     		push	{r4, lr}
 130              		.cfi_def_cfa_offset 8
 131              		.cfi_offset 4, -8
 132              		.cfi_offset 14, -4
 133 0002 82B0     		sub	sp, sp, #8
 134              		.cfi_def_cfa_offset 16
 135              	.LVL10:
 112:.\i2cmaster.c ****     uint8  buffer[BUFFER_SIZE];
 113:.\i2cmaster.c ****     uint32 status = TRANSFER_ERROR;
 114:.\i2cmaster.c **** 
 115:.\i2cmaster.c ****     (void) I2CM_MasterReadBuf(I2C_SLAVE_ADDR, buffer, PACKET_SIZE, \
 136              		.loc 1 115 0
 137 0004 0820     		movs	r0, #8
 138 0006 01A9     		add	r1, sp, #4
 139 0008 0322     		movs	r2, #3
 140 000a 0023     		movs	r3, #0
 141 000c FFF7FEFF 		bl	I2CM_MasterReadBuf
 142              	.LVL11:
 143              	.L10:
 116:.\i2cmaster.c ****                                  I2CM_MODE_COMPLETE_XFER);
 117:.\i2cmaster.c **** 
 118:.\i2cmaster.c ****     /* Waits until master complete read transfer */
 119:.\i2cmaster.c ****     while (0u == (I2CM_MasterStatus() & I2CM_MSTAT_RD_CMPLT))
 144              		.loc 1 119 0 discriminator 1
 145 0010 FFF7FEFF 		bl	I2CM_MasterStatus
 146              	.LVL12:
 147 0014 10F0010F 		tst	r0, #1
 148 0018 FAD0     		beq	.L10
 120:.\i2cmaster.c ****     {
 121:.\i2cmaster.c ****     }
 122:.\i2cmaster.c **** 
 123:.\i2cmaster.c ****     /* Displays transfer status */
 124:.\i2cmaster.c ****     if (0u == (I2CM_MSTAT_ERR_XFER & I2CM_MasterStatus()))
 149              		.loc 1 124 0
 150 001a FFF7FEFF 		bl	I2CM_MasterStatus
 151              	.LVL13:
 152 001e 10F0800F 		tst	r0, #128
 153 0022 10D1     		bne	.L12
 125:.\i2cmaster.c ****     {
 126:.\i2cmaster.c ****         /* Check packet structure */
 127:.\i2cmaster.c ****         if ((I2CM_MasterGetReadBufSize() == BUFFER_SIZE) &&
 154              		.loc 1 127 0
 155 0024 FFF7FEFF 		bl	I2CM_MasterGetReadBufSize
 156              	.LVL14:
 157 0028 0328     		cmp	r0, #3
ARM GAS  C:\Users\LUKASC~1\AppData\Local\Temp\ccaygMDf.s 			page 6


 158 002a 0ED1     		bne	.L13
 128:.\i2cmaster.c ****             (PACKET_SOP == buffer[PACKET_SOP_POS]) &&
 159              		.loc 1 128 0 discriminator 1
 160 002c 9DF80430 		ldrb	r3, [sp, #4]	@ zero_extendqisi2
 127:.\i2cmaster.c ****             (PACKET_SOP == buffer[PACKET_SOP_POS]) &&
 161              		.loc 1 127 0 discriminator 1
 162 0030 012B     		cmp	r3, #1
 163 0032 0CD1     		bne	.L14
 129:.\i2cmaster.c ****             (PACKET_EOP == buffer[PACKET_EOP_POS]))
 164              		.loc 1 129 0
 165 0034 9DF80630 		ldrb	r3, [sp, #6]	@ zero_extendqisi2
 128:.\i2cmaster.c ****             (PACKET_SOP == buffer[PACKET_SOP_POS]) &&
 166              		.loc 1 128 0
 167 0038 172B     		cmp	r3, #23
 168 003a 0AD1     		bne	.L15
 130:.\i2cmaster.c ****         {
 131:.\i2cmaster.c ****             /* Check packet status */
 132:.\i2cmaster.c ****             if (STS_CMD_DONE == buffer[PACKET_STS_POS])
 169              		.loc 1 132 0
 170 003c 9DF80530 		ldrb	r3, [sp, #5]	@ zero_extendqisi2
 171 0040 4BB1     		cbz	r3, .L16
 113:.\i2cmaster.c **** 
 172              		.loc 1 113 0
 173 0042 FF24     		movs	r4, #255
 174 0044 08E0     		b	.L11
 175              	.L12:
 133:.\i2cmaster.c ****             {
 134:.\i2cmaster.c ****                 //RGB_LED_ON_GREEN;
 135:.\i2cmaster.c ****                 status = TRANSFER_CMPLT;
 136:.\i2cmaster.c ****             }
 137:.\i2cmaster.c ****         }
 138:.\i2cmaster.c ****     }
 139:.\i2cmaster.c ****     else
 140:.\i2cmaster.c ****     {
 141:.\i2cmaster.c ****         //RGB_LED_ON_RED;
 142:.\i2cmaster.c ****         status = TRANSFER_ERROR;
 176              		.loc 1 142 0
 177 0046 FF24     		movs	r4, #255
 178 0048 06E0     		b	.L11
 179              	.L13:
 113:.\i2cmaster.c **** 
 180              		.loc 1 113 0
 181 004a FF24     		movs	r4, #255
 182 004c 04E0     		b	.L11
 183              	.L14:
 184 004e FF24     		movs	r4, #255
 185 0050 02E0     		b	.L11
 186              	.L15:
 187 0052 FF24     		movs	r4, #255
 188 0054 00E0     		b	.L11
 189              	.L16:
 135:.\i2cmaster.c ****             }
 190              		.loc 1 135 0
 191 0056 0024     		movs	r4, #0
 192              	.L11:
 193              	.LVL15:
 143:.\i2cmaster.c ****     }
ARM GAS  C:\Users\LUKASC~1\AppData\Local\Temp\ccaygMDf.s 			page 7


 144:.\i2cmaster.c **** 
 145:.\i2cmaster.c ****     (void) I2CM_MasterClearStatus();
 194              		.loc 1 145 0
 195 0058 FFF7FEFF 		bl	I2CM_MasterClearStatus
 196              	.LVL16:
 146:.\i2cmaster.c **** 
 147:.\i2cmaster.c ****     return (status);
 148:.\i2cmaster.c **** }
 197              		.loc 1 148 0
 198 005c 2046     		mov	r0, r4
 199 005e 02B0     		add	sp, sp, #8
 200              		.cfi_def_cfa_offset 8
 201              		@ sp needed
 202 0060 10BD     		pop	{r4, pc}
 203              		.cfi_endproc
 204              	.LFE65:
 205              		.size	I2CReadStatusPacket, .-I2CReadStatusPacket
 206 0062 00BF     		.text
 207              	.Letext0:
 208              		.file 2 "c:\\program files (x86)\\cypress\\psoc creator\\3.3\\psoc creator\\import\\gnu\\arm\\4.9.
 209              		.file 3 "c:\\program files (x86)\\cypress\\psoc creator\\3.3\\psoc creator\\import\\gnu\\arm\\4.9.
 210              		.file 4 "Generated_Source\\PSoC5/cytypes.h"
 211              		.file 5 "Generated_Source\\PSoC5/I2CM.h"
 212              		.file 6 "Generated_Source\\PSoC5/core_cm3.h"