ARM GAS  C:\Users\LUKASC~1\AppData\Local\Temp\ccuiiMNK.s 			page 1


   1              		.syntax unified
   2              		.cpu cortex-m3
   3              		.fpu softvfp
   4              		.eabi_attribute 20, 1
   5              		.eabi_attribute 21, 1
   6              		.eabi_attribute 23, 3
   7              		.eabi_attribute 24, 1
   8              		.eabi_attribute 25, 1
   9              		.eabi_attribute 26, 1
  10              		.eabi_attribute 30, 6
  11              		.eabi_attribute 34, 1
  12              		.eabi_attribute 18, 4
  13              		.thumb
  14              		.file	"main.c"
  15              		.text
  16              	.Ltext0:
  17              		.cfi_sections	.debug_frame
  18              		.bss
  19              	txDmaChan:
  20 0000 00       		.space	1
  21 0001 000000   		.align	2
  22              	txDmaTd:
  23 0004 00       		.space	1
  24              		.global	txBuff
  25 0005 000000   		.data
  26              		.align	2
  27              		.type	txBuff, %object
  28              		.size	txBuff, 4
  29              	txBuff:
  30 0000 CA       		.byte	-54
  31 0001 FE       		.byte	-2
  32 0002 FA       		.byte	-6
  33 0003 CE       		.byte	-50
  34              		.section	.text.main,"ax",%progbits
  35              		.align	2
  36              		.global	main
  37              		.thumb
  38              		.thumb_func
  39              		.type	main, %function
  40              	main:
  41              	.LFB63:
  42              		.file 1 ".\\main.c"
   1:.\main.c      **** /*******************************************************************************
   2:.\main.c      **** * File Name: main.c
   3:.\main.c      **** *
   4:.\main.c      **** * Version: 2.0
   5:.\main.c      **** *
   6:.\main.c      **** * Description:
   7:.\main.c      **** *  This is the source code for the example project of the Inter-IC Sound Bus
   8:.\main.c      **** * (I2S) component.
   9:.\main.c      **** *
  10:.\main.c      **** *  Parameters used:
  11:.\main.c      **** *   Direction:          Tx and Rx
  12:.\main.c      **** *   WordSelect:         64 bits
  13:.\main.c      **** *   DataBits:           16 bits
  14:.\main.c      **** *   DataInterleaving:   Interleaved
  15:.\main.c      **** *   DMA Request:        Tx and Rx
ARM GAS  C:\Users\LUKASC~1\AppData\Local\Temp\ccuiiMNK.s 			page 2


  16:.\main.c      **** *   Rx clip detection:  Enabled
  17:.\main.c      **** *
  18:.\main.c      **** *  I2S data transfers with a loopback. Tx data is sent from the memory to
  19:.\main.c      **** *  the Tx FIFO using TxDMA. The data is transmitted on the Tx direction and
  20:.\main.c      **** *  is received on the Rx direction.
  21:.\main.c      **** *  RxDMA transfers the data from Rx FIFO to the SRAM buffer.
  22:.\main.c      **** *  Received data is  displayed on the LCD. 
  23:.\main.c      **** *  Pressing SW1 on the DVK increments the value of the first element in the
  24:.\main.c      **** *  transmit buffer. If the value crosses the negative and positive clipping
  25:.\main.c      **** *  thresholds, the LED1 is turned on.
  26:.\main.c      **** *
  27:.\main.c      **** ********************************************************************************
  28:.\main.c      **** * Copyright 2012-2014, Cypress Semiconductor Corporation. All rights reserved.
  29:.\main.c      **** * This software is owned by Cypress Semiconductor Corporation and is protected
  30:.\main.c      **** * by and subject to worldwide patent and copyright laws and treaties.
  31:.\main.c      **** * Therefore, you may use this software only as provided in the license agreement
  32:.\main.c      **** * accompanying the software package from which you obtained this software.
  33:.\main.c      **** * CYPRESS AND ITS SUPPLIERS MAKE NO WARRANTY OF ANY KIND, EXPRESS OR IMPLIED,
  34:.\main.c      **** * WITH REGARD TO THIS SOFTWARE, INCLUDING, BUT NOT LIMITED TO, NONINFRINGEMENT,
  35:.\main.c      **** * IMPLIED WARRANTIES OF MERCHANTABILITY AND FITNESS FOR A PARTICULAR PURPOSE.
  36:.\main.c      **** *******************************************************************************/
  37:.\main.c      **** 
  38:.\main.c      **** #include <project.h>
  39:.\main.c      **** 
  40:.\main.c      **** #define BUFFER_SIZE                 (4u)
  41:.\main.c      **** #define	BUTTON_DEBOUNCE_COUNT_MAX	(30u)
  42:.\main.c      **** #define	USERIO_DISPLAY_REFRESH      (100u)
  43:.\main.c      **** 
  44:.\main.c      **** /* DMA Configuration for RxDMA */
  45:.\main.c      **** #define RxDMA_BYTES_PER_BURST       (1u)
  46:.\main.c      **** #define RxDMA_REQUEST_PER_BURST     (1u)
  47:.\main.c      **** #define RxDMA_SRC_BASE              (CYDEV_PERIPH_BASE)
  48:.\main.c      **** #define RxDMA_DST_BASE              (CYDEV_SRAM_BASE)
  49:.\main.c      **** 
  50:.\main.c      **** /* DMA Configuration for TxDMA */
  51:.\main.c      **** #define TxDMA_BYTES_PER_BURST       (1u)
  52:.\main.c      **** #define TxDMA_REQUEST_PER_BURST     (1u)
  53:.\main.c      **** #define TxDMA_SRC_BASE              (CYDEV_SRAM_BASE)
  54:.\main.c      **** #define TxDMA_DST_BASE              (CYDEV_PERIPH_BASE)
  55:.\main.c      **** 
  56:.\main.c      **** /* Function prototypes */
  57:.\main.c      **** static void DmaTxConfiguration(void);
  58:.\main.c      **** 
  59:.\main.c      **** /* Variable declarations for RxDMA and TxDMA */
  60:.\main.c      **** static uint8 txDmaChan;
  61:.\main.c      **** static uint8 txDmaTd[1u];
  62:.\main.c      **** 
  63:.\main.c      **** 
  64:.\main.c      **** /* Data to be transmitted by Tx */
  65:.\main.c      **** uint8 txBuff[BUFFER_SIZE] = {0xCAu, 0xFEu, 0xFAu, 0xCEu};
  66:.\main.c      **** 
  67:.\main.c      **** 
  68:.\main.c      **** /*******************************************************************************
  69:.\main.c      **** * Function Name: main
  70:.\main.c      **** ********************************************************************************
  71:.\main.c      **** *
  72:.\main.c      **** * Summary:
ARM GAS  C:\Users\LUKASC~1\AppData\Local\Temp\ccuiiMNK.s 			page 3


  73:.\main.c      **** *  The main function performs the following tasks:
  74:.\main.c      **** *   1. Starts all components
  75:.\main.c      **** *   2. Configures the DMA transfer for the Rx and Tx directions
  76:.\main.c      **** *   3. Enables Rx and Tx directions
  77:.\main.c      **** *   4. Scans for a button event and increment the first element of txBuff[] if
  78:.\main.c      **** *      the button was pressed
  79:.\main.c      **** *   5. Prints out the received data onto the LCD with a user defined refresh
  80:.\main.c      **** *      rate
  81:.\main.c      **** *   
  82:.\main.c      **** * Parameters:
  83:.\main.c      **** *  None.
  84:.\main.c      **** *
  85:.\main.c      **** * Return:
  86:.\main.c      **** *  None.
  87:.\main.c      **** *
  88:.\main.c      **** *******************************************************************************/
  89:.\main.c      **** int main()
  90:.\main.c      **** {   
  43              		.loc 1 90 0
  44              		.cfi_startproc
  45              		@ args = 0, pretend = 0, frame = 8
  46              		@ frame_needed = 1, uses_anonymous_args = 0
  47 0000 80B5     		push	{r7, lr}
  48              		.cfi_def_cfa_offset 8
  49              		.cfi_offset 7, -8
  50              		.cfi_offset 14, -4
  51 0002 82B0     		sub	sp, sp, #8
  52              		.cfi_def_cfa_offset 16
  53 0004 00AF     		add	r7, sp, #0
  54              		.cfi_def_cfa_register 7
  91:.\main.c      ****     uint8 refreshRate = USERIO_DISPLAY_REFRESH;
  55              		.loc 1 91 0
  56 0006 6423     		movs	r3, #100
  57 0008 FB71     		strb	r3, [r7, #7]
  92:.\main.c      **** 
  93:.\main.c      **** 
  94:.\main.c      ****     I2S_1_Start();
  58              		.loc 1 94 0
  59 000a FFF7FEFF 		bl	I2S_1_Start
  95:.\main.c      ****     
  96:.\main.c      ****     /* Configure DMAs for each direction */ 
  97:.\main.c      ****     DmaTxConfiguration();
  60              		.loc 1 97 0
  61 000e FFF7FEFF 		bl	DmaTxConfiguration
  98:.\main.c      **** 
  99:.\main.c      **** 
 100:.\main.c      ****     while(0u != (I2S_1_ReadTxStatus() & I2S_1_TX_FIFO_0_NOT_FULL))
  62              		.loc 1 100 0
  63 0012 00BF     		nop
  64              	.L2:
  65              		.loc 1 100 0 is_stmt 0 discriminator 1
  66 0014 134B     		ldr	r3, .L7
  67 0016 1B78     		ldrb	r3, [r3]
  68 0018 DBB2     		uxtb	r3, r3
  69 001a 03F00203 		and	r3, r3, #2
  70 001e 002B     		cmp	r3, #0
  71 0020 F8D1     		bne	.L2
ARM GAS  C:\Users\LUKASC~1\AppData\Local\Temp\ccuiiMNK.s 			page 4


 101:.\main.c      ****     {
 102:.\main.c      ****         /* Wait for TxDMA to fill Tx FIFO */
 103:.\main.c      ****     }
 104:.\main.c      ****     CyDelayUs(1);
  72              		.loc 1 104 0 is_stmt 1
  73 0022 0120     		movs	r0, #1
  74 0024 FFF7FEFF 		bl	CyDelayUs
 105:.\main.c      ****     I2S_1_EnableTx();   /* Enable Tx direction */
  75              		.loc 1 105 0
  76 0028 FFF7FEFF 		bl	I2S_1_EnableTx
  77              	.L6:
 106:.\main.c      ****    
 107:.\main.c      ****     for(;;)
 108:.\main.c      ****     {
 109:.\main.c      ****         /* Execute following tasks once every millisecond */
 110:.\main.c      ****         CyDelay(1u);
  78              		.loc 1 110 0
  79 002c 0120     		movs	r0, #1
  80 002e FFF7FEFF 		bl	CyDelay
 111:.\main.c      **** 
 112:.\main.c      **** 
 113:.\main.c      ****         if(0u != refreshRate)
  81              		.loc 1 113 0
  82 0032 FB79     		ldrb	r3, [r7, #7]	@ zero_extendqisi2
  83 0034 002B     		cmp	r3, #0
  84 0036 03D0     		beq	.L3
 114:.\main.c      ****         {
 115:.\main.c      ****             refreshRate--;
  85              		.loc 1 115 0
  86 0038 FB79     		ldrb	r3, [r7, #7]	@ zero_extendqisi2
  87 003a 013B     		subs	r3, r3, #1
  88 003c FB71     		strb	r3, [r7, #7]
  89 003e 0FE0     		b	.L4
  90              	.L3:
 116:.\main.c      ****         }
 117:.\main.c      ****         else
 118:.\main.c      ****         {
 119:.\main.c      ****             refreshRate = USERIO_DISPLAY_REFRESH;
  91              		.loc 1 119 0
  92 0040 6423     		movs	r3, #100
  93 0042 FB71     		strb	r3, [r7, #7]
 120:.\main.c      **** 
 121:.\main.c      ****             /* If SW1 has been pressed, increment the first byte of Tx buffer */
 122:.\main.c      ****             if(txBuff[0u]<255)
  94              		.loc 1 122 0
  95 0044 084B     		ldr	r3, .L7+4
  96 0046 1B78     		ldrb	r3, [r3]	@ zero_extendqisi2
  97 0048 FF2B     		cmp	r3, #255
  98 004a 06D0     		beq	.L5
 123:.\main.c      ****             {
 124:.\main.c      ****                 txBuff[0u]++;
  99              		.loc 1 124 0
 100 004c 064B     		ldr	r3, .L7+4
 101 004e 1B78     		ldrb	r3, [r3]	@ zero_extendqisi2
 102 0050 0133     		adds	r3, r3, #1
 103 0052 DAB2     		uxtb	r2, r3
 104 0054 044B     		ldr	r3, .L7+4
ARM GAS  C:\Users\LUKASC~1\AppData\Local\Temp\ccuiiMNK.s 			page 5


 105 0056 1A70     		strb	r2, [r3]
 106 0058 02E0     		b	.L4
 107              	.L5:
 125:.\main.c      ****             }
 126:.\main.c      ****             else
 127:.\main.c      ****             {
 128:.\main.c      ****                 txBuff[0u]=0;
 108              		.loc 1 128 0
 109 005a 034B     		ldr	r3, .L7+4
 110 005c 0022     		movs	r2, #0
 111 005e 1A70     		strb	r2, [r3]
 112              	.L4:
 129:.\main.c      ****             }
 130:.\main.c      ****         }
 131:.\main.c      ****     }
 113              		.loc 1 131 0
 114 0060 E4E7     		b	.L6
 115              	.L8:
 116 0062 00BF     		.align	2
 117              	.L7:
 118 0064 62640040 		.word	1073767522
 119 0068 00000000 		.word	txBuff
 120              		.cfi_endproc
 121              	.LFE63:
 122              		.size	main, .-main
 123              		.section	.text.DmaTxConfiguration,"ax",%progbits
 124              		.align	2
 125              		.thumb
 126              		.thumb_func
 127              		.type	DmaTxConfiguration, %function
 128              	DmaTxConfiguration:
 129              	.LFB64:
 132:.\main.c      **** }
 133:.\main.c      **** 
 134:.\main.c      **** 
 135:.\main.c      **** /*******************************************************************************
 136:.\main.c      **** * Function Name: DmaTxConfiguration
 137:.\main.c      **** ********************************************************************************
 138:.\main.c      **** *
 139:.\main.c      **** * Summary:
 140:.\main.c      **** *  Configures the DMA transfer for the Tx direction.
 141:.\main.c      **** *   
 142:.\main.c      **** * Parameters:
 143:.\main.c      **** *  None.
 144:.\main.c      **** *
 145:.\main.c      **** * Return:
 146:.\main.c      **** *  None.
 147:.\main.c      **** *
 148:.\main.c      **** *******************************************************************************/
 149:.\main.c      **** void DmaTxConfiguration(void)
 150:.\main.c      **** {
 130              		.loc 1 150 0
 131              		.cfi_startproc
 132              		@ args = 0, pretend = 0, frame = 0
 133              		@ frame_needed = 1, uses_anonymous_args = 0
 134 0000 80B5     		push	{r7, lr}
 135              		.cfi_def_cfa_offset 8
ARM GAS  C:\Users\LUKASC~1\AppData\Local\Temp\ccuiiMNK.s 			page 6


 136              		.cfi_offset 7, -8
 137              		.cfi_offset 14, -4
 138 0002 00AF     		add	r7, sp, #0
 139              		.cfi_def_cfa_register 7
 151:.\main.c      ****      /* Tx DMA Config
 152:.\main.c      ****     * Init DMA, 1 byte bursts, each burst requires a request
 153:.\main.c      ****     */ 
 154:.\main.c      ****     txDmaChan = TxDMA_DmaInitialize(TxDMA_BYTES_PER_BURST, TxDMA_REQUEST_PER_BURST, 
 140              		.loc 1 154 0
 141 0004 0120     		movs	r0, #1
 142 0006 0121     		movs	r1, #1
 143 0008 41F6FF72 		movw	r2, #8191
 144 000c 4FF48043 		mov	r3, #16384
 145 0010 FFF7FEFF 		bl	TxDMA_DmaInitialize
 146 0014 0346     		mov	r3, r0
 147 0016 1A46     		mov	r2, r3
 148 0018 154B     		ldr	r3, .L10
 149 001a 1A70     		strb	r2, [r3]
 155:.\main.c      ****                                     HI16(TxDMA_SRC_BASE), HI16(TxDMA_DST_BASE));
 156:.\main.c      **** 
 157:.\main.c      ****     txDmaTd[0u] = CyDmaTdAllocate();
 150              		.loc 1 157 0
 151 001c FFF7FEFF 		bl	CyDmaTdAllocate
 152 0020 0346     		mov	r3, r0
 153 0022 1A46     		mov	r2, r3
 154 0024 134B     		ldr	r3, .L10+4
 155 0026 1A70     		strb	r2, [r3]
 158:.\main.c      **** 
 159:.\main.c      ****     /* Configure this Td chain as follows:
 160:.\main.c      ****     *  - The TD is looping on itself
 161:.\main.c      ****     *  - Increment the source address, but not the destination address   
 162:.\main.c      ****     */
 163:.\main.c      ****     CyDmaTdSetConfiguration(txDmaTd[0u], BUFFER_SIZE, txDmaTd[0u], TD_INC_SRC_ADR);
 156              		.loc 1 163 0
 157 0028 124B     		ldr	r3, .L10+4
 158 002a 1A78     		ldrb	r2, [r3]	@ zero_extendqisi2
 159 002c 114B     		ldr	r3, .L10+4
 160 002e 1B78     		ldrb	r3, [r3]	@ zero_extendqisi2
 161 0030 1046     		mov	r0, r2
 162 0032 0421     		movs	r1, #4
 163 0034 1A46     		mov	r2, r3
 164 0036 0123     		movs	r3, #1
 165 0038 FFF7FEFF 		bl	CyDmaTdSetConfiguration
 164:.\main.c      ****     
 165:.\main.c      ****     /* From the memory to the I2S */
 166:.\main.c      ****     CyDmaTdSetAddress(txDmaTd[0u], LO16((uint32)txBuff), LO16((uint32)I2S_1_TX_CH0_F0_PTR));
 166              		.loc 1 166 0
 167 003c 0D4B     		ldr	r3, .L10+4
 168 003e 1A78     		ldrb	r2, [r3]	@ zero_extendqisi2
 169 0040 0D4B     		ldr	r3, .L10+8
 170 0042 9BB2     		uxth	r3, r3
 171 0044 1046     		mov	r0, r2
 172 0046 1946     		mov	r1, r3
 173 0048 46F24242 		movw	r2, #25666
 174 004c FFF7FEFF 		bl	CyDmaTdSetAddress
 167:.\main.c      **** 
 168:.\main.c      ****     /* Associate the TD with the channel */
ARM GAS  C:\Users\LUKASC~1\AppData\Local\Temp\ccuiiMNK.s 			page 7


 169:.\main.c      ****     CyDmaChSetInitialTd(txDmaChan, txDmaTd[0u]);
 175              		.loc 1 169 0
 176 0050 074B     		ldr	r3, .L10
 177 0052 1A78     		ldrb	r2, [r3]	@ zero_extendqisi2
 178 0054 074B     		ldr	r3, .L10+4
 179 0056 1B78     		ldrb	r3, [r3]	@ zero_extendqisi2
 180 0058 1046     		mov	r0, r2
 181 005a 1946     		mov	r1, r3
 182 005c FFF7FEFF 		bl	CyDmaChSetInitialTd
 170:.\main.c      **** 
 171:.\main.c      ****     /* Enable the channel */
 172:.\main.c      ****     CyDmaChEnable(txDmaChan, 1u);
 183              		.loc 1 172 0
 184 0060 034B     		ldr	r3, .L10
 185 0062 1B78     		ldrb	r3, [r3]	@ zero_extendqisi2
 186 0064 1846     		mov	r0, r3
 187 0066 0121     		movs	r1, #1
 188 0068 FFF7FEFF 		bl	CyDmaChEnable
 173:.\main.c      **** }
 189              		.loc 1 173 0
 190 006c 80BD     		pop	{r7, pc}
 191              	.L11:
 192 006e 00BF     		.align	2
 193              	.L10:
 194 0070 00000000 		.word	txDmaChan
 195 0074 04000000 		.word	txDmaTd
 196 0078 00000000 		.word	txBuff
 197              		.cfi_endproc
 198              	.LFE64:
 199              		.size	DmaTxConfiguration, .-DmaTxConfiguration
 200              		.text
 201              	.Letext0:
 202              		.file 2 "c:\\program files (x86)\\cypress\\psoc creator\\3.3\\psoc creator\\import\\gnu\\arm\\4.9.
 203              		.file 3 "c:\\program files (x86)\\cypress\\psoc creator\\3.3\\psoc creator\\import\\gnu\\arm\\4.9.
 204              		.file 4 "Generated_Source\\PSoC5/cytypes.h"
 205              		.file 5 "Generated_Source\\PSoC5/core_cm3.h"