ARM GAS  C:\Users\LUKASC~1\AppData\Local\Temp\ccxjPAd4.s 			page 1


   1              		.cpu cortex-m0
   2              		.fpu softvfp
   3              		.eabi_attribute 20, 1
   4              		.eabi_attribute 21, 1
   5              		.eabi_attribute 23, 3
   6              		.eabi_attribute 24, 1
   7              		.eabi_attribute 25, 1
   8              		.eabi_attribute 26, 1
   9              		.eabi_attribute 30, 6
  10              		.eabi_attribute 34, 0
  11              		.eabi_attribute 18, 4
  12              		.code	16
  13              		.file	"CapSense_CSD_TunerHelper.c"
  14              		.text
  15              	.Ltext0:
  16              		.cfi_sections	.debug_frame
  17              		.section	.text.CapSense_CSD_TunerStart,"ax",%progbits
  18              		.align	2
  19              		.global	CapSense_CSD_TunerStart
  20              		.code	16
  21              		.thumb_func
  22              		.type	CapSense_CSD_TunerStart, %function
  23              	CapSense_CSD_TunerStart:
  24              	.LFB34:
  25              		.file 1 ".\\Generated_Source\\PSoC4\\CapSense_CSD_TunerHelper.c"
   1:.\Generated_Source\PSoC4/CapSense_CSD_TunerHelper.c **** /*******************************************************************************
   2:.\Generated_Source\PSoC4/CapSense_CSD_TunerHelper.c **** * File Name: CapSense_CSD_TunerHelper.c
   3:.\Generated_Source\PSoC4/CapSense_CSD_TunerHelper.c **** * Version 2.40
   4:.\Generated_Source\PSoC4/CapSense_CSD_TunerHelper.c **** *
   5:.\Generated_Source\PSoC4/CapSense_CSD_TunerHelper.c **** * Description:
   6:.\Generated_Source\PSoC4/CapSense_CSD_TunerHelper.c **** *  This file provides the source code of the Tuner helper APIs for the CapSense CSD
   7:.\Generated_Source\PSoC4/CapSense_CSD_TunerHelper.c **** *  component.
   8:.\Generated_Source\PSoC4/CapSense_CSD_TunerHelper.c **** *
   9:.\Generated_Source\PSoC4/CapSense_CSD_TunerHelper.c **** * Note:
  10:.\Generated_Source\PSoC4/CapSense_CSD_TunerHelper.c **** *
  11:.\Generated_Source\PSoC4/CapSense_CSD_TunerHelper.c **** ********************************************************************************
  12:.\Generated_Source\PSoC4/CapSense_CSD_TunerHelper.c **** * Copyright 2013-2015, Cypress Semiconductor Corporation.  All rights reserved.
  13:.\Generated_Source\PSoC4/CapSense_CSD_TunerHelper.c **** * You may use this file only in accordance with the license, terms, conditions,
  14:.\Generated_Source\PSoC4/CapSense_CSD_TunerHelper.c **** * disclaimers, and limitations in the end user license agreement accompanying
  15:.\Generated_Source\PSoC4/CapSense_CSD_TunerHelper.c **** * the software package with which this file was provided.
  16:.\Generated_Source\PSoC4/CapSense_CSD_TunerHelper.c **** *******************************************************************************/
  17:.\Generated_Source\PSoC4/CapSense_CSD_TunerHelper.c **** 
  18:.\Generated_Source\PSoC4/CapSense_CSD_TunerHelper.c **** #include "CapSense_CSD_TunerHelper.h"
  19:.\Generated_Source\PSoC4/CapSense_CSD_TunerHelper.c **** #include "cyapicallbacks.h"
  20:.\Generated_Source\PSoC4/CapSense_CSD_TunerHelper.c **** 
  21:.\Generated_Source\PSoC4/CapSense_CSD_TunerHelper.c **** #if (CapSense_CSD_TUNER_API_GENERATE)
  22:.\Generated_Source\PSoC4/CapSense_CSD_TunerHelper.c ****     #include "SCB.h"
  23:.\Generated_Source\PSoC4/CapSense_CSD_TunerHelper.c ****     #include "SCB_EZI2C.h"
  24:.\Generated_Source\PSoC4/CapSense_CSD_TunerHelper.c ****     volatile CapSense_CSD_MAILBOXES CapSense_CSD_mailboxesComm;
  25:.\Generated_Source\PSoC4/CapSense_CSD_TunerHelper.c **** #endif  /* (CapSense_CSD_TUNER_API_GENERATE) */
  26:.\Generated_Source\PSoC4/CapSense_CSD_TunerHelper.c **** 
  27:.\Generated_Source\PSoC4/CapSense_CSD_TunerHelper.c **** /* `#START CapSense_CSD_TunerHelper_HEADER` */
  28:.\Generated_Source\PSoC4/CapSense_CSD_TunerHelper.c **** 
  29:.\Generated_Source\PSoC4/CapSense_CSD_TunerHelper.c **** /* `#END` */
  30:.\Generated_Source\PSoC4/CapSense_CSD_TunerHelper.c **** 
  31:.\Generated_Source\PSoC4/CapSense_CSD_TunerHelper.c **** /*******************************************************************************
  32:.\Generated_Source\PSoC4/CapSense_CSD_TunerHelper.c **** * Function Name: CapSense_CSD_TunerStart
ARM GAS  C:\Users\LUKASC~1\AppData\Local\Temp\ccxjPAd4.s 			page 2


  33:.\Generated_Source\PSoC4/CapSense_CSD_TunerHelper.c **** ********************************************************************************
  34:.\Generated_Source\PSoC4/CapSense_CSD_TunerHelper.c **** *
  35:.\Generated_Source\PSoC4/CapSense_CSD_TunerHelper.c **** * Summary:
  36:.\Generated_Source\PSoC4/CapSense_CSD_TunerHelper.c **** *  Initializes the CapSense CSD component and EzI2C communication component to use
  37:.\Generated_Source\PSoC4/CapSense_CSD_TunerHelper.c **** *  a mailbox data structure for communication with the Tuner GUI.
  38:.\Generated_Source\PSoC4/CapSense_CSD_TunerHelper.c **** *  Start the scanning, after initialization is complete.
  39:.\Generated_Source\PSoC4/CapSense_CSD_TunerHelper.c **** *
  40:.\Generated_Source\PSoC4/CapSense_CSD_TunerHelper.c **** * Parameters:
  41:.\Generated_Source\PSoC4/CapSense_CSD_TunerHelper.c **** *  None
  42:.\Generated_Source\PSoC4/CapSense_CSD_TunerHelper.c **** *
  43:.\Generated_Source\PSoC4/CapSense_CSD_TunerHelper.c **** * Return:
  44:.\Generated_Source\PSoC4/CapSense_CSD_TunerHelper.c **** *  None
  45:.\Generated_Source\PSoC4/CapSense_CSD_TunerHelper.c **** *
  46:.\Generated_Source\PSoC4/CapSense_CSD_TunerHelper.c **** * Global Variables:
  47:.\Generated_Source\PSoC4/CapSense_CSD_TunerHelper.c **** *  None
  48:.\Generated_Source\PSoC4/CapSense_CSD_TunerHelper.c **** *
  49:.\Generated_Source\PSoC4/CapSense_CSD_TunerHelper.c **** *******************************************************************************/
  50:.\Generated_Source\PSoC4/CapSense_CSD_TunerHelper.c **** void CapSense_CSD_TunerStart(void)
  51:.\Generated_Source\PSoC4/CapSense_CSD_TunerHelper.c **** {
  26              		.loc 1 51 0
  27              		.cfi_startproc
  28 0000 80B5     		push	{r7, lr}
  29              		.cfi_def_cfa_offset 8
  30              		.cfi_offset 7, -8
  31              		.cfi_offset 14, -4
  32 0002 00AF     		add	r7, sp, #0
  33              		.cfi_def_cfa_register 7
  52:.\Generated_Source\PSoC4/CapSense_CSD_TunerHelper.c ****     #if (0u != CapSense_CSD_TUNER_API_GENERATE)
  53:.\Generated_Source\PSoC4/CapSense_CSD_TunerHelper.c **** 
  54:.\Generated_Source\PSoC4/CapSense_CSD_TunerHelper.c ****         /* Init mbx and quick check */
  55:.\Generated_Source\PSoC4/CapSense_CSD_TunerHelper.c ****         CapSense_CSD_InitMailbox(&CapSense_CSD_mailboxesComm.csdMailbox);
  56:.\Generated_Source\PSoC4/CapSense_CSD_TunerHelper.c ****         CapSense_CSD_mailboxesComm.numMailBoxes = CapSense_CSD_DEFAULT_MAILBOXES_NUMBER;
  57:.\Generated_Source\PSoC4/CapSense_CSD_TunerHelper.c **** 
  58:.\Generated_Source\PSoC4/CapSense_CSD_TunerHelper.c ****         /* Start CapSense and baselines */
  59:.\Generated_Source\PSoC4/CapSense_CSD_TunerHelper.c ****         CapSense_CSD_Start();
  60:.\Generated_Source\PSoC4/CapSense_CSD_TunerHelper.c **** 
  61:.\Generated_Source\PSoC4/CapSense_CSD_TunerHelper.c ****         /* Initialize baselines */
  62:.\Generated_Source\PSoC4/CapSense_CSD_TunerHelper.c ****         #if(0u != CapSense_CSD_CSHL_API_GENERATE)
  63:.\Generated_Source\PSoC4/CapSense_CSD_TunerHelper.c ****             CapSense_CSD_InitializeEnabledBaselines();
  64:.\Generated_Source\PSoC4/CapSense_CSD_TunerHelper.c ****         #endif /* (0u != CapSense_CSD_CSHL_API_GENERATE) */
  65:.\Generated_Source\PSoC4/CapSense_CSD_TunerHelper.c **** 
  66:.\Generated_Source\PSoC4/CapSense_CSD_TunerHelper.c ****         /* Start EzI2C, clears buf pointers */
  67:.\Generated_Source\PSoC4/CapSense_CSD_TunerHelper.c ****         SCB_Start();
  68:.\Generated_Source\PSoC4/CapSense_CSD_TunerHelper.c **** 
  69:.\Generated_Source\PSoC4/CapSense_CSD_TunerHelper.c ****         /* Setup EzI2C buffers */
  70:.\Generated_Source\PSoC4/CapSense_CSD_TunerHelper.c ****         SCB_EzI2CSetBuffer1(sizeof(CapSense_CSD_mailboxesComm), sizeof(CapSense_CSD_mailboxesComm),
  71:.\Generated_Source\PSoC4/CapSense_CSD_TunerHelper.c ****                                                    (volatile uint8 *) &CapSense_CSD_mailboxesComm);
  72:.\Generated_Source\PSoC4/CapSense_CSD_TunerHelper.c **** 
  73:.\Generated_Source\PSoC4/CapSense_CSD_TunerHelper.c ****         /* Starts scan all enabled sensors */
  74:.\Generated_Source\PSoC4/CapSense_CSD_TunerHelper.c ****         CapSense_CSD_ScanEnabledWidgets();
  75:.\Generated_Source\PSoC4/CapSense_CSD_TunerHelper.c **** 
  76:.\Generated_Source\PSoC4/CapSense_CSD_TunerHelper.c ****     #endif  /* (0u != CapSense_CSD_TUNER_API_GENERATE) */
  77:.\Generated_Source\PSoC4/CapSense_CSD_TunerHelper.c **** }
  34              		.loc 1 77 0
  35 0004 BD46     		mov	sp, r7
  36              		@ sp needed
  37 0006 80BD     		pop	{r7, pc}
ARM GAS  C:\Users\LUKASC~1\AppData\Local\Temp\ccxjPAd4.s 			page 3


  38              		.cfi_endproc
  39              	.LFE34:
  40              		.size	CapSense_CSD_TunerStart, .-CapSense_CSD_TunerStart
  41              		.section	.text.CapSense_CSD_TunerComm,"ax",%progbits
  42              		.align	2
  43              		.global	CapSense_CSD_TunerComm
  44              		.code	16
  45              		.thumb_func
  46              		.type	CapSense_CSD_TunerComm, %function
  47              	CapSense_CSD_TunerComm:
  48              	.LFB35:
  78:.\Generated_Source\PSoC4/CapSense_CSD_TunerHelper.c **** 
  79:.\Generated_Source\PSoC4/CapSense_CSD_TunerHelper.c **** 
  80:.\Generated_Source\PSoC4/CapSense_CSD_TunerHelper.c **** /*******************************************************************************
  81:.\Generated_Source\PSoC4/CapSense_CSD_TunerHelper.c **** * Function Name: CapSense_CSD_TunerComm
  82:.\Generated_Source\PSoC4/CapSense_CSD_TunerHelper.c **** ********************************************************************************
  83:.\Generated_Source\PSoC4/CapSense_CSD_TunerHelper.c **** *
  84:.\Generated_Source\PSoC4/CapSense_CSD_TunerHelper.c **** * Summary:
  85:.\Generated_Source\PSoC4/CapSense_CSD_TunerHelper.c **** *  This function is blocking. It waits till scanning loop is completed and applies
  86:.\Generated_Source\PSoC4/CapSense_CSD_TunerHelper.c **** *  the new parameters from the Tuner GUI if available (the manual tuning mode only). Updates
  87:.\Generated_Source\PSoC4/CapSense_CSD_TunerHelper.c **** *  the enabled baselines and state of widgets. Waits while the Tuner GUI reports that
  88:.\Generated_Source\PSoC4/CapSense_CSD_TunerHelper.c **** *  the mailbox content  could be modified. Then loads the report data into the outbox
  89:.\Generated_Source\PSoC4/CapSense_CSD_TunerHelper.c **** *  and sets a busy flag. Starts a new scanning loop.
  90:.\Generated_Source\PSoC4/CapSense_CSD_TunerHelper.c **** *
  91:.\Generated_Source\PSoC4/CapSense_CSD_TunerHelper.c **** * Parameters:
  92:.\Generated_Source\PSoC4/CapSense_CSD_TunerHelper.c **** *  None
  93:.\Generated_Source\PSoC4/CapSense_CSD_TunerHelper.c **** *
  94:.\Generated_Source\PSoC4/CapSense_CSD_TunerHelper.c **** * Return:
  95:.\Generated_Source\PSoC4/CapSense_CSD_TunerHelper.c **** *  None
  96:.\Generated_Source\PSoC4/CapSense_CSD_TunerHelper.c **** *
  97:.\Generated_Source\PSoC4/CapSense_CSD_TunerHelper.c **** * Global Variables:
  98:.\Generated_Source\PSoC4/CapSense_CSD_TunerHelper.c **** *  None
  99:.\Generated_Source\PSoC4/CapSense_CSD_TunerHelper.c **** *
 100:.\Generated_Source\PSoC4/CapSense_CSD_TunerHelper.c **** *******************************************************************************/
 101:.\Generated_Source\PSoC4/CapSense_CSD_TunerHelper.c **** void CapSense_CSD_TunerComm(void)
 102:.\Generated_Source\PSoC4/CapSense_CSD_TunerHelper.c **** {
  49              		.loc 1 102 0
  50              		.cfi_startproc
  51 0000 80B5     		push	{r7, lr}
  52              		.cfi_def_cfa_offset 8
  53              		.cfi_offset 7, -8
  54              		.cfi_offset 14, -4
  55 0002 00AF     		add	r7, sp, #0
  56              		.cfi_def_cfa_register 7
 103:.\Generated_Source\PSoC4/CapSense_CSD_TunerHelper.c ****     #if (0u != CapSense_CSD_TUNER_API_GENERATE)
 104:.\Generated_Source\PSoC4/CapSense_CSD_TunerHelper.c ****         if (0u == CapSense_CSD_IsBusy())
 105:.\Generated_Source\PSoC4/CapSense_CSD_TunerHelper.c ****         {
 106:.\Generated_Source\PSoC4/CapSense_CSD_TunerHelper.c ****             /* Apply new settings */
 107:.\Generated_Source\PSoC4/CapSense_CSD_TunerHelper.c ****             #if((CapSense_CSD_TUNING_METHOD != CapSense_CSD__TUNING_NONE) &&\
 108:.\Generated_Source\PSoC4/CapSense_CSD_TunerHelper.c ****                 (0u != CapSense_CSD_TOTAL_TRACKPAD_GESTURES_COUNT) ||\
 109:.\Generated_Source\PSoC4/CapSense_CSD_TunerHelper.c ****                 (CapSense_CSD_TUNING_METHOD == CapSense_CSD__TUNING_MANUAL))
 110:.\Generated_Source\PSoC4/CapSense_CSD_TunerHelper.c **** 
 111:.\Generated_Source\PSoC4/CapSense_CSD_TunerHelper.c ****                 CapSense_CSD_ReadMessage(&CapSense_CSD_mailboxesComm.csdMailbox);
 112:.\Generated_Source\PSoC4/CapSense_CSD_TunerHelper.c **** 
 113:.\Generated_Source\PSoC4/CapSense_CSD_TunerHelper.c ****             #endif  /* ((CapSense_CSD_TUNING_METHOD != CapSense_CSD__TUNING_NONE) &&\
 114:.\Generated_Source\PSoC4/CapSense_CSD_TunerHelper.c ****                         (0u != CapSense_CSD_TOTAL_TRACKPAD_GESTURES_COUNT) ||\
 115:.\Generated_Source\PSoC4/CapSense_CSD_TunerHelper.c ****                         (CapSense_CSD_TUNING_METHOD == CapSense_CSD__TUNING_MANUAL)) */
ARM GAS  C:\Users\LUKASC~1\AppData\Local\Temp\ccxjPAd4.s 			page 4


 116:.\Generated_Source\PSoC4/CapSense_CSD_TunerHelper.c **** 
 117:.\Generated_Source\PSoC4/CapSense_CSD_TunerHelper.c ****             #if(0u != CapSense_CSD_CSHL_API_GENERATE)
 118:.\Generated_Source\PSoC4/CapSense_CSD_TunerHelper.c ****                 /* Update all baselines and process all widgets */
 119:.\Generated_Source\PSoC4/CapSense_CSD_TunerHelper.c ****                 CapSense_CSD_UpdateEnabledBaselines();
 120:.\Generated_Source\PSoC4/CapSense_CSD_TunerHelper.c ****                 CapSense_CSD_ProcessAllWidgets(&CapSense_CSD_mailboxesComm.csdMailbox.outbox);
 121:.\Generated_Source\PSoC4/CapSense_CSD_TunerHelper.c ****             #endif /* (0u != CapSense_CSD_CSHL_API_GENERATE) */
 122:.\Generated_Source\PSoC4/CapSense_CSD_TunerHelper.c **** 
 123:.\Generated_Source\PSoC4/CapSense_CSD_TunerHelper.c ****             CapSense_CSD_PostMessage(&CapSense_CSD_mailboxesComm.csdMailbox);
 124:.\Generated_Source\PSoC4/CapSense_CSD_TunerHelper.c **** 
 125:.\Generated_Source\PSoC4/CapSense_CSD_TunerHelper.c ****             /* Enable EZI2C interrupts, after scan complete */
 126:.\Generated_Source\PSoC4/CapSense_CSD_TunerHelper.c ****             SCB_EnableInt();
 127:.\Generated_Source\PSoC4/CapSense_CSD_TunerHelper.c **** 
 128:.\Generated_Source\PSoC4/CapSense_CSD_TunerHelper.c ****             while((CapSense_CSD_mailboxesComm.csdMailbox.type != CapSense_CSD_TYPE_ID) ||
 129:.\Generated_Source\PSoC4/CapSense_CSD_TunerHelper.c ****                   (0u != (SCB_EzI2CGetActivity() & SCB_EZI2C_STATUS_BUSY))){}
 130:.\Generated_Source\PSoC4/CapSense_CSD_TunerHelper.c **** 
 131:.\Generated_Source\PSoC4/CapSense_CSD_TunerHelper.c ****             /* Disable EZI2C interrupts, while scanning */
 132:.\Generated_Source\PSoC4/CapSense_CSD_TunerHelper.c ****             SCB_DisableInt();
 133:.\Generated_Source\PSoC4/CapSense_CSD_TunerHelper.c **** 
 134:.\Generated_Source\PSoC4/CapSense_CSD_TunerHelper.c ****             /* Start scan all sensors */
 135:.\Generated_Source\PSoC4/CapSense_CSD_TunerHelper.c ****             CapSense_CSD_ScanEnabledWidgets();
 136:.\Generated_Source\PSoC4/CapSense_CSD_TunerHelper.c ****         }
 137:.\Generated_Source\PSoC4/CapSense_CSD_TunerHelper.c ****     #endif /* (0u != CapSense_CSD_TUNER_API_GENERATE) */
 138:.\Generated_Source\PSoC4/CapSense_CSD_TunerHelper.c **** }
  57              		.loc 1 138 0
  58 0004 BD46     		mov	sp, r7
  59              		@ sp needed
  60 0006 80BD     		pop	{r7, pc}
  61              		.cfi_endproc
  62              	.LFE35:
  63              		.size	CapSense_CSD_TunerComm, .-CapSense_CSD_TunerComm
  64              		.text
  65              	.Letext0: