ARM GAS  C:\Users\LUKASC~1\AppData\Local\Temp\ccrijgnB.s 			page 1


   1              		.cpu cortex-m0
   2              		.fpu softvfp
   3              		.eabi_attribute 20, 1
   4              		.eabi_attribute 21, 1
   5              		.eabi_attribute 23, 3
   6              		.eabi_attribute 24, 1
   7              		.eabi_attribute 25, 1
   8              		.eabi_attribute 26, 1
   9              		.eabi_attribute 30, 6
  10              		.eabi_attribute 34, 0
  11              		.eabi_attribute 18, 4
  12              		.code	16
  13              		.file	"CapSense_CSD_CSHL.c"
  14              		.text
  15              	.Ltext0:
  16              		.cfi_sections	.debug_frame
  17              		.comm	CapSense_CSD_rawFilterData1,26,4
  18              		.global	CapSense_CSD_sensorBaseline
  19              		.bss
  20              		.align	2
  21              		.type	CapSense_CSD_sensorBaseline, %object
  22              		.size	CapSense_CSD_sensorBaseline, 26
  23              	CapSense_CSD_sensorBaseline:
  24 0000 00000000 		.space	26
  24      00000000 
  24      00000000 
  24      00000000 
  24      00000000 
  25              		.global	CapSense_CSD_sensorBaselineLow
  26 001a 0000     		.align	2
  27              		.type	CapSense_CSD_sensorBaselineLow, %object
  28              		.size	CapSense_CSD_sensorBaselineLow, 13
  29              	CapSense_CSD_sensorBaselineLow:
  30 001c 00000000 		.space	13
  30      00000000 
  30      00000000 
  30      00
  31              		.global	CapSense_CSD_sensorSignal
  32 0029 000000   		.align	2
  33              		.type	CapSense_CSD_sensorSignal, %object
  34              		.size	CapSense_CSD_sensorSignal, 13
  35              	CapSense_CSD_sensorSignal:
  36 002c 00000000 		.space	13
  36      00000000 
  36      00000000 
  36      00
  37              		.global	CapSense_CSD_sensorOnMask
  38 0039 000000   		.align	2
  39              		.type	CapSense_CSD_sensorOnMask, %object
  40              		.size	CapSense_CSD_sensorOnMask, 2
  41              	CapSense_CSD_sensorOnMask:
  42 003c 0000     		.space	2
  43              		.comm	CapSense_CSD_lowBaselineResetCnt,13,4
  44              		.global	CapSense_CSD_lowBaselineReset
  45              		.data
  46              		.align	2
  47              		.type	CapSense_CSD_lowBaselineReset, %object
ARM GAS  C:\Users\LUKASC~1\AppData\Local\Temp\ccrijgnB.s 			page 2


  48              		.size	CapSense_CSD_lowBaselineReset, 13
  49              	CapSense_CSD_lowBaselineReset:
  50 0000 1E       		.byte	30
  51 0001 1E       		.byte	30
  52 0002 1E       		.byte	30
  53 0003 1E       		.byte	30
  54 0004 1E       		.byte	30
  55 0005 1E       		.byte	30
  56 0006 1E       		.byte	30
  57 0007 1E       		.byte	30
  58 0008 1E       		.byte	30
  59 0009 1E       		.byte	30
  60 000a 1E       		.byte	30
  61 000b 1E       		.byte	30
  62 000c 1E       		.byte	30
  63              		.global	CapSense_CSD_enableRawFilters
  64              		.type	CapSense_CSD_enableRawFilters, %object
  65              		.size	CapSense_CSD_enableRawFilters, 1
  66              	CapSense_CSD_enableRawFilters:
  67 000d 01       		.byte	1
  68              		.comm	CapSense_CSD_fingerThreshold,2,4
  69              		.comm	CapSense_CSD_noiseThreshold,2,4
  70              		.comm	CapSense_CSD_negativeNoiseThreshold,2,4
  71              		.comm	CapSense_CSD_hysteresis,2,4
  72              		.global	CapSense_CSD_debounce
  73 000e 0000     		.align	2
  74              		.type	CapSense_CSD_debounce, %object
  75              		.size	CapSense_CSD_debounce, 2
  76              	CapSense_CSD_debounce:
  77 0010 01       		.byte	1
  78 0011 05       		.byte	5
  79              		.bss
  80 003e 0000     		.align	2
  81              	CapSense_CSD_debounceCounter:
  82 0040 0000     		.space	2
  83              		.global	CapSense_CSD_rawDataIndex
  84              		.section	.rodata
  85              		.align	2
  86              		.type	CapSense_CSD_rawDataIndex, %object
  87              		.size	CapSense_CSD_rawDataIndex, 2
  88              	CapSense_CSD_rawDataIndex:
  89 0000 00       		.byte	0
  90 0001 0C       		.byte	12
  91              		.global	CapSense_CSD_numberOfSensors
  92 0002 0000     		.align	2
  93              		.type	CapSense_CSD_numberOfSensors, %object
  94              		.size	CapSense_CSD_numberOfSensors, 2
  95              	CapSense_CSD_numberOfSensors:
  96 0004 0C       		.byte	12
  97 0005 01       		.byte	1
  98 0006 0000     		.align	2
  99              		.type	CapSense_CSD_centroidMult, %object
 100              		.size	CapSense_CSD_centroidMult, 2
 101              	CapSense_CSD_centroidMult:
 102 0008 8B0B     		.short	2955
 103 000a 0000     		.data
 104 0012 0000     		.align	2
ARM GAS  C:\Users\LUKASC~1\AppData\Local\Temp\ccrijgnB.s 			page 3


 105              		.type	CapSense_CSD_posFiltersMask, %object
 106              		.size	CapSense_CSD_posFiltersMask, 1
 107              	CapSense_CSD_posFiltersMask:
 108 0014 10       		.byte	16
 109 0015 000000   		.align	2
 110              		.type	CapSense_CSD_posFiltersData, %object
 111              		.size	CapSense_CSD_posFiltersData, 3
 112              	CapSense_CSD_posFiltersData:
 113 0018 01       		.byte	1
 114 0019 00       		.byte	0
 115 001a 00       		.byte	0
 116 001b 00       		.section	.text.CapSense_CSD_BaseInit,"ax",%progbits
 117              		.align	2
 118              		.global	CapSense_CSD_BaseInit
 119              		.code	16
 120              		.thumb_func
 121              		.type	CapSense_CSD_BaseInit, %function
 122              	CapSense_CSD_BaseInit:
 123              	.LFB34:
 124              		.file 1 ".\\Generated_Source\\PSoC4\\CapSense_CSD_CSHL.c"
   1:.\Generated_Source\PSoC4/CapSense_CSD_CSHL.c **** /*******************************************************************************
   2:.\Generated_Source\PSoC4/CapSense_CSD_CSHL.c **** * File Name: CapSense_CSD_CSHL.c
   3:.\Generated_Source\PSoC4/CapSense_CSD_CSHL.c **** * Version 2.40
   4:.\Generated_Source\PSoC4/CapSense_CSD_CSHL.c **** *
   5:.\Generated_Source\PSoC4/CapSense_CSD_CSHL.c **** * Description:
   6:.\Generated_Source\PSoC4/CapSense_CSD_CSHL.c **** *  This file provides the source code to the High Level APIs for the CapSesne
   7:.\Generated_Source\PSoC4/CapSense_CSD_CSHL.c **** *  CSD component.
   8:.\Generated_Source\PSoC4/CapSense_CSD_CSHL.c **** *
   9:.\Generated_Source\PSoC4/CapSense_CSD_CSHL.c **** * Note:
  10:.\Generated_Source\PSoC4/CapSense_CSD_CSHL.c **** *
  11:.\Generated_Source\PSoC4/CapSense_CSD_CSHL.c **** ********************************************************************************
  12:.\Generated_Source\PSoC4/CapSense_CSD_CSHL.c **** * Copyright 2013-2015, Cypress Semiconductor Corporation.  All rights reserved.
  13:.\Generated_Source\PSoC4/CapSense_CSD_CSHL.c **** * You may use this file only in accordance with the license, terms, conditions,
  14:.\Generated_Source\PSoC4/CapSense_CSD_CSHL.c **** * disclaimers, and limitations in the end user license agreement accompanying
  15:.\Generated_Source\PSoC4/CapSense_CSD_CSHL.c **** * the software package with which this file was provided.
  16:.\Generated_Source\PSoC4/CapSense_CSD_CSHL.c **** *******************************************************************************/
  17:.\Generated_Source\PSoC4/CapSense_CSD_CSHL.c **** 
  18:.\Generated_Source\PSoC4/CapSense_CSD_CSHL.c **** #include "CapSense_CSD_CSHL.h"
  19:.\Generated_Source\PSoC4/CapSense_CSD_CSHL.c **** #include "CapSense_CSD_PVT.h"
  20:.\Generated_Source\PSoC4/CapSense_CSD_CSHL.c **** 
  21:.\Generated_Source\PSoC4/CapSense_CSD_CSHL.c **** /* SmartSense functions */
  22:.\Generated_Source\PSoC4/CapSense_CSD_CSHL.c **** #if (CapSense_CSD_TUNING_METHOD == CapSense_CSD__TUNING_AUTO)
  23:.\Generated_Source\PSoC4/CapSense_CSD_CSHL.c ****     extern void CapSense_CSD_UpdateThresholds(uint32 sensor);
  24:.\Generated_Source\PSoC4/CapSense_CSD_CSHL.c **** #endif /* (CapSense_CSD_TUNING_METHOD == CapSense_CSD__TUNING_AUTO) */
  25:.\Generated_Source\PSoC4/CapSense_CSD_CSHL.c **** 
  26:.\Generated_Source\PSoC4/CapSense_CSD_CSHL.c **** /* Storage of filters data */
  27:.\Generated_Source\PSoC4/CapSense_CSD_CSHL.c **** #if ( (0u != (CapSense_CSD_RAW_FILTER_MASK & CapSense_CSD_MEDIAN_FILTER)) || \
  28:.\Generated_Source\PSoC4/CapSense_CSD_CSHL.c ****       (0u != (CapSense_CSD_RAW_FILTER_MASK & CapSense_CSD_AVERAGING_FILTER)) )
  29:.\Generated_Source\PSoC4/CapSense_CSD_CSHL.c **** 
  30:.\Generated_Source\PSoC4/CapSense_CSD_CSHL.c ****     uint16 CapSense_CSD_rawFilterData1[CapSense_CSD_TOTAL_SENSOR_COUNT];
  31:.\Generated_Source\PSoC4/CapSense_CSD_CSHL.c ****     uint16 CapSense_CSD_rawFilterData2[CapSense_CSD_TOTAL_SENSOR_COUNT];
  32:.\Generated_Source\PSoC4/CapSense_CSD_CSHL.c **** 
  33:.\Generated_Source\PSoC4/CapSense_CSD_CSHL.c **** #elif ( (0u != (CapSense_CSD_RAW_FILTER_MASK & CapSense_CSD_IIR2_FILTER))   || \
  34:.\Generated_Source\PSoC4/CapSense_CSD_CSHL.c ****         (0u != (CapSense_CSD_RAW_FILTER_MASK & CapSense_CSD_IIR4_FILTER))   || \
  35:.\Generated_Source\PSoC4/CapSense_CSD_CSHL.c ****         (0u != (CapSense_CSD_RAW_FILTER_MASK & CapSense_CSD_JITTER_FILTER)) || \
  36:.\Generated_Source\PSoC4/CapSense_CSD_CSHL.c ****         (0u != (CapSense_CSD_RAW_FILTER_MASK & CapSense_CSD_IIR8_FILTER))   || \
  37:.\Generated_Source\PSoC4/CapSense_CSD_CSHL.c ****         (0u != (CapSense_CSD_RAW_FILTER_MASK & CapSense_CSD_IIR16_FILTER)) )
ARM GAS  C:\Users\LUKASC~1\AppData\Local\Temp\ccrijgnB.s 			page 4


  38:.\Generated_Source\PSoC4/CapSense_CSD_CSHL.c **** 
  39:.\Generated_Source\PSoC4/CapSense_CSD_CSHL.c ****     uint16 CapSense_CSD_rawFilterData1[CapSense_CSD_TOTAL_SENSOR_COUNT];
  40:.\Generated_Source\PSoC4/CapSense_CSD_CSHL.c **** #endif  /* ( (CapSense_CSD_RAW_FILTER_MASK & CapSense_CSD_MEDIAN_FILTER) || \
  41:.\Generated_Source\PSoC4/CapSense_CSD_CSHL.c ****         *    (CapSense_CSD_RAW_FILTER_MASK & CapSense_CSD_AVERAGING_FILTER) )
  42:.\Generated_Source\PSoC4/CapSense_CSD_CSHL.c ****         */
  43:.\Generated_Source\PSoC4/CapSense_CSD_CSHL.c **** 
  44:.\Generated_Source\PSoC4/CapSense_CSD_CSHL.c **** extern uint16 CapSense_CSD_sensorRaw[CapSense_CSD_TOTAL_SENSOR_COUNT];
  45:.\Generated_Source\PSoC4/CapSense_CSD_CSHL.c **** extern uint8 CapSense_CSD_sensorEnableMask[CapSense_CSD_TOTAL_SENSOR_MASK];
  46:.\Generated_Source\PSoC4/CapSense_CSD_CSHL.c **** extern const uint8 CapSense_CSD_widgetNumber[CapSense_CSD_TOTAL_SENSOR_COUNT];
  47:.\Generated_Source\PSoC4/CapSense_CSD_CSHL.c **** 
  48:.\Generated_Source\PSoC4/CapSense_CSD_CSHL.c **** #if (CapSense_CSD_TUNING_METHOD != CapSense_CSD__TUNING_NONE)
  49:.\Generated_Source\PSoC4/CapSense_CSD_CSHL.c ****     extern uint32 CapSense_CSD_widgetResolution[CapSense_CSD_RESOLUTIONS_TBL_SIZE];
  50:.\Generated_Source\PSoC4/CapSense_CSD_CSHL.c **** #endif /* (CapSense_CSD_TUNING_METHOD != CapSense_CSD__TUNING_NONE) */
  51:.\Generated_Source\PSoC4/CapSense_CSD_CSHL.c **** 
  52:.\Generated_Source\PSoC4/CapSense_CSD_CSHL.c **** uint16 CapSense_CSD_sensorBaseline[CapSense_CSD_TOTAL_SENSOR_COUNT] = {0u};
  53:.\Generated_Source\PSoC4/CapSense_CSD_CSHL.c **** uint8 CapSense_CSD_sensorBaselineLow[CapSense_CSD_TOTAL_SENSOR_COUNT] = {0u};
  54:.\Generated_Source\PSoC4/CapSense_CSD_CSHL.c **** uint8 CapSense_CSD_sensorSignal[CapSense_CSD_TOTAL_SENSOR_COUNT] = {0u};
  55:.\Generated_Source\PSoC4/CapSense_CSD_CSHL.c **** uint8 CapSense_CSD_sensorOnMask[CapSense_CSD_TOTAL_SENSOR_MASK] = {0u};
  56:.\Generated_Source\PSoC4/CapSense_CSD_CSHL.c **** 
  57:.\Generated_Source\PSoC4/CapSense_CSD_CSHL.c **** uint8 CapSense_CSD_lowBaselineResetCnt[CapSense_CSD_TOTAL_SENSOR_COUNT];
  58:.\Generated_Source\PSoC4/CapSense_CSD_CSHL.c **** uint8 CapSense_CSD_lowBaselineReset[CapSense_CSD_TOTAL_SENSOR_COUNT] = {
  59:.\Generated_Source\PSoC4/CapSense_CSD_CSHL.c ****     30u, 30u, 30u, 30u, 30u, 30u, 30u, 30u, 30u, 30u, 30u, 30u, 30u, 
  60:.\Generated_Source\PSoC4/CapSense_CSD_CSHL.c **** };
  61:.\Generated_Source\PSoC4/CapSense_CSD_CSHL.c **** 
  62:.\Generated_Source\PSoC4/CapSense_CSD_CSHL.c **** 
  63:.\Generated_Source\PSoC4/CapSense_CSD_CSHL.c **** 
  64:.\Generated_Source\PSoC4/CapSense_CSD_CSHL.c **** #if (CapSense_CSD_TUNING_METHOD == CapSense_CSD__TUNING_AUTO)
  65:.\Generated_Source\PSoC4/CapSense_CSD_CSHL.c ****     extern CapSense_CSD_CONFIG_TYPE_P4_v2_40 CapSense_CSD_config;
  66:.\Generated_Source\PSoC4/CapSense_CSD_CSHL.c **** #endif  /* (CapSense_CSD_TUNING_METHOD == CapSense_CSD__TUNING_AUTO) */
  67:.\Generated_Source\PSoC4/CapSense_CSD_CSHL.c **** 
  68:.\Generated_Source\PSoC4/CapSense_CSD_CSHL.c **** #if (CapSense_CSD_RAW_FILTER_MASK != 0u)
  69:.\Generated_Source\PSoC4/CapSense_CSD_CSHL.c **** uint8 CapSense_CSD_enableRawFilters = CapSense_CSD_RAW_FILTERS_ENABLED;
  70:.\Generated_Source\PSoC4/CapSense_CSD_CSHL.c **** #endif  /* (CapSense_CSD_RAW_FILTER_MASK != 0u) */
  71:.\Generated_Source\PSoC4/CapSense_CSD_CSHL.c **** 
  72:.\Generated_Source\PSoC4/CapSense_CSD_CSHL.c **** /* Generated by Customizer */
  73:.\Generated_Source\PSoC4/CapSense_CSD_CSHL.c **** uint8 CapSense_CSD_fingerThreshold[CapSense_CSD_THRESHOLD_TBL_SIZE];
  74:.\Generated_Source\PSoC4/CapSense_CSD_CSHL.c **** 
  75:.\Generated_Source\PSoC4/CapSense_CSD_CSHL.c **** uint8 CapSense_CSD_noiseThreshold[CapSense_CSD_THRESHOLD_TBL_SIZE];
  76:.\Generated_Source\PSoC4/CapSense_CSD_CSHL.c **** 
  77:.\Generated_Source\PSoC4/CapSense_CSD_CSHL.c **** uint8 CapSense_CSD_negativeNoiseThreshold[CapSense_CSD_THRESHOLD_TBL_SIZE];
  78:.\Generated_Source\PSoC4/CapSense_CSD_CSHL.c **** 
  79:.\Generated_Source\PSoC4/CapSense_CSD_CSHL.c **** uint8 CapSense_CSD_hysteresis[CapSense_CSD_WIDGET_PARAM_TBL_SIZE];
  80:.\Generated_Source\PSoC4/CapSense_CSD_CSHL.c **** 
  81:.\Generated_Source\PSoC4/CapSense_CSD_CSHL.c **** uint8 CapSense_CSD_debounce[] = {
  82:.\Generated_Source\PSoC4/CapSense_CSD_CSHL.c ****     1u, 5u, 
  83:.\Generated_Source\PSoC4/CapSense_CSD_CSHL.c **** };
  84:.\Generated_Source\PSoC4/CapSense_CSD_CSHL.c **** 
  85:.\Generated_Source\PSoC4/CapSense_CSD_CSHL.c **** static uint8 CapSense_CSD_debounceCounter[] = {
  86:.\Generated_Source\PSoC4/CapSense_CSD_CSHL.c ****     0u, 0u, 
  87:.\Generated_Source\PSoC4/CapSense_CSD_CSHL.c **** };
  88:.\Generated_Source\PSoC4/CapSense_CSD_CSHL.c **** 
  89:.\Generated_Source\PSoC4/CapSense_CSD_CSHL.c **** const uint8 CapSense_CSD_rawDataIndex[] = {
  90:.\Generated_Source\PSoC4/CapSense_CSD_CSHL.c ****     0u, /* LinearSlider0__LS */
  91:.\Generated_Source\PSoC4/CapSense_CSD_CSHL.c ****     12u, /* GuardSensor__GRD */
  92:.\Generated_Source\PSoC4/CapSense_CSD_CSHL.c **** };
  93:.\Generated_Source\PSoC4/CapSense_CSD_CSHL.c **** 
  94:.\Generated_Source\PSoC4/CapSense_CSD_CSHL.c **** const uint8 CapSense_CSD_numberOfSensors[] = {
ARM GAS  C:\Users\LUKASC~1\AppData\Local\Temp\ccrijgnB.s 			page 5


  95:.\Generated_Source\PSoC4/CapSense_CSD_CSHL.c ****     12u, /* LinearSlider0__LS */
  96:.\Generated_Source\PSoC4/CapSense_CSD_CSHL.c ****     1u, /* GuardSensor__GRD */
  97:.\Generated_Source\PSoC4/CapSense_CSD_CSHL.c **** };
  98:.\Generated_Source\PSoC4/CapSense_CSD_CSHL.c **** 
  99:.\Generated_Source\PSoC4/CapSense_CSD_CSHL.c **** static const uint16 CapSense_CSD_centroidMult[] = {
 100:.\Generated_Source\PSoC4/CapSense_CSD_CSHL.c ****     2955u, 
 101:.\Generated_Source\PSoC4/CapSense_CSD_CSHL.c **** };
 102:.\Generated_Source\PSoC4/CapSense_CSD_CSHL.c **** 
 103:.\Generated_Source\PSoC4/CapSense_CSD_CSHL.c **** static uint8 CapSense_CSD_posFiltersMask[] = {
 104:.\Generated_Source\PSoC4/CapSense_CSD_CSHL.c ****     0x10u, 
 105:.\Generated_Source\PSoC4/CapSense_CSD_CSHL.c **** };
 106:.\Generated_Source\PSoC4/CapSense_CSD_CSHL.c **** 
 107:.\Generated_Source\PSoC4/CapSense_CSD_CSHL.c **** static uint8 CapSense_CSD_posFiltersData[] = {
 108:.\Generated_Source\PSoC4/CapSense_CSD_CSHL.c ****     1u, 0u, 0u, 
 109:.\Generated_Source\PSoC4/CapSense_CSD_CSHL.c **** };
 110:.\Generated_Source\PSoC4/CapSense_CSD_CSHL.c **** 
 111:.\Generated_Source\PSoC4/CapSense_CSD_CSHL.c **** 
 112:.\Generated_Source\PSoC4/CapSense_CSD_CSHL.c **** 
 113:.\Generated_Source\PSoC4/CapSense_CSD_CSHL.c **** 
 114:.\Generated_Source\PSoC4/CapSense_CSD_CSHL.c **** /*******************************************************************************
 115:.\Generated_Source\PSoC4/CapSense_CSD_CSHL.c **** * Function Name: CapSense_CSD_BaseInit
 116:.\Generated_Source\PSoC4/CapSense_CSD_CSHL.c **** ********************************************************************************
 117:.\Generated_Source\PSoC4/CapSense_CSD_CSHL.c **** *
 118:.\Generated_Source\PSoC4/CapSense_CSD_CSHL.c **** * Summary:
 119:.\Generated_Source\PSoC4/CapSense_CSD_CSHL.c **** *  Loads the CapSense_CSD_sensorBaseline[sensor] array element with an
 120:.\Generated_Source\PSoC4/CapSense_CSD_CSHL.c **** *  initial value which is equal to the raw count value.
 121:.\Generated_Source\PSoC4/CapSense_CSD_CSHL.c **** *  Resets to zero CapSense_CSD_sensorBaselineLow[sensor] and
 122:.\Generated_Source\PSoC4/CapSense_CSD_CSHL.c **** *  CapSense_CSD_sensorSignal[sensor] array element.
 123:.\Generated_Source\PSoC4/CapSense_CSD_CSHL.c **** *  Loads the CapSense_CSD_rawFilterData2[sensor] and
 124:.\Generated_Source\PSoC4/CapSense_CSD_CSHL.c **** *  CapSense_CSD_rawFilterData2[sensor] array element with an
 125:.\Generated_Source\PSoC4/CapSense_CSD_CSHL.c **** *  initial value which is equal to the raw count value if the raw data filter is enabled.
 126:.\Generated_Source\PSoC4/CapSense_CSD_CSHL.c **** *
 127:.\Generated_Source\PSoC4/CapSense_CSD_CSHL.c **** * Parameters:
 128:.\Generated_Source\PSoC4/CapSense_CSD_CSHL.c **** *  sensor:  Sensor number.
 129:.\Generated_Source\PSoC4/CapSense_CSD_CSHL.c **** *
 130:.\Generated_Source\PSoC4/CapSense_CSD_CSHL.c **** * Return:
 131:.\Generated_Source\PSoC4/CapSense_CSD_CSHL.c **** *  None
 132:.\Generated_Source\PSoC4/CapSense_CSD_CSHL.c **** *
 133:.\Generated_Source\PSoC4/CapSense_CSD_CSHL.c **** * Global Variables:
 134:.\Generated_Source\PSoC4/CapSense_CSD_CSHL.c **** *  CapSense_CSD_sensorBaseline[]    - used to store the baseline value.
 135:.\Generated_Source\PSoC4/CapSense_CSD_CSHL.c **** *  CapSense_CSD_sensorBaselineLow[] - used to store the fraction byte of
 136:.\Generated_Source\PSoC4/CapSense_CSD_CSHL.c **** *  the baseline value.
 137:.\Generated_Source\PSoC4/CapSense_CSD_CSHL.c **** *  CapSense_CSD_sensorSignal[]      - used to store a difference between
 138:.\Generated_Source\PSoC4/CapSense_CSD_CSHL.c **** *  the current value of raw data and the previous value of the baseline.
 139:.\Generated_Source\PSoC4/CapSense_CSD_CSHL.c **** *  CapSense_CSD_rawFilterData1[]    - used to store a previous sample of
 140:.\Generated_Source\PSoC4/CapSense_CSD_CSHL.c **** *  any enabled raw data filter.
 141:.\Generated_Source\PSoC4/CapSense_CSD_CSHL.c **** *  CapSense_CSD_rawFilterData2[]    - used to store before a previous sample
 142:.\Generated_Source\PSoC4/CapSense_CSD_CSHL.c **** *  of the enabled raw data filter. Required only for median or average filters.
 143:.\Generated_Source\PSoC4/CapSense_CSD_CSHL.c **** *
 144:.\Generated_Source\PSoC4/CapSense_CSD_CSHL.c **** * Side Effects:
 145:.\Generated_Source\PSoC4/CapSense_CSD_CSHL.c **** *  None
 146:.\Generated_Source\PSoC4/CapSense_CSD_CSHL.c **** *
 147:.\Generated_Source\PSoC4/CapSense_CSD_CSHL.c **** *******************************************************************************/
 148:.\Generated_Source\PSoC4/CapSense_CSD_CSHL.c **** void CapSense_CSD_BaseInit(uint32 sensor)
 149:.\Generated_Source\PSoC4/CapSense_CSD_CSHL.c **** {
 125              		.loc 1 149 0
 126              		.cfi_startproc
ARM GAS  C:\Users\LUKASC~1\AppData\Local\Temp\ccrijgnB.s 			page 6


 127 0000 80B5     		push	{r7, lr}
 128              		.cfi_def_cfa_offset 8
 129              		.cfi_offset 7, -8
 130              		.cfi_offset 14, -4
 131 0002 84B0     		sub	sp, sp, #16
 132              		.cfi_def_cfa_offset 24
 133 0004 00AF     		add	r7, sp, #0
 134              		.cfi_def_cfa_register 7
 135 0006 7860     		str	r0, [r7, #4]
 150:.\Generated_Source\PSoC4/CapSense_CSD_CSHL.c ****     #if ((CapSense_CSD_TOTAL_BUTTONS_COUNT) || (CapSense_CSD_TOTAL_MATRIX_BUTTONS_COUNT) || \
 151:.\Generated_Source\PSoC4/CapSense_CSD_CSHL.c ****          (CapSense_CSD_TOTAL_GENERICS_COUNT))
 152:.\Generated_Source\PSoC4/CapSense_CSD_CSHL.c ****         uint8 widget = CapSense_CSD_widgetNumber[sensor];
 136              		.loc 1 152 0
 137 0008 0F23     		mov	r3, #15
 138 000a FB18     		add	r3, r7, r3
 139 000c 1849     		ldr	r1, .L3
 140 000e 7A68     		ldr	r2, [r7, #4]
 141 0010 8A18     		add	r2, r1, r2
 142 0012 1278     		ldrb	r2, [r2]
 143 0014 1A70     		strb	r2, [r3]
 153:.\Generated_Source\PSoC4/CapSense_CSD_CSHL.c ****     #endif /* ((CapSense_CSD_TOTAL_MATRIX_BUTTONS_COUNT) || (CapSense_CSD_TOTAL_MATRIX_BUTTONS_COUN
 154:.\Generated_Source\PSoC4/CapSense_CSD_CSHL.c **** 
 155:.\Generated_Source\PSoC4/CapSense_CSD_CSHL.c ****     #if (CapSense_CSD_TOTAL_MATRIX_BUTTONS_COUNT)
 156:.\Generated_Source\PSoC4/CapSense_CSD_CSHL.c ****         uint8 debounceIndex;
 157:.\Generated_Source\PSoC4/CapSense_CSD_CSHL.c ****     #endif  /* (CapSense_CSD_TOTAL_MATRIX_BUTTONS_COUNT) */
 158:.\Generated_Source\PSoC4/CapSense_CSD_CSHL.c **** 
 159:.\Generated_Source\PSoC4/CapSense_CSD_CSHL.c ****     #if (CapSense_CSD_TOTAL_GENERICS_COUNT)
 160:.\Generated_Source\PSoC4/CapSense_CSD_CSHL.c ****         /* Exclude generic widget */
 161:.\Generated_Source\PSoC4/CapSense_CSD_CSHL.c ****         if(widget < CapSense_CSD_END_OF_WIDGETS_INDEX)
 162:.\Generated_Source\PSoC4/CapSense_CSD_CSHL.c ****         {
 163:.\Generated_Source\PSoC4/CapSense_CSD_CSHL.c ****     #endif  /* CapSense_CSD_TOTAL_GENERICS_COUNT */
 164:.\Generated_Source\PSoC4/CapSense_CSD_CSHL.c **** 
 165:.\Generated_Source\PSoC4/CapSense_CSD_CSHL.c ****     /* Initialize Baseline */
 166:.\Generated_Source\PSoC4/CapSense_CSD_CSHL.c ****     CapSense_CSD_sensorBaseline[sensor] = CapSense_CSD_sensorRaw[sensor];
 144              		.loc 1 166 0
 145 0016 174B     		ldr	r3, .L3+4
 146 0018 7A68     		ldr	r2, [r7, #4]
 147 001a 5200     		lsl	r2, r2, #1
 148 001c D15A     		ldrh	r1, [r2, r3]
 149 001e 164B     		ldr	r3, .L3+8
 150 0020 7A68     		ldr	r2, [r7, #4]
 151 0022 5200     		lsl	r2, r2, #1
 152 0024 D152     		strh	r1, [r2, r3]
 167:.\Generated_Source\PSoC4/CapSense_CSD_CSHL.c ****     CapSense_CSD_sensorBaselineLow[sensor] = 0u;
 153              		.loc 1 167 0
 154 0026 154A     		ldr	r2, .L3+12
 155 0028 7B68     		ldr	r3, [r7, #4]
 156 002a D318     		add	r3, r2, r3
 157 002c 0022     		mov	r2, #0
 158 002e 1A70     		strb	r2, [r3]
 168:.\Generated_Source\PSoC4/CapSense_CSD_CSHL.c ****     CapSense_CSD_sensorSignal[sensor] = 0u;
 159              		.loc 1 168 0
 160 0030 134A     		ldr	r2, .L3+16
 161 0032 7B68     		ldr	r3, [r7, #4]
 162 0034 D318     		add	r3, r2, r3
 163 0036 0022     		mov	r2, #0
 164 0038 1A70     		strb	r2, [r3]
ARM GAS  C:\Users\LUKASC~1\AppData\Local\Temp\ccrijgnB.s 			page 7


 169:.\Generated_Source\PSoC4/CapSense_CSD_CSHL.c **** 
 170:.\Generated_Source\PSoC4/CapSense_CSD_CSHL.c ****     if(widget > CapSense_CSD_END_OF_TOUCH_PAD_INDEX)
 165              		.loc 1 170 0
 166 003a 0F23     		mov	r3, #15
 167 003c FB18     		add	r3, r7, r3
 168 003e 1B78     		ldrb	r3, [r3]
 169 0040 002B     		cmp	r3, #0
 170 0042 0AD0     		beq	.L2
 171:.\Generated_Source\PSoC4/CapSense_CSD_CSHL.c ****     {
 172:.\Generated_Source\PSoC4/CapSense_CSD_CSHL.c ****         CapSense_CSD_debounceCounter[widget - (CapSense_CSD_END_OF_TOUCH_PAD_INDEX + 1u)] =  CapSen
 171              		.loc 1 172 0
 172 0044 0F23     		mov	r3, #15
 173 0046 FB18     		add	r3, r7, r3
 174 0048 1B78     		ldrb	r3, [r3]
 175 004a 013B     		sub	r3, r3, #1
 176 004c 0F22     		mov	r2, #15
 177 004e BA18     		add	r2, r7, r2
 178 0050 1278     		ldrb	r2, [r2]
 179 0052 0C49     		ldr	r1, .L3+20
 180 0054 895C     		ldrb	r1, [r1, r2]
 181 0056 0C4A     		ldr	r2, .L3+24
 182 0058 D154     		strb	r1, [r2, r3]
 183              	.L2:
 173:.\Generated_Source\PSoC4/CapSense_CSD_CSHL.c ****     }
 174:.\Generated_Source\PSoC4/CapSense_CSD_CSHL.c **** 
 175:.\Generated_Source\PSoC4/CapSense_CSD_CSHL.c **** 
 176:.\Generated_Source\PSoC4/CapSense_CSD_CSHL.c ****     #if ((0u != (CapSense_CSD_RAW_FILTER_MASK & CapSense_CSD_MEDIAN_FILTER)) ||\
 177:.\Generated_Source\PSoC4/CapSense_CSD_CSHL.c ****          (0u != (CapSense_CSD_RAW_FILTER_MASK & CapSense_CSD_AVERAGING_FILTER)))
 178:.\Generated_Source\PSoC4/CapSense_CSD_CSHL.c **** 
 179:.\Generated_Source\PSoC4/CapSense_CSD_CSHL.c ****         CapSense_CSD_rawFilterData1[sensor] = CapSense_CSD_sensorRaw[sensor];
 180:.\Generated_Source\PSoC4/CapSense_CSD_CSHL.c ****         CapSense_CSD_rawFilterData2[sensor] = CapSense_CSD_sensorRaw[sensor];
 181:.\Generated_Source\PSoC4/CapSense_CSD_CSHL.c **** 
 182:.\Generated_Source\PSoC4/CapSense_CSD_CSHL.c ****     #elif ((CapSense_CSD_RAW_FILTER_MASK & CapSense_CSD_IIR2_FILTER) ||\
 183:.\Generated_Source\PSoC4/CapSense_CSD_CSHL.c ****            (CapSense_CSD_RAW_FILTER_MASK & CapSense_CSD_IIR4_FILTER) ||\
 184:.\Generated_Source\PSoC4/CapSense_CSD_CSHL.c ****            (CapSense_CSD_RAW_FILTER_MASK & CapSense_CSD_JITTER_FILTER) ||\
 185:.\Generated_Source\PSoC4/CapSense_CSD_CSHL.c ****            (CapSense_CSD_RAW_FILTER_MASK & CapSense_CSD_IIR8_FILTER) ||\
 186:.\Generated_Source\PSoC4/CapSense_CSD_CSHL.c ****            (CapSense_CSD_RAW_FILTER_MASK & CapSense_CSD_IIR16_FILTER))
 187:.\Generated_Source\PSoC4/CapSense_CSD_CSHL.c **** 
 188:.\Generated_Source\PSoC4/CapSense_CSD_CSHL.c ****         CapSense_CSD_rawFilterData1[sensor] = CapSense_CSD_sensorRaw[sensor];
 184              		.loc 1 188 0
 185 005a 064B     		ldr	r3, .L3+4
 186 005c 7A68     		ldr	r2, [r7, #4]
 187 005e 5200     		lsl	r2, r2, #1
 188 0060 D15A     		ldrh	r1, [r2, r3]
 189 0062 0A4B     		ldr	r3, .L3+28
 190 0064 7A68     		ldr	r2, [r7, #4]
 191 0066 5200     		lsl	r2, r2, #1
 192 0068 D152     		strh	r1, [r2, r3]
 189:.\Generated_Source\PSoC4/CapSense_CSD_CSHL.c **** 
 190:.\Generated_Source\PSoC4/CapSense_CSD_CSHL.c ****     #else
 191:.\Generated_Source\PSoC4/CapSense_CSD_CSHL.c ****         /* No Raw filters */
 192:.\Generated_Source\PSoC4/CapSense_CSD_CSHL.c ****     #endif  /* ((CapSense_CSD_RAW_FILTER_MASK & CapSense_CSD_MEDIAN_FILTER) || \
 193:.\Generated_Source\PSoC4/CapSense_CSD_CSHL.c ****             *   (CapSense_CSD_RAW_FILTER_MASK & CapSense_CSD_AVERAGING_FILTER))
 194:.\Generated_Source\PSoC4/CapSense_CSD_CSHL.c ****             */
 195:.\Generated_Source\PSoC4/CapSense_CSD_CSHL.c **** 
 196:.\Generated_Source\PSoC4/CapSense_CSD_CSHL.c ****     #if (CapSense_CSD_TOTAL_GENERICS_COUNT)
 197:.\Generated_Source\PSoC4/CapSense_CSD_CSHL.c ****         /* Exclude generic widget */
ARM GAS  C:\Users\LUKASC~1\AppData\Local\Temp\ccrijgnB.s 			page 8


 198:.\Generated_Source\PSoC4/CapSense_CSD_CSHL.c ****         }
 199:.\Generated_Source\PSoC4/CapSense_CSD_CSHL.c ****     #endif  /* CapSense_CSD_TOTAL_GENERICS_COUNT */
 200:.\Generated_Source\PSoC4/CapSense_CSD_CSHL.c **** }
 193              		.loc 1 200 0
 194 006a BD46     		mov	sp, r7
 195 006c 04B0     		add	sp, sp, #16
 196              		@ sp needed
 197 006e 80BD     		pop	{r7, pc}
 198              	.L4:
 199              		.align	2
 200              	.L3:
 201 0070 00000000 		.word	CapSense_CSD_widgetNumber
 202 0074 00000000 		.word	CapSense_CSD_sensorRaw
 203 0078 00000000 		.word	CapSense_CSD_sensorBaseline
 204 007c 00000000 		.word	CapSense_CSD_sensorBaselineLow
 205 0080 00000000 		.word	CapSense_CSD_sensorSignal
 206 0084 00000000 		.word	CapSense_CSD_debounce
 207 0088 40000000 		.word	CapSense_CSD_debounceCounter
 208 008c 00000000 		.word	CapSense_CSD_rawFilterData1
 209              		.cfi_endproc
 210              	.LFE34:
 211              		.size	CapSense_CSD_BaseInit, .-CapSense_CSD_BaseInit
 212              		.section	.text.CapSense_CSD_InitializeSensorBaseline,"ax",%progbits
 213              		.align	2
 214              		.global	CapSense_CSD_InitializeSensorBaseline
 215              		.code	16
 216              		.thumb_func
 217              		.type	CapSense_CSD_InitializeSensorBaseline, %function
 218              	CapSense_CSD_InitializeSensorBaseline:
 219              	.LFB35:
 201:.\Generated_Source\PSoC4/CapSense_CSD_CSHL.c **** 
 202:.\Generated_Source\PSoC4/CapSense_CSD_CSHL.c **** 
 203:.\Generated_Source\PSoC4/CapSense_CSD_CSHL.c **** /*******************************************************************************
 204:.\Generated_Source\PSoC4/CapSense_CSD_CSHL.c **** * Function Name: CapSense_CSD_InitializeSensorBaseline
 205:.\Generated_Source\PSoC4/CapSense_CSD_CSHL.c **** ********************************************************************************
 206:.\Generated_Source\PSoC4/CapSense_CSD_CSHL.c **** *
 207:.\Generated_Source\PSoC4/CapSense_CSD_CSHL.c **** * Summary:
 208:.\Generated_Source\PSoC4/CapSense_CSD_CSHL.c **** *  Loads the CapSense_CSD_sensorBaseline[sensor] array element with an
 209:.\Generated_Source\PSoC4/CapSense_CSD_CSHL.c **** *  initial value by scanning the selected sensor (one channel design) or a pair
 210:.\Generated_Source\PSoC4/CapSense_CSD_CSHL.c **** *  of sensors (two channels designs). The raw count value is copied into the
 211:.\Generated_Source\PSoC4/CapSense_CSD_CSHL.c **** *  baseline array for each sensor. The raw data filters are initialized if
 212:.\Generated_Source\PSoC4/CapSense_CSD_CSHL.c **** *  enabled.
 213:.\Generated_Source\PSoC4/CapSense_CSD_CSHL.c **** *
 214:.\Generated_Source\PSoC4/CapSense_CSD_CSHL.c **** * Parameters:
 215:.\Generated_Source\PSoC4/CapSense_CSD_CSHL.c **** *  sensor:  Sensor number.
 216:.\Generated_Source\PSoC4/CapSense_CSD_CSHL.c **** *
 217:.\Generated_Source\PSoC4/CapSense_CSD_CSHL.c **** * Return:
 218:.\Generated_Source\PSoC4/CapSense_CSD_CSHL.c **** *  None
 219:.\Generated_Source\PSoC4/CapSense_CSD_CSHL.c **** *
 220:.\Generated_Source\PSoC4/CapSense_CSD_CSHL.c **** * Global Variables:
 221:.\Generated_Source\PSoC4/CapSense_CSD_CSHL.c **** *  None
 222:.\Generated_Source\PSoC4/CapSense_CSD_CSHL.c **** *
 223:.\Generated_Source\PSoC4/CapSense_CSD_CSHL.c **** * Side Effects:
 224:.\Generated_Source\PSoC4/CapSense_CSD_CSHL.c **** *  None
 225:.\Generated_Source\PSoC4/CapSense_CSD_CSHL.c **** *
 226:.\Generated_Source\PSoC4/CapSense_CSD_CSHL.c **** *******************************************************************************/
 227:.\Generated_Source\PSoC4/CapSense_CSD_CSHL.c **** void CapSense_CSD_InitializeSensorBaseline(uint32 sensor)
ARM GAS  C:\Users\LUKASC~1\AppData\Local\Temp\ccrijgnB.s 			page 9


 228:.\Generated_Source\PSoC4/CapSense_CSD_CSHL.c **** {
 220              		.loc 1 228 0
 221              		.cfi_startproc
 222 0000 80B5     		push	{r7, lr}
 223              		.cfi_def_cfa_offset 8
 224              		.cfi_offset 7, -8
 225              		.cfi_offset 14, -4
 226 0002 82B0     		sub	sp, sp, #8
 227              		.cfi_def_cfa_offset 16
 228 0004 00AF     		add	r7, sp, #0
 229              		.cfi_def_cfa_register 7
 230 0006 7860     		str	r0, [r7, #4]
 229:.\Generated_Source\PSoC4/CapSense_CSD_CSHL.c ****     /* Scan sensor */
 230:.\Generated_Source\PSoC4/CapSense_CSD_CSHL.c ****     CapSense_CSD_ScanSensor(sensor);
 231              		.loc 1 230 0
 232 0008 7B68     		ldr	r3, [r7, #4]
 233 000a 181C     		mov	r0, r3
 234 000c FFF7FEFF 		bl	CapSense_CSD_ScanSensor
 231:.\Generated_Source\PSoC4/CapSense_CSD_CSHL.c ****     while(CapSense_CSD_IsBusy() != 0u)
 235              		.loc 1 231 0
 236 0010 C046     		mov	r8, r8
 237              	.L6:
 238              		.loc 1 231 0 is_stmt 0 discriminator 1
 239 0012 FFF7FEFF 		bl	CapSense_CSD_IsBusy
 240 0016 031E     		sub	r3, r0, #0
 241 0018 FBD1     		bne	.L6
 232:.\Generated_Source\PSoC4/CapSense_CSD_CSHL.c ****     {
 233:.\Generated_Source\PSoC4/CapSense_CSD_CSHL.c ****         /* Wait while sensor is busy */
 234:.\Generated_Source\PSoC4/CapSense_CSD_CSHL.c ****     }
 235:.\Generated_Source\PSoC4/CapSense_CSD_CSHL.c **** 
 236:.\Generated_Source\PSoC4/CapSense_CSD_CSHL.c ****     /* Initialize Baseline, Signal and debounce counters */
 237:.\Generated_Source\PSoC4/CapSense_CSD_CSHL.c ****     CapSense_CSD_BaseInit(sensor);
 242              		.loc 1 237 0 is_stmt 1
 243 001a 7B68     		ldr	r3, [r7, #4]
 244 001c 181C     		mov	r0, r3
 245 001e FFF7FEFF 		bl	CapSense_CSD_BaseInit
 238:.\Generated_Source\PSoC4/CapSense_CSD_CSHL.c **** }
 246              		.loc 1 238 0
 247 0022 BD46     		mov	sp, r7
 248 0024 02B0     		add	sp, sp, #8
 249              		@ sp needed
 250 0026 80BD     		pop	{r7, pc}
 251              		.cfi_endproc
 252              	.LFE35:
 253              		.size	CapSense_CSD_InitializeSensorBaseline, .-CapSense_CSD_InitializeSensorBaseline
 254              		.section	.text.CapSense_CSD_InitializeAllBaselines,"ax",%progbits
 255              		.align	2
 256              		.global	CapSense_CSD_InitializeAllBaselines
 257              		.code	16
 258              		.thumb_func
 259              		.type	CapSense_CSD_InitializeAllBaselines, %function
 260              	CapSense_CSD_InitializeAllBaselines:
 261              	.LFB36:
 239:.\Generated_Source\PSoC4/CapSense_CSD_CSHL.c **** 
 240:.\Generated_Source\PSoC4/CapSense_CSD_CSHL.c **** 
 241:.\Generated_Source\PSoC4/CapSense_CSD_CSHL.c **** /*******************************************************************************
 242:.\Generated_Source\PSoC4/CapSense_CSD_CSHL.c **** * Function Name: CapSense_CSD_InitializeAllBaselines
ARM GAS  C:\Users\LUKASC~1\AppData\Local\Temp\ccrijgnB.s 			page 10


 243:.\Generated_Source\PSoC4/CapSense_CSD_CSHL.c **** ********************************************************************************
 244:.\Generated_Source\PSoC4/CapSense_CSD_CSHL.c **** *
 245:.\Generated_Source\PSoC4/CapSense_CSD_CSHL.c **** * Summary:
 246:.\Generated_Source\PSoC4/CapSense_CSD_CSHL.c **** *  Uses the CapSense_CSD_InitializeSensorBaseline function to load the
 247:.\Generated_Source\PSoC4/CapSense_CSD_CSHL.c **** *  CapSense_CSD_sensorBaseline[] array with an initial values by scanning
 248:.\Generated_Source\PSoC4/CapSense_CSD_CSHL.c **** *  all the sensors. The raw count values are copied into the baseline array for
 249:.\Generated_Source\PSoC4/CapSense_CSD_CSHL.c **** *  all the sensors. The raw data filters are initialized if enabled.
 250:.\Generated_Source\PSoC4/CapSense_CSD_CSHL.c **** *
 251:.\Generated_Source\PSoC4/CapSense_CSD_CSHL.c **** * Parameters:
 252:.\Generated_Source\PSoC4/CapSense_CSD_CSHL.c **** *  None
 253:.\Generated_Source\PSoC4/CapSense_CSD_CSHL.c **** *
 254:.\Generated_Source\PSoC4/CapSense_CSD_CSHL.c **** * Return:
 255:.\Generated_Source\PSoC4/CapSense_CSD_CSHL.c **** *  None
 256:.\Generated_Source\PSoC4/CapSense_CSD_CSHL.c **** *
 257:.\Generated_Source\PSoC4/CapSense_CSD_CSHL.c **** * Global Variables:
 258:.\Generated_Source\PSoC4/CapSense_CSD_CSHL.c **** *  None
 259:.\Generated_Source\PSoC4/CapSense_CSD_CSHL.c **** *
 260:.\Generated_Source\PSoC4/CapSense_CSD_CSHL.c **** * Side Effects:
 261:.\Generated_Source\PSoC4/CapSense_CSD_CSHL.c **** *  None
 262:.\Generated_Source\PSoC4/CapSense_CSD_CSHL.c **** *
 263:.\Generated_Source\PSoC4/CapSense_CSD_CSHL.c **** *******************************************************************************/
 264:.\Generated_Source\PSoC4/CapSense_CSD_CSHL.c **** void CapSense_CSD_InitializeAllBaselines(void)
 265:.\Generated_Source\PSoC4/CapSense_CSD_CSHL.c **** {
 262              		.loc 1 265 0
 263              		.cfi_startproc
 264 0000 80B5     		push	{r7, lr}
 265              		.cfi_def_cfa_offset 8
 266              		.cfi_offset 7, -8
 267              		.cfi_offset 14, -4
 268 0002 82B0     		sub	sp, sp, #8
 269              		.cfi_def_cfa_offset 16
 270 0004 00AF     		add	r7, sp, #0
 271              		.cfi_def_cfa_register 7
 266:.\Generated_Source\PSoC4/CapSense_CSD_CSHL.c ****     uint32 i;
 267:.\Generated_Source\PSoC4/CapSense_CSD_CSHL.c **** 
 268:.\Generated_Source\PSoC4/CapSense_CSD_CSHL.c ****     for(i = 0u; i < CapSense_CSD_TOTAL_SCANSLOT_COUNT; i++)
 272              		.loc 1 268 0
 273 0006 0023     		mov	r3, #0
 274 0008 7B60     		str	r3, [r7, #4]
 275 000a 06E0     		b	.L8
 276              	.L9:
 269:.\Generated_Source\PSoC4/CapSense_CSD_CSHL.c ****     {
 270:.\Generated_Source\PSoC4/CapSense_CSD_CSHL.c ****         CapSense_CSD_InitializeSensorBaseline(i);
 277              		.loc 1 270 0 discriminator 3
 278 000c 7B68     		ldr	r3, [r7, #4]
 279 000e 181C     		mov	r0, r3
 280 0010 FFF7FEFF 		bl	CapSense_CSD_InitializeSensorBaseline
 268:.\Generated_Source\PSoC4/CapSense_CSD_CSHL.c ****     {
 281              		.loc 1 268 0 discriminator 3
 282 0014 7B68     		ldr	r3, [r7, #4]
 283 0016 0133     		add	r3, r3, #1
 284 0018 7B60     		str	r3, [r7, #4]
 285              	.L8:
 268:.\Generated_Source\PSoC4/CapSense_CSD_CSHL.c ****     {
 286              		.loc 1 268 0 is_stmt 0 discriminator 1
 287 001a 7B68     		ldr	r3, [r7, #4]
 288 001c 0C2B     		cmp	r3, #12
ARM GAS  C:\Users\LUKASC~1\AppData\Local\Temp\ccrijgnB.s 			page 11


 289 001e F5D9     		bls	.L9
 271:.\Generated_Source\PSoC4/CapSense_CSD_CSHL.c ****     }
 272:.\Generated_Source\PSoC4/CapSense_CSD_CSHL.c **** }
 290              		.loc 1 272 0 is_stmt 1
 291 0020 BD46     		mov	sp, r7
 292 0022 02B0     		add	sp, sp, #8
 293              		@ sp needed
 294 0024 80BD     		pop	{r7, pc}
 295              		.cfi_endproc
 296              	.LFE36:
 297              		.size	CapSense_CSD_InitializeAllBaselines, .-CapSense_CSD_InitializeAllBaselines
 298 0026 C046     		.section	.text.CapSense_CSD_InitializeEnabledBaselines,"ax",%progbits
 299              		.align	2
 300              		.global	CapSense_CSD_InitializeEnabledBaselines
 301              		.code	16
 302              		.thumb_func
 303              		.type	CapSense_CSD_InitializeEnabledBaselines, %function
 304              	CapSense_CSD_InitializeEnabledBaselines:
 305              	.LFB37:
 273:.\Generated_Source\PSoC4/CapSense_CSD_CSHL.c **** 
 274:.\Generated_Source\PSoC4/CapSense_CSD_CSHL.c **** 
 275:.\Generated_Source\PSoC4/CapSense_CSD_CSHL.c **** /*******************************************************************************
 276:.\Generated_Source\PSoC4/CapSense_CSD_CSHL.c **** * Function Name: CapSense_CSD_InitializeEnabledBaselines
 277:.\Generated_Source\PSoC4/CapSense_CSD_CSHL.c **** ********************************************************************************
 278:.\Generated_Source\PSoC4/CapSense_CSD_CSHL.c **** *
 279:.\Generated_Source\PSoC4/CapSense_CSD_CSHL.c **** * Summary:
 280:.\Generated_Source\PSoC4/CapSense_CSD_CSHL.c **** *  Scans all the enabled widgets and the raw count values are copied into the
 281:.\Generated_Source\PSoC4/CapSense_CSD_CSHL.c **** *  baseline array for all the sensors enabled in the scanning process. The baselines
 282:.\Generated_Source\PSoC4/CapSense_CSD_CSHL.c **** *  are initialized with zero values for sensors disabled from the scanning process.
 283:.\Generated_Source\PSoC4/CapSense_CSD_CSHL.c **** *  The raw data filters are initialized if enabled.
 284:.\Generated_Source\PSoC4/CapSense_CSD_CSHL.c **** *
 285:.\Generated_Source\PSoC4/CapSense_CSD_CSHL.c **** * Parameters:
 286:.\Generated_Source\PSoC4/CapSense_CSD_CSHL.c **** *  None
 287:.\Generated_Source\PSoC4/CapSense_CSD_CSHL.c **** *
 288:.\Generated_Source\PSoC4/CapSense_CSD_CSHL.c **** * Return:
 289:.\Generated_Source\PSoC4/CapSense_CSD_CSHL.c **** *  None
 290:.\Generated_Source\PSoC4/CapSense_CSD_CSHL.c **** *
 291:.\Generated_Source\PSoC4/CapSense_CSD_CSHL.c **** * Global Variables:
 292:.\Generated_Source\PSoC4/CapSense_CSD_CSHL.c **** *  CapSense_CSD_sensorRaw[] - used to store the sensors raw data.
 293:.\Generated_Source\PSoC4/CapSense_CSD_CSHL.c **** *  CapSense_CSD_sensorEnableMask[ ] - used to store bit masks of the enabled sensors.
 294:.\Generated_Source\PSoC4/CapSense_CSD_CSHL.c **** *
 295:.\Generated_Source\PSoC4/CapSense_CSD_CSHL.c **** * Side Effects:
 296:.\Generated_Source\PSoC4/CapSense_CSD_CSHL.c **** *  None
 297:.\Generated_Source\PSoC4/CapSense_CSD_CSHL.c **** *
 298:.\Generated_Source\PSoC4/CapSense_CSD_CSHL.c **** *******************************************************************************/
 299:.\Generated_Source\PSoC4/CapSense_CSD_CSHL.c **** void CapSense_CSD_InitializeEnabledBaselines(void)
 300:.\Generated_Source\PSoC4/CapSense_CSD_CSHL.c **** {
 306              		.loc 1 300 0
 307              		.cfi_startproc
 308 0000 80B5     		push	{r7, lr}
 309              		.cfi_def_cfa_offset 8
 310              		.cfi_offset 7, -8
 311              		.cfi_offset 14, -4
 312 0002 82B0     		sub	sp, sp, #8
 313              		.cfi_def_cfa_offset 16
 314 0004 00AF     		add	r7, sp, #0
 315              		.cfi_def_cfa_register 7
ARM GAS  C:\Users\LUKASC~1\AppData\Local\Temp\ccrijgnB.s 			page 12


 301:.\Generated_Source\PSoC4/CapSense_CSD_CSHL.c ****     uint32 i;
 302:.\Generated_Source\PSoC4/CapSense_CSD_CSHL.c ****     uint32 isSensorEnabled;
 303:.\Generated_Source\PSoC4/CapSense_CSD_CSHL.c **** 
 304:.\Generated_Source\PSoC4/CapSense_CSD_CSHL.c ****     CapSense_CSD_ScanEnabledWidgets();
 316              		.loc 1 304 0
 317 0006 FFF7FEFF 		bl	CapSense_CSD_ScanEnabledWidgets
 305:.\Generated_Source\PSoC4/CapSense_CSD_CSHL.c ****     while(CapSense_CSD_IsBusy() != 0u)
 318              		.loc 1 305 0
 319 000a C046     		mov	r8, r8
 320              	.L11:
 321              		.loc 1 305 0 is_stmt 0 discriminator 1
 322 000c FFF7FEFF 		bl	CapSense_CSD_IsBusy
 323 0010 031E     		sub	r3, r0, #0
 324 0012 FBD1     		bne	.L11
 306:.\Generated_Source\PSoC4/CapSense_CSD_CSHL.c ****     {
 307:.\Generated_Source\PSoC4/CapSense_CSD_CSHL.c ****         /* Wait while sensor is busy */
 308:.\Generated_Source\PSoC4/CapSense_CSD_CSHL.c ****     }
 309:.\Generated_Source\PSoC4/CapSense_CSD_CSHL.c **** 
 310:.\Generated_Source\PSoC4/CapSense_CSD_CSHL.c ****     for(i = 0u; i < CapSense_CSD_TOTAL_SENSOR_COUNT; i++)
 325              		.loc 1 310 0 is_stmt 1
 326 0014 0023     		mov	r3, #0
 327 0016 7B60     		str	r3, [r7, #4]
 328 0018 11E0     		b	.L12
 329              	.L14:
 311:.\Generated_Source\PSoC4/CapSense_CSD_CSHL.c ****     {
 312:.\Generated_Source\PSoC4/CapSense_CSD_CSHL.c ****         isSensorEnabled = CapSense_CSD_GetBitValue(CapSense_CSD_sensorEnableMask, i);
 330              		.loc 1 312 0
 331 001a 0C4A     		ldr	r2, .L15
 332 001c 7B68     		ldr	r3, [r7, #4]
 333 001e 101C     		mov	r0, r2
 334 0020 191C     		mov	r1, r3
 335 0022 FFF7FEFF 		bl	CapSense_CSD_GetBitValue
 336 0026 031C     		mov	r3, r0
 337 0028 3B60     		str	r3, [r7]
 313:.\Generated_Source\PSoC4/CapSense_CSD_CSHL.c **** 
 314:.\Generated_Source\PSoC4/CapSense_CSD_CSHL.c ****         /* Clear raw data if sensor is disabled from scanning process */
 315:.\Generated_Source\PSoC4/CapSense_CSD_CSHL.c ****         if(isSensorEnabled != 0u)
 338              		.loc 1 315 0
 339 002a 3B68     		ldr	r3, [r7]
 340 002c 002B     		cmp	r3, #0
 341 002e 03D0     		beq	.L13
 316:.\Generated_Source\PSoC4/CapSense_CSD_CSHL.c ****         {
 317:.\Generated_Source\PSoC4/CapSense_CSD_CSHL.c ****             /* Initialize baselines */
 318:.\Generated_Source\PSoC4/CapSense_CSD_CSHL.c ****             CapSense_CSD_BaseInit(i);
 342              		.loc 1 318 0
 343 0030 7B68     		ldr	r3, [r7, #4]
 344 0032 181C     		mov	r0, r3
 345 0034 FFF7FEFF 		bl	CapSense_CSD_BaseInit
 346              	.L13:
 310:.\Generated_Source\PSoC4/CapSense_CSD_CSHL.c ****     {
 347              		.loc 1 310 0 discriminator 2
 348 0038 7B68     		ldr	r3, [r7, #4]
 349 003a 0133     		add	r3, r3, #1
 350 003c 7B60     		str	r3, [r7, #4]
 351              	.L12:
 310:.\Generated_Source\PSoC4/CapSense_CSD_CSHL.c ****     {
 352              		.loc 1 310 0 is_stmt 0 discriminator 1
ARM GAS  C:\Users\LUKASC~1\AppData\Local\Temp\ccrijgnB.s 			page 13


 353 003e 7B68     		ldr	r3, [r7, #4]
 354 0040 0C2B     		cmp	r3, #12
 355 0042 EAD9     		bls	.L14
 319:.\Generated_Source\PSoC4/CapSense_CSD_CSHL.c ****         }
 320:.\Generated_Source\PSoC4/CapSense_CSD_CSHL.c ****     }
 321:.\Generated_Source\PSoC4/CapSense_CSD_CSHL.c **** }
 356              		.loc 1 321 0 is_stmt 1
 357 0044 BD46     		mov	sp, r7
 358 0046 02B0     		add	sp, sp, #8
 359              		@ sp needed
 360 0048 80BD     		pop	{r7, pc}
 361              	.L16:
 362 004a C046     		.align	2
 363              	.L15:
 364 004c 00000000 		.word	CapSense_CSD_sensorEnableMask
 365              		.cfi_endproc
 366              	.LFE37:
 367              		.size	CapSense_CSD_InitializeEnabledBaselines, .-CapSense_CSD_InitializeEnabledBaselines
 368              		.section	.text.CapSense_CSD_UpdateBaselineNoThreshold,"ax",%progbits
 369              		.align	2
 370              		.global	CapSense_CSD_UpdateBaselineNoThreshold
 371              		.code	16
 372              		.thumb_func
 373              		.type	CapSense_CSD_UpdateBaselineNoThreshold, %function
 374              	CapSense_CSD_UpdateBaselineNoThreshold:
 375              	.LFB38:
 322:.\Generated_Source\PSoC4/CapSense_CSD_CSHL.c **** 
 323:.\Generated_Source\PSoC4/CapSense_CSD_CSHL.c **** 
 324:.\Generated_Source\PSoC4/CapSense_CSD_CSHL.c **** /*******************************************************************************
 325:.\Generated_Source\PSoC4/CapSense_CSD_CSHL.c **** * Function Name: CapSense_CSD_UpdateBaselineNoThreshold
 326:.\Generated_Source\PSoC4/CapSense_CSD_CSHL.c **** ********************************************************************************
 327:.\Generated_Source\PSoC4/CapSense_CSD_CSHL.c **** *
 328:.\Generated_Source\PSoC4/CapSense_CSD_CSHL.c **** * Summary:
 329:.\Generated_Source\PSoC4/CapSense_CSD_CSHL.c **** *  Updates the CapSense_CSD_sensorBaseline[sensor] array element using the
 330:.\Generated_Source\PSoC4/CapSense_CSD_CSHL.c **** *  LP filter with k = 256. The signal calculates the difference of count by
 331:.\Generated_Source\PSoC4/CapSense_CSD_CSHL.c **** *  subtracting the previous baseline from the current raw count value and stores
 332:.\Generated_Source\PSoC4/CapSense_CSD_CSHL.c **** *  it in CapSense_CSD_sensorSignal[sensor].
 333:.\Generated_Source\PSoC4/CapSense_CSD_CSHL.c **** *  If the auto reset option is enabled, the baseline updated regards the noise threshold.
 334:.\Generated_Source\PSoC4/CapSense_CSD_CSHL.c **** *  If the auto reset option is disabled, the baseline stops updating; baseline is loaded
 335:.\Generated_Source\PSoC4/CapSense_CSD_CSHL.c **** *  with a raw count value if a signal is greater than zero and if signal is less
 336:.\Generated_Source\PSoC4/CapSense_CSD_CSHL.c **** *  than noise threshold.
 337:.\Generated_Source\PSoC4/CapSense_CSD_CSHL.c **** *  Raw data filters are applied to the values if enabled before baseline
 338:.\Generated_Source\PSoC4/CapSense_CSD_CSHL.c **** *  calculation.
 339:.\Generated_Source\PSoC4/CapSense_CSD_CSHL.c **** *
 340:.\Generated_Source\PSoC4/CapSense_CSD_CSHL.c **** *  This API does not update the thresholds in the Smartsense Mode.
 341:.\Generated_Source\PSoC4/CapSense_CSD_CSHL.c **** *
 342:.\Generated_Source\PSoC4/CapSense_CSD_CSHL.c **** * Parameters:
 343:.\Generated_Source\PSoC4/CapSense_CSD_CSHL.c **** *  sensor:  Sensor number.
 344:.\Generated_Source\PSoC4/CapSense_CSD_CSHL.c **** *
 345:.\Generated_Source\PSoC4/CapSense_CSD_CSHL.c **** * Return:
 346:.\Generated_Source\PSoC4/CapSense_CSD_CSHL.c **** *  None
 347:.\Generated_Source\PSoC4/CapSense_CSD_CSHL.c **** *
 348:.\Generated_Source\PSoC4/CapSense_CSD_CSHL.c **** * Global Variables:
 349:.\Generated_Source\PSoC4/CapSense_CSD_CSHL.c **** *  CapSense_CSD_widgetNumber[]  - stores widget numbers.
 350:.\Generated_Source\PSoC4/CapSense_CSD_CSHL.c **** *  CapSense_CSD_sensorBaseline[]    - used to store baseline value.
 351:.\Generated_Source\PSoC4/CapSense_CSD_CSHL.c **** *  CapSense_CSD_sensorBaselineLow[] - used to store fraction byte of
 352:.\Generated_Source\PSoC4/CapSense_CSD_CSHL.c **** *  baseline value.
ARM GAS  C:\Users\LUKASC~1\AppData\Local\Temp\ccrijgnB.s 			page 14


 353:.\Generated_Source\PSoC4/CapSense_CSD_CSHL.c **** *  CapSense_CSD_sensorSignal[]      - used to store difference between
 354:.\Generated_Source\PSoC4/CapSense_CSD_CSHL.c **** *  current value of raw data and previous value of baseline.
 355:.\Generated_Source\PSoC4/CapSense_CSD_CSHL.c **** *  CapSense_CSD_rawFilterData1[]    - used to store previous sample of
 356:.\Generated_Source\PSoC4/CapSense_CSD_CSHL.c **** *  any enabled raw data filter.
 357:.\Generated_Source\PSoC4/CapSense_CSD_CSHL.c **** *  CapSense_CSD_rawFilterData2[]    - used to store before previous sample
 358:.\Generated_Source\PSoC4/CapSense_CSD_CSHL.c **** *  of enabled raw data filter. Only required for median or average filters.
 359:.\Generated_Source\PSoC4/CapSense_CSD_CSHL.c **** *
 360:.\Generated_Source\PSoC4/CapSense_CSD_CSHL.c **** * Side Effects:
 361:.\Generated_Source\PSoC4/CapSense_CSD_CSHL.c **** *  None
 362:.\Generated_Source\PSoC4/CapSense_CSD_CSHL.c **** *
 363:.\Generated_Source\PSoC4/CapSense_CSD_CSHL.c **** *******************************************************************************/
 364:.\Generated_Source\PSoC4/CapSense_CSD_CSHL.c **** void CapSense_CSD_UpdateBaselineNoThreshold(uint32 sensor)
 365:.\Generated_Source\PSoC4/CapSense_CSD_CSHL.c **** {
 376              		.loc 1 365 0
 377              		.cfi_startproc
 378 0000 90B5     		push	{r4, r7, lr}
 379              		.cfi_def_cfa_offset 12
 380              		.cfi_offset 4, -12
 381              		.cfi_offset 7, -8
 382              		.cfi_offset 14, -4
 383 0002 87B0     		sub	sp, sp, #28
 384              		.cfi_def_cfa_offset 40
 385 0004 00AF     		add	r7, sp, #0
 386              		.cfi_def_cfa_register 7
 387 0006 7860     		str	r0, [r7, #4]
 366:.\Generated_Source\PSoC4/CapSense_CSD_CSHL.c ****     uint32 calc;
 367:.\Generated_Source\PSoC4/CapSense_CSD_CSHL.c ****     uint32 sign;
 368:.\Generated_Source\PSoC4/CapSense_CSD_CSHL.c ****     uint16 tempRaw;
 369:.\Generated_Source\PSoC4/CapSense_CSD_CSHL.c ****     uint16 filteredRawData;
 370:.\Generated_Source\PSoC4/CapSense_CSD_CSHL.c ****     uint8 widget = CapSense_CSD_widgetNumber[sensor];
 388              		.loc 1 370 0
 389 0008 0F23     		mov	r3, #15
 390 000a FB18     		add	r3, r7, r3
 391 000c 7E49     		ldr	r1, .L30
 392 000e 7A68     		ldr	r2, [r7, #4]
 393 0010 8A18     		add	r2, r1, r2
 394 0012 1278     		ldrb	r2, [r2]
 395 0014 1A70     		strb	r2, [r3]
 371:.\Generated_Source\PSoC4/CapSense_CSD_CSHL.c ****     uint8 noiseThreshold;
 372:.\Generated_Source\PSoC4/CapSense_CSD_CSHL.c **** 
 373:.\Generated_Source\PSoC4/CapSense_CSD_CSHL.c ****     #if (CapSense_CSD_TOTAL_GENERICS_COUNT)
 374:.\Generated_Source\PSoC4/CapSense_CSD_CSHL.c ****         /* Exclude generic widget */
 375:.\Generated_Source\PSoC4/CapSense_CSD_CSHL.c ****         if(widget < CapSense_CSD_END_OF_WIDGETS_INDEX)
 376:.\Generated_Source\PSoC4/CapSense_CSD_CSHL.c ****         {
 377:.\Generated_Source\PSoC4/CapSense_CSD_CSHL.c ****     #endif  /* CapSense_CSD_TOTAL_GENERICS_COUNT */
 378:.\Generated_Source\PSoC4/CapSense_CSD_CSHL.c **** 
 379:.\Generated_Source\PSoC4/CapSense_CSD_CSHL.c ****     noiseThreshold = CapSense_CSD_noiseThreshold[widget];
 396              		.loc 1 379 0
 397 0016 0F23     		mov	r3, #15
 398 0018 FB18     		add	r3, r7, r3
 399 001a 1A78     		ldrb	r2, [r3]
 400 001c 0E23     		mov	r3, #14
 401 001e FB18     		add	r3, r7, r3
 402 0020 7A49     		ldr	r1, .L30+4
 403 0022 8A5C     		ldrb	r2, [r1, r2]
 404 0024 1A70     		strb	r2, [r3]
 380:.\Generated_Source\PSoC4/CapSense_CSD_CSHL.c ****     filteredRawData = CapSense_CSD_sensorRaw[sensor];
ARM GAS  C:\Users\LUKASC~1\AppData\Local\Temp\ccrijgnB.s 			page 15


 405              		.loc 1 380 0
 406 0026 1023     		mov	r3, #16
 407 0028 FB18     		add	r3, r7, r3
 408 002a 794A     		ldr	r2, .L30+8
 409 002c 7968     		ldr	r1, [r7, #4]
 410 002e 4900     		lsl	r1, r1, #1
 411 0030 8A5A     		ldrh	r2, [r1, r2]
 412 0032 1A80     		strh	r2, [r3]
 381:.\Generated_Source\PSoC4/CapSense_CSD_CSHL.c **** 
 382:.\Generated_Source\PSoC4/CapSense_CSD_CSHL.c ****     #if (CapSense_CSD_RAW_FILTER_MASK != 0u)
 383:.\Generated_Source\PSoC4/CapSense_CSD_CSHL.c ****     if(CapSense_CSD_enableRawFilters != 0u)
 413              		.loc 1 383 0
 414 0034 774B     		ldr	r3, .L30+12
 415 0036 1B78     		ldrb	r3, [r3]
 416 0038 002B     		cmp	r3, #0
 417 003a 15D0     		beq	.L18
 384:.\Generated_Source\PSoC4/CapSense_CSD_CSHL.c ****     {
 385:.\Generated_Source\PSoC4/CapSense_CSD_CSHL.c ****         #if (CapSense_CSD_RAW_FILTER_MASK & CapSense_CSD_MEDIAN_FILTER)
 386:.\Generated_Source\PSoC4/CapSense_CSD_CSHL.c ****             tempRaw = filteredRawData;
 387:.\Generated_Source\PSoC4/CapSense_CSD_CSHL.c ****             filteredRawData = CapSense_CSD_MedianFilter(filteredRawData, CapSense_CSD_rawFilterData
 388:.\Generated_Source\PSoC4/CapSense_CSD_CSHL.c ****                                                             CapSense_CSD_rawFilterData2[sensor]);
 389:.\Generated_Source\PSoC4/CapSense_CSD_CSHL.c ****             CapSense_CSD_rawFilterData2[sensor] = CapSense_CSD_rawFilterData1[sensor];
 390:.\Generated_Source\PSoC4/CapSense_CSD_CSHL.c ****             CapSense_CSD_rawFilterData1[sensor] = tempRaw;
 391:.\Generated_Source\PSoC4/CapSense_CSD_CSHL.c **** 
 392:.\Generated_Source\PSoC4/CapSense_CSD_CSHL.c ****         #elif (CapSense_CSD_RAW_FILTER_MASK & CapSense_CSD_AVERAGING_FILTER)
 393:.\Generated_Source\PSoC4/CapSense_CSD_CSHL.c ****             tempRaw = filteredRawData;
 394:.\Generated_Source\PSoC4/CapSense_CSD_CSHL.c ****             filteredRawData = CapSense_CSD_AveragingFilter(filteredRawData, CapSense_CSD_rawFilterD
 395:.\Generated_Source\PSoC4/CapSense_CSD_CSHL.c ****                                                                CapSense_CSD_rawFilterData2[sensor])
 396:.\Generated_Source\PSoC4/CapSense_CSD_CSHL.c ****             CapSense_CSD_rawFilterData2[sensor] = CapSense_CSD_rawFilterData1[sensor];
 397:.\Generated_Source\PSoC4/CapSense_CSD_CSHL.c ****             CapSense_CSD_rawFilterData1[sensor] = tempRaw;
 398:.\Generated_Source\PSoC4/CapSense_CSD_CSHL.c **** 
 399:.\Generated_Source\PSoC4/CapSense_CSD_CSHL.c ****         #elif (CapSense_CSD_RAW_FILTER_MASK & CapSense_CSD_IIR2_FILTER)
 400:.\Generated_Source\PSoC4/CapSense_CSD_CSHL.c ****             filteredRawData = CapSense_CSD_IIR2Filter(filteredRawData, CapSense_CSD_rawFilterData1[
 401:.\Generated_Source\PSoC4/CapSense_CSD_CSHL.c ****             CapSense_CSD_rawFilterData1[sensor] = filteredRawData;
 402:.\Generated_Source\PSoC4/CapSense_CSD_CSHL.c **** 
 403:.\Generated_Source\PSoC4/CapSense_CSD_CSHL.c ****         #elif (CapSense_CSD_RAW_FILTER_MASK & CapSense_CSD_IIR4_FILTER)
 404:.\Generated_Source\PSoC4/CapSense_CSD_CSHL.c ****             filteredRawData = CapSense_CSD_IIR4Filter(filteredRawData, CapSense_CSD_rawFilterData1[
 418              		.loc 1 404 0
 419 003c 764B     		ldr	r3, .L30+16
 420 003e 7A68     		ldr	r2, [r7, #4]
 421 0040 5200     		lsl	r2, r2, #1
 422 0042 D25A     		ldrh	r2, [r2, r3]
 423 0044 1023     		mov	r3, #16
 424 0046 FC18     		add	r4, r7, r3
 425 0048 1023     		mov	r3, #16
 426 004a FB18     		add	r3, r7, r3
 427 004c 1B88     		ldrh	r3, [r3]
 428 004e 181C     		mov	r0, r3
 429 0050 111C     		mov	r1, r2
 430 0052 FFF7FEFF 		bl	CapSense_CSD_IIR4Filter
 431 0056 031C     		mov	r3, r0
 432 0058 2380     		strh	r3, [r4]
 405:.\Generated_Source\PSoC4/CapSense_CSD_CSHL.c ****             CapSense_CSD_rawFilterData1[sensor] = filteredRawData;
 433              		.loc 1 405 0
 434 005a 6F4B     		ldr	r3, .L30+16
 435 005c 7A68     		ldr	r2, [r7, #4]
 436 005e 5200     		lsl	r2, r2, #1
ARM GAS  C:\Users\LUKASC~1\AppData\Local\Temp\ccrijgnB.s 			page 16


 437 0060 1021     		mov	r1, #16
 438 0062 7918     		add	r1, r7, r1
 439 0064 0988     		ldrh	r1, [r1]
 440 0066 D152     		strh	r1, [r2, r3]
 441              	.L18:
 406:.\Generated_Source\PSoC4/CapSense_CSD_CSHL.c **** 
 407:.\Generated_Source\PSoC4/CapSense_CSD_CSHL.c ****         #elif (CapSense_CSD_RAW_FILTER_MASK & CapSense_CSD_JITTER_FILTER)
 408:.\Generated_Source\PSoC4/CapSense_CSD_CSHL.c ****             filteredRawData = CapSense_CSD_JitterFilter(filteredRawData, CapSense_CSD_rawFilterData
 409:.\Generated_Source\PSoC4/CapSense_CSD_CSHL.c ****             CapSense_CSD_rawFilterData1[sensor] = filteredRawData;
 410:.\Generated_Source\PSoC4/CapSense_CSD_CSHL.c **** 
 411:.\Generated_Source\PSoC4/CapSense_CSD_CSHL.c ****         #elif (CapSense_CSD_RAW_FILTER_MASK & CapSense_CSD_IIR8_FILTER)
 412:.\Generated_Source\PSoC4/CapSense_CSD_CSHL.c ****             filteredRawData = CapSense_CSD_IIR8Filter(filteredRawData, CapSense_CSD_rawFilterData1[
 413:.\Generated_Source\PSoC4/CapSense_CSD_CSHL.c ****             CapSense_CSD_rawFilterData1[sensor] = filteredRawData;
 414:.\Generated_Source\PSoC4/CapSense_CSD_CSHL.c **** 
 415:.\Generated_Source\PSoC4/CapSense_CSD_CSHL.c ****         #elif (CapSense_CSD_RAW_FILTER_MASK & CapSense_CSD_IIR16_FILTER)
 416:.\Generated_Source\PSoC4/CapSense_CSD_CSHL.c ****             filteredRawData = CapSense_CSD_IIR16Filter(filteredRawData, CapSense_CSD_rawFilterData1
 417:.\Generated_Source\PSoC4/CapSense_CSD_CSHL.c ****             CapSense_CSD_rawFilterData1[sensor] = filteredRawData;
 418:.\Generated_Source\PSoC4/CapSense_CSD_CSHL.c **** 
 419:.\Generated_Source\PSoC4/CapSense_CSD_CSHL.c ****         #else
 420:.\Generated_Source\PSoC4/CapSense_CSD_CSHL.c ****             /* No Raw filters */
 421:.\Generated_Source\PSoC4/CapSense_CSD_CSHL.c ****         #endif  /* (CapSense_CSD_RAW_FILTER_MASK & CapSense_CSD_MEDIAN_FILTER) */
 422:.\Generated_Source\PSoC4/CapSense_CSD_CSHL.c ****     }
 423:.\Generated_Source\PSoC4/CapSense_CSD_CSHL.c ****     #endif  /* (CapSense_CSD_RAW_FILTER_MASK != 0u) */
 424:.\Generated_Source\PSoC4/CapSense_CSD_CSHL.c **** 
 425:.\Generated_Source\PSoC4/CapSense_CSD_CSHL.c ****     #if (CapSense_CSD_TUNING_METHOD == CapSense_CSD__TUNING_AUTO)
 426:.\Generated_Source\PSoC4/CapSense_CSD_CSHL.c ****         MeasureNoiseEnvelope_P4_v2_40(&CapSense_CSD_config, (uint8)sensor, CapSense_CSD_sensorRaw);
 442              		.loc 1 426 0
 443 0068 7B68     		ldr	r3, [r7, #4]
 444 006a DAB2     		uxtb	r2, r3
 445 006c 6B49     		ldr	r1, .L30+20
 446 006e 684B     		ldr	r3, .L30+8
 447 0070 081C     		mov	r0, r1
 448 0072 111C     		mov	r1, r2
 449 0074 1A1C     		mov	r2, r3
 450 0076 FFF7FEFF 		bl	MeasureNoiseEnvelope_P4_v2_40
 427:.\Generated_Source\PSoC4/CapSense_CSD_CSHL.c ****     #endif /* (CapSense_CSD_TUNING_METHOD == CapSense_CSD__TUNING_AUTO) */
 428:.\Generated_Source\PSoC4/CapSense_CSD_CSHL.c **** 
 429:.\Generated_Source\PSoC4/CapSense_CSD_CSHL.c ****     /* Baseline calculation */
 430:.\Generated_Source\PSoC4/CapSense_CSD_CSHL.c ****     /* Calculate difference RawData[cur] - Baseline[prev] */
 431:.\Generated_Source\PSoC4/CapSense_CSD_CSHL.c ****     if(filteredRawData >= CapSense_CSD_sensorBaseline[sensor])
 451              		.loc 1 431 0
 452 007a 694B     		ldr	r3, .L30+24
 453 007c 7A68     		ldr	r2, [r7, #4]
 454 007e 5200     		lsl	r2, r2, #1
 455 0080 D35A     		ldrh	r3, [r2, r3]
 456 0082 1022     		mov	r2, #16
 457 0084 BA18     		add	r2, r7, r2
 458 0086 1288     		ldrh	r2, [r2]
 459 0088 9A42     		cmp	r2, r3
 460 008a 12D3     		bcc	.L19
 432:.\Generated_Source\PSoC4/CapSense_CSD_CSHL.c ****     {
 433:.\Generated_Source\PSoC4/CapSense_CSD_CSHL.c ****         CapSense_CSD_lowBaselineResetCnt[sensor] = 0u;
 461              		.loc 1 433 0
 462 008c 654A     		ldr	r2, .L30+28
 463 008e 7B68     		ldr	r3, [r7, #4]
 464 0090 D318     		add	r3, r2, r3
 465 0092 0022     		mov	r2, #0
ARM GAS  C:\Users\LUKASC~1\AppData\Local\Temp\ccrijgnB.s 			page 17


 466 0094 1A70     		strb	r2, [r3]
 434:.\Generated_Source\PSoC4/CapSense_CSD_CSHL.c ****         tempRaw = filteredRawData - CapSense_CSD_sensorBaseline[sensor];
 467              		.loc 1 434 0
 468 0096 624B     		ldr	r3, .L30+24
 469 0098 7A68     		ldr	r2, [r7, #4]
 470 009a 5200     		lsl	r2, r2, #1
 471 009c D25A     		ldrh	r2, [r2, r3]
 472 009e 1223     		mov	r3, #18
 473 00a0 FB18     		add	r3, r7, r3
 474 00a2 1021     		mov	r1, #16
 475 00a4 7918     		add	r1, r7, r1
 476 00a6 0988     		ldrh	r1, [r1]
 477 00a8 8A1A     		sub	r2, r1, r2
 478 00aa 1A80     		strh	r2, [r3]
 435:.\Generated_Source\PSoC4/CapSense_CSD_CSHL.c ****         sign = 1u;    /* Positive difference - Calculate the Signal */
 479              		.loc 1 435 0
 480 00ac 0123     		mov	r3, #1
 481 00ae 7B61     		str	r3, [r7, #20]
 482 00b0 0CE0     		b	.L20
 483              	.L19:
 436:.\Generated_Source\PSoC4/CapSense_CSD_CSHL.c ****     }
 437:.\Generated_Source\PSoC4/CapSense_CSD_CSHL.c ****     else
 438:.\Generated_Source\PSoC4/CapSense_CSD_CSHL.c ****     {
 439:.\Generated_Source\PSoC4/CapSense_CSD_CSHL.c ****         tempRaw = CapSense_CSD_sensorBaseline[sensor] - filteredRawData;
 484              		.loc 1 439 0
 485 00b2 5B4B     		ldr	r3, .L30+24
 486 00b4 7A68     		ldr	r2, [r7, #4]
 487 00b6 5200     		lsl	r2, r2, #1
 488 00b8 D15A     		ldrh	r1, [r2, r3]
 489 00ba 1223     		mov	r3, #18
 490 00bc FB18     		add	r3, r7, r3
 491 00be 1022     		mov	r2, #16
 492 00c0 BA18     		add	r2, r7, r2
 493 00c2 1288     		ldrh	r2, [r2]
 494 00c4 8A1A     		sub	r2, r1, r2
 495 00c6 1A80     		strh	r2, [r3]
 440:.\Generated_Source\PSoC4/CapSense_CSD_CSHL.c ****         sign = 0u;    /* Negative difference - Do NOT calculate the Signal */
 496              		.loc 1 440 0
 497 00c8 0023     		mov	r3, #0
 498 00ca 7B61     		str	r3, [r7, #20]
 499              	.L20:
 441:.\Generated_Source\PSoC4/CapSense_CSD_CSHL.c ****     }
 442:.\Generated_Source\PSoC4/CapSense_CSD_CSHL.c **** 
 443:.\Generated_Source\PSoC4/CapSense_CSD_CSHL.c ****     #if (CapSense_CSD_TUNING_METHOD != CapSense_CSD__TUNING_NONE)
 444:.\Generated_Source\PSoC4/CapSense_CSD_CSHL.c ****     if((sign == 0u) && (tempRaw > (uint16) CapSense_CSD_negativeNoiseThreshold[widget]))
 500              		.loc 1 444 0
 501 00cc 7B69     		ldr	r3, [r7, #20]
 502 00ce 002B     		cmp	r3, #0
 503 00d0 2AD1     		bne	.L21
 504              		.loc 1 444 0 is_stmt 0 discriminator 1
 505 00d2 0F23     		mov	r3, #15
 506 00d4 FB18     		add	r3, r7, r3
 507 00d6 1B78     		ldrb	r3, [r3]
 508 00d8 534A     		ldr	r2, .L30+32
 509 00da D35C     		ldrb	r3, [r2, r3]
 510 00dc 9BB2     		uxth	r3, r3
 511 00de 1222     		mov	r2, #18
ARM GAS  C:\Users\LUKASC~1\AppData\Local\Temp\ccrijgnB.s 			page 18


 512 00e0 BA18     		add	r2, r7, r2
 513 00e2 1288     		ldrh	r2, [r2]
 514 00e4 9A42     		cmp	r2, r3
 515 00e6 1FD9     		bls	.L21
 445:.\Generated_Source\PSoC4/CapSense_CSD_CSHL.c ****     #else
 446:.\Generated_Source\PSoC4/CapSense_CSD_CSHL.c ****     if((sign == 0u) && (tempRaw > (uint16) CapSense_CSD_NEGATIVE_NOISE_THRESHOLD))
 447:.\Generated_Source\PSoC4/CapSense_CSD_CSHL.c ****     #endif /* (CapSense_CSD_TUNING_METHOD != CapSense_CSD__TUNING_NONE) */
 448:.\Generated_Source\PSoC4/CapSense_CSD_CSHL.c ****     {
 449:.\Generated_Source\PSoC4/CapSense_CSD_CSHL.c ****         if(CapSense_CSD_lowBaselineResetCnt[sensor] >= CapSense_CSD_lowBaselineReset[sensor])
 516              		.loc 1 449 0 is_stmt 1
 517 00e8 4E4A     		ldr	r2, .L30+28
 518 00ea 7B68     		ldr	r3, [r7, #4]
 519 00ec D318     		add	r3, r2, r3
 520 00ee 1A78     		ldrb	r2, [r3]
 521 00f0 4E49     		ldr	r1, .L30+36
 522 00f2 7B68     		ldr	r3, [r7, #4]
 523 00f4 CB18     		add	r3, r1, r3
 524 00f6 1B78     		ldrb	r3, [r3]
 525 00f8 9A42     		cmp	r2, r3
 526 00fa 09D3     		bcc	.L22
 450:.\Generated_Source\PSoC4/CapSense_CSD_CSHL.c ****         {
 451:.\Generated_Source\PSoC4/CapSense_CSD_CSHL.c ****             CapSense_CSD_BaseInit(sensor);
 527              		.loc 1 451 0
 528 00fc 7B68     		ldr	r3, [r7, #4]
 529 00fe 181C     		mov	r0, r3
 530 0100 FFF7FEFF 		bl	CapSense_CSD_BaseInit
 452:.\Generated_Source\PSoC4/CapSense_CSD_CSHL.c ****             CapSense_CSD_lowBaselineResetCnt[sensor] = 0u;
 531              		.loc 1 452 0
 532 0104 474A     		ldr	r2, .L30+28
 533 0106 7B68     		ldr	r3, [r7, #4]
 534 0108 D318     		add	r3, r2, r3
 535 010a 0022     		mov	r2, #0
 536 010c 1A70     		strb	r2, [r3]
 449:.\Generated_Source\PSoC4/CapSense_CSD_CSHL.c ****         {
 537              		.loc 1 449 0
 538 010e 51E0     		b	.L24
 539              	.L22:
 453:.\Generated_Source\PSoC4/CapSense_CSD_CSHL.c ****         }
 454:.\Generated_Source\PSoC4/CapSense_CSD_CSHL.c ****         else
 455:.\Generated_Source\PSoC4/CapSense_CSD_CSHL.c ****         {
 456:.\Generated_Source\PSoC4/CapSense_CSD_CSHL.c ****             CapSense_CSD_lowBaselineResetCnt[sensor]++;
 540              		.loc 1 456 0
 541 0110 444A     		ldr	r2, .L30+28
 542 0112 7B68     		ldr	r3, [r7, #4]
 543 0114 D318     		add	r3, r2, r3
 544 0116 1B78     		ldrb	r3, [r3]
 545 0118 0133     		add	r3, r3, #1
 546 011a D9B2     		uxtb	r1, r3
 547 011c 414A     		ldr	r2, .L30+28
 548 011e 7B68     		ldr	r3, [r7, #4]
 549 0120 D318     		add	r3, r2, r3
 550 0122 0A1C     		add	r2, r1, #0
 551 0124 1A70     		strb	r2, [r3]
 449:.\Generated_Source\PSoC4/CapSense_CSD_CSHL.c ****         {
 552              		.loc 1 449 0
 553 0126 45E0     		b	.L24
 554              	.L21:
ARM GAS  C:\Users\LUKASC~1\AppData\Local\Temp\ccrijgnB.s 			page 19


 457:.\Generated_Source\PSoC4/CapSense_CSD_CSHL.c ****         }
 458:.\Generated_Source\PSoC4/CapSense_CSD_CSHL.c ****     }
 459:.\Generated_Source\PSoC4/CapSense_CSD_CSHL.c ****     else
 460:.\Generated_Source\PSoC4/CapSense_CSD_CSHL.c ****     {
 461:.\Generated_Source\PSoC4/CapSense_CSD_CSHL.c ****         #if (CapSense_CSD_AUTO_RESET == CapSense_CSD_AUTO_RESET_DISABLE)
 462:.\Generated_Source\PSoC4/CapSense_CSD_CSHL.c ****         #if (CapSense_CSD_TUNING_METHOD != CapSense_CSD__TUNING_NONE)
 463:.\Generated_Source\PSoC4/CapSense_CSD_CSHL.c ****             /* Update Baseline if lower than noiseThreshold */
 464:.\Generated_Source\PSoC4/CapSense_CSD_CSHL.c ****             if ( (tempRaw <= noiseThreshold) ||
 555              		.loc 1 464 0
 556 0128 0E23     		mov	r3, #14
 557 012a FB18     		add	r3, r7, r3
 558 012c 1B78     		ldrb	r3, [r3]
 559 012e 9BB2     		uxth	r3, r3
 560 0130 1222     		mov	r2, #18
 561 0132 BA18     		add	r2, r7, r2
 562 0134 1288     		ldrh	r2, [r2]
 563 0136 9A42     		cmp	r2, r3
 564 0138 0DD9     		bls	.L25
 465:.\Generated_Source\PSoC4/CapSense_CSD_CSHL.c ****              ((tempRaw < (uint16) CapSense_CSD_negativeNoiseThreshold[widget])
 565              		.loc 1 465 0 discriminator 1
 566 013a 0F23     		mov	r3, #15
 567 013c FB18     		add	r3, r7, r3
 568 013e 1B78     		ldrb	r3, [r3]
 569 0140 394A     		ldr	r2, .L30+32
 570 0142 D35C     		ldrb	r3, [r2, r3]
 571 0144 9BB2     		uxth	r3, r3
 464:.\Generated_Source\PSoC4/CapSense_CSD_CSHL.c ****              ((tempRaw < (uint16) CapSense_CSD_negativeNoiseThreshold[widget])
 572              		.loc 1 464 0 discriminator 1
 573 0146 1222     		mov	r2, #18
 574 0148 BA18     		add	r2, r7, r2
 575 014a 1288     		ldrh	r2, [r2]
 576 014c 9A42     		cmp	r2, r3
 577 014e 31D2     		bcs	.L24
 466:.\Generated_Source\PSoC4/CapSense_CSD_CSHL.c ****                && (sign == 0u)))
 578              		.loc 1 466 0
 579 0150 7B69     		ldr	r3, [r7, #20]
 580 0152 002B     		cmp	r3, #0
 581 0154 2ED1     		bne	.L24
 582              	.L25:
 467:.\Generated_Source\PSoC4/CapSense_CSD_CSHL.c ****             {
 468:.\Generated_Source\PSoC4/CapSense_CSD_CSHL.c ****         #else
 469:.\Generated_Source\PSoC4/CapSense_CSD_CSHL.c ****             /* Update Baseline if lower than noiseThreshold */
 470:.\Generated_Source\PSoC4/CapSense_CSD_CSHL.c ****             if ( (tempRaw <= noiseThreshold) ||
 471:.\Generated_Source\PSoC4/CapSense_CSD_CSHL.c ****                  ((tempRaw < (uint16) CapSense_CSD_NEGATIVE_NOISE_THRESHOLD)
 472:.\Generated_Source\PSoC4/CapSense_CSD_CSHL.c ****                    && (sign == 0u)))
 473:.\Generated_Source\PSoC4/CapSense_CSD_CSHL.c ****             {
 474:.\Generated_Source\PSoC4/CapSense_CSD_CSHL.c ****         #endif /* (CapSense_CSD_TUNING_METHOD != CapSense_CSD__TUNING_NONE) */
 475:.\Generated_Source\PSoC4/CapSense_CSD_CSHL.c ****         #endif /* (CapSense_CSD_AUTO_RESET == CapSense_CSD_AUTO_RESET_DISABLE) */
 476:.\Generated_Source\PSoC4/CapSense_CSD_CSHL.c ****                 /* Make full Baseline 23 bits */
 477:.\Generated_Source\PSoC4/CapSense_CSD_CSHL.c ****                 calc = (uint32) CapSense_CSD_sensorBaseline[sensor] << 8u;
 583              		.loc 1 477 0
 584 0156 324B     		ldr	r3, .L30+24
 585 0158 7A68     		ldr	r2, [r7, #4]
 586 015a 5200     		lsl	r2, r2, #1
 587 015c D35A     		ldrh	r3, [r2, r3]
 588 015e 1B02     		lsl	r3, r3, #8
 589 0160 BB60     		str	r3, [r7, #8]
ARM GAS  C:\Users\LUKASC~1\AppData\Local\Temp\ccrijgnB.s 			page 20


 478:.\Generated_Source\PSoC4/CapSense_CSD_CSHL.c ****                 calc |= (uint32) CapSense_CSD_sensorBaselineLow[sensor];
 590              		.loc 1 478 0
 591 0162 334A     		ldr	r2, .L30+40
 592 0164 7B68     		ldr	r3, [r7, #4]
 593 0166 D318     		add	r3, r2, r3
 594 0168 1B78     		ldrb	r3, [r3]
 595 016a 1A1C     		mov	r2, r3
 596 016c BB68     		ldr	r3, [r7, #8]
 597 016e 1343     		orr	r3, r2
 598 0170 BB60     		str	r3, [r7, #8]
 479:.\Generated_Source\PSoC4/CapSense_CSD_CSHL.c **** 
 480:.\Generated_Source\PSoC4/CapSense_CSD_CSHL.c ****                 /* Add Raw Data to Baseline */
 481:.\Generated_Source\PSoC4/CapSense_CSD_CSHL.c ****                 calc += filteredRawData;
 599              		.loc 1 481 0
 600 0172 1023     		mov	r3, #16
 601 0174 FB18     		add	r3, r7, r3
 602 0176 1B88     		ldrh	r3, [r3]
 603 0178 BA68     		ldr	r2, [r7, #8]
 604 017a D318     		add	r3, r2, r3
 605 017c BB60     		str	r3, [r7, #8]
 482:.\Generated_Source\PSoC4/CapSense_CSD_CSHL.c **** 
 483:.\Generated_Source\PSoC4/CapSense_CSD_CSHL.c ****                 /* Sub the high Baseline */
 484:.\Generated_Source\PSoC4/CapSense_CSD_CSHL.c ****                 calc -= CapSense_CSD_sensorBaseline[sensor];
 606              		.loc 1 484 0
 607 017e 284B     		ldr	r3, .L30+24
 608 0180 7A68     		ldr	r2, [r7, #4]
 609 0182 5200     		lsl	r2, r2, #1
 610 0184 D35A     		ldrh	r3, [r2, r3]
 611 0186 1A1C     		mov	r2, r3
 612 0188 BB68     		ldr	r3, [r7, #8]
 613 018a 9B1A     		sub	r3, r3, r2
 614 018c BB60     		str	r3, [r7, #8]
 485:.\Generated_Source\PSoC4/CapSense_CSD_CSHL.c **** 
 486:.\Generated_Source\PSoC4/CapSense_CSD_CSHL.c ****                 /* Put Baseline and BaselineLow */
 487:.\Generated_Source\PSoC4/CapSense_CSD_CSHL.c ****                 CapSense_CSD_sensorBaseline[sensor] = ((uint16) (calc >> 8u));
 615              		.loc 1 487 0
 616 018e BB68     		ldr	r3, [r7, #8]
 617 0190 1B0A     		lsr	r3, r3, #8
 618 0192 99B2     		uxth	r1, r3
 619 0194 224B     		ldr	r3, .L30+24
 620 0196 7A68     		ldr	r2, [r7, #4]
 621 0198 5200     		lsl	r2, r2, #1
 622 019a D152     		strh	r1, [r2, r3]
 488:.\Generated_Source\PSoC4/CapSense_CSD_CSHL.c ****                 CapSense_CSD_sensorBaselineLow[sensor] = ((uint8) calc);
 623              		.loc 1 488 0
 624 019c BB68     		ldr	r3, [r7, #8]
 625 019e D9B2     		uxtb	r1, r3
 626 01a0 234A     		ldr	r2, .L30+40
 627 01a2 7B68     		ldr	r3, [r7, #4]
 628 01a4 D318     		add	r3, r2, r3
 629 01a6 0A1C     		add	r2, r1, #0
 630 01a8 1A70     		strb	r2, [r3]
 489:.\Generated_Source\PSoC4/CapSense_CSD_CSHL.c **** 
 490:.\Generated_Source\PSoC4/CapSense_CSD_CSHL.c ****                 CapSense_CSD_lowBaselineResetCnt[sensor] = 0u;
 631              		.loc 1 490 0
 632 01aa 1E4A     		ldr	r2, .L30+28
 633 01ac 7B68     		ldr	r3, [r7, #4]
ARM GAS  C:\Users\LUKASC~1\AppData\Local\Temp\ccrijgnB.s 			page 21


 634 01ae D318     		add	r3, r2, r3
 635 01b0 0022     		mov	r2, #0
 636 01b2 1A70     		strb	r2, [r3]
 637              	.L24:
 491:.\Generated_Source\PSoC4/CapSense_CSD_CSHL.c ****         #if (CapSense_CSD_AUTO_RESET == CapSense_CSD_AUTO_RESET_DISABLE)
 492:.\Generated_Source\PSoC4/CapSense_CSD_CSHL.c ****             }
 493:.\Generated_Source\PSoC4/CapSense_CSD_CSHL.c ****         #endif /* (CapSense_CSD_AUTO_RESET == CapSense_CSD_AUTO_RESET_DISABLE) */
 494:.\Generated_Source\PSoC4/CapSense_CSD_CSHL.c ****     }
 495:.\Generated_Source\PSoC4/CapSense_CSD_CSHL.c **** 
 496:.\Generated_Source\PSoC4/CapSense_CSD_CSHL.c ****     /* Calculate Signal if positive difference > noiseThreshold */
 497:.\Generated_Source\PSoC4/CapSense_CSD_CSHL.c ****     if((tempRaw > (uint16) noiseThreshold) && (sign != 0u))
 638              		.loc 1 497 0
 639 01b4 0E23     		mov	r3, #14
 640 01b6 FB18     		add	r3, r7, r3
 641 01b8 1B78     		ldrb	r3, [r3]
 642 01ba 9BB2     		uxth	r3, r3
 643 01bc 1222     		mov	r2, #18
 644 01be BA18     		add	r2, r7, r2
 645 01c0 1288     		ldrh	r2, [r2]
 646 01c2 9A42     		cmp	r2, r3
 647 01c4 17D9     		bls	.L26
 648              		.loc 1 497 0 is_stmt 0 discriminator 1
 649 01c6 7B69     		ldr	r3, [r7, #20]
 650 01c8 002B     		cmp	r3, #0
 651 01ca 14D0     		beq	.L26
 498:.\Generated_Source\PSoC4/CapSense_CSD_CSHL.c ****     {
 499:.\Generated_Source\PSoC4/CapSense_CSD_CSHL.c ****         #if (CapSense_CSD_SIGNAL_SIZE == CapSense_CSD_SIGNAL_SIZE_UINT8)
 500:.\Generated_Source\PSoC4/CapSense_CSD_CSHL.c ****             /* Over flow defence for uint8 */
 501:.\Generated_Source\PSoC4/CapSense_CSD_CSHL.c ****             if (tempRaw > 0xFFu)
 652              		.loc 1 501 0 is_stmt 1
 653 01cc 1223     		mov	r3, #18
 654 01ce FB18     		add	r3, r7, r3
 655 01d0 1B88     		ldrh	r3, [r3]
 656 01d2 FF2B     		cmp	r3, #255
 657 01d4 05D9     		bls	.L27
 502:.\Generated_Source\PSoC4/CapSense_CSD_CSHL.c ****             {
 503:.\Generated_Source\PSoC4/CapSense_CSD_CSHL.c ****                 CapSense_CSD_sensorSignal[sensor] = 0xFFu;
 658              		.loc 1 503 0
 659 01d6 174A     		ldr	r2, .L30+44
 660 01d8 7B68     		ldr	r3, [r7, #4]
 661 01da D318     		add	r3, r2, r3
 662 01dc FF22     		mov	r2, #255
 663 01de 1A70     		strb	r2, [r3]
 501:.\Generated_Source\PSoC4/CapSense_CSD_CSHL.c ****             {
 664              		.loc 1 501 0
 665 01e0 0EE0     		b	.L17
 666              	.L27:
 504:.\Generated_Source\PSoC4/CapSense_CSD_CSHL.c ****             }
 505:.\Generated_Source\PSoC4/CapSense_CSD_CSHL.c ****             else
 506:.\Generated_Source\PSoC4/CapSense_CSD_CSHL.c ****             {
 507:.\Generated_Source\PSoC4/CapSense_CSD_CSHL.c ****                 CapSense_CSD_sensorSignal[sensor] = ((uint8) tempRaw);
 667              		.loc 1 507 0
 668 01e2 1223     		mov	r3, #18
 669 01e4 FB18     		add	r3, r7, r3
 670 01e6 1B88     		ldrh	r3, [r3]
 671 01e8 D9B2     		uxtb	r1, r3
 672 01ea 124A     		ldr	r2, .L30+44
ARM GAS  C:\Users\LUKASC~1\AppData\Local\Temp\ccrijgnB.s 			page 22


 673 01ec 7B68     		ldr	r3, [r7, #4]
 674 01ee D318     		add	r3, r2, r3
 675 01f0 0A1C     		add	r2, r1, #0
 676 01f2 1A70     		strb	r2, [r3]
 501:.\Generated_Source\PSoC4/CapSense_CSD_CSHL.c ****             {
 677              		.loc 1 501 0
 678 01f4 04E0     		b	.L17
 679              	.L26:
 508:.\Generated_Source\PSoC4/CapSense_CSD_CSHL.c ****             }
 509:.\Generated_Source\PSoC4/CapSense_CSD_CSHL.c ****         #else
 510:.\Generated_Source\PSoC4/CapSense_CSD_CSHL.c ****             CapSense_CSD_sensorSignal[sensor] = ((uint16) tempRaw);
 511:.\Generated_Source\PSoC4/CapSense_CSD_CSHL.c ****         #endif  /* (CapSense_CSD_SIGNAL_SIZE == CapSense_CSD_SIGNAL_SIZE_UINT8) */
 512:.\Generated_Source\PSoC4/CapSense_CSD_CSHL.c ****     }
 513:.\Generated_Source\PSoC4/CapSense_CSD_CSHL.c ****     else
 514:.\Generated_Source\PSoC4/CapSense_CSD_CSHL.c ****     {
 515:.\Generated_Source\PSoC4/CapSense_CSD_CSHL.c ****         /* Signal is zero */
 516:.\Generated_Source\PSoC4/CapSense_CSD_CSHL.c ****         CapSense_CSD_sensorSignal[sensor] = 0u;
 680              		.loc 1 516 0
 681 01f6 0F4A     		ldr	r2, .L30+44
 682 01f8 7B68     		ldr	r3, [r7, #4]
 683 01fa D318     		add	r3, r2, r3
 684 01fc 0022     		mov	r2, #0
 685 01fe 1A70     		strb	r2, [r3]
 686              	.L17:
 517:.\Generated_Source\PSoC4/CapSense_CSD_CSHL.c ****     }
 518:.\Generated_Source\PSoC4/CapSense_CSD_CSHL.c **** 
 519:.\Generated_Source\PSoC4/CapSense_CSD_CSHL.c ****     #if (CapSense_CSD_TOTAL_GENERICS_COUNT)
 520:.\Generated_Source\PSoC4/CapSense_CSD_CSHL.c ****         /* Exclude generic widget */
 521:.\Generated_Source\PSoC4/CapSense_CSD_CSHL.c ****         }
 522:.\Generated_Source\PSoC4/CapSense_CSD_CSHL.c ****     #endif  /* CapSense_CSD_TOTAL_GENERICS_COUNT */
 523:.\Generated_Source\PSoC4/CapSense_CSD_CSHL.c **** }
 687              		.loc 1 523 0
 688 0200 BD46     		mov	sp, r7
 689 0202 07B0     		add	sp, sp, #28
 690              		@ sp needed
 691 0204 90BD     		pop	{r4, r7, pc}
 692              	.L31:
 693 0206 C046     		.align	2
 694              	.L30:
 695 0208 00000000 		.word	CapSense_CSD_widgetNumber
 696 020c 00000000 		.word	CapSense_CSD_noiseThreshold
 697 0210 00000000 		.word	CapSense_CSD_sensorRaw
 698 0214 00000000 		.word	CapSense_CSD_enableRawFilters
 699 0218 00000000 		.word	CapSense_CSD_rawFilterData1
 700 021c 00000000 		.word	CapSense_CSD_config
 701 0220 00000000 		.word	CapSense_CSD_sensorBaseline
 702 0224 00000000 		.word	CapSense_CSD_lowBaselineResetCnt
 703 0228 00000000 		.word	CapSense_CSD_negativeNoiseThreshold
 704 022c 00000000 		.word	CapSense_CSD_lowBaselineReset
 705 0230 00000000 		.word	CapSense_CSD_sensorBaselineLow
 706 0234 00000000 		.word	CapSense_CSD_sensorSignal
 707              		.cfi_endproc
 708              	.LFE38:
 709              		.size	CapSense_CSD_UpdateBaselineNoThreshold, .-CapSense_CSD_UpdateBaselineNoThreshold
 710              		.section	.text.CapSense_CSD_UpdateSensorBaseline,"ax",%progbits
 711              		.align	2
 712              		.global	CapSense_CSD_UpdateSensorBaseline
ARM GAS  C:\Users\LUKASC~1\AppData\Local\Temp\ccrijgnB.s 			page 23


 713              		.code	16
 714              		.thumb_func
 715              		.type	CapSense_CSD_UpdateSensorBaseline, %function
 716              	CapSense_CSD_UpdateSensorBaseline:
 717              	.LFB39:
 524:.\Generated_Source\PSoC4/CapSense_CSD_CSHL.c **** 
 525:.\Generated_Source\PSoC4/CapSense_CSD_CSHL.c **** 
 526:.\Generated_Source\PSoC4/CapSense_CSD_CSHL.c **** /*******************************************************************************
 527:.\Generated_Source\PSoC4/CapSense_CSD_CSHL.c **** * Function Name: CapSense_CSD_UpdateSensorBaseline
 528:.\Generated_Source\PSoC4/CapSense_CSD_CSHL.c **** ********************************************************************************
 529:.\Generated_Source\PSoC4/CapSense_CSD_CSHL.c **** *
 530:.\Generated_Source\PSoC4/CapSense_CSD_CSHL.c **** * Summary:
 531:.\Generated_Source\PSoC4/CapSense_CSD_CSHL.c **** *  Updates the CapSense_CSD_sensorBaseline[sensor] array element using the
 532:.\Generated_Source\PSoC4/CapSense_CSD_CSHL.c **** *  LP filter with k = 256. The signal calculates the difference of count by
 533:.\Generated_Source\PSoC4/CapSense_CSD_CSHL.c **** *  subtracting the previous baseline from the current raw count value and stores
 534:.\Generated_Source\PSoC4/CapSense_CSD_CSHL.c **** *  it in CapSense_CSD_sensorSignal[sensor].
 535:.\Generated_Source\PSoC4/CapSense_CSD_CSHL.c **** *  If the auto reset option is enabled, the baseline updated regards the noise threshold.
 536:.\Generated_Source\PSoC4/CapSense_CSD_CSHL.c **** *  If the auto reset option is disabled, the baseline stops updating.
 537:.\Generated_Source\PSoC4/CapSense_CSD_CSHL.c **** *  Baseline is loaded with raw count value if a signal is greater than zero and
 538:.\Generated_Source\PSoC4/CapSense_CSD_CSHL.c **** *  if signal is less than noise threshold.
 539:.\Generated_Source\PSoC4/CapSense_CSD_CSHL.c **** *  Raw data filters are applied to the values if enabled before baseline
 540:.\Generated_Source\PSoC4/CapSense_CSD_CSHL.c **** *  calculation.
 541:.\Generated_Source\PSoC4/CapSense_CSD_CSHL.c **** *  This API updates the thresholds in the Smartsense Mode.
 542:.\Generated_Source\PSoC4/CapSense_CSD_CSHL.c **** *
 543:.\Generated_Source\PSoC4/CapSense_CSD_CSHL.c **** * Parameters:
 544:.\Generated_Source\PSoC4/CapSense_CSD_CSHL.c **** *  sensor:  Sensor number.
 545:.\Generated_Source\PSoC4/CapSense_CSD_CSHL.c **** *
 546:.\Generated_Source\PSoC4/CapSense_CSD_CSHL.c **** * Return:
 547:.\Generated_Source\PSoC4/CapSense_CSD_CSHL.c **** *  None
 548:.\Generated_Source\PSoC4/CapSense_CSD_CSHL.c **** *
 549:.\Generated_Source\PSoC4/CapSense_CSD_CSHL.c **** * Global Variables:
 550:.\Generated_Source\PSoC4/CapSense_CSD_CSHL.c **** *  CapSense_CSD_widgetNumber[]  - stores widget numbers.
 551:.\Generated_Source\PSoC4/CapSense_CSD_CSHL.c **** *
 552:.\Generated_Source\PSoC4/CapSense_CSD_CSHL.c **** * Side Effects:
 553:.\Generated_Source\PSoC4/CapSense_CSD_CSHL.c **** *  None
 554:.\Generated_Source\PSoC4/CapSense_CSD_CSHL.c **** *
 555:.\Generated_Source\PSoC4/CapSense_CSD_CSHL.c **** *******************************************************************************/
 556:.\Generated_Source\PSoC4/CapSense_CSD_CSHL.c ****  void CapSense_CSD_UpdateSensorBaseline(uint32 sensor)
 557:.\Generated_Source\PSoC4/CapSense_CSD_CSHL.c **** {
 718              		.loc 1 557 0
 719              		.cfi_startproc
 720 0000 80B5     		push	{r7, lr}
 721              		.cfi_def_cfa_offset 8
 722              		.cfi_offset 7, -8
 723              		.cfi_offset 14, -4
 724 0002 82B0     		sub	sp, sp, #8
 725              		.cfi_def_cfa_offset 16
 726 0004 00AF     		add	r7, sp, #0
 727              		.cfi_def_cfa_register 7
 728 0006 7860     		str	r0, [r7, #4]
 558:.\Generated_Source\PSoC4/CapSense_CSD_CSHL.c ****     #if (CapSense_CSD_TOTAL_GENERICS_COUNT)
 559:.\Generated_Source\PSoC4/CapSense_CSD_CSHL.c ****         uint32 widget;
 560:.\Generated_Source\PSoC4/CapSense_CSD_CSHL.c **** 
 561:.\Generated_Source\PSoC4/CapSense_CSD_CSHL.c ****         widget = CapSense_CSD_widgetNumber[sensor];
 562:.\Generated_Source\PSoC4/CapSense_CSD_CSHL.c **** 
 563:.\Generated_Source\PSoC4/CapSense_CSD_CSHL.c ****         /* Exclude generic widget */
 564:.\Generated_Source\PSoC4/CapSense_CSD_CSHL.c ****         if(widget < CapSense_CSD_END_OF_WIDGETS_INDEX)
ARM GAS  C:\Users\LUKASC~1\AppData\Local\Temp\ccrijgnB.s 			page 24


 565:.\Generated_Source\PSoC4/CapSense_CSD_CSHL.c ****         {
 566:.\Generated_Source\PSoC4/CapSense_CSD_CSHL.c ****     #endif  /* CapSense_CSD_TOTAL_GENERICS_COUNT */
 567:.\Generated_Source\PSoC4/CapSense_CSD_CSHL.c **** 
 568:.\Generated_Source\PSoC4/CapSense_CSD_CSHL.c ****     #if (CapSense_CSD_TUNING_METHOD == CapSense_CSD__TUNING_AUTO)
 569:.\Generated_Source\PSoC4/CapSense_CSD_CSHL.c ****         CapSense_CSD_UpdateThresholds(sensor);
 729              		.loc 1 569 0
 730 0008 7B68     		ldr	r3, [r7, #4]
 731 000a 181C     		mov	r0, r3
 732 000c FFF7FEFF 		bl	CapSense_CSD_UpdateThresholds
 570:.\Generated_Source\PSoC4/CapSense_CSD_CSHL.c ****     #endif /* (CapSense_CSD_TUNING_METHOD == CapSense_CSD__TUNING_AUTO) */
 571:.\Generated_Source\PSoC4/CapSense_CSD_CSHL.c **** 
 572:.\Generated_Source\PSoC4/CapSense_CSD_CSHL.c ****     CapSense_CSD_UpdateBaselineNoThreshold(sensor);
 733              		.loc 1 572 0
 734 0010 7B68     		ldr	r3, [r7, #4]
 735 0012 181C     		mov	r0, r3
 736 0014 FFF7FEFF 		bl	CapSense_CSD_UpdateBaselineNoThreshold
 573:.\Generated_Source\PSoC4/CapSense_CSD_CSHL.c **** 
 574:.\Generated_Source\PSoC4/CapSense_CSD_CSHL.c ****     #if (CapSense_CSD_TOTAL_GENERICS_COUNT)
 575:.\Generated_Source\PSoC4/CapSense_CSD_CSHL.c ****         /* Exclude generic widget */
 576:.\Generated_Source\PSoC4/CapSense_CSD_CSHL.c ****         }
 577:.\Generated_Source\PSoC4/CapSense_CSD_CSHL.c ****     #endif  /* CapSense_CSD_TOTAL_GENERICS_COUNT */
 578:.\Generated_Source\PSoC4/CapSense_CSD_CSHL.c **** }
 737              		.loc 1 578 0
 738 0018 BD46     		mov	sp, r7
 739 001a 02B0     		add	sp, sp, #8
 740              		@ sp needed
 741 001c 80BD     		pop	{r7, pc}
 742              		.cfi_endproc
 743              	.LFE39:
 744              		.size	CapSense_CSD_UpdateSensorBaseline, .-CapSense_CSD_UpdateSensorBaseline
 745 001e C046     		.section	.text.CapSense_CSD_UpdateEnabledBaselines,"ax",%progbits
 746              		.align	2
 747              		.global	CapSense_CSD_UpdateEnabledBaselines
 748              		.code	16
 749              		.thumb_func
 750              		.type	CapSense_CSD_UpdateEnabledBaselines, %function
 751              	CapSense_CSD_UpdateEnabledBaselines:
 752              	.LFB40:
 579:.\Generated_Source\PSoC4/CapSense_CSD_CSHL.c **** 
 580:.\Generated_Source\PSoC4/CapSense_CSD_CSHL.c **** 
 581:.\Generated_Source\PSoC4/CapSense_CSD_CSHL.c **** /*******************************************************************************
 582:.\Generated_Source\PSoC4/CapSense_CSD_CSHL.c **** * Function Name: CapSense_CSD_UpdateEnabledBaselines
 583:.\Generated_Source\PSoC4/CapSense_CSD_CSHL.c **** ********************************************************************************
 584:.\Generated_Source\PSoC4/CapSense_CSD_CSHL.c **** *
 585:.\Generated_Source\PSoC4/CapSense_CSD_CSHL.c **** * Summary:
 586:.\Generated_Source\PSoC4/CapSense_CSD_CSHL.c **** *  Checks CapSense_CSD_sensorEnableMask[] array and calls the
 587:.\Generated_Source\PSoC4/CapSense_CSD_CSHL.c **** *  CapSense_CSD_UpdateSensorBaseline function to update the baselines
 588:.\Generated_Source\PSoC4/CapSense_CSD_CSHL.c **** *  for the enabled sensors.
 589:.\Generated_Source\PSoC4/CapSense_CSD_CSHL.c **** *
 590:.\Generated_Source\PSoC4/CapSense_CSD_CSHL.c **** * Parameters:
 591:.\Generated_Source\PSoC4/CapSense_CSD_CSHL.c **** *  None
 592:.\Generated_Source\PSoC4/CapSense_CSD_CSHL.c **** *
 593:.\Generated_Source\PSoC4/CapSense_CSD_CSHL.c **** * Return:
 594:.\Generated_Source\PSoC4/CapSense_CSD_CSHL.c **** *  None
 595:.\Generated_Source\PSoC4/CapSense_CSD_CSHL.c **** *
 596:.\Generated_Source\PSoC4/CapSense_CSD_CSHL.c **** * Global Variables:
 597:.\Generated_Source\PSoC4/CapSense_CSD_CSHL.c **** *  CapSense_CSD_sensorEnableMask[] - used to store the sensor scanning
ARM GAS  C:\Users\LUKASC~1\AppData\Local\Temp\ccrijgnB.s 			page 25


 598:.\Generated_Source\PSoC4/CapSense_CSD_CSHL.c **** *  state.
 599:.\Generated_Source\PSoC4/CapSense_CSD_CSHL.c **** *  CapSense_CSD_sensorEnableMask[0] contains the masked bits for sensors
 600:.\Generated_Source\PSoC4/CapSense_CSD_CSHL.c **** *   0 through 7 (sensor 0 is bit 0, sensor 1 is bit 1).
 601:.\Generated_Source\PSoC4/CapSense_CSD_CSHL.c **** *  CapSense_CSD_sensorEnableMask[1] contains the masked bits for
 602:.\Generated_Source\PSoC4/CapSense_CSD_CSHL.c **** *  sensors 8 through 15 (if needed), and so on.
 603:.\Generated_Source\PSoC4/CapSense_CSD_CSHL.c **** *  0 - sensor doesn't scan by CapSense_CSD_ScanEnabledWidgets().
 604:.\Generated_Source\PSoC4/CapSense_CSD_CSHL.c **** *  1 - sensor scans by CapSense_CSD_ScanEnabledWidgets().
 605:.\Generated_Source\PSoC4/CapSense_CSD_CSHL.c **** *
 606:.\Generated_Source\PSoC4/CapSense_CSD_CSHL.c **** * Side Effects:
 607:.\Generated_Source\PSoC4/CapSense_CSD_CSHL.c **** *  None
 608:.\Generated_Source\PSoC4/CapSense_CSD_CSHL.c **** *
 609:.\Generated_Source\PSoC4/CapSense_CSD_CSHL.c **** *******************************************************************************/
 610:.\Generated_Source\PSoC4/CapSense_CSD_CSHL.c ****  void CapSense_CSD_UpdateEnabledBaselines(void)
 611:.\Generated_Source\PSoC4/CapSense_CSD_CSHL.c **** {
 753              		.loc 1 611 0
 754              		.cfi_startproc
 755 0000 80B5     		push	{r7, lr}
 756              		.cfi_def_cfa_offset 8
 757              		.cfi_offset 7, -8
 758              		.cfi_offset 14, -4
 759 0002 82B0     		sub	sp, sp, #8
 760              		.cfi_def_cfa_offset 16
 761 0004 00AF     		add	r7, sp, #0
 762              		.cfi_def_cfa_register 7
 612:.\Generated_Source\PSoC4/CapSense_CSD_CSHL.c ****     uint32 i;
 613:.\Generated_Source\PSoC4/CapSense_CSD_CSHL.c ****     uint32 isSensorEnabled;
 614:.\Generated_Source\PSoC4/CapSense_CSD_CSHL.c **** 
 615:.\Generated_Source\PSoC4/CapSense_CSD_CSHL.c ****     for(i = 0u; i < CapSense_CSD_TOTAL_SENSOR_COUNT; i++)
 763              		.loc 1 615 0
 764 0006 0023     		mov	r3, #0
 765 0008 7B60     		str	r3, [r7, #4]
 766 000a 11E0     		b	.L34
 767              	.L36:
 616:.\Generated_Source\PSoC4/CapSense_CSD_CSHL.c ****     {
 617:.\Generated_Source\PSoC4/CapSense_CSD_CSHL.c ****         isSensorEnabled = CapSense_CSD_GetBitValue(CapSense_CSD_sensorEnableMask, i);
 768              		.loc 1 617 0
 769 000c 0B4A     		ldr	r2, .L37
 770 000e 7B68     		ldr	r3, [r7, #4]
 771 0010 101C     		mov	r0, r2
 772 0012 191C     		mov	r1, r3
 773 0014 FFF7FEFF 		bl	CapSense_CSD_GetBitValue
 774 0018 031C     		mov	r3, r0
 775 001a 3B60     		str	r3, [r7]
 618:.\Generated_Source\PSoC4/CapSense_CSD_CSHL.c **** 
 619:.\Generated_Source\PSoC4/CapSense_CSD_CSHL.c ****         if(0u != isSensorEnabled)
 776              		.loc 1 619 0
 777 001c 3B68     		ldr	r3, [r7]
 778 001e 002B     		cmp	r3, #0
 779 0020 03D0     		beq	.L35
 620:.\Generated_Source\PSoC4/CapSense_CSD_CSHL.c ****         {
 621:.\Generated_Source\PSoC4/CapSense_CSD_CSHL.c ****             CapSense_CSD_UpdateSensorBaseline(i);
 780              		.loc 1 621 0
 781 0022 7B68     		ldr	r3, [r7, #4]
 782 0024 181C     		mov	r0, r3
 783 0026 FFF7FEFF 		bl	CapSense_CSD_UpdateSensorBaseline
 784              	.L35:
 615:.\Generated_Source\PSoC4/CapSense_CSD_CSHL.c ****     {
ARM GAS  C:\Users\LUKASC~1\AppData\Local\Temp\ccrijgnB.s 			page 26


 785              		.loc 1 615 0 discriminator 2
 786 002a 7B68     		ldr	r3, [r7, #4]
 787 002c 0133     		add	r3, r3, #1
 788 002e 7B60     		str	r3, [r7, #4]
 789              	.L34:
 615:.\Generated_Source\PSoC4/CapSense_CSD_CSHL.c ****     {
 790              		.loc 1 615 0 is_stmt 0 discriminator 1
 791 0030 7B68     		ldr	r3, [r7, #4]
 792 0032 0C2B     		cmp	r3, #12
 793 0034 EAD9     		bls	.L36
 622:.\Generated_Source\PSoC4/CapSense_CSD_CSHL.c ****         }
 623:.\Generated_Source\PSoC4/CapSense_CSD_CSHL.c ****     }
 624:.\Generated_Source\PSoC4/CapSense_CSD_CSHL.c **** }
 794              		.loc 1 624 0 is_stmt 1
 795 0036 BD46     		mov	sp, r7
 796 0038 02B0     		add	sp, sp, #8
 797              		@ sp needed
 798 003a 80BD     		pop	{r7, pc}
 799              	.L38:
 800              		.align	2
 801              	.L37:
 802 003c 00000000 		.word	CapSense_CSD_sensorEnableMask
 803              		.cfi_endproc
 804              	.LFE40:
 805              		.size	CapSense_CSD_UpdateEnabledBaselines, .-CapSense_CSD_UpdateEnabledBaselines
 806              		.section	.text.CapSense_CSD_UpdateWidgetBaseline,"ax",%progbits
 807              		.align	2
 808              		.global	CapSense_CSD_UpdateWidgetBaseline
 809              		.code	16
 810              		.thumb_func
 811              		.type	CapSense_CSD_UpdateWidgetBaseline, %function
 812              	CapSense_CSD_UpdateWidgetBaseline:
 813              	.LFB41:
 625:.\Generated_Source\PSoC4/CapSense_CSD_CSHL.c **** 
 626:.\Generated_Source\PSoC4/CapSense_CSD_CSHL.c **** /*******************************************************************************
 627:.\Generated_Source\PSoC4/CapSense_CSD_CSHL.c **** * Function Name: CapSense_CSD_UpdateWidgetBaseline
 628:.\Generated_Source\PSoC4/CapSense_CSD_CSHL.c **** ********************************************************************************
 629:.\Generated_Source\PSoC4/CapSense_CSD_CSHL.c **** *
 630:.\Generated_Source\PSoC4/CapSense_CSD_CSHL.c **** * Summary:
 631:.\Generated_Source\PSoC4/CapSense_CSD_CSHL.c **** *  Checks CapSense_CSD_sensorEnableMask[] array and calls the
 632:.\Generated_Source\PSoC4/CapSense_CSD_CSHL.c **** *  CapSense_CSD_UpdateSensorBaseline function to update the baselines
 633:.\Generated_Source\PSoC4/CapSense_CSD_CSHL.c **** *  for the enabled sensors that belong to widget.
 634:.\Generated_Source\PSoC4/CapSense_CSD_CSHL.c **** *
 635:.\Generated_Source\PSoC4/CapSense_CSD_CSHL.c **** * Parameters:
 636:.\Generated_Source\PSoC4/CapSense_CSD_CSHL.c **** *  widget:  Widget number.
 637:.\Generated_Source\PSoC4/CapSense_CSD_CSHL.c **** *
 638:.\Generated_Source\PSoC4/CapSense_CSD_CSHL.c **** * Return:
 639:.\Generated_Source\PSoC4/CapSense_CSD_CSHL.c **** *  None
 640:.\Generated_Source\PSoC4/CapSense_CSD_CSHL.c **** *
 641:.\Generated_Source\PSoC4/CapSense_CSD_CSHL.c **** * Global Variables:
 642:.\Generated_Source\PSoC4/CapSense_CSD_CSHL.c **** *  CapSense_CSD_sensorEnableMask[] - used to store the sensor scanning
 643:.\Generated_Source\PSoC4/CapSense_CSD_CSHL.c **** *  state.
 644:.\Generated_Source\PSoC4/CapSense_CSD_CSHL.c **** *  CapSense_CSD_sensorEnableMask[0] contains the masked bits for sensors
 645:.\Generated_Source\PSoC4/CapSense_CSD_CSHL.c **** *   0 through 7 (sensor 0 is bit 0, sensor 1 is bit 1).
 646:.\Generated_Source\PSoC4/CapSense_CSD_CSHL.c **** *  CapSense_CSD_sensorEnableMask[1] contains the masked bits for
 647:.\Generated_Source\PSoC4/CapSense_CSD_CSHL.c **** *  sensors 8 through 15 (if needed), and so on.
 648:.\Generated_Source\PSoC4/CapSense_CSD_CSHL.c **** *  0 - sensor doesn't scan by CapSense_CSD_ScanEnabledWidgets().
ARM GAS  C:\Users\LUKASC~1\AppData\Local\Temp\ccrijgnB.s 			page 27


 649:.\Generated_Source\PSoC4/CapSense_CSD_CSHL.c **** *  1 - sensor scans by CapSense_CSD_ScanEnabledWidgets().
 650:.\Generated_Source\PSoC4/CapSense_CSD_CSHL.c **** *
 651:.\Generated_Source\PSoC4/CapSense_CSD_CSHL.c **** * Side Effects:
 652:.\Generated_Source\PSoC4/CapSense_CSD_CSHL.c **** *  None
 653:.\Generated_Source\PSoC4/CapSense_CSD_CSHL.c **** *
 654:.\Generated_Source\PSoC4/CapSense_CSD_CSHL.c **** *******************************************************************************/
 655:.\Generated_Source\PSoC4/CapSense_CSD_CSHL.c **** void CapSense_CSD_UpdateWidgetBaseline(uint32 widget)
 656:.\Generated_Source\PSoC4/CapSense_CSD_CSHL.c **** {
 814              		.loc 1 656 0
 815              		.cfi_startproc
 816 0000 80B5     		push	{r7, lr}
 817              		.cfi_def_cfa_offset 8
 818              		.cfi_offset 7, -8
 819              		.cfi_offset 14, -4
 820 0002 88B0     		sub	sp, sp, #32
 821              		.cfi_def_cfa_offset 40
 822 0004 00AF     		add	r7, sp, #0
 823              		.cfi_def_cfa_register 7
 824 0006 7860     		str	r0, [r7, #4]
 657:.\Generated_Source\PSoC4/CapSense_CSD_CSHL.c ****     uint32 sensorsPerWidget;
 658:.\Generated_Source\PSoC4/CapSense_CSD_CSHL.c ****     uint32 firstSensor;
 659:.\Generated_Source\PSoC4/CapSense_CSD_CSHL.c ****     uint32 lastSensor;
 660:.\Generated_Source\PSoC4/CapSense_CSD_CSHL.c ****     uint32 i;
 661:.\Generated_Source\PSoC4/CapSense_CSD_CSHL.c ****     uint32 isSensorEnabled;
 662:.\Generated_Source\PSoC4/CapSense_CSD_CSHL.c **** 
 663:.\Generated_Source\PSoC4/CapSense_CSD_CSHL.c ****     /* Get number of sensors in widget */
 664:.\Generated_Source\PSoC4/CapSense_CSD_CSHL.c ****     sensorsPerWidget = CapSense_CSD_numberOfSensors[widget];
 825              		.loc 1 664 0
 826 0008 164A     		ldr	r2, .L43
 827 000a 7B68     		ldr	r3, [r7, #4]
 828 000c D318     		add	r3, r2, r3
 829 000e 1B78     		ldrb	r3, [r3]
 830 0010 BB61     		str	r3, [r7, #24]
 665:.\Generated_Source\PSoC4/CapSense_CSD_CSHL.c **** 
 666:.\Generated_Source\PSoC4/CapSense_CSD_CSHL.c ****     /* Get first sensor in widget */
 667:.\Generated_Source\PSoC4/CapSense_CSD_CSHL.c ****     firstSensor = CapSense_CSD_rawDataIndex[widget];
 831              		.loc 1 667 0
 832 0012 154A     		ldr	r2, .L43+4
 833 0014 7B68     		ldr	r3, [r7, #4]
 834 0016 D318     		add	r3, r2, r3
 835 0018 1B78     		ldrb	r3, [r3]
 836 001a 7B61     		str	r3, [r7, #20]
 668:.\Generated_Source\PSoC4/CapSense_CSD_CSHL.c **** 
 669:.\Generated_Source\PSoC4/CapSense_CSD_CSHL.c ****     /* Get last sensor in widget */
 670:.\Generated_Source\PSoC4/CapSense_CSD_CSHL.c ****     lastSensor = (CapSense_CSD_rawDataIndex[widget] + sensorsPerWidget);
 837              		.loc 1 670 0
 838 001c 124A     		ldr	r2, .L43+4
 839 001e 7B68     		ldr	r3, [r7, #4]
 840 0020 D318     		add	r3, r2, r3
 841 0022 1B78     		ldrb	r3, [r3]
 842 0024 1A1C     		mov	r2, r3
 843 0026 BB69     		ldr	r3, [r7, #24]
 844 0028 D318     		add	r3, r2, r3
 845 002a 3B61     		str	r3, [r7, #16]
 671:.\Generated_Source\PSoC4/CapSense_CSD_CSHL.c **** 
 672:.\Generated_Source\PSoC4/CapSense_CSD_CSHL.c ****     for(i = firstSensor; i < lastSensor; i++)
 846              		.loc 1 672 0
ARM GAS  C:\Users\LUKASC~1\AppData\Local\Temp\ccrijgnB.s 			page 28


 847 002c 7B69     		ldr	r3, [r7, #20]
 848 002e FB61     		str	r3, [r7, #28]
 849 0030 11E0     		b	.L40
 850              	.L42:
 673:.\Generated_Source\PSoC4/CapSense_CSD_CSHL.c ****     {
 674:.\Generated_Source\PSoC4/CapSense_CSD_CSHL.c ****         isSensorEnabled = CapSense_CSD_GetBitValue(CapSense_CSD_sensorEnableMask, i);
 851              		.loc 1 674 0
 852 0032 0E4A     		ldr	r2, .L43+8
 853 0034 FB69     		ldr	r3, [r7, #28]
 854 0036 101C     		mov	r0, r2
 855 0038 191C     		mov	r1, r3
 856 003a FFF7FEFF 		bl	CapSense_CSD_GetBitValue
 857 003e 031C     		mov	r3, r0
 858 0040 FB60     		str	r3, [r7, #12]
 675:.\Generated_Source\PSoC4/CapSense_CSD_CSHL.c **** 
 676:.\Generated_Source\PSoC4/CapSense_CSD_CSHL.c ****         if(0u != isSensorEnabled)
 859              		.loc 1 676 0
 860 0042 FB68     		ldr	r3, [r7, #12]
 861 0044 002B     		cmp	r3, #0
 862 0046 03D0     		beq	.L41
 677:.\Generated_Source\PSoC4/CapSense_CSD_CSHL.c ****         {
 678:.\Generated_Source\PSoC4/CapSense_CSD_CSHL.c ****             CapSense_CSD_UpdateSensorBaseline(i);
 863              		.loc 1 678 0
 864 0048 FB69     		ldr	r3, [r7, #28]
 865 004a 181C     		mov	r0, r3
 866 004c FFF7FEFF 		bl	CapSense_CSD_UpdateSensorBaseline
 867              	.L41:
 672:.\Generated_Source\PSoC4/CapSense_CSD_CSHL.c ****     {
 868              		.loc 1 672 0 discriminator 2
 869 0050 FB69     		ldr	r3, [r7, #28]
 870 0052 0133     		add	r3, r3, #1
 871 0054 FB61     		str	r3, [r7, #28]
 872              	.L40:
 672:.\Generated_Source\PSoC4/CapSense_CSD_CSHL.c ****     {
 873              		.loc 1 672 0 is_stmt 0 discriminator 1
 874 0056 FA69     		ldr	r2, [r7, #28]
 875 0058 3B69     		ldr	r3, [r7, #16]
 876 005a 9A42     		cmp	r2, r3
 877 005c E9D3     		bcc	.L42
 679:.\Generated_Source\PSoC4/CapSense_CSD_CSHL.c ****         }
 680:.\Generated_Source\PSoC4/CapSense_CSD_CSHL.c ****     }
 681:.\Generated_Source\PSoC4/CapSense_CSD_CSHL.c **** }
 878              		.loc 1 681 0 is_stmt 1
 879 005e BD46     		mov	sp, r7
 880 0060 08B0     		add	sp, sp, #32
 881              		@ sp needed
 882 0062 80BD     		pop	{r7, pc}
 883              	.L44:
 884              		.align	2
 885              	.L43:
 886 0064 00000000 		.word	CapSense_CSD_numberOfSensors
 887 0068 00000000 		.word	CapSense_CSD_rawDataIndex
 888 006c 00000000 		.word	CapSense_CSD_sensorEnableMask
 889              		.cfi_endproc
 890              	.LFE41:
 891              		.size	CapSense_CSD_UpdateWidgetBaseline, .-CapSense_CSD_UpdateWidgetBaseline
 892              		.section	.text.CapSense_CSD_GetBaselineData,"ax",%progbits
ARM GAS  C:\Users\LUKASC~1\AppData\Local\Temp\ccrijgnB.s 			page 29


 893              		.align	2
 894              		.global	CapSense_CSD_GetBaselineData
 895              		.code	16
 896              		.thumb_func
 897              		.type	CapSense_CSD_GetBaselineData, %function
 898              	CapSense_CSD_GetBaselineData:
 899              	.LFB42:
 682:.\Generated_Source\PSoC4/CapSense_CSD_CSHL.c **** 
 683:.\Generated_Source\PSoC4/CapSense_CSD_CSHL.c **** 
 684:.\Generated_Source\PSoC4/CapSense_CSD_CSHL.c **** /*******************************************************************************
 685:.\Generated_Source\PSoC4/CapSense_CSD_CSHL.c **** * Function Name: CapSense_CSD_GetBaselineData
 686:.\Generated_Source\PSoC4/CapSense_CSD_CSHL.c **** ********************************************************************************
 687:.\Generated_Source\PSoC4/CapSense_CSD_CSHL.c **** *
 688:.\Generated_Source\PSoC4/CapSense_CSD_CSHL.c **** * Summary:
 689:.\Generated_Source\PSoC4/CapSense_CSD_CSHL.c **** *  This function reads the sensor baseline from the component.
 690:.\Generated_Source\PSoC4/CapSense_CSD_CSHL.c **** *
 691:.\Generated_Source\PSoC4/CapSense_CSD_CSHL.c **** * Parameters:
 692:.\Generated_Source\PSoC4/CapSense_CSD_CSHL.c **** *  sensor:  Sensor number.
 693:.\Generated_Source\PSoC4/CapSense_CSD_CSHL.c **** *
 694:.\Generated_Source\PSoC4/CapSense_CSD_CSHL.c **** * Return:
 695:.\Generated_Source\PSoC4/CapSense_CSD_CSHL.c **** *  This API returns the baseline value of the sensor indicated by an argument.
 696:.\Generated_Source\PSoC4/CapSense_CSD_CSHL.c **** *
 697:.\Generated_Source\PSoC4/CapSense_CSD_CSHL.c **** * Global Variables:
 698:.\Generated_Source\PSoC4/CapSense_CSD_CSHL.c **** *  CapSense_CSD_sensorBaseline[] - the array with an initial values by scanning
 699:.\Generated_Source\PSoC4/CapSense_CSD_CSHL.c **** *
 700:.\Generated_Source\PSoC4/CapSense_CSD_CSHL.c **** * Side Effects:
 701:.\Generated_Source\PSoC4/CapSense_CSD_CSHL.c **** *  None
 702:.\Generated_Source\PSoC4/CapSense_CSD_CSHL.c **** *
 703:.\Generated_Source\PSoC4/CapSense_CSD_CSHL.c **** *******************************************************************************/
 704:.\Generated_Source\PSoC4/CapSense_CSD_CSHL.c **** uint16 CapSense_CSD_GetBaselineData(uint32 sensor)
 705:.\Generated_Source\PSoC4/CapSense_CSD_CSHL.c **** {
 900              		.loc 1 705 0
 901              		.cfi_startproc
 902 0000 80B5     		push	{r7, lr}
 903              		.cfi_def_cfa_offset 8
 904              		.cfi_offset 7, -8
 905              		.cfi_offset 14, -4
 906 0002 82B0     		sub	sp, sp, #8
 907              		.cfi_def_cfa_offset 16
 908 0004 00AF     		add	r7, sp, #0
 909              		.cfi_def_cfa_register 7
 910 0006 7860     		str	r0, [r7, #4]
 706:.\Generated_Source\PSoC4/CapSense_CSD_CSHL.c ****     return (CapSense_CSD_sensorBaseline[sensor]);
 911              		.loc 1 706 0
 912 0008 034B     		ldr	r3, .L47
 913 000a 7A68     		ldr	r2, [r7, #4]
 914 000c 5200     		lsl	r2, r2, #1
 915 000e D35A     		ldrh	r3, [r2, r3]
 707:.\Generated_Source\PSoC4/CapSense_CSD_CSHL.c **** }
 916              		.loc 1 707 0
 917 0010 181C     		mov	r0, r3
 918 0012 BD46     		mov	sp, r7
 919 0014 02B0     		add	sp, sp, #8
 920              		@ sp needed
 921 0016 80BD     		pop	{r7, pc}
 922              	.L48:
 923              		.align	2
ARM GAS  C:\Users\LUKASC~1\AppData\Local\Temp\ccrijgnB.s 			page 30


 924              	.L47:
 925 0018 00000000 		.word	CapSense_CSD_sensorBaseline
 926              		.cfi_endproc
 927              	.LFE42:
 928              		.size	CapSense_CSD_GetBaselineData, .-CapSense_CSD_GetBaselineData
 929              		.section	.text.CapSense_CSD_SetBaselineData,"ax",%progbits
 930              		.align	2
 931              		.global	CapSense_CSD_SetBaselineData
 932              		.code	16
 933              		.thumb_func
 934              		.type	CapSense_CSD_SetBaselineData, %function
 935              	CapSense_CSD_SetBaselineData:
 936              	.LFB43:
 708:.\Generated_Source\PSoC4/CapSense_CSD_CSHL.c **** 
 709:.\Generated_Source\PSoC4/CapSense_CSD_CSHL.c **** 
 710:.\Generated_Source\PSoC4/CapSense_CSD_CSHL.c **** /*******************************************************************************
 711:.\Generated_Source\PSoC4/CapSense_CSD_CSHL.c **** * Function Name: CapSense_CSD_SetBaselineData
 712:.\Generated_Source\PSoC4/CapSense_CSD_CSHL.c **** ********************************************************************************
 713:.\Generated_Source\PSoC4/CapSense_CSD_CSHL.c **** *
 714:.\Generated_Source\PSoC4/CapSense_CSD_CSHL.c **** * Summary:
 715:.\Generated_Source\PSoC4/CapSense_CSD_CSHL.c **** *  This API writes the data value passed as an argument to the sensor baseline array.
 716:.\Generated_Source\PSoC4/CapSense_CSD_CSHL.c **** *
 717:.\Generated_Source\PSoC4/CapSense_CSD_CSHL.c **** * Parameters:
 718:.\Generated_Source\PSoC4/CapSense_CSD_CSHL.c **** *  sensor:  Sensor number.
 719:.\Generated_Source\PSoC4/CapSense_CSD_CSHL.c **** *  data:    Sensor baseline.
 720:.\Generated_Source\PSoC4/CapSense_CSD_CSHL.c **** *
 721:.\Generated_Source\PSoC4/CapSense_CSD_CSHL.c **** * Return:
 722:.\Generated_Source\PSoC4/CapSense_CSD_CSHL.c **** *  None.
 723:.\Generated_Source\PSoC4/CapSense_CSD_CSHL.c **** *
 724:.\Generated_Source\PSoC4/CapSense_CSD_CSHL.c **** * Global Variables:
 725:.\Generated_Source\PSoC4/CapSense_CSD_CSHL.c **** *  CapSense_CSD_sensorBaseline[] - the array with initial values by scanning
 726:.\Generated_Source\PSoC4/CapSense_CSD_CSHL.c **** *
 727:.\Generated_Source\PSoC4/CapSense_CSD_CSHL.c **** * Side Effects:
 728:.\Generated_Source\PSoC4/CapSense_CSD_CSHL.c **** *  None
 729:.\Generated_Source\PSoC4/CapSense_CSD_CSHL.c **** *
 730:.\Generated_Source\PSoC4/CapSense_CSD_CSHL.c **** *******************************************************************************/
 731:.\Generated_Source\PSoC4/CapSense_CSD_CSHL.c **** void CapSense_CSD_SetBaselineData(uint32 sensor, uint16 data)
 732:.\Generated_Source\PSoC4/CapSense_CSD_CSHL.c **** {
 937              		.loc 1 732 0
 938              		.cfi_startproc
 939 0000 80B5     		push	{r7, lr}
 940              		.cfi_def_cfa_offset 8
 941              		.cfi_offset 7, -8
 942              		.cfi_offset 14, -4
 943 0002 82B0     		sub	sp, sp, #8
 944              		.cfi_def_cfa_offset 16
 945 0004 00AF     		add	r7, sp, #0
 946              		.cfi_def_cfa_register 7
 947 0006 7860     		str	r0, [r7, #4]
 948 0008 0A1C     		mov	r2, r1
 949 000a BB1C     		add	r3, r7, #2
 950 000c 1A80     		strh	r2, [r3]
 733:.\Generated_Source\PSoC4/CapSense_CSD_CSHL.c ****     CapSense_CSD_sensorBaseline[sensor] = data;
 951              		.loc 1 733 0
 952 000e 044B     		ldr	r3, .L50
 953 0010 7A68     		ldr	r2, [r7, #4]
 954 0012 5200     		lsl	r2, r2, #1
ARM GAS  C:\Users\LUKASC~1\AppData\Local\Temp\ccrijgnB.s 			page 31


 955 0014 B91C     		add	r1, r7, #2
 956 0016 0988     		ldrh	r1, [r1]
 957 0018 D152     		strh	r1, [r2, r3]
 734:.\Generated_Source\PSoC4/CapSense_CSD_CSHL.c **** }
 958              		.loc 1 734 0
 959 001a BD46     		mov	sp, r7
 960 001c 02B0     		add	sp, sp, #8
 961              		@ sp needed
 962 001e 80BD     		pop	{r7, pc}
 963              	.L51:
 964              		.align	2
 965              	.L50:
 966 0020 00000000 		.word	CapSense_CSD_sensorBaseline
 967              		.cfi_endproc
 968              	.LFE43:
 969              		.size	CapSense_CSD_SetBaselineData, .-CapSense_CSD_SetBaselineData
 970              		.section	.text.CapSense_CSD_GetDiffCountData,"ax",%progbits
 971              		.align	2
 972              		.global	CapSense_CSD_GetDiffCountData
 973              		.code	16
 974              		.thumb_func
 975              		.type	CapSense_CSD_GetDiffCountData, %function
 976              	CapSense_CSD_GetDiffCountData:
 977              	.LFB44:
 735:.\Generated_Source\PSoC4/CapSense_CSD_CSHL.c **** 
 736:.\Generated_Source\PSoC4/CapSense_CSD_CSHL.c **** 
 737:.\Generated_Source\PSoC4/CapSense_CSD_CSHL.c **** /*******************************************************************************
 738:.\Generated_Source\PSoC4/CapSense_CSD_CSHL.c **** * Function Name: CapSense_CSD_GetDiffCountData
 739:.\Generated_Source\PSoC4/CapSense_CSD_CSHL.c **** ********************************************************************************
 740:.\Generated_Source\PSoC4/CapSense_CSD_CSHL.c **** *
 741:.\Generated_Source\PSoC4/CapSense_CSD_CSHL.c **** * Summary:
 742:.\Generated_Source\PSoC4/CapSense_CSD_CSHL.c **** *  This function returns the Sensor Signal from the component.
 743:.\Generated_Source\PSoC4/CapSense_CSD_CSHL.c **** *
 744:.\Generated_Source\PSoC4/CapSense_CSD_CSHL.c **** * Parameters:
 745:.\Generated_Source\PSoC4/CapSense_CSD_CSHL.c **** *  sensor:  Sensor number.
 746:.\Generated_Source\PSoC4/CapSense_CSD_CSHL.c **** *
 747:.\Generated_Source\PSoC4/CapSense_CSD_CSHL.c **** * Return:
 748:.\Generated_Source\PSoC4/CapSense_CSD_CSHL.c **** *  This API returns the difference count value of the sensor indicated by the
 749:.\Generated_Source\PSoC4/CapSense_CSD_CSHL.c **** *  argument.
 750:.\Generated_Source\PSoC4/CapSense_CSD_CSHL.c **** *
 751:.\Generated_Source\PSoC4/CapSense_CSD_CSHL.c **** * Global Variables:
 752:.\Generated_Source\PSoC4/CapSense_CSD_CSHL.c **** *  CapSense_CSD_sensorSignal[] - the array with difference counts for sensors
 753:.\Generated_Source\PSoC4/CapSense_CSD_CSHL.c **** *
 754:.\Generated_Source\PSoC4/CapSense_CSD_CSHL.c **** * Side Effects:
 755:.\Generated_Source\PSoC4/CapSense_CSD_CSHL.c **** *  None
 756:.\Generated_Source\PSoC4/CapSense_CSD_CSHL.c **** *
 757:.\Generated_Source\PSoC4/CapSense_CSD_CSHL.c **** *******************************************************************************/
 758:.\Generated_Source\PSoC4/CapSense_CSD_CSHL.c **** uint8 CapSense_CSD_GetDiffCountData(uint32 sensor)
 759:.\Generated_Source\PSoC4/CapSense_CSD_CSHL.c **** {
 978              		.loc 1 759 0
 979              		.cfi_startproc
 980 0000 80B5     		push	{r7, lr}
 981              		.cfi_def_cfa_offset 8
 982              		.cfi_offset 7, -8
 983              		.cfi_offset 14, -4
 984 0002 82B0     		sub	sp, sp, #8
 985              		.cfi_def_cfa_offset 16
ARM GAS  C:\Users\LUKASC~1\AppData\Local\Temp\ccrijgnB.s 			page 32


 986 0004 00AF     		add	r7, sp, #0
 987              		.cfi_def_cfa_register 7
 988 0006 7860     		str	r0, [r7, #4]
 760:.\Generated_Source\PSoC4/CapSense_CSD_CSHL.c ****     return (CapSense_CSD_sensorSignal[sensor]);
 989              		.loc 1 760 0
 990 0008 034A     		ldr	r2, .L54
 991 000a 7B68     		ldr	r3, [r7, #4]
 992 000c D318     		add	r3, r2, r3
 993 000e 1B78     		ldrb	r3, [r3]
 761:.\Generated_Source\PSoC4/CapSense_CSD_CSHL.c **** }
 994              		.loc 1 761 0
 995 0010 181C     		mov	r0, r3
 996 0012 BD46     		mov	sp, r7
 997 0014 02B0     		add	sp, sp, #8
 998              		@ sp needed
 999 0016 80BD     		pop	{r7, pc}
 1000              	.L55:
 1001              		.align	2
 1002              	.L54:
 1003 0018 00000000 		.word	CapSense_CSD_sensorSignal
 1004              		.cfi_endproc
 1005              	.LFE44:
 1006              		.size	CapSense_CSD_GetDiffCountData, .-CapSense_CSD_GetDiffCountData
 1007              		.section	.text.CapSense_CSD_SetDiffCountData,"ax",%progbits
 1008              		.align	2
 1009              		.global	CapSense_CSD_SetDiffCountData
 1010              		.code	16
 1011              		.thumb_func
 1012              		.type	CapSense_CSD_SetDiffCountData, %function
 1013              	CapSense_CSD_SetDiffCountData:
 1014              	.LFB45:
 762:.\Generated_Source\PSoC4/CapSense_CSD_CSHL.c **** 
 763:.\Generated_Source\PSoC4/CapSense_CSD_CSHL.c **** 
 764:.\Generated_Source\PSoC4/CapSense_CSD_CSHL.c **** /*******************************************************************************
 765:.\Generated_Source\PSoC4/CapSense_CSD_CSHL.c **** * Function Name: CapSense_CSD_SetDiffCountData
 766:.\Generated_Source\PSoC4/CapSense_CSD_CSHL.c **** ********************************************************************************
 767:.\Generated_Source\PSoC4/CapSense_CSD_CSHL.c **** *
 768:.\Generated_Source\PSoC4/CapSense_CSD_CSHL.c **** * Summary:
 769:.\Generated_Source\PSoC4/CapSense_CSD_CSHL.c **** *  This API writes the data value passed as an argument to the sensor signal array.
 770:.\Generated_Source\PSoC4/CapSense_CSD_CSHL.c **** *
 771:.\Generated_Source\PSoC4/CapSense_CSD_CSHL.c **** * Parameters:
 772:.\Generated_Source\PSoC4/CapSense_CSD_CSHL.c **** *  sensor:  Sensor number.
 773:.\Generated_Source\PSoC4/CapSense_CSD_CSHL.c **** *  value:   Sensor signal.
 774:.\Generated_Source\PSoC4/CapSense_CSD_CSHL.c **** *
 775:.\Generated_Source\PSoC4/CapSense_CSD_CSHL.c **** * Return:
 776:.\Generated_Source\PSoC4/CapSense_CSD_CSHL.c **** *  None.
 777:.\Generated_Source\PSoC4/CapSense_CSD_CSHL.c **** *
 778:.\Generated_Source\PSoC4/CapSense_CSD_CSHL.c **** * Global Variables:
 779:.\Generated_Source\PSoC4/CapSense_CSD_CSHL.c **** *  CapSense_CSD_sensorSignal[] - the array with difference counts for sensors
 780:.\Generated_Source\PSoC4/CapSense_CSD_CSHL.c **** *
 781:.\Generated_Source\PSoC4/CapSense_CSD_CSHL.c **** * Side Effects:
 782:.\Generated_Source\PSoC4/CapSense_CSD_CSHL.c **** *  None
 783:.\Generated_Source\PSoC4/CapSense_CSD_CSHL.c **** *
 784:.\Generated_Source\PSoC4/CapSense_CSD_CSHL.c **** *******************************************************************************/
 785:.\Generated_Source\PSoC4/CapSense_CSD_CSHL.c **** void CapSense_CSD_SetDiffCountData(uint32 sensor, uint8 value)
 786:.\Generated_Source\PSoC4/CapSense_CSD_CSHL.c **** {
 1015              		.loc 1 786 0
ARM GAS  C:\Users\LUKASC~1\AppData\Local\Temp\ccrijgnB.s 			page 33


 1016              		.cfi_startproc
 1017 0000 80B5     		push	{r7, lr}
 1018              		.cfi_def_cfa_offset 8
 1019              		.cfi_offset 7, -8
 1020              		.cfi_offset 14, -4
 1021 0002 82B0     		sub	sp, sp, #8
 1022              		.cfi_def_cfa_offset 16
 1023 0004 00AF     		add	r7, sp, #0
 1024              		.cfi_def_cfa_register 7
 1025 0006 7860     		str	r0, [r7, #4]
 1026 0008 0A1C     		mov	r2, r1
 1027 000a FB1C     		add	r3, r7, #3
 1028 000c 1A70     		strb	r2, [r3]
 787:.\Generated_Source\PSoC4/CapSense_CSD_CSHL.c ****     CapSense_CSD_sensorSignal[sensor] = value;
 1029              		.loc 1 787 0
 1030 000e 044A     		ldr	r2, .L57
 1031 0010 7B68     		ldr	r3, [r7, #4]
 1032 0012 D318     		add	r3, r2, r3
 1033 0014 FA1C     		add	r2, r7, #3
 1034 0016 1278     		ldrb	r2, [r2]
 1035 0018 1A70     		strb	r2, [r3]
 788:.\Generated_Source\PSoC4/CapSense_CSD_CSHL.c **** }
 1036              		.loc 1 788 0
 1037 001a BD46     		mov	sp, r7
 1038 001c 02B0     		add	sp, sp, #8
 1039              		@ sp needed
 1040 001e 80BD     		pop	{r7, pc}
 1041              	.L58:
 1042              		.align	2
 1043              	.L57:
 1044 0020 00000000 		.word	CapSense_CSD_sensorSignal
 1045              		.cfi_endproc
 1046              	.LFE45:
 1047              		.size	CapSense_CSD_SetDiffCountData, .-CapSense_CSD_SetDiffCountData
 1048              		.section	.text.CapSense_CSD_GetFingerThreshold,"ax",%progbits
 1049              		.align	2
 1050              		.global	CapSense_CSD_GetFingerThreshold
 1051              		.code	16
 1052              		.thumb_func
 1053              		.type	CapSense_CSD_GetFingerThreshold, %function
 1054              	CapSense_CSD_GetFingerThreshold:
 1055              	.LFB46:
 789:.\Generated_Source\PSoC4/CapSense_CSD_CSHL.c **** 
 790:.\Generated_Source\PSoC4/CapSense_CSD_CSHL.c **** 
 791:.\Generated_Source\PSoC4/CapSense_CSD_CSHL.c **** /*******************************************************************************
 792:.\Generated_Source\PSoC4/CapSense_CSD_CSHL.c **** * Function Name: CapSense_CSD_GetFingerThreshold
 793:.\Generated_Source\PSoC4/CapSense_CSD_CSHL.c **** ********************************************************************************
 794:.\Generated_Source\PSoC4/CapSense_CSD_CSHL.c **** *
 795:.\Generated_Source\PSoC4/CapSense_CSD_CSHL.c **** * Summary:
 796:.\Generated_Source\PSoC4/CapSense_CSD_CSHL.c **** *  This function reads the finger threshold from the component.
 797:.\Generated_Source\PSoC4/CapSense_CSD_CSHL.c **** *
 798:.\Generated_Source\PSoC4/CapSense_CSD_CSHL.c **** * Parameters:
 799:.\Generated_Source\PSoC4/CapSense_CSD_CSHL.c **** *  widget:  widget number.
 800:.\Generated_Source\PSoC4/CapSense_CSD_CSHL.c **** *
 801:.\Generated_Source\PSoC4/CapSense_CSD_CSHL.c **** * Return:
 802:.\Generated_Source\PSoC4/CapSense_CSD_CSHL.c **** *  This API returns the finger threshold of the widget indicated by the argument.
 803:.\Generated_Source\PSoC4/CapSense_CSD_CSHL.c **** *
ARM GAS  C:\Users\LUKASC~1\AppData\Local\Temp\ccrijgnB.s 			page 34


 804:.\Generated_Source\PSoC4/CapSense_CSD_CSHL.c **** * Global Variables:
 805:.\Generated_Source\PSoC4/CapSense_CSD_CSHL.c **** *  CapSense_CSD_fingerThreshold[] - This array contains the level of signal
 806:.\Generated_Source\PSoC4/CapSense_CSD_CSHL.c **** *  for each widget that is determined if a finger is present on the widget.
 807:.\Generated_Source\PSoC4/CapSense_CSD_CSHL.c **** *
 808:.\Generated_Source\PSoC4/CapSense_CSD_CSHL.c **** * Side Effects:
 809:.\Generated_Source\PSoC4/CapSense_CSD_CSHL.c **** *  None
 810:.\Generated_Source\PSoC4/CapSense_CSD_CSHL.c **** *
 811:.\Generated_Source\PSoC4/CapSense_CSD_CSHL.c **** *******************************************************************************/
 812:.\Generated_Source\PSoC4/CapSense_CSD_CSHL.c **** uint8 CapSense_CSD_GetFingerThreshold(uint32 widget)
 813:.\Generated_Source\PSoC4/CapSense_CSD_CSHL.c **** {
 1056              		.loc 1 813 0
 1057              		.cfi_startproc
 1058 0000 80B5     		push	{r7, lr}
 1059              		.cfi_def_cfa_offset 8
 1060              		.cfi_offset 7, -8
 1061              		.cfi_offset 14, -4
 1062 0002 82B0     		sub	sp, sp, #8
 1063              		.cfi_def_cfa_offset 16
 1064 0004 00AF     		add	r7, sp, #0
 1065              		.cfi_def_cfa_register 7
 1066 0006 7860     		str	r0, [r7, #4]
 814:.\Generated_Source\PSoC4/CapSense_CSD_CSHL.c ****     return(CapSense_CSD_fingerThreshold[widget]);
 1067              		.loc 1 814 0
 1068 0008 034A     		ldr	r2, .L61
 1069 000a 7B68     		ldr	r3, [r7, #4]
 1070 000c D318     		add	r3, r2, r3
 1071 000e 1B78     		ldrb	r3, [r3]
 815:.\Generated_Source\PSoC4/CapSense_CSD_CSHL.c **** }
 1072              		.loc 1 815 0
 1073 0010 181C     		mov	r0, r3
 1074 0012 BD46     		mov	sp, r7
 1075 0014 02B0     		add	sp, sp, #8
 1076              		@ sp needed
 1077 0016 80BD     		pop	{r7, pc}
 1078              	.L62:
 1079              		.align	2
 1080              	.L61:
 1081 0018 00000000 		.word	CapSense_CSD_fingerThreshold
 1082              		.cfi_endproc
 1083              	.LFE46:
 1084              		.size	CapSense_CSD_GetFingerThreshold, .-CapSense_CSD_GetFingerThreshold
 1085              		.section	.text.CapSense_CSD_GetNoiseThreshold,"ax",%progbits
 1086              		.align	2
 1087              		.global	CapSense_CSD_GetNoiseThreshold
 1088              		.code	16
 1089              		.thumb_func
 1090              		.type	CapSense_CSD_GetNoiseThreshold, %function
 1091              	CapSense_CSD_GetNoiseThreshold:
 1092              	.LFB47:
 816:.\Generated_Source\PSoC4/CapSense_CSD_CSHL.c **** 
 817:.\Generated_Source\PSoC4/CapSense_CSD_CSHL.c **** 
 818:.\Generated_Source\PSoC4/CapSense_CSD_CSHL.c **** /*******************************************************************************
 819:.\Generated_Source\PSoC4/CapSense_CSD_CSHL.c **** * Function Name: CapSense_CSD_GetNoiseThreshold
 820:.\Generated_Source\PSoC4/CapSense_CSD_CSHL.c **** ********************************************************************************
 821:.\Generated_Source\PSoC4/CapSense_CSD_CSHL.c **** *
 822:.\Generated_Source\PSoC4/CapSense_CSD_CSHL.c **** * Summary:
 823:.\Generated_Source\PSoC4/CapSense_CSD_CSHL.c **** *  This function reads the noise threshold from the component.
ARM GAS  C:\Users\LUKASC~1\AppData\Local\Temp\ccrijgnB.s 			page 35


 824:.\Generated_Source\PSoC4/CapSense_CSD_CSHL.c **** *
 825:.\Generated_Source\PSoC4/CapSense_CSD_CSHL.c **** * Parameters:
 826:.\Generated_Source\PSoC4/CapSense_CSD_CSHL.c **** *  widget:  widget number.
 827:.\Generated_Source\PSoC4/CapSense_CSD_CSHL.c **** *
 828:.\Generated_Source\PSoC4/CapSense_CSD_CSHL.c **** * Return:
 829:.\Generated_Source\PSoC4/CapSense_CSD_CSHL.c **** *  This API returns the noise threshold of the widget indicated by the argument.
 830:.\Generated_Source\PSoC4/CapSense_CSD_CSHL.c **** *
 831:.\Generated_Source\PSoC4/CapSense_CSD_CSHL.c **** * Global Variables:
 832:.\Generated_Source\PSoC4/CapSense_CSD_CSHL.c **** *  CapSense_CSD_noiseThreshold[] - This array contains the level of signal
 833:.\Generated_Source\PSoC4/CapSense_CSD_CSHL.c **** *  for each widget that determines the level of noise in the capacitive scan.
 834:.\Generated_Source\PSoC4/CapSense_CSD_CSHL.c **** *
 835:.\Generated_Source\PSoC4/CapSense_CSD_CSHL.c **** * Side Effects:
 836:.\Generated_Source\PSoC4/CapSense_CSD_CSHL.c **** *  None
 837:.\Generated_Source\PSoC4/CapSense_CSD_CSHL.c **** *
 838:.\Generated_Source\PSoC4/CapSense_CSD_CSHL.c **** *******************************************************************************/
 839:.\Generated_Source\PSoC4/CapSense_CSD_CSHL.c **** uint8 CapSense_CSD_GetNoiseThreshold(uint32 widget)
 840:.\Generated_Source\PSoC4/CapSense_CSD_CSHL.c **** {
 1093              		.loc 1 840 0
 1094              		.cfi_startproc
 1095 0000 80B5     		push	{r7, lr}
 1096              		.cfi_def_cfa_offset 8
 1097              		.cfi_offset 7, -8
 1098              		.cfi_offset 14, -4
 1099 0002 82B0     		sub	sp, sp, #8
 1100              		.cfi_def_cfa_offset 16
 1101 0004 00AF     		add	r7, sp, #0
 1102              		.cfi_def_cfa_register 7
 1103 0006 7860     		str	r0, [r7, #4]
 841:.\Generated_Source\PSoC4/CapSense_CSD_CSHL.c ****     return (CapSense_CSD_noiseThreshold[widget]);
 1104              		.loc 1 841 0
 1105 0008 034A     		ldr	r2, .L65
 1106 000a 7B68     		ldr	r3, [r7, #4]
 1107 000c D318     		add	r3, r2, r3
 1108 000e 1B78     		ldrb	r3, [r3]
 842:.\Generated_Source\PSoC4/CapSense_CSD_CSHL.c **** }
 1109              		.loc 1 842 0
 1110 0010 181C     		mov	r0, r3
 1111 0012 BD46     		mov	sp, r7
 1112 0014 02B0     		add	sp, sp, #8
 1113              		@ sp needed
 1114 0016 80BD     		pop	{r7, pc}
 1115              	.L66:
 1116              		.align	2
 1117              	.L65:
 1118 0018 00000000 		.word	CapSense_CSD_noiseThreshold
 1119              		.cfi_endproc
 1120              	.LFE47:
 1121              		.size	CapSense_CSD_GetNoiseThreshold, .-CapSense_CSD_GetNoiseThreshold
 1122              		.section	.text.CapSense_CSD_GetFingerHysteresis,"ax",%progbits
 1123              		.align	2
 1124              		.global	CapSense_CSD_GetFingerHysteresis
 1125              		.code	16
 1126              		.thumb_func
 1127              		.type	CapSense_CSD_GetFingerHysteresis, %function
 1128              	CapSense_CSD_GetFingerHysteresis:
 1129              	.LFB48:
 843:.\Generated_Source\PSoC4/CapSense_CSD_CSHL.c **** 
ARM GAS  C:\Users\LUKASC~1\AppData\Local\Temp\ccrijgnB.s 			page 36


 844:.\Generated_Source\PSoC4/CapSense_CSD_CSHL.c **** 
 845:.\Generated_Source\PSoC4/CapSense_CSD_CSHL.c **** /*******************************************************************************
 846:.\Generated_Source\PSoC4/CapSense_CSD_CSHL.c **** * Function Name: CapSense_CSD_GetFingerHysteresis
 847:.\Generated_Source\PSoC4/CapSense_CSD_CSHL.c **** ********************************************************************************
 848:.\Generated_Source\PSoC4/CapSense_CSD_CSHL.c **** *
 849:.\Generated_Source\PSoC4/CapSense_CSD_CSHL.c **** * Summary:
 850:.\Generated_Source\PSoC4/CapSense_CSD_CSHL.c **** *  This function reads the Hysteresis value from the component.
 851:.\Generated_Source\PSoC4/CapSense_CSD_CSHL.c **** *
 852:.\Generated_Source\PSoC4/CapSense_CSD_CSHL.c **** * Parameters:
 853:.\Generated_Source\PSoC4/CapSense_CSD_CSHL.c **** *  widget:  widget number.
 854:.\Generated_Source\PSoC4/CapSense_CSD_CSHL.c **** *
 855:.\Generated_Source\PSoC4/CapSense_CSD_CSHL.c **** * Return:
 856:.\Generated_Source\PSoC4/CapSense_CSD_CSHL.c **** *  This API returns the Hysteresis of the widget indicated by the argument.
 857:.\Generated_Source\PSoC4/CapSense_CSD_CSHL.c **** *
 858:.\Generated_Source\PSoC4/CapSense_CSD_CSHL.c **** * Global Variables:
 859:.\Generated_Source\PSoC4/CapSense_CSD_CSHL.c **** *  CapSense_CSD_hysteresis[] - This array contains the hysteresis value
 860:.\Generated_Source\PSoC4/CapSense_CSD_CSHL.c **** *   for each widget.
 861:.\Generated_Source\PSoC4/CapSense_CSD_CSHL.c **** *  CapSense_CSD_widgetNumberSld - structure with dynamic sliders' parameters.
 862:.\Generated_Source\PSoC4/CapSense_CSD_CSHL.c **** *
 863:.\Generated_Source\PSoC4/CapSense_CSD_CSHL.c **** * Side Effects:
 864:.\Generated_Source\PSoC4/CapSense_CSD_CSHL.c **** *  None
 865:.\Generated_Source\PSoC4/CapSense_CSD_CSHL.c **** *
 866:.\Generated_Source\PSoC4/CapSense_CSD_CSHL.c **** *******************************************************************************/
 867:.\Generated_Source\PSoC4/CapSense_CSD_CSHL.c **** uint8 CapSense_CSD_GetFingerHysteresis(uint32 widget)
 868:.\Generated_Source\PSoC4/CapSense_CSD_CSHL.c **** {
 1130              		.loc 1 868 0
 1131              		.cfi_startproc
 1132 0000 80B5     		push	{r7, lr}
 1133              		.cfi_def_cfa_offset 8
 1134              		.cfi_offset 7, -8
 1135              		.cfi_offset 14, -4
 1136 0002 82B0     		sub	sp, sp, #8
 1137              		.cfi_def_cfa_offset 16
 1138 0004 00AF     		add	r7, sp, #0
 1139              		.cfi_def_cfa_register 7
 1140 0006 7860     		str	r0, [r7, #4]
 869:.\Generated_Source\PSoC4/CapSense_CSD_CSHL.c ****     return(CapSense_CSD_hysteresis[widget]);
 1141              		.loc 1 869 0
 1142 0008 034A     		ldr	r2, .L69
 1143 000a 7B68     		ldr	r3, [r7, #4]
 1144 000c D318     		add	r3, r2, r3
 1145 000e 1B78     		ldrb	r3, [r3]
 870:.\Generated_Source\PSoC4/CapSense_CSD_CSHL.c **** }
 1146              		.loc 1 870 0
 1147 0010 181C     		mov	r0, r3
 1148 0012 BD46     		mov	sp, r7
 1149 0014 02B0     		add	sp, sp, #8
 1150              		@ sp needed
 1151 0016 80BD     		pop	{r7, pc}
 1152              	.L70:
 1153              		.align	2
 1154              	.L69:
 1155 0018 00000000 		.word	CapSense_CSD_hysteresis
 1156              		.cfi_endproc
 1157              	.LFE48:
 1158              		.size	CapSense_CSD_GetFingerHysteresis, .-CapSense_CSD_GetFingerHysteresis
 1159              		.section	.text.CapSense_CSD_GetNegativeNoiseThreshold,"ax",%progbits
ARM GAS  C:\Users\LUKASC~1\AppData\Local\Temp\ccrijgnB.s 			page 37


 1160              		.align	2
 1161              		.global	CapSense_CSD_GetNegativeNoiseThreshold
 1162              		.code	16
 1163              		.thumb_func
 1164              		.type	CapSense_CSD_GetNegativeNoiseThreshold, %function
 1165              	CapSense_CSD_GetNegativeNoiseThreshold:
 1166              	.LFB49:
 871:.\Generated_Source\PSoC4/CapSense_CSD_CSHL.c **** 
 872:.\Generated_Source\PSoC4/CapSense_CSD_CSHL.c **** 
 873:.\Generated_Source\PSoC4/CapSense_CSD_CSHL.c **** /*******************************************************************************
 874:.\Generated_Source\PSoC4/CapSense_CSD_CSHL.c **** * Function Name: CapSense_CSD_GetNegativeNoiseThreshold
 875:.\Generated_Source\PSoC4/CapSense_CSD_CSHL.c **** ********************************************************************************
 876:.\Generated_Source\PSoC4/CapSense_CSD_CSHL.c **** *
 877:.\Generated_Source\PSoC4/CapSense_CSD_CSHL.c **** * Summary:
 878:.\Generated_Source\PSoC4/CapSense_CSD_CSHL.c **** *  This function reads the negative noise threshold from the component.
 879:.\Generated_Source\PSoC4/CapSense_CSD_CSHL.c **** *
 880:.\Generated_Source\PSoC4/CapSense_CSD_CSHL.c **** * Parameters:
 881:.\Generated_Source\PSoC4/CapSense_CSD_CSHL.c **** *  None.
 882:.\Generated_Source\PSoC4/CapSense_CSD_CSHL.c **** *
 883:.\Generated_Source\PSoC4/CapSense_CSD_CSHL.c **** * Return Value:
 884:.\Generated_Source\PSoC4/CapSense_CSD_CSHL.c **** *  This API returns the negative noise threshold
 885:.\Generated_Source\PSoC4/CapSense_CSD_CSHL.c **** *
 886:.\Generated_Source\PSoC4/CapSense_CSD_CSHL.c **** * Global Variables:
 887:.\Generated_Source\PSoC4/CapSense_CSD_CSHL.c **** *  CapSense_CSD_negativeNoiseThreshold - This variable specifies the negative
 888:.\Generated_Source\PSoC4/CapSense_CSD_CSHL.c **** *   difference between the raw count and baseline levels for Baseline resetting
 889:.\Generated_Source\PSoC4/CapSense_CSD_CSHL.c **** *   to the raw count level.
 890:.\Generated_Source\PSoC4/CapSense_CSD_CSHL.c **** *
 891:.\Generated_Source\PSoC4/CapSense_CSD_CSHL.c **** * Side Effects:
 892:.\Generated_Source\PSoC4/CapSense_CSD_CSHL.c **** *  None
 893:.\Generated_Source\PSoC4/CapSense_CSD_CSHL.c **** *
 894:.\Generated_Source\PSoC4/CapSense_CSD_CSHL.c **** *******************************************************************************/
 895:.\Generated_Source\PSoC4/CapSense_CSD_CSHL.c **** uint8 CapSense_CSD_GetNegativeNoiseThreshold(uint32 widget)
 896:.\Generated_Source\PSoC4/CapSense_CSD_CSHL.c **** {
 1167              		.loc 1 896 0
 1168              		.cfi_startproc
 1169 0000 80B5     		push	{r7, lr}
 1170              		.cfi_def_cfa_offset 8
 1171              		.cfi_offset 7, -8
 1172              		.cfi_offset 14, -4
 1173 0002 82B0     		sub	sp, sp, #8
 1174              		.cfi_def_cfa_offset 16
 1175 0004 00AF     		add	r7, sp, #0
 1176              		.cfi_def_cfa_register 7
 1177 0006 7860     		str	r0, [r7, #4]
 897:.\Generated_Source\PSoC4/CapSense_CSD_CSHL.c **** #if (CapSense_CSD_TUNING_METHOD != CapSense_CSD__TUNING_NONE)
 898:.\Generated_Source\PSoC4/CapSense_CSD_CSHL.c ****     return(CapSense_CSD_negativeNoiseThreshold[widget]);
 1178              		.loc 1 898 0
 1179 0008 034A     		ldr	r2, .L73
 1180 000a 7B68     		ldr	r3, [r7, #4]
 1181 000c D318     		add	r3, r2, r3
 1182 000e 1B78     		ldrb	r3, [r3]
 899:.\Generated_Source\PSoC4/CapSense_CSD_CSHL.c **** #else
 900:.\Generated_Source\PSoC4/CapSense_CSD_CSHL.c ****     return(CapSense_CSD_NEGATIVE_NOISE_THRESHOLD);
 901:.\Generated_Source\PSoC4/CapSense_CSD_CSHL.c **** #endif /* (CapSense_CSD_TUNING_METHOD != CapSense_CSD__TUNING_NONE) */
 902:.\Generated_Source\PSoC4/CapSense_CSD_CSHL.c **** }
 1183              		.loc 1 902 0
 1184 0010 181C     		mov	r0, r3
ARM GAS  C:\Users\LUKASC~1\AppData\Local\Temp\ccrijgnB.s 			page 38


 1185 0012 BD46     		mov	sp, r7
 1186 0014 02B0     		add	sp, sp, #8
 1187              		@ sp needed
 1188 0016 80BD     		pop	{r7, pc}
 1189              	.L74:
 1190              		.align	2
 1191              	.L73:
 1192 0018 00000000 		.word	CapSense_CSD_negativeNoiseThreshold
 1193              		.cfi_endproc
 1194              	.LFE49:
 1195              		.size	CapSense_CSD_GetNegativeNoiseThreshold, .-CapSense_CSD_GetNegativeNoiseThreshold
 1196              		.section	.text.CapSense_CSD_SetFingerThreshold,"ax",%progbits
 1197              		.align	2
 1198              		.global	CapSense_CSD_SetFingerThreshold
 1199              		.code	16
 1200              		.thumb_func
 1201              		.type	CapSense_CSD_SetFingerThreshold, %function
 1202              	CapSense_CSD_SetFingerThreshold:
 1203              	.LFB50:
 903:.\Generated_Source\PSoC4/CapSense_CSD_CSHL.c **** 
 904:.\Generated_Source\PSoC4/CapSense_CSD_CSHL.c **** 
 905:.\Generated_Source\PSoC4/CapSense_CSD_CSHL.c **** #if(CapSense_CSD_TUNING_METHOD != CapSense_CSD__TUNING_NONE)
 906:.\Generated_Source\PSoC4/CapSense_CSD_CSHL.c ****     /*******************************************************************************
 907:.\Generated_Source\PSoC4/CapSense_CSD_CSHL.c ****     * Function Name: CapSense_CSD_SetFingerThreshold
 908:.\Generated_Source\PSoC4/CapSense_CSD_CSHL.c ****     ********************************************************************************
 909:.\Generated_Source\PSoC4/CapSense_CSD_CSHL.c ****     *
 910:.\Generated_Source\PSoC4/CapSense_CSD_CSHL.c ****     * Summary:
 911:.\Generated_Source\PSoC4/CapSense_CSD_CSHL.c ****     *  This API sets the finger threshold value for a widget.
 912:.\Generated_Source\PSoC4/CapSense_CSD_CSHL.c ****     *
 913:.\Generated_Source\PSoC4/CapSense_CSD_CSHL.c ****     * Parameters:
 914:.\Generated_Source\PSoC4/CapSense_CSD_CSHL.c ****     *  sensorNumber:  widget index.
 915:.\Generated_Source\PSoC4/CapSense_CSD_CSHL.c ****     *  value:  Finger threshold value for the widget.
 916:.\Generated_Source\PSoC4/CapSense_CSD_CSHL.c ****     *
 917:.\Generated_Source\PSoC4/CapSense_CSD_CSHL.c ****     * Return Value:
 918:.\Generated_Source\PSoC4/CapSense_CSD_CSHL.c ****     *  None
 919:.\Generated_Source\PSoC4/CapSense_CSD_CSHL.c ****     *
 920:.\Generated_Source\PSoC4/CapSense_CSD_CSHL.c ****     * Global Variables:
 921:.\Generated_Source\PSoC4/CapSense_CSD_CSHL.c ****     *  CapSense_CSD_fingerThreshold[] - This array contains the level of signal
 922:.\Generated_Source\PSoC4/CapSense_CSD_CSHL.c ****     *   for each widget that determines if a finger is present on the widget.
 923:.\Generated_Source\PSoC4/CapSense_CSD_CSHL.c ****     *
 924:.\Generated_Source\PSoC4/CapSense_CSD_CSHL.c ****     * Side Effects:
 925:.\Generated_Source\PSoC4/CapSense_CSD_CSHL.c ****     *  None
 926:.\Generated_Source\PSoC4/CapSense_CSD_CSHL.c ****     *
 927:.\Generated_Source\PSoC4/CapSense_CSD_CSHL.c ****     *******************************************************************************/
 928:.\Generated_Source\PSoC4/CapSense_CSD_CSHL.c ****     void CapSense_CSD_SetFingerThreshold(uint32 widget, uint8 value)
 929:.\Generated_Source\PSoC4/CapSense_CSD_CSHL.c ****     {
 1204              		.loc 1 929 0
 1205              		.cfi_startproc
 1206 0000 80B5     		push	{r7, lr}
 1207              		.cfi_def_cfa_offset 8
 1208              		.cfi_offset 7, -8
 1209              		.cfi_offset 14, -4
 1210 0002 82B0     		sub	sp, sp, #8
 1211              		.cfi_def_cfa_offset 16
 1212 0004 00AF     		add	r7, sp, #0
 1213              		.cfi_def_cfa_register 7
 1214 0006 7860     		str	r0, [r7, #4]
ARM GAS  C:\Users\LUKASC~1\AppData\Local\Temp\ccrijgnB.s 			page 39


 1215 0008 0A1C     		mov	r2, r1
 1216 000a FB1C     		add	r3, r7, #3
 1217 000c 1A70     		strb	r2, [r3]
 930:.\Generated_Source\PSoC4/CapSense_CSD_CSHL.c ****         CapSense_CSD_fingerThreshold[widget] = value;
 1218              		.loc 1 930 0
 1219 000e 044A     		ldr	r2, .L76
 1220 0010 7B68     		ldr	r3, [r7, #4]
 1221 0012 D318     		add	r3, r2, r3
 1222 0014 FA1C     		add	r2, r7, #3
 1223 0016 1278     		ldrb	r2, [r2]
 1224 0018 1A70     		strb	r2, [r3]
 931:.\Generated_Source\PSoC4/CapSense_CSD_CSHL.c ****     }
 1225              		.loc 1 931 0
 1226 001a BD46     		mov	sp, r7
 1227 001c 02B0     		add	sp, sp, #8
 1228              		@ sp needed
 1229 001e 80BD     		pop	{r7, pc}
 1230              	.L77:
 1231              		.align	2
 1232              	.L76:
 1233 0020 00000000 		.word	CapSense_CSD_fingerThreshold
 1234              		.cfi_endproc
 1235              	.LFE50:
 1236              		.size	CapSense_CSD_SetFingerThreshold, .-CapSense_CSD_SetFingerThreshold
 1237              		.section	.text.CapSense_CSD_SetNoiseThreshold,"ax",%progbits
 1238              		.align	2
 1239              		.global	CapSense_CSD_SetNoiseThreshold
 1240              		.code	16
 1241              		.thumb_func
 1242              		.type	CapSense_CSD_SetNoiseThreshold, %function
 1243              	CapSense_CSD_SetNoiseThreshold:
 1244              	.LFB51:
 932:.\Generated_Source\PSoC4/CapSense_CSD_CSHL.c **** 
 933:.\Generated_Source\PSoC4/CapSense_CSD_CSHL.c **** 
 934:.\Generated_Source\PSoC4/CapSense_CSD_CSHL.c ****     /*******************************************************************************
 935:.\Generated_Source\PSoC4/CapSense_CSD_CSHL.c ****     * Function Name: CapSense_CSD_SetNoiseThreshold
 936:.\Generated_Source\PSoC4/CapSense_CSD_CSHL.c ****     ********************************************************************************
 937:.\Generated_Source\PSoC4/CapSense_CSD_CSHL.c ****     *
 938:.\Generated_Source\PSoC4/CapSense_CSD_CSHL.c ****     * Summary:
 939:.\Generated_Source\PSoC4/CapSense_CSD_CSHL.c ****     *  This API sets the Noise Threshold value for each widget.
 940:.\Generated_Source\PSoC4/CapSense_CSD_CSHL.c ****     *
 941:.\Generated_Source\PSoC4/CapSense_CSD_CSHL.c ****     * Parameters:
 942:.\Generated_Source\PSoC4/CapSense_CSD_CSHL.c ****     *  widget:  Sensor index number.
 943:.\Generated_Source\PSoC4/CapSense_CSD_CSHL.c ****     *  value:   Noise Threshold value for widget.
 944:.\Generated_Source\PSoC4/CapSense_CSD_CSHL.c ****     *
 945:.\Generated_Source\PSoC4/CapSense_CSD_CSHL.c ****     * Return Value:
 946:.\Generated_Source\PSoC4/CapSense_CSD_CSHL.c ****     *  None
 947:.\Generated_Source\PSoC4/CapSense_CSD_CSHL.c ****     *
 948:.\Generated_Source\PSoC4/CapSense_CSD_CSHL.c ****     * Global Variables:
 949:.\Generated_Source\PSoC4/CapSense_CSD_CSHL.c ****     *  CapSense_CSD_noiseThreshold[] - This array contains the level of signal
 950:.\Generated_Source\PSoC4/CapSense_CSD_CSHL.c ****     *   for each widget that determines the level of noise in the capacitive scan.
 951:.\Generated_Source\PSoC4/CapSense_CSD_CSHL.c ****     *
 952:.\Generated_Source\PSoC4/CapSense_CSD_CSHL.c ****     * Side Effects:
 953:.\Generated_Source\PSoC4/CapSense_CSD_CSHL.c ****     *  None
 954:.\Generated_Source\PSoC4/CapSense_CSD_CSHL.c ****     *
 955:.\Generated_Source\PSoC4/CapSense_CSD_CSHL.c ****     *******************************************************************************/
 956:.\Generated_Source\PSoC4/CapSense_CSD_CSHL.c ****     void CapSense_CSD_SetNoiseThreshold(uint32 widget, uint8 value)
ARM GAS  C:\Users\LUKASC~1\AppData\Local\Temp\ccrijgnB.s 			page 40


 957:.\Generated_Source\PSoC4/CapSense_CSD_CSHL.c ****     {
 1245              		.loc 1 957 0
 1246              		.cfi_startproc
 1247 0000 80B5     		push	{r7, lr}
 1248              		.cfi_def_cfa_offset 8
 1249              		.cfi_offset 7, -8
 1250              		.cfi_offset 14, -4
 1251 0002 82B0     		sub	sp, sp, #8
 1252              		.cfi_def_cfa_offset 16
 1253 0004 00AF     		add	r7, sp, #0
 1254              		.cfi_def_cfa_register 7
 1255 0006 7860     		str	r0, [r7, #4]
 1256 0008 0A1C     		mov	r2, r1
 1257 000a FB1C     		add	r3, r7, #3
 1258 000c 1A70     		strb	r2, [r3]
 958:.\Generated_Source\PSoC4/CapSense_CSD_CSHL.c ****         CapSense_CSD_noiseThreshold[widget] = value;
 1259              		.loc 1 958 0
 1260 000e 044A     		ldr	r2, .L79
 1261 0010 7B68     		ldr	r3, [r7, #4]
 1262 0012 D318     		add	r3, r2, r3
 1263 0014 FA1C     		add	r2, r7, #3
 1264 0016 1278     		ldrb	r2, [r2]
 1265 0018 1A70     		strb	r2, [r3]
 959:.\Generated_Source\PSoC4/CapSense_CSD_CSHL.c ****     }
 1266              		.loc 1 959 0
 1267 001a BD46     		mov	sp, r7
 1268 001c 02B0     		add	sp, sp, #8
 1269              		@ sp needed
 1270 001e 80BD     		pop	{r7, pc}
 1271              	.L80:
 1272              		.align	2
 1273              	.L79:
 1274 0020 00000000 		.word	CapSense_CSD_noiseThreshold
 1275              		.cfi_endproc
 1276              	.LFE51:
 1277              		.size	CapSense_CSD_SetNoiseThreshold, .-CapSense_CSD_SetNoiseThreshold
 1278              		.section	.text.CapSense_CSD_SetFingerHysteresis,"ax",%progbits
 1279              		.align	2
 1280              		.global	CapSense_CSD_SetFingerHysteresis
 1281              		.code	16
 1282              		.thumb_func
 1283              		.type	CapSense_CSD_SetFingerHysteresis, %function
 1284              	CapSense_CSD_SetFingerHysteresis:
 1285              	.LFB52:
 960:.\Generated_Source\PSoC4/CapSense_CSD_CSHL.c **** 
 961:.\Generated_Source\PSoC4/CapSense_CSD_CSHL.c **** 
 962:.\Generated_Source\PSoC4/CapSense_CSD_CSHL.c ****     /*******************************************************************************
 963:.\Generated_Source\PSoC4/CapSense_CSD_CSHL.c ****     * Function Name: CapSense_CSD_SetFingerHysteresis
 964:.\Generated_Source\PSoC4/CapSense_CSD_CSHL.c ****     ********************************************************************************
 965:.\Generated_Source\PSoC4/CapSense_CSD_CSHL.c ****     *
 966:.\Generated_Source\PSoC4/CapSense_CSD_CSHL.c ****     * Summary:
 967:.\Generated_Source\PSoC4/CapSense_CSD_CSHL.c ****     *  This API sets the Hysteresis value of a widget
 968:.\Generated_Source\PSoC4/CapSense_CSD_CSHL.c ****     *
 969:.\Generated_Source\PSoC4/CapSense_CSD_CSHL.c ****     * Parameters:
 970:.\Generated_Source\PSoC4/CapSense_CSD_CSHL.c ****     *  value:  Hysteresis value for widgets.
 971:.\Generated_Source\PSoC4/CapSense_CSD_CSHL.c ****     *  widget:  widget number
 972:.\Generated_Source\PSoC4/CapSense_CSD_CSHL.c ****     *
ARM GAS  C:\Users\LUKASC~1\AppData\Local\Temp\ccrijgnB.s 			page 41


 973:.\Generated_Source\PSoC4/CapSense_CSD_CSHL.c ****     * Return Value:
 974:.\Generated_Source\PSoC4/CapSense_CSD_CSHL.c ****     *  None
 975:.\Generated_Source\PSoC4/CapSense_CSD_CSHL.c ****     *
 976:.\Generated_Source\PSoC4/CapSense_CSD_CSHL.c ****     * Global Variables:
 977:.\Generated_Source\PSoC4/CapSense_CSD_CSHL.c ****     *  CapSense_CSD_hysteresis[] - This array contains the hysteresis value for each widget.
 978:.\Generated_Source\PSoC4/CapSense_CSD_CSHL.c ****     *  CapSense_CSD_widgetNumberSld - structure with dynamic sliders' parameters.
 979:.\Generated_Source\PSoC4/CapSense_CSD_CSHL.c ****     *
 980:.\Generated_Source\PSoC4/CapSense_CSD_CSHL.c ****     * Side Effects:
 981:.\Generated_Source\PSoC4/CapSense_CSD_CSHL.c ****     *  None
 982:.\Generated_Source\PSoC4/CapSense_CSD_CSHL.c ****     *
 983:.\Generated_Source\PSoC4/CapSense_CSD_CSHL.c ****     *******************************************************************************/
 984:.\Generated_Source\PSoC4/CapSense_CSD_CSHL.c ****     void CapSense_CSD_SetFingerHysteresis(uint32 widget, uint8 value)
 985:.\Generated_Source\PSoC4/CapSense_CSD_CSHL.c ****     {
 1286              		.loc 1 985 0
 1287              		.cfi_startproc
 1288 0000 80B5     		push	{r7, lr}
 1289              		.cfi_def_cfa_offset 8
 1290              		.cfi_offset 7, -8
 1291              		.cfi_offset 14, -4
 1292 0002 82B0     		sub	sp, sp, #8
 1293              		.cfi_def_cfa_offset 16
 1294 0004 00AF     		add	r7, sp, #0
 1295              		.cfi_def_cfa_register 7
 1296 0006 7860     		str	r0, [r7, #4]
 1297 0008 0A1C     		mov	r2, r1
 1298 000a FB1C     		add	r3, r7, #3
 1299 000c 1A70     		strb	r2, [r3]
 986:.\Generated_Source\PSoC4/CapSense_CSD_CSHL.c ****         CapSense_CSD_hysteresis[widget] = value;
 1300              		.loc 1 986 0
 1301 000e 044A     		ldr	r2, .L82
 1302 0010 7B68     		ldr	r3, [r7, #4]
 1303 0012 D318     		add	r3, r2, r3
 1304 0014 FA1C     		add	r2, r7, #3
 1305 0016 1278     		ldrb	r2, [r2]
 1306 0018 1A70     		strb	r2, [r3]
 987:.\Generated_Source\PSoC4/CapSense_CSD_CSHL.c ****     }
 1307              		.loc 1 987 0
 1308 001a BD46     		mov	sp, r7
 1309 001c 02B0     		add	sp, sp, #8
 1310              		@ sp needed
 1311 001e 80BD     		pop	{r7, pc}
 1312              	.L83:
 1313              		.align	2
 1314              	.L82:
 1315 0020 00000000 		.word	CapSense_CSD_hysteresis
 1316              		.cfi_endproc
 1317              	.LFE52:
 1318              		.size	CapSense_CSD_SetFingerHysteresis, .-CapSense_CSD_SetFingerHysteresis
 1319              		.section	.text.CapSense_CSD_SetNegativeNoiseThreshold,"ax",%progbits
 1320              		.align	2
 1321              		.global	CapSense_CSD_SetNegativeNoiseThreshold
 1322              		.code	16
 1323              		.thumb_func
 1324              		.type	CapSense_CSD_SetNegativeNoiseThreshold, %function
 1325              	CapSense_CSD_SetNegativeNoiseThreshold:
 1326              	.LFB53:
 988:.\Generated_Source\PSoC4/CapSense_CSD_CSHL.c **** 
ARM GAS  C:\Users\LUKASC~1\AppData\Local\Temp\ccrijgnB.s 			page 42


 989:.\Generated_Source\PSoC4/CapSense_CSD_CSHL.c **** 
 990:.\Generated_Source\PSoC4/CapSense_CSD_CSHL.c ****     /*******************************************************************************
 991:.\Generated_Source\PSoC4/CapSense_CSD_CSHL.c ****     * Function Name: CapSense_CSD_SetNegativeNoiseThreshold
 992:.\Generated_Source\PSoC4/CapSense_CSD_CSHL.c ****     ********************************************************************************
 993:.\Generated_Source\PSoC4/CapSense_CSD_CSHL.c ****     *
 994:.\Generated_Source\PSoC4/CapSense_CSD_CSHL.c ****     * Summary:
 995:.\Generated_Source\PSoC4/CapSense_CSD_CSHL.c ****     *  This API sets the Negative Noise Threshold value of a widget
 996:.\Generated_Source\PSoC4/CapSense_CSD_CSHL.c ****     *
 997:.\Generated_Source\PSoC4/CapSense_CSD_CSHL.c ****     * Parameters:
 998:.\Generated_Source\PSoC4/CapSense_CSD_CSHL.c ****     *  value:  Negative Noise Threshold value for widgets.
 999:.\Generated_Source\PSoC4/CapSense_CSD_CSHL.c ****     *  widget: widget number
1000:.\Generated_Source\PSoC4/CapSense_CSD_CSHL.c ****     *
1001:.\Generated_Source\PSoC4/CapSense_CSD_CSHL.c ****     * Return Value:
1002:.\Generated_Source\PSoC4/CapSense_CSD_CSHL.c ****     *  None
1003:.\Generated_Source\PSoC4/CapSense_CSD_CSHL.c ****     *
1004:.\Generated_Source\PSoC4/CapSense_CSD_CSHL.c ****     * Global Variables:
1005:.\Generated_Source\PSoC4/CapSense_CSD_CSHL.c ****     *  CapSense_CSD_negativeNoiseThreshold  - This parameter specifies the negative
1006:.\Generated_Source\PSoC4/CapSense_CSD_CSHL.c ****     *   difference between the raw count and baseline levels for Baseline resetting to
1007:.\Generated_Source\PSoC4/CapSense_CSD_CSHL.c ****     *   the raw count level.
1008:.\Generated_Source\PSoC4/CapSense_CSD_CSHL.c ****     *
1009:.\Generated_Source\PSoC4/CapSense_CSD_CSHL.c ****     * Side Effects:
1010:.\Generated_Source\PSoC4/CapSense_CSD_CSHL.c ****     *  None
1011:.\Generated_Source\PSoC4/CapSense_CSD_CSHL.c ****     *
1012:.\Generated_Source\PSoC4/CapSense_CSD_CSHL.c ****     *******************************************************************************/
1013:.\Generated_Source\PSoC4/CapSense_CSD_CSHL.c ****     void CapSense_CSD_SetNegativeNoiseThreshold(uint32 widget, uint8 value)
1014:.\Generated_Source\PSoC4/CapSense_CSD_CSHL.c ****     {
 1327              		.loc 1 1014 0
 1328              		.cfi_startproc
 1329 0000 80B5     		push	{r7, lr}
 1330              		.cfi_def_cfa_offset 8
 1331              		.cfi_offset 7, -8
 1332              		.cfi_offset 14, -4
 1333 0002 82B0     		sub	sp, sp, #8
 1334              		.cfi_def_cfa_offset 16
 1335 0004 00AF     		add	r7, sp, #0
 1336              		.cfi_def_cfa_register 7
 1337 0006 7860     		str	r0, [r7, #4]
 1338 0008 0A1C     		mov	r2, r1
 1339 000a FB1C     		add	r3, r7, #3
 1340 000c 1A70     		strb	r2, [r3]
1015:.\Generated_Source\PSoC4/CapSense_CSD_CSHL.c ****         CapSense_CSD_negativeNoiseThreshold[widget] = value;
 1341              		.loc 1 1015 0
 1342 000e 044A     		ldr	r2, .L85
 1343 0010 7B68     		ldr	r3, [r7, #4]
 1344 0012 D318     		add	r3, r2, r3
 1345 0014 FA1C     		add	r2, r7, #3
 1346 0016 1278     		ldrb	r2, [r2]
 1347 0018 1A70     		strb	r2, [r3]
1016:.\Generated_Source\PSoC4/CapSense_CSD_CSHL.c ****     }
 1348              		.loc 1 1016 0
 1349 001a BD46     		mov	sp, r7
 1350 001c 02B0     		add	sp, sp, #8
 1351              		@ sp needed
 1352 001e 80BD     		pop	{r7, pc}
 1353              	.L86:
 1354              		.align	2
 1355              	.L85:
ARM GAS  C:\Users\LUKASC~1\AppData\Local\Temp\ccrijgnB.s 			page 43


 1356 0020 00000000 		.word	CapSense_CSD_negativeNoiseThreshold
 1357              		.cfi_endproc
 1358              	.LFE53:
 1359              		.size	CapSense_CSD_SetNegativeNoiseThreshold, .-CapSense_CSD_SetNegativeNoiseThreshold
 1360              		.section	.text.CapSense_CSD_SetDebounce,"ax",%progbits
 1361              		.align	2
 1362              		.global	CapSense_CSD_SetDebounce
 1363              		.code	16
 1364              		.thumb_func
 1365              		.type	CapSense_CSD_SetDebounce, %function
 1366              	CapSense_CSD_SetDebounce:
 1367              	.LFB54:
1017:.\Generated_Source\PSoC4/CapSense_CSD_CSHL.c **** 
1018:.\Generated_Source\PSoC4/CapSense_CSD_CSHL.c **** 
1019:.\Generated_Source\PSoC4/CapSense_CSD_CSHL.c ****     /*******************************************************************************
1020:.\Generated_Source\PSoC4/CapSense_CSD_CSHL.c ****     * Function Name: CapSense_CSD_SetDebounce
1021:.\Generated_Source\PSoC4/CapSense_CSD_CSHL.c ****     ********************************************************************************
1022:.\Generated_Source\PSoC4/CapSense_CSD_CSHL.c ****     *
1023:.\Generated_Source\PSoC4/CapSense_CSD_CSHL.c ****     * Summary:
1024:.\Generated_Source\PSoC4/CapSense_CSD_CSHL.c ****     *  This API sets the debounce value for a widget.
1025:.\Generated_Source\PSoC4/CapSense_CSD_CSHL.c ****     *
1026:.\Generated_Source\PSoC4/CapSense_CSD_CSHL.c ****     * Parameters:
1027:.\Generated_Source\PSoC4/CapSense_CSD_CSHL.c ****     *  value:  Debounce value for widget.
1028:.\Generated_Source\PSoC4/CapSense_CSD_CSHL.c ****     *  widget: widget index.
1029:.\Generated_Source\PSoC4/CapSense_CSD_CSHL.c ****     *
1030:.\Generated_Source\PSoC4/CapSense_CSD_CSHL.c ****     * Return Value:
1031:.\Generated_Source\PSoC4/CapSense_CSD_CSHL.c ****     *  None
1032:.\Generated_Source\PSoC4/CapSense_CSD_CSHL.c ****     *
1033:.\Generated_Source\PSoC4/CapSense_CSD_CSHL.c ****     * Global Variables:
1034:.\Generated_Source\PSoC4/CapSense_CSD_CSHL.c ****     *  CapSense_CSD_debounce[] - This array contains the debounce value for each widget.
1035:.\Generated_Source\PSoC4/CapSense_CSD_CSHL.c ****     *  CapSense_CSD_widgetNumberSld - structure with dynamic sliders' parameters.
1036:.\Generated_Source\PSoC4/CapSense_CSD_CSHL.c ****     *
1037:.\Generated_Source\PSoC4/CapSense_CSD_CSHL.c ****     * Side Effects:
1038:.\Generated_Source\PSoC4/CapSense_CSD_CSHL.c ****     *  None
1039:.\Generated_Source\PSoC4/CapSense_CSD_CSHL.c ****     *
1040:.\Generated_Source\PSoC4/CapSense_CSD_CSHL.c ****     *******************************************************************************/
1041:.\Generated_Source\PSoC4/CapSense_CSD_CSHL.c ****     void CapSense_CSD_SetDebounce(uint32 widget, uint8 value)
1042:.\Generated_Source\PSoC4/CapSense_CSD_CSHL.c ****     {
 1368              		.loc 1 1042 0
 1369              		.cfi_startproc
 1370 0000 80B5     		push	{r7, lr}
 1371              		.cfi_def_cfa_offset 8
 1372              		.cfi_offset 7, -8
 1373              		.cfi_offset 14, -4
 1374 0002 82B0     		sub	sp, sp, #8
 1375              		.cfi_def_cfa_offset 16
 1376 0004 00AF     		add	r7, sp, #0
 1377              		.cfi_def_cfa_register 7
 1378 0006 7860     		str	r0, [r7, #4]
 1379 0008 0A1C     		mov	r2, r1
 1380 000a FB1C     		add	r3, r7, #3
 1381 000c 1A70     		strb	r2, [r3]
1043:.\Generated_Source\PSoC4/CapSense_CSD_CSHL.c ****         CapSense_CSD_debounce[widget] = value;
 1382              		.loc 1 1043 0
 1383 000e 044A     		ldr	r2, .L88
 1384 0010 7B68     		ldr	r3, [r7, #4]
 1385 0012 D318     		add	r3, r2, r3
ARM GAS  C:\Users\LUKASC~1\AppData\Local\Temp\ccrijgnB.s 			page 44


 1386 0014 FA1C     		add	r2, r7, #3
 1387 0016 1278     		ldrb	r2, [r2]
 1388 0018 1A70     		strb	r2, [r3]
1044:.\Generated_Source\PSoC4/CapSense_CSD_CSHL.c ****     }
 1389              		.loc 1 1044 0
 1390 001a BD46     		mov	sp, r7
 1391 001c 02B0     		add	sp, sp, #8
 1392              		@ sp needed
 1393 001e 80BD     		pop	{r7, pc}
 1394              	.L89:
 1395              		.align	2
 1396              	.L88:
 1397 0020 00000000 		.word	CapSense_CSD_debounce
 1398              		.cfi_endproc
 1399              	.LFE54:
 1400              		.size	CapSense_CSD_SetDebounce, .-CapSense_CSD_SetDebounce
 1401              		.section	.text.CapSense_CSD_SetLowBaselineReset,"ax",%progbits
 1402              		.align	2
 1403              		.global	CapSense_CSD_SetLowBaselineReset
 1404              		.code	16
 1405              		.thumb_func
 1406              		.type	CapSense_CSD_SetLowBaselineReset, %function
 1407              	CapSense_CSD_SetLowBaselineReset:
 1408              	.LFB55:
1045:.\Generated_Source\PSoC4/CapSense_CSD_CSHL.c **** 
1046:.\Generated_Source\PSoC4/CapSense_CSD_CSHL.c **** 
1047:.\Generated_Source\PSoC4/CapSense_CSD_CSHL.c ****     /*******************************************************************************
1048:.\Generated_Source\PSoC4/CapSense_CSD_CSHL.c ****     * Function Name: CapSense_CSD_SetLowBaselineReset
1049:.\Generated_Source\PSoC4/CapSense_CSD_CSHL.c ****     ********************************************************************************
1050:.\Generated_Source\PSoC4/CapSense_CSD_CSHL.c ****     *
1051:.\Generated_Source\PSoC4/CapSense_CSD_CSHL.c ****     * Summary:
1052:.\Generated_Source\PSoC4/CapSense_CSD_CSHL.c ****     *  This API sets the low baseline reset threshold value for the sensor.
1053:.\Generated_Source\PSoC4/CapSense_CSD_CSHL.c ****     *
1054:.\Generated_Source\PSoC4/CapSense_CSD_CSHL.c ****     * Parameters:
1055:.\Generated_Source\PSoC4/CapSense_CSD_CSHL.c ****     *  value: low baseline reset threshold value.
1056:.\Generated_Source\PSoC4/CapSense_CSD_CSHL.c ****     *  sensor: Sensor index.
1057:.\Generated_Source\PSoC4/CapSense_CSD_CSHL.c ****     *
1058:.\Generated_Source\PSoC4/CapSense_CSD_CSHL.c ****     * Return Value:
1059:.\Generated_Source\PSoC4/CapSense_CSD_CSHL.c ****     *  None
1060:.\Generated_Source\PSoC4/CapSense_CSD_CSHL.c ****     *
1061:.\Generated_Source\PSoC4/CapSense_CSD_CSHL.c ****     * Global Variables:
1062:.\Generated_Source\PSoC4/CapSense_CSD_CSHL.c ****     *  CapSense_CSD_lowBaselineReset[] - This array contains the Baseline update
1063:.\Generated_Source\PSoC4/CapSense_CSD_CSHL.c ****     *  threshold value for each sensor.
1064:.\Generated_Source\PSoC4/CapSense_CSD_CSHL.c ****     *
1065:.\Generated_Source\PSoC4/CapSense_CSD_CSHL.c ****     * Side Effects:
1066:.\Generated_Source\PSoC4/CapSense_CSD_CSHL.c ****     *  None
1067:.\Generated_Source\PSoC4/CapSense_CSD_CSHL.c ****     *
1068:.\Generated_Source\PSoC4/CapSense_CSD_CSHL.c ****     *******************************************************************************/
1069:.\Generated_Source\PSoC4/CapSense_CSD_CSHL.c ****     void CapSense_CSD_SetLowBaselineReset(uint32 sensor, uint8 value)
1070:.\Generated_Source\PSoC4/CapSense_CSD_CSHL.c ****     {
 1409              		.loc 1 1070 0
 1410              		.cfi_startproc
 1411 0000 80B5     		push	{r7, lr}
 1412              		.cfi_def_cfa_offset 8
 1413              		.cfi_offset 7, -8
 1414              		.cfi_offset 14, -4
 1415 0002 82B0     		sub	sp, sp, #8
ARM GAS  C:\Users\LUKASC~1\AppData\Local\Temp\ccrijgnB.s 			page 45


 1416              		.cfi_def_cfa_offset 16
 1417 0004 00AF     		add	r7, sp, #0
 1418              		.cfi_def_cfa_register 7
 1419 0006 7860     		str	r0, [r7, #4]
 1420 0008 0A1C     		mov	r2, r1
 1421 000a FB1C     		add	r3, r7, #3
 1422 000c 1A70     		strb	r2, [r3]
1071:.\Generated_Source\PSoC4/CapSense_CSD_CSHL.c ****         CapSense_CSD_lowBaselineReset[sensor] = value;
 1423              		.loc 1 1071 0
 1424 000e 044A     		ldr	r2, .L91
 1425 0010 7B68     		ldr	r3, [r7, #4]
 1426 0012 D318     		add	r3, r2, r3
 1427 0014 FA1C     		add	r2, r7, #3
 1428 0016 1278     		ldrb	r2, [r2]
 1429 0018 1A70     		strb	r2, [r3]
1072:.\Generated_Source\PSoC4/CapSense_CSD_CSHL.c ****     }
 1430              		.loc 1 1072 0
 1431 001a BD46     		mov	sp, r7
 1432 001c 02B0     		add	sp, sp, #8
 1433              		@ sp needed
 1434 001e 80BD     		pop	{r7, pc}
 1435              	.L92:
 1436              		.align	2
 1437              	.L91:
 1438 0020 00000000 		.word	CapSense_CSD_lowBaselineReset
 1439              		.cfi_endproc
 1440              	.LFE55:
 1441              		.size	CapSense_CSD_SetLowBaselineReset, .-CapSense_CSD_SetLowBaselineReset
 1442              		.section	.text.CapSense_CSD_CheckIsSensorActive,"ax",%progbits
 1443              		.align	2
 1444              		.global	CapSense_CSD_CheckIsSensorActive
 1445              		.code	16
 1446              		.thumb_func
 1447              		.type	CapSense_CSD_CheckIsSensorActive, %function
 1448              	CapSense_CSD_CheckIsSensorActive:
 1449              	.LFB56:
1073:.\Generated_Source\PSoC4/CapSense_CSD_CSHL.c **** #endif /* (CapSense_CSD_TUNING_METHOD != CapSense_CSD__TUNING_NONE) */
1074:.\Generated_Source\PSoC4/CapSense_CSD_CSHL.c **** 
1075:.\Generated_Source\PSoC4/CapSense_CSD_CSHL.c **** 
1076:.\Generated_Source\PSoC4/CapSense_CSD_CSHL.c **** /*******************************************************************************
1077:.\Generated_Source\PSoC4/CapSense_CSD_CSHL.c **** * Function Name: CapSense_CSD_CheckIsSensorActive
1078:.\Generated_Source\PSoC4/CapSense_CSD_CSHL.c **** ********************************************************************************
1079:.\Generated_Source\PSoC4/CapSense_CSD_CSHL.c **** *
1080:.\Generated_Source\PSoC4/CapSense_CSD_CSHL.c **** * Summary:
1081:.\Generated_Source\PSoC4/CapSense_CSD_CSHL.c **** *  Compares the CapSense_CSD_sensorSignal[sensor] array element to the finger
1082:.\Generated_Source\PSoC4/CapSense_CSD_CSHL.c **** *  threshold of the widget it belongs to. The hysteresis and debounce are taken into
1083:.\Generated_Source\PSoC4/CapSense_CSD_CSHL.c **** *  account. The hysteresis is added or subtracted from the finger threshold
1084:.\Generated_Source\PSoC4/CapSense_CSD_CSHL.c **** *  based on whether the sensor is currently active.
1085:.\Generated_Source\PSoC4/CapSense_CSD_CSHL.c **** *  If the sensor is active, the threshold is lowered by the hysteresis amount.
1086:.\Generated_Source\PSoC4/CapSense_CSD_CSHL.c **** *  If the sensor is inactive, the threshold is raised by the hysteresis amount.
1087:.\Generated_Source\PSoC4/CapSense_CSD_CSHL.c **** *  The debounce counter is added to the sensor active transition.
1088:.\Generated_Source\PSoC4/CapSense_CSD_CSHL.c **** *  This function updates the CapSense_CSD_sensorOnMask[] array element.
1089:.\Generated_Source\PSoC4/CapSense_CSD_CSHL.c **** *
1090:.\Generated_Source\PSoC4/CapSense_CSD_CSHL.c **** * Parameters:
1091:.\Generated_Source\PSoC4/CapSense_CSD_CSHL.c **** *  sensor:  Sensor number.
1092:.\Generated_Source\PSoC4/CapSense_CSD_CSHL.c **** *
1093:.\Generated_Source\PSoC4/CapSense_CSD_CSHL.c **** * Return:
ARM GAS  C:\Users\LUKASC~1\AppData\Local\Temp\ccrijgnB.s 			page 46


1094:.\Generated_Source\PSoC4/CapSense_CSD_CSHL.c **** *  Returns sensor state 1 if active, 0 if not active.
1095:.\Generated_Source\PSoC4/CapSense_CSD_CSHL.c **** *
1096:.\Generated_Source\PSoC4/CapSense_CSD_CSHL.c **** * Global Variables:
1097:.\Generated_Source\PSoC4/CapSense_CSD_CSHL.c **** *  CapSense_CSD_sensorSignal[] - used to store the difference between
1098:.\Generated_Source\PSoC4/CapSense_CSD_CSHL.c **** *  the current value of raw data and a previous value of the baseline.
1099:.\Generated_Source\PSoC4/CapSense_CSD_CSHL.c **** *  CapSense_CSD_debounceCounter[]   - used to store the current debounce
1100:.\Generated_Source\PSoC4/CapSense_CSD_CSHL.c **** *  counter of the sensor. the widget which have this parameter are buttons, matrix
1101:.\Generated_Source\PSoC4/CapSense_CSD_CSHL.c **** *  buttons, proximity, and guard. All other widgets don't have the  debounce parameter
1102:.\Generated_Source\PSoC4/CapSense_CSD_CSHL.c **** *  and use the last element of this array with value 0 (it means no debounce).
1103:.\Generated_Source\PSoC4/CapSense_CSD_CSHL.c **** *  CapSense_CSD_sensorOnMask[] - used to store the sensors on/off state.
1104:.\Generated_Source\PSoC4/CapSense_CSD_CSHL.c **** *  CapSense_CSD_sensorOnMask[0] contains the masked bits for sensors
1105:.\Generated_Source\PSoC4/CapSense_CSD_CSHL.c **** *   0 through 7 (sensor 0 is bit 0, sensor 1 is bit 1).
1106:.\Generated_Source\PSoC4/CapSense_CSD_CSHL.c **** *  CapSense_CSD_sensorEnableMask[1] contains the masked bits for
1107:.\Generated_Source\PSoC4/CapSense_CSD_CSHL.c **** *  sensors 8 through 15 (if needed), and so on.
1108:.\Generated_Source\PSoC4/CapSense_CSD_CSHL.c **** *  0 - sensor is inactive.
1109:.\Generated_Source\PSoC4/CapSense_CSD_CSHL.c **** *  1 - sensor is active.
1110:.\Generated_Source\PSoC4/CapSense_CSD_CSHL.c **** *
1111:.\Generated_Source\PSoC4/CapSense_CSD_CSHL.c **** * Side Effects:
1112:.\Generated_Source\PSoC4/CapSense_CSD_CSHL.c **** *  None
1113:.\Generated_Source\PSoC4/CapSense_CSD_CSHL.c **** *
1114:.\Generated_Source\PSoC4/CapSense_CSD_CSHL.c **** *******************************************************************************/
1115:.\Generated_Source\PSoC4/CapSense_CSD_CSHL.c **** uint32 CapSense_CSD_CheckIsSensorActive(uint32 sensor)
1116:.\Generated_Source\PSoC4/CapSense_CSD_CSHL.c **** {
 1450              		.loc 1 1116 0
 1451              		.cfi_startproc
 1452 0000 80B5     		push	{r7, lr}
 1453              		.cfi_def_cfa_offset 8
 1454              		.cfi_offset 7, -8
 1455              		.cfi_offset 14, -4
 1456 0002 84B0     		sub	sp, sp, #16
 1457              		.cfi_def_cfa_offset 24
 1458 0004 00AF     		add	r7, sp, #0
 1459              		.cfi_def_cfa_register 7
 1460 0006 7860     		str	r0, [r7, #4]
1117:.\Generated_Source\PSoC4/CapSense_CSD_CSHL.c ****     uint8 widget;
1118:.\Generated_Source\PSoC4/CapSense_CSD_CSHL.c ****     uint8 debounce;
1119:.\Generated_Source\PSoC4/CapSense_CSD_CSHL.c ****     uint8 debounceIndex;
1120:.\Generated_Source\PSoC4/CapSense_CSD_CSHL.c **** 
1121:.\Generated_Source\PSoC4/CapSense_CSD_CSHL.c ****     uint8 fingerThreshold;
1122:.\Generated_Source\PSoC4/CapSense_CSD_CSHL.c ****     uint8 hysteresis;
1123:.\Generated_Source\PSoC4/CapSense_CSD_CSHL.c ****     
1124:.\Generated_Source\PSoC4/CapSense_CSD_CSHL.c **** 
1125:.\Generated_Source\PSoC4/CapSense_CSD_CSHL.c ****     /* Prepare to find debounce counter index */
1126:.\Generated_Source\PSoC4/CapSense_CSD_CSHL.c ****     widget = CapSense_CSD_widgetNumber[sensor];
 1461              		.loc 1 1126 0
 1462 0008 0E23     		mov	r3, #14
 1463 000a FB18     		add	r3, r7, r3
 1464 000c 4B49     		ldr	r1, .L104
 1465 000e 7A68     		ldr	r2, [r7, #4]
 1466 0010 8A18     		add	r2, r1, r2
 1467 0012 1278     		ldrb	r2, [r2]
 1468 0014 1A70     		strb	r2, [r3]
1127:.\Generated_Source\PSoC4/CapSense_CSD_CSHL.c **** 
1128:.\Generated_Source\PSoC4/CapSense_CSD_CSHL.c ****     fingerThreshold = CapSense_CSD_fingerThreshold[widget];
 1469              		.loc 1 1128 0
 1470 0016 0E23     		mov	r3, #14
 1471 0018 FB18     		add	r3, r7, r3
ARM GAS  C:\Users\LUKASC~1\AppData\Local\Temp\ccrijgnB.s 			page 47


 1472 001a 1A78     		ldrb	r2, [r3]
 1473 001c 0D23     		mov	r3, #13
 1474 001e FB18     		add	r3, r7, r3
 1475 0020 4749     		ldr	r1, .L104+4
 1476 0022 8A5C     		ldrb	r2, [r1, r2]
 1477 0024 1A70     		strb	r2, [r3]
1129:.\Generated_Source\PSoC4/CapSense_CSD_CSHL.c ****     hysteresis = CapSense_CSD_hysteresis[widget];
 1478              		.loc 1 1129 0
 1479 0026 0E23     		mov	r3, #14
 1480 0028 FB18     		add	r3, r7, r3
 1481 002a 1A78     		ldrb	r2, [r3]
 1482 002c 0C23     		mov	r3, #12
 1483 002e FB18     		add	r3, r7, r3
 1484 0030 4449     		ldr	r1, .L104+8
 1485 0032 8A5C     		ldrb	r2, [r1, r2]
 1486 0034 1A70     		strb	r2, [r3]
1130:.\Generated_Source\PSoC4/CapSense_CSD_CSHL.c ****     debounce = CapSense_CSD_debounce[widget];
 1487              		.loc 1 1130 0
 1488 0036 0E23     		mov	r3, #14
 1489 0038 FB18     		add	r3, r7, r3
 1490 003a 1A78     		ldrb	r2, [r3]
 1491 003c 0B23     		mov	r3, #11
 1492 003e FB18     		add	r3, r7, r3
 1493 0040 4149     		ldr	r1, .L104+12
 1494 0042 8A5C     		ldrb	r2, [r1, r2]
 1495 0044 1A70     		strb	r2, [r3]
1131:.\Generated_Source\PSoC4/CapSense_CSD_CSHL.c **** 
1132:.\Generated_Source\PSoC4/CapSense_CSD_CSHL.c ****         if (widget < CapSense_CSD_TOTAL_CENTROIDS_COUNT)
 1496              		.loc 1 1132 0
 1497 0046 0E23     		mov	r3, #14
 1498 0048 FB18     		add	r3, r7, r3
 1499 004a 1B78     		ldrb	r3, [r3]
 1500 004c 002B     		cmp	r3, #0
 1501 004e 0AD1     		bne	.L94
1133:.\Generated_Source\PSoC4/CapSense_CSD_CSHL.c ****     {
1134:.\Generated_Source\PSoC4/CapSense_CSD_CSHL.c ****         debounceIndex = CapSense_CSD_UNUSED_DEBOUNCE_COUNTER_INDEX;
 1502              		.loc 1 1134 0
 1503 0050 0F23     		mov	r3, #15
 1504 0052 FB18     		add	r3, r7, r3
 1505 0054 0122     		mov	r2, #1
 1506 0056 1A70     		strb	r2, [r3]
1135:.\Generated_Source\PSoC4/CapSense_CSD_CSHL.c ****         CapSense_CSD_debounceCounter[debounceIndex] = 1u;
 1507              		.loc 1 1135 0
 1508 0058 0F23     		mov	r3, #15
 1509 005a FB18     		add	r3, r7, r3
 1510 005c 1B78     		ldrb	r3, [r3]
 1511 005e 3B4A     		ldr	r2, .L104+16
 1512 0060 0121     		mov	r1, #1
 1513 0062 D154     		strb	r1, [r2, r3]
 1514 0064 06E0     		b	.L95
 1515              	.L94:
1136:.\Generated_Source\PSoC4/CapSense_CSD_CSHL.c ****     }
1137:.\Generated_Source\PSoC4/CapSense_CSD_CSHL.c ****     else
1138:.\Generated_Source\PSoC4/CapSense_CSD_CSHL.c ****     {
1139:.\Generated_Source\PSoC4/CapSense_CSD_CSHL.c ****         debounceIndex = widget - (CapSense_CSD_END_OF_TOUCH_PAD_INDEX + 1u);
 1516              		.loc 1 1139 0
 1517 0066 0F23     		mov	r3, #15
ARM GAS  C:\Users\LUKASC~1\AppData\Local\Temp\ccrijgnB.s 			page 48


 1518 0068 FB18     		add	r3, r7, r3
 1519 006a 0E22     		mov	r2, #14
 1520 006c BA18     		add	r2, r7, r2
 1521 006e 1278     		ldrb	r2, [r2]
 1522 0070 013A     		sub	r2, r2, #1
 1523 0072 1A70     		strb	r2, [r3]
 1524              	.L95:
1140:.\Generated_Source\PSoC4/CapSense_CSD_CSHL.c ****     }
1141:.\Generated_Source\PSoC4/CapSense_CSD_CSHL.c **** 
1142:.\Generated_Source\PSoC4/CapSense_CSD_CSHL.c **** 
1143:.\Generated_Source\PSoC4/CapSense_CSD_CSHL.c ****     /* Was on */
1144:.\Generated_Source\PSoC4/CapSense_CSD_CSHL.c ****     if (0u != CapSense_CSD_GetBitValue(CapSense_CSD_sensorOnMask, sensor))
 1525              		.loc 1 1144 0
 1526 0074 364A     		ldr	r2, .L104+20
 1527 0076 7B68     		ldr	r3, [r7, #4]
 1528 0078 101C     		mov	r0, r2
 1529 007a 191C     		mov	r1, r3
 1530 007c FFF7FEFF 		bl	CapSense_CSD_GetBitValue
 1531 0080 031E     		sub	r3, r0, #0
 1532 0082 1DD0     		beq	.L96
1145:.\Generated_Source\PSoC4/CapSense_CSD_CSHL.c ****     {
1146:.\Generated_Source\PSoC4/CapSense_CSD_CSHL.c ****         /* Hysteresis minus */
1147:.\Generated_Source\PSoC4/CapSense_CSD_CSHL.c ****         if (CapSense_CSD_sensorSignal[sensor] < (fingerThreshold - hysteresis))
 1533              		.loc 1 1147 0
 1534 0084 334A     		ldr	r2, .L104+24
 1535 0086 7B68     		ldr	r3, [r7, #4]
 1536 0088 D318     		add	r3, r2, r3
 1537 008a 1B78     		ldrb	r3, [r3]
 1538 008c 191C     		mov	r1, r3
 1539 008e 0D23     		mov	r3, #13
 1540 0090 FB18     		add	r3, r7, r3
 1541 0092 1A78     		ldrb	r2, [r3]
 1542 0094 0C23     		mov	r3, #12
 1543 0096 FB18     		add	r3, r7, r3
 1544 0098 1B78     		ldrb	r3, [r3]
 1545 009a D31A     		sub	r3, r2, r3
 1546 009c 9942     		cmp	r1, r3
 1547 009e 3DDA     		bge	.L98
1148:.\Generated_Source\PSoC4/CapSense_CSD_CSHL.c ****         {
1149:.\Generated_Source\PSoC4/CapSense_CSD_CSHL.c ****             CapSense_CSD_SetBitValue(CapSense_CSD_sensorOnMask, sensor, 0u);
 1548              		.loc 1 1149 0
 1549 00a0 2B4A     		ldr	r2, .L104+20
 1550 00a2 7B68     		ldr	r3, [r7, #4]
 1551 00a4 101C     		mov	r0, r2
 1552 00a6 191C     		mov	r1, r3
 1553 00a8 0022     		mov	r2, #0
 1554 00aa FFF7FEFF 		bl	CapSense_CSD_SetBitValue
1150:.\Generated_Source\PSoC4/CapSense_CSD_CSHL.c ****             /* Sensor inactive - reset Debounce counter */
1151:.\Generated_Source\PSoC4/CapSense_CSD_CSHL.c ****             CapSense_CSD_debounceCounter[debounceIndex] = debounce;
 1555              		.loc 1 1151 0
 1556 00ae 0F23     		mov	r3, #15
 1557 00b0 FB18     		add	r3, r7, r3
 1558 00b2 1B78     		ldrb	r3, [r3]
 1559 00b4 254A     		ldr	r2, .L104+16
 1560 00b6 0B21     		mov	r1, #11
 1561 00b8 7918     		add	r1, r7, r1
 1562 00ba 0978     		ldrb	r1, [r1]
ARM GAS  C:\Users\LUKASC~1\AppData\Local\Temp\ccrijgnB.s 			page 49


 1563 00bc D154     		strb	r1, [r2, r3]
 1564 00be 2DE0     		b	.L98
 1565              	.L96:
1152:.\Generated_Source\PSoC4/CapSense_CSD_CSHL.c ****         }
1153:.\Generated_Source\PSoC4/CapSense_CSD_CSHL.c ****     }
1154:.\Generated_Source\PSoC4/CapSense_CSD_CSHL.c ****     else    /* Was off */
1155:.\Generated_Source\PSoC4/CapSense_CSD_CSHL.c ****     {
1156:.\Generated_Source\PSoC4/CapSense_CSD_CSHL.c ****         /* Hysteresis plus */
1157:.\Generated_Source\PSoC4/CapSense_CSD_CSHL.c ****         if (CapSense_CSD_sensorSignal[sensor] >= (fingerThreshold + hysteresis))
 1566              		.loc 1 1157 0
 1567 00c0 244A     		ldr	r2, .L104+24
 1568 00c2 7B68     		ldr	r3, [r7, #4]
 1569 00c4 D318     		add	r3, r2, r3
 1570 00c6 1B78     		ldrb	r3, [r3]
 1571 00c8 191C     		mov	r1, r3
 1572 00ca 0D23     		mov	r3, #13
 1573 00cc FB18     		add	r3, r7, r3
 1574 00ce 1A78     		ldrb	r2, [r3]
 1575 00d0 0C23     		mov	r3, #12
 1576 00d2 FB18     		add	r3, r7, r3
 1577 00d4 1B78     		ldrb	r3, [r3]
 1578 00d6 D318     		add	r3, r2, r3
 1579 00d8 9942     		cmp	r1, r3
 1580 00da 17DB     		blt	.L99
1158:.\Generated_Source\PSoC4/CapSense_CSD_CSHL.c ****         {
1159:.\Generated_Source\PSoC4/CapSense_CSD_CSHL.c ****             CapSense_CSD_debounceCounter[debounceIndex]--;
 1581              		.loc 1 1159 0
 1582 00dc 0F23     		mov	r3, #15
 1583 00de FB18     		add	r3, r7, r3
 1584 00e0 1B78     		ldrb	r3, [r3]
 1585 00e2 1A4A     		ldr	r2, .L104+16
 1586 00e4 D25C     		ldrb	r2, [r2, r3]
 1587 00e6 013A     		sub	r2, r2, #1
 1588 00e8 D1B2     		uxtb	r1, r2
 1589 00ea 184A     		ldr	r2, .L104+16
 1590 00ec D154     		strb	r1, [r2, r3]
1160:.\Generated_Source\PSoC4/CapSense_CSD_CSHL.c ****             /* Sensor active, decrement debounce counter */
1161:.\Generated_Source\PSoC4/CapSense_CSD_CSHL.c ****             if(CapSense_CSD_debounceCounter[debounceIndex] == 0u)
 1591              		.loc 1 1161 0
 1592 00ee 0F23     		mov	r3, #15
 1593 00f0 FB18     		add	r3, r7, r3
 1594 00f2 1B78     		ldrb	r3, [r3]
 1595 00f4 154A     		ldr	r2, .L104+16
 1596 00f6 D35C     		ldrb	r3, [r2, r3]
 1597 00f8 002B     		cmp	r3, #0
 1598 00fa 0FD1     		bne	.L98
1162:.\Generated_Source\PSoC4/CapSense_CSD_CSHL.c ****             {
1163:.\Generated_Source\PSoC4/CapSense_CSD_CSHL.c ****                 CapSense_CSD_SetBitValue(CapSense_CSD_sensorOnMask, sensor, 1u);
 1599              		.loc 1 1163 0
 1600 00fc 144A     		ldr	r2, .L104+20
 1601 00fe 7B68     		ldr	r3, [r7, #4]
 1602 0100 101C     		mov	r0, r2
 1603 0102 191C     		mov	r1, r3
 1604 0104 0122     		mov	r2, #1
 1605 0106 FFF7FEFF 		bl	CapSense_CSD_SetBitValue
 1606 010a 07E0     		b	.L98
 1607              	.L99:
ARM GAS  C:\Users\LUKASC~1\AppData\Local\Temp\ccrijgnB.s 			page 50


1164:.\Generated_Source\PSoC4/CapSense_CSD_CSHL.c ****             }
1165:.\Generated_Source\PSoC4/CapSense_CSD_CSHL.c ****         }
1166:.\Generated_Source\PSoC4/CapSense_CSD_CSHL.c ****         else
1167:.\Generated_Source\PSoC4/CapSense_CSD_CSHL.c ****         {
1168:.\Generated_Source\PSoC4/CapSense_CSD_CSHL.c ****             /* Sensor inactive - reset Debounce counter */
1169:.\Generated_Source\PSoC4/CapSense_CSD_CSHL.c ****             CapSense_CSD_debounceCounter[debounceIndex] = debounce;
 1608              		.loc 1 1169 0
 1609 010c 0F23     		mov	r3, #15
 1610 010e FB18     		add	r3, r7, r3
 1611 0110 1B78     		ldrb	r3, [r3]
 1612 0112 0E4A     		ldr	r2, .L104+16
 1613 0114 0B21     		mov	r1, #11
 1614 0116 7918     		add	r1, r7, r1
 1615 0118 0978     		ldrb	r1, [r1]
 1616 011a D154     		strb	r1, [r2, r3]
 1617              	.L98:
1170:.\Generated_Source\PSoC4/CapSense_CSD_CSHL.c ****         }
1171:.\Generated_Source\PSoC4/CapSense_CSD_CSHL.c ****     }
1172:.\Generated_Source\PSoC4/CapSense_CSD_CSHL.c **** 
1173:.\Generated_Source\PSoC4/CapSense_CSD_CSHL.c ****     return ((uint32)((0u != CapSense_CSD_GetBitValue(CapSense_CSD_sensorOnMask, sensor)) ? 1u : 0u)
 1618              		.loc 1 1173 0
 1619 011c 0C4A     		ldr	r2, .L104+20
 1620 011e 7B68     		ldr	r3, [r7, #4]
 1621 0120 101C     		mov	r0, r2
 1622 0122 191C     		mov	r1, r3
 1623 0124 FFF7FEFF 		bl	CapSense_CSD_GetBitValue
 1624 0128 031E     		sub	r3, r0, #0
 1625 012a 01D0     		beq	.L101
 1626              		.loc 1 1173 0 is_stmt 0 discriminator 1
 1627 012c 0123     		mov	r3, #1
 1628 012e 00E0     		b	.L102
 1629              	.L101:
 1630              		.loc 1 1173 0 discriminator 2
 1631 0130 0023     		mov	r3, #0
 1632              	.L102:
1174:.\Generated_Source\PSoC4/CapSense_CSD_CSHL.c **** }
 1633              		.loc 1 1174 0 is_stmt 1 discriminator 4
 1634 0132 181C     		mov	r0, r3
 1635 0134 BD46     		mov	sp, r7
 1636 0136 04B0     		add	sp, sp, #16
 1637              		@ sp needed
 1638 0138 80BD     		pop	{r7, pc}
 1639              	.L105:
 1640 013a C046     		.align	2
 1641              	.L104:
 1642 013c 00000000 		.word	CapSense_CSD_widgetNumber
 1643 0140 00000000 		.word	CapSense_CSD_fingerThreshold
 1644 0144 00000000 		.word	CapSense_CSD_hysteresis
 1645 0148 00000000 		.word	CapSense_CSD_debounce
 1646 014c 40000000 		.word	CapSense_CSD_debounceCounter
 1647 0150 00000000 		.word	CapSense_CSD_sensorOnMask
 1648 0154 00000000 		.word	CapSense_CSD_sensorSignal
 1649              		.cfi_endproc
 1650              	.LFE56:
 1651              		.size	CapSense_CSD_CheckIsSensorActive, .-CapSense_CSD_CheckIsSensorActive
 1652              		.section	.text.CapSense_CSD_CheckIsWidgetActive,"ax",%progbits
 1653              		.align	2
ARM GAS  C:\Users\LUKASC~1\AppData\Local\Temp\ccrijgnB.s 			page 51


 1654              		.global	CapSense_CSD_CheckIsWidgetActive
 1655              		.code	16
 1656              		.thumb_func
 1657              		.type	CapSense_CSD_CheckIsWidgetActive, %function
 1658              	CapSense_CSD_CheckIsWidgetActive:
 1659              	.LFB57:
1175:.\Generated_Source\PSoC4/CapSense_CSD_CSHL.c **** 
1176:.\Generated_Source\PSoC4/CapSense_CSD_CSHL.c **** 
1177:.\Generated_Source\PSoC4/CapSense_CSD_CSHL.c **** /*******************************************************************************
1178:.\Generated_Source\PSoC4/CapSense_CSD_CSHL.c **** * Function Name: CapSense_CSD_CheckIsWidgetActive
1179:.\Generated_Source\PSoC4/CapSense_CSD_CSHL.c **** ********************************************************************************
1180:.\Generated_Source\PSoC4/CapSense_CSD_CSHL.c **** *
1181:.\Generated_Source\PSoC4/CapSense_CSD_CSHL.c **** * Summary:
1182:.\Generated_Source\PSoC4/CapSense_CSD_CSHL.c **** *  Compares the CapSense_sensorSignal[] array element to the finger threshold of
1183:.\Generated_Source\PSoC4/CapSense_CSD_CSHL.c **** * the widget it belongs to. The hysteresis and debounce are taken into account.
1184:.\Generated_Source\PSoC4/CapSense_CSD_CSHL.c **** * The hysteresis is added or subtracted from the finger threshold based on whether
1185:.\Generated_Source\PSoC4/CapSense_CSD_CSHL.c **** *  the sensor is currently active. If the sensor is active, the threshold is
1186:.\Generated_Source\PSoC4/CapSense_CSD_CSHL.c **** *  lowered by the hysteresis amount. If the sensor is inactive, the threshold
1187:.\Generated_Source\PSoC4/CapSense_CSD_CSHL.c **** *  is raised by the hysteresis amount.
1188:.\Generated_Source\PSoC4/CapSense_CSD_CSHL.c **** * The debounce counter added to the sensor active transition.
1189:.\Generated_Source\PSoC4/CapSense_CSD_CSHL.c **** * This function updates CapSense_sensorOnMask[] array element
1190:.\Generated_Source\PSoC4/CapSense_CSD_CSHL.c **** *
1191:.\Generated_Source\PSoC4/CapSense_CSD_CSHL.c **** * Parameters:
1192:.\Generated_Source\PSoC4/CapSense_CSD_CSHL.c **** *  widget:  widget number.
1193:.\Generated_Source\PSoC4/CapSense_CSD_CSHL.c **** *
1194:.\Generated_Source\PSoC4/CapSense_CSD_CSHL.c **** * Return:
1195:.\Generated_Source\PSoC4/CapSense_CSD_CSHL.c **** *  Returns widget sensor state 1 if one or more sensors within widget is/are
1196:.\Generated_Source\PSoC4/CapSense_CSD_CSHL.c **** *  active, 0 if all sensors within widget are inactive.
1197:.\Generated_Source\PSoC4/CapSense_CSD_CSHL.c **** *
1198:.\Generated_Source\PSoC4/CapSense_CSD_CSHL.c **** * Global Variables:
1199:.\Generated_Source\PSoC4/CapSense_CSD_CSHL.c **** *  rawDataIndex[]: Contains the  1st sensor position in the widget
1200:.\Generated_Source\PSoC4/CapSense_CSD_CSHL.c **** *
1201:.\Generated_Source\PSoC4/CapSense_CSD_CSHL.c **** * Side Effects:
1202:.\Generated_Source\PSoC4/CapSense_CSD_CSHL.c **** *  None
1203:.\Generated_Source\PSoC4/CapSense_CSD_CSHL.c **** *
1204:.\Generated_Source\PSoC4/CapSense_CSD_CSHL.c **** *******************************************************************************/
1205:.\Generated_Source\PSoC4/CapSense_CSD_CSHL.c **** uint32 CapSense_CSD_CheckIsWidgetActive(uint32 widget)
1206:.\Generated_Source\PSoC4/CapSense_CSD_CSHL.c **** {
 1660              		.loc 1 1206 0
 1661              		.cfi_startproc
 1662 0000 80B5     		push	{r7, lr}
 1663              		.cfi_def_cfa_offset 8
 1664              		.cfi_offset 7, -8
 1665              		.cfi_offset 14, -4
 1666 0002 86B0     		sub	sp, sp, #24
 1667              		.cfi_def_cfa_offset 32
 1668 0004 00AF     		add	r7, sp, #0
 1669              		.cfi_def_cfa_register 7
 1670 0006 7860     		str	r0, [r7, #4]
1207:.\Generated_Source\PSoC4/CapSense_CSD_CSHL.c ****     uint32 rawIndex = (uint32)CapSense_CSD_rawDataIndex[widget];
 1671              		.loc 1 1207 0
 1672 0008 114A     		ldr	r2, .L110
 1673 000a 7B68     		ldr	r3, [r7, #4]
 1674 000c D318     		add	r3, r2, r3
 1675 000e 1B78     		ldrb	r3, [r3]
 1676 0010 7B61     		str	r3, [r7, #20]
1208:.\Generated_Source\PSoC4/CapSense_CSD_CSHL.c ****     uint32 numOfSensors = (uint32)CapSense_CSD_numberOfSensors[widget] + rawIndex;
ARM GAS  C:\Users\LUKASC~1\AppData\Local\Temp\ccrijgnB.s 			page 52


 1677              		.loc 1 1208 0
 1678 0012 104A     		ldr	r2, .L110+4
 1679 0014 7B68     		ldr	r3, [r7, #4]
 1680 0016 D318     		add	r3, r2, r3
 1681 0018 1B78     		ldrb	r3, [r3]
 1682 001a 1A1C     		mov	r2, r3
 1683 001c 7B69     		ldr	r3, [r7, #20]
 1684 001e D318     		add	r3, r2, r3
 1685 0020 FB60     		str	r3, [r7, #12]
1209:.\Generated_Source\PSoC4/CapSense_CSD_CSHL.c ****     uint32 state = 0u;
 1686              		.loc 1 1209 0
 1687 0022 0023     		mov	r3, #0
 1688 0024 3B61     		str	r3, [r7, #16]
 1689              	.L108:
1210:.\Generated_Source\PSoC4/CapSense_CSD_CSHL.c **** 
1211:.\Generated_Source\PSoC4/CapSense_CSD_CSHL.c ****     /* Check all sensors of widget */
1212:.\Generated_Source\PSoC4/CapSense_CSD_CSHL.c ****     do
1213:.\Generated_Source\PSoC4/CapSense_CSD_CSHL.c ****     {
1214:.\Generated_Source\PSoC4/CapSense_CSD_CSHL.c ****         if(CapSense_CSD_CheckIsSensorActive((uint32)rawIndex) != 0u)
 1690              		.loc 1 1214 0
 1691 0026 7B69     		ldr	r3, [r7, #20]
 1692 0028 181C     		mov	r0, r3
 1693 002a FFF7FEFF 		bl	CapSense_CSD_CheckIsSensorActive
 1694 002e 031E     		sub	r3, r0, #0
 1695 0030 01D0     		beq	.L107
1215:.\Generated_Source\PSoC4/CapSense_CSD_CSHL.c ****         {
1216:.\Generated_Source\PSoC4/CapSense_CSD_CSHL.c ****             state = CapSense_CSD_SENSOR_IS_ACTIVE;
 1696              		.loc 1 1216 0
 1697 0032 0123     		mov	r3, #1
 1698 0034 3B61     		str	r3, [r7, #16]
 1699              	.L107:
1217:.\Generated_Source\PSoC4/CapSense_CSD_CSHL.c ****         }
1218:.\Generated_Source\PSoC4/CapSense_CSD_CSHL.c ****         rawIndex++;
 1700              		.loc 1 1218 0
 1701 0036 7B69     		ldr	r3, [r7, #20]
 1702 0038 0133     		add	r3, r3, #1
 1703 003a 7B61     		str	r3, [r7, #20]
1219:.\Generated_Source\PSoC4/CapSense_CSD_CSHL.c ****     }
1220:.\Generated_Source\PSoC4/CapSense_CSD_CSHL.c ****     while(rawIndex < numOfSensors);
 1704              		.loc 1 1220 0
 1705 003c 7A69     		ldr	r2, [r7, #20]
 1706 003e FB68     		ldr	r3, [r7, #12]
 1707 0040 9A42     		cmp	r2, r3
 1708 0042 F0D3     		bcc	.L108
1221:.\Generated_Source\PSoC4/CapSense_CSD_CSHL.c **** 
1222:.\Generated_Source\PSoC4/CapSense_CSD_CSHL.c **** 
1223:.\Generated_Source\PSoC4/CapSense_CSD_CSHL.c **** 
1224:.\Generated_Source\PSoC4/CapSense_CSD_CSHL.c ****     return state;
 1709              		.loc 1 1224 0
 1710 0044 3B69     		ldr	r3, [r7, #16]
1225:.\Generated_Source\PSoC4/CapSense_CSD_CSHL.c **** }
 1711              		.loc 1 1225 0
 1712 0046 181C     		mov	r0, r3
 1713 0048 BD46     		mov	sp, r7
 1714 004a 06B0     		add	sp, sp, #24
 1715              		@ sp needed
 1716 004c 80BD     		pop	{r7, pc}
ARM GAS  C:\Users\LUKASC~1\AppData\Local\Temp\ccrijgnB.s 			page 53


 1717              	.L111:
 1718 004e C046     		.align	2
 1719              	.L110:
 1720 0050 00000000 		.word	CapSense_CSD_rawDataIndex
 1721 0054 00000000 		.word	CapSense_CSD_numberOfSensors
 1722              		.cfi_endproc
 1723              	.LFE57:
 1724              		.size	CapSense_CSD_CheckIsWidgetActive, .-CapSense_CSD_CheckIsWidgetActive
 1725              		.section	.text.CapSense_CSD_CheckIsAnyWidgetActive,"ax",%progbits
 1726              		.align	2
 1727              		.global	CapSense_CSD_CheckIsAnyWidgetActive
 1728              		.code	16
 1729              		.thumb_func
 1730              		.type	CapSense_CSD_CheckIsAnyWidgetActive, %function
 1731              	CapSense_CSD_CheckIsAnyWidgetActive:
 1732              	.LFB58:
1226:.\Generated_Source\PSoC4/CapSense_CSD_CSHL.c **** 
1227:.\Generated_Source\PSoC4/CapSense_CSD_CSHL.c **** 
1228:.\Generated_Source\PSoC4/CapSense_CSD_CSHL.c **** /*******************************************************************************
1229:.\Generated_Source\PSoC4/CapSense_CSD_CSHL.c **** * Function Name: CapSense_CSD_CheckIsAnyWidgetActive
1230:.\Generated_Source\PSoC4/CapSense_CSD_CSHL.c **** ********************************************************************************
1231:.\Generated_Source\PSoC4/CapSense_CSD_CSHL.c **** *
1232:.\Generated_Source\PSoC4/CapSense_CSD_CSHL.c **** * Summary:
1233:.\Generated_Source\PSoC4/CapSense_CSD_CSHL.c **** *  Compares all the sensors of the CapSense_CSD_Signal[] array to their finger
1234:.\Generated_Source\PSoC4/CapSense_CSD_CSHL.c **** *  threshold. Calls CapSense_CSD_CheckIsWidgetActive() for each widget so
1235:.\Generated_Source\PSoC4/CapSense_CSD_CSHL.c **** *  the CapSense_CSD_sensorOnMask[] array is up to date after calling this
1236:.\Generated_Source\PSoC4/CapSense_CSD_CSHL.c **** *  function.
1237:.\Generated_Source\PSoC4/CapSense_CSD_CSHL.c **** *
1238:.\Generated_Source\PSoC4/CapSense_CSD_CSHL.c **** * Parameters:
1239:.\Generated_Source\PSoC4/CapSense_CSD_CSHL.c **** *  widget:  widget number.
1240:.\Generated_Source\PSoC4/CapSense_CSD_CSHL.c **** *
1241:.\Generated_Source\PSoC4/CapSense_CSD_CSHL.c **** * Return:
1242:.\Generated_Source\PSoC4/CapSense_CSD_CSHL.c **** *  Returns 1 if any widget is active, 0 none of widgets are active.
1243:.\Generated_Source\PSoC4/CapSense_CSD_CSHL.c **** *
1244:.\Generated_Source\PSoC4/CapSense_CSD_CSHL.c **** * Global Variables:
1245:.\Generated_Source\PSoC4/CapSense_CSD_CSHL.c **** *  None
1246:.\Generated_Source\PSoC4/CapSense_CSD_CSHL.c **** *
1247:.\Generated_Source\PSoC4/CapSense_CSD_CSHL.c **** * Side Effects:
1248:.\Generated_Source\PSoC4/CapSense_CSD_CSHL.c **** *  None
1249:.\Generated_Source\PSoC4/CapSense_CSD_CSHL.c **** *
1250:.\Generated_Source\PSoC4/CapSense_CSD_CSHL.c **** *******************************************************************************/
1251:.\Generated_Source\PSoC4/CapSense_CSD_CSHL.c **** uint32 CapSense_CSD_CheckIsAnyWidgetActive(void)
1252:.\Generated_Source\PSoC4/CapSense_CSD_CSHL.c **** {
 1733              		.loc 1 1252 0
 1734              		.cfi_startproc
 1735 0000 80B5     		push	{r7, lr}
 1736              		.cfi_def_cfa_offset 8
 1737              		.cfi_offset 7, -8
 1738              		.cfi_offset 14, -4
 1739 0002 82B0     		sub	sp, sp, #8
 1740              		.cfi_def_cfa_offset 16
 1741 0004 00AF     		add	r7, sp, #0
 1742              		.cfi_def_cfa_register 7
1253:.\Generated_Source\PSoC4/CapSense_CSD_CSHL.c **** 
1254:.\Generated_Source\PSoC4/CapSense_CSD_CSHL.c ****         uint32 i;
1255:.\Generated_Source\PSoC4/CapSense_CSD_CSHL.c ****     uint32 state = 0u;
 1743              		.loc 1 1255 0
ARM GAS  C:\Users\LUKASC~1\AppData\Local\Temp\ccrijgnB.s 			page 54


 1744 0006 0023     		mov	r3, #0
 1745 0008 3B60     		str	r3, [r7]
1256:.\Generated_Source\PSoC4/CapSense_CSD_CSHL.c ****     
1257:.\Generated_Source\PSoC4/CapSense_CSD_CSHL.c ****     for(i = 0u; i < CapSense_CSD_TOTAL_WIDGET_COUNT; i++)
 1746              		.loc 1 1257 0
 1747 000a 0023     		mov	r3, #0
 1748 000c 7B60     		str	r3, [r7, #4]
 1749 000e 0AE0     		b	.L113
 1750              	.L115:
1258:.\Generated_Source\PSoC4/CapSense_CSD_CSHL.c ****     {
1259:.\Generated_Source\PSoC4/CapSense_CSD_CSHL.c ****         if (CapSense_CSD_CheckIsWidgetActive(i) != 0u)
 1751              		.loc 1 1259 0
 1752 0010 7B68     		ldr	r3, [r7, #4]
 1753 0012 181C     		mov	r0, r3
 1754 0014 FFF7FEFF 		bl	CapSense_CSD_CheckIsWidgetActive
 1755 0018 031E     		sub	r3, r0, #0
 1756 001a 01D0     		beq	.L114
1260:.\Generated_Source\PSoC4/CapSense_CSD_CSHL.c ****         {
1261:.\Generated_Source\PSoC4/CapSense_CSD_CSHL.c ****             state = CapSense_CSD_WIDGET_IS_ACTIVE;
 1757              		.loc 1 1261 0
 1758 001c 0123     		mov	r3, #1
 1759 001e 3B60     		str	r3, [r7]
 1760              	.L114:
1257:.\Generated_Source\PSoC4/CapSense_CSD_CSHL.c ****     {
 1761              		.loc 1 1257 0 discriminator 2
 1762 0020 7B68     		ldr	r3, [r7, #4]
 1763 0022 0133     		add	r3, r3, #1
 1764 0024 7B60     		str	r3, [r7, #4]
 1765              	.L113:
1257:.\Generated_Source\PSoC4/CapSense_CSD_CSHL.c ****     {
 1766              		.loc 1 1257 0 is_stmt 0 discriminator 1
 1767 0026 7B68     		ldr	r3, [r7, #4]
 1768 0028 012B     		cmp	r3, #1
 1769 002a F1D9     		bls	.L115
1262:.\Generated_Source\PSoC4/CapSense_CSD_CSHL.c ****         }
1263:.\Generated_Source\PSoC4/CapSense_CSD_CSHL.c ****     }
1264:.\Generated_Source\PSoC4/CapSense_CSD_CSHL.c ****     
1265:.\Generated_Source\PSoC4/CapSense_CSD_CSHL.c **** 
1266:.\Generated_Source\PSoC4/CapSense_CSD_CSHL.c **** 
1267:.\Generated_Source\PSoC4/CapSense_CSD_CSHL.c ****     return state;
 1770              		.loc 1 1267 0 is_stmt 1
 1771 002c 3B68     		ldr	r3, [r7]
1268:.\Generated_Source\PSoC4/CapSense_CSD_CSHL.c **** }
 1772              		.loc 1 1268 0
 1773 002e 181C     		mov	r0, r3
 1774 0030 BD46     		mov	sp, r7
 1775 0032 02B0     		add	sp, sp, #8
 1776              		@ sp needed
 1777 0034 80BD     		pop	{r7, pc}
 1778              		.cfi_endproc
 1779              	.LFE58:
 1780              		.size	CapSense_CSD_CheckIsAnyWidgetActive, .-CapSense_CSD_CheckIsAnyWidgetActive
 1781 0036 C046     		.section	.text.CapSense_CSD_EnableWidget,"ax",%progbits
 1782              		.align	2
 1783              		.global	CapSense_CSD_EnableWidget
 1784              		.code	16
 1785              		.thumb_func
ARM GAS  C:\Users\LUKASC~1\AppData\Local\Temp\ccrijgnB.s 			page 55


 1786              		.type	CapSense_CSD_EnableWidget, %function
 1787              	CapSense_CSD_EnableWidget:
 1788              	.LFB59:
1269:.\Generated_Source\PSoC4/CapSense_CSD_CSHL.c **** 
1270:.\Generated_Source\PSoC4/CapSense_CSD_CSHL.c **** 
1271:.\Generated_Source\PSoC4/CapSense_CSD_CSHL.c **** /*******************************************************************************
1272:.\Generated_Source\PSoC4/CapSense_CSD_CSHL.c **** * Function Name: CapSense_CSD_EnableWidget
1273:.\Generated_Source\PSoC4/CapSense_CSD_CSHL.c **** ********************************************************************************
1274:.\Generated_Source\PSoC4/CapSense_CSD_CSHL.c **** *
1275:.\Generated_Source\PSoC4/CapSense_CSD_CSHL.c **** * Summary:
1276:.\Generated_Source\PSoC4/CapSense_CSD_CSHL.c **** *  Enables all the widget elements (sensors) to the scanning process.
1277:.\Generated_Source\PSoC4/CapSense_CSD_CSHL.c **** *
1278:.\Generated_Source\PSoC4/CapSense_CSD_CSHL.c **** * Parameters:
1279:.\Generated_Source\PSoC4/CapSense_CSD_CSHL.c **** *  widget:  widget number.
1280:.\Generated_Source\PSoC4/CapSense_CSD_CSHL.c **** *
1281:.\Generated_Source\PSoC4/CapSense_CSD_CSHL.c **** * Return:
1282:.\Generated_Source\PSoC4/CapSense_CSD_CSHL.c **** *  None
1283:.\Generated_Source\PSoC4/CapSense_CSD_CSHL.c **** *
1284:.\Generated_Source\PSoC4/CapSense_CSD_CSHL.c **** * Global Variables:
1285:.\Generated_Source\PSoC4/CapSense_CSD_CSHL.c **** *  CapSense_CSD_sensorEnableMask[] - used to store the sensor scanning
1286:.\Generated_Source\PSoC4/CapSense_CSD_CSHL.c **** *  state.
1287:.\Generated_Source\PSoC4/CapSense_CSD_CSHL.c **** *  CapSense_CSD_sensorEnableMask[0] contains the masked bits for sensors
1288:.\Generated_Source\PSoC4/CapSense_CSD_CSHL.c **** *  0 through 7 (sensor 0 is bit 0, sensor 1 is bit 1).
1289:.\Generated_Source\PSoC4/CapSense_CSD_CSHL.c **** *  CapSense_CSD_sensorEnableMask[1] contains the masked bits for
1290:.\Generated_Source\PSoC4/CapSense_CSD_CSHL.c **** *  sensors 8 through 15 (if needed), and so on.
1291:.\Generated_Source\PSoC4/CapSense_CSD_CSHL.c **** *  0 - sensor doesn't scan by CapSense_CSD_ScanEnabledWidgets().
1292:.\Generated_Source\PSoC4/CapSense_CSD_CSHL.c **** *  1 - sensor scans by CapSense_CSD_ScanEnabledWidgets().
1293:.\Generated_Source\PSoC4/CapSense_CSD_CSHL.c **** *
1294:.\Generated_Source\PSoC4/CapSense_CSD_CSHL.c **** * Side Effects:
1295:.\Generated_Source\PSoC4/CapSense_CSD_CSHL.c **** *  None
1296:.\Generated_Source\PSoC4/CapSense_CSD_CSHL.c **** *
1297:.\Generated_Source\PSoC4/CapSense_CSD_CSHL.c **** *******************************************************************************/
1298:.\Generated_Source\PSoC4/CapSense_CSD_CSHL.c **** void CapSense_CSD_EnableWidget(uint32 widget)
1299:.\Generated_Source\PSoC4/CapSense_CSD_CSHL.c **** {
 1789              		.loc 1 1299 0
 1790              		.cfi_startproc
 1791 0000 80B5     		push	{r7, lr}
 1792              		.cfi_def_cfa_offset 8
 1793              		.cfi_offset 7, -8
 1794              		.cfi_offset 14, -4
 1795 0002 84B0     		sub	sp, sp, #16
 1796              		.cfi_def_cfa_offset 24
 1797 0004 00AF     		add	r7, sp, #0
 1798              		.cfi_def_cfa_register 7
 1799 0006 7860     		str	r0, [r7, #4]
1300:.\Generated_Source\PSoC4/CapSense_CSD_CSHL.c **** 
1301:.\Generated_Source\PSoC4/CapSense_CSD_CSHL.c ****     uint8 rawIndex = CapSense_CSD_rawDataIndex[widget];
 1800              		.loc 1 1301 0
 1801 0008 0F23     		mov	r3, #15
 1802 000a FB18     		add	r3, r7, r3
 1803 000c 1549     		ldr	r1, .L119
 1804 000e 7A68     		ldr	r2, [r7, #4]
 1805 0010 8A18     		add	r2, r1, r2
 1806 0012 1278     		ldrb	r2, [r2]
 1807 0014 1A70     		strb	r2, [r3]
1302:.\Generated_Source\PSoC4/CapSense_CSD_CSHL.c ****     uint8 numOfSensors = CapSense_CSD_numberOfSensors[widget] + rawIndex;
 1808              		.loc 1 1302 0
ARM GAS  C:\Users\LUKASC~1\AppData\Local\Temp\ccrijgnB.s 			page 56


 1809 0016 144A     		ldr	r2, .L119+4
 1810 0018 7B68     		ldr	r3, [r7, #4]
 1811 001a D318     		add	r3, r2, r3
 1812 001c 1978     		ldrb	r1, [r3]
 1813 001e 0E23     		mov	r3, #14
 1814 0020 FB18     		add	r3, r7, r3
 1815 0022 0F22     		mov	r2, #15
 1816 0024 BA18     		add	r2, r7, r2
 1817 0026 1278     		ldrb	r2, [r2]
 1818 0028 8A18     		add	r2, r1, r2
 1819 002a 1A70     		strb	r2, [r3]
 1820              	.L118:
1303:.\Generated_Source\PSoC4/CapSense_CSD_CSHL.c **** 
1304:.\Generated_Source\PSoC4/CapSense_CSD_CSHL.c ****     /* Enable all sensors of widget */
1305:.\Generated_Source\PSoC4/CapSense_CSD_CSHL.c ****     do
1306:.\Generated_Source\PSoC4/CapSense_CSD_CSHL.c ****     {
1307:.\Generated_Source\PSoC4/CapSense_CSD_CSHL.c ****         CapSense_CSD_SetBitValue(CapSense_CSD_sensorEnableMask, (uint32)rawIndex, 1u);
 1821              		.loc 1 1307 0 discriminator 1
 1822 002c 0F23     		mov	r3, #15
 1823 002e FB18     		add	r3, r7, r3
 1824 0030 1B78     		ldrb	r3, [r3]
 1825 0032 0E4A     		ldr	r2, .L119+8
 1826 0034 101C     		mov	r0, r2
 1827 0036 191C     		mov	r1, r3
 1828 0038 0122     		mov	r2, #1
 1829 003a FFF7FEFF 		bl	CapSense_CSD_SetBitValue
1308:.\Generated_Source\PSoC4/CapSense_CSD_CSHL.c ****         rawIndex++;
 1830              		.loc 1 1308 0 discriminator 1
 1831 003e 0F23     		mov	r3, #15
 1832 0040 FB18     		add	r3, r7, r3
 1833 0042 1A78     		ldrb	r2, [r3]
 1834 0044 0F23     		mov	r3, #15
 1835 0046 FB18     		add	r3, r7, r3
 1836 0048 0132     		add	r2, r2, #1
 1837 004a 1A70     		strb	r2, [r3]
1309:.\Generated_Source\PSoC4/CapSense_CSD_CSHL.c ****     }
1310:.\Generated_Source\PSoC4/CapSense_CSD_CSHL.c ****     while(rawIndex < numOfSensors);
 1838              		.loc 1 1310 0 discriminator 1
 1839 004c 0F23     		mov	r3, #15
 1840 004e FA18     		add	r2, r7, r3
 1841 0050 0E23     		mov	r3, #14
 1842 0052 FB18     		add	r3, r7, r3
 1843 0054 1278     		ldrb	r2, [r2]
 1844 0056 1B78     		ldrb	r3, [r3]
 1845 0058 9A42     		cmp	r2, r3
 1846 005a E7D3     		bcc	.L118
1311:.\Generated_Source\PSoC4/CapSense_CSD_CSHL.c **** }
 1847              		.loc 1 1311 0
 1848 005c BD46     		mov	sp, r7
 1849 005e 04B0     		add	sp, sp, #16
 1850              		@ sp needed
 1851 0060 80BD     		pop	{r7, pc}
 1852              	.L120:
 1853 0062 C046     		.align	2
 1854              	.L119:
 1855 0064 00000000 		.word	CapSense_CSD_rawDataIndex
 1856 0068 00000000 		.word	CapSense_CSD_numberOfSensors
ARM GAS  C:\Users\LUKASC~1\AppData\Local\Temp\ccrijgnB.s 			page 57


 1857 006c 00000000 		.word	CapSense_CSD_sensorEnableMask
 1858              		.cfi_endproc
 1859              	.LFE59:
 1860              		.size	CapSense_CSD_EnableWidget, .-CapSense_CSD_EnableWidget
 1861              		.section	.text.CapSense_CSD_DisableWidget,"ax",%progbits
 1862              		.align	2
 1863              		.global	CapSense_CSD_DisableWidget
 1864              		.code	16
 1865              		.thumb_func
 1866              		.type	CapSense_CSD_DisableWidget, %function
 1867              	CapSense_CSD_DisableWidget:
 1868              	.LFB60:
1312:.\Generated_Source\PSoC4/CapSense_CSD_CSHL.c **** 
1313:.\Generated_Source\PSoC4/CapSense_CSD_CSHL.c **** 
1314:.\Generated_Source\PSoC4/CapSense_CSD_CSHL.c **** /*******************************************************************************
1315:.\Generated_Source\PSoC4/CapSense_CSD_CSHL.c **** * Function Name: CapSense_CSD_DisableWidget
1316:.\Generated_Source\PSoC4/CapSense_CSD_CSHL.c **** ********************************************************************************
1317:.\Generated_Source\PSoC4/CapSense_CSD_CSHL.c **** *
1318:.\Generated_Source\PSoC4/CapSense_CSD_CSHL.c **** * Summary:
1319:.\Generated_Source\PSoC4/CapSense_CSD_CSHL.c **** *  Disables all the widget elements (sensors) from the scanning process.
1320:.\Generated_Source\PSoC4/CapSense_CSD_CSHL.c **** *
1321:.\Generated_Source\PSoC4/CapSense_CSD_CSHL.c **** * Parameters:
1322:.\Generated_Source\PSoC4/CapSense_CSD_CSHL.c **** *  widget:  widget number.
1323:.\Generated_Source\PSoC4/CapSense_CSD_CSHL.c **** *
1324:.\Generated_Source\PSoC4/CapSense_CSD_CSHL.c **** * Return:
1325:.\Generated_Source\PSoC4/CapSense_CSD_CSHL.c **** *  None
1326:.\Generated_Source\PSoC4/CapSense_CSD_CSHL.c **** *
1327:.\Generated_Source\PSoC4/CapSense_CSD_CSHL.c **** * Global Variables:
1328:.\Generated_Source\PSoC4/CapSense_CSD_CSHL.c **** *  CapSense_CSD_sensorEnableMask[] - used to store the sensor scanning
1329:.\Generated_Source\PSoC4/CapSense_CSD_CSHL.c **** *  state.
1330:.\Generated_Source\PSoC4/CapSense_CSD_CSHL.c **** *  CapSense_CSD_sensorEnableMask[0] contains the masked bits for sensors
1331:.\Generated_Source\PSoC4/CapSense_CSD_CSHL.c **** *  0 through 7 (sensor 0 is bit 0, sensor 1 is bit 1).
1332:.\Generated_Source\PSoC4/CapSense_CSD_CSHL.c **** *  CapSense_CSD_sensorEnableMask[1] contains the masked bits for
1333:.\Generated_Source\PSoC4/CapSense_CSD_CSHL.c **** *  sensors 8 through 15 (if needed), and so on.
1334:.\Generated_Source\PSoC4/CapSense_CSD_CSHL.c **** *  0 - sensor isn't scanned by CapSense_CSD_ScanEnabledWidgets().
1335:.\Generated_Source\PSoC4/CapSense_CSD_CSHL.c **** *  1 - sensor is scanned by CapSense_CSD_ScanEnabledWidgets().
1336:.\Generated_Source\PSoC4/CapSense_CSD_CSHL.c **** *
1337:.\Generated_Source\PSoC4/CapSense_CSD_CSHL.c **** * Side Effects:
1338:.\Generated_Source\PSoC4/CapSense_CSD_CSHL.c **** *  None
1339:.\Generated_Source\PSoC4/CapSense_CSD_CSHL.c **** *
1340:.\Generated_Source\PSoC4/CapSense_CSD_CSHL.c **** *******************************************************************************/
1341:.\Generated_Source\PSoC4/CapSense_CSD_CSHL.c **** void CapSense_CSD_DisableWidget(uint32 widget)
1342:.\Generated_Source\PSoC4/CapSense_CSD_CSHL.c **** {
 1869              		.loc 1 1342 0
 1870              		.cfi_startproc
 1871 0000 80B5     		push	{r7, lr}
 1872              		.cfi_def_cfa_offset 8
 1873              		.cfi_offset 7, -8
 1874              		.cfi_offset 14, -4
 1875 0002 84B0     		sub	sp, sp, #16
 1876              		.cfi_def_cfa_offset 24
 1877 0004 00AF     		add	r7, sp, #0
 1878              		.cfi_def_cfa_register 7
 1879 0006 7860     		str	r0, [r7, #4]
1343:.\Generated_Source\PSoC4/CapSense_CSD_CSHL.c ****     uint8 rawIndex = CapSense_CSD_rawDataIndex[widget];
 1880              		.loc 1 1343 0
 1881 0008 0F23     		mov	r3, #15
ARM GAS  C:\Users\LUKASC~1\AppData\Local\Temp\ccrijgnB.s 			page 58


 1882 000a FB18     		add	r3, r7, r3
 1883 000c 1549     		ldr	r1, .L123
 1884 000e 7A68     		ldr	r2, [r7, #4]
 1885 0010 8A18     		add	r2, r1, r2
 1886 0012 1278     		ldrb	r2, [r2]
 1887 0014 1A70     		strb	r2, [r3]
1344:.\Generated_Source\PSoC4/CapSense_CSD_CSHL.c ****     uint8 numOfSensors = CapSense_CSD_numberOfSensors[widget] + rawIndex;
 1888              		.loc 1 1344 0
 1889 0016 144A     		ldr	r2, .L123+4
 1890 0018 7B68     		ldr	r3, [r7, #4]
 1891 001a D318     		add	r3, r2, r3
 1892 001c 1978     		ldrb	r1, [r3]
 1893 001e 0E23     		mov	r3, #14
 1894 0020 FB18     		add	r3, r7, r3
 1895 0022 0F22     		mov	r2, #15
 1896 0024 BA18     		add	r2, r7, r2
 1897 0026 1278     		ldrb	r2, [r2]
 1898 0028 8A18     		add	r2, r1, r2
 1899 002a 1A70     		strb	r2, [r3]
 1900              	.L122:
1345:.\Generated_Source\PSoC4/CapSense_CSD_CSHL.c **** 
1346:.\Generated_Source\PSoC4/CapSense_CSD_CSHL.c ****     /* Disable all sensors of widget */
1347:.\Generated_Source\PSoC4/CapSense_CSD_CSHL.c ****     do
1348:.\Generated_Source\PSoC4/CapSense_CSD_CSHL.c ****     {
1349:.\Generated_Source\PSoC4/CapSense_CSD_CSHL.c **** 
1350:.\Generated_Source\PSoC4/CapSense_CSD_CSHL.c ****         CapSense_CSD_SetBitValue(CapSense_CSD_sensorEnableMask, (uint32)rawIndex, 0u);
 1901              		.loc 1 1350 0 discriminator 1
 1902 002c 0F23     		mov	r3, #15
 1903 002e FB18     		add	r3, r7, r3
 1904 0030 1B78     		ldrb	r3, [r3]
 1905 0032 0E4A     		ldr	r2, .L123+8
 1906 0034 101C     		mov	r0, r2
 1907 0036 191C     		mov	r1, r3
 1908 0038 0022     		mov	r2, #0
 1909 003a FFF7FEFF 		bl	CapSense_CSD_SetBitValue
1351:.\Generated_Source\PSoC4/CapSense_CSD_CSHL.c ****         rawIndex++;
 1910              		.loc 1 1351 0 discriminator 1
 1911 003e 0F23     		mov	r3, #15
 1912 0040 FB18     		add	r3, r7, r3
 1913 0042 1A78     		ldrb	r2, [r3]
 1914 0044 0F23     		mov	r3, #15
 1915 0046 FB18     		add	r3, r7, r3
 1916 0048 0132     		add	r2, r2, #1
 1917 004a 1A70     		strb	r2, [r3]
1352:.\Generated_Source\PSoC4/CapSense_CSD_CSHL.c ****     }
1353:.\Generated_Source\PSoC4/CapSense_CSD_CSHL.c ****     while(rawIndex < numOfSensors);
 1918              		.loc 1 1353 0 discriminator 1
 1919 004c 0F23     		mov	r3, #15
 1920 004e FA18     		add	r2, r7, r3
 1921 0050 0E23     		mov	r3, #14
 1922 0052 FB18     		add	r3, r7, r3
 1923 0054 1278     		ldrb	r2, [r2]
 1924 0056 1B78     		ldrb	r3, [r3]
 1925 0058 9A42     		cmp	r2, r3
 1926 005a E7D3     		bcc	.L122
1354:.\Generated_Source\PSoC4/CapSense_CSD_CSHL.c **** }
 1927              		.loc 1 1354 0
ARM GAS  C:\Users\LUKASC~1\AppData\Local\Temp\ccrijgnB.s 			page 59


 1928 005c BD46     		mov	sp, r7
 1929 005e 04B0     		add	sp, sp, #16
 1930              		@ sp needed
 1931 0060 80BD     		pop	{r7, pc}
 1932              	.L124:
 1933 0062 C046     		.align	2
 1934              	.L123:
 1935 0064 00000000 		.word	CapSense_CSD_rawDataIndex
 1936 0068 00000000 		.word	CapSense_CSD_numberOfSensors
 1937 006c 00000000 		.word	CapSense_CSD_sensorEnableMask
 1938              		.cfi_endproc
 1939              	.LFE60:
 1940              		.size	CapSense_CSD_DisableWidget, .-CapSense_CSD_DisableWidget
 1941              		.section	.text.CapSense_CSD_FindMaximum,"ax",%progbits
 1942              		.align	2
 1943              		.global	CapSense_CSD_FindMaximum
 1944              		.code	16
 1945              		.thumb_func
 1946              		.type	CapSense_CSD_FindMaximum, %function
 1947              	CapSense_CSD_FindMaximum:
 1948              	.LFB61:
1355:.\Generated_Source\PSoC4/CapSense_CSD_CSHL.c **** 
1356:.\Generated_Source\PSoC4/CapSense_CSD_CSHL.c **** 
1357:.\Generated_Source\PSoC4/CapSense_CSD_CSHL.c **** #if(CapSense_CSD_TOTAL_CENTROIDS_BASIC_COUNT)
1358:.\Generated_Source\PSoC4/CapSense_CSD_CSHL.c ****     /*******************************************************************************
1359:.\Generated_Source\PSoC4/CapSense_CSD_CSHL.c ****     * Function Name: CapSense_CSD_FindMaximum
1360:.\Generated_Source\PSoC4/CapSense_CSD_CSHL.c ****     ********************************************************************************
1361:.\Generated_Source\PSoC4/CapSense_CSD_CSHL.c ****     *
1362:.\Generated_Source\PSoC4/CapSense_CSD_CSHL.c ****     * Summary:
1363:.\Generated_Source\PSoC4/CapSense_CSD_CSHL.c ****     *  Finds the index of the maximum element within a defined centroid. Checks
1364:.\Generated_Source\PSoC4/CapSense_CSD_CSHL.c ****     *  CapSense_CSD_sensorSignal[] within a defined centroid and
1365:.\Generated_Source\PSoC4/CapSense_CSD_CSHL.c ****     *  returns the index of the maximum element. The values below the finger threshold are
1366:.\Generated_Source\PSoC4/CapSense_CSD_CSHL.c ****     *  ignored.
1367:.\Generated_Source\PSoC4/CapSense_CSD_CSHL.c ****     *  The centroid is defined by offset of the first element and a number of elements - count.
1368:.\Generated_Source\PSoC4/CapSense_CSD_CSHL.c ****     *  The diplexed centroid requires at least two consecutive elements above
1369:.\Generated_Source\PSoC4/CapSense_CSD_CSHL.c ****     *  FingerThreshold to find the index of the maximum element.
1370:.\Generated_Source\PSoC4/CapSense_CSD_CSHL.c ****     *
1371:.\Generated_Source\PSoC4/CapSense_CSD_CSHL.c ****     * Parameters:
1372:.\Generated_Source\PSoC4/CapSense_CSD_CSHL.c ****     *  offset:  Start index of centroid in CapSense_CSD_sensorSignal[] array.
1373:.\Generated_Source\PSoC4/CapSense_CSD_CSHL.c ****     *  count:   number of elements within centroid.
1374:.\Generated_Source\PSoC4/CapSense_CSD_CSHL.c ****     *  fingerThreshold:  Finger threshold.
1375:.\Generated_Source\PSoC4/CapSense_CSD_CSHL.c ****     *  diplex:   pointer to diplex table.
1376:.\Generated_Source\PSoC4/CapSense_CSD_CSHL.c ****     *
1377:.\Generated_Source\PSoC4/CapSense_CSD_CSHL.c ****     * Return:
1378:.\Generated_Source\PSoC4/CapSense_CSD_CSHL.c ****     *  Returns the index of the maximum element within a defined centroid.
1379:.\Generated_Source\PSoC4/CapSense_CSD_CSHL.c ****     *  If the index of the maximum element isn't found it returns 0xFF.
1380:.\Generated_Source\PSoC4/CapSense_CSD_CSHL.c ****     *
1381:.\Generated_Source\PSoC4/CapSense_CSD_CSHL.c ****     * Global Variables:
1382:.\Generated_Source\PSoC4/CapSense_CSD_CSHL.c ****     *  CapSense_CSD_startOfSlider[] - contains the index of the first slider element
1383:.\Generated_Source\PSoC4/CapSense_CSD_CSHL.c ****     *
1384:.\Generated_Source\PSoC4/CapSense_CSD_CSHL.c ****     * Side Effects:
1385:.\Generated_Source\PSoC4/CapSense_CSD_CSHL.c ****     *  None
1386:.\Generated_Source\PSoC4/CapSense_CSD_CSHL.c ****     *
1387:.\Generated_Source\PSoC4/CapSense_CSD_CSHL.c ****     *******************************************************************************/
1388:.\Generated_Source\PSoC4/CapSense_CSD_CSHL.c ****     #if (CapSense_CSD_IS_DIPLEX_SLIDER)
1389:.\Generated_Source\PSoC4/CapSense_CSD_CSHL.c ****         uint8 CapSense_CSD_FindMaximum(uint8 offset, uint8 count, uint8 fingerThreshold, const uint
1390:.\Generated_Source\PSoC4/CapSense_CSD_CSHL.c ****     #else
ARM GAS  C:\Users\LUKASC~1\AppData\Local\Temp\ccrijgnB.s 			page 60


1391:.\Generated_Source\PSoC4/CapSense_CSD_CSHL.c ****         uint8 CapSense_CSD_FindMaximum(uint8 offset, uint8 count, uint8 fingerThreshold)
1392:.\Generated_Source\PSoC4/CapSense_CSD_CSHL.c ****     #endif /* (CapSense_CSD_IS_DIPLEX_SLIDER) */
1393:.\Generated_Source\PSoC4/CapSense_CSD_CSHL.c ****     {
 1949              		.loc 1 1393 0
 1950              		.cfi_startproc
 1951 0000 90B5     		push	{r4, r7, lr}
 1952              		.cfi_def_cfa_offset 12
 1953              		.cfi_offset 4, -12
 1954              		.cfi_offset 7, -8
 1955              		.cfi_offset 14, -4
 1956 0002 85B0     		sub	sp, sp, #20
 1957              		.cfi_def_cfa_offset 32
 1958 0004 00AF     		add	r7, sp, #0
 1959              		.cfi_def_cfa_register 7
 1960 0006 041C     		mov	r4, r0
 1961 0008 081C     		mov	r0, r1
 1962 000a 111C     		mov	r1, r2
 1963 000c FB1D     		add	r3, r7, #7
 1964 000e 221C     		add	r2, r4, #0
 1965 0010 1A70     		strb	r2, [r3]
 1966 0012 BB1D     		add	r3, r7, #6
 1967 0014 021C     		add	r2, r0, #0
 1968 0016 1A70     		strb	r2, [r3]
 1969 0018 7B1D     		add	r3, r7, #5
 1970 001a 0A1C     		add	r2, r1, #0
 1971 001c 1A70     		strb	r2, [r3]
1394:.\Generated_Source\PSoC4/CapSense_CSD_CSHL.c ****         uint8 i;
1395:.\Generated_Source\PSoC4/CapSense_CSD_CSHL.c ****         #if (CapSense_CSD_IS_DIPLEX_SLIDER)
1396:.\Generated_Source\PSoC4/CapSense_CSD_CSHL.c ****             uint8 curPos = 0u;
1397:.\Generated_Source\PSoC4/CapSense_CSD_CSHL.c ****             /* No centroid at Start */
1398:.\Generated_Source\PSoC4/CapSense_CSD_CSHL.c ****             uint8 curCntrdSize = 0u;
1399:.\Generated_Source\PSoC4/CapSense_CSD_CSHL.c ****             uint8 curCtrdStartPos = CapSense_CSD_MAXIMUM_CENTROID;
1400:.\Generated_Source\PSoC4/CapSense_CSD_CSHL.c ****             /* Biggest centroid is zero */
1401:.\Generated_Source\PSoC4/CapSense_CSD_CSHL.c ****             uint8 biggestCtrdSize = 0u;
1402:.\Generated_Source\PSoC4/CapSense_CSD_CSHL.c ****             uint8 biggestCtrdStartPos = 0u;
1403:.\Generated_Source\PSoC4/CapSense_CSD_CSHL.c ****         #endif /* (CapSense_CSD_IS_DIPLEX_SLIDER) */
1404:.\Generated_Source\PSoC4/CapSense_CSD_CSHL.c ****         uint8 maximum = CapSense_CSD_MAXIMUM_CENTROID;
 1972              		.loc 1 1404 0
 1973 001e 0E23     		mov	r3, #14
 1974 0020 FB18     		add	r3, r7, r3
 1975 0022 FF22     		mov	r2, #255
 1976 0024 1A70     		strb	r2, [r3]
1405:.\Generated_Source\PSoC4/CapSense_CSD_CSHL.c **** 
1406:.\Generated_Source\PSoC4/CapSense_CSD_CSHL.c ****         uint8 temp = 0u;
 1977              		.loc 1 1406 0
 1978 0026 0D23     		mov	r3, #13
 1979 0028 FB18     		add	r3, r7, r3
 1980 002a 0022     		mov	r2, #0
 1981 002c 1A70     		strb	r2, [r3]
1407:.\Generated_Source\PSoC4/CapSense_CSD_CSHL.c ****         uint8 *startOfSlider = &CapSense_CSD_sensorSignal[offset];
 1982              		.loc 1 1407 0
 1983 002e FB1D     		add	r3, r7, #7
 1984 0030 1A78     		ldrb	r2, [r3]
 1985 0032 204B     		ldr	r3, .L130
 1986 0034 D318     		add	r3, r2, r3
 1987 0036 BB60     		str	r3, [r7, #8]
1408:.\Generated_Source\PSoC4/CapSense_CSD_CSHL.c **** 
ARM GAS  C:\Users\LUKASC~1\AppData\Local\Temp\ccrijgnB.s 			page 61


1409:.\Generated_Source\PSoC4/CapSense_CSD_CSHL.c ****         #if (CapSense_CSD_IS_DIPLEX_SLIDER)
1410:.\Generated_Source\PSoC4/CapSense_CSD_CSHL.c ****             if(diplex != 0u)
1411:.\Generated_Source\PSoC4/CapSense_CSD_CSHL.c ****             {
1412:.\Generated_Source\PSoC4/CapSense_CSD_CSHL.c ****                 /* Initialize */
1413:.\Generated_Source\PSoC4/CapSense_CSD_CSHL.c ****                 i = 0u;
1414:.\Generated_Source\PSoC4/CapSense_CSD_CSHL.c **** 
1415:.\Generated_Source\PSoC4/CapSense_CSD_CSHL.c ****                 /* Make slider x2 as Diplexed */
1416:.\Generated_Source\PSoC4/CapSense_CSD_CSHL.c ****                 count <<= 1u;
1417:.\Generated_Source\PSoC4/CapSense_CSD_CSHL.c ****                 while(1u)
1418:.\Generated_Source\PSoC4/CapSense_CSD_CSHL.c ****                 {
1419:.\Generated_Source\PSoC4/CapSense_CSD_CSHL.c ****                     if (startOfSlider[curPos] > 0u)    /* Looking for centroids */
1420:.\Generated_Source\PSoC4/CapSense_CSD_CSHL.c ****                     {
1421:.\Generated_Source\PSoC4/CapSense_CSD_CSHL.c ****                         if (curCtrdStartPos == CapSense_CSD_MAXIMUM_CENTROID)
1422:.\Generated_Source\PSoC4/CapSense_CSD_CSHL.c ****                         {
1423:.\Generated_Source\PSoC4/CapSense_CSD_CSHL.c ****                             /* Start of centroid */
1424:.\Generated_Source\PSoC4/CapSense_CSD_CSHL.c ****                             curCtrdStartPos = i;
1425:.\Generated_Source\PSoC4/CapSense_CSD_CSHL.c ****                             curCntrdSize++;
1426:.\Generated_Source\PSoC4/CapSense_CSD_CSHL.c ****                         }
1427:.\Generated_Source\PSoC4/CapSense_CSD_CSHL.c ****                         else
1428:.\Generated_Source\PSoC4/CapSense_CSD_CSHL.c ****                         {
1429:.\Generated_Source\PSoC4/CapSense_CSD_CSHL.c ****                             curCntrdSize++;
1430:.\Generated_Source\PSoC4/CapSense_CSD_CSHL.c ****                         }
1431:.\Generated_Source\PSoC4/CapSense_CSD_CSHL.c ****                     }
1432:.\Generated_Source\PSoC4/CapSense_CSD_CSHL.c ****                     else   /* Select biggest and indicate zero start */
1433:.\Generated_Source\PSoC4/CapSense_CSD_CSHL.c ****                     {
1434:.\Generated_Source\PSoC4/CapSense_CSD_CSHL.c ****                         if(curCntrdSize > 0u)
1435:.\Generated_Source\PSoC4/CapSense_CSD_CSHL.c ****                         {
1436:.\Generated_Source\PSoC4/CapSense_CSD_CSHL.c ****                             /* We are at the end of current */
1437:.\Generated_Source\PSoC4/CapSense_CSD_CSHL.c ****                             if(curCntrdSize > biggestCtrdSize)
1438:.\Generated_Source\PSoC4/CapSense_CSD_CSHL.c ****                             {
1439:.\Generated_Source\PSoC4/CapSense_CSD_CSHL.c ****                                 biggestCtrdSize = curCntrdSize;
1440:.\Generated_Source\PSoC4/CapSense_CSD_CSHL.c ****                                 biggestCtrdStartPos = curCtrdStartPos;
1441:.\Generated_Source\PSoC4/CapSense_CSD_CSHL.c ****                             }
1442:.\Generated_Source\PSoC4/CapSense_CSD_CSHL.c **** 
1443:.\Generated_Source\PSoC4/CapSense_CSD_CSHL.c ****                             curCntrdSize = 0u;
1444:.\Generated_Source\PSoC4/CapSense_CSD_CSHL.c ****                             curCtrdStartPos = CapSense_CSD_MAXIMUM_CENTROID;
1445:.\Generated_Source\PSoC4/CapSense_CSD_CSHL.c ****                         }
1446:.\Generated_Source\PSoC4/CapSense_CSD_CSHL.c ****                     }
1447:.\Generated_Source\PSoC4/CapSense_CSD_CSHL.c **** 
1448:.\Generated_Source\PSoC4/CapSense_CSD_CSHL.c ****                     i++;
1449:.\Generated_Source\PSoC4/CapSense_CSD_CSHL.c ****                     curPos = diplex[i];
1450:.\Generated_Source\PSoC4/CapSense_CSD_CSHL.c ****                     if(i == count)
1451:.\Generated_Source\PSoC4/CapSense_CSD_CSHL.c ****                     {
1452:.\Generated_Source\PSoC4/CapSense_CSD_CSHL.c ****                         break;
1453:.\Generated_Source\PSoC4/CapSense_CSD_CSHL.c ****                     }
1454:.\Generated_Source\PSoC4/CapSense_CSD_CSHL.c ****                 }
1455:.\Generated_Source\PSoC4/CapSense_CSD_CSHL.c **** 
1456:.\Generated_Source\PSoC4/CapSense_CSD_CSHL.c ****                     /* Find biggest centroid if two are same size, last one wins
1457:.\Generated_Source\PSoC4/CapSense_CSD_CSHL.c ****                        We are at the end of current */
1458:.\Generated_Source\PSoC4/CapSense_CSD_CSHL.c ****                 if (curCntrdSize >= biggestCtrdSize)
1459:.\Generated_Source\PSoC4/CapSense_CSD_CSHL.c ****                 {
1460:.\Generated_Source\PSoC4/CapSense_CSD_CSHL.c ****                     biggestCtrdSize = curCntrdSize;
1461:.\Generated_Source\PSoC4/CapSense_CSD_CSHL.c ****                     biggestCtrdStartPos = curCtrdStartPos;
1462:.\Generated_Source\PSoC4/CapSense_CSD_CSHL.c ****                 }
1463:.\Generated_Source\PSoC4/CapSense_CSD_CSHL.c ****             }
1464:.\Generated_Source\PSoC4/CapSense_CSD_CSHL.c ****             else
1465:.\Generated_Source\PSoC4/CapSense_CSD_CSHL.c ****             {
ARM GAS  C:\Users\LUKASC~1\AppData\Local\Temp\ccrijgnB.s 			page 62


1466:.\Generated_Source\PSoC4/CapSense_CSD_CSHL.c ****                 /* Without diplexing */
1467:.\Generated_Source\PSoC4/CapSense_CSD_CSHL.c ****                 biggestCtrdSize = count;
1468:.\Generated_Source\PSoC4/CapSense_CSD_CSHL.c ****             }
1469:.\Generated_Source\PSoC4/CapSense_CSD_CSHL.c **** 
1470:.\Generated_Source\PSoC4/CapSense_CSD_CSHL.c **** 
1471:.\Generated_Source\PSoC4/CapSense_CSD_CSHL.c ****             /* Check centroid size */
1472:.\Generated_Source\PSoC4/CapSense_CSD_CSHL.c ****             #if (CapSense_CSD_IS_NON_DIPLEX_SLIDER)
1473:.\Generated_Source\PSoC4/CapSense_CSD_CSHL.c ****                 if((biggestCtrdSize >= 2u) || ((biggestCtrdSize == 1u) && (diplex == 0u)))
1474:.\Generated_Source\PSoC4/CapSense_CSD_CSHL.c ****             #else
1475:.\Generated_Source\PSoC4/CapSense_CSD_CSHL.c ****                 if(biggestCtrdSize >= 2u)
1476:.\Generated_Source\PSoC4/CapSense_CSD_CSHL.c ****             #endif /* (CapSense_CSD_IS_NON_DIPLEX_SLIDER) */
1477:.\Generated_Source\PSoC4/CapSense_CSD_CSHL.c ****                 {
1478:.\Generated_Source\PSoC4/CapSense_CSD_CSHL.c ****                     for (i = biggestCtrdStartPos; i < (biggestCtrdStartPos + biggestCtrdSize); i++)
1479:.\Generated_Source\PSoC4/CapSense_CSD_CSHL.c ****                     {
1480:.\Generated_Source\PSoC4/CapSense_CSD_CSHL.c ****                         #if (CapSense_CSD_IS_DIPLEX_SLIDER && CapSense_CSD_IS_NON_DIPLEX_SLIDER)
1481:.\Generated_Source\PSoC4/CapSense_CSD_CSHL.c ****                             if (diplex == 0u)
1482:.\Generated_Source\PSoC4/CapSense_CSD_CSHL.c ****                             {
1483:.\Generated_Source\PSoC4/CapSense_CSD_CSHL.c ****                                 curPos = i;
1484:.\Generated_Source\PSoC4/CapSense_CSD_CSHL.c ****                             }
1485:.\Generated_Source\PSoC4/CapSense_CSD_CSHL.c ****                             else
1486:.\Generated_Source\PSoC4/CapSense_CSD_CSHL.c ****                             {
1487:.\Generated_Source\PSoC4/CapSense_CSD_CSHL.c ****                                 curPos = diplex[i];
1488:.\Generated_Source\PSoC4/CapSense_CSD_CSHL.c ****                             }
1489:.\Generated_Source\PSoC4/CapSense_CSD_CSHL.c ****                         #elif (CapSense_CSD_IS_DIPLEX_SLIDER)
1490:.\Generated_Source\PSoC4/CapSense_CSD_CSHL.c ****                             curPos = diplex[i];
1491:.\Generated_Source\PSoC4/CapSense_CSD_CSHL.c ****                         #endif /* (CapSense_CSD_IS_DIPLEX_SLIDER && CapSense_CSD_IS_NON_DIPLEX_SLID
1492:.\Generated_Source\PSoC4/CapSense_CSD_CSHL.c ****                         /* Looking for greater element within centroid */
1493:.\Generated_Source\PSoC4/CapSense_CSD_CSHL.c ****                         if(startOfSlider[curPos] > fingerThreshold)
1494:.\Generated_Source\PSoC4/CapSense_CSD_CSHL.c ****                         {
1495:.\Generated_Source\PSoC4/CapSense_CSD_CSHL.c ****                             if(startOfSlider[curPos] > temp)
1496:.\Generated_Source\PSoC4/CapSense_CSD_CSHL.c ****                             {
1497:.\Generated_Source\PSoC4/CapSense_CSD_CSHL.c ****                                 maximum = i;
1498:.\Generated_Source\PSoC4/CapSense_CSD_CSHL.c ****                                 temp = startOfSlider[curPos];
1499:.\Generated_Source\PSoC4/CapSense_CSD_CSHL.c ****                             }
1500:.\Generated_Source\PSoC4/CapSense_CSD_CSHL.c ****                         }
1501:.\Generated_Source\PSoC4/CapSense_CSD_CSHL.c ****                     }
1502:.\Generated_Source\PSoC4/CapSense_CSD_CSHL.c ****                 }
1503:.\Generated_Source\PSoC4/CapSense_CSD_CSHL.c ****         #else
1504:.\Generated_Source\PSoC4/CapSense_CSD_CSHL.c ****             for (i = 0u; i < count; i++)
 1988              		.loc 1 1504 0
 1989 0038 0F23     		mov	r3, #15
 1990 003a FB18     		add	r3, r7, r3
 1991 003c 0022     		mov	r2, #0
 1992 003e 1A70     		strb	r2, [r3]
 1993 0040 2AE0     		b	.L126
 1994              	.L128:
1505:.\Generated_Source\PSoC4/CapSense_CSD_CSHL.c ****             {
1506:.\Generated_Source\PSoC4/CapSense_CSD_CSHL.c ****                 /* Looking for greater element within centroid */
1507:.\Generated_Source\PSoC4/CapSense_CSD_CSHL.c ****                 if(startOfSlider[i] > fingerThreshold)
 1995              		.loc 1 1507 0
 1996 0042 0F23     		mov	r3, #15
 1997 0044 FB18     		add	r3, r7, r3
 1998 0046 1B78     		ldrb	r3, [r3]
 1999 0048 BA68     		ldr	r2, [r7, #8]
 2000 004a D318     		add	r3, r2, r3
 2001 004c 1B78     		ldrb	r3, [r3]
 2002 004e 7A1D     		add	r2, r7, #5
ARM GAS  C:\Users\LUKASC~1\AppData\Local\Temp\ccrijgnB.s 			page 63


 2003 0050 1278     		ldrb	r2, [r2]
 2004 0052 9A42     		cmp	r2, r3
 2005 0054 19D2     		bcs	.L127
1508:.\Generated_Source\PSoC4/CapSense_CSD_CSHL.c ****                 {
1509:.\Generated_Source\PSoC4/CapSense_CSD_CSHL.c ****                     if(startOfSlider[i] > temp)
 2006              		.loc 1 1509 0
 2007 0056 0F23     		mov	r3, #15
 2008 0058 FB18     		add	r3, r7, r3
 2009 005a 1B78     		ldrb	r3, [r3]
 2010 005c BA68     		ldr	r2, [r7, #8]
 2011 005e D318     		add	r3, r2, r3
 2012 0060 1B78     		ldrb	r3, [r3]
 2013 0062 0D22     		mov	r2, #13
 2014 0064 BA18     		add	r2, r7, r2
 2015 0066 1278     		ldrb	r2, [r2]
 2016 0068 9A42     		cmp	r2, r3
 2017 006a 0ED2     		bcs	.L127
1510:.\Generated_Source\PSoC4/CapSense_CSD_CSHL.c ****                     {
1511:.\Generated_Source\PSoC4/CapSense_CSD_CSHL.c ****                         maximum = i;
 2018              		.loc 1 1511 0
 2019 006c 0E23     		mov	r3, #14
 2020 006e FB18     		add	r3, r7, r3
 2021 0070 0F22     		mov	r2, #15
 2022 0072 BA18     		add	r2, r7, r2
 2023 0074 1278     		ldrb	r2, [r2]
 2024 0076 1A70     		strb	r2, [r3]
1512:.\Generated_Source\PSoC4/CapSense_CSD_CSHL.c ****                         temp = startOfSlider[i];
 2025              		.loc 1 1512 0
 2026 0078 0F23     		mov	r3, #15
 2027 007a FB18     		add	r3, r7, r3
 2028 007c 1B78     		ldrb	r3, [r3]
 2029 007e BA68     		ldr	r2, [r7, #8]
 2030 0080 D218     		add	r2, r2, r3
 2031 0082 0D23     		mov	r3, #13
 2032 0084 FB18     		add	r3, r7, r3
 2033 0086 1278     		ldrb	r2, [r2]
 2034 0088 1A70     		strb	r2, [r3]
 2035              	.L127:
1504:.\Generated_Source\PSoC4/CapSense_CSD_CSHL.c ****             {
 2036              		.loc 1 1504 0 discriminator 2
 2037 008a 0F23     		mov	r3, #15
 2038 008c FB18     		add	r3, r7, r3
 2039 008e 1A78     		ldrb	r2, [r3]
 2040 0090 0F23     		mov	r3, #15
 2041 0092 FB18     		add	r3, r7, r3
 2042 0094 0132     		add	r2, r2, #1
 2043 0096 1A70     		strb	r2, [r3]
 2044              	.L126:
1504:.\Generated_Source\PSoC4/CapSense_CSD_CSHL.c ****             {
 2045              		.loc 1 1504 0 is_stmt 0 discriminator 1
 2046 0098 0F23     		mov	r3, #15
 2047 009a FA18     		add	r2, r7, r3
 2048 009c BB1D     		add	r3, r7, #6
 2049 009e 1278     		ldrb	r2, [r2]
 2050 00a0 1B78     		ldrb	r3, [r3]
 2051 00a2 9A42     		cmp	r2, r3
 2052 00a4 CDD3     		bcc	.L128
ARM GAS  C:\Users\LUKASC~1\AppData\Local\Temp\ccrijgnB.s 			page 64


1513:.\Generated_Source\PSoC4/CapSense_CSD_CSHL.c ****                     }
1514:.\Generated_Source\PSoC4/CapSense_CSD_CSHL.c ****                 }
1515:.\Generated_Source\PSoC4/CapSense_CSD_CSHL.c ****             }
1516:.\Generated_Source\PSoC4/CapSense_CSD_CSHL.c ****         #endif /* (CapSense_CSD_IS_DIPLEX_SLIDER) */
1517:.\Generated_Source\PSoC4/CapSense_CSD_CSHL.c ****         return (maximum);
 2053              		.loc 1 1517 0 is_stmt 1
 2054 00a6 0E23     		mov	r3, #14
 2055 00a8 FB18     		add	r3, r7, r3
 2056 00aa 1B78     		ldrb	r3, [r3]
1518:.\Generated_Source\PSoC4/CapSense_CSD_CSHL.c ****     }
 2057              		.loc 1 1518 0
 2058 00ac 181C     		mov	r0, r3
 2059 00ae BD46     		mov	sp, r7
 2060 00b0 05B0     		add	sp, sp, #20
 2061              		@ sp needed
 2062 00b2 90BD     		pop	{r4, r7, pc}
 2063              	.L131:
 2064              		.align	2
 2065              	.L130:
 2066 00b4 00000000 		.word	CapSense_CSD_sensorSignal
 2067              		.cfi_endproc
 2068              	.LFE61:
 2069              		.size	CapSense_CSD_FindMaximum, .-CapSense_CSD_FindMaximum
 2070              		.global	__aeabi_idiv
 2071              		.section	.text.CapSense_CSD_CalcCentroid,"ax",%progbits
 2072              		.align	2
 2073              		.global	CapSense_CSD_CalcCentroid
 2074              		.code	16
 2075              		.thumb_func
 2076              		.type	CapSense_CSD_CalcCentroid, %function
 2077              	CapSense_CSD_CalcCentroid:
 2078              	.LFB62:
1519:.\Generated_Source\PSoC4/CapSense_CSD_CSHL.c **** 
1520:.\Generated_Source\PSoC4/CapSense_CSD_CSHL.c **** 
1521:.\Generated_Source\PSoC4/CapSense_CSD_CSHL.c ****     /*******************************************************************************
1522:.\Generated_Source\PSoC4/CapSense_CSD_CSHL.c ****     * Function Name: CapSense_CSD_CalcCentroid
1523:.\Generated_Source\PSoC4/CapSense_CSD_CSHL.c ****     ********************************************************************************
1524:.\Generated_Source\PSoC4/CapSense_CSD_CSHL.c ****     *
1525:.\Generated_Source\PSoC4/CapSense_CSD_CSHL.c ****     * Summary:
1526:.\Generated_Source\PSoC4/CapSense_CSD_CSHL.c ****     *  Returns a position value calculated according to the index of the maximum element and API
1527:.\Generated_Source\PSoC4/CapSense_CSD_CSHL.c ****     *  resolution.
1528:.\Generated_Source\PSoC4/CapSense_CSD_CSHL.c ****     *
1529:.\Generated_Source\PSoC4/CapSense_CSD_CSHL.c ****     * Parameters:
1530:.\Generated_Source\PSoC4/CapSense_CSD_CSHL.c ****     *  type:  widget type.
1531:.\Generated_Source\PSoC4/CapSense_CSD_CSHL.c ****     *  diplex:  pointer to diplex table.
1532:.\Generated_Source\PSoC4/CapSense_CSD_CSHL.c ****     *  maximum:  Index of maximum element within centroid.
1533:.\Generated_Source\PSoC4/CapSense_CSD_CSHL.c ****     *  offset:   Start index of centroid in CapSense_CSD_sensorSignal[] array.
1534:.\Generated_Source\PSoC4/CapSense_CSD_CSHL.c ****     *  count:    Number of elements within centroid.
1535:.\Generated_Source\PSoC4/CapSense_CSD_CSHL.c ****     *  resolution:  multiplicator calculated according to centroid type and
1536:.\Generated_Source\PSoC4/CapSense_CSD_CSHL.c ****     *  API resolution.
1537:.\Generated_Source\PSoC4/CapSense_CSD_CSHL.c ****     *  noiseThreshold:  Noise threshold.
1538:.\Generated_Source\PSoC4/CapSense_CSD_CSHL.c ****     *
1539:.\Generated_Source\PSoC4/CapSense_CSD_CSHL.c ****     * Return:
1540:.\Generated_Source\PSoC4/CapSense_CSD_CSHL.c ****     *  Returns a position value of the slider.
1541:.\Generated_Source\PSoC4/CapSense_CSD_CSHL.c ****     *
1542:.\Generated_Source\PSoC4/CapSense_CSD_CSHL.c ****     * Side Effects:
1543:.\Generated_Source\PSoC4/CapSense_CSD_CSHL.c ****     *  None
ARM GAS  C:\Users\LUKASC~1\AppData\Local\Temp\ccrijgnB.s 			page 65


1544:.\Generated_Source\PSoC4/CapSense_CSD_CSHL.c ****     *
1545:.\Generated_Source\PSoC4/CapSense_CSD_CSHL.c ****     *******************************************************************************/
1546:.\Generated_Source\PSoC4/CapSense_CSD_CSHL.c **** #if (CapSense_CSD_TOTAL_TRACKPAD_GESTURES_COUNT > 0u)
1547:.\Generated_Source\PSoC4/CapSense_CSD_CSHL.c ****     uint8 CapSense_CSD_CalcCentroid(uint8 maximum, uint8 offset,
1548:.\Generated_Source\PSoC4/CapSense_CSD_CSHL.c ****                                         uint8 count, uint32 resolution, uint8 noiseThreshold)
1549:.\Generated_Source\PSoC4/CapSense_CSD_CSHL.c **** #else
1550:.\Generated_Source\PSoC4/CapSense_CSD_CSHL.c ****     uint8 CapSense_CSD_CalcCentroid(uint8 maximum, uint8 offset,
1551:.\Generated_Source\PSoC4/CapSense_CSD_CSHL.c ****                                         uint8 count, uint16 resolution, uint8 noiseThreshold)
1552:.\Generated_Source\PSoC4/CapSense_CSD_CSHL.c **** #endif /* (CapSense_CSD_TOTAL_TRACKPAD_GESTURES_COUNT > 0u) */
1553:.\Generated_Source\PSoC4/CapSense_CSD_CSHL.c ****     {
 2079              		.loc 1 1553 0
 2080              		.cfi_startproc
 2081 0000 B0B5     		push	{r4, r5, r7, lr}
 2082              		.cfi_def_cfa_offset 16
 2083              		.cfi_offset 4, -16
 2084              		.cfi_offset 5, -12
 2085              		.cfi_offset 7, -8
 2086              		.cfi_offset 14, -4
 2087 0002 88B0     		sub	sp, sp, #32
 2088              		.cfi_def_cfa_offset 48
 2089 0004 00AF     		add	r7, sp, #0
 2090              		.cfi_def_cfa_register 7
 2091 0006 051C     		mov	r5, r0
 2092 0008 0C1C     		mov	r4, r1
 2093 000a 101C     		mov	r0, r2
 2094 000c 191C     		mov	r1, r3
 2095 000e FB1D     		add	r3, r7, #7
 2096 0010 2A1C     		add	r2, r5, #0
 2097 0012 1A70     		strb	r2, [r3]
 2098 0014 BB1D     		add	r3, r7, #6
 2099 0016 221C     		add	r2, r4, #0
 2100 0018 1A70     		strb	r2, [r3]
 2101 001a 7B1D     		add	r3, r7, #5
 2102 001c 021C     		add	r2, r0, #0
 2103 001e 1A70     		strb	r2, [r3]
 2104 0020 BB1C     		add	r3, r7, #2
 2105 0022 0A1C     		add	r2, r1, #0
 2106 0024 1A80     		strh	r2, [r3]
1554:.\Generated_Source\PSoC4/CapSense_CSD_CSHL.c ****         #if ((CapSense_CSD_TOTAL_LINEAR_SLIDERS_COUNT > 0u) || (CapSense_CSD_TOTAL_TOUCH_PADS_BASIC
1555:.\Generated_Source\PSoC4/CapSense_CSD_CSHL.c ****             uint8 posPrev;
1556:.\Generated_Source\PSoC4/CapSense_CSD_CSHL.c ****             uint8 posNext;
1557:.\Generated_Source\PSoC4/CapSense_CSD_CSHL.c ****         #endif /* ((CapSense_CSD_TOTAL_LINEAR_SLIDERS_COUNT>0u) || (CapSense_CSD_TOTAL_TOUCH_PADS_B
1558:.\Generated_Source\PSoC4/CapSense_CSD_CSHL.c **** 
1559:.\Generated_Source\PSoC4/CapSense_CSD_CSHL.c ****         /* Helps during centroid calculation */
1560:.\Generated_Source\PSoC4/CapSense_CSD_CSHL.c ****         #if (CapSense_CSD_TOTAL_CENTROIDS_BASIC_COUNT)
1561:.\Generated_Source\PSoC4/CapSense_CSD_CSHL.c ****             static uint8 CapSense_CSD_centroid[3u];
1562:.\Generated_Source\PSoC4/CapSense_CSD_CSHL.c ****         #endif  /* (CapSense_CSD_TOTAL_CENTROIDS_BASIC_COUNT) */
1563:.\Generated_Source\PSoC4/CapSense_CSD_CSHL.c **** 
1564:.\Generated_Source\PSoC4/CapSense_CSD_CSHL.c ****         #if (CapSense_CSD_IS_DIPLEX_SLIDER)
1565:.\Generated_Source\PSoC4/CapSense_CSD_CSHL.c ****             uint8 pos;
1566:.\Generated_Source\PSoC4/CapSense_CSD_CSHL.c ****         #endif /* (CapSense_CSD_IS_DIPLEX_SLIDER) */
1567:.\Generated_Source\PSoC4/CapSense_CSD_CSHL.c **** 
1568:.\Generated_Source\PSoC4/CapSense_CSD_CSHL.c ****         uint8 position;
1569:.\Generated_Source\PSoC4/CapSense_CSD_CSHL.c ****         uint32 numerator;
1570:.\Generated_Source\PSoC4/CapSense_CSD_CSHL.c ****         int32 denominator;
1571:.\Generated_Source\PSoC4/CapSense_CSD_CSHL.c **** 
1572:.\Generated_Source\PSoC4/CapSense_CSD_CSHL.c ****         uint8  *startOfSlider = &CapSense_CSD_sensorSignal[offset];
ARM GAS  C:\Users\LUKASC~1\AppData\Local\Temp\ccrijgnB.s 			page 66


 2107              		.loc 1 1572 0
 2108 0026 BB1D     		add	r3, r7, #6
 2109 0028 1A78     		ldrb	r2, [r3]
 2110 002a 5B4B     		ldr	r3, .L142
 2111 002c D318     		add	r3, r2, r3
 2112 002e BB61     		str	r3, [r7, #24]
1573:.\Generated_Source\PSoC4/CapSense_CSD_CSHL.c **** 
1574:.\Generated_Source\PSoC4/CapSense_CSD_CSHL.c ****         #if ((CapSense_CSD_TOTAL_LINEAR_SLIDERS_COUNT > 0u) || (CapSense_CSD_TOTAL_TOUCH_PADS_BASIC
1575:.\Generated_Source\PSoC4/CapSense_CSD_CSHL.c ****             posPrev = 0u;
 2113              		.loc 1 1575 0
 2114 0030 1F23     		mov	r3, #31
 2115 0032 FB18     		add	r3, r7, r3
 2116 0034 0022     		mov	r2, #0
 2117 0036 1A70     		strb	r2, [r3]
1576:.\Generated_Source\PSoC4/CapSense_CSD_CSHL.c ****         #endif /* ((CapSense_CSD_TOTAL_LINEAR_SLIDERS_COUNT>0u) || (CapSense_CSD_TOTAL_TOUCH_PADS_B
1577:.\Generated_Source\PSoC4/CapSense_CSD_CSHL.c **** 
1578:.\Generated_Source\PSoC4/CapSense_CSD_CSHL.c ****         #if (CapSense_CSD_ADD_SLIDER_TYPE)
1579:.\Generated_Source\PSoC4/CapSense_CSD_CSHL.c ****             if(type == CapSense_CSD_TYPE_RADIAL_SLIDER)
1580:.\Generated_Source\PSoC4/CapSense_CSD_CSHL.c ****             {
1581:.\Generated_Source\PSoC4/CapSense_CSD_CSHL.c ****         #endif /* (CapSense_CSD_ADD_SLIDER_TYPE) */
1582:.\Generated_Source\PSoC4/CapSense_CSD_CSHL.c **** 
1583:.\Generated_Source\PSoC4/CapSense_CSD_CSHL.c ****             #if (CapSense_CSD_TOTAL_RADIAL_SLIDERS_COUNT > 0u)
1584:.\Generated_Source\PSoC4/CapSense_CSD_CSHL.c ****                 /* Copy Signal to the centroid array */
1585:.\Generated_Source\PSoC4/CapSense_CSD_CSHL.c ****                 CapSense_CSD_centroid[CapSense_CSD_POS] = startOfSlider[maximum];
1586:.\Generated_Source\PSoC4/CapSense_CSD_CSHL.c **** 
1587:.\Generated_Source\PSoC4/CapSense_CSD_CSHL.c ****                 /* Check borders for ROTARY Slider */
1588:.\Generated_Source\PSoC4/CapSense_CSD_CSHL.c ****                 if (maximum == 0u)                   /* Start of centroid */
1589:.\Generated_Source\PSoC4/CapSense_CSD_CSHL.c ****                 {
1590:.\Generated_Source\PSoC4/CapSense_CSD_CSHL.c ****                     CapSense_CSD_centroid[CapSense_CSD_POS_PREV] = startOfSlider[count - 1u];
1591:.\Generated_Source\PSoC4/CapSense_CSD_CSHL.c ****                     CapSense_CSD_centroid[CapSense_CSD_POS_NEXT] = startOfSlider[1u];
1592:.\Generated_Source\PSoC4/CapSense_CSD_CSHL.c ****                 }
1593:.\Generated_Source\PSoC4/CapSense_CSD_CSHL.c ****                 else if (maximum == (count - 1u))    /* End of centroid */
1594:.\Generated_Source\PSoC4/CapSense_CSD_CSHL.c ****                 {
1595:.\Generated_Source\PSoC4/CapSense_CSD_CSHL.c ****                     CapSense_CSD_centroid[CapSense_CSD_POS_PREV] = startOfSlider[maximum - 1u];
1596:.\Generated_Source\PSoC4/CapSense_CSD_CSHL.c ****                     CapSense_CSD_centroid[CapSense_CSD_POS_NEXT] = startOfSlider[0u];
1597:.\Generated_Source\PSoC4/CapSense_CSD_CSHL.c ****                 }
1598:.\Generated_Source\PSoC4/CapSense_CSD_CSHL.c ****                 else                                /* Not first Not last */
1599:.\Generated_Source\PSoC4/CapSense_CSD_CSHL.c ****                 {
1600:.\Generated_Source\PSoC4/CapSense_CSD_CSHL.c ****                     CapSense_CSD_centroid[CapSense_CSD_POS_PREV] = startOfSlider[maximum - 1u];
1601:.\Generated_Source\PSoC4/CapSense_CSD_CSHL.c ****                     CapSense_CSD_centroid[CapSense_CSD_POS_NEXT] = startOfSlider[maximum + 1u];
1602:.\Generated_Source\PSoC4/CapSense_CSD_CSHL.c ****                 }
1603:.\Generated_Source\PSoC4/CapSense_CSD_CSHL.c ****             #endif /* (CapSense_CSD_TOTAL_RADIAL_SLIDERS_COUNT > 0u) */
1604:.\Generated_Source\PSoC4/CapSense_CSD_CSHL.c **** 
1605:.\Generated_Source\PSoC4/CapSense_CSD_CSHL.c ****         #if (CapSense_CSD_ADD_SLIDER_TYPE)
1606:.\Generated_Source\PSoC4/CapSense_CSD_CSHL.c ****             }
1607:.\Generated_Source\PSoC4/CapSense_CSD_CSHL.c ****             else
1608:.\Generated_Source\PSoC4/CapSense_CSD_CSHL.c ****             {
1609:.\Generated_Source\PSoC4/CapSense_CSD_CSHL.c ****         #endif /* (CapSense_CSD_ADD_SLIDER_TYPE) */
1610:.\Generated_Source\PSoC4/CapSense_CSD_CSHL.c **** 
1611:.\Generated_Source\PSoC4/CapSense_CSD_CSHL.c ****             #if ((CapSense_CSD_TOTAL_LINEAR_SLIDERS_COUNT > 0u) || (CapSense_CSD_TOTAL_TOUCH_PADS_B
1612:.\Generated_Source\PSoC4/CapSense_CSD_CSHL.c ****                 #if (CapSense_CSD_IS_DIPLEX_SLIDER && CapSense_CSD_IS_NON_DIPLEX_SLIDER)
1613:.\Generated_Source\PSoC4/CapSense_CSD_CSHL.c ****                     /* Calculate next and previous near to maximum */
1614:.\Generated_Source\PSoC4/CapSense_CSD_CSHL.c ****                     if(diplex == 0u)
1615:.\Generated_Source\PSoC4/CapSense_CSD_CSHL.c ****                     {
1616:.\Generated_Source\PSoC4/CapSense_CSD_CSHL.c ****                         pos     = maximum;
1617:.\Generated_Source\PSoC4/CapSense_CSD_CSHL.c ****                         posPrev = maximum - 1u;
1618:.\Generated_Source\PSoC4/CapSense_CSD_CSHL.c ****                         posNext = maximum + 1u;
ARM GAS  C:\Users\LUKASC~1\AppData\Local\Temp\ccrijgnB.s 			page 67


1619:.\Generated_Source\PSoC4/CapSense_CSD_CSHL.c ****                     }
1620:.\Generated_Source\PSoC4/CapSense_CSD_CSHL.c ****                     else
1621:.\Generated_Source\PSoC4/CapSense_CSD_CSHL.c ****                     {
1622:.\Generated_Source\PSoC4/CapSense_CSD_CSHL.c ****                         pos     = diplex[maximum];
1623:.\Generated_Source\PSoC4/CapSense_CSD_CSHL.c ****                         posPrev = diplex[maximum - 1u];
1624:.\Generated_Source\PSoC4/CapSense_CSD_CSHL.c ****                         posNext = diplex[maximum + 1u];
1625:.\Generated_Source\PSoC4/CapSense_CSD_CSHL.c ****                         count <<= 1u;
1626:.\Generated_Source\PSoC4/CapSense_CSD_CSHL.c ****                     }
1627:.\Generated_Source\PSoC4/CapSense_CSD_CSHL.c ****                 #elif (CapSense_CSD_IS_DIPLEX_SLIDER)
1628:.\Generated_Source\PSoC4/CapSense_CSD_CSHL.c ****                     /* Calculate next and previous near to maximum */
1629:.\Generated_Source\PSoC4/CapSense_CSD_CSHL.c ****                     pos     = diplex[maximum];
1630:.\Generated_Source\PSoC4/CapSense_CSD_CSHL.c ****                     posPrev = diplex[maximum - 1u];
1631:.\Generated_Source\PSoC4/CapSense_CSD_CSHL.c ****                     posNext = diplex[maximum + 1u];
1632:.\Generated_Source\PSoC4/CapSense_CSD_CSHL.c ****                     count <<= 1u;
1633:.\Generated_Source\PSoC4/CapSense_CSD_CSHL.c ****                 #else
1634:.\Generated_Source\PSoC4/CapSense_CSD_CSHL.c ****                     /* Calculate next and previous near to maximum */
1635:.\Generated_Source\PSoC4/CapSense_CSD_CSHL.c ****                     if (maximum >= 1u)
 2118              		.loc 1 1635 0
 2119 0038 FB1D     		add	r3, r7, #7
 2120 003a 1B78     		ldrb	r3, [r3]
 2121 003c 002B     		cmp	r3, #0
 2122 003e 05D0     		beq	.L133
1636:.\Generated_Source\PSoC4/CapSense_CSD_CSHL.c ****                     {
1637:.\Generated_Source\PSoC4/CapSense_CSD_CSHL.c ****                         posPrev = maximum - 1u;
 2123              		.loc 1 1637 0
 2124 0040 1F23     		mov	r3, #31
 2125 0042 FB18     		add	r3, r7, r3
 2126 0044 FA1D     		add	r2, r7, #7
 2127 0046 1278     		ldrb	r2, [r2]
 2128 0048 013A     		sub	r2, r2, #1
 2129 004a 1A70     		strb	r2, [r3]
 2130              	.L133:
1638:.\Generated_Source\PSoC4/CapSense_CSD_CSHL.c ****                     }
1639:.\Generated_Source\PSoC4/CapSense_CSD_CSHL.c ****                     posNext = maximum + 1u;
 2131              		.loc 1 1639 0
 2132 004c 1723     		mov	r3, #23
 2133 004e FB18     		add	r3, r7, r3
 2134 0050 FA1D     		add	r2, r7, #7
 2135 0052 1278     		ldrb	r2, [r2]
 2136 0054 0132     		add	r2, r2, #1
 2137 0056 1A70     		strb	r2, [r3]
1640:.\Generated_Source\PSoC4/CapSense_CSD_CSHL.c ****                 #endif /* (CapSense_CSD_IS_DIPLEX_SLIDER && CapSense_CSD_IS_NON_DIPLEX_SLIDER) */
1641:.\Generated_Source\PSoC4/CapSense_CSD_CSHL.c **** 
1642:.\Generated_Source\PSoC4/CapSense_CSD_CSHL.c ****                 /* Copy Signal to the centroid array */
1643:.\Generated_Source\PSoC4/CapSense_CSD_CSHL.c ****                 #if (CapSense_CSD_IS_DIPLEX_SLIDER)
1644:.\Generated_Source\PSoC4/CapSense_CSD_CSHL.c ****                     CapSense_CSD_centroid[CapSense_CSD_POS] = startOfSlider[pos];
1645:.\Generated_Source\PSoC4/CapSense_CSD_CSHL.c ****                 #else
1646:.\Generated_Source\PSoC4/CapSense_CSD_CSHL.c ****                     CapSense_CSD_centroid[CapSense_CSD_POS] = startOfSlider[maximum];
 2138              		.loc 1 1646 0
 2139 0058 FB1D     		add	r3, r7, #7
 2140 005a 1B78     		ldrb	r3, [r3]
 2141 005c BA69     		ldr	r2, [r7, #24]
 2142 005e D318     		add	r3, r2, r3
 2143 0060 1A78     		ldrb	r2, [r3]
 2144 0062 4E4B     		ldr	r3, .L142+4
 2145 0064 5A70     		strb	r2, [r3, #1]
1647:.\Generated_Source\PSoC4/CapSense_CSD_CSHL.c ****                 #endif /* (CapSense_CSD_IS_DIPLEX_SLIDER) */
ARM GAS  C:\Users\LUKASC~1\AppData\Local\Temp\ccrijgnB.s 			page 68


1648:.\Generated_Source\PSoC4/CapSense_CSD_CSHL.c **** 
1649:.\Generated_Source\PSoC4/CapSense_CSD_CSHL.c ****                 /* Check borders for LINEAR Slider */
1650:.\Generated_Source\PSoC4/CapSense_CSD_CSHL.c ****                 if (maximum == 0u)                   /* Start of centroid */
 2146              		.loc 1 1650 0
 2147 0066 FB1D     		add	r3, r7, #7
 2148 0068 1B78     		ldrb	r3, [r3]
 2149 006a 002B     		cmp	r3, #0
 2150 006c 0BD1     		bne	.L134
1651:.\Generated_Source\PSoC4/CapSense_CSD_CSHL.c ****                 {
1652:.\Generated_Source\PSoC4/CapSense_CSD_CSHL.c ****                     CapSense_CSD_centroid[CapSense_CSD_POS_PREV] = 0u;
 2151              		.loc 1 1652 0
 2152 006e 4B4B     		ldr	r3, .L142+4
 2153 0070 0022     		mov	r2, #0
 2154 0072 1A70     		strb	r2, [r3]
1653:.\Generated_Source\PSoC4/CapSense_CSD_CSHL.c ****                     CapSense_CSD_centroid[CapSense_CSD_POS_NEXT] = startOfSlider[posNext];
 2155              		.loc 1 1653 0
 2156 0074 1723     		mov	r3, #23
 2157 0076 FB18     		add	r3, r7, r3
 2158 0078 1B78     		ldrb	r3, [r3]
 2159 007a BA69     		ldr	r2, [r7, #24]
 2160 007c D318     		add	r3, r2, r3
 2161 007e 1A78     		ldrb	r2, [r3]
 2162 0080 464B     		ldr	r3, .L142+4
 2163 0082 9A70     		strb	r2, [r3, #2]
 2164 0084 22E0     		b	.L135
 2165              	.L134:
1654:.\Generated_Source\PSoC4/CapSense_CSD_CSHL.c ****                 }
1655:.\Generated_Source\PSoC4/CapSense_CSD_CSHL.c ****                 else if (maximum == ((count) - 1u)) /* End of centroid */
 2166              		.loc 1 1655 0
 2167 0086 FB1D     		add	r3, r7, #7
 2168 0088 1A78     		ldrb	r2, [r3]
 2169 008a 7B1D     		add	r3, r7, #5
 2170 008c 1B78     		ldrb	r3, [r3]
 2171 008e 013B     		sub	r3, r3, #1
 2172 0090 9A42     		cmp	r2, r3
 2173 0092 0BD1     		bne	.L136
1656:.\Generated_Source\PSoC4/CapSense_CSD_CSHL.c ****                 {
1657:.\Generated_Source\PSoC4/CapSense_CSD_CSHL.c ****                     CapSense_CSD_centroid[CapSense_CSD_POS_PREV] = startOfSlider[posPrev];
 2174              		.loc 1 1657 0
 2175 0094 1F23     		mov	r3, #31
 2176 0096 FB18     		add	r3, r7, r3
 2177 0098 1B78     		ldrb	r3, [r3]
 2178 009a BA69     		ldr	r2, [r7, #24]
 2179 009c D318     		add	r3, r2, r3
 2180 009e 1A78     		ldrb	r2, [r3]
 2181 00a0 3E4B     		ldr	r3, .L142+4
 2182 00a2 1A70     		strb	r2, [r3]
1658:.\Generated_Source\PSoC4/CapSense_CSD_CSHL.c ****                     CapSense_CSD_centroid[CapSense_CSD_POS_NEXT] = 0u;
 2183              		.loc 1 1658 0
 2184 00a4 3D4B     		ldr	r3, .L142+4
 2185 00a6 0022     		mov	r2, #0
 2186 00a8 9A70     		strb	r2, [r3, #2]
 2187 00aa 0FE0     		b	.L135
 2188              	.L136:
1659:.\Generated_Source\PSoC4/CapSense_CSD_CSHL.c ****                 }
1660:.\Generated_Source\PSoC4/CapSense_CSD_CSHL.c ****                 else                                /* Not first Not last */
1661:.\Generated_Source\PSoC4/CapSense_CSD_CSHL.c ****                 {
ARM GAS  C:\Users\LUKASC~1\AppData\Local\Temp\ccrijgnB.s 			page 69


1662:.\Generated_Source\PSoC4/CapSense_CSD_CSHL.c ****                     CapSense_CSD_centroid[CapSense_CSD_POS_PREV] = startOfSlider[posPrev];
 2189              		.loc 1 1662 0
 2190 00ac 1F23     		mov	r3, #31
 2191 00ae FB18     		add	r3, r7, r3
 2192 00b0 1B78     		ldrb	r3, [r3]
 2193 00b2 BA69     		ldr	r2, [r7, #24]
 2194 00b4 D318     		add	r3, r2, r3
 2195 00b6 1A78     		ldrb	r2, [r3]
 2196 00b8 384B     		ldr	r3, .L142+4
 2197 00ba 1A70     		strb	r2, [r3]
1663:.\Generated_Source\PSoC4/CapSense_CSD_CSHL.c ****                     CapSense_CSD_centroid[CapSense_CSD_POS_NEXT] = startOfSlider[posNext];
 2198              		.loc 1 1663 0
 2199 00bc 1723     		mov	r3, #23
 2200 00be FB18     		add	r3, r7, r3
 2201 00c0 1B78     		ldrb	r3, [r3]
 2202 00c2 BA69     		ldr	r2, [r7, #24]
 2203 00c4 D318     		add	r3, r2, r3
 2204 00c6 1A78     		ldrb	r2, [r3]
 2205 00c8 344B     		ldr	r3, .L142+4
 2206 00ca 9A70     		strb	r2, [r3, #2]
 2207              	.L135:
1664:.\Generated_Source\PSoC4/CapSense_CSD_CSHL.c ****                 }
1665:.\Generated_Source\PSoC4/CapSense_CSD_CSHL.c ****             #endif /* ((CapSense_CSD_TOTAL_LINEAR_SLIDERS_COUNT>0u)||(CapSense_CSD_TOTAL_TOUCH_PADS
1666:.\Generated_Source\PSoC4/CapSense_CSD_CSHL.c **** 
1667:.\Generated_Source\PSoC4/CapSense_CSD_CSHL.c ****         #if (CapSense_CSD_ADD_SLIDER_TYPE)
1668:.\Generated_Source\PSoC4/CapSense_CSD_CSHL.c ****             }
1669:.\Generated_Source\PSoC4/CapSense_CSD_CSHL.c ****         #endif /* (CapSense_CSD_ADD_SLIDER_TYPE) */
1670:.\Generated_Source\PSoC4/CapSense_CSD_CSHL.c **** 
1671:.\Generated_Source\PSoC4/CapSense_CSD_CSHL.c ****         /* Subtract noiseThreshold */
1672:.\Generated_Source\PSoC4/CapSense_CSD_CSHL.c ****         if(CapSense_CSD_centroid[CapSense_CSD_POS_PREV] > noiseThreshold)
 2208              		.loc 1 1672 0
 2209 00cc 334B     		ldr	r3, .L142+4
 2210 00ce 1B78     		ldrb	r3, [r3]
 2211 00d0 3022     		mov	r2, #48
 2212 00d2 BA18     		add	r2, r7, r2
 2213 00d4 1278     		ldrb	r2, [r2]
 2214 00d6 9A42     		cmp	r2, r3
 2215 00d8 09D2     		bcs	.L137
1673:.\Generated_Source\PSoC4/CapSense_CSD_CSHL.c ****         {
1674:.\Generated_Source\PSoC4/CapSense_CSD_CSHL.c ****             CapSense_CSD_centroid[CapSense_CSD_POS_PREV] -= noiseThreshold;
 2216              		.loc 1 1674 0
 2217 00da 304B     		ldr	r3, .L142+4
 2218 00dc 1A78     		ldrb	r2, [r3]
 2219 00de 3023     		mov	r3, #48
 2220 00e0 FB18     		add	r3, r7, r3
 2221 00e2 1B78     		ldrb	r3, [r3]
 2222 00e4 D31A     		sub	r3, r2, r3
 2223 00e6 DAB2     		uxtb	r2, r3
 2224 00e8 2C4B     		ldr	r3, .L142+4
 2225 00ea 1A70     		strb	r2, [r3]
 2226 00ec 02E0     		b	.L138
 2227              	.L137:
1675:.\Generated_Source\PSoC4/CapSense_CSD_CSHL.c ****         }
1676:.\Generated_Source\PSoC4/CapSense_CSD_CSHL.c ****         else
1677:.\Generated_Source\PSoC4/CapSense_CSD_CSHL.c ****         {
1678:.\Generated_Source\PSoC4/CapSense_CSD_CSHL.c ****             CapSense_CSD_centroid[CapSense_CSD_POS_PREV] = 0u;
 2228              		.loc 1 1678 0
ARM GAS  C:\Users\LUKASC~1\AppData\Local\Temp\ccrijgnB.s 			page 70


 2229 00ee 2B4B     		ldr	r3, .L142+4
 2230 00f0 0022     		mov	r2, #0
 2231 00f2 1A70     		strb	r2, [r3]
 2232              	.L138:
1679:.\Generated_Source\PSoC4/CapSense_CSD_CSHL.c ****         }
1680:.\Generated_Source\PSoC4/CapSense_CSD_CSHL.c **** 
1681:.\Generated_Source\PSoC4/CapSense_CSD_CSHL.c ****         /* Maximum always greater than fingerThreshold, so greater than noiseThreshold */
1682:.\Generated_Source\PSoC4/CapSense_CSD_CSHL.c ****         CapSense_CSD_centroid[CapSense_CSD_POS] -= noiseThreshold;
 2233              		.loc 1 1682 0
 2234 00f4 294B     		ldr	r3, .L142+4
 2235 00f6 5A78     		ldrb	r2, [r3, #1]
 2236 00f8 3023     		mov	r3, #48
 2237 00fa FB18     		add	r3, r7, r3
 2238 00fc 1B78     		ldrb	r3, [r3]
 2239 00fe D31A     		sub	r3, r2, r3
 2240 0100 DAB2     		uxtb	r2, r3
 2241 0102 264B     		ldr	r3, .L142+4
 2242 0104 5A70     		strb	r2, [r3, #1]
1683:.\Generated_Source\PSoC4/CapSense_CSD_CSHL.c **** 
1684:.\Generated_Source\PSoC4/CapSense_CSD_CSHL.c ****         /* Subtract noiseThreshold */
1685:.\Generated_Source\PSoC4/CapSense_CSD_CSHL.c ****         if(CapSense_CSD_centroid[CapSense_CSD_POS_NEXT] > noiseThreshold)
 2243              		.loc 1 1685 0
 2244 0106 254B     		ldr	r3, .L142+4
 2245 0108 9B78     		ldrb	r3, [r3, #2]
 2246 010a 3022     		mov	r2, #48
 2247 010c BA18     		add	r2, r7, r2
 2248 010e 1278     		ldrb	r2, [r2]
 2249 0110 9A42     		cmp	r2, r3
 2250 0112 09D2     		bcs	.L139
1686:.\Generated_Source\PSoC4/CapSense_CSD_CSHL.c ****         {
1687:.\Generated_Source\PSoC4/CapSense_CSD_CSHL.c ****             CapSense_CSD_centroid[CapSense_CSD_POS_NEXT] -= noiseThreshold;
 2251              		.loc 1 1687 0
 2252 0114 214B     		ldr	r3, .L142+4
 2253 0116 9A78     		ldrb	r2, [r3, #2]
 2254 0118 3023     		mov	r3, #48
 2255 011a FB18     		add	r3, r7, r3
 2256 011c 1B78     		ldrb	r3, [r3]
 2257 011e D31A     		sub	r3, r2, r3
 2258 0120 DAB2     		uxtb	r2, r3
 2259 0122 1E4B     		ldr	r3, .L142+4
 2260 0124 9A70     		strb	r2, [r3, #2]
 2261 0126 02E0     		b	.L140
 2262              	.L139:
1688:.\Generated_Source\PSoC4/CapSense_CSD_CSHL.c ****         }
1689:.\Generated_Source\PSoC4/CapSense_CSD_CSHL.c ****         else
1690:.\Generated_Source\PSoC4/CapSense_CSD_CSHL.c ****         {
1691:.\Generated_Source\PSoC4/CapSense_CSD_CSHL.c ****             CapSense_CSD_centroid[CapSense_CSD_POS_NEXT] = 0u;
 2263              		.loc 1 1691 0
 2264 0128 1C4B     		ldr	r3, .L142+4
 2265 012a 0022     		mov	r2, #0
 2266 012c 9A70     		strb	r2, [r3, #2]
 2267              	.L140:
1692:.\Generated_Source\PSoC4/CapSense_CSD_CSHL.c ****         }
1693:.\Generated_Source\PSoC4/CapSense_CSD_CSHL.c **** 
1694:.\Generated_Source\PSoC4/CapSense_CSD_CSHL.c **** 
1695:.\Generated_Source\PSoC4/CapSense_CSD_CSHL.c ****         /* Si+1 - Si-1 */
1696:.\Generated_Source\PSoC4/CapSense_CSD_CSHL.c ****         numerator = (uint32) CapSense_CSD_centroid[CapSense_CSD_POS_NEXT] -
ARM GAS  C:\Users\LUKASC~1\AppData\Local\Temp\ccrijgnB.s 			page 71


 2268              		.loc 1 1696 0
 2269 012e 1B4B     		ldr	r3, .L142+4
 2270 0130 9B78     		ldrb	r3, [r3, #2]
 2271 0132 1A1C     		mov	r2, r3
1697:.\Generated_Source\PSoC4/CapSense_CSD_CSHL.c ****                     (uint32) CapSense_CSD_centroid[CapSense_CSD_POS_PREV];
 2272              		.loc 1 1697 0
 2273 0134 194B     		ldr	r3, .L142+4
 2274 0136 1B78     		ldrb	r3, [r3]
1696:.\Generated_Source\PSoC4/CapSense_CSD_CSHL.c ****                     (uint32) CapSense_CSD_centroid[CapSense_CSD_POS_PREV];
 2275              		.loc 1 1696 0
 2276 0138 D31A     		sub	r3, r2, r3
 2277 013a 3B61     		str	r3, [r7, #16]
1698:.\Generated_Source\PSoC4/CapSense_CSD_CSHL.c **** 
1699:.\Generated_Source\PSoC4/CapSense_CSD_CSHL.c ****         /* Si+1 + Si + Si-1 */
1700:.\Generated_Source\PSoC4/CapSense_CSD_CSHL.c ****         denominator = (int32) CapSense_CSD_centroid[CapSense_CSD_POS_PREV] +
 2278              		.loc 1 1700 0
 2279 013c 174B     		ldr	r3, .L142+4
 2280 013e 1B78     		ldrb	r3, [r3]
 2281 0140 1A1C     		mov	r2, r3
1701:.\Generated_Source\PSoC4/CapSense_CSD_CSHL.c ****                       (int32) CapSense_CSD_centroid[CapSense_CSD_POS] +
 2282              		.loc 1 1701 0
 2283 0142 164B     		ldr	r3, .L142+4
 2284 0144 5B78     		ldrb	r3, [r3, #1]
1700:.\Generated_Source\PSoC4/CapSense_CSD_CSHL.c ****                       (int32) CapSense_CSD_centroid[CapSense_CSD_POS] +
 2285              		.loc 1 1700 0
 2286 0146 D318     		add	r3, r2, r3
1702:.\Generated_Source\PSoC4/CapSense_CSD_CSHL.c ****                       (int32) CapSense_CSD_centroid[CapSense_CSD_POS_NEXT];
 2287              		.loc 1 1702 0
 2288 0148 144A     		ldr	r2, .L142+4
 2289 014a 9278     		ldrb	r2, [r2, #2]
1700:.\Generated_Source\PSoC4/CapSense_CSD_CSHL.c ****                       (int32) CapSense_CSD_centroid[CapSense_CSD_POS] +
 2290              		.loc 1 1700 0
 2291 014c 9B18     		add	r3, r3, r2
 2292 014e FB60     		str	r3, [r7, #12]
1703:.\Generated_Source\PSoC4/CapSense_CSD_CSHL.c **** 
1704:.\Generated_Source\PSoC4/CapSense_CSD_CSHL.c ****         /* (numerator/denominator) + maximum */
1705:.\Generated_Source\PSoC4/CapSense_CSD_CSHL.c ****         denominator = (((int32)(uint32)((uint32)numerator << 8u)/denominator) + (int32)(uint32)((ui
 2293              		.loc 1 1705 0
 2294 0150 3B69     		ldr	r3, [r7, #16]
 2295 0152 1B02     		lsl	r3, r3, #8
 2296 0154 181C     		mov	r0, r3
 2297 0156 F968     		ldr	r1, [r7, #12]
 2298 0158 FFF7FEFF 		bl	__aeabi_idiv
 2299 015c 031C     		mov	r3, r0
 2300 015e 1A1C     		mov	r2, r3
 2301 0160 FB1D     		add	r3, r7, #7
 2302 0162 1B78     		ldrb	r3, [r3]
 2303 0164 1B02     		lsl	r3, r3, #8
 2304 0166 D318     		add	r3, r2, r3
