ARM GAS  C:\Users\LUKASC~1\AppData\Local\Temp\cctWYf7b.s 			page 1


   1              		.cpu cortex-m0
   2              		.fpu softvfp
   3              		.eabi_attribute 20, 1
   4              		.eabi_attribute 21, 1
   5              		.eabi_attribute 23, 3
   6              		.eabi_attribute 24, 1
   7              		.eabi_attribute 25, 1
   8              		.eabi_attribute 26, 1
   9              		.eabi_attribute 30, 6
  10              		.eabi_attribute 34, 0
  11              		.eabi_attribute 18, 4
  12              		.code	16
  13              		.file	"capsense.c"
  14              		.text
  15              	.Ltext0:
  16              		.cfi_sections	.debug_frame
  17              		.comm	curPos,2,2
  18              		.comm	oldPos,2,2
  19              		.section	.text.CapSenseInit,"ax",%progbits
  20              		.align	2
  21              		.global	CapSenseInit
  22              		.code	16
  23              		.thumb_func
  24              		.type	CapSenseInit, %function
  25              	CapSenseInit:
  26              	.LFB34:
  27              		.file 1 ".\\capsense.c"
   1:.\capsense.c  **** /* ========================================
   2:.\capsense.c  **** * File Name: capsense.h
   3:.\capsense.c  **** *
   4:.\capsense.c  **** * Version: 0
   5:.\capsense.c  **** * Author: Lukas Creutzburg
   6:.\capsense.c  **** *
   7:.\capsense.c  **** *  Description:
   8:.\capsense.c  **** *  CapSense module
   9:.\capsense.c  **** *
  10:.\capsense.c  **** * =================================================================================================
  11:.\capsense.c  **** */
  12:.\capsense.c  **** #include "capsense.h"
  13:.\capsense.c  **** 
  14:.\capsense.c  **** /* Variables */
  15:.\capsense.c  **** 
  16:.\capsense.c  **** uint16 curPos, oldPos;
  17:.\capsense.c  **** 
  18:.\capsense.c  **** //_________________________________
  19:.\capsense.c  **** 
  20:.\capsense.c  **** /*******************************************************************************
  21:.\capsense.c  **** * Function Name:  CapSenseInit
  22:.\capsense.c  **** ********************************************************************************
  23:.\capsense.c  **** *
  24:.\capsense.c  **** * Summary:
  25:.\capsense.c  **** *   Initializes CapSense  
  26:.\capsense.c  **** *
  27:.\capsense.c  **** * Parameters:  
  28:.\capsense.c  **** *  None
  29:.\capsense.c  **** *
  30:.\capsense.c  **** * Return: 
ARM GAS  C:\Users\LUKASC~1\AppData\Local\Temp\cctWYf7b.s 			page 2


  31:.\capsense.c  **** *  None 
  32:.\capsense.c  **** *  
  33:.\capsense.c  **** *******************************************************************************/
  34:.\capsense.c  **** void CapSenseInit(void)
  35:.\capsense.c  **** {
  28              		.loc 1 35 0
  29              		.cfi_startproc
  30 0000 80B5     		push	{r7, lr}
  31              		.cfi_def_cfa_offset 8
  32              		.cfi_offset 7, -8
  33              		.cfi_offset 14, -4
  34 0002 00AF     		add	r7, sp, #0
  35              		.cfi_def_cfa_register 7
  36:.\capsense.c  ****     /* Start CapSense components */
  37:.\capsense.c  ****     CapSense_CSD_Start();
  36              		.loc 1 37 0
  37 0004 FFF7FEFF 		bl	CapSense_CSD_Start
  38:.\capsense.c  ****     
  39:.\capsense.c  ****     /* Initialize baselines */
  40:.\capsense.c  ****     CapSense_CSD_InitializeAllBaselines();
  38              		.loc 1 40 0
  39 0008 FFF7FEFF 		bl	CapSense_CSD_InitializeAllBaselines
  41:.\capsense.c  **** }
  40              		.loc 1 41 0
  41 000c BD46     		mov	sp, r7
  42              		@ sp needed
  43 000e 80BD     		pop	{r7, pc}
  44              		.cfi_endproc
  45              	.LFE34:
  46              		.size	CapSenseInit, .-CapSenseInit
  47              		.section	.text.CapSense_DisplayState,"ax",%progbits
  48              		.align	2
  49              		.global	CapSense_DisplayState
  50              		.code	16
  51              		.thumb_func
  52              		.type	CapSense_DisplayState, %function
  53              	CapSense_DisplayState:
  54              	.LFB35:
  42:.\capsense.c  **** //_________________________________________________________
  43:.\capsense.c  **** 
  44:.\capsense.c  **** /*******************************************************************************
  45:.\capsense.c  **** * Function Name: CapSense_DisplayState
  46:.\capsense.c  **** ********************************************************************************
  47:.\capsense.c  **** *
  48:.\capsense.c  **** * Summary:
  49:.\capsense.c  **** *  Get current CapSense State
  50:.\capsense.c  **** *
  51:.\capsense.c  **** * Parameters:  
  52:.\capsense.c  **** *   None
  53:.\capsense.c  **** * Return: 
  54:.\capsense.c  **** *   uint32: Position on slider
  55:.\capsense.c  **** *
  56:.\capsense.c  **** *******************************************************************************/
  57:.\capsense.c  **** uint32 CapSense_DisplayState(void)
  58:.\capsense.c  **** {
  55              		.loc 1 58 0
  56              		.cfi_startproc
ARM GAS  C:\Users\LUKASC~1\AppData\Local\Temp\cctWYf7b.s 			page 3


  57 0000 80B5     		push	{r7, lr}
  58              		.cfi_def_cfa_offset 8
  59              		.cfi_offset 7, -8
  60              		.cfi_offset 14, -4
  61 0002 82B0     		sub	sp, sp, #8
  62              		.cfi_def_cfa_offset 16
  63 0004 00AF     		add	r7, sp, #0
  64              		.cfi_def_cfa_register 7
  59:.\capsense.c  ****     /* Find Slider Position */
  60:.\capsense.c  ****     curPos = CapSense_CSD_GetCentroidPos(CapSense_CSD_LINEARSLIDER0__LS);
  65              		.loc 1 60 0
  66 0006 0020     		mov	r0, #0
  67 0008 FFF7FEFF 		bl	CapSense_CSD_GetCentroidPos
  68 000c 031C     		mov	r3, r0
  69 000e 1A1C     		mov	r2, r3
  70 0010 114B     		ldr	r3, .L6
  71 0012 1A80     		strh	r2, [r3]
  61:.\capsense.c  **** 
  62:.\capsense.c  ****     /* Reset position */
  63:.\capsense.c  ****     if(curPos == 0xFFFFu)
  72              		.loc 1 63 0
  73 0014 104B     		ldr	r3, .L6
  74 0016 1B88     		ldrh	r3, [r3]
  75 0018 104A     		ldr	r2, .L6+4
  76 001a 9342     		cmp	r3, r2
  77 001c 02D1     		bne	.L3
  64:.\capsense.c  ****     {
  65:.\capsense.c  ****         curPos = 0u;
  78              		.loc 1 65 0
  79 001e 0E4B     		ldr	r3, .L6
  80 0020 0022     		mov	r2, #0
  81 0022 1A80     		strh	r2, [r3]
  82              	.L3:
  66:.\capsense.c  ****     }
  67:.\capsense.c  **** 
  68:.\capsense.c  ****     /* Move bargraph */
  69:.\capsense.c  ****     if (curPos != oldPos)
  83              		.loc 1 69 0
  84 0024 0C4B     		ldr	r3, .L6
  85 0026 1A88     		ldrh	r2, [r3]
  86 0028 0D4B     		ldr	r3, .L6+8
  87 002a 1B88     		ldrh	r3, [r3]
  88 002c 9A42     		cmp	r2, r3
  89 002e 0DD0     		beq	.L4
  70:.\capsense.c  ****     {
  71:.\capsense.c  ****         oldPos = curPos;
  90              		.loc 1 71 0
  91 0030 094B     		ldr	r3, .L6
  92 0032 1A88     		ldrh	r2, [r3]
  93 0034 0A4B     		ldr	r3, .L6+8
  94 0036 1A80     		strh	r2, [r3]
  72:.\capsense.c  ****         /* Display Slider bargraph */
  73:.\capsense.c  ****         if (curPos != 0u)
  95              		.loc 1 73 0
  96 0038 074B     		ldr	r3, .L6
  97 003a 1B88     		ldrh	r3, [r3]
  98 003c 002B     		cmp	r3, #0
ARM GAS  C:\Users\LUKASC~1\AppData\Local\Temp\cctWYf7b.s 			page 4


  99 003e 05D0     		beq	.L4
 100              	.LBB2:
  74:.\capsense.c  ****         {
  75:.\capsense.c  ****             uint32 myInt = (uint32)curPos << SLIDER_POS_TO_COMPARE_SHIFT; 
 101              		.loc 1 75 0
 102 0040 054B     		ldr	r3, .L6
 103 0042 1B88     		ldrh	r3, [r3]
 104 0044 5B02     		lsl	r3, r3, #9
 105 0046 7B60     		str	r3, [r7, #4]
  76:.\capsense.c  ****             return myInt;
 106              		.loc 1 76 0
 107 0048 7B68     		ldr	r3, [r7, #4]
 108 004a 01E0     		b	.L5
 109              	.L4:
 110              	.LBE2:
  77:.\capsense.c  ****         }
  78:.\capsense.c  ****     }
  79:.\capsense.c  ****     //not moved
  80:.\capsense.c  ****     return -1;
 111              		.loc 1 80 0
 112 004c 0123     		mov	r3, #1
 113 004e 5B42     		neg	r3, r3
 114              	.L5:
  81:.\capsense.c  **** }
 115              		.loc 1 81 0
 116 0050 181C     		mov	r0, r3
 117 0052 BD46     		mov	sp, r7
 118 0054 02B0     		add	sp, sp, #8
 119              		@ sp needed
 120 0056 80BD     		pop	{r7, pc}
 121              	.L7:
 122              		.align	2
 123              	.L6:
 124 0058 00000000 		.word	curPos
 125 005c FFFF0000 		.word	65535
 126 0060 00000000 		.word	oldPos
 127              		.cfi_endproc
 128              	.LFE35:
 129              		.size	CapSense_DisplayState, .-CapSense_DisplayState
 130              		.section	.text.CapSense_Refresh,"ax",%progbits
 131              		.align	2
 132              		.global	CapSense_Refresh
 133              		.code	16
 134              		.thumb_func
 135              		.type	CapSense_Refresh, %function
 136              	CapSense_Refresh:
 137              	.LFB36:
  82:.\capsense.c  **** //_________________________________________________________
  83:.\capsense.c  **** 
  84:.\capsense.c  **** /*******************************************************************************
  85:.\capsense.c  **** * Function Name: CapSense_Refresh
  86:.\capsense.c  **** ********************************************************************************
  87:.\capsense.c  **** *
  88:.\capsense.c  **** * Summary:
  89:.\capsense.c  **** *  Refresh CapSense
  90:.\capsense.c  **** *
  91:.\capsense.c  **** * Parameters:  
ARM GAS  C:\Users\LUKASC~1\AppData\Local\Temp\cctWYf7b.s 			page 5


  92:.\capsense.c  **** *   None
  93:.\capsense.c  **** * Return: 
  94:.\capsense.c  **** *   uint32: Position on slider
  95:.\capsense.c  **** *
  96:.\capsense.c  **** *******************************************************************************/
  97:.\capsense.c  **** int32 CapSense_Refresh(void)
  98:.\capsense.c  **** {
 138              		.loc 1 98 0
 139              		.cfi_startproc
 140 0000 80B5     		push	{r7, lr}
 141              		.cfi_def_cfa_offset 8
 142              		.cfi_offset 7, -8
 143              		.cfi_offset 14, -4
 144 0002 00AF     		add	r7, sp, #0
 145              		.cfi_def_cfa_register 7
  99:.\capsense.c  ****     /* Check whether the scanning of all enabled widgets is completed. */
 100:.\capsense.c  ****         if(0u == CapSense_CSD_IsBusy())
 146              		.loc 1 100 0
 147 0004 FFF7FEFF 		bl	CapSense_CSD_IsBusy
 148 0008 031E     		sub	r3, r0, #0
 149 000a 03D1     		bne	.L9
 101:.\capsense.c  ****         {
 102:.\capsense.c  ****             /* Update all baselines */
 103:.\capsense.c  ****             CapSense_CSD_UpdateEnabledBaselines();
 150              		.loc 1 103 0
 151 000c FFF7FEFF 		bl	CapSense_CSD_UpdateEnabledBaselines
 104:.\capsense.c  **** 
 105:.\capsense.c  ****             /* Start scanning all enabled sensors */
 106:.\capsense.c  ****             CapSense_CSD_ScanEnabledWidgets();
 152              		.loc 1 106 0
 153 0010 FFF7FEFF 		bl	CapSense_CSD_ScanEnabledWidgets
 154              	.L9:
 107:.\capsense.c  ****         }
 108:.\capsense.c  **** 
 109:.\capsense.c  ****         /* Display CapSense state using LEDs */
 110:.\capsense.c  ****         return CapSense_DisplayState();
 155              		.loc 1 110 0
 156 0014 FFF7FEFF 		bl	CapSense_DisplayState
 157 0018 031C     		mov	r3, r0
 111:.\capsense.c  **** }
 158              		.loc 1 111 0
 159 001a 181C     		mov	r0, r3
 160 001c BD46     		mov	sp, r7
 161              		@ sp needed
 162 001e 80BD     		pop	{r7, pc}
 163              		.cfi_endproc
 164              	.LFE36:
 165              		.size	CapSense_Refresh, .-CapSense_Refresh
 166              		.text
 167              	.Letext0:
 168              		.file 2 "Generated_Source\\PSoC4/cytypes.h"