ARM GAS  C:\Users\LUKASC~1\AppData\Local\Temp\ccJXy7or.s 			page 1


   1              		.cpu cortex-m0
   2              		.fpu softvfp
   3              		.eabi_attribute 20, 1
   4              		.eabi_attribute 21, 1
   5              		.eabi_attribute 23, 3
   6              		.eabi_attribute 24, 1
   7              		.eabi_attribute 25, 1
   8              		.eabi_attribute 26, 1
   9              		.eabi_attribute 30, 6
  10              		.eabi_attribute 34, 0
  11              		.eabi_attribute 18, 4
  12              		.code	16
  13              		.file	"i2cmaster.c"
  14              		.text
  15              	.Ltext0:
  16              		.cfi_sections	.debug_frame
  17              		.section	.text.I2CInit,"ax",%progbits
  18              		.align	2
  19              		.global	I2CInit
  20              		.code	16
  21              		.thumb_func
  22              		.type	I2CInit, %function
  23              	I2CInit:
  24              	.LFB34:
  25              		.file 1 ".\\i2cmaster.c"
   1:.\i2cmaster.c **** /* ========================================
   2:.\i2cmaster.c **** * File Name: capsense.h
   3:.\i2cmaster.c **** *
   4:.\i2cmaster.c **** * Version: 0
   5:.\i2cmaster.c **** * Author: Lukas Creutzburg
   6:.\i2cmaster.c **** *
   7:.\i2cmaster.c **** *  Description:
   8:.\i2cmaster.c **** *  CapSense module
   9:.\i2cmaster.c **** *
  10:.\i2cmaster.c **** * =================================================================================================
  11:.\i2cmaster.c **** */
  12:.\i2cmaster.c **** #include "i2cmaster.h"
  13:.\i2cmaster.c **** 
  14:.\i2cmaster.c **** /* Variables */
  15:.\i2cmaster.c **** 
  16:.\i2cmaster.c **** //_________________________________
  17:.\i2cmaster.c **** 
  18:.\i2cmaster.c **** /*******************************************************************************
  19:.\i2cmaster.c **** * Function Name:  UARTInit
  20:.\i2cmaster.c **** ********************************************************************************
  21:.\i2cmaster.c **** *
  22:.\i2cmaster.c **** * Summary:
  23:.\i2cmaster.c **** *   Initializes CapSense  
  24:.\i2cmaster.c **** *
  25:.\i2cmaster.c **** * Parameters:  
  26:.\i2cmaster.c **** *  None
  27:.\i2cmaster.c **** *
  28:.\i2cmaster.c **** * Return: 
  29:.\i2cmaster.c **** *  None 
  30:.\i2cmaster.c **** *  
  31:.\i2cmaster.c **** *******************************************************************************/
  32:.\i2cmaster.c **** void I2CInit(void)
ARM GAS  C:\Users\LUKASC~1\AppData\Local\Temp\ccJXy7or.s 			page 2


  33:.\i2cmaster.c **** {
  26              		.loc 1 33 0
  27              		.cfi_startproc
  28 0000 80B5     		push	{r7, lr}
  29              		.cfi_def_cfa_offset 8
  30              		.cfi_offset 7, -8
  31              		.cfi_offset 14, -4
  32 0002 00AF     		add	r7, sp, #0
  33              		.cfi_def_cfa_register 7
  34:.\i2cmaster.c ****     I2CM_Start();
  34              		.loc 1 34 0
  35 0004 FFF7FEFF 		bl	I2CM_Start
  35:.\i2cmaster.c **** }
  36              		.loc 1 35 0
  37 0008 BD46     		mov	sp, r7
  38              		@ sp needed
  39 000a 80BD     		pop	{r7, pc}
  40              		.cfi_endproc
  41              	.LFE34:
  42              		.size	I2CInit, .-I2CInit
  43              		.section	.text.I2CWriteCommandPacket,"ax",%progbits
  44              		.align	2
  45              		.global	I2CWriteCommandPacket
  46              		.code	16
  47              		.thumb_func
  48              		.type	I2CWriteCommandPacket, %function
  49              	I2CWriteCommandPacket:
  50              	.LFB35:
  36:.\i2cmaster.c **** //_________________________________________________________________
  37:.\i2cmaster.c **** 
  38:.\i2cmaster.c **** 
  39:.\i2cmaster.c **** /*******************************************************************************
  40:.\i2cmaster.c **** * Function Name: I2CWriteCommandPacket
  41:.\i2cmaster.c **** ********************************************************************************
  42:.\i2cmaster.c **** *
  43:.\i2cmaster.c **** * Summary:
  44:.\i2cmaster.c **** *  Sends command via I2C
  45:.\i2cmaster.c **** *
  46:.\i2cmaster.c **** * Parameters:  
  47:.\i2cmaster.c **** *   uint8: command to send
  48:.\i2cmaster.c **** * Return: 
  49:.\i2cmaster.c **** *   uint32: current state
  50:.\i2cmaster.c **** *   Returns status of the transfer. There are two statuses
  51:.\i2cmaster.c **** *   - TRANSFER_CMPLT: transfer completed successfully.
  52:.\i2cmaster.c **** *   - TRANSFER_ERROR: the error occurred while transfer.
  53:.\i2cmaster.c **** *
  54:.\i2cmaster.c **** *******************************************************************************/
  55:.\i2cmaster.c **** uint32 I2CWriteCommandPacket(uint8 cmd)
  56:.\i2cmaster.c **** {
  51              		.loc 1 56 0
  52              		.cfi_startproc
  53 0000 80B5     		push	{r7, lr}
  54              		.cfi_def_cfa_offset 8
  55              		.cfi_offset 7, -8
  56              		.cfi_offset 14, -4
  57 0002 84B0     		sub	sp, sp, #16
  58              		.cfi_def_cfa_offset 24
ARM GAS  C:\Users\LUKASC~1\AppData\Local\Temp\ccJXy7or.s 			page 3


  59 0004 00AF     		add	r7, sp, #0
  60              		.cfi_def_cfa_register 7
  61 0006 021C     		mov	r2, r0
  62 0008 FB1D     		add	r3, r7, #7
  63 000a 1A70     		strb	r2, [r3]
  57:.\i2cmaster.c ****     uint8  buffer[BUFFER_SIZE];
  58:.\i2cmaster.c ****     uint32 status = TRANSFER_ERROR;
  64              		.loc 1 58 0
  65 000c FF23     		mov	r3, #255
  66 000e FB60     		str	r3, [r7, #12]
  59:.\i2cmaster.c **** 
  60:.\i2cmaster.c ****     /* Initialize buffer with packet */
  61:.\i2cmaster.c ****     buffer[PACKET_SOP_POS] = PACKET_SOP;
  67              		.loc 1 61 0
  68 0010 0823     		mov	r3, #8
  69 0012 FB18     		add	r3, r7, r3
  70 0014 0122     		mov	r2, #1
  71 0016 1A70     		strb	r2, [r3]
  62:.\i2cmaster.c ****     buffer[PACKET_CMD_POS] = cmd;
  72              		.loc 1 62 0
  73 0018 0823     		mov	r3, #8
  74 001a FB18     		add	r3, r7, r3
  75 001c FA1D     		add	r2, r7, #7
  76 001e 1278     		ldrb	r2, [r2]
  77 0020 5A70     		strb	r2, [r3, #1]
  63:.\i2cmaster.c ****     buffer[PACKET_EOP_POS] = PACKET_EOP;
  78              		.loc 1 63 0
  79 0022 0823     		mov	r3, #8
  80 0024 FB18     		add	r3, r7, r3
  81 0026 1722     		mov	r2, #23
  82 0028 9A70     		strb	r2, [r3, #2]
  64:.\i2cmaster.c **** 
  65:.\i2cmaster.c ****     (void) I2CM_I2CMasterWriteBuf(I2C_SLAVE_ADDR, buffer, PACKET_SIZE, \
  83              		.loc 1 65 0
  84 002a 0823     		mov	r3, #8
  85 002c FB18     		add	r3, r7, r3
  86 002e 0820     		mov	r0, #8
  87 0030 191C     		mov	r1, r3
  88 0032 0322     		mov	r2, #3
  89 0034 0023     		mov	r3, #0
  90 0036 FFF7FEFF 		bl	I2CM_I2CMasterWriteBuf
  66:.\i2cmaster.c ****                                   I2CM_I2C_MODE_COMPLETE_XFER);
  67:.\i2cmaster.c **** 
  68:.\i2cmaster.c ****     /* Waits until master completes write transfer */
  69:.\i2cmaster.c ****     while (0u == (I2CM_I2CMasterStatus() & I2CM_I2C_MSTAT_WR_CMPLT))
  91              		.loc 1 69 0
  92 003a C046     		mov	r8, r8
  93              	.L3:
  94              		.loc 1 69 0 is_stmt 0 discriminator 1
  95 003c FFF7FEFF 		bl	I2CM_I2CMasterStatus
  96 0040 021C     		mov	r2, r0
  97 0042 0223     		mov	r3, #2
  98 0044 1340     		and	r3, r2
  99 0046 F9D0     		beq	.L3
  70:.\i2cmaster.c ****     {
  71:.\i2cmaster.c ****     }
  72:.\i2cmaster.c **** 
ARM GAS  C:\Users\LUKASC~1\AppData\Local\Temp\ccJXy7or.s 			page 4


  73:.\i2cmaster.c ****     /* Displays transfer status */
  74:.\i2cmaster.c ****     if (0u == (I2CM_I2C_MSTAT_ERR_XFER & I2CM_I2CMasterStatus()))
 100              		.loc 1 74 0 is_stmt 1
 101 0048 FFF7FEFF 		bl	I2CM_I2CMasterStatus
 102 004c 021C     		mov	r2, r0
 103 004e 8023     		mov	r3, #128
 104 0050 9B00     		lsl	r3, r3, #2
 105 0052 1340     		and	r3, r2
 106 0054 06D1     		bne	.L4
  75:.\i2cmaster.c ****     {
  76:.\i2cmaster.c ****         /* Check if all bytes was written */
  77:.\i2cmaster.c ****         if (I2CM_I2CMasterGetWriteBufSize() == BUFFER_SIZE)
 107              		.loc 1 77 0
 108 0056 FFF7FEFF 		bl	I2CM_I2CMasterGetWriteBufSize
 109 005a 031E     		sub	r3, r0, #0
 110 005c 032B     		cmp	r3, #3
 111 005e 01D1     		bne	.L4
  78:.\i2cmaster.c ****         {
  79:.\i2cmaster.c ****             //RGB_LED_ON_GREEN;
  80:.\i2cmaster.c ****             status = TRANSFER_CMPLT;
 112              		.loc 1 80 0
 113 0060 0023     		mov	r3, #0
 114 0062 FB60     		str	r3, [r7, #12]
 115              	.L4:
  81:.\i2cmaster.c ****         }
  82:.\i2cmaster.c ****     }
  83:.\i2cmaster.c ****     else
  84:.\i2cmaster.c ****     {
  85:.\i2cmaster.c ****         //RGB_LED_ON_RED;
  86:.\i2cmaster.c ****     }
  87:.\i2cmaster.c **** 
  88:.\i2cmaster.c ****     (void) I2CM_I2CMasterClearStatus();
 116              		.loc 1 88 0
 117 0064 FFF7FEFF 		bl	I2CM_I2CMasterClearStatus
  89:.\i2cmaster.c **** 
  90:.\i2cmaster.c ****     return (status);
 118              		.loc 1 90 0
 119 0068 FB68     		ldr	r3, [r7, #12]
  91:.\i2cmaster.c **** }
 120              		.loc 1 91 0
 121 006a 181C     		mov	r0, r3
 122 006c BD46     		mov	sp, r7
 123 006e 04B0     		add	sp, sp, #16
 124              		@ sp needed
 125 0070 80BD     		pop	{r7, pc}
 126              		.cfi_endproc
 127              	.LFE35:
 128              		.size	I2CWriteCommandPacket, .-I2CWriteCommandPacket
 129 0072 C046     		.section	.text.I2CReadStatusPacket,"ax",%progbits
 130              		.align	2
 131              		.global	I2CReadStatusPacket
 132              		.code	16
 133              		.thumb_func
 134              		.type	I2CReadStatusPacket, %function
 135              	I2CReadStatusPacket:
 136              	.LFB36:
  92:.\i2cmaster.c **** //_________________________________________________________________
ARM GAS  C:\Users\LUKASC~1\AppData\Local\Temp\ccJXy7or.s 			page 5


  93:.\i2cmaster.c **** 
  94:.\i2cmaster.c **** 
  95:.\i2cmaster.c **** /*******************************************************************************
  96:.\i2cmaster.c **** * Function Name: I2CReadStatusPacket
  97:.\i2cmaster.c **** ********************************************************************************
  98:.\i2cmaster.c **** * Summary:
  99:.\i2cmaster.c **** *  Read command from slave
 100:.\i2cmaster.c **** *
 101:.\i2cmaster.c **** * Parameters:
 102:.\i2cmaster.c **** *  None
 103:.\i2cmaster.c **** *
 104:.\i2cmaster.c **** * Return:
 105:.\i2cmaster.c **** *  Returns status of the transfer. There are two statuses
 106:.\i2cmaster.c **** *  - TRANSFER_CMPLT: transfer completed successfully.
 107:.\i2cmaster.c **** *  - TRANSFER_ERROR: the error occurred while transfer.
 108:.\i2cmaster.c **** *
 109:.\i2cmaster.c **** *******************************************************************************/
 110:.\i2cmaster.c **** uint32 I2CReadStatusPacket(void)
 111:.\i2cmaster.c **** {
 137              		.loc 1 111 0
 138              		.cfi_startproc
 139 0000 80B5     		push	{r7, lr}
 140              		.cfi_def_cfa_offset 8
 141              		.cfi_offset 7, -8
 142              		.cfi_offset 14, -4
 143 0002 82B0     		sub	sp, sp, #8
 144              		.cfi_def_cfa_offset 16
 145 0004 00AF     		add	r7, sp, #0
 146              		.cfi_def_cfa_register 7
 112:.\i2cmaster.c ****     uint8  buffer[BUFFER_SIZE];
 113:.\i2cmaster.c ****     uint32 status = TRANSFER_ERROR;
 147              		.loc 1 113 0
 148 0006 FF23     		mov	r3, #255
 149 0008 7B60     		str	r3, [r7, #4]
 114:.\i2cmaster.c **** 
 115:.\i2cmaster.c ****     (void) I2CM_I2CMasterReadBuf(I2C_SLAVE_ADDR, buffer, PACKET_SIZE, \
 150              		.loc 1 115 0
 151 000a 3B1C     		mov	r3, r7
 152 000c 0820     		mov	r0, #8
 153 000e 191C     		mov	r1, r3
 154 0010 0322     		mov	r2, #3
 155 0012 0023     		mov	r3, #0
 156 0014 FFF7FEFF 		bl	I2CM_I2CMasterReadBuf
 116:.\i2cmaster.c ****                                  I2CM_I2C_MODE_COMPLETE_XFER);
 117:.\i2cmaster.c **** 
 118:.\i2cmaster.c ****     /* Waits until master complete read transfer */
 119:.\i2cmaster.c ****     while (0u == (I2CM_I2CMasterStatus() & I2CM_I2C_MSTAT_RD_CMPLT))
 157              		.loc 1 119 0
 158 0018 C046     		mov	r8, r8
 159              	.L8:
 160              		.loc 1 119 0 is_stmt 0 discriminator 1
 161 001a FFF7FEFF 		bl	I2CM_I2CMasterStatus
 162 001e 021C     		mov	r2, r0
 163 0020 0123     		mov	r3, #1
 164 0022 1340     		and	r3, r2
 165 0024 F9D0     		beq	.L8
 120:.\i2cmaster.c ****     {
ARM GAS  C:\Users\LUKASC~1\AppData\Local\Temp\ccJXy7or.s 			page 6


 121:.\i2cmaster.c ****     }
 122:.\i2cmaster.c **** 
 123:.\i2cmaster.c ****     /* Displays transfer status */
 124:.\i2cmaster.c ****     if (0u == (I2CM_I2C_MSTAT_ERR_XFER & I2CM_I2CMasterStatus()))
 166              		.loc 1 124 0 is_stmt 1
 167 0026 FFF7FEFF 		bl	I2CM_I2CMasterStatus
 168 002a 021C     		mov	r2, r0
 169 002c 8023     		mov	r3, #128
 170 002e 9B00     		lsl	r3, r3, #2
 171 0030 1340     		and	r3, r2
 172 0032 13D1     		bne	.L9
 125:.\i2cmaster.c ****     {
 126:.\i2cmaster.c ****         /* Check packet structure */
 127:.\i2cmaster.c ****         if ((I2CM_I2CMasterGetReadBufSize() == BUFFER_SIZE) &&
 173              		.loc 1 127 0
 174 0034 FFF7FEFF 		bl	I2CM_I2CMasterGetReadBufSize
 175 0038 031E     		sub	r3, r0, #0
 176 003a 032B     		cmp	r3, #3
 177 003c 10D1     		bne	.L11
 128:.\i2cmaster.c ****             (PACKET_SOP == buffer[PACKET_SOP_POS]) &&
 178              		.loc 1 128 0 discriminator 1
 179 003e 3B1C     		mov	r3, r7
 180 0040 1B78     		ldrb	r3, [r3]
 127:.\i2cmaster.c ****             (PACKET_SOP == buffer[PACKET_SOP_POS]) &&
 181              		.loc 1 127 0 discriminator 1
 182 0042 012B     		cmp	r3, #1
 183 0044 0CD1     		bne	.L11
 129:.\i2cmaster.c ****             (PACKET_EOP == buffer[PACKET_EOP_POS]))
 184              		.loc 1 129 0
 185 0046 3B1C     		mov	r3, r7
 186 0048 9B78     		ldrb	r3, [r3, #2]
 128:.\i2cmaster.c ****             (PACKET_SOP == buffer[PACKET_SOP_POS]) &&
 187              		.loc 1 128 0
 188 004a 172B     		cmp	r3, #23
 189 004c 08D1     		bne	.L11
 130:.\i2cmaster.c ****         {
 131:.\i2cmaster.c ****             /* Check packet status */
 132:.\i2cmaster.c ****             if (STS_CMD_DONE == buffer[PACKET_STS_POS])
 190              		.loc 1 132 0
 191 004e 3B1C     		mov	r3, r7
 192 0050 5B78     		ldrb	r3, [r3, #1]
 193 0052 002B     		cmp	r3, #0
 194 0054 04D1     		bne	.L11
 133:.\i2cmaster.c ****             {
 134:.\i2cmaster.c ****                 //RGB_LED_ON_GREEN;
 135:.\i2cmaster.c ****                 status = TRANSFER_CMPLT;
 195              		.loc 1 135 0
 196 0056 0023     		mov	r3, #0
 197 0058 7B60     		str	r3, [r7, #4]
 198 005a 01E0     		b	.L11
 199              	.L9:
 136:.\i2cmaster.c ****             }
 137:.\i2cmaster.c ****         }
 138:.\i2cmaster.c ****     }
 139:.\i2cmaster.c ****     else
 140:.\i2cmaster.c ****     {
 141:.\i2cmaster.c ****         //RGB_LED_ON_RED;
ARM GAS  C:\Users\LUKASC~1\AppData\Local\Temp\ccJXy7or.s 			page 7


 142:.\i2cmaster.c ****         status = TRANSFER_ERROR;
 200              		.loc 1 142 0
 201 005c FF23     		mov	r3, #255
 202 005e 7B60     		str	r3, [r7, #4]
 203              	.L11:
 143:.\i2cmaster.c ****     }
 144:.\i2cmaster.c **** 
 145:.\i2cmaster.c ****     (void) I2CM_I2CMasterClearStatus();
 204              		.loc 1 145 0
 205 0060 FFF7FEFF 		bl	I2CM_I2CMasterClearStatus
 146:.\i2cmaster.c **** 
 147:.\i2cmaster.c ****     return (status);
 206              		.loc 1 147 0
 207 0064 7B68     		ldr	r3, [r7, #4]
 148:.\i2cmaster.c **** }
 208              		.loc 1 148 0
 209 0066 181C     		mov	r0, r3
 210 0068 BD46     		mov	sp, r7
 211 006a 02B0     		add	sp, sp, #8
 212              		@ sp needed
 213 006c 80BD     		pop	{r7, pc}
 214              		.cfi_endproc
 215              	.LFE36:
 216              		.size	I2CReadStatusPacket, .-I2CReadStatusPacket
 217 006e C046     		.text
 218              	.Letext0:
 219              		.file 2 "Generated_Source\\PSoC4/cytypes.h"