ARM GAS  C:\Users\LUKASC~1\AppData\Local\Temp\ccMGo50g.s 			page 1


   1              		.cpu cortex-m0
   2              		.fpu softvfp
   3              		.eabi_attribute 20, 1
   4              		.eabi_attribute 21, 1
   5              		.eabi_attribute 23, 3
   6              		.eabi_attribute 24, 1
   7              		.eabi_attribute 25, 1
   8              		.eabi_attribute 26, 1
   9              		.eabi_attribute 30, 6
  10              		.eabi_attribute 34, 0
  11              		.eabi_attribute 18, 4
  12              		.code	16
  13              		.file	"main.c"
  14              		.text
  15              	.Ltext0:
  16              		.cfi_sections	.debug_frame
  17              		.section	.text.main,"ax",%progbits
  18              		.align	2
  19              		.global	main
  20              		.code	16
  21              		.thumb_func
  22              		.type	main, %function
  23              	main:
  24              	.LFB34:
  25              		.file 1 ".\\main.c"
   1:.\main.c      **** /*******************************************************************************
   2:.\main.c      **** * File Name: main.c
   3:.\main.c      **** *
   4:.\main.c      **** * Version: 1
   5:.\main.c      **** * Author: Lukas Creutzburg
   6:.\main.c      **** *
   7:.\main.c      **** * Description:
   8:.\main.c      **** *  Guitar PSoC Code
   9:.\main.c      **** *
  10:.\main.c      **** *******************************************************************************/
  11:.\main.c      **** 
  12:.\main.c      **** #include "project.h"
  13:.\main.c      **** #include "capsense.h"
  14:.\main.c      **** #include "uart.h"
  15:.\main.c      **** #include "i2cmaster.h"
  16:.\main.c      **** 
  17:.\main.c      **** 
  18:.\main.c      **** /*******************************************************************************
  19:.\main.c      **** * Function Name: main
  20:.\main.c      **** ********************************************************************************
  21:.\main.c      **** * Summary:
  22:.\main.c      **** *  Main function performs following functions:
  23:.\main.c      **** *   1. Enable global interrupts.
  24:.\main.c      **** *   2. Initialize CapSense, UART (Debug), I2C Interaction
  25:.\main.c      **** *   3. Process scanning results and sending them
  26:.\main.c      **** *
  27:.\main.c      **** * Parameters:
  28:.\main.c      **** *  None
  29:.\main.c      **** *
  30:.\main.c      **** * Return:
  31:.\main.c      **** *  None
  32:.\main.c      **** *
ARM GAS  C:\Users\LUKASC~1\AppData\Local\Temp\ccMGo50g.s 			page 2


  33:.\main.c      **** *******************************************************************************/
  34:.\main.c      **** int main()
  35:.\main.c      **** {
  26              		.loc 1 35 0
  27              		.cfi_startproc
  28 0000 80B5     		push	{r7, lr}
  29              		.cfi_def_cfa_offset 8
  30              		.cfi_offset 7, -8
  31              		.cfi_offset 14, -4
  32 0002 82B0     		sub	sp, sp, #8
  33              		.cfi_def_cfa_offset 16
  34 0004 00AF     		add	r7, sp, #0
  35              		.cfi_def_cfa_register 7
  36:.\main.c      ****     /* Enable global interrupts */
  37:.\main.c      ****     CyGlobalIntEnable;
  36              		.loc 1 37 0
  37              	@ 37 ".\main.c" 1
  38 0006 62B6     		CPSIE   i
  39              	@ 0 "" 2
  38:.\main.c      ****     
  39:.\main.c      ****     uint8 command = CMD_SET_RED;
  40              		.loc 1 39 0
  41              		.code	16
  42 0008 FB1D     		add	r3, r7, #7
  43 000a 0122     		mov	r2, #1
  44 000c 1A70     		strb	r2, [r3]
  40:.\main.c      ****     
  41:.\main.c      ****     UARTInit();
  45              		.loc 1 41 0
  46 000e FFF7FEFF 		bl	UARTInit
  42:.\main.c      ****     CapSenseInit();
  47              		.loc 1 42 0
  48 0012 FFF7FEFF 		bl	CapSenseInit
  43:.\main.c      ****     I2CInit();
  49              		.loc 1 43 0
  50 0016 FFF7FEFF 		bl	I2CInit
  51              	.L4:
  52              	.LBB2:
  44:.\main.c      **** 
  45:.\main.c      ****     while(1u)
  46:.\main.c      ****     {
  47:.\main.c      ****         int32 pos = CapSense_Refresh();
  53              		.loc 1 47 0
  54 001a FFF7FEFF 		bl	CapSense_Refresh
  55 001e 031C     		mov	r3, r0
  56 0020 3B60     		str	r3, [r7]
  48:.\main.c      ****         if(pos!=-1){
  57              		.loc 1 48 0
  58 0022 3B68     		ldr	r3, [r7]
  59 0024 0133     		add	r3, r3, #1
  60 0026 03D0     		beq	.L2
  49:.\main.c      ****             UART_SendNumber(pos);
  61              		.loc 1 49 0
  62 0028 3B68     		ldr	r3, [r7]
  63 002a 181C     		mov	r0, r3
  64 002c FFF7FEFF 		bl	UART_SendNumber
  65              	.L2:
ARM GAS  C:\Users\LUKASC~1\AppData\Local\Temp\ccMGo50g.s 			page 3


  50:.\main.c      ****         }
  51:.\main.c      ****         
  52:.\main.c      ****         
  53:.\main.c      ****         //uint8 command=(0xAu);
  54:.\main.c      ****         /* Send packet with command to the slave */
  55:.\main.c      ****         if (0u == I2CWriteCommandPacket(command))
  66              		.loc 1 55 0
  67 0030 FB1D     		add	r3, r7, #7
  68 0032 1B78     		ldrb	r3, [r3]
  69 0034 181C     		mov	r0, r3
  70 0036 FFF7FEFF 		bl	I2CWriteCommandPacket
  71 003a 031E     		sub	r3, r0, #0
  72 003c 0FD1     		bne	.L3
  56:.\main.c      ****         {
  57:.\main.c      ****             /* Read response packet from the slave */
  58:.\main.c      ****             if (0u == I2CReadStatusPacket())
  73              		.loc 1 58 0
  74 003e FFF7FEFF 		bl	I2CReadStatusPacket
  75 0042 031E     		sub	r3, r0, #0
  76 0044 0BD1     		bne	.L3
  59:.\main.c      ****             {
  60:.\main.c      ****                 /* Next command to be written */
  61:.\main.c      ****                 command++;
  77              		.loc 1 61 0
  78 0046 FB1D     		add	r3, r7, #7
  79 0048 1A78     		ldrb	r2, [r3]
  80 004a FB1D     		add	r3, r7, #7
  81 004c 0132     		add	r2, r2, #1
  82 004e 1A70     		strb	r2, [r3]
  62:.\main.c      ****                 if (command > CMD_SET_BLUE)
  83              		.loc 1 62 0
  84 0050 FB1D     		add	r3, r7, #7
  85 0052 1B78     		ldrb	r3, [r3]
  86 0054 032B     		cmp	r3, #3
  87 0056 02D9     		bls	.L3
  63:.\main.c      ****                 {
  64:.\main.c      ****                     command = CMD_SET_OFF;
  88              		.loc 1 64 0
  89 0058 FB1D     		add	r3, r7, #7
  90 005a 0022     		mov	r2, #0
  91 005c 1A70     		strb	r2, [r3]
  92              	.L3:
  65:.\main.c      ****                 }
  66:.\main.c      **** 
  67:.\main.c      ****                 /* Turn off status LED */
  68:.\main.c      ****                 //RGB_LED_OFF;
  69:.\main.c      ****             }
  70:.\main.c      ****             
  71:.\main.c      ****         }
  72:.\main.c      **** 
  73:.\main.c      ****         LED_1_Write(!LED_1_Read());
  93              		.loc 1 73 0
  94 005e FFF7FEFF 		bl	LED_1_Read
  95 0062 031C     		mov	r3, r0
  96 0064 5A42     		neg	r2, r3
  97 0066 5341     		adc	r3, r3, r2
  98 0068 DBB2     		uxtb	r3, r3
ARM GAS  C:\Users\LUKASC~1\AppData\Local\Temp\ccMGo50g.s 			page 4


  99 006a 181C     		mov	r0, r3
 100 006c FFF7FEFF 		bl	LED_1_Write
  74:.\main.c      ****         CyDelay(CMD_TO_CMD_DELAY); /* Delay between commands */
 101              		.loc 1 74 0
 102 0070 FA23     		mov	r3, #250
 103 0072 5B00     		lsl	r3, r3, #1
 104 0074 181C     		mov	r0, r3
 105 0076 FFF7FEFF 		bl	CyDelay
 106              	.LBE2:
  75:.\main.c      ****     }
 107              		.loc 1 75 0
 108 007a CEE7     		b	.L4
 109              		.cfi_endproc
 110              	.LFE34:
 111              		.size	main, .-main
 112              		.text
 113              	.Letext0:
 114              		.file 2 "Generated_Source\\PSoC4/cytypes.h"