ARM GAS  C:\Users\LUKASC~1\AppData\Local\Temp\cct32bqr.s 			page 1


   1              		.syntax unified
   2              		.cpu cortex-m3
   3              		.fpu softvfp
   4              		.eabi_attribute 20, 1
   5              		.eabi_attribute 21, 1
   6              		.eabi_attribute 23, 3
   7              		.eabi_attribute 24, 1
   8              		.eabi_attribute 25, 1
   9              		.eabi_attribute 26, 1
  10              		.eabi_attribute 30, 6
  11              		.eabi_attribute 34, 1
  12              		.eabi_attribute 18, 4
  13              		.thumb
  14              		.file	"main.c"
  15              		.text
  16              	.Ltext0:
  17              		.cfi_sections	.debug_frame
  18              		.global _printf_float
  19              		.global _printf_float
  20              		.thumb
  21              		.comm	wrBuffer,64,4
  22              		.comm	temp,1,1
  23              		.global _printf_float
  24              		.section	.rodata
  25              		.align	2
  26              	.LC0:
  27 0000 52463234 		.ascii	"RF24 init......\015\000"
  27      20696E69 
  27      742E2E2E 
  27      2E2E2E0D 
  27      00
  28 0011 000000   		.align	2
  29              	.LC1:
  30 0014 646F6E65 		.ascii	"done\012\015\000"
  30      0A0D00
  31 001b 00       		.align	2
  32              	.LC2:
  33 001c 52463234 		.ascii	"RF24......\015\000"
  33      2E2E2E2E 
  33      2E2E0D00 
  34              		.align	2
  35              	.LC3:
  36 0028 636F6E6E 		.ascii	"connected\012\015\000"
  36      65637465 
  36      640A0D00 
  37              		.align	2
  38              	.LC4:
  39 0034 566F6C75 		.ascii	"Volume: %i\012\015\000"
  39      6D653A20 
  39      25690A0D 
  39      00
  40              		.thumb
  41 0041 000000   		.section	.text.main,"ax",%progbits
  42              		.align	2
  43              		.global	main
  44              		.thumb
  45              		.thumb_func
ARM GAS  C:\Users\LUKASC~1\AppData\Local\Temp\cct32bqr.s 			page 2


  46              		.type	main, %function
  47              	main:
  48              	.LFB63:
  49              		.file 1 ".\\main.c"
   1:.\main.c      **** /*******************************************************************************
   2:.\main.c      **** * File Name: main.c
   3:.\main.c      **** *
   4:.\main.c      **** * Version: 1.0
   5:.\main.c      **** * Author: Lukas Creutzburg
   6:.\main.c      **** *
   7:.\main.c      **** * Description:
   8:.\main.c      **** *  Interaction with DSP
   9:.\main.c      **** *
  10:.\main.c      **** *******************************************************************************/
  11:.\main.c      **** 
  12:.\main.c      **** #include "main.h"
  13:.\main.c      **** 
  14:.\main.c      **** 
  15:.\main.c      **** 
  16:.\main.c      **** /*******************************************************************************
  17:.\main.c      **** * Function Name: main
  18:.\main.c      **** ********************************************************************************
  19:.\main.c      **** *
  20:.\main.c      **** * Summary:
  21:.\main.c      **** *  main() sends things via SPI and UART simmultaniously
  22:.\main.c      **** *
  23:.\main.c      **** * Parameters:
  24:.\main.c      **** *  None.
  25:.\main.c      **** *
  26:.\main.c      **** * Return:
  27:.\main.c      **** *  None.
  28:.\main.c      **** *
  29:.\main.c      **** *******************************************************************************/
  30:.\main.c      **** int main()
  31:.\main.c      **** {
  50              		.loc 1 31 0
  51              		.cfi_startproc
  52              		@ args = 0, pretend = 0, frame = 8
  53              		@ frame_needed = 1, uses_anonymous_args = 0
  54 0000 80B5     		push	{r7, lr}
  55              		.cfi_def_cfa_offset 8
  56              		.cfi_offset 7, -8
  57              		.cfi_offset 14, -4
  58 0002 82B0     		sub	sp, sp, #8
  59              		.cfi_def_cfa_offset 16
  60 0004 00AF     		add	r7, sp, #0
  61              		.cfi_def_cfa_register 7
  32:.\main.c      ****     
  33:.\main.c      ****     /* Enable Global interrupts - used for USB communication */
  34:.\main.c      ****     CyGlobalIntEnable;
  62              		.loc 1 34 0
  63              	@ 34 ".\main.c" 1
  64 0006 62B6     		CPSIE   i
  65              	@ 0 "" 2
  35:.\main.c      **** 
  36:.\main.c      ****     UARTinit();
  66              		.loc 1 36 0
ARM GAS  C:\Users\LUKASC~1\AppData\Local\Temp\cct32bqr.s 			page 3


  67              		.thumb
  68 0008 FFF7FEFF 		bl	UARTinit
  37:.\main.c      ****     UARTsendString("RF24 init......\r");
  69              		.loc 1 37 0
  70 000c 1148     		ldr	r0, .L5
  71 000e FFF7FEFF 		bl	UARTsendString
  38:.\main.c      ****     RF24init();
  72              		.loc 1 38 0
  73 0012 FFF7FEFF 		bl	RF24init
  39:.\main.c      ****     UARTsendString("done\n\r");
  74              		.loc 1 39 0
  75 0016 1048     		ldr	r0, .L5+4
  76 0018 FFF7FEFF 		bl	UARTsendString
  40:.\main.c      ****     UARTsendString("RF24......\r");
  77              		.loc 1 40 0
  78 001c 0F48     		ldr	r0, .L5+8
  79 001e FFF7FEFF 		bl	UARTsendString
  41:.\main.c      ****     if(1) UARTsendString("connected\n\r");
  80              		.loc 1 41 0
  81 0022 0F48     		ldr	r0, .L5+12
  82 0024 FFF7FEFF 		bl	UARTsendString
  83              	.L4:
  84              	.LBB2:
  42:.\main.c      ****     else UARTsendString("NOT connected\n\r");
  43:.\main.c      **** 
  44:.\main.c      ****     for(;;)
  45:.\main.c      ****     {
  46:.\main.c      ****         int volume;
  47:.\main.c      ****         for(volume=50;volume<100;volume++)
  85              		.loc 1 47 0
  86 0028 3223     		movs	r3, #50
  87 002a 7B60     		str	r3, [r7, #4]
  88 002c 0DE0     		b	.L2
  89              	.L3:
  48:.\main.c      ****         {
  49:.\main.c      ****             //TODO Setzen des Volume Wertes im DSP
  50:.\main.c      ****             
  51:.\main.c      ****             sprintf((char *)wrBuffer, "Volume: %i\n\r", volume);
  90              		.loc 1 51 0 discriminator 3
  91 002e 0D48     		ldr	r0, .L5+16
  92 0030 0D49     		ldr	r1, .L5+20
  93 0032 7A68     		ldr	r2, [r7, #4]
  94 0034 FFF7FEFF 		bl	sprintf
  52:.\main.c      ****             UARTsendString((char8 *)wrBuffer);
  95              		.loc 1 52 0 discriminator 3
  96 0038 0A48     		ldr	r0, .L5+16
  97 003a FFF7FEFF 		bl	UARTsendString
  53:.\main.c      ****             CyDelay(250);
  98              		.loc 1 53 0 discriminator 3
  99 003e FA20     		movs	r0, #250
 100 0040 FFF7FEFF 		bl	CyDelay
  47:.\main.c      ****         {
 101              		.loc 1 47 0 discriminator 3
 102 0044 7B68     		ldr	r3, [r7, #4]
 103 0046 0133     		adds	r3, r3, #1
 104 0048 7B60     		str	r3, [r7, #4]
 105              	.L2:
ARM GAS  C:\Users\LUKASC~1\AppData\Local\Temp\cct32bqr.s 			page 4


  47:.\main.c      ****         {
 106              		.loc 1 47 0 is_stmt 0 discriminator 1
 107 004a 7B68     		ldr	r3, [r7, #4]
 108 004c 632B     		cmp	r3, #99
 109 004e EEDD     		ble	.L3
 110              	.LBE2:
  54:.\main.c      ****         }
  55:.\main.c      ****         
  56:.\main.c      ****         
  57:.\main.c      ****         
  58:.\main.c      ****         
  59:.\main.c      **** 
  60:.\main.c      ****     }  /* End of forever loop */
 111              		.loc 1 60 0 is_stmt 1
 112 0050 EAE7     		b	.L4
 113              	.L6:
 114 0052 00BF     		.align	2
 115              	.L5:
 116 0054 00000000 		.word	.LC0
 117 0058 14000000 		.word	.LC1
 118 005c 1C000000 		.word	.LC2
 119 0060 28000000 		.word	.LC3
 120 0064 00000000 		.word	wrBuffer
 121 0068 34000000 		.word	.LC4
 122              		.cfi_endproc
 123              	.LFE63:
 124              		.size	main, .-main
 125              		.text
 126              	.Letext0:
 127              		.file 2 "c:\\program files (x86)\\cypress\\psoc creator\\3.3\\psoc creator\\import\\gnu\\arm\\4.9.
 128              		.file 3 "c:\\program files (x86)\\cypress\\psoc creator\\3.3\\psoc creator\\import\\gnu\\arm\\4.9.
 129              		.file 4 "Generated_Source\\PSoC5/cytypes.h"
 130              		.file 5 "Generated_Source\\PSoC5/core_cm3.h"
 131              		.file 6 ".\\spimaster.h"