ARM GAS  C:\Users\LUKASC~1\AppData\Local\Temp\ccPilJyS.s 			page 1


   1              		.syntax unified
   2              		.cpu cortex-m3
   3              		.fpu softvfp
   4              		.eabi_attribute 20, 1
   5              		.eabi_attribute 21, 1
   6              		.eabi_attribute 23, 3
   7              		.eabi_attribute 24, 1
   8              		.eabi_attribute 25, 1
   9              		.eabi_attribute 26, 1
  10              		.eabi_attribute 30, 6
  11              		.eabi_attribute 34, 1
  12              		.eabi_attribute 18, 4
  13              		.thumb
  14              		.file	"IDAC8.c"
  15              		.text
  16              	.Ltext0:
  17              		.cfi_sections	.debug_frame
  18              		.global	IDAC8_initVar
  19              		.bss
  20              		.type	IDAC8_initVar, %object
  21              		.size	IDAC8_initVar, 1
  22              	IDAC8_initVar:
  23 0000 00       		.space	1
  24              		.section	.text.IDAC8_Init,"ax",%progbits
  25              		.align	2
  26              		.global	IDAC8_Init
  27              		.thumb
  28              		.thumb_func
  29              		.type	IDAC8_Init, %function
  30              	IDAC8_Init:
  31              	.LFB0:
  32              		.file 1 ".\\Generated_Source\\PSoC5\\IDAC8.c"
   1:.\Generated_Source\PSoC5/IDAC8.c **** /*******************************************************************************
   2:.\Generated_Source\PSoC5/IDAC8.c **** * File Name: IDAC8.c
   3:.\Generated_Source\PSoC5/IDAC8.c **** * Version 2.0
   4:.\Generated_Source\PSoC5/IDAC8.c **** *
   5:.\Generated_Source\PSoC5/IDAC8.c **** * Description:
   6:.\Generated_Source\PSoC5/IDAC8.c **** *  This file provides the source code to the API for the 8-bit Current 
   7:.\Generated_Source\PSoC5/IDAC8.c **** *  DAC (IDAC8) User Module.
   8:.\Generated_Source\PSoC5/IDAC8.c **** *
   9:.\Generated_Source\PSoC5/IDAC8.c **** * Note:
  10:.\Generated_Source\PSoC5/IDAC8.c **** *  None
  11:.\Generated_Source\PSoC5/IDAC8.c **** *
  12:.\Generated_Source\PSoC5/IDAC8.c **** ********************************************************************************
  13:.\Generated_Source\PSoC5/IDAC8.c **** * Copyright 2008-2012, Cypress Semiconductor Corporation.  All rights reserved.
  14:.\Generated_Source\PSoC5/IDAC8.c **** * You may use this file only in accordance with the license, terms, conditions, 
  15:.\Generated_Source\PSoC5/IDAC8.c **** * disclaimers, and limitations in the end user license agreement accompanying 
  16:.\Generated_Source\PSoC5/IDAC8.c **** * the software package with which this file was provided.
  17:.\Generated_Source\PSoC5/IDAC8.c **** *******************************************************************************/
  18:.\Generated_Source\PSoC5/IDAC8.c **** 
  19:.\Generated_Source\PSoC5/IDAC8.c **** #include "cytypes.h"
  20:.\Generated_Source\PSoC5/IDAC8.c **** #include "IDAC8.h"   
  21:.\Generated_Source\PSoC5/IDAC8.c **** 
  22:.\Generated_Source\PSoC5/IDAC8.c **** #if (CY_PSOC5A)
  23:.\Generated_Source\PSoC5/IDAC8.c ****     #include <CyLib.h>
  24:.\Generated_Source\PSoC5/IDAC8.c **** #endif /* CY_PSOC5A */
  25:.\Generated_Source\PSoC5/IDAC8.c **** 
ARM GAS  C:\Users\LUKASC~1\AppData\Local\Temp\ccPilJyS.s 			page 2


  26:.\Generated_Source\PSoC5/IDAC8.c **** 
  27:.\Generated_Source\PSoC5/IDAC8.c **** uint8 IDAC8_initVar = 0u;
  28:.\Generated_Source\PSoC5/IDAC8.c **** 
  29:.\Generated_Source\PSoC5/IDAC8.c **** 
  30:.\Generated_Source\PSoC5/IDAC8.c **** #if (CY_PSOC5A)
  31:.\Generated_Source\PSoC5/IDAC8.c ****     static IDAC8_LOWPOWER_BACKUP_STRUCT  IDAC8_lowPowerBackup;
  32:.\Generated_Source\PSoC5/IDAC8.c **** #endif /* CY_PSOC5A */
  33:.\Generated_Source\PSoC5/IDAC8.c **** 
  34:.\Generated_Source\PSoC5/IDAC8.c **** /* Variable to decide whether or not to restore control register in Enable()
  35:.\Generated_Source\PSoC5/IDAC8.c ****    API. This valid only for PSoC5A */
  36:.\Generated_Source\PSoC5/IDAC8.c **** #if (CY_PSOC5A)
  37:.\Generated_Source\PSoC5/IDAC8.c ****     static uint8 IDAC8_restoreReg = 0u;
  38:.\Generated_Source\PSoC5/IDAC8.c **** #endif /* CY_PSOC5A */
  39:.\Generated_Source\PSoC5/IDAC8.c **** 
  40:.\Generated_Source\PSoC5/IDAC8.c **** 
  41:.\Generated_Source\PSoC5/IDAC8.c **** /*******************************************************************************
  42:.\Generated_Source\PSoC5/IDAC8.c **** * Function Name: IDAC8_Init
  43:.\Generated_Source\PSoC5/IDAC8.c **** ********************************************************************************
  44:.\Generated_Source\PSoC5/IDAC8.c **** * Summary:
  45:.\Generated_Source\PSoC5/IDAC8.c **** *  Initialize to the schematic state.
  46:.\Generated_Source\PSoC5/IDAC8.c **** * 
  47:.\Generated_Source\PSoC5/IDAC8.c **** * Parameters:
  48:.\Generated_Source\PSoC5/IDAC8.c **** *  void:
  49:.\Generated_Source\PSoC5/IDAC8.c **** *
  50:.\Generated_Source\PSoC5/IDAC8.c **** * Return:
  51:.\Generated_Source\PSoC5/IDAC8.c **** *  (void)
  52:.\Generated_Source\PSoC5/IDAC8.c **** *
  53:.\Generated_Source\PSoC5/IDAC8.c **** * Theory:
  54:.\Generated_Source\PSoC5/IDAC8.c **** *
  55:.\Generated_Source\PSoC5/IDAC8.c **** * Side Effects:
  56:.\Generated_Source\PSoC5/IDAC8.c **** *
  57:.\Generated_Source\PSoC5/IDAC8.c **** *******************************************************************************/
  58:.\Generated_Source\PSoC5/IDAC8.c **** void IDAC8_Init(void) 
  59:.\Generated_Source\PSoC5/IDAC8.c **** {
  33              		.loc 1 59 0
  34              		.cfi_startproc
  35              		@ args = 0, pretend = 0, frame = 0
  36              		@ frame_needed = 1, uses_anonymous_args = 0
  37 0000 80B5     		push	{r7, lr}
  38              		.cfi_def_cfa_offset 8
  39              		.cfi_offset 7, -8
  40              		.cfi_offset 14, -4
  41 0002 00AF     		add	r7, sp, #0
  42              		.cfi_def_cfa_register 7
  60:.\Generated_Source\PSoC5/IDAC8.c ****     IDAC8_CR0 = (IDAC8_MODE_I | IDAC8_DEFAULT_RANGE );
  43              		.loc 1 60 0
  44 0004 084B     		ldr	r3, .L2
  45 0006 1022     		movs	r2, #16
  46 0008 1A70     		strb	r2, [r3]
  61:.\Generated_Source\PSoC5/IDAC8.c **** 
  62:.\Generated_Source\PSoC5/IDAC8.c ****     /* Set default data source */
  63:.\Generated_Source\PSoC5/IDAC8.c ****     #if(IDAC8_DEFAULT_DATA_SRC != 0u )    
  64:.\Generated_Source\PSoC5/IDAC8.c ****         IDAC8_CR1 = (IDAC8_DEFAULT_CNTL | IDAC8_DACBUS_ENABLE);
  65:.\Generated_Source\PSoC5/IDAC8.c ****     #else
  66:.\Generated_Source\PSoC5/IDAC8.c ****         IDAC8_CR1 = (IDAC8_DEFAULT_CNTL | IDAC8_DACBUS_DISABLE);
  47              		.loc 1 66 0
  48 000a 084B     		ldr	r3, .L2+4
ARM GAS  C:\Users\LUKASC~1\AppData\Local\Temp\ccPilJyS.s 			page 3


  49 000c 0022     		movs	r2, #0
  50 000e 1A70     		strb	r2, [r3]
  67:.\Generated_Source\PSoC5/IDAC8.c ****     #endif /* (IDAC8_DEFAULT_DATA_SRC != 0u ) */
  68:.\Generated_Source\PSoC5/IDAC8.c ****     
  69:.\Generated_Source\PSoC5/IDAC8.c ****     /*Controls polarity from UDB Control*/
  70:.\Generated_Source\PSoC5/IDAC8.c ****     #if(IDAC8_DEFAULT_POLARITY == IDAC8_HARDWARE_CONTROLLED)
  71:.\Generated_Source\PSoC5/IDAC8.c ****         IDAC8_CR1 |= IDAC8_IDIR_SRC_UDB;
  72:.\Generated_Source\PSoC5/IDAC8.c ****     #else
  73:.\Generated_Source\PSoC5/IDAC8.c ****         IDAC8_CR1 |= IDAC8_DEFAULT_POLARITY;
  51              		.loc 1 73 0
  52 0010 064B     		ldr	r3, .L2+4
  53 0012 064A     		ldr	r2, .L2+4
  54 0014 1278     		ldrb	r2, [r2]
  55 0016 D2B2     		uxtb	r2, r2
  56 0018 1A70     		strb	r2, [r3]
  74:.\Generated_Source\PSoC5/IDAC8.c ****     #endif/* (IDAC8_DEFAULT_POLARITY == IDAC8_HARDWARE_CONTROLLED) */
  75:.\Generated_Source\PSoC5/IDAC8.c ****     /*Controls Current Source from UDB Control*/
  76:.\Generated_Source\PSoC5/IDAC8.c ****     #if(IDAC8_HARDWARE_ENABLE != 0u ) 
  77:.\Generated_Source\PSoC5/IDAC8.c ****         IDAC8_CR1 |= IDAC8_IDIR_CTL_UDB;
  78:.\Generated_Source\PSoC5/IDAC8.c ****     #endif /* (IDAC8_HARDWARE_ENABLE != 0u ) */ 
  79:.\Generated_Source\PSoC5/IDAC8.c ****     
  80:.\Generated_Source\PSoC5/IDAC8.c ****     /* Set default strobe mode */
  81:.\Generated_Source\PSoC5/IDAC8.c ****     #if(IDAC8_DEFAULT_STRB != 0u)
  82:.\Generated_Source\PSoC5/IDAC8.c ****         IDAC8_Strobe |= IDAC8_STRB_EN;
  83:.\Generated_Source\PSoC5/IDAC8.c ****     #endif /* (IDAC8_DEFAULT_STRB != 0u) */
  84:.\Generated_Source\PSoC5/IDAC8.c ****     
  85:.\Generated_Source\PSoC5/IDAC8.c ****     /* Set default speed */
  86:.\Generated_Source\PSoC5/IDAC8.c ****     IDAC8_SetSpeed(IDAC8_DEFAULT_SPEED);
  57              		.loc 1 86 0
  58 001a 0020     		movs	r0, #0
  59 001c FFF7FEFF 		bl	IDAC8_SetSpeed
  87:.\Generated_Source\PSoC5/IDAC8.c ****     
  88:.\Generated_Source\PSoC5/IDAC8.c ****     /* Set proper DAC trim */
  89:.\Generated_Source\PSoC5/IDAC8.c ****     IDAC8_DacTrim();
  60              		.loc 1 89 0
  61 0020 FFF7FEFF 		bl	IDAC8_DacTrim
  90:.\Generated_Source\PSoC5/IDAC8.c ****     
  91:.\Generated_Source\PSoC5/IDAC8.c **** }
  62              		.loc 1 91 0
  63 0024 80BD     		pop	{r7, pc}
  64              	.L3:
  65 0026 00BF     		.align	2
  66              	.L2:
  67 0028 28580040 		.word	1073764392
  68 002c 29580040 		.word	1073764393
  69              		.cfi_endproc
  70              	.LFE0:
  71              		.size	IDAC8_Init, .-IDAC8_Init
  72              		.section	.text.IDAC8_Enable,"ax",%progbits
  73              		.align	2
  74              		.global	IDAC8_Enable
  75              		.thumb
  76              		.thumb_func
  77              		.type	IDAC8_Enable, %function
  78              	IDAC8_Enable:
  79              	.LFB1:
  92:.\Generated_Source\PSoC5/IDAC8.c **** 
ARM GAS  C:\Users\LUKASC~1\AppData\Local\Temp\ccPilJyS.s 			page 4


  93:.\Generated_Source\PSoC5/IDAC8.c **** 
  94:.\Generated_Source\PSoC5/IDAC8.c **** /*******************************************************************************
  95:.\Generated_Source\PSoC5/IDAC8.c **** * Function Name: IDAC8_Enable
  96:.\Generated_Source\PSoC5/IDAC8.c **** ********************************************************************************
  97:.\Generated_Source\PSoC5/IDAC8.c **** * Summary:
  98:.\Generated_Source\PSoC5/IDAC8.c **** *  Enable the IDAC8
  99:.\Generated_Source\PSoC5/IDAC8.c **** * 
 100:.\Generated_Source\PSoC5/IDAC8.c **** * Parameters:
 101:.\Generated_Source\PSoC5/IDAC8.c **** *  void:
 102:.\Generated_Source\PSoC5/IDAC8.c **** *
 103:.\Generated_Source\PSoC5/IDAC8.c **** * Return:
 104:.\Generated_Source\PSoC5/IDAC8.c **** *  (void)
 105:.\Generated_Source\PSoC5/IDAC8.c **** *
 106:.\Generated_Source\PSoC5/IDAC8.c **** * Theory:
 107:.\Generated_Source\PSoC5/IDAC8.c **** *
 108:.\Generated_Source\PSoC5/IDAC8.c **** * Side Effects:
 109:.\Generated_Source\PSoC5/IDAC8.c **** *
 110:.\Generated_Source\PSoC5/IDAC8.c **** *******************************************************************************/
 111:.\Generated_Source\PSoC5/IDAC8.c **** void IDAC8_Enable(void) 
 112:.\Generated_Source\PSoC5/IDAC8.c **** {
  80              		.loc 1 112 0
  81              		.cfi_startproc
  82              		@ args = 0, pretend = 0, frame = 0
  83              		@ frame_needed = 1, uses_anonymous_args = 0
  84              		@ link register save eliminated.
  85 0000 80B4     		push	{r7}
  86              		.cfi_def_cfa_offset 4
  87              		.cfi_offset 7, -4
  88 0002 00AF     		add	r7, sp, #0
  89              		.cfi_def_cfa_register 7
 113:.\Generated_Source\PSoC5/IDAC8.c ****     IDAC8_PWRMGR |= IDAC8_ACT_PWR_EN;
  90              		.loc 1 113 0
  91 0004 094A     		ldr	r2, .L5
  92 0006 094B     		ldr	r3, .L5
  93 0008 1B78     		ldrb	r3, [r3]
  94 000a DBB2     		uxtb	r3, r3
  95 000c 43F00403 		orr	r3, r3, #4
  96 0010 DBB2     		uxtb	r3, r3
  97 0012 1370     		strb	r3, [r2]
 114:.\Generated_Source\PSoC5/IDAC8.c ****     IDAC8_STBY_PWRMGR |= IDAC8_STBY_PWR_EN;
  98              		.loc 1 114 0
  99 0014 064A     		ldr	r2, .L5+4
 100 0016 064B     		ldr	r3, .L5+4
 101 0018 1B78     		ldrb	r3, [r3]
 102 001a DBB2     		uxtb	r3, r3
 103 001c 43F00403 		orr	r3, r3, #4
 104 0020 DBB2     		uxtb	r3, r3
 105 0022 1370     		strb	r3, [r2]
 115:.\Generated_Source\PSoC5/IDAC8.c **** 
 116:.\Generated_Source\PSoC5/IDAC8.c ****     /* This is to restore the value of register CR0 which is saved 
 117:.\Generated_Source\PSoC5/IDAC8.c ****       in prior to the modification in stop() API */
 118:.\Generated_Source\PSoC5/IDAC8.c ****     #if (CY_PSOC5A)
 119:.\Generated_Source\PSoC5/IDAC8.c ****         if(IDAC8_restoreReg == 1u)
 120:.\Generated_Source\PSoC5/IDAC8.c ****         {
 121:.\Generated_Source\PSoC5/IDAC8.c ****             IDAC8_CR0 = IDAC8_lowPowerBackup.DACCR0Reg;
 122:.\Generated_Source\PSoC5/IDAC8.c **** 
 123:.\Generated_Source\PSoC5/IDAC8.c ****             /* Clear the flag */
ARM GAS  C:\Users\LUKASC~1\AppData\Local\Temp\ccPilJyS.s 			page 5


 124:.\Generated_Source\PSoC5/IDAC8.c ****             IDAC8_restoreReg = 0u;
 125:.\Generated_Source\PSoC5/IDAC8.c ****         }
 126:.\Generated_Source\PSoC5/IDAC8.c ****     #endif /* CY_PSOC5A */
 127:.\Generated_Source\PSoC5/IDAC8.c **** }
 106              		.loc 1 127 0
 107 0024 BD46     		mov	sp, r7
 108              		.cfi_def_cfa_register 13
 109              		@ sp needed
 110 0026 5DF8047B 		ldr	r7, [sp], #4
 111              		.cfi_restore 7
 112              		.cfi_def_cfa_offset 0
 113 002a 7047     		bx	lr
 114              	.L6:
 115              		.align	2
 116              	.L5:
 117 002c A8430040 		.word	1073759144
 118 0030 B8430040 		.word	1073759160
 119              		.cfi_endproc
 120              	.LFE1:
 121              		.size	IDAC8_Enable, .-IDAC8_Enable
 122              		.section	.text.IDAC8_Start,"ax",%progbits
 123              		.align	2
 124              		.global	IDAC8_Start
 125              		.thumb
 126              		.thumb_func
 127              		.type	IDAC8_Start, %function
 128              	IDAC8_Start:
 129              	.LFB2:
 128:.\Generated_Source\PSoC5/IDAC8.c **** 
 129:.\Generated_Source\PSoC5/IDAC8.c **** 
 130:.\Generated_Source\PSoC5/IDAC8.c **** /*******************************************************************************
 131:.\Generated_Source\PSoC5/IDAC8.c **** * Function Name: IDAC8_Start
 132:.\Generated_Source\PSoC5/IDAC8.c **** ********************************************************************************
 133:.\Generated_Source\PSoC5/IDAC8.c **** * Summary:
 134:.\Generated_Source\PSoC5/IDAC8.c **** *  Set power level then turn on IDAC8.
 135:.\Generated_Source\PSoC5/IDAC8.c **** *
 136:.\Generated_Source\PSoC5/IDAC8.c **** * Parameters:  
 137:.\Generated_Source\PSoC5/IDAC8.c **** *  power: Sets power level between off (0) and (3) high power
 138:.\Generated_Source\PSoC5/IDAC8.c **** *
 139:.\Generated_Source\PSoC5/IDAC8.c **** * Return:
 140:.\Generated_Source\PSoC5/IDAC8.c **** *  (void)
 141:.\Generated_Source\PSoC5/IDAC8.c **** *
 142:.\Generated_Source\PSoC5/IDAC8.c **** * Global variables:
 143:.\Generated_Source\PSoC5/IDAC8.c **** *  IDAC8_initVar: Is modified when this function is called for 
 144:.\Generated_Source\PSoC5/IDAC8.c **** *   the first time. Is used to ensure that initialization happens only once.
 145:.\Generated_Source\PSoC5/IDAC8.c **** *
 146:.\Generated_Source\PSoC5/IDAC8.c **** *******************************************************************************/
 147:.\Generated_Source\PSoC5/IDAC8.c **** void IDAC8_Start(void) 
 148:.\Generated_Source\PSoC5/IDAC8.c **** {
 130              		.loc 1 148 0
 131              		.cfi_startproc
 132              		@ args = 0, pretend = 0, frame = 0
 133              		@ frame_needed = 1, uses_anonymous_args = 0
 134 0000 80B5     		push	{r7, lr}
 135              		.cfi_def_cfa_offset 8
 136              		.cfi_offset 7, -8
 137              		.cfi_offset 14, -4
ARM GAS  C:\Users\LUKASC~1\AppData\Local\Temp\ccPilJyS.s 			page 6


 138 0002 00AF     		add	r7, sp, #0
 139              		.cfi_def_cfa_register 7
 149:.\Generated_Source\PSoC5/IDAC8.c ****     /* Hardware initiazation only needs to occur the first time */
 150:.\Generated_Source\PSoC5/IDAC8.c ****     if ( IDAC8_initVar == 0u)  
 140              		.loc 1 150 0
 141 0004 074B     		ldr	r3, .L9
 142 0006 1B78     		ldrb	r3, [r3]	@ zero_extendqisi2
 143 0008 002B     		cmp	r3, #0
 144 000a 04D1     		bne	.L8
 151:.\Generated_Source\PSoC5/IDAC8.c ****     {
 152:.\Generated_Source\PSoC5/IDAC8.c ****         IDAC8_Init();
 145              		.loc 1 152 0
 146 000c FFF7FEFF 		bl	IDAC8_Init
 153:.\Generated_Source\PSoC5/IDAC8.c ****         
 154:.\Generated_Source\PSoC5/IDAC8.c ****         IDAC8_initVar = 1u;
 147              		.loc 1 154 0
 148 0010 044B     		ldr	r3, .L9
 149 0012 0122     		movs	r2, #1
 150 0014 1A70     		strb	r2, [r3]
 151              	.L8:
 155:.\Generated_Source\PSoC5/IDAC8.c ****     }
 156:.\Generated_Source\PSoC5/IDAC8.c ****    
 157:.\Generated_Source\PSoC5/IDAC8.c ****     /* Enable power to DAC */
 158:.\Generated_Source\PSoC5/IDAC8.c ****     IDAC8_Enable();
 152              		.loc 1 158 0
 153 0016 FFF7FEFF 		bl	IDAC8_Enable
 159:.\Generated_Source\PSoC5/IDAC8.c **** 
 160:.\Generated_Source\PSoC5/IDAC8.c ****     /* Set default value */
 161:.\Generated_Source\PSoC5/IDAC8.c ****     IDAC8_SetValue(IDAC8_DEFAULT_DATA);
 154              		.loc 1 161 0
 155 001a 5020     		movs	r0, #80
 156 001c FFF7FEFF 		bl	IDAC8_SetValue
 162:.\Generated_Source\PSoC5/IDAC8.c **** 
 163:.\Generated_Source\PSoC5/IDAC8.c **** }
 157              		.loc 1 163 0
 158 0020 80BD     		pop	{r7, pc}
 159              	.L10:
 160 0022 00BF     		.align	2
 161              	.L9:
 162 0024 00000000 		.word	IDAC8_initVar
 163              		.cfi_endproc
 164              	.LFE2:
 165              		.size	IDAC8_Start, .-IDAC8_Start
 166              		.section	.text.IDAC8_Stop,"ax",%progbits
 167              		.align	2
 168              		.global	IDAC8_Stop
 169              		.thumb
 170              		.thumb_func
 171              		.type	IDAC8_Stop, %function
 172              	IDAC8_Stop:
 173              	.LFB3:
 164:.\Generated_Source\PSoC5/IDAC8.c **** 
 165:.\Generated_Source\PSoC5/IDAC8.c **** 
 166:.\Generated_Source\PSoC5/IDAC8.c **** /*******************************************************************************
 167:.\Generated_Source\PSoC5/IDAC8.c **** * Function Name: IDAC8_Stop
 168:.\Generated_Source\PSoC5/IDAC8.c **** ********************************************************************************
 169:.\Generated_Source\PSoC5/IDAC8.c **** * Summary:
ARM GAS  C:\Users\LUKASC~1\AppData\Local\Temp\ccPilJyS.s 			page 7


 170:.\Generated_Source\PSoC5/IDAC8.c **** *  Powers down IDAC8 to lowest power state.
 171:.\Generated_Source\PSoC5/IDAC8.c **** *
 172:.\Generated_Source\PSoC5/IDAC8.c **** * Parameters:
 173:.\Generated_Source\PSoC5/IDAC8.c **** *  (void)
 174:.\Generated_Source\PSoC5/IDAC8.c **** *
 175:.\Generated_Source\PSoC5/IDAC8.c **** * Return:
 176:.\Generated_Source\PSoC5/IDAC8.c **** *  (void)
 177:.\Generated_Source\PSoC5/IDAC8.c **** *
 178:.\Generated_Source\PSoC5/IDAC8.c **** * Theory:
 179:.\Generated_Source\PSoC5/IDAC8.c **** *
 180:.\Generated_Source\PSoC5/IDAC8.c **** * Side Effects:
 181:.\Generated_Source\PSoC5/IDAC8.c **** *
 182:.\Generated_Source\PSoC5/IDAC8.c **** *******************************************************************************/
 183:.\Generated_Source\PSoC5/IDAC8.c **** void IDAC8_Stop(void) 
 184:.\Generated_Source\PSoC5/IDAC8.c **** {
 174              		.loc 1 184 0
 175              		.cfi_startproc
 176              		@ args = 0, pretend = 0, frame = 0
 177              		@ frame_needed = 1, uses_anonymous_args = 0
 178              		@ link register save eliminated.
 179 0000 80B4     		push	{r7}
 180              		.cfi_def_cfa_offset 4
 181              		.cfi_offset 7, -4
 182 0002 00AF     		add	r7, sp, #0
 183              		.cfi_def_cfa_register 7
 185:.\Generated_Source\PSoC5/IDAC8.c ****     /* Disble power to DAC */
 186:.\Generated_Source\PSoC5/IDAC8.c ****     IDAC8_PWRMGR &= (uint8)(~IDAC8_ACT_PWR_EN);
 184              		.loc 1 186 0
 185 0004 094A     		ldr	r2, .L12
 186 0006 094B     		ldr	r3, .L12
 187 0008 1B78     		ldrb	r3, [r3]
 188 000a DBB2     		uxtb	r3, r3
 189 000c 23F00403 		bic	r3, r3, #4
 190 0010 DBB2     		uxtb	r3, r3
 191 0012 1370     		strb	r3, [r2]
 187:.\Generated_Source\PSoC5/IDAC8.c ****     IDAC8_STBY_PWRMGR &= (uint8)(~IDAC8_STBY_PWR_EN);
 192              		.loc 1 187 0
 193 0014 064A     		ldr	r2, .L12+4
 194 0016 064B     		ldr	r3, .L12+4
 195 0018 1B78     		ldrb	r3, [r3]
 196 001a DBB2     		uxtb	r3, r3
 197 001c 23F00403 		bic	r3, r3, #4
 198 0020 DBB2     		uxtb	r3, r3
 199 0022 1370     		strb	r3, [r2]
 188:.\Generated_Source\PSoC5/IDAC8.c ****     
 189:.\Generated_Source\PSoC5/IDAC8.c ****     #if (CY_PSOC5A)
 190:.\Generated_Source\PSoC5/IDAC8.c ****     
 191:.\Generated_Source\PSoC5/IDAC8.c ****         /* Set the global variable  */
 192:.\Generated_Source\PSoC5/IDAC8.c ****         IDAC8_restoreReg = 1u;
 193:.\Generated_Source\PSoC5/IDAC8.c **** 
 194:.\Generated_Source\PSoC5/IDAC8.c ****         /* Save the control register and then Clear it. */
 195:.\Generated_Source\PSoC5/IDAC8.c ****         IDAC8_lowPowerBackup.DACCR0Reg = IDAC8_CR0;
 196:.\Generated_Source\PSoC5/IDAC8.c ****         IDAC8_CR0 = (IDAC8_MODE_I | IDAC8_RANGE_3 | IDAC8_HS_HIGHSPEED);
 197:.\Generated_Source\PSoC5/IDAC8.c ****     #endif /* CY_PSOC5A */
 198:.\Generated_Source\PSoC5/IDAC8.c **** }
 200              		.loc 1 198 0
 201 0024 BD46     		mov	sp, r7
ARM GAS  C:\Users\LUKASC~1\AppData\Local\Temp\ccPilJyS.s 			page 8


 202              		.cfi_def_cfa_register 13
 203              		@ sp needed
 204 0026 5DF8047B 		ldr	r7, [sp], #4
 205              		.cfi_restore 7
 206              		.cfi_def_cfa_offset 0
 207 002a 7047     		bx	lr
 208              	.L13:
 209              		.align	2
 210              	.L12:
 211 002c A8430040 		.word	1073759144
 212 0030 B8430040 		.word	1073759160
 213              		.cfi_endproc
 214              	.LFE3:
 215              		.size	IDAC8_Stop, .-IDAC8_Stop
 216              		.section	.text.IDAC8_SetSpeed,"ax",%progbits
 217              		.align	2
 218              		.global	IDAC8_SetSpeed
 219              		.thumb
 220              		.thumb_func
 221              		.type	IDAC8_SetSpeed, %function
 222              	IDAC8_SetSpeed:
 223              	.LFB4:
 199:.\Generated_Source\PSoC5/IDAC8.c **** 
 200:.\Generated_Source\PSoC5/IDAC8.c **** 
 201:.\Generated_Source\PSoC5/IDAC8.c **** /*******************************************************************************
 202:.\Generated_Source\PSoC5/IDAC8.c **** * Function Name: IDAC8_SetSpeed
 203:.\Generated_Source\PSoC5/IDAC8.c **** ********************************************************************************
 204:.\Generated_Source\PSoC5/IDAC8.c **** * Summary:
 205:.\Generated_Source\PSoC5/IDAC8.c **** *  Set DAC speed
 206:.\Generated_Source\PSoC5/IDAC8.c **** *
 207:.\Generated_Source\PSoC5/IDAC8.c **** * Parameters:
 208:.\Generated_Source\PSoC5/IDAC8.c **** *  power: Sets speed value
 209:.\Generated_Source\PSoC5/IDAC8.c **** *
 210:.\Generated_Source\PSoC5/IDAC8.c **** * Return:
 211:.\Generated_Source\PSoC5/IDAC8.c **** *  (void)
 212:.\Generated_Source\PSoC5/IDAC8.c **** *
 213:.\Generated_Source\PSoC5/IDAC8.c **** * Theory:
 214:.\Generated_Source\PSoC5/IDAC8.c **** *
 215:.\Generated_Source\PSoC5/IDAC8.c **** * Side Effects:
 216:.\Generated_Source\PSoC5/IDAC8.c **** *
 217:.\Generated_Source\PSoC5/IDAC8.c **** *******************************************************************************/
 218:.\Generated_Source\PSoC5/IDAC8.c **** void IDAC8_SetSpeed(uint8 speed) 
 219:.\Generated_Source\PSoC5/IDAC8.c **** {
 224              		.loc 1 219 0
 225              		.cfi_startproc
 226              		@ args = 0, pretend = 0, frame = 8
 227              		@ frame_needed = 1, uses_anonymous_args = 0
 228              		@ link register save eliminated.
 229 0000 80B4     		push	{r7}
 230              		.cfi_def_cfa_offset 4
 231              		.cfi_offset 7, -4
 232 0002 83B0     		sub	sp, sp, #12
 233              		.cfi_def_cfa_offset 16
 234 0004 00AF     		add	r7, sp, #0
 235              		.cfi_def_cfa_register 7
 236 0006 0346     		mov	r3, r0
 237 0008 FB71     		strb	r3, [r7, #7]
ARM GAS  C:\Users\LUKASC~1\AppData\Local\Temp\ccPilJyS.s 			page 9


 220:.\Generated_Source\PSoC5/IDAC8.c ****     /* Clear power mask then write in new value */
 221:.\Generated_Source\PSoC5/IDAC8.c ****     IDAC8_CR0 &= (uint8)(~IDAC8_HS_MASK);
 238              		.loc 1 221 0
 239 000a 0C4A     		ldr	r2, .L15
 240 000c 0B4B     		ldr	r3, .L15
 241 000e 1B78     		ldrb	r3, [r3]
 242 0010 DBB2     		uxtb	r3, r3
 243 0012 23F00203 		bic	r3, r3, #2
 244 0016 DBB2     		uxtb	r3, r3
 245 0018 1370     		strb	r3, [r2]
 222:.\Generated_Source\PSoC5/IDAC8.c ****     IDAC8_CR0 |=  ( speed & IDAC8_HS_MASK);
 246              		.loc 1 222 0
 247 001a 0849     		ldr	r1, .L15
 248 001c 074B     		ldr	r3, .L15
 249 001e 1B78     		ldrb	r3, [r3]
 250 0020 DAB2     		uxtb	r2, r3
 251 0022 FB79     		ldrb	r3, [r7, #7]
 252 0024 03F00203 		and	r3, r3, #2
 253 0028 DBB2     		uxtb	r3, r3
 254 002a 1343     		orrs	r3, r3, r2
 255 002c DBB2     		uxtb	r3, r3
 256 002e 0B70     		strb	r3, [r1]
 223:.\Generated_Source\PSoC5/IDAC8.c **** }
 257              		.loc 1 223 0
 258 0030 0C37     		adds	r7, r7, #12
 259              		.cfi_def_cfa_offset 4
 260 0032 BD46     		mov	sp, r7
 261              		.cfi_def_cfa_register 13
 262              		@ sp needed
 263 0034 5DF8047B 		ldr	r7, [sp], #4
 264              		.cfi_restore 7
 265              		.cfi_def_cfa_offset 0
 266 0038 7047     		bx	lr
 267              	.L16:
 268 003a 00BF     		.align	2
 269              	.L15:
 270 003c 28580040 		.word	1073764392
 271              		.cfi_endproc
 272              	.LFE4:
 273              		.size	IDAC8_SetSpeed, .-IDAC8_SetSpeed
 274              		.section	.text.IDAC8_SetPolarity,"ax",%progbits
 275              		.align	2
 276              		.global	IDAC8_SetPolarity
 277              		.thumb
 278              		.thumb_func
 279              		.type	IDAC8_SetPolarity, %function
 280              	IDAC8_SetPolarity:
 281              	.LFB5:
 224:.\Generated_Source\PSoC5/IDAC8.c **** 
 225:.\Generated_Source\PSoC5/IDAC8.c **** 
 226:.\Generated_Source\PSoC5/IDAC8.c **** /*******************************************************************************
 227:.\Generated_Source\PSoC5/IDAC8.c **** * Function Name: IDAC8_SetPolarity
 228:.\Generated_Source\PSoC5/IDAC8.c **** ********************************************************************************
 229:.\Generated_Source\PSoC5/IDAC8.c **** * Summary:
 230:.\Generated_Source\PSoC5/IDAC8.c **** *  Sets IDAC to Sink or Source current.
 231:.\Generated_Source\PSoC5/IDAC8.c **** *  
 232:.\Generated_Source\PSoC5/IDAC8.c **** * Parameters:
ARM GAS  C:\Users\LUKASC~1\AppData\Local\Temp\ccPilJyS.s 			page 10


 233:.\Generated_Source\PSoC5/IDAC8.c **** *  Polarity: Sets the IDAC to Sink or Source 
 234:.\Generated_Source\PSoC5/IDAC8.c **** *  0x00 - Source
 235:.\Generated_Source\PSoC5/IDAC8.c **** *  0x04 - Sink
 236:.\Generated_Source\PSoC5/IDAC8.c **** *
 237:.\Generated_Source\PSoC5/IDAC8.c **** * Return:
 238:.\Generated_Source\PSoC5/IDAC8.c **** *  (void)
 239:.\Generated_Source\PSoC5/IDAC8.c **** *
 240:.\Generated_Source\PSoC5/IDAC8.c **** * Theory:
 241:.\Generated_Source\PSoC5/IDAC8.c **** *
 242:.\Generated_Source\PSoC5/IDAC8.c **** * Side Effects:
 243:.\Generated_Source\PSoC5/IDAC8.c **** *
 244:.\Generated_Source\PSoC5/IDAC8.c **** *******************************************************************************/
 245:.\Generated_Source\PSoC5/IDAC8.c **** #if(IDAC8_DEFAULT_POLARITY != IDAC8_HARDWARE_CONTROLLED)
 246:.\Generated_Source\PSoC5/IDAC8.c ****     void IDAC8_SetPolarity(uint8 polarity) 
 247:.\Generated_Source\PSoC5/IDAC8.c ****     {
 282              		.loc 1 247 0
 283              		.cfi_startproc
 284              		@ args = 0, pretend = 0, frame = 8
 285              		@ frame_needed = 1, uses_anonymous_args = 0
 286 0000 80B5     		push	{r7, lr}
 287              		.cfi_def_cfa_offset 8
 288              		.cfi_offset 7, -8
 289              		.cfi_offset 14, -4
 290 0002 82B0     		sub	sp, sp, #8
 291              		.cfi_def_cfa_offset 16
 292 0004 00AF     		add	r7, sp, #0
 293              		.cfi_def_cfa_register 7
 294 0006 0346     		mov	r3, r0
 295 0008 FB71     		strb	r3, [r7, #7]
 248:.\Generated_Source\PSoC5/IDAC8.c ****         IDAC8_CR1 &= (uint8)(~IDAC8_IDIR_MASK);                /* clear polarity bit */
 296              		.loc 1 248 0
 297 000a 0C4A     		ldr	r2, .L18
 298 000c 0B4B     		ldr	r3, .L18
 299 000e 1B78     		ldrb	r3, [r3]
 300 0010 DBB2     		uxtb	r3, r3
 301 0012 23F00403 		bic	r3, r3, #4
 302 0016 DBB2     		uxtb	r3, r3
 303 0018 1370     		strb	r3, [r2]
 249:.\Generated_Source\PSoC5/IDAC8.c ****         IDAC8_CR1 |= (polarity & IDAC8_IDIR_MASK);             /* set new value */
 304              		.loc 1 249 0
 305 001a 0849     		ldr	r1, .L18
 306 001c 074B     		ldr	r3, .L18
 307 001e 1B78     		ldrb	r3, [r3]
 308 0020 DAB2     		uxtb	r2, r3
 309 0022 FB79     		ldrb	r3, [r7, #7]
 310 0024 03F00403 		and	r3, r3, #4
 311 0028 DBB2     		uxtb	r3, r3
 312 002a 1343     		orrs	r3, r3, r2
 313 002c DBB2     		uxtb	r3, r3
 314 002e 0B70     		strb	r3, [r1]
 250:.\Generated_Source\PSoC5/IDAC8.c ****     
 251:.\Generated_Source\PSoC5/IDAC8.c ****         IDAC8_DacTrim();
 315              		.loc 1 251 0
 316 0030 FFF7FEFF 		bl	IDAC8_DacTrim
 252:.\Generated_Source\PSoC5/IDAC8.c ****     }
 317              		.loc 1 252 0
 318 0034 0837     		adds	r7, r7, #8
ARM GAS  C:\Users\LUKASC~1\AppData\Local\Temp\ccPilJyS.s 			page 11


 319              		.cfi_def_cfa_offset 8
 320 0036 BD46     		mov	sp, r7
 321              		.cfi_def_cfa_register 13
 322              		@ sp needed
 323 0038 80BD     		pop	{r7, pc}
 324              	.L19:
 325 003a 00BF     		.align	2
 326              	.L18:
 327 003c 29580040 		.word	1073764393
 328              		.cfi_endproc
 329              	.LFE5:
 330              		.size	IDAC8_SetPolarity, .-IDAC8_SetPolarity
 331              		.section	.text.IDAC8_SetRange,"ax",%progbits
 332              		.align	2
 333              		.global	IDAC8_SetRange
 334              		.thumb
 335              		.thumb_func
 336              		.type	IDAC8_SetRange, %function
 337              	IDAC8_SetRange:
 338              	.LFB6:
 253:.\Generated_Source\PSoC5/IDAC8.c **** #endif/*(IDAC8_DEFAULT_POLARITY != IDAC8_HARDWARE_CONTROLLED)*/
 254:.\Generated_Source\PSoC5/IDAC8.c **** 
 255:.\Generated_Source\PSoC5/IDAC8.c **** 
 256:.\Generated_Source\PSoC5/IDAC8.c **** /*******************************************************************************
 257:.\Generated_Source\PSoC5/IDAC8.c **** * Function Name: IDAC8_SetRange
 258:.\Generated_Source\PSoC5/IDAC8.c **** ********************************************************************************
 259:.\Generated_Source\PSoC5/IDAC8.c **** * Summary:
 260:.\Generated_Source\PSoC5/IDAC8.c **** *  Set current range
 261:.\Generated_Source\PSoC5/IDAC8.c **** *
 262:.\Generated_Source\PSoC5/IDAC8.c **** * Parameters:
 263:.\Generated_Source\PSoC5/IDAC8.c **** *  Range: Sets on of four valid ranges.
 264:.\Generated_Source\PSoC5/IDAC8.c **** *
 265:.\Generated_Source\PSoC5/IDAC8.c **** * Return:
 266:.\Generated_Source\PSoC5/IDAC8.c **** *  (void)
 267:.\Generated_Source\PSoC5/IDAC8.c **** *
 268:.\Generated_Source\PSoC5/IDAC8.c **** * Theory:
 269:.\Generated_Source\PSoC5/IDAC8.c **** *
 270:.\Generated_Source\PSoC5/IDAC8.c **** * Side Effects:
 271:.\Generated_Source\PSoC5/IDAC8.c **** *
 272:.\Generated_Source\PSoC5/IDAC8.c **** *******************************************************************************/
 273:.\Generated_Source\PSoC5/IDAC8.c **** void IDAC8_SetRange(uint8 range) 
 274:.\Generated_Source\PSoC5/IDAC8.c **** {
 339              		.loc 1 274 0
 340              		.cfi_startproc
 341              		@ args = 0, pretend = 0, frame = 8
 342              		@ frame_needed = 1, uses_anonymous_args = 0
 343 0000 80B5     		push	{r7, lr}
 344              		.cfi_def_cfa_offset 8
 345              		.cfi_offset 7, -8
 346              		.cfi_offset 14, -4
 347 0002 82B0     		sub	sp, sp, #8
 348              		.cfi_def_cfa_offset 16
 349 0004 00AF     		add	r7, sp, #0
 350              		.cfi_def_cfa_register 7
 351 0006 0346     		mov	r3, r0
 352 0008 FB71     		strb	r3, [r7, #7]
 275:.\Generated_Source\PSoC5/IDAC8.c ****     IDAC8_CR0 &= (uint8)(~IDAC8_RANGE_MASK);       /* Clear existing mode */
ARM GAS  C:\Users\LUKASC~1\AppData\Local\Temp\ccPilJyS.s 			page 12


 353              		.loc 1 275 0
 354 000a 0C4A     		ldr	r2, .L21
 355 000c 0B4B     		ldr	r3, .L21
 356 000e 1B78     		ldrb	r3, [r3]
 357 0010 DBB2     		uxtb	r3, r3
 358 0012 23F00C03 		bic	r3, r3, #12
 359 0016 DBB2     		uxtb	r3, r3
 360 0018 1370     		strb	r3, [r2]
 276:.\Generated_Source\PSoC5/IDAC8.c ****     IDAC8_CR0 |= ( range & IDAC8_RANGE_MASK );     /*  Set Range  */
 361              		.loc 1 276 0
 362 001a 0849     		ldr	r1, .L21
 363 001c 074B     		ldr	r3, .L21
 364 001e 1B78     		ldrb	r3, [r3]
 365 0020 DAB2     		uxtb	r2, r3
 366 0022 FB79     		ldrb	r3, [r7, #7]
 367 0024 03F00C03 		and	r3, r3, #12
 368 0028 DBB2     		uxtb	r3, r3
 369 002a 1343     		orrs	r3, r3, r2
 370 002c DBB2     		uxtb	r3, r3
 371 002e 0B70     		strb	r3, [r1]
 277:.\Generated_Source\PSoC5/IDAC8.c ****     IDAC8_DacTrim();
 372              		.loc 1 277 0
 373 0030 FFF7FEFF 		bl	IDAC8_DacTrim
 278:.\Generated_Source\PSoC5/IDAC8.c **** }
 374              		.loc 1 278 0
 375 0034 0837     		adds	r7, r7, #8
 376              		.cfi_def_cfa_offset 8
 377 0036 BD46     		mov	sp, r7
 378              		.cfi_def_cfa_register 13
 379              		@ sp needed
 380 0038 80BD     		pop	{r7, pc}
 381              	.L22:
 382 003a 00BF     		.align	2
 383              	.L21:
 384 003c 28580040 		.word	1073764392
 385              		.cfi_endproc
 386              	.LFE6:
 387              		.size	IDAC8_SetRange, .-IDAC8_SetRange
 388              		.section	.text.IDAC8_SetValue,"ax",%progbits
 389              		.align	2
 390              		.global	IDAC8_SetValue
 391              		.thumb
 392              		.thumb_func
 393              		.type	IDAC8_SetValue, %function
 394              	IDAC8_SetValue:
 395              	.LFB7:
 279:.\Generated_Source\PSoC5/IDAC8.c **** 
 280:.\Generated_Source\PSoC5/IDAC8.c **** 
 281:.\Generated_Source\PSoC5/IDAC8.c **** /*******************************************************************************
 282:.\Generated_Source\PSoC5/IDAC8.c **** * Function Name: IDAC8_SetValue
 283:.\Generated_Source\PSoC5/IDAC8.c **** ********************************************************************************
 284:.\Generated_Source\PSoC5/IDAC8.c **** * Summary:
 285:.\Generated_Source\PSoC5/IDAC8.c **** *  Set DAC value
 286:.\Generated_Source\PSoC5/IDAC8.c **** *
 287:.\Generated_Source\PSoC5/IDAC8.c **** * Parameters:
 288:.\Generated_Source\PSoC5/IDAC8.c **** *  value: Sets DAC value between 0 and 255.
 289:.\Generated_Source\PSoC5/IDAC8.c **** *
ARM GAS  C:\Users\LUKASC~1\AppData\Local\Temp\ccPilJyS.s 			page 13


 290:.\Generated_Source\PSoC5/IDAC8.c **** * Return:
 291:.\Generated_Source\PSoC5/IDAC8.c **** *  (void)
 292:.\Generated_Source\PSoC5/IDAC8.c **** *
 293:.\Generated_Source\PSoC5/IDAC8.c **** * Theory:
 294:.\Generated_Source\PSoC5/IDAC8.c **** *
 295:.\Generated_Source\PSoC5/IDAC8.c **** * Side Effects:
 296:.\Generated_Source\PSoC5/IDAC8.c **** *
 297:.\Generated_Source\PSoC5/IDAC8.c **** *******************************************************************************/
 298:.\Generated_Source\PSoC5/IDAC8.c **** void IDAC8_SetValue(uint8 value) 
 299:.\Generated_Source\PSoC5/IDAC8.c **** {
 396              		.loc 1 299 0
 397              		.cfi_startproc
 398              		@ args = 0, pretend = 0, frame = 8
 399              		@ frame_needed = 1, uses_anonymous_args = 0
 400              		@ link register save eliminated.
 401 0000 80B4     		push	{r7}
 402              		.cfi_def_cfa_offset 4
 403              		.cfi_offset 7, -4
 404 0002 83B0     		sub	sp, sp, #12
 405              		.cfi_def_cfa_offset 16
 406 0004 00AF     		add	r7, sp, #0
 407              		.cfi_def_cfa_register 7
 408 0006 0346     		mov	r3, r0
 409 0008 FB71     		strb	r3, [r7, #7]
 300:.\Generated_Source\PSoC5/IDAC8.c **** 
 301:.\Generated_Source\PSoC5/IDAC8.c ****     #if (CY_PSOC5A)
 302:.\Generated_Source\PSoC5/IDAC8.c ****         uint8 IDAC8_intrStatus = CyEnterCriticalSection();
 303:.\Generated_Source\PSoC5/IDAC8.c ****     #endif /* CY_PSOC5A */
 304:.\Generated_Source\PSoC5/IDAC8.c **** 
 305:.\Generated_Source\PSoC5/IDAC8.c ****     IDAC8_Data = value;         /*  Set Value  */
 410              		.loc 1 305 0
 411 000a 044A     		ldr	r2, .L24
 412 000c FB79     		ldrb	r3, [r7, #7]
 413 000e 1370     		strb	r3, [r2]
 306:.\Generated_Source\PSoC5/IDAC8.c ****     
 307:.\Generated_Source\PSoC5/IDAC8.c ****     /* PSOC5A silicons require a double write */
 308:.\Generated_Source\PSoC5/IDAC8.c ****     #if (CY_PSOC5A)
 309:.\Generated_Source\PSoC5/IDAC8.c ****         IDAC8_Data = value;
 310:.\Generated_Source\PSoC5/IDAC8.c ****         CyExitCriticalSection(IDAC8_intrStatus);
 311:.\Generated_Source\PSoC5/IDAC8.c ****     #endif /* CY_PSOC5A */
 312:.\Generated_Source\PSoC5/IDAC8.c **** }
 414              		.loc 1 312 0
 415 0010 0C37     		adds	r7, r7, #12
 416              		.cfi_def_cfa_offset 4
 417 0012 BD46     		mov	sp, r7
 418              		.cfi_def_cfa_register 13
 419              		@ sp needed
 420 0014 5DF8047B 		ldr	r7, [sp], #4
 421              		.cfi_restore 7
 422              		.cfi_def_cfa_offset 0
 423 0018 7047     		bx	lr
 424              	.L25:
 425 001a 00BF     		.align	2
 426              	.L24:
 427 001c 825B0040 		.word	1073765250
 428              		.cfi_endproc
 429              	.LFE7:
ARM GAS  C:\Users\LUKASC~1\AppData\Local\Temp\ccPilJyS.s 			page 14


 430              		.size	IDAC8_SetValue, .-IDAC8_SetValue
 431              		.section	.text.IDAC8_DacTrim,"ax",%progbits
 432              		.align	2
 433              		.global	IDAC8_DacTrim
 434              		.thumb
 435              		.thumb_func
 436              		.type	IDAC8_DacTrim, %function
 437              	IDAC8_DacTrim:
 438              	.LFB8:
 313:.\Generated_Source\PSoC5/IDAC8.c **** 
 314:.\Generated_Source\PSoC5/IDAC8.c **** 
 315:.\Generated_Source\PSoC5/IDAC8.c **** /*******************************************************************************
 316:.\Generated_Source\PSoC5/IDAC8.c **** * Function Name: IDAC8_DacTrim
 317:.\Generated_Source\PSoC5/IDAC8.c **** ********************************************************************************
 318:.\Generated_Source\PSoC5/IDAC8.c **** * Summary:
 319:.\Generated_Source\PSoC5/IDAC8.c **** *  Set the trim value for the given range.
 320:.\Generated_Source\PSoC5/IDAC8.c **** *
 321:.\Generated_Source\PSoC5/IDAC8.c **** * Parameters:
 322:.\Generated_Source\PSoC5/IDAC8.c **** *  None
 323:.\Generated_Source\PSoC5/IDAC8.c **** *
 324:.\Generated_Source\PSoC5/IDAC8.c **** * Return:
 325:.\Generated_Source\PSoC5/IDAC8.c **** *  (void) 
 326:.\Generated_Source\PSoC5/IDAC8.c **** *
 327:.\Generated_Source\PSoC5/IDAC8.c **** * Theory:
 328:.\Generated_Source\PSoC5/IDAC8.c **** *  Trim values for the IDAC blocks are stored in the "Customer Table" area in 
 329:.\Generated_Source\PSoC5/IDAC8.c **** *  Row 1 of the Hidden Flash.  There are 8 bytes of trim data for each 
 330:.\Generated_Source\PSoC5/IDAC8.c **** *  IDAC block.
 331:.\Generated_Source\PSoC5/IDAC8.c **** *  The values are:
 332:.\Generated_Source\PSoC5/IDAC8.c **** *       I Gain offset, min range, Sourcing
 333:.\Generated_Source\PSoC5/IDAC8.c **** *       I Gain offset, min range, Sinking
 334:.\Generated_Source\PSoC5/IDAC8.c **** *       I Gain offset, med range, Sourcing
 335:.\Generated_Source\PSoC5/IDAC8.c **** *       I Gain offset, med range, Sinking
 336:.\Generated_Source\PSoC5/IDAC8.c **** *       I Gain offset, max range, Sourcing
 337:.\Generated_Source\PSoC5/IDAC8.c **** *       I Gain offset, max range, Sinking
 338:.\Generated_Source\PSoC5/IDAC8.c **** *       V Gain offset, 1V range
 339:.\Generated_Source\PSoC5/IDAC8.c **** *       V Gain offset, 4V range
 340:.\Generated_Source\PSoC5/IDAC8.c **** *
 341:.\Generated_Source\PSoC5/IDAC8.c **** * Side Effects:
 342:.\Generated_Source\PSoC5/IDAC8.c **** *
 343:.\Generated_Source\PSoC5/IDAC8.c **** *******************************************************************************/
 344:.\Generated_Source\PSoC5/IDAC8.c **** void IDAC8_DacTrim(void) 
 345:.\Generated_Source\PSoC5/IDAC8.c **** {
 439              		.loc 1 345 0
 440              		.cfi_startproc
 441              		@ args = 0, pretend = 0, frame = 8
 442              		@ frame_needed = 1, uses_anonymous_args = 0
 443              		@ link register save eliminated.
 444 0000 80B4     		push	{r7}
 445              		.cfi_def_cfa_offset 4
 446              		.cfi_offset 7, -4
 447 0002 83B0     		sub	sp, sp, #12
 448              		.cfi_def_cfa_offset 16
 449 0004 00AF     		add	r7, sp, #0
 450              		.cfi_def_cfa_register 7
 346:.\Generated_Source\PSoC5/IDAC8.c ****     uint8 mode;
 347:.\Generated_Source\PSoC5/IDAC8.c **** 
 348:.\Generated_Source\PSoC5/IDAC8.c ****     mode = ((IDAC8_CR0 & IDAC8_RANGE_MASK) >> 1u);
ARM GAS  C:\Users\LUKASC~1\AppData\Local\Temp\ccPilJyS.s 			page 15


 451              		.loc 1 348 0
 452 0006 104B     		ldr	r3, .L28
 453 0008 1B78     		ldrb	r3, [r3]
 454 000a DBB2     		uxtb	r3, r3
 455 000c 03F00C03 		and	r3, r3, #12
 456 0010 5B08     		lsrs	r3, r3, #1
 457 0012 FB71     		strb	r3, [r7, #7]
 349:.\Generated_Source\PSoC5/IDAC8.c ****     
 350:.\Generated_Source\PSoC5/IDAC8.c ****     if((IDAC8_IDIR_MASK & IDAC8_CR1) == IDAC8_IDIR_SINK)
 458              		.loc 1 350 0
 459 0014 0D4B     		ldr	r3, .L28+4
 460 0016 1B78     		ldrb	r3, [r3]
 461 0018 DBB2     		uxtb	r3, r3
 462 001a 03F00403 		and	r3, r3, #4
 463 001e DBB2     		uxtb	r3, r3
 464 0020 002B     		cmp	r3, #0
 465 0022 02D0     		beq	.L27
 351:.\Generated_Source\PSoC5/IDAC8.c ****     {
 352:.\Generated_Source\PSoC5/IDAC8.c ****         mode++;
 466              		.loc 1 352 0
 467 0024 FB79     		ldrb	r3, [r7, #7]	@ zero_extendqisi2
 468 0026 0133     		adds	r3, r3, #1
 469 0028 FB71     		strb	r3, [r7, #7]
 470              	.L27:
 353:.\Generated_Source\PSoC5/IDAC8.c ****     }
 354:.\Generated_Source\PSoC5/IDAC8.c **** 
 355:.\Generated_Source\PSoC5/IDAC8.c ****     IDAC8_TR = CY_GET_XTND_REG8((uint8 *)(IDAC8_DAC_TRIM_BASE + mode));
 471              		.loc 1 355 0
 472 002a 094A     		ldr	r2, .L28+8
 473 002c FB79     		ldrb	r3, [r7, #7]	@ zero_extendqisi2
 474 002e 03F19243 		add	r3, r3, #1224736768
 475 0032 03F59473 		add	r3, r3, #296
 476 0036 1B78     		ldrb	r3, [r3]
 477 0038 DBB2     		uxtb	r3, r3
 478 003a 1370     		strb	r3, [r2]
 356:.\Generated_Source\PSoC5/IDAC8.c **** }
 479              		.loc 1 356 0
 480 003c 0C37     		adds	r7, r7, #12
 481              		.cfi_def_cfa_offset 4
 482 003e BD46     		mov	sp, r7
 483              		.cfi_def_cfa_register 13
 484              		@ sp needed
 485 0040 5DF8047B 		ldr	r7, [sp], #4
 486              		.cfi_restore 7
 487              		.cfi_def_cfa_offset 0
 488 0044 7047     		bx	lr
 489              	.L29:
 490 0046 00BF     		.align	2
 491              	.L28:
 492 0048 28580040 		.word	1073764392
 493 004c 29580040 		.word	1073764393
 494 0050 0A460040 		.word	1073759754
 495              		.cfi_endproc
 496              	.LFE8:
 497              		.size	IDAC8_DacTrim, .-IDAC8_DacTrim
 498              		.text
 499              	.Letext0:
ARM GAS  C:\Users\LUKASC~1\AppData\Local\Temp\ccPilJyS.s 			page 16


 500              		.file 2 ".\\Generated_Source\\PSoC5\\cytypes.h"