ARM GAS  C:\Users\LUKASC~1\AppData\Local\Temp\ccyoRuDw.s 			page 1


   1              		.syntax unified
   2              		.cpu cortex-m3
   3              		.fpu softvfp
   4              		.eabi_attribute 20, 1
   5              		.eabi_attribute 21, 1
   6              		.eabi_attribute 23, 3
   7              		.eabi_attribute 24, 1
   8              		.eabi_attribute 25, 1
   9              		.eabi_attribute 26, 1
  10              		.eabi_attribute 30, 6
  11              		.eabi_attribute 34, 1
  12              		.eabi_attribute 18, 4
  13              		.thumb
  14              		.file	"spimaster.c"
  15              		.text
  16              	.Ltext0:
  17              		.cfi_sections	.debug_frame
  18              		.global _printf_float
  19              		.thumb
  20              		.comm	wrBuffer,64,4
  21              		.comm	temp,1,1
  22              		.section	.text.SPIinit,"ax",%progbits
  23              		.align	2
  24              		.global	SPIinit
  25              		.thumb
  26              		.thumb_func
  27              		.type	SPIinit, %function
  28              	SPIinit:
  29              	.LFB63:
  30              		.file 1 ".\\spimaster.c"
   1:.\spimaster.c **** /*******************************************************************************
   2:.\spimaster.c **** * File Name: spimaster.c
   3:.\spimaster.c **** *
   4:.\spimaster.c **** * Version: 1.0
   5:.\spimaster.c **** * Author: Lukas Creutzburg
   6:.\spimaster.c **** *
   7:.\spimaster.c **** * Description:
   8:.\spimaster.c **** *   Component sends data via SPI as Master
   9:.\spimaster.c **** *
  10:.\spimaster.c **** *******************************************************************************/
  11:.\spimaster.c **** 
  12:.\spimaster.c **** #include "spimaster.h"
  13:.\spimaster.c **** 
  14:.\spimaster.c **** /*******************************************************************************
  15:.\spimaster.c **** * Function Name: SPIinit
  16:.\spimaster.c **** ********************************************************************************
  17:.\spimaster.c **** *
  18:.\spimaster.c **** * Summary:
  19:.\spimaster.c **** *  Initialize communication
  20:.\spimaster.c **** *
  21:.\spimaster.c **** * Parameters:
  22:.\spimaster.c **** *  None.
  23:.\spimaster.c **** *
  24:.\spimaster.c **** * Return:
  25:.\spimaster.c **** *  None.
  26:.\spimaster.c **** *
  27:.\spimaster.c **** *******************************************************************************/
ARM GAS  C:\Users\LUKASC~1\AppData\Local\Temp\ccyoRuDw.s 			page 2


  28:.\spimaster.c **** void SPIinit()
  29:.\spimaster.c **** {
  31              		.loc 1 29 0
  32              		.cfi_startproc
  33              		@ args = 0, pretend = 0, frame = 0
  34              		@ frame_needed = 1, uses_anonymous_args = 0
  35 0000 80B5     		push	{r7, lr}
  36              		.cfi_def_cfa_offset 8
  37              		.cfi_offset 7, -8
  38              		.cfi_offset 14, -4
  39 0002 00AF     		add	r7, sp, #0
  40              		.cfi_def_cfa_register 7
  30:.\spimaster.c ****     SPIM_Start();
  41              		.loc 1 30 0
  42 0004 FFF7FEFF 		bl	SPIM_Start
  31:.\spimaster.c **** }
  43              		.loc 1 31 0
  44 0008 80BD     		pop	{r7, pc}
  45              		.cfi_endproc
  46              	.LFE63:
  47              		.size	SPIinit, .-SPIinit
  48 000a 00BF     		.section	.text.SPIsendNumber,"ax",%progbits
  49              		.align	2
  50              		.global	SPIsendNumber
  51              		.thumb
  52              		.thumb_func
  53              		.type	SPIsendNumber, %function
  54              	SPIsendNumber:
  55              	.LFB64:
  32:.\spimaster.c **** 
  33:.\spimaster.c **** /*******************************************************************************
  34:.\spimaster.c **** * Function Name: SPIsendNumber
  35:.\spimaster.c **** ********************************************************************************
  36:.\spimaster.c **** *
  37:.\spimaster.c **** * Summary:
  38:.\spimaster.c **** *  Sending a Number via SPI as Master
  39:.\spimaster.c **** *
  40:.\spimaster.c **** * Parameters:
  41:.\spimaster.c **** *  uint16 number
  42:.\spimaster.c **** *
  43:.\spimaster.c **** * Return:
  44:.\spimaster.c **** *  None.
  45:.\spimaster.c **** *
  46:.\spimaster.c **** *******************************************************************************/
  47:.\spimaster.c **** void SPIsendNumber(uint16 number)
  48:.\spimaster.c **** {
  56              		.loc 1 48 0
  57              		.cfi_startproc
  58              		@ args = 0, pretend = 0, frame = 8
  59              		@ frame_needed = 1, uses_anonymous_args = 0
  60 0000 80B5     		push	{r7, lr}
  61              		.cfi_def_cfa_offset 8
  62              		.cfi_offset 7, -8
  63              		.cfi_offset 14, -4
  64 0002 82B0     		sub	sp, sp, #8
  65              		.cfi_def_cfa_offset 16
  66 0004 00AF     		add	r7, sp, #0
ARM GAS  C:\Users\LUKASC~1\AppData\Local\Temp\ccyoRuDw.s 			page 3


  67              		.cfi_def_cfa_register 7
  68 0006 0346     		mov	r3, r0
  69 0008 FB80     		strh	r3, [r7, #6]	@ movhi
  49:.\spimaster.c **** 
  50:.\spimaster.c ****     /* Clear the transmit buffer before next reading (good practice) */
  51:.\spimaster.c ****     SPIM_ClearTxBuffer();
  70              		.loc 1 51 0
  71 000a FFF7FEFF 		bl	SPIM_ClearTxBuffer
  52:.\spimaster.c **** 
  53:.\spimaster.c ****     temp = SPIM_ReadTxStatus();
  72              		.loc 1 53 0
  73 000e FFF7FEFF 		bl	SPIM_ReadTxStatus
  74 0012 0346     		mov	r3, r0
  75 0014 1A46     		mov	r2, r3
  76 0016 084B     		ldr	r3, .L4
  77 0018 1A70     		strb	r2, [r3]
  54:.\spimaster.c **** 
  55:.\spimaster.c ****     /* Ensure that previous SPI read is done, or SPI is idle before sending data */
  56:.\spimaster.c ****     if((temp & (SPIM_STS_SPI_DONE | SPIM_STS_SPI_IDLE)))
  78              		.loc 1 56 0
  79 001a 074B     		ldr	r3, .L4
  80 001c 1B78     		ldrb	r3, [r3]	@ zero_extendqisi2
  81 001e 03F01103 		and	r3, r3, #17
  82 0022 002B     		cmp	r3, #0
  83 0024 04D0     		beq	.L2
  57:.\spimaster.c ****     {
  58:.\spimaster.c ****         SPIM_WriteTxData(number);
  84              		.loc 1 58 0
  85 0026 FB88     		ldrh	r3, [r7, #6]	@ movhi
  86 0028 DBB2     		uxtb	r3, r3
  87 002a 1846     		mov	r0, r3
  88 002c FFF7FEFF 		bl	SPIM_WriteTxData
  89              	.L2:
  59:.\spimaster.c ****     }
  60:.\spimaster.c **** }
  90              		.loc 1 60 0
  91 0030 0837     		adds	r7, r7, #8
  92              		.cfi_def_cfa_offset 8
  93 0032 BD46     		mov	sp, r7
  94              		.cfi_def_cfa_register 13
  95              		@ sp needed
  96 0034 80BD     		pop	{r7, pc}
  97              	.L5:
  98 0036 00BF     		.align	2
  99              	.L4:
 100 0038 00000000 		.word	temp
 101              		.cfi_endproc
 102              	.LFE64:
 103              		.size	SPIsendNumber, .-SPIsendNumber
 104              		.text
 105              	.Letext0:
 106              		.file 2 "c:\\program files (x86)\\cypress\\psoc creator\\3.3\\psoc creator\\import\\gnu\\arm\\4.9.
 107              		.file 3 "c:\\program files (x86)\\cypress\\psoc creator\\3.3\\psoc creator\\import\\gnu\\arm\\4.9.
 108              		.file 4 "Generated_Source\\PSoC5/cytypes.h"
 109              		.file 5 "Generated_Source\\PSoC5/core_cm3.h"
 110              		.file 6 ".\\spimaster.h"