ARM GAS  C:\Users\LUKASC~1\AppData\Local\Temp\ccVXoyt0.s 			page 1


   1              		.cpu cortex-m0
   2              		.fpu softvfp
   3              		.eabi_attribute 20, 1
   4              		.eabi_attribute 21, 1
   5              		.eabi_attribute 23, 3
   6              		.eabi_attribute 24, 1
   7              		.eabi_attribute 25, 1
   8              		.eabi_attribute 26, 1
   9              		.eabi_attribute 30, 6
  10              		.eabi_attribute 34, 0
  11              		.eabi_attribute 18, 4
  12              		.code	16
  13              		.file	"I2CS_I2C_SLAVE.c"
  14              		.text
  15              	.Ltext0:
  16              		.cfi_sections	.debug_frame
  17              		.comm	I2CS_slStatus,1,1
  18              		.comm	I2CS_slWrBufPtr,4,4
  19              		.comm	I2CS_slWrBufSize,4,4
  20              		.comm	I2CS_slWrBufIndex,4,4
  21              		.comm	I2CS_slRdBufPtr,4,4
  22              		.comm	I2CS_slRdBufSize,4,4
  23              		.comm	I2CS_slRdBufIndex,4,4
  24              		.comm	I2CS_slRdBufIndexTmp,4,4
  25              		.comm	I2CS_slOverFlowCount,1,1
  26              		.section	.text.I2CS_I2CSlaveStatus,"ax",%progbits
  27              		.align	2
  28              		.global	I2CS_I2CSlaveStatus
  29              		.code	16
  30              		.thumb_func
  31              		.type	I2CS_I2CSlaveStatus, %function
  32              	I2CS_I2CSlaveStatus:
  33              	.LFB0:
  34              		.file 1 ".\\Generated_Source\\PSoC4\\I2CS_I2C_SLAVE.c"
   1:.\Generated_Source\PSoC4/I2CS_I2C_SLAVE.c **** /***************************************************************************//**
   2:.\Generated_Source\PSoC4/I2CS_I2C_SLAVE.c **** * \file I2CS_I2C_SLAVE.c
   3:.\Generated_Source\PSoC4/I2CS_I2C_SLAVE.c **** * \version 3.20
   4:.\Generated_Source\PSoC4/I2CS_I2C_SLAVE.c **** *
   5:.\Generated_Source\PSoC4/I2CS_I2C_SLAVE.c **** * \brief
   6:.\Generated_Source\PSoC4/I2CS_I2C_SLAVE.c **** *  This file provides the source code to the API for the SCB Component in
   7:.\Generated_Source\PSoC4/I2CS_I2C_SLAVE.c **** *  I2C Slave mode.
   8:.\Generated_Source\PSoC4/I2CS_I2C_SLAVE.c **** *
   9:.\Generated_Source\PSoC4/I2CS_I2C_SLAVE.c **** * Note:
  10:.\Generated_Source\PSoC4/I2CS_I2C_SLAVE.c **** *
  11:.\Generated_Source\PSoC4/I2CS_I2C_SLAVE.c **** *******************************************************************************
  12:.\Generated_Source\PSoC4/I2CS_I2C_SLAVE.c **** * \copyright
  13:.\Generated_Source\PSoC4/I2CS_I2C_SLAVE.c **** * Copyright 2013-2016, Cypress Semiconductor Corporation.  All rights reserved.
  14:.\Generated_Source\PSoC4/I2CS_I2C_SLAVE.c **** * You may use this file only in accordance with the license, terms, conditions,
  15:.\Generated_Source\PSoC4/I2CS_I2C_SLAVE.c **** * disclaimers, and limitations in the end user license agreement accompanying
  16:.\Generated_Source\PSoC4/I2CS_I2C_SLAVE.c **** * the software package with which this file was provided.
  17:.\Generated_Source\PSoC4/I2CS_I2C_SLAVE.c **** *******************************************************************************/
  18:.\Generated_Source\PSoC4/I2CS_I2C_SLAVE.c **** 
  19:.\Generated_Source\PSoC4/I2CS_I2C_SLAVE.c **** #include "I2CS_I2C_PVT.h"
  20:.\Generated_Source\PSoC4/I2CS_I2C_SLAVE.c **** 
  21:.\Generated_Source\PSoC4/I2CS_I2C_SLAVE.c **** #if(I2CS_I2C_SLAVE_CONST)
  22:.\Generated_Source\PSoC4/I2CS_I2C_SLAVE.c **** 
  23:.\Generated_Source\PSoC4/I2CS_I2C_SLAVE.c **** /***************************************
ARM GAS  C:\Users\LUKASC~1\AppData\Local\Temp\ccVXoyt0.s 			page 2


  24:.\Generated_Source\PSoC4/I2CS_I2C_SLAVE.c **** *      I2C Slave Private Vars
  25:.\Generated_Source\PSoC4/I2CS_I2C_SLAVE.c **** ***************************************/
  26:.\Generated_Source\PSoC4/I2CS_I2C_SLAVE.c **** 
  27:.\Generated_Source\PSoC4/I2CS_I2C_SLAVE.c **** volatile uint8 I2CS_slStatus;          /* Slave Status */
  28:.\Generated_Source\PSoC4/I2CS_I2C_SLAVE.c **** 
  29:.\Generated_Source\PSoC4/I2CS_I2C_SLAVE.c **** /* Receive buffer variables */
  30:.\Generated_Source\PSoC4/I2CS_I2C_SLAVE.c **** volatile uint8 * I2CS_slWrBufPtr;      /* Pointer to Receive buffer  */
  31:.\Generated_Source\PSoC4/I2CS_I2C_SLAVE.c **** volatile uint32  I2CS_slWrBufSize;     /* Slave Receive buffer size  */
  32:.\Generated_Source\PSoC4/I2CS_I2C_SLAVE.c **** volatile uint32  I2CS_slWrBufIndex;    /* Slave Receive buffer Index */
  33:.\Generated_Source\PSoC4/I2CS_I2C_SLAVE.c **** 
  34:.\Generated_Source\PSoC4/I2CS_I2C_SLAVE.c **** /* Transmit buffer variables */
  35:.\Generated_Source\PSoC4/I2CS_I2C_SLAVE.c **** volatile uint8 * I2CS_slRdBufPtr;      /* Pointer to Transmit buffer  */
  36:.\Generated_Source\PSoC4/I2CS_I2C_SLAVE.c **** volatile uint32  I2CS_slRdBufSize;     /* Slave Transmit buffer size  */
  37:.\Generated_Source\PSoC4/I2CS_I2C_SLAVE.c **** volatile uint32  I2CS_slRdBufIndex;    /* Slave Transmit buffer Index */
  38:.\Generated_Source\PSoC4/I2CS_I2C_SLAVE.c **** volatile uint32  I2CS_slRdBufIndexTmp; /* Slave Transmit buffer Index Tmp */
  39:.\Generated_Source\PSoC4/I2CS_I2C_SLAVE.c **** volatile uint8   I2CS_slOverFlowCount; /* Slave Transmit Overflow counter */
  40:.\Generated_Source\PSoC4/I2CS_I2C_SLAVE.c **** 
  41:.\Generated_Source\PSoC4/I2CS_I2C_SLAVE.c **** #if (I2CS_I2C_CUSTOM_ADDRESS_HANDLER_CONST)
  42:.\Generated_Source\PSoC4/I2CS_I2C_SLAVE.c **** 
  43:.\Generated_Source\PSoC4/I2CS_I2C_SLAVE.c ****     uint32 (*I2CS_customAddressHandler)(void) = NULL;
  44:.\Generated_Source\PSoC4/I2CS_I2C_SLAVE.c **** 
  45:.\Generated_Source\PSoC4/I2CS_I2C_SLAVE.c ****     /*******************************************************************************
  46:.\Generated_Source\PSoC4/I2CS_I2C_SLAVE.c ****     * Function Name: I2CS_SetI2cAddressCustomInterruptHandler
  47:.\Generated_Source\PSoC4/I2CS_I2C_SLAVE.c ****     ****************************************************************************//**
  48:.\Generated_Source\PSoC4/I2CS_I2C_SLAVE.c ****     *
  49:.\Generated_Source\PSoC4/I2CS_I2C_SLAVE.c ****     *  Registers a function to be called by the I2C slave interrupt handler during
  50:.\Generated_Source\PSoC4/I2CS_I2C_SLAVE.c ****     *  the I2C interrupt address processing. This function should be used when
  51:.\Generated_Source\PSoC4/I2CS_I2C_SLAVE.c ****     *  multiple I2C addresses need to be decoded or general call address supported.
  52:.\Generated_Source\PSoC4/I2CS_I2C_SLAVE.c ****     *  The registered function must return decision whether to ACK or NACK address.
  53:.\Generated_Source\PSoC4/I2CS_I2C_SLAVE.c ****     *  Only one I2C address handler is supported, which is the function provided
  54:.\Generated_Source\PSoC4/I2CS_I2C_SLAVE.c ****     *  by the most recent call.
  55:.\Generated_Source\PSoC4/I2CS_I2C_SLAVE.c ****     *  At initialization time no I2C address handler is registered.
  56:.\Generated_Source\PSoC4/I2CS_I2C_SLAVE.c ****     *
  57:.\Generated_Source\PSoC4/I2CS_I2C_SLAVE.c ****     *  \param func: Pointer to the function to register.
  58:.\Generated_Source\PSoC4/I2CS_I2C_SLAVE.c ****     *   The value NULL indicates to remove the current custom interrupt
  59:.\Generated_Source\PSoC4/I2CS_I2C_SLAVE.c ****     *   handler.
  60:.\Generated_Source\PSoC4/I2CS_I2C_SLAVE.c ****     *   The registered function must return decision whether to ACK or NACK 
  61:.\Generated_Source\PSoC4/I2CS_I2C_SLAVE.c ****     *   accepted address: 0 – ACK, other values – NACK. The registered 
  62:.\Generated_Source\PSoC4/I2CS_I2C_SLAVE.c ****     *   callback function does not perform the ACK/NACK, this operation is 
  63:.\Generated_Source\PSoC4/I2CS_I2C_SLAVE.c ****     *   performed in the I2C ISR.
  64:.\Generated_Source\PSoC4/I2CS_I2C_SLAVE.c ****     *
  65:.\Generated_Source\PSoC4/I2CS_I2C_SLAVE.c ****     *******************************************************************************/
  66:.\Generated_Source\PSoC4/I2CS_I2C_SLAVE.c ****     void I2CS_SetI2cAddressCustomInterruptHandler(uint32 (*func) (void))
  67:.\Generated_Source\PSoC4/I2CS_I2C_SLAVE.c ****     {
  68:.\Generated_Source\PSoC4/I2CS_I2C_SLAVE.c ****         /* Register custom address handler */
  69:.\Generated_Source\PSoC4/I2CS_I2C_SLAVE.c ****         I2CS_customAddressHandler = func;
  70:.\Generated_Source\PSoC4/I2CS_I2C_SLAVE.c ****     }
  71:.\Generated_Source\PSoC4/I2CS_I2C_SLAVE.c **** #endif /* (I2CS_I2C_CUSTOM_ADDRESS_HANDLER_CONST) */
  72:.\Generated_Source\PSoC4/I2CS_I2C_SLAVE.c **** 
  73:.\Generated_Source\PSoC4/I2CS_I2C_SLAVE.c **** 
  74:.\Generated_Source\PSoC4/I2CS_I2C_SLAVE.c **** /*******************************************************************************
  75:.\Generated_Source\PSoC4/I2CS_I2C_SLAVE.c **** * Function Name: I2CS_I2CSlaveStatus
  76:.\Generated_Source\PSoC4/I2CS_I2C_SLAVE.c **** ****************************************************************************//**
  77:.\Generated_Source\PSoC4/I2CS_I2C_SLAVE.c **** *
  78:.\Generated_Source\PSoC4/I2CS_I2C_SLAVE.c **** *  Returns the I2C slave's communication status.
  79:.\Generated_Source\PSoC4/I2CS_I2C_SLAVE.c **** *
  80:.\Generated_Source\PSoC4/I2CS_I2C_SLAVE.c **** * \return
ARM GAS  C:\Users\LUKASC~1\AppData\Local\Temp\ccVXoyt0.s 			page 3


  81:.\Generated_Source\PSoC4/I2CS_I2C_SLAVE.c **** *  Current status of I2C slave.
  82:.\Generated_Source\PSoC4/I2CS_I2C_SLAVE.c **** *  This status incorporates read and write status constants. 
  83:.\Generated_Source\PSoC4/I2CS_I2C_SLAVE.c **** *  Each constant is a bit field value. The value returned may have multiple 
  84:.\Generated_Source\PSoC4/I2CS_I2C_SLAVE.c **** *  bits set to indicate the status of the read or write transfer.
  85:.\Generated_Source\PSoC4/I2CS_I2C_SLAVE.c **** *   - I2CS_I2C_SSTAT_RD_CMPLT - Slave read transfer complete. 
  86:.\Generated_Source\PSoC4/I2CS_I2C_SLAVE.c **** *     Set when master indicates it is done reading by sending a NAK.
  87:.\Generated_Source\PSoC4/I2CS_I2C_SLAVE.c **** *     The read error condition status bit must be checked to ensure that 
  88:.\Generated_Source\PSoC4/I2CS_I2C_SLAVE.c **** *     the read transfer was completed successfully.
  89:.\Generated_Source\PSoC4/I2CS_I2C_SLAVE.c **** *   - I2CS_I2C_SSTAT_RD_BUSY - Slave read transfer is in progress. 
  90:.\Generated_Source\PSoC4/I2CS_I2C_SLAVE.c **** *     Set when master addresses slave with a read, cleared when 
  91:.\Generated_Source\PSoC4/I2CS_I2C_SLAVE.c **** *    I2CS_I2C_SSTAT_RD_CMPLT is set.
  92:.\Generated_Source\PSoC4/I2CS_I2C_SLAVE.c **** *   - I2CS_I2C_SSTAT_RD_OVFL - Master attempted to read more bytes
  93:.\Generated_Source\PSoC4/I2CS_I2C_SLAVE.c **** *     than are in buffer. Slave continually returns 0xFF byte in this case.
  94:.\Generated_Source\PSoC4/I2CS_I2C_SLAVE.c **** *   - I2CS_I2C_SSTAT_RD_ERR - Slave captured error on the bus during 
  95:.\Generated_Source\PSoC4/I2CS_I2C_SLAVE.c **** *     a read transfer. The sources of error are: misplaced Start or Stop 
  96:.\Generated_Source\PSoC4/I2CS_I2C_SLAVE.c **** *     condition or lost arbitration while slave drives SDA.
  97:.\Generated_Source\PSoC4/I2CS_I2C_SLAVE.c **** *   - I2CS_I2C_SSTAT_WR_CMPLT - Slave write transfer complete. 
  98:.\Generated_Source\PSoC4/I2CS_I2C_SLAVE.c **** *     Set at reception of a Stop or ReStart condition. The write error condition
  99:.\Generated_Source\PSoC4/I2CS_I2C_SLAVE.c **** *     status bit must be checked to ensure that write transfer was completed
 100:.\Generated_Source\PSoC4/I2CS_I2C_SLAVE.c **** *     successfully.
 101:.\Generated_Source\PSoC4/I2CS_I2C_SLAVE.c **** *   - I2CS_I2C_SSTAT_WR_BUSY - Slave write transfer is in progress. 
 102:.\Generated_Source\PSoC4/I2CS_I2C_SLAVE.c **** *     Set when the master addresses the slave with a write, cleared when 
 103:.\Generated_Source\PSoC4/I2CS_I2C_SLAVE.c **** *    I2CS_I2C_SSTAT_WR_CMPLT is set.
 104:.\Generated_Source\PSoC4/I2CS_I2C_SLAVE.c **** *   - I2CS_I2C_SSTAT_WR_OVFL - Master attempted to write past end of 
 105:.\Generated_Source\PSoC4/I2CS_I2C_SLAVE.c **** *     buffer. Further bytes are ignored.
 106:.\Generated_Source\PSoC4/I2CS_I2C_SLAVE.c **** *   - I2CS_I2C_SSTAT_WR_ERR - Slave captured error on the bus during
 107:.\Generated_Source\PSoC4/I2CS_I2C_SLAVE.c **** *     write transfer. The sources of error are: misplaced Start or Stop condition
 108:.\Generated_Source\PSoC4/I2CS_I2C_SLAVE.c **** *     or lost arbitration while slave drives SDA.
 109:.\Generated_Source\PSoC4/I2CS_I2C_SLAVE.c **** *     The write buffer may contain invalid bytes or part of the data transfer when 
 110:.\Generated_Source\PSoC4/I2CS_I2C_SLAVE.c **** *     I2CS_I2C_SSTAT_WR_ERR is set. It is recommended to discard write 
 111:.\Generated_Source\PSoC4/I2CS_I2C_SLAVE.c **** *     buffer content in this case.
 112:.\Generated_Source\PSoC4/I2CS_I2C_SLAVE.c **** *
 113:.\Generated_Source\PSoC4/I2CS_I2C_SLAVE.c **** * \globalvars
 114:.\Generated_Source\PSoC4/I2CS_I2C_SLAVE.c **** *  I2CS_slStatus  - used to store current status of I2C slave.
 115:.\Generated_Source\PSoC4/I2CS_I2C_SLAVE.c **** *
 116:.\Generated_Source\PSoC4/I2CS_I2C_SLAVE.c **** *******************************************************************************/
 117:.\Generated_Source\PSoC4/I2CS_I2C_SLAVE.c **** uint32 I2CS_I2CSlaveStatus(void)
 118:.\Generated_Source\PSoC4/I2CS_I2C_SLAVE.c **** {
  35              		.loc 1 118 0
  36              		.cfi_startproc
  37 0000 80B5     		push	{r7, lr}
  38              		.cfi_def_cfa_offset 8
  39              		.cfi_offset 7, -8
  40              		.cfi_offset 14, -4
  41 0002 00AF     		add	r7, sp, #0
  42              		.cfi_def_cfa_register 7
 119:.\Generated_Source\PSoC4/I2CS_I2C_SLAVE.c ****     return((uint32) I2CS_slStatus);
  43              		.loc 1 119 0
  44 0004 024B     		ldr	r3, .L3
  45 0006 1B78     		ldrb	r3, [r3]
  46 0008 DBB2     		uxtb	r3, r3
 120:.\Generated_Source\PSoC4/I2CS_I2C_SLAVE.c **** }
  47              		.loc 1 120 0
  48 000a 181C     		mov	r0, r3
  49 000c BD46     		mov	sp, r7
  50              		@ sp needed
  51 000e 80BD     		pop	{r7, pc}
ARM GAS  C:\Users\LUKASC~1\AppData\Local\Temp\ccVXoyt0.s 			page 4


  52              	.L4:
  53              		.align	2
  54              	.L3:
  55 0010 00000000 		.word	I2CS_slStatus
  56              		.cfi_endproc
  57              	.LFE0:
  58              		.size	I2CS_I2CSlaveStatus, .-I2CS_I2CSlaveStatus
  59              		.section	.text.I2CS_I2CSlaveClearReadStatus,"ax",%progbits
  60              		.align	2
  61              		.global	I2CS_I2CSlaveClearReadStatus
  62              		.code	16
  63              		.thumb_func
  64              		.type	I2CS_I2CSlaveClearReadStatus, %function
  65              	I2CS_I2CSlaveClearReadStatus:
  66              	.LFB1:
 121:.\Generated_Source\PSoC4/I2CS_I2C_SLAVE.c **** 
 122:.\Generated_Source\PSoC4/I2CS_I2C_SLAVE.c **** 
 123:.\Generated_Source\PSoC4/I2CS_I2C_SLAVE.c **** /*******************************************************************************
 124:.\Generated_Source\PSoC4/I2CS_I2C_SLAVE.c **** * Function Name: I2CS_I2CSlaveClearReadStatus
 125:.\Generated_Source\PSoC4/I2CS_I2C_SLAVE.c **** ****************************************************************************//**
 126:.\Generated_Source\PSoC4/I2CS_I2C_SLAVE.c **** *
 127:.\Generated_Source\PSoC4/I2CS_I2C_SLAVE.c **** *  Clears the read status flags and returns their values. No other status flags
 128:.\Generated_Source\PSoC4/I2CS_I2C_SLAVE.c **** *  are affected.
 129:.\Generated_Source\PSoC4/I2CS_I2C_SLAVE.c **** *
 130:.\Generated_Source\PSoC4/I2CS_I2C_SLAVE.c **** * \return
 131:.\Generated_Source\PSoC4/I2CS_I2C_SLAVE.c **** *  Current read status of slave. See the SCB_I2CSlaveStatus() function for 
 132:.\Generated_Source\PSoC4/I2CS_I2C_SLAVE.c **** *  constants.
 133:.\Generated_Source\PSoC4/I2CS_I2C_SLAVE.c **** *
 134:.\Generated_Source\PSoC4/I2CS_I2C_SLAVE.c **** * \sideeffect
 135:.\Generated_Source\PSoC4/I2CS_I2C_SLAVE.c **** *  This function does not clear I2CS_I2C_SSTAT_RD_BUSY.
 136:.\Generated_Source\PSoC4/I2CS_I2C_SLAVE.c **** *
 137:.\Generated_Source\PSoC4/I2CS_I2C_SLAVE.c **** * \globalvars
 138:.\Generated_Source\PSoC4/I2CS_I2C_SLAVE.c **** *  I2CS_slStatus  - used to store current status of I2C slave.
 139:.\Generated_Source\PSoC4/I2CS_I2C_SLAVE.c **** *
 140:.\Generated_Source\PSoC4/I2CS_I2C_SLAVE.c **** *******************************************************************************/
 141:.\Generated_Source\PSoC4/I2CS_I2C_SLAVE.c **** uint32 I2CS_I2CSlaveClearReadStatus(void)
 142:.\Generated_Source\PSoC4/I2CS_I2C_SLAVE.c **** {
  67              		.loc 1 142 0
  68              		.cfi_startproc
  69 0000 80B5     		push	{r7, lr}
  70              		.cfi_def_cfa_offset 8
  71              		.cfi_offset 7, -8
  72              		.cfi_offset 14, -4
  73 0002 82B0     		sub	sp, sp, #8
  74              		.cfi_def_cfa_offset 16
  75 0004 00AF     		add	r7, sp, #0
  76              		.cfi_def_cfa_register 7
 143:.\Generated_Source\PSoC4/I2CS_I2C_SLAVE.c ****     uint32 status;
 144:.\Generated_Source\PSoC4/I2CS_I2C_SLAVE.c **** 
 145:.\Generated_Source\PSoC4/I2CS_I2C_SLAVE.c ****     I2CS_DisableInt();  /* Lock from interruption */
  77              		.loc 1 145 0
  78 0006 0B20     		mov	r0, #11
  79 0008 FFF7FEFF 		bl	CyIntDisable
 146:.\Generated_Source\PSoC4/I2CS_I2C_SLAVE.c **** 
 147:.\Generated_Source\PSoC4/I2CS_I2C_SLAVE.c ****     /* Mask of transfer complete flag and error status */
 148:.\Generated_Source\PSoC4/I2CS_I2C_SLAVE.c ****     status = ((uint32) I2CS_slStatus & I2CS_I2C_SSTAT_RD_MASK);
  80              		.loc 1 148 0
ARM GAS  C:\Users\LUKASC~1\AppData\Local\Temp\ccVXoyt0.s 			page 5


  81 000c 0B4B     		ldr	r3, .L7
  82 000e 1B78     		ldrb	r3, [r3]
  83 0010 DBB2     		uxtb	r3, r3
  84 0012 1A1C     		mov	r2, r3
  85 0014 0F23     		mov	r3, #15
  86 0016 1340     		and	r3, r2
  87 0018 7B60     		str	r3, [r7, #4]
 149:.\Generated_Source\PSoC4/I2CS_I2C_SLAVE.c ****     I2CS_slStatus &= (uint8) ~I2CS_I2C_SSTAT_RD_CLEAR;
  88              		.loc 1 149 0
  89 001a 084B     		ldr	r3, .L7
  90 001c 1B78     		ldrb	r3, [r3]
  91 001e DBB2     		uxtb	r3, r3
  92 0020 0D22     		mov	r2, #13
  93 0022 9343     		bic	r3, r2
  94 0024 DAB2     		uxtb	r2, r3
  95 0026 054B     		ldr	r3, .L7
  96 0028 1A70     		strb	r2, [r3]
 150:.\Generated_Source\PSoC4/I2CS_I2C_SLAVE.c **** 
 151:.\Generated_Source\PSoC4/I2CS_I2C_SLAVE.c ****     I2CS_EnableInt();   /* Release lock */
  97              		.loc 1 151 0
  98 002a 0B20     		mov	r0, #11
  99 002c FFF7FEFF 		bl	CyIntEnable
 152:.\Generated_Source\PSoC4/I2CS_I2C_SLAVE.c **** 
 153:.\Generated_Source\PSoC4/I2CS_I2C_SLAVE.c ****     return(status);
 100              		.loc 1 153 0
 101 0030 7B68     		ldr	r3, [r7, #4]
 154:.\Generated_Source\PSoC4/I2CS_I2C_SLAVE.c **** }
 102              		.loc 1 154 0
 103 0032 181C     		mov	r0, r3
 104 0034 BD46     		mov	sp, r7
 105 0036 02B0     		add	sp, sp, #8
 106              		@ sp needed
 107 0038 80BD     		pop	{r7, pc}
 108              	.L8:
 109 003a C046     		.align	2
 110              	.L7:
 111 003c 00000000 		.word	I2CS_slStatus
 112              		.cfi_endproc
 113              	.LFE1:
 114              		.size	I2CS_I2CSlaveClearReadStatus, .-I2CS_I2CSlaveClearReadStatus
 115              		.section	.text.I2CS_I2CSlaveClearWriteStatus,"ax",%progbits
 116              		.align	2
 117              		.global	I2CS_I2CSlaveClearWriteStatus
 118              		.code	16
 119              		.thumb_func
 120              		.type	I2CS_I2CSlaveClearWriteStatus, %function
 121              	I2CS_I2CSlaveClearWriteStatus:
 122              	.LFB2:
 155:.\Generated_Source\PSoC4/I2CS_I2C_SLAVE.c **** 
 156:.\Generated_Source\PSoC4/I2CS_I2C_SLAVE.c **** 
 157:.\Generated_Source\PSoC4/I2CS_I2C_SLAVE.c **** /*******************************************************************************
 158:.\Generated_Source\PSoC4/I2CS_I2C_SLAVE.c **** * Function Name: I2CS_I2CSlaveClearWriteStatus
 159:.\Generated_Source\PSoC4/I2CS_I2C_SLAVE.c **** ****************************************************************************//**
 160:.\Generated_Source\PSoC4/I2CS_I2C_SLAVE.c **** *
 161:.\Generated_Source\PSoC4/I2CS_I2C_SLAVE.c **** *  Clears the write status flags and returns their values. No other status flags
 162:.\Generated_Source\PSoC4/I2CS_I2C_SLAVE.c **** *  are affected.
 163:.\Generated_Source\PSoC4/I2CS_I2C_SLAVE.c **** *
ARM GAS  C:\Users\LUKASC~1\AppData\Local\Temp\ccVXoyt0.s 			page 6


 164:.\Generated_Source\PSoC4/I2CS_I2C_SLAVE.c **** * \return
 165:.\Generated_Source\PSoC4/I2CS_I2C_SLAVE.c **** *  Current write status of slave. See the SCB_I2CSlaveStatus() function 
 166:.\Generated_Source\PSoC4/I2CS_I2C_SLAVE.c **** *  for constants.
 167:.\Generated_Source\PSoC4/I2CS_I2C_SLAVE.c **** *
 168:.\Generated_Source\PSoC4/I2CS_I2C_SLAVE.c **** * \sideeffect
 169:.\Generated_Source\PSoC4/I2CS_I2C_SLAVE.c **** *  This function does not clear I2CS_I2C_SSTAT_WR_BUSY.*
 170:.\Generated_Source\PSoC4/I2CS_I2C_SLAVE.c **** *
 171:.\Generated_Source\PSoC4/I2CS_I2C_SLAVE.c **** * \globalvars
 172:.\Generated_Source\PSoC4/I2CS_I2C_SLAVE.c **** *  I2CS_slStatus  - used to store current status of I2C slave.
 173:.\Generated_Source\PSoC4/I2CS_I2C_SLAVE.c **** *
 174:.\Generated_Source\PSoC4/I2CS_I2C_SLAVE.c **** *******************************************************************************/
 175:.\Generated_Source\PSoC4/I2CS_I2C_SLAVE.c **** uint32 I2CS_I2CSlaveClearWriteStatus(void)
 176:.\Generated_Source\PSoC4/I2CS_I2C_SLAVE.c **** {
 123              		.loc 1 176 0
 124              		.cfi_startproc
 125 0000 80B5     		push	{r7, lr}
 126              		.cfi_def_cfa_offset 8
 127              		.cfi_offset 7, -8
 128              		.cfi_offset 14, -4
 129 0002 82B0     		sub	sp, sp, #8
 130              		.cfi_def_cfa_offset 16
 131 0004 00AF     		add	r7, sp, #0
 132              		.cfi_def_cfa_register 7
 177:.\Generated_Source\PSoC4/I2CS_I2C_SLAVE.c ****     uint32 status;
 178:.\Generated_Source\PSoC4/I2CS_I2C_SLAVE.c **** 
 179:.\Generated_Source\PSoC4/I2CS_I2C_SLAVE.c ****     I2CS_DisableInt();  /* Lock from interruption */
 133              		.loc 1 179 0
 134 0006 0B20     		mov	r0, #11
 135 0008 FFF7FEFF 		bl	CyIntDisable
 180:.\Generated_Source\PSoC4/I2CS_I2C_SLAVE.c **** 
 181:.\Generated_Source\PSoC4/I2CS_I2C_SLAVE.c ****     /* Mask of transfer complete flag and Error status */
 182:.\Generated_Source\PSoC4/I2CS_I2C_SLAVE.c ****     status = ((uint32) I2CS_slStatus & I2CS_I2C_SSTAT_WR_MASK);
 136              		.loc 1 182 0
 137 000c 0B4B     		ldr	r3, .L11
 138 000e 1B78     		ldrb	r3, [r3]
 139 0010 DBB2     		uxtb	r3, r3
 140 0012 1A1C     		mov	r2, r3
 141 0014 F023     		mov	r3, #240
 142 0016 1340     		and	r3, r2
 143 0018 7B60     		str	r3, [r7, #4]
 183:.\Generated_Source\PSoC4/I2CS_I2C_SLAVE.c ****     I2CS_slStatus &= (uint8) ~I2CS_I2C_SSTAT_WR_CLEAR;
 144              		.loc 1 183 0
 145 001a 084B     		ldr	r3, .L11
 146 001c 1B78     		ldrb	r3, [r3]
 147 001e DBB2     		uxtb	r3, r3
 148 0020 2F22     		mov	r2, #47
 149 0022 1340     		and	r3, r2
 150 0024 DAB2     		uxtb	r2, r3
 151 0026 054B     		ldr	r3, .L11
 152 0028 1A70     		strb	r2, [r3]
 184:.\Generated_Source\PSoC4/I2CS_I2C_SLAVE.c **** 
 185:.\Generated_Source\PSoC4/I2CS_I2C_SLAVE.c ****     I2CS_EnableInt();   /* Release lock */
 153              		.loc 1 185 0
 154 002a 0B20     		mov	r0, #11
 155 002c FFF7FEFF 		bl	CyIntEnable
 186:.\Generated_Source\PSoC4/I2CS_I2C_SLAVE.c **** 
 187:.\Generated_Source\PSoC4/I2CS_I2C_SLAVE.c ****     return(status);
ARM GAS  C:\Users\LUKASC~1\AppData\Local\Temp\ccVXoyt0.s 			page 7


 156              		.loc 1 187 0
 157 0030 7B68     		ldr	r3, [r7, #4]
 188:.\Generated_Source\PSoC4/I2CS_I2C_SLAVE.c **** }
 158              		.loc 1 188 0
 159 0032 181C     		mov	r0, r3
 160 0034 BD46     		mov	sp, r7
 161 0036 02B0     		add	sp, sp, #8
 162              		@ sp needed
 163 0038 80BD     		pop	{r7, pc}
 164              	.L12:
 165 003a C046     		.align	2
 166              	.L11:
 167 003c 00000000 		.word	I2CS_slStatus
 168              		.cfi_endproc
 169              	.LFE2:
 170              		.size	I2CS_I2CSlaveClearWriteStatus, .-I2CS_I2CSlaveClearWriteStatus
 171              		.section	.text.I2CS_I2CSlaveSetAddress,"ax",%progbits
 172              		.align	2
 173              		.global	I2CS_I2CSlaveSetAddress
 174              		.code	16
 175              		.thumb_func
 176              		.type	I2CS_I2CSlaveSetAddress, %function
 177              	I2CS_I2CSlaveSetAddress:
 178              	.LFB3:
 189:.\Generated_Source\PSoC4/I2CS_I2C_SLAVE.c **** 
 190:.\Generated_Source\PSoC4/I2CS_I2C_SLAVE.c **** 
 191:.\Generated_Source\PSoC4/I2CS_I2C_SLAVE.c **** /*******************************************************************************
 192:.\Generated_Source\PSoC4/I2CS_I2C_SLAVE.c **** * Function Name: I2CS_I2CSlaveSetAddress
 193:.\Generated_Source\PSoC4/I2CS_I2C_SLAVE.c **** ****************************************************************************//**
 194:.\Generated_Source\PSoC4/I2CS_I2C_SLAVE.c **** *
 195:.\Generated_Source\PSoC4/I2CS_I2C_SLAVE.c **** * Sets the I2C slave address.
 196:.\Generated_Source\PSoC4/I2CS_I2C_SLAVE.c **** *
 197:.\Generated_Source\PSoC4/I2CS_I2C_SLAVE.c **** * \param address: I2C slave address for the primary device.
 198:.\Generated_Source\PSoC4/I2CS_I2C_SLAVE.c **** *  This address is the 7-bit right-justified slave address and does not 
 199:.\Generated_Source\PSoC4/I2CS_I2C_SLAVE.c **** *  include the R/W bit.
 200:.\Generated_Source\PSoC4/I2CS_I2C_SLAVE.c **** *  The address value is not checked to see if it violates the I2C spec. 
 201:.\Generated_Source\PSoC4/I2CS_I2C_SLAVE.c **** *  The preferred addresses are between 8 and 120 (0x08 to 0x78).
 202:.\Generated_Source\PSoC4/I2CS_I2C_SLAVE.c **** *
 203:.\Generated_Source\PSoC4/I2CS_I2C_SLAVE.c **** *******************************************************************************/
 204:.\Generated_Source\PSoC4/I2CS_I2C_SLAVE.c **** void I2CS_I2CSlaveSetAddress(uint32 address)
 205:.\Generated_Source\PSoC4/I2CS_I2C_SLAVE.c **** {
 179              		.loc 1 205 0
 180              		.cfi_startproc
 181 0000 80B5     		push	{r7, lr}
 182              		.cfi_def_cfa_offset 8
 183              		.cfi_offset 7, -8
 184              		.cfi_offset 14, -4
 185 0002 84B0     		sub	sp, sp, #16
 186              		.cfi_def_cfa_offset 24
 187 0004 00AF     		add	r7, sp, #0
 188              		.cfi_def_cfa_register 7
 189 0006 7860     		str	r0, [r7, #4]
 206:.\Generated_Source\PSoC4/I2CS_I2C_SLAVE.c ****     uint32 matchReg;
 207:.\Generated_Source\PSoC4/I2CS_I2C_SLAVE.c **** 
 208:.\Generated_Source\PSoC4/I2CS_I2C_SLAVE.c ****     matchReg = I2CS_RX_MATCH_REG;
 190              		.loc 1 208 0
 191 0008 094B     		ldr	r3, .L14
ARM GAS  C:\Users\LUKASC~1\AppData\Local\Temp\ccVXoyt0.s 			page 8


 192 000a 1B68     		ldr	r3, [r3]
 193 000c FB60     		str	r3, [r7, #12]
 209:.\Generated_Source\PSoC4/I2CS_I2C_SLAVE.c **** 
 210:.\Generated_Source\PSoC4/I2CS_I2C_SLAVE.c ****     matchReg &= ((uint32) ~I2CS_RX_MATCH_ADDR_MASK); /* Clear address bits */
 194              		.loc 1 210 0
 195 000e FB68     		ldr	r3, [r7, #12]
 196 0010 FF22     		mov	r2, #255
 197 0012 9343     		bic	r3, r2
 198 0014 FB60     		str	r3, [r7, #12]
 211:.\Generated_Source\PSoC4/I2CS_I2C_SLAVE.c ****     matchReg |= ((uint32)  I2CS_GET_I2C_8BIT_ADDRESS(address));
 199              		.loc 1 211 0
 200 0016 7B68     		ldr	r3, [r7, #4]
 201 0018 5B00     		lsl	r3, r3, #1
 202 001a FF22     		mov	r2, #255
 203 001c 1340     		and	r3, r2
 204 001e FA68     		ldr	r2, [r7, #12]
 205 0020 1343     		orr	r3, r2
 206 0022 FB60     		str	r3, [r7, #12]
 212:.\Generated_Source\PSoC4/I2CS_I2C_SLAVE.c **** 
 213:.\Generated_Source\PSoC4/I2CS_I2C_SLAVE.c ****     I2CS_RX_MATCH_REG = matchReg;
 207              		.loc 1 213 0
 208 0024 024B     		ldr	r3, .L14
 209 0026 FA68     		ldr	r2, [r7, #12]
 210 0028 1A60     		str	r2, [r3]
 214:.\Generated_Source\PSoC4/I2CS_I2C_SLAVE.c **** }
 211              		.loc 1 214 0
 212 002a BD46     		mov	sp, r7
 213 002c 04B0     		add	sp, sp, #16
 214              		@ sp needed
 215 002e 80BD     		pop	{r7, pc}
 216              	.L15:
 217              		.align	2
 218              	.L14:
 219 0030 10030740 		.word	1074201360
 220              		.cfi_endproc
 221              	.LFE3:
 222              		.size	I2CS_I2CSlaveSetAddress, .-I2CS_I2CSlaveSetAddress
 223              		.section	.text.I2CS_I2CSlaveSetAddressMask,"ax",%progbits
 224              		.align	2
 225              		.global	I2CS_I2CSlaveSetAddressMask
 226              		.code	16
 227              		.thumb_func
 228              		.type	I2CS_I2CSlaveSetAddressMask, %function
 229              	I2CS_I2CSlaveSetAddressMask:
 230              	.LFB4:
 215:.\Generated_Source\PSoC4/I2CS_I2C_SLAVE.c **** 
 216:.\Generated_Source\PSoC4/I2CS_I2C_SLAVE.c **** 
 217:.\Generated_Source\PSoC4/I2CS_I2C_SLAVE.c **** /*******************************************************************************
 218:.\Generated_Source\PSoC4/I2CS_I2C_SLAVE.c **** * Function Name: I2CS_I2CSlaveSetAddressMask
 219:.\Generated_Source\PSoC4/I2CS_I2C_SLAVE.c **** ****************************************************************************//**
 220:.\Generated_Source\PSoC4/I2CS_I2C_SLAVE.c **** *
 221:.\Generated_Source\PSoC4/I2CS_I2C_SLAVE.c **** *  Sets the I2C slave address mask.
 222:.\Generated_Source\PSoC4/I2CS_I2C_SLAVE.c **** *
 223:.\Generated_Source\PSoC4/I2CS_I2C_SLAVE.c **** * \param addressMask: I2C slave address mask.
 224:.\Generated_Source\PSoC4/I2CS_I2C_SLAVE.c **** *  - Bit value 0 – excludes bit from address comparison.
 225:.\Generated_Source\PSoC4/I2CS_I2C_SLAVE.c **** *  - Bit value 1 – the bit needs to match with the corresponding bit of the 
 226:.\Generated_Source\PSoC4/I2CS_I2C_SLAVE.c **** *  I2C slave address.
ARM GAS  C:\Users\LUKASC~1\AppData\Local\Temp\ccVXoyt0.s 			page 9


 227:.\Generated_Source\PSoC4/I2CS_I2C_SLAVE.c **** *
 228:.\Generated_Source\PSoC4/I2CS_I2C_SLAVE.c **** *  The range of valid values is between 0 and 254 (0x00 to 0xFE). 
 229:.\Generated_Source\PSoC4/I2CS_I2C_SLAVE.c **** *  The LSB of the address mask must be 0 because it corresponds to R/W bit 
 230:.\Generated_Source\PSoC4/I2CS_I2C_SLAVE.c **** *  within I2C slave address byte.
 231:.\Generated_Source\PSoC4/I2CS_I2C_SLAVE.c **** *
 232:.\Generated_Source\PSoC4/I2CS_I2C_SLAVE.c **** *******************************************************************************/
 233:.\Generated_Source\PSoC4/I2CS_I2C_SLAVE.c **** void I2CS_I2CSlaveSetAddressMask(uint32 addressMask)
 234:.\Generated_Source\PSoC4/I2CS_I2C_SLAVE.c **** {
 231              		.loc 1 234 0
 232              		.cfi_startproc
 233 0000 80B5     		push	{r7, lr}
 234              		.cfi_def_cfa_offset 8
 235              		.cfi_offset 7, -8
 236              		.cfi_offset 14, -4
 237 0002 84B0     		sub	sp, sp, #16
 238              		.cfi_def_cfa_offset 24
 239 0004 00AF     		add	r7, sp, #0
 240              		.cfi_def_cfa_register 7
 241 0006 7860     		str	r0, [r7, #4]
 235:.\Generated_Source\PSoC4/I2CS_I2C_SLAVE.c ****     uint32 matchReg;
 236:.\Generated_Source\PSoC4/I2CS_I2C_SLAVE.c **** 
 237:.\Generated_Source\PSoC4/I2CS_I2C_SLAVE.c ****     matchReg = I2CS_RX_MATCH_REG;
 242              		.loc 1 237 0
 243 0008 084B     		ldr	r3, .L17
 244 000a 1B68     		ldr	r3, [r3]
 245 000c FB60     		str	r3, [r7, #12]
 238:.\Generated_Source\PSoC4/I2CS_I2C_SLAVE.c **** 
 239:.\Generated_Source\PSoC4/I2CS_I2C_SLAVE.c ****     matchReg &= ((uint32) ~I2CS_RX_MATCH_MASK_MASK);
 246              		.loc 1 239 0
 247 000e FB68     		ldr	r3, [r7, #12]
 248 0010 074A     		ldr	r2, .L17+4
 249 0012 1340     		and	r3, r2
 250 0014 FB60     		str	r3, [r7, #12]
 240:.\Generated_Source\PSoC4/I2CS_I2C_SLAVE.c ****     matchReg |= ((uint32) (addressMask << I2CS_RX_MATCH_MASK_POS));
 251              		.loc 1 240 0
 252 0016 7B68     		ldr	r3, [r7, #4]
 253 0018 1B04     		lsl	r3, r3, #16
 254 001a FA68     		ldr	r2, [r7, #12]
 255 001c 1343     		orr	r3, r2
 256 001e FB60     		str	r3, [r7, #12]
 241:.\Generated_Source\PSoC4/I2CS_I2C_SLAVE.c **** 
 242:.\Generated_Source\PSoC4/I2CS_I2C_SLAVE.c ****     I2CS_RX_MATCH_REG = matchReg;
 257              		.loc 1 242 0
 258 0020 024B     		ldr	r3, .L17
 259 0022 FA68     		ldr	r2, [r7, #12]
 260 0024 1A60     		str	r2, [r3]
 243:.\Generated_Source\PSoC4/I2CS_I2C_SLAVE.c **** }
 261              		.loc 1 243 0
 262 0026 BD46     		mov	sp, r7
 263 0028 04B0     		add	sp, sp, #16
 264              		@ sp needed
 265 002a 80BD     		pop	{r7, pc}
 266              	.L18:
 267              		.align	2
 268              	.L17:
 269 002c 10030740 		.word	1074201360
 270 0030 FFFF00FF 		.word	-16711681
ARM GAS  C:\Users\LUKASC~1\AppData\Local\Temp\ccVXoyt0.s 			page 10


 271              		.cfi_endproc
 272              	.LFE4:
 273              		.size	I2CS_I2CSlaveSetAddressMask, .-I2CS_I2CSlaveSetAddressMask
 274              		.section	.text.I2CS_I2CSlaveInitReadBuf,"ax",%progbits
 275              		.align	2
 276              		.global	I2CS_I2CSlaveInitReadBuf
 277              		.code	16
 278              		.thumb_func
 279              		.type	I2CS_I2CSlaveInitReadBuf, %function
 280              	I2CS_I2CSlaveInitReadBuf:
 281              	.LFB5:
 244:.\Generated_Source\PSoC4/I2CS_I2C_SLAVE.c **** 
 245:.\Generated_Source\PSoC4/I2CS_I2C_SLAVE.c **** 
 246:.\Generated_Source\PSoC4/I2CS_I2C_SLAVE.c **** /*******************************************************************************
 247:.\Generated_Source\PSoC4/I2CS_I2C_SLAVE.c **** * Function Name: I2CS_I2CSlaveInitReadBuf
 248:.\Generated_Source\PSoC4/I2CS_I2C_SLAVE.c **** ****************************************************************************//**
 249:.\Generated_Source\PSoC4/I2CS_I2C_SLAVE.c **** *
 250:.\Generated_Source\PSoC4/I2CS_I2C_SLAVE.c **** *  Sets the buffer pointer and size of the read buffer. This function also
 251:.\Generated_Source\PSoC4/I2CS_I2C_SLAVE.c **** *  resets the transfer count returned with the 
 252:.\Generated_Source\PSoC4/I2CS_I2C_SLAVE.c **** *  I2CS_SlaveGetReadBufSize() function.
 253:.\Generated_Source\PSoC4/I2CS_I2C_SLAVE.c **** *
 254:.\Generated_Source\PSoC4/I2CS_I2C_SLAVE.c **** * \param readBuf: Pointer to the data buffer to be read by the master.
 255:.\Generated_Source\PSoC4/I2CS_I2C_SLAVE.c **** * \param bufSize: Size of the read buffer exposed to the I2C master.
 256:.\Generated_Source\PSoC4/I2CS_I2C_SLAVE.c **** *
 257:.\Generated_Source\PSoC4/I2CS_I2C_SLAVE.c **** * \sideeffect
 258:.\Generated_Source\PSoC4/I2CS_I2C_SLAVE.c **** *  If this function is called during a bus transaction, data from the previous
 259:.\Generated_Source\PSoC4/I2CS_I2C_SLAVE.c **** *  buffer location and the beginning of current buffer may be transmitted.
 260:.\Generated_Source\PSoC4/I2CS_I2C_SLAVE.c **** *
 261:.\Generated_Source\PSoC4/I2CS_I2C_SLAVE.c **** * \globalvars
 262:.\Generated_Source\PSoC4/I2CS_I2C_SLAVE.c **** *  I2CS_slRdBufPtr   - used to store pointer to slave read buffer.
 263:.\Generated_Source\PSoC4/I2CS_I2C_SLAVE.c **** *  I2CS_slRdBufSize  - used to store salve read buffer size.
 264:.\Generated_Source\PSoC4/I2CS_I2C_SLAVE.c **** *  I2CS_slRdBufIndex - used to store current index within slave
 265:.\Generated_Source\PSoC4/I2CS_I2C_SLAVE.c **** *  read buffer.
 266:.\Generated_Source\PSoC4/I2CS_I2C_SLAVE.c **** *
 267:.\Generated_Source\PSoC4/I2CS_I2C_SLAVE.c **** *******************************************************************************/
 268:.\Generated_Source\PSoC4/I2CS_I2C_SLAVE.c **** void I2CS_I2CSlaveInitReadBuf(uint8 * rdBuf, uint32 bufSize)
 269:.\Generated_Source\PSoC4/I2CS_I2C_SLAVE.c **** {
 282              		.loc 1 269 0
 283              		.cfi_startproc
 284 0000 80B5     		push	{r7, lr}
 285              		.cfi_def_cfa_offset 8
 286              		.cfi_offset 7, -8
 287              		.cfi_offset 14, -4
 288 0002 82B0     		sub	sp, sp, #8
 289              		.cfi_def_cfa_offset 16
 290 0004 00AF     		add	r7, sp, #0
 291              		.cfi_def_cfa_register 7
 292 0006 7860     		str	r0, [r7, #4]
 293 0008 3960     		str	r1, [r7]
 270:.\Generated_Source\PSoC4/I2CS_I2C_SLAVE.c ****     /* Check for proper buffer */
 271:.\Generated_Source\PSoC4/I2CS_I2C_SLAVE.c ****     if(NULL != rdBuf)
 294              		.loc 1 271 0
 295 000a 7B68     		ldr	r3, [r7, #4]
 296 000c 002B     		cmp	r3, #0
 297 000e 11D0     		beq	.L19
 272:.\Generated_Source\PSoC4/I2CS_I2C_SLAVE.c ****     {
 273:.\Generated_Source\PSoC4/I2CS_I2C_SLAVE.c ****         I2CS_DisableInt();  /* Lock from interruption */
ARM GAS  C:\Users\LUKASC~1\AppData\Local\Temp\ccVXoyt0.s 			page 11


 298              		.loc 1 273 0
 299 0010 0B20     		mov	r0, #11
 300 0012 FFF7FEFF 		bl	CyIntDisable
 274:.\Generated_Source\PSoC4/I2CS_I2C_SLAVE.c **** 
 275:.\Generated_Source\PSoC4/I2CS_I2C_SLAVE.c ****         I2CS_slRdBufPtr      = (volatile uint8 *) rdBuf; /* Set buffer pointer  */
 301              		.loc 1 275 0
 302 0016 094B     		ldr	r3, .L21
 303 0018 7A68     		ldr	r2, [r7, #4]
 304 001a 1A60     		str	r2, [r3]
 276:.\Generated_Source\PSoC4/I2CS_I2C_SLAVE.c ****         I2CS_slRdBufSize     = bufSize;                  /* Set buffer size     */
 305              		.loc 1 276 0
 306 001c 084B     		ldr	r3, .L21+4
 307 001e 3A68     		ldr	r2, [r7]
 308 0020 1A60     		str	r2, [r3]
 277:.\Generated_Source\PSoC4/I2CS_I2C_SLAVE.c ****         I2CS_slRdBufIndex    = 0u;                       /* Clear buffer index  */
 309              		.loc 1 277 0
 310 0022 084B     		ldr	r3, .L21+8
 311 0024 0022     		mov	r2, #0
 312 0026 1A60     		str	r2, [r3]
 278:.\Generated_Source\PSoC4/I2CS_I2C_SLAVE.c ****         I2CS_slRdBufIndexTmp = 0u;                       /* Clear buffer index  */
 313              		.loc 1 278 0
 314 0028 074B     		ldr	r3, .L21+12
 315 002a 0022     		mov	r2, #0
 316 002c 1A60     		str	r2, [r3]
 279:.\Generated_Source\PSoC4/I2CS_I2C_SLAVE.c **** 
 280:.\Generated_Source\PSoC4/I2CS_I2C_SLAVE.c ****         I2CS_EnableInt();   /* Release lock */
 317              		.loc 1 280 0
 318 002e 0B20     		mov	r0, #11
 319 0030 FFF7FEFF 		bl	CyIntEnable
 320              	.L19:
 281:.\Generated_Source\PSoC4/I2CS_I2C_SLAVE.c ****     }
 282:.\Generated_Source\PSoC4/I2CS_I2C_SLAVE.c **** }
 321              		.loc 1 282 0
 322 0034 BD46     		mov	sp, r7
 323 0036 02B0     		add	sp, sp, #8
 324              		@ sp needed
 325 0038 80BD     		pop	{r7, pc}
 326              	.L22:
 327 003a C046     		.align	2
 328              	.L21:
 329 003c 00000000 		.word	I2CS_slRdBufPtr
 330 0040 00000000 		.word	I2CS_slRdBufSize
 331 0044 00000000 		.word	I2CS_slRdBufIndex
 332 0048 00000000 		.word	I2CS_slRdBufIndexTmp
 333              		.cfi_endproc
 334              	.LFE5:
 335              		.size	I2CS_I2CSlaveInitReadBuf, .-I2CS_I2CSlaveInitReadBuf
 336              		.section	.text.I2CS_I2CSlaveInitWriteBuf,"ax",%progbits
 337              		.align	2
 338              		.global	I2CS_I2CSlaveInitWriteBuf
 339              		.code	16
 340              		.thumb_func
 341              		.type	I2CS_I2CSlaveInitWriteBuf, %function
 342              	I2CS_I2CSlaveInitWriteBuf:
 343              	.LFB6:
 283:.\Generated_Source\PSoC4/I2CS_I2C_SLAVE.c **** 
 284:.\Generated_Source\PSoC4/I2CS_I2C_SLAVE.c **** 
ARM GAS  C:\Users\LUKASC~1\AppData\Local\Temp\ccVXoyt0.s 			page 12


 285:.\Generated_Source\PSoC4/I2CS_I2C_SLAVE.c **** /*******************************************************************************
 286:.\Generated_Source\PSoC4/I2CS_I2C_SLAVE.c **** * Function Name: I2CS_I2CSlaveInitWriteBuf
 287:.\Generated_Source\PSoC4/I2CS_I2C_SLAVE.c **** ****************************************************************************//**
 288:.\Generated_Source\PSoC4/I2CS_I2C_SLAVE.c **** *
 289:.\Generated_Source\PSoC4/I2CS_I2C_SLAVE.c **** *  Sets the buffer pointer and size of the write buffer. This function also 
 290:.\Generated_Source\PSoC4/I2CS_I2C_SLAVE.c **** *  resets the transfer count returned with the 
 291:.\Generated_Source\PSoC4/I2CS_I2C_SLAVE.c **** *  I2CS_I2CSlaveGetWriteBufSize() function.
 292:.\Generated_Source\PSoC4/I2CS_I2C_SLAVE.c **** *
 293:.\Generated_Source\PSoC4/I2CS_I2C_SLAVE.c **** * \param writeBuf: Pointer to the data buffer to be written by the master.
 294:.\Generated_Source\PSoC4/I2CS_I2C_SLAVE.c **** * \param bufSize:  Size of the write buffer exposed to the I2C master.
 295:.\Generated_Source\PSoC4/I2CS_I2C_SLAVE.c **** *
 296:.\Generated_Source\PSoC4/I2CS_I2C_SLAVE.c **** * \sideeffect
 297:.\Generated_Source\PSoC4/I2CS_I2C_SLAVE.c **** *  If this function is called during a bus transaction, data may be received in 
 298:.\Generated_Source\PSoC4/I2CS_I2C_SLAVE.c **** *  the previous buffer and the current buffer location.
 299:.\Generated_Source\PSoC4/I2CS_I2C_SLAVE.c **** *
 300:.\Generated_Source\PSoC4/I2CS_I2C_SLAVE.c **** * \globalvars
 301:.\Generated_Source\PSoC4/I2CS_I2C_SLAVE.c **** *  I2CS_slWrBufPtr   - used to store pointer to slave write buffer.
 302:.\Generated_Source\PSoC4/I2CS_I2C_SLAVE.c **** *  I2CS_slWrBufSize  - used to store salve write buffer size.
 303:.\Generated_Source\PSoC4/I2CS_I2C_SLAVE.c **** *  I2CS_slWrBufIndex - used to store current index within slave
 304:.\Generated_Source\PSoC4/I2CS_I2C_SLAVE.c **** *   write buffer.
 305:.\Generated_Source\PSoC4/I2CS_I2C_SLAVE.c **** *
 306:.\Generated_Source\PSoC4/I2CS_I2C_SLAVE.c **** *******************************************************************************/
 307:.\Generated_Source\PSoC4/I2CS_I2C_SLAVE.c **** void I2CS_I2CSlaveInitWriteBuf(uint8 * wrBuf, uint32 bufSize)
 308:.\Generated_Source\PSoC4/I2CS_I2C_SLAVE.c **** {
 344              		.loc 1 308 0
 345              		.cfi_startproc
 346 0000 80B5     		push	{r7, lr}
 347              		.cfi_def_cfa_offset 8
 348              		.cfi_offset 7, -8
 349              		.cfi_offset 14, -4
 350 0002 82B0     		sub	sp, sp, #8
 351              		.cfi_def_cfa_offset 16
 352 0004 00AF     		add	r7, sp, #0
 353              		.cfi_def_cfa_register 7
 354 0006 7860     		str	r0, [r7, #4]
 355 0008 3960     		str	r1, [r7]
 309:.\Generated_Source\PSoC4/I2CS_I2C_SLAVE.c ****     /* Check buffer pointer */
 310:.\Generated_Source\PSoC4/I2CS_I2C_SLAVE.c ****     if(NULL != wrBuf)
 356              		.loc 1 310 0
 357 000a 7B68     		ldr	r3, [r7, #4]
 358 000c 002B     		cmp	r3, #0
 359 000e 0ED0     		beq	.L23
 311:.\Generated_Source\PSoC4/I2CS_I2C_SLAVE.c ****     {
 312:.\Generated_Source\PSoC4/I2CS_I2C_SLAVE.c ****         I2CS_DisableInt();  /* Lock from interruption */
 360              		.loc 1 312 0
 361 0010 0B20     		mov	r0, #11
 362 0012 FFF7FEFF 		bl	CyIntDisable
 313:.\Generated_Source\PSoC4/I2CS_I2C_SLAVE.c **** 
 314:.\Generated_Source\PSoC4/I2CS_I2C_SLAVE.c ****         I2CS_slWrBufPtr   = (volatile uint8 *) wrBuf; /* Set buffer pointer  */
 363              		.loc 1 314 0
 364 0016 074B     		ldr	r3, .L25
 365 0018 7A68     		ldr	r2, [r7, #4]
 366 001a 1A60     		str	r2, [r3]
 315:.\Generated_Source\PSoC4/I2CS_I2C_SLAVE.c ****         I2CS_slWrBufSize  = bufSize;                  /* Set buffer size     */
 367              		.loc 1 315 0
 368 001c 064B     		ldr	r3, .L25+4
 369 001e 3A68     		ldr	r2, [r7]
ARM GAS  C:\Users\LUKASC~1\AppData\Local\Temp\ccVXoyt0.s 			page 13


 370 0020 1A60     		str	r2, [r3]
 316:.\Generated_Source\PSoC4/I2CS_I2C_SLAVE.c ****         I2CS_slWrBufIndex = 0u;                       /* Clear buffer index  */
 371              		.loc 1 316 0
 372 0022 064B     		ldr	r3, .L25+8
 373 0024 0022     		mov	r2, #0
 374 0026 1A60     		str	r2, [r3]
 317:.\Generated_Source\PSoC4/I2CS_I2C_SLAVE.c **** 
 318:.\Generated_Source\PSoC4/I2CS_I2C_SLAVE.c ****         I2CS_EnableInt();   /* Release lock */
 375              		.loc 1 318 0
 376 0028 0B20     		mov	r0, #11
 377 002a FFF7FEFF 		bl	CyIntEnable
 378              	.L23:
 319:.\Generated_Source\PSoC4/I2CS_I2C_SLAVE.c ****     }
 320:.\Generated_Source\PSoC4/I2CS_I2C_SLAVE.c **** }
 379              		.loc 1 320 0
 380 002e BD46     		mov	sp, r7
 381 0030 02B0     		add	sp, sp, #8
 382              		@ sp needed
 383 0032 80BD     		pop	{r7, pc}
 384              	.L26:
 385              		.align	2
 386              	.L25:
 387 0034 00000000 		.word	I2CS_slWrBufPtr
 388 0038 00000000 		.word	I2CS_slWrBufSize
 389 003c 00000000 		.word	I2CS_slWrBufIndex
 390              		.cfi_endproc
 391              	.LFE6:
 392              		.size	I2CS_I2CSlaveInitWriteBuf, .-I2CS_I2CSlaveInitWriteBuf
 393              		.section	.text.I2CS_I2CSlaveGetReadBufSize,"ax",%progbits
 394              		.align	2
 395              		.global	I2CS_I2CSlaveGetReadBufSize
 396              		.code	16
 397              		.thumb_func
 398              		.type	I2CS_I2CSlaveGetReadBufSize, %function
 399              	I2CS_I2CSlaveGetReadBufSize:
 400              	.LFB7:
 321:.\Generated_Source\PSoC4/I2CS_I2C_SLAVE.c **** 
 322:.\Generated_Source\PSoC4/I2CS_I2C_SLAVE.c **** 
 323:.\Generated_Source\PSoC4/I2CS_I2C_SLAVE.c **** /*******************************************************************************
 324:.\Generated_Source\PSoC4/I2CS_I2C_SLAVE.c **** * Function Name: I2CS_I2CSlaveGetReadBufSize
 325:.\Generated_Source\PSoC4/I2CS_I2C_SLAVE.c **** ****************************************************************************//**
 326:.\Generated_Source\PSoC4/I2CS_I2C_SLAVE.c **** *
 327:.\Generated_Source\PSoC4/I2CS_I2C_SLAVE.c **** *  Returns the number of bytes read by the I2C master since an
 328:.\Generated_Source\PSoC4/I2CS_I2C_SLAVE.c **** *  I2CS_I2CSlaveInitReadBuf() or 
 329:.\Generated_Source\PSoC4/I2CS_I2C_SLAVE.c **** *  I2CS_I2CSlaveClearReadBuf() function was executed.
 330:.\Generated_Source\PSoC4/I2CS_I2C_SLAVE.c **** *  The maximum return value is the size of the read buffer.
 331:.\Generated_Source\PSoC4/I2CS_I2C_SLAVE.c **** *
 332:.\Generated_Source\PSoC4/I2CS_I2C_SLAVE.c **** * \return
 333:.\Generated_Source\PSoC4/I2CS_I2C_SLAVE.c **** *  Bytes read by master. If the transfer is not yet complete, it returns 
 334:.\Generated_Source\PSoC4/I2CS_I2C_SLAVE.c **** *  zero until transfer completion.
 335:.\Generated_Source\PSoC4/I2CS_I2C_SLAVE.c **** *
 336:.\Generated_Source\PSoC4/I2CS_I2C_SLAVE.c **** * \sideeffect
 337:.\Generated_Source\PSoC4/I2CS_I2C_SLAVE.c **** *  The returned value is not valid if I2CS_I2C_SSTAT_RD_ERR was 
 338:.\Generated_Source\PSoC4/I2CS_I2C_SLAVE.c **** *  captured by the slave.
 339:.\Generated_Source\PSoC4/I2CS_I2C_SLAVE.c **** *
 340:.\Generated_Source\PSoC4/I2CS_I2C_SLAVE.c **** * \globalvars
 341:.\Generated_Source\PSoC4/I2CS_I2C_SLAVE.c **** *  I2CS_slRdBufIndex - used to store current index within slave
ARM GAS  C:\Users\LUKASC~1\AppData\Local\Temp\ccVXoyt0.s 			page 14


 342:.\Generated_Source\PSoC4/I2CS_I2C_SLAVE.c **** *  read buffer.
 343:.\Generated_Source\PSoC4/I2CS_I2C_SLAVE.c **** *
 344:.\Generated_Source\PSoC4/I2CS_I2C_SLAVE.c **** *******************************************************************************/
 345:.\Generated_Source\PSoC4/I2CS_I2C_SLAVE.c **** uint32 I2CS_I2CSlaveGetReadBufSize(void)
 346:.\Generated_Source\PSoC4/I2CS_I2C_SLAVE.c **** {
 401              		.loc 1 346 0
 402              		.cfi_startproc
 403 0000 80B5     		push	{r7, lr}
 404              		.cfi_def_cfa_offset 8
 405              		.cfi_offset 7, -8
 406              		.cfi_offset 14, -4
 407 0002 00AF     		add	r7, sp, #0
 408              		.cfi_def_cfa_register 7
 347:.\Generated_Source\PSoC4/I2CS_I2C_SLAVE.c ****     return(I2CS_slRdBufIndex);
 409              		.loc 1 347 0
 410 0004 024B     		ldr	r3, .L29
 411 0006 1B68     		ldr	r3, [r3]
 348:.\Generated_Source\PSoC4/I2CS_I2C_SLAVE.c **** }
 412              		.loc 1 348 0
 413 0008 181C     		mov	r0, r3
 414 000a BD46     		mov	sp, r7
 415              		@ sp needed
 416 000c 80BD     		pop	{r7, pc}
 417              	.L30:
 418 000e C046     		.align	2
 419              	.L29:
 420 0010 00000000 		.word	I2CS_slRdBufIndex
 421              		.cfi_endproc
 422              	.LFE7:
 423              		.size	I2CS_I2CSlaveGetReadBufSize, .-I2CS_I2CSlaveGetReadBufSize
 424              		.section	.text.I2CS_I2CSlaveGetWriteBufSize,"ax",%progbits
 425              		.align	2
 426              		.global	I2CS_I2CSlaveGetWriteBufSize
 427              		.code	16
 428              		.thumb_func
 429              		.type	I2CS_I2CSlaveGetWriteBufSize, %function
 430              	I2CS_I2CSlaveGetWriteBufSize:
 431              	.LFB8:
 349:.\Generated_Source\PSoC4/I2CS_I2C_SLAVE.c **** 
 350:.\Generated_Source\PSoC4/I2CS_I2C_SLAVE.c **** 
 351:.\Generated_Source\PSoC4/I2CS_I2C_SLAVE.c **** /*******************************************************************************
 352:.\Generated_Source\PSoC4/I2CS_I2C_SLAVE.c **** * Function Name: I2CS_I2CSlaveGetWriteBufSize
 353:.\Generated_Source\PSoC4/I2CS_I2C_SLAVE.c **** ****************************************************************************//**
 354:.\Generated_Source\PSoC4/I2CS_I2C_SLAVE.c **** *
 355:.\Generated_Source\PSoC4/I2CS_I2C_SLAVE.c **** *  Returns the number of bytes written by the I2C master since an
 356:.\Generated_Source\PSoC4/I2CS_I2C_SLAVE.c **** *  I2CS_I2CSlaveInitWriteBuf() or 
 357:.\Generated_Source\PSoC4/I2CS_I2C_SLAVE.c **** *  I2CS_I2CSlaveClearWriteBuf() function was executed.
 358:.\Generated_Source\PSoC4/I2CS_I2C_SLAVE.c **** *  The maximum return value is the size of the write buffer.
 359:.\Generated_Source\PSoC4/I2CS_I2C_SLAVE.c **** *
 360:.\Generated_Source\PSoC4/I2CS_I2C_SLAVE.c **** * \return
 361:.\Generated_Source\PSoC4/I2CS_I2C_SLAVE.c **** *  Bytes written by master.
 362:.\Generated_Source\PSoC4/I2CS_I2C_SLAVE.c **** *
 363:.\Generated_Source\PSoC4/I2CS_I2C_SLAVE.c **** * \sideeffect
 364:.\Generated_Source\PSoC4/I2CS_I2C_SLAVE.c **** *  The returned value is not valid if I2CS_I2C_SSTAT_WR_ERR was 
 365:.\Generated_Source\PSoC4/I2CS_I2C_SLAVE.c **** *  captured by the slave.
 366:.\Generated_Source\PSoC4/I2CS_I2C_SLAVE.c **** *
 367:.\Generated_Source\PSoC4/I2CS_I2C_SLAVE.c **** * \globalvars
ARM GAS  C:\Users\LUKASC~1\AppData\Local\Temp\ccVXoyt0.s 			page 15


 368:.\Generated_Source\PSoC4/I2CS_I2C_SLAVE.c **** *  I2CS_slWrBufIndex - used to store current index within slave
 369:.\Generated_Source\PSoC4/I2CS_I2C_SLAVE.c **** *   write buffer.
 370:.\Generated_Source\PSoC4/I2CS_I2C_SLAVE.c **** *
 371:.\Generated_Source\PSoC4/I2CS_I2C_SLAVE.c **** *******************************************************************************/
 372:.\Generated_Source\PSoC4/I2CS_I2C_SLAVE.c **** uint32 I2CS_I2CSlaveGetWriteBufSize(void)
 373:.\Generated_Source\PSoC4/I2CS_I2C_SLAVE.c **** {
 432              		.loc 1 373 0
 433              		.cfi_startproc
 434 0000 80B5     		push	{r7, lr}
 435              		.cfi_def_cfa_offset 8
 436              		.cfi_offset 7, -8
 437              		.cfi_offset 14, -4
 438 0002 00AF     		add	r7, sp, #0
 439              		.cfi_def_cfa_register 7
 374:.\Generated_Source\PSoC4/I2CS_I2C_SLAVE.c ****     return(I2CS_slWrBufIndex);
 440              		.loc 1 374 0
 441 0004 024B     		ldr	r3, .L33
 442 0006 1B68     		ldr	r3, [r3]
 375:.\Generated_Source\PSoC4/I2CS_I2C_SLAVE.c **** }
 443              		.loc 1 375 0
 444 0008 181C     		mov	r0, r3
 445 000a BD46     		mov	sp, r7
 446              		@ sp needed
 447 000c 80BD     		pop	{r7, pc}
 448              	.L34:
 449 000e C046     		.align	2
 450              	.L33:
 451 0010 00000000 		.word	I2CS_slWrBufIndex
 452              		.cfi_endproc
 453              	.LFE8:
 454              		.size	I2CS_I2CSlaveGetWriteBufSize, .-I2CS_I2CSlaveGetWriteBufSize
 455              		.section	.text.I2CS_I2CSlaveClearReadBuf,"ax",%progbits
 456              		.align	2
 457              		.global	I2CS_I2CSlaveClearReadBuf
 458              		.code	16
 459              		.thumb_func
 460              		.type	I2CS_I2CSlaveClearReadBuf, %function
 461              	I2CS_I2CSlaveClearReadBuf:
 462              	.LFB9:
 376:.\Generated_Source\PSoC4/I2CS_I2C_SLAVE.c **** 
 377:.\Generated_Source\PSoC4/I2CS_I2C_SLAVE.c **** 
 378:.\Generated_Source\PSoC4/I2CS_I2C_SLAVE.c **** /*******************************************************************************
 379:.\Generated_Source\PSoC4/I2CS_I2C_SLAVE.c **** * Function Name: I2CS_I2CSlaveClearReadBuf
 380:.\Generated_Source\PSoC4/I2CS_I2C_SLAVE.c **** ****************************************************************************//**
 381:.\Generated_Source\PSoC4/I2CS_I2C_SLAVE.c **** *
 382:.\Generated_Source\PSoC4/I2CS_I2C_SLAVE.c **** *  Resets the read pointer to the first byte in the read buffer. The next byte
 383:.\Generated_Source\PSoC4/I2CS_I2C_SLAVE.c **** *  read by the master will be the first byte in the read buffer.
 384:.\Generated_Source\PSoC4/I2CS_I2C_SLAVE.c **** *
 385:.\Generated_Source\PSoC4/I2CS_I2C_SLAVE.c **** * \globalvars
 386:.\Generated_Source\PSoC4/I2CS_I2C_SLAVE.c **** *  I2CS_slRdBufIndex - used to store current index within slave
 387:.\Generated_Source\PSoC4/I2CS_I2C_SLAVE.c **** *  read buffer.
 388:.\Generated_Source\PSoC4/I2CS_I2C_SLAVE.c **** *
 389:.\Generated_Source\PSoC4/I2CS_I2C_SLAVE.c **** *******************************************************************************/
 390:.\Generated_Source\PSoC4/I2CS_I2C_SLAVE.c **** void I2CS_I2CSlaveClearReadBuf(void)
 391:.\Generated_Source\PSoC4/I2CS_I2C_SLAVE.c **** {
 463              		.loc 1 391 0
 464              		.cfi_startproc
ARM GAS  C:\Users\LUKASC~1\AppData\Local\Temp\ccVXoyt0.s 			page 16


 465 0000 80B5     		push	{r7, lr}
 466              		.cfi_def_cfa_offset 8
 467              		.cfi_offset 7, -8
 468              		.cfi_offset 14, -4
 469 0002 00AF     		add	r7, sp, #0
 470              		.cfi_def_cfa_register 7
 392:.\Generated_Source\PSoC4/I2CS_I2C_SLAVE.c ****     I2CS_slRdBufIndex = 0u;
 471              		.loc 1 392 0
 472 0004 024B     		ldr	r3, .L36
 473 0006 0022     		mov	r2, #0
 474 0008 1A60     		str	r2, [r3]
 393:.\Generated_Source\PSoC4/I2CS_I2C_SLAVE.c **** }
 475              		.loc 1 393 0
 476 000a BD46     		mov	sp, r7
 477              		@ sp needed
 478 000c 80BD     		pop	{r7, pc}
 479              	.L37:
 480 000e C046     		.align	2
 481              	.L36:
 482 0010 00000000 		.word	I2CS_slRdBufIndex
 483              		.cfi_endproc
 484              	.LFE9:
 485              		.size	I2CS_I2CSlaveClearReadBuf, .-I2CS_I2CSlaveClearReadBuf
 486              		.section	.text.I2CS_I2CSlaveClearWriteBuf,"ax",%progbits
 487              		.align	2
 488              		.global	I2CS_I2CSlaveClearWriteBuf
 489              		.code	16
 490              		.thumb_func
 491              		.type	I2CS_I2CSlaveClearWriteBuf, %function
 492              	I2CS_I2CSlaveClearWriteBuf:
 493              	.LFB10:
 394:.\Generated_Source\PSoC4/I2CS_I2C_SLAVE.c **** 
 395:.\Generated_Source\PSoC4/I2CS_I2C_SLAVE.c **** 
 396:.\Generated_Source\PSoC4/I2CS_I2C_SLAVE.c **** /*******************************************************************************
 397:.\Generated_Source\PSoC4/I2CS_I2C_SLAVE.c **** * Function Name: I2CS_I2CSlaveClearWriteBuf
 398:.\Generated_Source\PSoC4/I2CS_I2C_SLAVE.c **** ****************************************************************************//**
 399:.\Generated_Source\PSoC4/I2CS_I2C_SLAVE.c **** *
 400:.\Generated_Source\PSoC4/I2CS_I2C_SLAVE.c **** *  Resets the write pointer to the first byte in the write buffer. The next byte
 401:.\Generated_Source\PSoC4/I2CS_I2C_SLAVE.c **** *  written by the master will be the first byte in the write buffer.
 402:.\Generated_Source\PSoC4/I2CS_I2C_SLAVE.c **** *
 403:.\Generated_Source\PSoC4/I2CS_I2C_SLAVE.c **** * \globalvars
 404:.\Generated_Source\PSoC4/I2CS_I2C_SLAVE.c **** *  I2CS_slWrBufIndex - used to store current index within slave
 405:.\Generated_Source\PSoC4/I2CS_I2C_SLAVE.c **** *  write buffer.
 406:.\Generated_Source\PSoC4/I2CS_I2C_SLAVE.c **** *
 407:.\Generated_Source\PSoC4/I2CS_I2C_SLAVE.c **** *******************************************************************************/
 408:.\Generated_Source\PSoC4/I2CS_I2C_SLAVE.c **** void I2CS_I2CSlaveClearWriteBuf(void)
 409:.\Generated_Source\PSoC4/I2CS_I2C_SLAVE.c **** {
 494              		.loc 1 409 0
 495              		.cfi_startproc
 496 0000 80B5     		push	{r7, lr}
 497              		.cfi_def_cfa_offset 8
 498              		.cfi_offset 7, -8
 499              		.cfi_offset 14, -4
 500 0002 00AF     		add	r7, sp, #0
 501              		.cfi_def_cfa_register 7
 410:.\Generated_Source\PSoC4/I2CS_I2C_SLAVE.c ****     I2CS_slWrBufIndex = 0u;
 502              		.loc 1 410 0
ARM GAS  C:\Users\LUKASC~1\AppData\Local\Temp\ccVXoyt0.s 			page 17


 503 0004 024B     		ldr	r3, .L39
 504 0006 0022     		mov	r2, #0
 505 0008 1A60     		str	r2, [r3]
 411:.\Generated_Source\PSoC4/I2CS_I2C_SLAVE.c **** }
 506              		.loc 1 411 0
 507 000a BD46     		mov	sp, r7
 508              		@ sp needed
 509 000c 80BD     		pop	{r7, pc}
 510              	.L40:
 511 000e C046     		.align	2
 512              	.L39:
 513 0010 00000000 		.word	I2CS_slWrBufIndex
 514              		.cfi_endproc
 515              	.LFE10:
 516              		.size	I2CS_I2CSlaveClearWriteBuf, .-I2CS_I2CSlaveClearWriteBuf
 517              		.text
 518              	.Letext0:
 519              		.file 2 "Generated_Source\\PSoC4/cytypes.h"