ARM GAS  C:\Users\LUKASC~1\AppData\Local\Temp\cc8rtAnn.s 			page 1


   1              		.cpu cortex-m0
   2              		.fpu softvfp
   3              		.eabi_attribute 20, 1
   4              		.eabi_attribute 21, 1
   5              		.eabi_attribute 23, 3
   6              		.eabi_attribute 24, 1
   7              		.eabi_attribute 25, 1
   8              		.eabi_attribute 26, 1
   9              		.eabi_attribute 30, 6
  10              		.eabi_attribute 34, 0
  11              		.eabi_attribute 18, 4
  12              		.code	16
  13              		.file	"I2CS.c"
  14              		.text
  15              	.Ltext0:
  16              		.cfi_sections	.debug_frame
  17              		.global	I2CS_initVar
  18              		.bss
  19              		.type	I2CS_initVar, %object
  20              		.size	I2CS_initVar, 1
  21              	I2CS_initVar:
  22 0000 00       		.space	1
  23              		.global	I2CS_customIntrHandler
  24 0001 000000   		.align	2
  25              		.type	I2CS_customIntrHandler, %object
  26              		.size	I2CS_customIntrHandler, 4
  27              	I2CS_customIntrHandler:
  28 0004 00000000 		.space	4
  29              		.section	.text.I2CS_Init,"ax",%progbits
  30              		.align	2
  31              		.global	I2CS_Init
  32              		.code	16
  33              		.thumb_func
  34              		.type	I2CS_Init, %function
  35              	I2CS_Init:
  36              	.LFB0:
  37              		.file 1 ".\\Generated_Source\\PSoC4\\I2CS.c"
   1:.\Generated_Source\PSoC4/I2CS.c **** /*******************************************************************************
   2:.\Generated_Source\PSoC4/I2CS.c **** * File Name: I2CS.c
   3:.\Generated_Source\PSoC4/I2CS.c **** * Version 3.10
   4:.\Generated_Source\PSoC4/I2CS.c **** *
   5:.\Generated_Source\PSoC4/I2CS.c **** * Description:
   6:.\Generated_Source\PSoC4/I2CS.c **** *  This file provides the source code to the API for the SCB Component.
   7:.\Generated_Source\PSoC4/I2CS.c **** *
   8:.\Generated_Source\PSoC4/I2CS.c **** * Note:
   9:.\Generated_Source\PSoC4/I2CS.c **** *
  10:.\Generated_Source\PSoC4/I2CS.c **** *******************************************************************************
  11:.\Generated_Source\PSoC4/I2CS.c **** * Copyright 2013-2015, Cypress Semiconductor Corporation.  All rights reserved.
  12:.\Generated_Source\PSoC4/I2CS.c **** * You may use this file only in accordance with the license, terms, conditions,
  13:.\Generated_Source\PSoC4/I2CS.c **** * disclaimers, and limitations in the end user license agreement accompanying
  14:.\Generated_Source\PSoC4/I2CS.c **** * the software package with which this file was provided.
  15:.\Generated_Source\PSoC4/I2CS.c **** *******************************************************************************/
  16:.\Generated_Source\PSoC4/I2CS.c **** 
  17:.\Generated_Source\PSoC4/I2CS.c **** #include "I2CS_PVT.h"
  18:.\Generated_Source\PSoC4/I2CS.c **** 
  19:.\Generated_Source\PSoC4/I2CS.c **** #if (I2CS_SCB_MODE_I2C_INC)
  20:.\Generated_Source\PSoC4/I2CS.c ****     #include "I2CS_I2C_PVT.h"
ARM GAS  C:\Users\LUKASC~1\AppData\Local\Temp\cc8rtAnn.s 			page 2


  21:.\Generated_Source\PSoC4/I2CS.c **** #endif /* (I2CS_SCB_MODE_I2C_INC) */
  22:.\Generated_Source\PSoC4/I2CS.c **** 
  23:.\Generated_Source\PSoC4/I2CS.c **** #if (I2CS_SCB_MODE_EZI2C_INC)
  24:.\Generated_Source\PSoC4/I2CS.c ****     #include "I2CS_EZI2C_PVT.h"
  25:.\Generated_Source\PSoC4/I2CS.c **** #endif /* (I2CS_SCB_MODE_EZI2C_INC) */
  26:.\Generated_Source\PSoC4/I2CS.c **** 
  27:.\Generated_Source\PSoC4/I2CS.c **** #if (I2CS_SCB_MODE_SPI_INC || I2CS_SCB_MODE_UART_INC)
  28:.\Generated_Source\PSoC4/I2CS.c ****     #include "I2CS_SPI_UART_PVT.h"
  29:.\Generated_Source\PSoC4/I2CS.c **** #endif /* (I2CS_SCB_MODE_SPI_INC || I2CS_SCB_MODE_UART_INC) */
  30:.\Generated_Source\PSoC4/I2CS.c **** 
  31:.\Generated_Source\PSoC4/I2CS.c **** 
  32:.\Generated_Source\PSoC4/I2CS.c **** /***************************************
  33:.\Generated_Source\PSoC4/I2CS.c **** *    Run Time Configuration Vars
  34:.\Generated_Source\PSoC4/I2CS.c **** ***************************************/
  35:.\Generated_Source\PSoC4/I2CS.c **** 
  36:.\Generated_Source\PSoC4/I2CS.c **** /* Stores internal component configuration for Unconfigured mode */
  37:.\Generated_Source\PSoC4/I2CS.c **** #if (I2CS_SCB_MODE_UNCONFIG_CONST_CFG)
  38:.\Generated_Source\PSoC4/I2CS.c ****     /* Common configuration variables */
  39:.\Generated_Source\PSoC4/I2CS.c ****     uint8 I2CS_scbMode = I2CS_SCB_MODE_UNCONFIG;
  40:.\Generated_Source\PSoC4/I2CS.c ****     uint8 I2CS_scbEnableWake;
  41:.\Generated_Source\PSoC4/I2CS.c ****     uint8 I2CS_scbEnableIntr;
  42:.\Generated_Source\PSoC4/I2CS.c **** 
  43:.\Generated_Source\PSoC4/I2CS.c ****     /* I2C configuration variables */
  44:.\Generated_Source\PSoC4/I2CS.c ****     uint8 I2CS_mode;
  45:.\Generated_Source\PSoC4/I2CS.c ****     uint8 I2CS_acceptAddr;
  46:.\Generated_Source\PSoC4/I2CS.c **** 
  47:.\Generated_Source\PSoC4/I2CS.c ****     /* SPI/UART configuration variables */
  48:.\Generated_Source\PSoC4/I2CS.c ****     volatile uint8 * I2CS_rxBuffer;
  49:.\Generated_Source\PSoC4/I2CS.c ****     uint8  I2CS_rxDataBits;
  50:.\Generated_Source\PSoC4/I2CS.c ****     uint32 I2CS_rxBufferSize;
  51:.\Generated_Source\PSoC4/I2CS.c **** 
  52:.\Generated_Source\PSoC4/I2CS.c ****     volatile uint8 * I2CS_txBuffer;
  53:.\Generated_Source\PSoC4/I2CS.c ****     uint8  I2CS_txDataBits;
  54:.\Generated_Source\PSoC4/I2CS.c ****     uint32 I2CS_txBufferSize;
  55:.\Generated_Source\PSoC4/I2CS.c **** 
  56:.\Generated_Source\PSoC4/I2CS.c ****     /* EZI2C configuration variables */
  57:.\Generated_Source\PSoC4/I2CS.c ****     uint8 I2CS_numberOfAddr;
  58:.\Generated_Source\PSoC4/I2CS.c ****     uint8 I2CS_subAddrSize;
  59:.\Generated_Source\PSoC4/I2CS.c **** #endif /* (I2CS_SCB_MODE_UNCONFIG_CONST_CFG) */
  60:.\Generated_Source\PSoC4/I2CS.c **** 
  61:.\Generated_Source\PSoC4/I2CS.c **** 
  62:.\Generated_Source\PSoC4/I2CS.c **** /***************************************
  63:.\Generated_Source\PSoC4/I2CS.c **** *     Common SCB Vars
  64:.\Generated_Source\PSoC4/I2CS.c **** ***************************************/
  65:.\Generated_Source\PSoC4/I2CS.c **** 
  66:.\Generated_Source\PSoC4/I2CS.c **** uint8 I2CS_initVar = 0u;
  67:.\Generated_Source\PSoC4/I2CS.c **** 
  68:.\Generated_Source\PSoC4/I2CS.c **** #if (I2CS_SCB_IRQ_INTERNAL)
  69:.\Generated_Source\PSoC4/I2CS.c **** #if !defined (CY_REMOVE_I2CS_CUSTOM_INTR_HANDLER)
  70:.\Generated_Source\PSoC4/I2CS.c ****     void (*I2CS_customIntrHandler)(void) = NULL;
  71:.\Generated_Source\PSoC4/I2CS.c **** #endif /* !defined (CY_REMOVE_I2CS_CUSTOM_INTR_HANDLER) */
  72:.\Generated_Source\PSoC4/I2CS.c **** #endif /* (I2CS_SCB_IRQ_INTERNAL) */
  73:.\Generated_Source\PSoC4/I2CS.c **** 
  74:.\Generated_Source\PSoC4/I2CS.c **** 
  75:.\Generated_Source\PSoC4/I2CS.c **** /***************************************
  76:.\Generated_Source\PSoC4/I2CS.c **** *    Private Function Prototypes
  77:.\Generated_Source\PSoC4/I2CS.c **** ***************************************/
ARM GAS  C:\Users\LUKASC~1\AppData\Local\Temp\cc8rtAnn.s 			page 3


  78:.\Generated_Source\PSoC4/I2CS.c **** 
  79:.\Generated_Source\PSoC4/I2CS.c **** static void I2CS_ScbEnableIntr(void);
  80:.\Generated_Source\PSoC4/I2CS.c **** static void I2CS_ScbModeStop(void);
  81:.\Generated_Source\PSoC4/I2CS.c **** static void I2CS_ScbModePostEnable(void);
  82:.\Generated_Source\PSoC4/I2CS.c **** 
  83:.\Generated_Source\PSoC4/I2CS.c **** 
  84:.\Generated_Source\PSoC4/I2CS.c **** /*******************************************************************************
  85:.\Generated_Source\PSoC4/I2CS.c **** * Function Name: I2CS_Init
  86:.\Generated_Source\PSoC4/I2CS.c **** ********************************************************************************
  87:.\Generated_Source\PSoC4/I2CS.c **** *
  88:.\Generated_Source\PSoC4/I2CS.c **** * Summary:
  89:.\Generated_Source\PSoC4/I2CS.c **** *  Initializes the SCB component to operate in one of the selected
  90:.\Generated_Source\PSoC4/I2CS.c **** *  configurations: I2C, SPI, UART or EZI2C.
  91:.\Generated_Source\PSoC4/I2CS.c **** *  When the configuration is set to "Unconfigured SCB", this function does
  92:.\Generated_Source\PSoC4/I2CS.c **** *  not do any initialization. Use mode-specific initialization APIs instead:
  93:.\Generated_Source\PSoC4/I2CS.c **** *  SCB_I2CInit, SCB_SpiInit, SCB_UartInit or SCB_EzI2CInit.
  94:.\Generated_Source\PSoC4/I2CS.c **** *
  95:.\Generated_Source\PSoC4/I2CS.c **** * Parameters:
  96:.\Generated_Source\PSoC4/I2CS.c **** *  None
  97:.\Generated_Source\PSoC4/I2CS.c **** *
  98:.\Generated_Source\PSoC4/I2CS.c **** * Return:
  99:.\Generated_Source\PSoC4/I2CS.c **** *  None
 100:.\Generated_Source\PSoC4/I2CS.c **** *
 101:.\Generated_Source\PSoC4/I2CS.c **** *******************************************************************************/
 102:.\Generated_Source\PSoC4/I2CS.c **** void I2CS_Init(void)
 103:.\Generated_Source\PSoC4/I2CS.c **** {
  38              		.loc 1 103 0
  39              		.cfi_startproc
  40 0000 80B5     		push	{r7, lr}
  41              		.cfi_def_cfa_offset 8
  42              		.cfi_offset 7, -8
  43              		.cfi_offset 14, -4
  44 0002 00AF     		add	r7, sp, #0
  45              		.cfi_def_cfa_register 7
 104:.\Generated_Source\PSoC4/I2CS.c **** #if (I2CS_SCB_MODE_UNCONFIG_CONST_CFG)
 105:.\Generated_Source\PSoC4/I2CS.c ****     if (I2CS_SCB_MODE_UNCONFIG_RUNTM_CFG)
 106:.\Generated_Source\PSoC4/I2CS.c ****     {
 107:.\Generated_Source\PSoC4/I2CS.c ****         I2CS_initVar = 0u;
 108:.\Generated_Source\PSoC4/I2CS.c ****     }
 109:.\Generated_Source\PSoC4/I2CS.c ****     else
 110:.\Generated_Source\PSoC4/I2CS.c ****     {
 111:.\Generated_Source\PSoC4/I2CS.c ****         /* Initialization was done before this function call */
 112:.\Generated_Source\PSoC4/I2CS.c ****     }
 113:.\Generated_Source\PSoC4/I2CS.c **** 
 114:.\Generated_Source\PSoC4/I2CS.c **** #elif (I2CS_SCB_MODE_I2C_CONST_CFG)
 115:.\Generated_Source\PSoC4/I2CS.c ****     I2CS_I2CInit();
  46              		.loc 1 115 0
  47 0004 FFF7FEFF 		bl	I2CS_I2CInit
 116:.\Generated_Source\PSoC4/I2CS.c **** 
 117:.\Generated_Source\PSoC4/I2CS.c **** #elif (I2CS_SCB_MODE_SPI_CONST_CFG)
 118:.\Generated_Source\PSoC4/I2CS.c ****     I2CS_SpiInit();
 119:.\Generated_Source\PSoC4/I2CS.c **** 
 120:.\Generated_Source\PSoC4/I2CS.c **** #elif (I2CS_SCB_MODE_UART_CONST_CFG)
 121:.\Generated_Source\PSoC4/I2CS.c ****     I2CS_UartInit();
 122:.\Generated_Source\PSoC4/I2CS.c **** 
 123:.\Generated_Source\PSoC4/I2CS.c **** #elif (I2CS_SCB_MODE_EZI2C_CONST_CFG)
 124:.\Generated_Source\PSoC4/I2CS.c ****     I2CS_EzI2CInit();
ARM GAS  C:\Users\LUKASC~1\AppData\Local\Temp\cc8rtAnn.s 			page 4


 125:.\Generated_Source\PSoC4/I2CS.c **** 
 126:.\Generated_Source\PSoC4/I2CS.c **** #endif /* (I2CS_SCB_MODE_UNCONFIG_CONST_CFG) */
 127:.\Generated_Source\PSoC4/I2CS.c **** }
  48              		.loc 1 127 0
  49 0008 BD46     		mov	sp, r7
  50              		@ sp needed
  51 000a 80BD     		pop	{r7, pc}
  52              		.cfi_endproc
  53              	.LFE0:
  54              		.size	I2CS_Init, .-I2CS_Init
  55              		.section	.text.I2CS_Enable,"ax",%progbits
  56              		.align	2
  57              		.global	I2CS_Enable
  58              		.code	16
  59              		.thumb_func
  60              		.type	I2CS_Enable, %function
  61              	I2CS_Enable:
  62              	.LFB1:
 128:.\Generated_Source\PSoC4/I2CS.c **** 
 129:.\Generated_Source\PSoC4/I2CS.c **** 
 130:.\Generated_Source\PSoC4/I2CS.c **** /*******************************************************************************
 131:.\Generated_Source\PSoC4/I2CS.c **** * Function Name: I2CS_Enable
 132:.\Generated_Source\PSoC4/I2CS.c **** ********************************************************************************
 133:.\Generated_Source\PSoC4/I2CS.c **** *
 134:.\Generated_Source\PSoC4/I2CS.c **** * Summary:
 135:.\Generated_Source\PSoC4/I2CS.c **** *  Enables the SCB component operation.
 136:.\Generated_Source\PSoC4/I2CS.c **** *  The SCB configuration should be not changed when the component is enabled.
 137:.\Generated_Source\PSoC4/I2CS.c **** *  Any configuration changes should be made after disabling the component.
 138:.\Generated_Source\PSoC4/I2CS.c **** *
 139:.\Generated_Source\PSoC4/I2CS.c **** * Parameters:
 140:.\Generated_Source\PSoC4/I2CS.c **** *  None
 141:.\Generated_Source\PSoC4/I2CS.c **** *
 142:.\Generated_Source\PSoC4/I2CS.c **** * Return:
 143:.\Generated_Source\PSoC4/I2CS.c **** *  None
 144:.\Generated_Source\PSoC4/I2CS.c **** *
 145:.\Generated_Source\PSoC4/I2CS.c **** *******************************************************************************/
 146:.\Generated_Source\PSoC4/I2CS.c **** void I2CS_Enable(void)
 147:.\Generated_Source\PSoC4/I2CS.c **** {
  63              		.loc 1 147 0
  64              		.cfi_startproc
  65 0000 80B5     		push	{r7, lr}
  66              		.cfi_def_cfa_offset 8
  67              		.cfi_offset 7, -8
  68              		.cfi_offset 14, -4
  69 0002 00AF     		add	r7, sp, #0
  70              		.cfi_def_cfa_register 7
 148:.\Generated_Source\PSoC4/I2CS.c **** #if (I2CS_SCB_MODE_UNCONFIG_CONST_CFG)
 149:.\Generated_Source\PSoC4/I2CS.c ****     /* Enable SCB block, only if it is already configured */
 150:.\Generated_Source\PSoC4/I2CS.c ****     if (!I2CS_SCB_MODE_UNCONFIG_RUNTM_CFG)
 151:.\Generated_Source\PSoC4/I2CS.c ****     {
 152:.\Generated_Source\PSoC4/I2CS.c ****         I2CS_CTRL_REG |= I2CS_CTRL_ENABLED;
 153:.\Generated_Source\PSoC4/I2CS.c **** 
 154:.\Generated_Source\PSoC4/I2CS.c ****         I2CS_ScbEnableIntr();
 155:.\Generated_Source\PSoC4/I2CS.c **** 
 156:.\Generated_Source\PSoC4/I2CS.c ****         /* Call PostEnable function specific to current operation mode */
 157:.\Generated_Source\PSoC4/I2CS.c ****         I2CS_ScbModePostEnable();
 158:.\Generated_Source\PSoC4/I2CS.c ****     }
ARM GAS  C:\Users\LUKASC~1\AppData\Local\Temp\cc8rtAnn.s 			page 5


 159:.\Generated_Source\PSoC4/I2CS.c **** #else
 160:.\Generated_Source\PSoC4/I2CS.c ****     I2CS_CTRL_REG |= I2CS_CTRL_ENABLED;
  71              		.loc 1 160 0
  72 0004 064B     		ldr	r3, .L3
  73 0006 064A     		ldr	r2, .L3
  74 0008 1268     		ldr	r2, [r2]
  75 000a 8021     		mov	r1, #128
  76 000c 0906     		lsl	r1, r1, #24
  77 000e 0A43     		orr	r2, r1
  78 0010 1A60     		str	r2, [r3]
 161:.\Generated_Source\PSoC4/I2CS.c **** 
 162:.\Generated_Source\PSoC4/I2CS.c ****     I2CS_ScbEnableIntr();
  79              		.loc 1 162 0
  80 0012 FFF7FEFF 		bl	I2CS_ScbEnableIntr
 163:.\Generated_Source\PSoC4/I2CS.c **** 
 164:.\Generated_Source\PSoC4/I2CS.c ****     /* Call PostEnable function specific to current operation mode */
 165:.\Generated_Source\PSoC4/I2CS.c ****     I2CS_ScbModePostEnable();
  81              		.loc 1 165 0
  82 0016 FFF7FEFF 		bl	I2CS_ScbModePostEnable
 166:.\Generated_Source\PSoC4/I2CS.c **** #endif /* (I2CS_SCB_MODE_UNCONFIG_CONST_CFG) */
 167:.\Generated_Source\PSoC4/I2CS.c **** }
  83              		.loc 1 167 0
  84 001a BD46     		mov	sp, r7
  85              		@ sp needed
  86 001c 80BD     		pop	{r7, pc}
  87              	.L4:
  88 001e C046     		.align	2
  89              	.L3:
  90 0020 00000740 		.word	1074200576
  91              		.cfi_endproc
  92              	.LFE1:
  93              		.size	I2CS_Enable, .-I2CS_Enable
  94              		.section	.text.I2CS_Start,"ax",%progbits
  95              		.align	2
  96              		.global	I2CS_Start
  97              		.code	16
  98              		.thumb_func
  99              		.type	I2CS_Start, %function
 100              	I2CS_Start:
 101              	.LFB2:
 168:.\Generated_Source\PSoC4/I2CS.c **** 
 169:.\Generated_Source\PSoC4/I2CS.c **** 
 170:.\Generated_Source\PSoC4/I2CS.c **** /*******************************************************************************
 171:.\Generated_Source\PSoC4/I2CS.c **** * Function Name: I2CS_Start
 172:.\Generated_Source\PSoC4/I2CS.c **** ********************************************************************************
 173:.\Generated_Source\PSoC4/I2CS.c **** *
 174:.\Generated_Source\PSoC4/I2CS.c **** * Summary:
 175:.\Generated_Source\PSoC4/I2CS.c **** *  Invokes SCB_Init() and SCB_Enable().
 176:.\Generated_Source\PSoC4/I2CS.c **** *  After this function call, the component is enabled and ready for operation.
 177:.\Generated_Source\PSoC4/I2CS.c **** *  When configuration is set to "Unconfigured SCB", the component must first be
 178:.\Generated_Source\PSoC4/I2CS.c **** *  initialized to operate in one of the following configurations: I2C, SPI, UART
 179:.\Generated_Source\PSoC4/I2CS.c **** *  or EZ I2C. Otherwise this function does not enable the component.
 180:.\Generated_Source\PSoC4/I2CS.c **** *
 181:.\Generated_Source\PSoC4/I2CS.c **** * Parameters:
 182:.\Generated_Source\PSoC4/I2CS.c **** *  None
 183:.\Generated_Source\PSoC4/I2CS.c **** *
 184:.\Generated_Source\PSoC4/I2CS.c **** * Return:
ARM GAS  C:\Users\LUKASC~1\AppData\Local\Temp\cc8rtAnn.s 			page 6


 185:.\Generated_Source\PSoC4/I2CS.c **** *  None
 186:.\Generated_Source\PSoC4/I2CS.c **** *
 187:.\Generated_Source\PSoC4/I2CS.c **** * Global variables:
 188:.\Generated_Source\PSoC4/I2CS.c **** *  I2CS_initVar - used to check initial configuration, modified
 189:.\Generated_Source\PSoC4/I2CS.c **** *  on first function call.
 190:.\Generated_Source\PSoC4/I2CS.c **** *
 191:.\Generated_Source\PSoC4/I2CS.c **** *******************************************************************************/
 192:.\Generated_Source\PSoC4/I2CS.c **** void I2CS_Start(void)
 193:.\Generated_Source\PSoC4/I2CS.c **** {
 102              		.loc 1 193 0
 103              		.cfi_startproc
 104 0000 80B5     		push	{r7, lr}
 105              		.cfi_def_cfa_offset 8
 106              		.cfi_offset 7, -8
 107              		.cfi_offset 14, -4
 108 0002 00AF     		add	r7, sp, #0
 109              		.cfi_def_cfa_register 7
 194:.\Generated_Source\PSoC4/I2CS.c ****     if (0u == I2CS_initVar)
 110              		.loc 1 194 0
 111 0004 064B     		ldr	r3, .L7
 112 0006 1B78     		ldrb	r3, [r3]
 113 0008 002B     		cmp	r3, #0
 114 000a 04D1     		bne	.L6
 195:.\Generated_Source\PSoC4/I2CS.c ****     {
 196:.\Generated_Source\PSoC4/I2CS.c ****         I2CS_Init();
 115              		.loc 1 196 0
 116 000c FFF7FEFF 		bl	I2CS_Init
 197:.\Generated_Source\PSoC4/I2CS.c ****         I2CS_initVar = 1u; /* Component was initialized */
 117              		.loc 1 197 0
 118 0010 034B     		ldr	r3, .L7
 119 0012 0122     		mov	r2, #1
 120 0014 1A70     		strb	r2, [r3]
 121              	.L6:
 198:.\Generated_Source\PSoC4/I2CS.c ****     }
 199:.\Generated_Source\PSoC4/I2CS.c **** 
 200:.\Generated_Source\PSoC4/I2CS.c ****     I2CS_Enable();
 122              		.loc 1 200 0
 123 0016 FFF7FEFF 		bl	I2CS_Enable
 201:.\Generated_Source\PSoC4/I2CS.c **** }
 124              		.loc 1 201 0
 125 001a BD46     		mov	sp, r7
 126              		@ sp needed
 127 001c 80BD     		pop	{r7, pc}
 128              	.L8:
 129 001e C046     		.align	2
 130              	.L7:
 131 0020 00000000 		.word	I2CS_initVar
 132              		.cfi_endproc
 133              	.LFE2:
 134              		.size	I2CS_Start, .-I2CS_Start
 135              		.section	.text.I2CS_Stop,"ax",%progbits
 136              		.align	2
 137              		.global	I2CS_Stop
 138              		.code	16
 139              		.thumb_func
 140              		.type	I2CS_Stop, %function
 141              	I2CS_Stop:
ARM GAS  C:\Users\LUKASC~1\AppData\Local\Temp\cc8rtAnn.s 			page 7


 142              	.LFB3:
 202:.\Generated_Source\PSoC4/I2CS.c **** 
 203:.\Generated_Source\PSoC4/I2CS.c **** 
 204:.\Generated_Source\PSoC4/I2CS.c **** /*******************************************************************************
 205:.\Generated_Source\PSoC4/I2CS.c **** * Function Name: I2CS_Stop
 206:.\Generated_Source\PSoC4/I2CS.c **** ********************************************************************************
 207:.\Generated_Source\PSoC4/I2CS.c **** *
 208:.\Generated_Source\PSoC4/I2CS.c **** * Summary:
 209:.\Generated_Source\PSoC4/I2CS.c **** *  Disables the SCB component and its interrupt.
 210:.\Generated_Source\PSoC4/I2CS.c **** *  It also disables all TX interrupt sources so as not to cause an unexpected
 211:.\Generated_Source\PSoC4/I2CS.c **** *  interrupt trigger because after the component is enabled, the TX FIFO 
 212:.\Generated_Source\PSoC4/I2CS.c **** *  is empty.
 213:.\Generated_Source\PSoC4/I2CS.c **** *
 214:.\Generated_Source\PSoC4/I2CS.c **** * Parameters:
 215:.\Generated_Source\PSoC4/I2CS.c **** *  None
 216:.\Generated_Source\PSoC4/I2CS.c **** *
 217:.\Generated_Source\PSoC4/I2CS.c **** * Return:
 218:.\Generated_Source\PSoC4/I2CS.c **** *  None
 219:.\Generated_Source\PSoC4/I2CS.c **** * 
 220:.\Generated_Source\PSoC4/I2CS.c **** *******************************************************************************/
 221:.\Generated_Source\PSoC4/I2CS.c **** void I2CS_Stop(void)
 222:.\Generated_Source\PSoC4/I2CS.c **** {
 143              		.loc 1 222 0
 144              		.cfi_startproc
 145 0000 80B5     		push	{r7, lr}
 146              		.cfi_def_cfa_offset 8
 147              		.cfi_offset 7, -8
 148              		.cfi_offset 14, -4
 149 0002 00AF     		add	r7, sp, #0
 150              		.cfi_def_cfa_register 7
 223:.\Generated_Source\PSoC4/I2CS.c **** #if (I2CS_SCB_IRQ_INTERNAL)
 224:.\Generated_Source\PSoC4/I2CS.c ****     I2CS_DisableInt();
 151              		.loc 1 224 0
 152 0004 0B20     		mov	r0, #11
 153 0006 FFF7FEFF 		bl	CyIntDisable
 225:.\Generated_Source\PSoC4/I2CS.c **** #endif /* (I2CS_SCB_IRQ_INTERNAL) */
 226:.\Generated_Source\PSoC4/I2CS.c **** 
 227:.\Generated_Source\PSoC4/I2CS.c ****     /* Call Stop function specific to current operation mode */
 228:.\Generated_Source\PSoC4/I2CS.c ****     I2CS_ScbModeStop();
 154              		.loc 1 228 0
 155 000a FFF7FEFF 		bl	I2CS_ScbModeStop
 229:.\Generated_Source\PSoC4/I2CS.c **** 
 230:.\Generated_Source\PSoC4/I2CS.c ****     /* Disable SCB IP */
 231:.\Generated_Source\PSoC4/I2CS.c ****     I2CS_CTRL_REG &= (uint32) ~I2CS_CTRL_ENABLED;
 156              		.loc 1 231 0
 157 000e 074B     		ldr	r3, .L10
 158 0010 064A     		ldr	r2, .L10
 159 0012 1268     		ldr	r2, [r2]
 160 0014 5200     		lsl	r2, r2, #1
 161 0016 5208     		lsr	r2, r2, #1
 162 0018 1A60     		str	r2, [r3]
 232:.\Generated_Source\PSoC4/I2CS.c **** 
 233:.\Generated_Source\PSoC4/I2CS.c ****     /* Disable all TX interrupt sources so as not to cause an unexpected
 234:.\Generated_Source\PSoC4/I2CS.c ****     * interrupt trigger because after the component is enabled, the TX FIFO
 235:.\Generated_Source\PSoC4/I2CS.c ****     * is empty.
 236:.\Generated_Source\PSoC4/I2CS.c ****     * For SCB IP v0, it is critical as it does not mask-out interrupt
 237:.\Generated_Source\PSoC4/I2CS.c ****     * sources when they are disabled. This can cause a code lock-up in the
ARM GAS  C:\Users\LUKASC~1\AppData\Local\Temp\cc8rtAnn.s 			page 8


 238:.\Generated_Source\PSoC4/I2CS.c ****     * interrupt handler because TX FIFO cannot be loaded after the block
 239:.\Generated_Source\PSoC4/I2CS.c ****     * is disabled.
 240:.\Generated_Source\PSoC4/I2CS.c ****     */
 241:.\Generated_Source\PSoC4/I2CS.c ****     I2CS_SetTxInterruptMode(I2CS_NO_INTR_SOURCES);
 163              		.loc 1 241 0
 164 001a 054B     		ldr	r3, .L10+4
 165 001c 0022     		mov	r2, #0
 166 001e 1A60     		str	r2, [r3]
 242:.\Generated_Source\PSoC4/I2CS.c **** 
 243:.\Generated_Source\PSoC4/I2CS.c **** #if (I2CS_SCB_IRQ_INTERNAL)
 244:.\Generated_Source\PSoC4/I2CS.c ****     I2CS_ClearPendingInt();
 167              		.loc 1 244 0
 168 0020 0B20     		mov	r0, #11
 169 0022 FFF7FEFF 		bl	CyIntClearPending
 245:.\Generated_Source\PSoC4/I2CS.c **** #endif /* (I2CS_SCB_IRQ_INTERNAL) */
 246:.\Generated_Source\PSoC4/I2CS.c **** }
 170              		.loc 1 246 0
 171 0026 BD46     		mov	sp, r7
 172              		@ sp needed
 173 0028 80BD     		pop	{r7, pc}
 174              	.L11:
 175 002a C046     		.align	2
 176              	.L10:
 177 002c 00000740 		.word	1074200576
 178 0030 880F0740 		.word	1074204552
 179              		.cfi_endproc
 180              	.LFE3:
 181              		.size	I2CS_Stop, .-I2CS_Stop
 182              		.section	.text.I2CS_SetRxFifoLevel,"ax",%progbits
 183              		.align	2
 184              		.global	I2CS_SetRxFifoLevel
 185              		.code	16
 186              		.thumb_func
 187              		.type	I2CS_SetRxFifoLevel, %function
 188              	I2CS_SetRxFifoLevel:
 189              	.LFB4:
 247:.\Generated_Source\PSoC4/I2CS.c **** 
 248:.\Generated_Source\PSoC4/I2CS.c **** 
 249:.\Generated_Source\PSoC4/I2CS.c **** /*******************************************************************************
 250:.\Generated_Source\PSoC4/I2CS.c **** * Function Name: I2CS_SetRxFifoLevel
 251:.\Generated_Source\PSoC4/I2CS.c **** ********************************************************************************
 252:.\Generated_Source\PSoC4/I2CS.c **** *
 253:.\Generated_Source\PSoC4/I2CS.c **** * Summary:
 254:.\Generated_Source\PSoC4/I2CS.c **** *  Sets level in the RX FIFO to generate a RX level interrupt.
 255:.\Generated_Source\PSoC4/I2CS.c **** *  When the RX FIFO has more entries than the RX FIFO level an RX level
 256:.\Generated_Source\PSoC4/I2CS.c **** *  interrupt request is generated.
 257:.\Generated_Source\PSoC4/I2CS.c **** *
 258:.\Generated_Source\PSoC4/I2CS.c **** * Parameters:
 259:.\Generated_Source\PSoC4/I2CS.c **** *  level: Level in the RX FIFO to generate RX level interrupt.
 260:.\Generated_Source\PSoC4/I2CS.c **** *         The range of valid level values is between 0 and RX FIFO depth - 1.
 261:.\Generated_Source\PSoC4/I2CS.c **** *
 262:.\Generated_Source\PSoC4/I2CS.c **** * Return:
 263:.\Generated_Source\PSoC4/I2CS.c **** *  None
 264:.\Generated_Source\PSoC4/I2CS.c **** *
 265:.\Generated_Source\PSoC4/I2CS.c **** *******************************************************************************/
 266:.\Generated_Source\PSoC4/I2CS.c **** void I2CS_SetRxFifoLevel(uint32 level)
 267:.\Generated_Source\PSoC4/I2CS.c **** {
ARM GAS  C:\Users\LUKASC~1\AppData\Local\Temp\cc8rtAnn.s 			page 9


 190              		.loc 1 267 0
 191              		.cfi_startproc
 192 0000 80B5     		push	{r7, lr}
 193              		.cfi_def_cfa_offset 8
 194              		.cfi_offset 7, -8
 195              		.cfi_offset 14, -4
 196 0002 84B0     		sub	sp, sp, #16
 197              		.cfi_def_cfa_offset 24
 198 0004 00AF     		add	r7, sp, #0
 199              		.cfi_def_cfa_register 7
 200 0006 7860     		str	r0, [r7, #4]
 268:.\Generated_Source\PSoC4/I2CS.c ****     uint32 rxFifoCtrl;
 269:.\Generated_Source\PSoC4/I2CS.c **** 
 270:.\Generated_Source\PSoC4/I2CS.c ****     rxFifoCtrl = I2CS_RX_FIFO_CTRL_REG;
 201              		.loc 1 270 0
 202 0008 094B     		ldr	r3, .L13
 203 000a 1B68     		ldr	r3, [r3]
 204 000c FB60     		str	r3, [r7, #12]
 271:.\Generated_Source\PSoC4/I2CS.c **** 
 272:.\Generated_Source\PSoC4/I2CS.c ****     rxFifoCtrl &= ((uint32) ~I2CS_RX_FIFO_CTRL_TRIGGER_LEVEL_MASK); /* Clear level mask bits */
 205              		.loc 1 272 0
 206 000e FB68     		ldr	r3, [r7, #12]
 207 0010 0722     		mov	r2, #7
 208 0012 9343     		bic	r3, r2
 209 0014 FB60     		str	r3, [r7, #12]
 273:.\Generated_Source\PSoC4/I2CS.c ****     rxFifoCtrl |= ((uint32) (I2CS_RX_FIFO_CTRL_TRIGGER_LEVEL_MASK & level));
 210              		.loc 1 273 0
 211 0016 7B68     		ldr	r3, [r7, #4]
 212 0018 0722     		mov	r2, #7
 213 001a 1340     		and	r3, r2
 214 001c FA68     		ldr	r2, [r7, #12]
 215 001e 1343     		orr	r3, r2
 216 0020 FB60     		str	r3, [r7, #12]
 274:.\Generated_Source\PSoC4/I2CS.c **** 
 275:.\Generated_Source\PSoC4/I2CS.c ****     I2CS_RX_FIFO_CTRL_REG = rxFifoCtrl;
 217              		.loc 1 275 0
 218 0022 034B     		ldr	r3, .L13
 219 0024 FA68     		ldr	r2, [r7, #12]
 220 0026 1A60     		str	r2, [r3]
 276:.\Generated_Source\PSoC4/I2CS.c **** }
 221              		.loc 1 276 0
 222 0028 BD46     		mov	sp, r7
 223 002a 04B0     		add	sp, sp, #16
 224              		@ sp needed
 225 002c 80BD     		pop	{r7, pc}
 226              	.L14:
 227 002e C046     		.align	2
 228              	.L13:
 229 0030 04030740 		.word	1074201348
 230              		.cfi_endproc
 231              	.LFE4:
 232              		.size	I2CS_SetRxFifoLevel, .-I2CS_SetRxFifoLevel
 233              		.section	.text.I2CS_SetTxFifoLevel,"ax",%progbits
 234              		.align	2
 235              		.global	I2CS_SetTxFifoLevel
 236              		.code	16
 237              		.thumb_func
ARM GAS  C:\Users\LUKASC~1\AppData\Local\Temp\cc8rtAnn.s 			page 10


 238              		.type	I2CS_SetTxFifoLevel, %function
 239              	I2CS_SetTxFifoLevel:
 240              	.LFB5:
 277:.\Generated_Source\PSoC4/I2CS.c **** 
 278:.\Generated_Source\PSoC4/I2CS.c **** 
 279:.\Generated_Source\PSoC4/I2CS.c **** /*******************************************************************************
 280:.\Generated_Source\PSoC4/I2CS.c **** * Function Name: I2CS_SetTxFifoLevel
 281:.\Generated_Source\PSoC4/I2CS.c **** ********************************************************************************
 282:.\Generated_Source\PSoC4/I2CS.c **** *
 283:.\Generated_Source\PSoC4/I2CS.c **** * Summary:
 284:.\Generated_Source\PSoC4/I2CS.c **** *  Sets level in the TX FIFO to generate a TX level interrupt.
 285:.\Generated_Source\PSoC4/I2CS.c **** *  When the TX FIFO has more entries than the TX FIFO level an TX level
 286:.\Generated_Source\PSoC4/I2CS.c **** *  interrupt request is generated.
 287:.\Generated_Source\PSoC4/I2CS.c **** *
 288:.\Generated_Source\PSoC4/I2CS.c **** * Parameters:
 289:.\Generated_Source\PSoC4/I2CS.c **** *  level: Level in the TX FIFO to generate TX level interrupt.
 290:.\Generated_Source\PSoC4/I2CS.c **** *         The range of valid level values is between 0 and TX FIFO depth - 1.
 291:.\Generated_Source\PSoC4/I2CS.c **** *
 292:.\Generated_Source\PSoC4/I2CS.c **** * Return:
 293:.\Generated_Source\PSoC4/I2CS.c **** *  None
 294:.\Generated_Source\PSoC4/I2CS.c **** *
 295:.\Generated_Source\PSoC4/I2CS.c **** *******************************************************************************/
 296:.\Generated_Source\PSoC4/I2CS.c **** void I2CS_SetTxFifoLevel(uint32 level)
 297:.\Generated_Source\PSoC4/I2CS.c **** {
 241              		.loc 1 297 0
 242              		.cfi_startproc
 243 0000 80B5     		push	{r7, lr}
 244              		.cfi_def_cfa_offset 8
 245              		.cfi_offset 7, -8
 246              		.cfi_offset 14, -4
 247 0002 84B0     		sub	sp, sp, #16
 248              		.cfi_def_cfa_offset 24
 249 0004 00AF     		add	r7, sp, #0
 250              		.cfi_def_cfa_register 7
 251 0006 7860     		str	r0, [r7, #4]
 298:.\Generated_Source\PSoC4/I2CS.c ****     uint32 txFifoCtrl;
 299:.\Generated_Source\PSoC4/I2CS.c **** 
 300:.\Generated_Source\PSoC4/I2CS.c ****     txFifoCtrl = I2CS_TX_FIFO_CTRL_REG;
 252              		.loc 1 300 0
 253 0008 094B     		ldr	r3, .L16
 254 000a 1B68     		ldr	r3, [r3]
 255 000c FB60     		str	r3, [r7, #12]
 301:.\Generated_Source\PSoC4/I2CS.c **** 
 302:.\Generated_Source\PSoC4/I2CS.c ****     txFifoCtrl &= ((uint32) ~I2CS_TX_FIFO_CTRL_TRIGGER_LEVEL_MASK); /* Clear level mask bits */
 256              		.loc 1 302 0
 257 000e FB68     		ldr	r3, [r7, #12]
 258 0010 0722     		mov	r2, #7
 259 0012 9343     		bic	r3, r2
 260 0014 FB60     		str	r3, [r7, #12]
 303:.\Generated_Source\PSoC4/I2CS.c ****     txFifoCtrl |= ((uint32) (I2CS_TX_FIFO_CTRL_TRIGGER_LEVEL_MASK & level));
 261              		.loc 1 303 0
 262 0016 7B68     		ldr	r3, [r7, #4]
 263 0018 0722     		mov	r2, #7
 264 001a 1340     		and	r3, r2
 265 001c FA68     		ldr	r2, [r7, #12]
 266 001e 1343     		orr	r3, r2
 267 0020 FB60     		str	r3, [r7, #12]
ARM GAS  C:\Users\LUKASC~1\AppData\Local\Temp\cc8rtAnn.s 			page 11


 304:.\Generated_Source\PSoC4/I2CS.c **** 
 305:.\Generated_Source\PSoC4/I2CS.c ****     I2CS_TX_FIFO_CTRL_REG = txFifoCtrl;
 268              		.loc 1 305 0
 269 0022 034B     		ldr	r3, .L16
 270 0024 FA68     		ldr	r2, [r7, #12]
 271 0026 1A60     		str	r2, [r3]
 306:.\Generated_Source\PSoC4/I2CS.c **** }
 272              		.loc 1 306 0
 273 0028 BD46     		mov	sp, r7
 274 002a 04B0     		add	sp, sp, #16
 275              		@ sp needed
 276 002c 80BD     		pop	{r7, pc}
 277              	.L17:
 278 002e C046     		.align	2
 279              	.L16:
 280 0030 04020740 		.word	1074201092
 281              		.cfi_endproc
 282              	.LFE5:
 283              		.size	I2CS_SetTxFifoLevel, .-I2CS_SetTxFifoLevel
 284              		.section	.text.I2CS_SetCustomInterruptHandler,"ax",%progbits
 285              		.align	2
 286              		.global	I2CS_SetCustomInterruptHandler
 287              		.code	16
 288              		.thumb_func
 289              		.type	I2CS_SetCustomInterruptHandler, %function
 290              	I2CS_SetCustomInterruptHandler:
 291              	.LFB6:
 307:.\Generated_Source\PSoC4/I2CS.c **** 
 308:.\Generated_Source\PSoC4/I2CS.c **** 
 309:.\Generated_Source\PSoC4/I2CS.c **** #if (I2CS_SCB_IRQ_INTERNAL)
 310:.\Generated_Source\PSoC4/I2CS.c ****     /*******************************************************************************
 311:.\Generated_Source\PSoC4/I2CS.c ****     * Function Name: I2CS_SetCustomInterruptHandler
 312:.\Generated_Source\PSoC4/I2CS.c ****     ********************************************************************************
 313:.\Generated_Source\PSoC4/I2CS.c ****     *
 314:.\Generated_Source\PSoC4/I2CS.c ****     * Summary:
 315:.\Generated_Source\PSoC4/I2CS.c ****     *  Registers a function to be called by the internal interrupt handler.
 316:.\Generated_Source\PSoC4/I2CS.c ****     *  First the function that is registered is called, then the internal interrupt
 317:.\Generated_Source\PSoC4/I2CS.c ****     *  handler performs any operation such as software buffer management functions
 318:.\Generated_Source\PSoC4/I2CS.c ****     *  before the interrupt returns.  It is the user's responsibility not to break
 319:.\Generated_Source\PSoC4/I2CS.c ****     *  the software buffer operations. Only one custom handler is supported, which
 320:.\Generated_Source\PSoC4/I2CS.c ****     *  is the function provided by the most recent call.
 321:.\Generated_Source\PSoC4/I2CS.c ****     *  At the initialization time no custom handler is registered.
 322:.\Generated_Source\PSoC4/I2CS.c ****     *
 323:.\Generated_Source\PSoC4/I2CS.c ****     * Parameters:
 324:.\Generated_Source\PSoC4/I2CS.c ****     *  func: Pointer to the function to register.
 325:.\Generated_Source\PSoC4/I2CS.c ****     *        The value NULL indicates to remove the current custom interrupt
 326:.\Generated_Source\PSoC4/I2CS.c ****     *        handler.
 327:.\Generated_Source\PSoC4/I2CS.c ****     *
 328:.\Generated_Source\PSoC4/I2CS.c ****     * Return:
 329:.\Generated_Source\PSoC4/I2CS.c ****     *  None
 330:.\Generated_Source\PSoC4/I2CS.c ****     *
 331:.\Generated_Source\PSoC4/I2CS.c ****     *******************************************************************************/
 332:.\Generated_Source\PSoC4/I2CS.c ****     void I2CS_SetCustomInterruptHandler(void (*func)(void))
 333:.\Generated_Source\PSoC4/I2CS.c ****     {
 292              		.loc 1 333 0
 293              		.cfi_startproc
 294 0000 80B5     		push	{r7, lr}
ARM GAS  C:\Users\LUKASC~1\AppData\Local\Temp\cc8rtAnn.s 			page 12


 295              		.cfi_def_cfa_offset 8
 296              		.cfi_offset 7, -8
 297              		.cfi_offset 14, -4
 298 0002 82B0     		sub	sp, sp, #8
 299              		.cfi_def_cfa_offset 16
 300 0004 00AF     		add	r7, sp, #0
 301              		.cfi_def_cfa_register 7
 302 0006 7860     		str	r0, [r7, #4]
 334:.\Generated_Source\PSoC4/I2CS.c ****     #if !defined (CY_REMOVE_I2CS_CUSTOM_INTR_HANDLER)
 335:.\Generated_Source\PSoC4/I2CS.c ****         I2CS_customIntrHandler = func; /* Register interrupt handler */
 303              		.loc 1 335 0
 304 0008 024B     		ldr	r3, .L19
 305 000a 7A68     		ldr	r2, [r7, #4]
 306 000c 1A60     		str	r2, [r3]
 336:.\Generated_Source\PSoC4/I2CS.c ****     #else
 337:.\Generated_Source\PSoC4/I2CS.c ****         if (NULL != func)
 338:.\Generated_Source\PSoC4/I2CS.c ****         {
 339:.\Generated_Source\PSoC4/I2CS.c ****             /* Suppress compiler warning */
 340:.\Generated_Source\PSoC4/I2CS.c ****         }
 341:.\Generated_Source\PSoC4/I2CS.c ****     #endif /* !defined (CY_REMOVE_I2CS_CUSTOM_INTR_HANDLER) */
 342:.\Generated_Source\PSoC4/I2CS.c ****     }
 307              		.loc 1 342 0
 308 000e BD46     		mov	sp, r7
 309 0010 02B0     		add	sp, sp, #8
 310              		@ sp needed
 311 0012 80BD     		pop	{r7, pc}
 312              	.L20:
 313              		.align	2
 314              	.L19:
 315 0014 00000000 		.word	I2CS_customIntrHandler
 316              		.cfi_endproc
 317              	.LFE6:
 318              		.size	I2CS_SetCustomInterruptHandler, .-I2CS_SetCustomInterruptHandler
 319              		.section	.text.I2CS_ScbEnableIntr,"ax",%progbits
 320              		.align	2
 321              		.code	16
 322              		.thumb_func
 323              		.type	I2CS_ScbEnableIntr, %function
 324              	I2CS_ScbEnableIntr:
 325              	.LFB7:
 343:.\Generated_Source\PSoC4/I2CS.c **** #endif /* (I2CS_SCB_IRQ_INTERNAL) */
 344:.\Generated_Source\PSoC4/I2CS.c **** 
 345:.\Generated_Source\PSoC4/I2CS.c **** 
 346:.\Generated_Source\PSoC4/I2CS.c **** /*******************************************************************************
 347:.\Generated_Source\PSoC4/I2CS.c **** * Function Name: I2CS_ScbModeEnableIntr
 348:.\Generated_Source\PSoC4/I2CS.c **** ********************************************************************************
 349:.\Generated_Source\PSoC4/I2CS.c **** *
 350:.\Generated_Source\PSoC4/I2CS.c **** * Summary:
 351:.\Generated_Source\PSoC4/I2CS.c **** *  Enables an interrupt for a specific mode.
 352:.\Generated_Source\PSoC4/I2CS.c **** *
 353:.\Generated_Source\PSoC4/I2CS.c **** * Parameters:
 354:.\Generated_Source\PSoC4/I2CS.c **** *  None
 355:.\Generated_Source\PSoC4/I2CS.c **** *
 356:.\Generated_Source\PSoC4/I2CS.c **** * Return:
 357:.\Generated_Source\PSoC4/I2CS.c **** *  None
 358:.\Generated_Source\PSoC4/I2CS.c **** *
 359:.\Generated_Source\PSoC4/I2CS.c **** *******************************************************************************/
ARM GAS  C:\Users\LUKASC~1\AppData\Local\Temp\cc8rtAnn.s 			page 13


 360:.\Generated_Source\PSoC4/I2CS.c **** static void I2CS_ScbEnableIntr(void)
 361:.\Generated_Source\PSoC4/I2CS.c **** {
 326              		.loc 1 361 0
 327              		.cfi_startproc
 328 0000 80B5     		push	{r7, lr}
 329              		.cfi_def_cfa_offset 8
 330              		.cfi_offset 7, -8
 331              		.cfi_offset 14, -4
 332 0002 00AF     		add	r7, sp, #0
 333              		.cfi_def_cfa_register 7
 362:.\Generated_Source\PSoC4/I2CS.c **** #if (I2CS_SCB_IRQ_INTERNAL)
 363:.\Generated_Source\PSoC4/I2CS.c ****     /* Enable interrupt in NVIC */
 364:.\Generated_Source\PSoC4/I2CS.c ****     #if (I2CS_SCB_MODE_UNCONFIG_CONST_CFG)
 365:.\Generated_Source\PSoC4/I2CS.c ****         if (0u != I2CS_scbEnableIntr)
 366:.\Generated_Source\PSoC4/I2CS.c ****         {
 367:.\Generated_Source\PSoC4/I2CS.c ****             I2CS_EnableInt();
 368:.\Generated_Source\PSoC4/I2CS.c ****         }
 369:.\Generated_Source\PSoC4/I2CS.c **** 
 370:.\Generated_Source\PSoC4/I2CS.c ****     #else
 371:.\Generated_Source\PSoC4/I2CS.c ****         I2CS_EnableInt();
 334              		.loc 1 371 0
 335 0004 0B20     		mov	r0, #11
 336 0006 FFF7FEFF 		bl	CyIntEnable
 372:.\Generated_Source\PSoC4/I2CS.c **** 
 373:.\Generated_Source\PSoC4/I2CS.c ****     #endif /* (I2CS_SCB_MODE_UNCONFIG_CONST_CFG) */
 374:.\Generated_Source\PSoC4/I2CS.c **** #endif /* (I2CS_SCB_IRQ_INTERNAL) */
 375:.\Generated_Source\PSoC4/I2CS.c **** }
 337              		.loc 1 375 0
 338 000a BD46     		mov	sp, r7
 339              		@ sp needed
 340 000c 80BD     		pop	{r7, pc}
 341              		.cfi_endproc
 342              	.LFE7:
 343              		.size	I2CS_ScbEnableIntr, .-I2CS_ScbEnableIntr
 344              		.section	.text.I2CS_ScbModePostEnable,"ax",%progbits
 345              		.align	2
 346              		.code	16
 347              		.thumb_func
 348              		.type	I2CS_ScbModePostEnable, %function
 349              	I2CS_ScbModePostEnable:
 350              	.LFB8:
 376:.\Generated_Source\PSoC4/I2CS.c **** 
 377:.\Generated_Source\PSoC4/I2CS.c **** 
 378:.\Generated_Source\PSoC4/I2CS.c **** /*******************************************************************************
 379:.\Generated_Source\PSoC4/I2CS.c **** * Function Name: I2CS_ScbModePostEnable
 380:.\Generated_Source\PSoC4/I2CS.c **** ********************************************************************************
 381:.\Generated_Source\PSoC4/I2CS.c **** *
 382:.\Generated_Source\PSoC4/I2CS.c **** * Summary:
 383:.\Generated_Source\PSoC4/I2CS.c **** *  Calls the PostEnable function for a specific operation mode.
 384:.\Generated_Source\PSoC4/I2CS.c **** *
 385:.\Generated_Source\PSoC4/I2CS.c **** * Parameters:
 386:.\Generated_Source\PSoC4/I2CS.c **** *  None
 387:.\Generated_Source\PSoC4/I2CS.c **** *
 388:.\Generated_Source\PSoC4/I2CS.c **** * Return:
 389:.\Generated_Source\PSoC4/I2CS.c **** *  None
 390:.\Generated_Source\PSoC4/I2CS.c **** *
 391:.\Generated_Source\PSoC4/I2CS.c **** *******************************************************************************/
ARM GAS  C:\Users\LUKASC~1\AppData\Local\Temp\cc8rtAnn.s 			page 14


 392:.\Generated_Source\PSoC4/I2CS.c **** static void I2CS_ScbModePostEnable(void)
 393:.\Generated_Source\PSoC4/I2CS.c **** {
 351              		.loc 1 393 0
 352              		.cfi_startproc
 353 0000 80B5     		push	{r7, lr}
 354              		.cfi_def_cfa_offset 8
 355              		.cfi_offset 7, -8
 356              		.cfi_offset 14, -4
 357 0002 00AF     		add	r7, sp, #0
 358              		.cfi_def_cfa_register 7
 394:.\Generated_Source\PSoC4/I2CS.c **** #if (I2CS_SCB_MODE_UNCONFIG_CONST_CFG)
 395:.\Generated_Source\PSoC4/I2CS.c **** #if (!I2CS_CY_SCBIP_V1)
 396:.\Generated_Source\PSoC4/I2CS.c ****     if (I2CS_SCB_MODE_SPI_RUNTM_CFG)
 397:.\Generated_Source\PSoC4/I2CS.c ****     {
 398:.\Generated_Source\PSoC4/I2CS.c ****         I2CS_SpiPostEnable();
 399:.\Generated_Source\PSoC4/I2CS.c ****     }
 400:.\Generated_Source\PSoC4/I2CS.c ****     else if (I2CS_SCB_MODE_UART_RUNTM_CFG)
 401:.\Generated_Source\PSoC4/I2CS.c ****     {
 402:.\Generated_Source\PSoC4/I2CS.c ****         I2CS_UartPostEnable();
 403:.\Generated_Source\PSoC4/I2CS.c ****     }
 404:.\Generated_Source\PSoC4/I2CS.c ****     else
 405:.\Generated_Source\PSoC4/I2CS.c ****     {
 406:.\Generated_Source\PSoC4/I2CS.c ****         /* Unknown mode: do nothing */
 407:.\Generated_Source\PSoC4/I2CS.c ****     }
 408:.\Generated_Source\PSoC4/I2CS.c **** #endif /* (!I2CS_CY_SCBIP_V1) */
 409:.\Generated_Source\PSoC4/I2CS.c **** 
 410:.\Generated_Source\PSoC4/I2CS.c **** #elif (I2CS_SCB_MODE_SPI_CONST_CFG)
 411:.\Generated_Source\PSoC4/I2CS.c ****     I2CS_SpiPostEnable();
 412:.\Generated_Source\PSoC4/I2CS.c **** 
 413:.\Generated_Source\PSoC4/I2CS.c **** #elif (I2CS_SCB_MODE_UART_CONST_CFG)
 414:.\Generated_Source\PSoC4/I2CS.c ****     I2CS_UartPostEnable();
 415:.\Generated_Source\PSoC4/I2CS.c **** 
 416:.\Generated_Source\PSoC4/I2CS.c **** #else
 417:.\Generated_Source\PSoC4/I2CS.c ****     /* Unknown mode: do nothing */
 418:.\Generated_Source\PSoC4/I2CS.c **** #endif /* (I2CS_SCB_MODE_UNCONFIG_CONST_CFG) */
 419:.\Generated_Source\PSoC4/I2CS.c **** }
 359              		.loc 1 419 0
 360 0004 BD46     		mov	sp, r7
 361              		@ sp needed
 362 0006 80BD     		pop	{r7, pc}
 363              		.cfi_endproc
 364              	.LFE8:
 365              		.size	I2CS_ScbModePostEnable, .-I2CS_ScbModePostEnable
 366              		.section	.text.I2CS_ScbModeStop,"ax",%progbits
 367              		.align	2
 368              		.code	16
 369              		.thumb_func
 370              		.type	I2CS_ScbModeStop, %function
 371              	I2CS_ScbModeStop:
 372              	.LFB9:
 420:.\Generated_Source\PSoC4/I2CS.c **** 
 421:.\Generated_Source\PSoC4/I2CS.c **** 
 422:.\Generated_Source\PSoC4/I2CS.c **** /*******************************************************************************
 423:.\Generated_Source\PSoC4/I2CS.c **** * Function Name: I2CS_ScbModeStop
 424:.\Generated_Source\PSoC4/I2CS.c **** ********************************************************************************
 425:.\Generated_Source\PSoC4/I2CS.c **** *
 426:.\Generated_Source\PSoC4/I2CS.c **** * Summary:
ARM GAS  C:\Users\LUKASC~1\AppData\Local\Temp\cc8rtAnn.s 			page 15


 427:.\Generated_Source\PSoC4/I2CS.c **** *  Calls the Stop function for a specific operation mode.
 428:.\Generated_Source\PSoC4/I2CS.c **** *
 429:.\Generated_Source\PSoC4/I2CS.c **** * Parameters:
 430:.\Generated_Source\PSoC4/I2CS.c **** *  None
 431:.\Generated_Source\PSoC4/I2CS.c **** *
 432:.\Generated_Source\PSoC4/I2CS.c **** * Return:
 433:.\Generated_Source\PSoC4/I2CS.c **** *  None
 434:.\Generated_Source\PSoC4/I2CS.c **** *
 435:.\Generated_Source\PSoC4/I2CS.c **** *******************************************************************************/
 436:.\Generated_Source\PSoC4/I2CS.c **** static void I2CS_ScbModeStop(void)
 437:.\Generated_Source\PSoC4/I2CS.c **** {
 373              		.loc 1 437 0
 374              		.cfi_startproc
 375 0000 80B5     		push	{r7, lr}
 376              		.cfi_def_cfa_offset 8
 377              		.cfi_offset 7, -8
 378              		.cfi_offset 14, -4
 379 0002 00AF     		add	r7, sp, #0
 380              		.cfi_def_cfa_register 7
 438:.\Generated_Source\PSoC4/I2CS.c **** #if (I2CS_SCB_MODE_UNCONFIG_CONST_CFG)
 439:.\Generated_Source\PSoC4/I2CS.c ****     if (I2CS_SCB_MODE_I2C_RUNTM_CFG)
 440:.\Generated_Source\PSoC4/I2CS.c ****     {
 441:.\Generated_Source\PSoC4/I2CS.c ****         I2CS_I2CStop();
 442:.\Generated_Source\PSoC4/I2CS.c ****     }
 443:.\Generated_Source\PSoC4/I2CS.c ****     else if (I2CS_SCB_MODE_EZI2C_RUNTM_CFG)
 444:.\Generated_Source\PSoC4/I2CS.c ****     {
 445:.\Generated_Source\PSoC4/I2CS.c ****         I2CS_EzI2CStop();
 446:.\Generated_Source\PSoC4/I2CS.c ****     }
 447:.\Generated_Source\PSoC4/I2CS.c **** #if (!I2CS_CY_SCBIP_V1)
 448:.\Generated_Source\PSoC4/I2CS.c ****     else if (I2CS_SCB_MODE_SPI_RUNTM_CFG)
 449:.\Generated_Source\PSoC4/I2CS.c ****     {
 450:.\Generated_Source\PSoC4/I2CS.c ****         I2CS_SpiStop();
 451:.\Generated_Source\PSoC4/I2CS.c ****     }
 452:.\Generated_Source\PSoC4/I2CS.c ****     else if (I2CS_SCB_MODE_UART_RUNTM_CFG)
 453:.\Generated_Source\PSoC4/I2CS.c ****     {
 454:.\Generated_Source\PSoC4/I2CS.c ****         I2CS_UartStop();
 455:.\Generated_Source\PSoC4/I2CS.c ****     }
 456:.\Generated_Source\PSoC4/I2CS.c **** #endif /* (!I2CS_CY_SCBIP_V1) */
 457:.\Generated_Source\PSoC4/I2CS.c ****     else
 458:.\Generated_Source\PSoC4/I2CS.c ****     {
 459:.\Generated_Source\PSoC4/I2CS.c ****         /* Unknown mode: do nothing */
 460:.\Generated_Source\PSoC4/I2CS.c ****     }
 461:.\Generated_Source\PSoC4/I2CS.c **** #elif (I2CS_SCB_MODE_I2C_CONST_CFG)
 462:.\Generated_Source\PSoC4/I2CS.c ****     I2CS_I2CStop();
 381              		.loc 1 462 0
 382 0004 FFF7FEFF 		bl	I2CS_I2CStop
 463:.\Generated_Source\PSoC4/I2CS.c **** 
 464:.\Generated_Source\PSoC4/I2CS.c **** #elif (I2CS_SCB_MODE_EZI2C_CONST_CFG)
 465:.\Generated_Source\PSoC4/I2CS.c ****     I2CS_EzI2CStop();
 466:.\Generated_Source\PSoC4/I2CS.c **** 
 467:.\Generated_Source\PSoC4/I2CS.c **** #elif (I2CS_SCB_MODE_SPI_CONST_CFG)
 468:.\Generated_Source\PSoC4/I2CS.c ****     I2CS_SpiStop();
 469:.\Generated_Source\PSoC4/I2CS.c **** 
 470:.\Generated_Source\PSoC4/I2CS.c **** #elif (I2CS_SCB_MODE_UART_CONST_CFG)
 471:.\Generated_Source\PSoC4/I2CS.c ****     I2CS_UartStop();
 472:.\Generated_Source\PSoC4/I2CS.c **** 
 473:.\Generated_Source\PSoC4/I2CS.c **** #else
ARM GAS  C:\Users\LUKASC~1\AppData\Local\Temp\cc8rtAnn.s 			page 16


 474:.\Generated_Source\PSoC4/I2CS.c ****     /* Unknown mode: do nothing */
 475:.\Generated_Source\PSoC4/I2CS.c **** #endif /* (I2CS_SCB_MODE_UNCONFIG_CONST_CFG) */
 476:.\Generated_Source\PSoC4/I2CS.c **** }
 383              		.loc 1 476 0
 384 0008 BD46     		mov	sp, r7
 385              		@ sp needed
 386 000a 80BD     		pop	{r7, pc}
 387              		.cfi_endproc
 388              	.LFE9:
 389              		.size	I2CS_ScbModeStop, .-I2CS_ScbModeStop
 390              		.section	.text.I2CS_I2CSlaveNackGeneration,"ax",%progbits
 391              		.align	2
 392              		.global	I2CS_I2CSlaveNackGeneration
 393              		.code	16
 394              		.thumb_func
 395              		.type	I2CS_I2CSlaveNackGeneration, %function
 396              	I2CS_I2CSlaveNackGeneration:
 397              	.LFB10:
 477:.\Generated_Source\PSoC4/I2CS.c **** 
 478:.\Generated_Source\PSoC4/I2CS.c **** 
 479:.\Generated_Source\PSoC4/I2CS.c **** #if (I2CS_SCB_MODE_UNCONFIG_CONST_CFG)
 480:.\Generated_Source\PSoC4/I2CS.c ****     /*******************************************************************************
 481:.\Generated_Source\PSoC4/I2CS.c ****     * Function Name: I2CS_SetPins
 482:.\Generated_Source\PSoC4/I2CS.c ****     ********************************************************************************
 483:.\Generated_Source\PSoC4/I2CS.c ****     *
 484:.\Generated_Source\PSoC4/I2CS.c ****     * Summary:
 485:.\Generated_Source\PSoC4/I2CS.c ****     *  Sets the pins settings accordingly to the selected operation mode.
 486:.\Generated_Source\PSoC4/I2CS.c ****     *  Only available in the Unconfigured operation mode. The mode specific
 487:.\Generated_Source\PSoC4/I2CS.c ****     *  initialization function calls it.
 488:.\Generated_Source\PSoC4/I2CS.c ****     *  Pins configuration is set by PSoC Creator when a specific mode of operation
 489:.\Generated_Source\PSoC4/I2CS.c ****     *  is selected in design time.
 490:.\Generated_Source\PSoC4/I2CS.c ****     *
 491:.\Generated_Source\PSoC4/I2CS.c ****     * Parameters:
 492:.\Generated_Source\PSoC4/I2CS.c ****     *  mode:      Mode of SCB operation.
 493:.\Generated_Source\PSoC4/I2CS.c ****     *  subMode:   Sub-mode of SCB operation. It is only required for SPI and UART
 494:.\Generated_Source\PSoC4/I2CS.c ****     *             modes.
 495:.\Generated_Source\PSoC4/I2CS.c ****     *  uartEnableMask: enables TX or RX direction and RTS and CTS signals.
 496:.\Generated_Source\PSoC4/I2CS.c ****     *
 497:.\Generated_Source\PSoC4/I2CS.c ****     * Return:
 498:.\Generated_Source\PSoC4/I2CS.c ****     *  None
 499:.\Generated_Source\PSoC4/I2CS.c ****     *
 500:.\Generated_Source\PSoC4/I2CS.c ****     *******************************************************************************/
 501:.\Generated_Source\PSoC4/I2CS.c ****     void I2CS_SetPins(uint32 mode, uint32 subMode, uint32 uartEnableMask)
 502:.\Generated_Source\PSoC4/I2CS.c ****     {
 503:.\Generated_Source\PSoC4/I2CS.c ****         uint32 hsiomSel [I2CS_SCB_PINS_NUMBER];
 504:.\Generated_Source\PSoC4/I2CS.c ****         uint32 pinsDm   [I2CS_SCB_PINS_NUMBER];
 505:.\Generated_Source\PSoC4/I2CS.c **** 
 506:.\Generated_Source\PSoC4/I2CS.c ****     #if (!I2CS_CY_SCBIP_V1)
 507:.\Generated_Source\PSoC4/I2CS.c ****         uint32 pinsInBuf = 0u;
 508:.\Generated_Source\PSoC4/I2CS.c ****     #endif /* (!I2CS_CY_SCBIP_V1) */
 509:.\Generated_Source\PSoC4/I2CS.c **** 
 510:.\Generated_Source\PSoC4/I2CS.c ****         uint32 i;
 511:.\Generated_Source\PSoC4/I2CS.c **** 
 512:.\Generated_Source\PSoC4/I2CS.c ****         /* Set default HSIOM to GPIO and Drive Mode to Analog Hi-Z */
 513:.\Generated_Source\PSoC4/I2CS.c ****         for (i = 0u; i < I2CS_SCB_PINS_NUMBER; i++)
 514:.\Generated_Source\PSoC4/I2CS.c ****         {
 515:.\Generated_Source\PSoC4/I2CS.c ****             hsiomSel[i]  = I2CS_HSIOM_DEF_SEL;
ARM GAS  C:\Users\LUKASC~1\AppData\Local\Temp\cc8rtAnn.s 			page 17


 516:.\Generated_Source\PSoC4/I2CS.c ****             pinsDm[i]    = I2CS_PIN_DM_ALG_HIZ;
 517:.\Generated_Source\PSoC4/I2CS.c ****         }
 518:.\Generated_Source\PSoC4/I2CS.c **** 
 519:.\Generated_Source\PSoC4/I2CS.c ****         if ((I2CS_SCB_MODE_I2C   == mode) ||
 520:.\Generated_Source\PSoC4/I2CS.c ****            (I2CS_SCB_MODE_EZI2C == mode))
 521:.\Generated_Source\PSoC4/I2CS.c ****         {
 522:.\Generated_Source\PSoC4/I2CS.c ****             hsiomSel[I2CS_RX_SCL_MOSI_PIN_INDEX] = I2CS_HSIOM_I2C_SEL;
 523:.\Generated_Source\PSoC4/I2CS.c ****             hsiomSel[I2CS_TX_SDA_MISO_PIN_INDEX] = I2CS_HSIOM_I2C_SEL;
 524:.\Generated_Source\PSoC4/I2CS.c **** 
 525:.\Generated_Source\PSoC4/I2CS.c ****             pinsDm[I2CS_RX_SCL_MOSI_PIN_INDEX] = I2CS_PIN_DM_OD_LO;
 526:.\Generated_Source\PSoC4/I2CS.c ****             pinsDm[I2CS_TX_SDA_MISO_PIN_INDEX] = I2CS_PIN_DM_OD_LO;
 527:.\Generated_Source\PSoC4/I2CS.c ****         }
 528:.\Generated_Source\PSoC4/I2CS.c ****     #if (!I2CS_CY_SCBIP_V1)
 529:.\Generated_Source\PSoC4/I2CS.c ****         else if (I2CS_SCB_MODE_SPI == mode)
 530:.\Generated_Source\PSoC4/I2CS.c ****         {
 531:.\Generated_Source\PSoC4/I2CS.c ****             hsiomSel[I2CS_RX_SCL_MOSI_PIN_INDEX] = I2CS_HSIOM_SPI_SEL;
 532:.\Generated_Source\PSoC4/I2CS.c ****             hsiomSel[I2CS_TX_SDA_MISO_PIN_INDEX] = I2CS_HSIOM_SPI_SEL;
 533:.\Generated_Source\PSoC4/I2CS.c ****             hsiomSel[I2CS_SCLK_PIN_INDEX] = I2CS_HSIOM_SPI_SEL;
 534:.\Generated_Source\PSoC4/I2CS.c **** 
 535:.\Generated_Source\PSoC4/I2CS.c ****             if (I2CS_SPI_SLAVE == subMode)
 536:.\Generated_Source\PSoC4/I2CS.c ****             {
 537:.\Generated_Source\PSoC4/I2CS.c ****                 /* Slave */
 538:.\Generated_Source\PSoC4/I2CS.c ****                 pinsDm[I2CS_RX_SCL_MOSI_PIN_INDEX] = I2CS_PIN_DM_DIG_HIZ;
 539:.\Generated_Source\PSoC4/I2CS.c ****                 pinsDm[I2CS_TX_SDA_MISO_PIN_INDEX] = I2CS_PIN_DM_STRONG;
 540:.\Generated_Source\PSoC4/I2CS.c ****                 pinsDm[I2CS_SCLK_PIN_INDEX] = I2CS_PIN_DM_DIG_HIZ;
 541:.\Generated_Source\PSoC4/I2CS.c **** 
 542:.\Generated_Source\PSoC4/I2CS.c ****             #if (I2CS_SS0_PIN)
 543:.\Generated_Source\PSoC4/I2CS.c ****                 /* Only SS0 is valid choice for Slave */
 544:.\Generated_Source\PSoC4/I2CS.c ****                 hsiomSel[I2CS_SS0_PIN_INDEX] = I2CS_HSIOM_SPI_SEL;
 545:.\Generated_Source\PSoC4/I2CS.c ****                 pinsDm  [I2CS_SS0_PIN_INDEX] = I2CS_PIN_DM_DIG_HIZ;
 546:.\Generated_Source\PSoC4/I2CS.c ****             #endif /* (I2CS_SS0_PIN) */
 547:.\Generated_Source\PSoC4/I2CS.c **** 
 548:.\Generated_Source\PSoC4/I2CS.c ****             #if (I2CS_TX_SDA_MISO_PIN)
 549:.\Generated_Source\PSoC4/I2CS.c ****                 /* Disable input buffer */
 550:.\Generated_Source\PSoC4/I2CS.c ****                  pinsInBuf |= I2CS_TX_SDA_MISO_PIN_MASK;
 551:.\Generated_Source\PSoC4/I2CS.c ****             #endif /* (I2CS_TX_SDA_MISO_PIN) */
 552:.\Generated_Source\PSoC4/I2CS.c ****             }
 553:.\Generated_Source\PSoC4/I2CS.c ****             else /* (Master) */
 554:.\Generated_Source\PSoC4/I2CS.c ****             {
 555:.\Generated_Source\PSoC4/I2CS.c ****                 pinsDm[I2CS_RX_SCL_MOSI_PIN_INDEX] = I2CS_PIN_DM_STRONG;
 556:.\Generated_Source\PSoC4/I2CS.c ****                 pinsDm[I2CS_TX_SDA_MISO_PIN_INDEX] = I2CS_PIN_DM_DIG_HIZ;
 557:.\Generated_Source\PSoC4/I2CS.c ****                 pinsDm[I2CS_SCLK_PIN_INDEX] = I2CS_PIN_DM_STRONG;
 558:.\Generated_Source\PSoC4/I2CS.c **** 
 559:.\Generated_Source\PSoC4/I2CS.c ****             #if (I2CS_SS0_PIN)
 560:.\Generated_Source\PSoC4/I2CS.c ****                 hsiomSel [I2CS_SS0_PIN_INDEX] = I2CS_HSIOM_SPI_SEL;
 561:.\Generated_Source\PSoC4/I2CS.c ****                 pinsDm   [I2CS_SS0_PIN_INDEX] = I2CS_PIN_DM_STRONG;
 562:.\Generated_Source\PSoC4/I2CS.c ****                 pinsInBuf |= I2CS_SS0_PIN_MASK;
 563:.\Generated_Source\PSoC4/I2CS.c ****             #endif /* (I2CS_SS0_PIN) */
 564:.\Generated_Source\PSoC4/I2CS.c **** 
 565:.\Generated_Source\PSoC4/I2CS.c ****             #if (I2CS_SS1_PIN)
 566:.\Generated_Source\PSoC4/I2CS.c ****                 hsiomSel [I2CS_SS1_PIN_INDEX] = I2CS_HSIOM_SPI_SEL;
 567:.\Generated_Source\PSoC4/I2CS.c ****                 pinsDm   [I2CS_SS1_PIN_INDEX] = I2CS_PIN_DM_STRONG;
 568:.\Generated_Source\PSoC4/I2CS.c ****                 pinsInBuf |= I2CS_SS1_PIN_MASK;
 569:.\Generated_Source\PSoC4/I2CS.c ****             #endif /* (I2CS_SS1_PIN) */
 570:.\Generated_Source\PSoC4/I2CS.c **** 
 571:.\Generated_Source\PSoC4/I2CS.c ****             #if (I2CS_SS2_PIN)
 572:.\Generated_Source\PSoC4/I2CS.c ****                 hsiomSel [I2CS_SS2_PIN_INDEX] = I2CS_HSIOM_SPI_SEL;
ARM GAS  C:\Users\LUKASC~1\AppData\Local\Temp\cc8rtAnn.s 			page 18


 573:.\Generated_Source\PSoC4/I2CS.c ****                 pinsDm   [I2CS_SS2_PIN_INDEX] = I2CS_PIN_DM_STRONG;
 574:.\Generated_Source\PSoC4/I2CS.c ****                 pinsInBuf |= I2CS_SS2_PIN_MASK;
 575:.\Generated_Source\PSoC4/I2CS.c ****             #endif /* (I2CS_SS2_PIN) */
 576:.\Generated_Source\PSoC4/I2CS.c **** 
 577:.\Generated_Source\PSoC4/I2CS.c ****             #if (I2CS_SS3_PIN)
 578:.\Generated_Source\PSoC4/I2CS.c ****                 hsiomSel [I2CS_SS3_PIN_INDEX] = I2CS_HSIOM_SPI_SEL;
 579:.\Generated_Source\PSoC4/I2CS.c ****                 pinsDm   [I2CS_SS3_PIN_INDEX] = I2CS_PIN_DM_STRONG;
 580:.\Generated_Source\PSoC4/I2CS.c ****                 pinsInBuf |= I2CS_SS3_PIN_MASK;
 581:.\Generated_Source\PSoC4/I2CS.c ****             #endif /* (I2CS_SS3_PIN) */
 582:.\Generated_Source\PSoC4/I2CS.c **** 
 583:.\Generated_Source\PSoC4/I2CS.c ****                 /* Disable input buffers */
 584:.\Generated_Source\PSoC4/I2CS.c ****             #if (I2CS_RX_SCL_MOSI_PIN)
 585:.\Generated_Source\PSoC4/I2CS.c ****                 pinsInBuf |= I2CS_RX_SCL_MOSI_PIN_MASK;
 586:.\Generated_Source\PSoC4/I2CS.c ****             #endif /* (I2CS_RX_SCL_MOSI_PIN) */
 587:.\Generated_Source\PSoC4/I2CS.c **** 
 588:.\Generated_Source\PSoC4/I2CS.c ****              #if (I2CS_RX_WAKE_SCL_MOSI_PIN)
 589:.\Generated_Source\PSoC4/I2CS.c ****                 pinsInBuf |= I2CS_RX_WAKE_SCL_MOSI_PIN_MASK;
 590:.\Generated_Source\PSoC4/I2CS.c ****             #endif /* (I2CS_RX_WAKE_SCL_MOSI_PIN) */
 591:.\Generated_Source\PSoC4/I2CS.c **** 
 592:.\Generated_Source\PSoC4/I2CS.c ****             #if (I2CS_SCLK_PIN)
 593:.\Generated_Source\PSoC4/I2CS.c ****                 pinsInBuf |= I2CS_SCLK_PIN_MASK;
 594:.\Generated_Source\PSoC4/I2CS.c ****             #endif /* (I2CS_SCLK_PIN) */
 595:.\Generated_Source\PSoC4/I2CS.c ****             }
 596:.\Generated_Source\PSoC4/I2CS.c ****         }
 597:.\Generated_Source\PSoC4/I2CS.c ****         else /* UART */
 598:.\Generated_Source\PSoC4/I2CS.c ****         {
 599:.\Generated_Source\PSoC4/I2CS.c ****             if (I2CS_UART_MODE_SMARTCARD == subMode)
 600:.\Generated_Source\PSoC4/I2CS.c ****             {
 601:.\Generated_Source\PSoC4/I2CS.c ****                 /* SmartCard */
 602:.\Generated_Source\PSoC4/I2CS.c ****                 hsiomSel[I2CS_TX_SDA_MISO_PIN_INDEX] = I2CS_HSIOM_UART_SEL;
 603:.\Generated_Source\PSoC4/I2CS.c ****                 pinsDm  [I2CS_TX_SDA_MISO_PIN_INDEX] = I2CS_PIN_DM_OD_LO;
 604:.\Generated_Source\PSoC4/I2CS.c ****             }
 605:.\Generated_Source\PSoC4/I2CS.c ****             else /* Standard or IrDA */
 606:.\Generated_Source\PSoC4/I2CS.c ****             {
 607:.\Generated_Source\PSoC4/I2CS.c ****                 if (0u != (I2CS_UART_RX_PIN_ENABLE & uartEnableMask))
 608:.\Generated_Source\PSoC4/I2CS.c ****                 {
 609:.\Generated_Source\PSoC4/I2CS.c ****                     hsiomSel[I2CS_RX_SCL_MOSI_PIN_INDEX] = I2CS_HSIOM_UART_SEL;
 610:.\Generated_Source\PSoC4/I2CS.c ****                     pinsDm  [I2CS_RX_SCL_MOSI_PIN_INDEX] = I2CS_PIN_DM_DIG_HIZ;
 611:.\Generated_Source\PSoC4/I2CS.c ****                 }
 612:.\Generated_Source\PSoC4/I2CS.c **** 
 613:.\Generated_Source\PSoC4/I2CS.c ****                 if (0u != (I2CS_UART_TX_PIN_ENABLE & uartEnableMask))
 614:.\Generated_Source\PSoC4/I2CS.c ****                 {
 615:.\Generated_Source\PSoC4/I2CS.c ****                     hsiomSel[I2CS_TX_SDA_MISO_PIN_INDEX] = I2CS_HSIOM_UART_SEL;
 616:.\Generated_Source\PSoC4/I2CS.c ****                     pinsDm  [I2CS_TX_SDA_MISO_PIN_INDEX] = I2CS_PIN_DM_STRONG;
 617:.\Generated_Source\PSoC4/I2CS.c **** 
 618:.\Generated_Source\PSoC4/I2CS.c ****                 #if (I2CS_TX_SDA_MISO_PIN)
 619:.\Generated_Source\PSoC4/I2CS.c ****                      pinsInBuf |= I2CS_TX_SDA_MISO_PIN_MASK;
 620:.\Generated_Source\PSoC4/I2CS.c ****                 #endif /* (I2CS_TX_SDA_MISO_PIN) */
 621:.\Generated_Source\PSoC4/I2CS.c ****                 }
 622:.\Generated_Source\PSoC4/I2CS.c **** 
 623:.\Generated_Source\PSoC4/I2CS.c ****             #if !(I2CS_CY_SCBIP_V0 || I2CS_CY_SCBIP_V1)
 624:.\Generated_Source\PSoC4/I2CS.c ****                 if (I2CS_UART_MODE_STD == subMode)
 625:.\Generated_Source\PSoC4/I2CS.c ****                 {
 626:.\Generated_Source\PSoC4/I2CS.c ****                     if (0u != (I2CS_UART_CTS_PIN_ENABLE & uartEnableMask))
 627:.\Generated_Source\PSoC4/I2CS.c ****                     {
 628:.\Generated_Source\PSoC4/I2CS.c ****                         /* CTS input is multiplexed with SCLK */
 629:.\Generated_Source\PSoC4/I2CS.c ****                         hsiomSel[I2CS_SCLK_PIN_INDEX] = I2CS_HSIOM_UART_SEL;
ARM GAS  C:\Users\LUKASC~1\AppData\Local\Temp\cc8rtAnn.s 			page 19


 630:.\Generated_Source\PSoC4/I2CS.c ****                         pinsDm  [I2CS_SCLK_PIN_INDEX] = I2CS_PIN_DM_DIG_HIZ;
 631:.\Generated_Source\PSoC4/I2CS.c ****                     }
 632:.\Generated_Source\PSoC4/I2CS.c **** 
 633:.\Generated_Source\PSoC4/I2CS.c ****                     if (0u != (I2CS_UART_RTS_PIN_ENABLE & uartEnableMask))
 634:.\Generated_Source\PSoC4/I2CS.c ****                     {
 635:.\Generated_Source\PSoC4/I2CS.c ****                         /* RTS output is multiplexed with SS0 */
 636:.\Generated_Source\PSoC4/I2CS.c ****                         hsiomSel[I2CS_SS0_PIN_INDEX] = I2CS_HSIOM_UART_SEL;
 637:.\Generated_Source\PSoC4/I2CS.c ****                         pinsDm  [I2CS_SS0_PIN_INDEX] = I2CS_PIN_DM_STRONG;
 638:.\Generated_Source\PSoC4/I2CS.c **** 
 639:.\Generated_Source\PSoC4/I2CS.c ****                     #if (I2CS_SS0_PIN)
 640:.\Generated_Source\PSoC4/I2CS.c ****                         /* Disable input buffer */
 641:.\Generated_Source\PSoC4/I2CS.c ****                         pinsInBuf |= I2CS_SS0_PIN_MASK;
 642:.\Generated_Source\PSoC4/I2CS.c ****                     #endif /* (I2CS_SS0_PIN) */
 643:.\Generated_Source\PSoC4/I2CS.c ****                     }
 644:.\Generated_Source\PSoC4/I2CS.c ****                 }
 645:.\Generated_Source\PSoC4/I2CS.c ****             #endif /* !(I2CS_CY_SCBIP_V0 || I2CS_CY_SCBIP_V1) */
 646:.\Generated_Source\PSoC4/I2CS.c ****             }
 647:.\Generated_Source\PSoC4/I2CS.c ****         }
 648:.\Generated_Source\PSoC4/I2CS.c ****     #endif /* (!I2CS_CY_SCBIP_V1) */
 649:.\Generated_Source\PSoC4/I2CS.c **** 
 650:.\Generated_Source\PSoC4/I2CS.c ****     /* Configure pins: set HSIOM, DM and InputBufEnable */
 651:.\Generated_Source\PSoC4/I2CS.c ****     /* Note: the DR register settings do not effect the pin output if HSIOM is other than GPIO */
 652:.\Generated_Source\PSoC4/I2CS.c **** 
 653:.\Generated_Source\PSoC4/I2CS.c ****     #if (I2CS_RX_WAKE_SCL_MOSI_PIN)
 654:.\Generated_Source\PSoC4/I2CS.c ****         I2CS_SET_HSIOM_SEL(I2CS_RX_WAKE_SCL_MOSI_HSIOM_REG,
 655:.\Generated_Source\PSoC4/I2CS.c ****                                        I2CS_RX_WAKE_SCL_MOSI_HSIOM_MASK,
 656:.\Generated_Source\PSoC4/I2CS.c ****                                        I2CS_RX_WAKE_SCL_MOSI_HSIOM_POS,
 657:.\Generated_Source\PSoC4/I2CS.c ****                                        hsiomSel[I2CS_RX_WAKE_SCL_MOSI_PIN_INDEX]);
 658:.\Generated_Source\PSoC4/I2CS.c **** 
 659:.\Generated_Source\PSoC4/I2CS.c ****         I2CS_uart_rx_wake_i2c_scl_spi_mosi_SetDriveMode((uint8)
 660:.\Generated_Source\PSoC4/I2CS.c ****                                                                pinsDm[I2CS_RX_WAKE_SCL_MOSI_PIN_IND
 661:.\Generated_Source\PSoC4/I2CS.c **** 
 662:.\Generated_Source\PSoC4/I2CS.c ****         I2CS_SET_INP_DIS(I2CS_uart_rx_wake_i2c_scl_spi_mosi_INP_DIS,
 663:.\Generated_Source\PSoC4/I2CS.c ****                                      I2CS_uart_rx_wake_i2c_scl_spi_mosi_MASK,
 664:.\Generated_Source\PSoC4/I2CS.c ****                                      (0u != (pinsInBuf & I2CS_RX_WAKE_SCL_MOSI_PIN_MASK)));
 665:.\Generated_Source\PSoC4/I2CS.c **** 
 666:.\Generated_Source\PSoC4/I2CS.c ****          /* Set interrupt on falling edge */
 667:.\Generated_Source\PSoC4/I2CS.c ****         I2CS_SET_INCFG_TYPE(I2CS_RX_WAKE_SCL_MOSI_INTCFG_REG,
 668:.\Generated_Source\PSoC4/I2CS.c ****                                         I2CS_RX_WAKE_SCL_MOSI_INTCFG_TYPE_MASK,
 669:.\Generated_Source\PSoC4/I2CS.c ****                                         I2CS_RX_WAKE_SCL_MOSI_INTCFG_TYPE_POS,
 670:.\Generated_Source\PSoC4/I2CS.c ****                                         I2CS_INTCFG_TYPE_FALLING_EDGE);
 671:.\Generated_Source\PSoC4/I2CS.c ****     #endif /* (I2CS_RX_WAKE_SCL_MOSI_PIN) */
 672:.\Generated_Source\PSoC4/I2CS.c **** 
 673:.\Generated_Source\PSoC4/I2CS.c ****     #if (I2CS_RX_SCL_MOSI_PIN)
 674:.\Generated_Source\PSoC4/I2CS.c ****         I2CS_SET_HSIOM_SEL(I2CS_RX_SCL_MOSI_HSIOM_REG,
 675:.\Generated_Source\PSoC4/I2CS.c ****                                        I2CS_RX_SCL_MOSI_HSIOM_MASK,
 676:.\Generated_Source\PSoC4/I2CS.c ****                                        I2CS_RX_SCL_MOSI_HSIOM_POS,
 677:.\Generated_Source\PSoC4/I2CS.c ****                                         hsiomSel[I2CS_RX_SCL_MOSI_PIN_INDEX]);
 678:.\Generated_Source\PSoC4/I2CS.c **** 
 679:.\Generated_Source\PSoC4/I2CS.c ****         I2CS_uart_rx_i2c_scl_spi_mosi_SetDriveMode((uint8) pinsDm[I2CS_RX_SCL_MOSI_PIN_INDEX]);
 680:.\Generated_Source\PSoC4/I2CS.c **** 
 681:.\Generated_Source\PSoC4/I2CS.c ****     #if (!I2CS_CY_SCBIP_V1)
 682:.\Generated_Source\PSoC4/I2CS.c ****         I2CS_SET_INP_DIS(I2CS_uart_rx_i2c_scl_spi_mosi_INP_DIS,
 683:.\Generated_Source\PSoC4/I2CS.c ****                                      I2CS_uart_rx_i2c_scl_spi_mosi_MASK,
 684:.\Generated_Source\PSoC4/I2CS.c ****                                      (0u != (pinsInBuf & I2CS_RX_SCL_MOSI_PIN_MASK)));
 685:.\Generated_Source\PSoC4/I2CS.c ****     #endif /* (!I2CS_CY_SCBIP_V1) */
 686:.\Generated_Source\PSoC4/I2CS.c ****     #endif /* (I2CS_RX_SCL_MOSI_PIN) */
ARM GAS  C:\Users\LUKASC~1\AppData\Local\Temp\cc8rtAnn.s 			page 20


 687:.\Generated_Source\PSoC4/I2CS.c **** 
 688:.\Generated_Source\PSoC4/I2CS.c ****     #if (I2CS_TX_SDA_MISO_PIN)
 689:.\Generated_Source\PSoC4/I2CS.c ****         I2CS_SET_HSIOM_SEL(I2CS_TX_SDA_MISO_HSIOM_REG,
 690:.\Generated_Source\PSoC4/I2CS.c ****                                        I2CS_TX_SDA_MISO_HSIOM_MASK,
 691:.\Generated_Source\PSoC4/I2CS.c ****                                        I2CS_TX_SDA_MISO_HSIOM_POS,
 692:.\Generated_Source\PSoC4/I2CS.c ****                                         hsiomSel[I2CS_TX_SDA_MISO_PIN_INDEX]);
 693:.\Generated_Source\PSoC4/I2CS.c **** 
 694:.\Generated_Source\PSoC4/I2CS.c ****         I2CS_uart_tx_i2c_sda_spi_miso_SetDriveMode((uint8) pinsDm[I2CS_TX_SDA_MISO_PIN_INDEX]);
 695:.\Generated_Source\PSoC4/I2CS.c **** 
 696:.\Generated_Source\PSoC4/I2CS.c ****     #if (!I2CS_CY_SCBIP_V1)
 697:.\Generated_Source\PSoC4/I2CS.c ****         I2CS_SET_INP_DIS(I2CS_uart_tx_i2c_sda_spi_miso_INP_DIS,
 698:.\Generated_Source\PSoC4/I2CS.c ****                                      I2CS_uart_tx_i2c_sda_spi_miso_MASK,
 699:.\Generated_Source\PSoC4/I2CS.c ****                                     (0u != (pinsInBuf & I2CS_TX_SDA_MISO_PIN_MASK)));
 700:.\Generated_Source\PSoC4/I2CS.c ****     #endif /* (!I2CS_CY_SCBIP_V1) */
 701:.\Generated_Source\PSoC4/I2CS.c ****     #endif /* (I2CS_RX_SCL_MOSI_PIN) */
 702:.\Generated_Source\PSoC4/I2CS.c **** 
 703:.\Generated_Source\PSoC4/I2CS.c ****     #if (I2CS_SCLK_PIN)
 704:.\Generated_Source\PSoC4/I2CS.c ****         I2CS_SET_HSIOM_SEL(I2CS_SCLK_HSIOM_REG,
 705:.\Generated_Source\PSoC4/I2CS.c ****                                        I2CS_SCLK_HSIOM_MASK,
 706:.\Generated_Source\PSoC4/I2CS.c ****                                        I2CS_SCLK_HSIOM_POS,
 707:.\Generated_Source\PSoC4/I2CS.c ****                                        hsiomSel[I2CS_SCLK_PIN_INDEX]);
 708:.\Generated_Source\PSoC4/I2CS.c **** 
 709:.\Generated_Source\PSoC4/I2CS.c ****         I2CS_spi_sclk_SetDriveMode((uint8) pinsDm[I2CS_SCLK_PIN_INDEX]);
 710:.\Generated_Source\PSoC4/I2CS.c **** 
 711:.\Generated_Source\PSoC4/I2CS.c ****         I2CS_SET_INP_DIS(I2CS_spi_sclk_INP_DIS,
 712:.\Generated_Source\PSoC4/I2CS.c ****                                      I2CS_spi_sclk_MASK,
 713:.\Generated_Source\PSoC4/I2CS.c ****                                      (0u != (pinsInBuf & I2CS_SCLK_PIN_MASK)));
 714:.\Generated_Source\PSoC4/I2CS.c ****     #endif /* (I2CS_SCLK_PIN) */
 715:.\Generated_Source\PSoC4/I2CS.c **** 
 716:.\Generated_Source\PSoC4/I2CS.c ****     #if (I2CS_SS0_PIN)
 717:.\Generated_Source\PSoC4/I2CS.c ****         I2CS_SET_HSIOM_SEL(I2CS_SS0_HSIOM_REG,
 718:.\Generated_Source\PSoC4/I2CS.c ****                                        I2CS_SS0_HSIOM_MASK,
 719:.\Generated_Source\PSoC4/I2CS.c ****                                        I2CS_SS0_HSIOM_POS,
 720:.\Generated_Source\PSoC4/I2CS.c ****                                        hsiomSel[I2CS_SS0_PIN_INDEX]);
 721:.\Generated_Source\PSoC4/I2CS.c **** 
 722:.\Generated_Source\PSoC4/I2CS.c ****         I2CS_spi_ss0_SetDriveMode((uint8) pinsDm[I2CS_SS0_PIN_INDEX]);
 723:.\Generated_Source\PSoC4/I2CS.c **** 
 724:.\Generated_Source\PSoC4/I2CS.c ****         I2CS_SET_INP_DIS(I2CS_spi_ss0_INP_DIS,
 725:.\Generated_Source\PSoC4/I2CS.c ****                                      I2CS_spi_ss0_MASK,
 726:.\Generated_Source\PSoC4/I2CS.c ****                                      (0u != (pinsInBuf & I2CS_SS0_PIN_MASK)));
 727:.\Generated_Source\PSoC4/I2CS.c ****     #endif /* (I2CS_SS0_PIN) */
 728:.\Generated_Source\PSoC4/I2CS.c **** 
 729:.\Generated_Source\PSoC4/I2CS.c ****     #if (I2CS_SS1_PIN)
 730:.\Generated_Source\PSoC4/I2CS.c ****         I2CS_SET_HSIOM_SEL(I2CS_SS1_HSIOM_REG,
 731:.\Generated_Source\PSoC4/I2CS.c ****                                        I2CS_SS1_HSIOM_MASK,
 732:.\Generated_Source\PSoC4/I2CS.c ****                                        I2CS_SS1_HSIOM_POS,
 733:.\Generated_Source\PSoC4/I2CS.c ****                                        hsiomSel[I2CS_SS1_PIN_INDEX]);
 734:.\Generated_Source\PSoC4/I2CS.c **** 
 735:.\Generated_Source\PSoC4/I2CS.c ****         I2CS_spi_ss1_SetDriveMode((uint8) pinsDm[I2CS_SS1_PIN_INDEX]);
 736:.\Generated_Source\PSoC4/I2CS.c **** 
 737:.\Generated_Source\PSoC4/I2CS.c ****         I2CS_SET_INP_DIS(I2CS_spi_ss1_INP_DIS,
 738:.\Generated_Source\PSoC4/I2CS.c ****                                      I2CS_spi_ss1_MASK,
 739:.\Generated_Source\PSoC4/I2CS.c ****                                      (0u != (pinsInBuf & I2CS_SS1_PIN_MASK)));
 740:.\Generated_Source\PSoC4/I2CS.c ****     #endif /* (I2CS_SS1_PIN) */
 741:.\Generated_Source\PSoC4/I2CS.c **** 
 742:.\Generated_Source\PSoC4/I2CS.c ****     #if (I2CS_SS2_PIN)
 743:.\Generated_Source\PSoC4/I2CS.c ****         I2CS_SET_HSIOM_SEL(I2CS_SS2_HSIOM_REG,
ARM GAS  C:\Users\LUKASC~1\AppData\Local\Temp\cc8rtAnn.s 			page 21


 744:.\Generated_Source\PSoC4/I2CS.c ****                                        I2CS_SS2_HSIOM_MASK,
 745:.\Generated_Source\PSoC4/I2CS.c ****                                        I2CS_SS2_HSIOM_POS,
 746:.\Generated_Source\PSoC4/I2CS.c ****                                        hsiomSel[I2CS_SS2_PIN_INDEX]);
 747:.\Generated_Source\PSoC4/I2CS.c **** 
 748:.\Generated_Source\PSoC4/I2CS.c ****         I2CS_spi_ss2_SetDriveMode((uint8) pinsDm[I2CS_SS2_PIN_INDEX]);
 749:.\Generated_Source\PSoC4/I2CS.c **** 
 750:.\Generated_Source\PSoC4/I2CS.c ****         I2CS_SET_INP_DIS(I2CS_spi_ss2_INP_DIS,
 751:.\Generated_Source\PSoC4/I2CS.c ****                                      I2CS_spi_ss2_MASK,
 752:.\Generated_Source\PSoC4/I2CS.c ****                                      (0u != (pinsInBuf & I2CS_SS2_PIN_MASK)));
 753:.\Generated_Source\PSoC4/I2CS.c ****     #endif /* (I2CS_SS2_PIN) */
 754:.\Generated_Source\PSoC4/I2CS.c **** 
 755:.\Generated_Source\PSoC4/I2CS.c ****     #if (I2CS_SS3_PIN)
 756:.\Generated_Source\PSoC4/I2CS.c ****         I2CS_SET_HSIOM_SEL(I2CS_SS3_HSIOM_REG,
 757:.\Generated_Source\PSoC4/I2CS.c ****                                        I2CS_SS3_HSIOM_MASK,
 758:.\Generated_Source\PSoC4/I2CS.c ****                                        I2CS_SS3_HSIOM_POS,
 759:.\Generated_Source\PSoC4/I2CS.c ****                                        hsiomSel[I2CS_SS3_PIN_INDEX]);
 760:.\Generated_Source\PSoC4/I2CS.c **** 
 761:.\Generated_Source\PSoC4/I2CS.c ****         I2CS_spi_ss3_SetDriveMode((uint8) pinsDm[I2CS_SS3_PIN_INDEX]);
 762:.\Generated_Source\PSoC4/I2CS.c **** 
 763:.\Generated_Source\PSoC4/I2CS.c ****         I2CS_SET_INP_DIS(I2CS_spi_ss3_INP_DIS,
 764:.\Generated_Source\PSoC4/I2CS.c ****                                      I2CS_spi_ss3_MASK,
 765:.\Generated_Source\PSoC4/I2CS.c ****                                      (0u != (pinsInBuf & I2CS_SS3_PIN_MASK)));
 766:.\Generated_Source\PSoC4/I2CS.c ****     #endif /* (I2CS_SS3_PIN) */
 767:.\Generated_Source\PSoC4/I2CS.c ****     }
 768:.\Generated_Source\PSoC4/I2CS.c **** 
 769:.\Generated_Source\PSoC4/I2CS.c **** #endif /* (I2CS_SCB_MODE_UNCONFIG_CONST_CFG) */
 770:.\Generated_Source\PSoC4/I2CS.c **** 
 771:.\Generated_Source\PSoC4/I2CS.c **** 
 772:.\Generated_Source\PSoC4/I2CS.c **** #if (I2CS_CY_SCBIP_V0 || I2CS_CY_SCBIP_V1)
 773:.\Generated_Source\PSoC4/I2CS.c ****     /*******************************************************************************
 774:.\Generated_Source\PSoC4/I2CS.c ****     * Function Name: I2CS_I2CSlaveNackGeneration
 775:.\Generated_Source\PSoC4/I2CS.c ****     ********************************************************************************
 776:.\Generated_Source\PSoC4/I2CS.c ****     *
 777:.\Generated_Source\PSoC4/I2CS.c ****     * Summary:
 778:.\Generated_Source\PSoC4/I2CS.c ****     *  Sets command to generate NACK to the address or data.
 779:.\Generated_Source\PSoC4/I2CS.c ****     *
 780:.\Generated_Source\PSoC4/I2CS.c ****     * Parameters:
 781:.\Generated_Source\PSoC4/I2CS.c ****     *  None
 782:.\Generated_Source\PSoC4/I2CS.c ****     *
 783:.\Generated_Source\PSoC4/I2CS.c ****     * Return:
 784:.\Generated_Source\PSoC4/I2CS.c ****     *  None
 785:.\Generated_Source\PSoC4/I2CS.c ****     *
 786:.\Generated_Source\PSoC4/I2CS.c ****     *******************************************************************************/
 787:.\Generated_Source\PSoC4/I2CS.c ****     void I2CS_I2CSlaveNackGeneration(void)
 788:.\Generated_Source\PSoC4/I2CS.c ****     {
 398              		.loc 1 788 0
 399              		.cfi_startproc
 400 0000 80B5     		push	{r7, lr}
 401              		.cfi_def_cfa_offset 8
 402              		.cfi_offset 7, -8
 403              		.cfi_offset 14, -4
 404 0002 00AF     		add	r7, sp, #0
 405              		.cfi_def_cfa_register 7
 789:.\Generated_Source\PSoC4/I2CS.c ****         /* Check for EC_AM toggle condition: EC_AM and clock stretching for address are enabled */
 790:.\Generated_Source\PSoC4/I2CS.c ****         if ((0u != (I2CS_CTRL_REG & I2CS_CTRL_EC_AM_MODE)) &&
 406              		.loc 1 790 0
 407 0004 0E4B     		ldr	r3, .L26
ARM GAS  C:\Users\LUKASC~1\AppData\Local\Temp\cc8rtAnn.s 			page 22


 408 0006 1A68     		ldr	r2, [r3]
 409 0008 8023     		mov	r3, #128
 410 000a 5B00     		lsl	r3, r3, #1
 411 000c 1340     		and	r3, r2
 412 000e 12D0     		beq	.L25
 791:.\Generated_Source\PSoC4/I2CS.c ****             (0u == (I2CS_I2C_CTRL_REG & I2CS_I2C_CTRL_S_NOT_READY_ADDR_NACK)))
 413              		.loc 1 791 0 discriminator 1
 414 0010 0C4B     		ldr	r3, .L26+4
 415 0012 1A68     		ldr	r2, [r3]
 416 0014 8023     		mov	r3, #128
 417 0016 DB01     		lsl	r3, r3, #7
 418 0018 1340     		and	r3, r2
 790:.\Generated_Source\PSoC4/I2CS.c ****             (0u == (I2CS_I2C_CTRL_REG & I2CS_I2C_CTRL_S_NOT_READY_ADDR_NACK)))
 419              		.loc 1 790 0 discriminator 1
 420 001a 0CD1     		bne	.L25
 792:.\Generated_Source\PSoC4/I2CS.c ****         {
 793:.\Generated_Source\PSoC4/I2CS.c ****             /* Toggle EC_AM before NACK generation */
 794:.\Generated_Source\PSoC4/I2CS.c ****             I2CS_CTRL_REG &= ~I2CS_CTRL_EC_AM_MODE;
 421              		.loc 1 794 0
 422 001c 084B     		ldr	r3, .L26
 423 001e 084A     		ldr	r2, .L26
 424 0020 1268     		ldr	r2, [r2]
 425 0022 0949     		ldr	r1, .L26+8
 426 0024 0A40     		and	r2, r1
 427 0026 1A60     		str	r2, [r3]
 795:.\Generated_Source\PSoC4/I2CS.c ****             I2CS_CTRL_REG |=  I2CS_CTRL_EC_AM_MODE;
 428              		.loc 1 795 0
 429 0028 054B     		ldr	r3, .L26
 430 002a 054A     		ldr	r2, .L26
 431 002c 1268     		ldr	r2, [r2]
 432 002e 8021     		mov	r1, #128
 433 0030 4900     		lsl	r1, r1, #1
 434 0032 0A43     		orr	r2, r1
 435 0034 1A60     		str	r2, [r3]
 436              	.L25:
 796:.\Generated_Source\PSoC4/I2CS.c ****         }
 797:.\Generated_Source\PSoC4/I2CS.c **** 
 798:.\Generated_Source\PSoC4/I2CS.c ****         I2CS_I2C_SLAVE_CMD_REG = I2CS_I2C_SLAVE_CMD_S_NACK;
 437              		.loc 1 798 0
 438 0036 054B     		ldr	r3, .L26+12
 439 0038 0222     		mov	r2, #2
 440 003a 1A60     		str	r2, [r3]
 799:.\Generated_Source\PSoC4/I2CS.c ****     }
 441              		.loc 1 799 0
 442 003c BD46     		mov	sp, r7
 443              		@ sp needed
 444 003e 80BD     		pop	{r7, pc}
 445              	.L27:
 446              		.align	2
 447              	.L26:
 448 0040 00000740 		.word	1074200576
 449 0044 60000740 		.word	1074200672
 450 0048 FFFEFFFF 		.word	-257
 451 004c 6C000740 		.word	1074200684
 452              		.cfi_endproc
 453              	.LFE10:
 454              		.size	I2CS_I2CSlaveNackGeneration, .-I2CS_I2CSlaveNackGeneration
ARM GAS  C:\Users\LUKASC~1\AppData\Local\Temp\cc8rtAnn.s 			page 23


 455              		.text
 456              	.Letext0:
 457              		.file 2 "Generated_Source\\PSoC4/cytypes.h"