ARM GAS  C:\Users\LUKASC~1\AppData\Local\Temp\cc21YZZV.s 			page 1


   1              		.cpu cortex-m0
   2              		.fpu softvfp
   3              		.eabi_attribute 20, 1
   4              		.eabi_attribute 21, 1
   5              		.eabi_attribute 23, 3
   6              		.eabi_attribute 24, 1
   7              		.eabi_attribute 25, 1
   8              		.eabi_attribute 26, 1
   9              		.eabi_attribute 30, 6
  10              		.eabi_attribute 34, 0
  11              		.eabi_attribute 18, 4
  12              		.code	16
  13              		.file	"main.c"
  14              		.text
  15              	.Ltext0:
  16              		.cfi_sections	.debug_frame
  17              		.global	i2cReadBuffer
  18              		.data
  19              		.align	2
  20              		.type	i2cReadBuffer, %object
  21              		.size	i2cReadBuffer, 3
  22              	i2cReadBuffer:
  23 0000 01       		.byte	1
  24 0001 FF       		.byte	-1
  25 0002 17       		.byte	23
  26              		.comm	i2cWriteBuffer,3,4
  27 0003 00       		.section	.text.main,"ax",%progbits
  28              		.align	2
  29              		.global	main
  30              		.code	16
  31              		.thumb_func
  32              		.type	main, %function
  33              	main:
  34              	.LFB34:
  35              		.file 1 ".\\main.c"
   1:.\main.c      **** /*******************************************************************************
   2:.\main.c      **** * File Name: main.c
   3:.\main.c      **** *
   4:.\main.c      **** * Version: 1.20
   5:.\main.c      **** *
   6:.\main.c      **** * Description:
   7:.\main.c      **** *  This example project demonstrates the basic operation of the I2C slave
   8:.\main.c      **** *  (SCB mode) component. The I2C slave accepts a packet with a command from
   9:.\main.c      **** *  the I2C master to control the RGB LED color. The I2C slave updates its
  10:.\main.c      **** *  buffer with a status packet in response to the accepted command.
  11:.\main.c      **** *  For more information refer to the example project datasheet.
  12:.\main.c      **** *
  13:.\main.c      **** ********************************************************************************
  14:.\main.c      **** * Copyright 2014-2015, Cypress Semiconductor Corporation. All rights reserved.
  15:.\main.c      **** * This software is owned by Cypress Semiconductor Corporation and is protected
  16:.\main.c      **** * by and subject to worldwide patent and copyright laws and treaties.
  17:.\main.c      **** * Therefore, you may use this software only as provided in the license agreement
  18:.\main.c      **** * accompanying the software package from which you obtained this software.
  19:.\main.c      **** * CYPRESS AND ITS SUPPLIERS MAKE NO WARRANTY OF ANY KIND, EXPRESS OR IMPLIED,
  20:.\main.c      **** * WITH REGARD TO THIS SOFTWARE, INCLUDING, BUT NOT LIMITED TO, NONINFRINGEMENT,
  21:.\main.c      **** * IMPLIED WARRANTIES OF MERCHANTABILITY AND FITNESS FOR A PARTICULAR PURPOSE.
  22:.\main.c      **** *******************************************************************************/
ARM GAS  C:\Users\LUKASC~1\AppData\Local\Temp\cc21YZZV.s 			page 2


  23:.\main.c      **** 
  24:.\main.c      **** #include <main.h>
  25:.\main.c      **** #include "uart.h"
  26:.\main.c      **** 
  27:.\main.c      **** /* I2C slave read and write buffers */
  28:.\main.c      **** uint8 i2cReadBuffer [BUFFER_SIZE] = {PACKET_SOP, STS_CMD_FAIL, PACKET_EOP};
  29:.\main.c      **** uint8 i2cWriteBuffer[BUFFER_SIZE];
  30:.\main.c      **** 
  31:.\main.c      **** 
  32:.\main.c      **** /*******************************************************************************
  33:.\main.c      **** * Function Name: main
  34:.\main.c      **** ********************************************************************************
  35:.\main.c      **** * Summary:
  36:.\main.c      **** *  Main function performs following actions:
  37:.\main.c      **** *   1. Turns off status RGB LED
  38:.\main.c      **** *   2. Sets up I2C slave write and read buffers.
  39:.\main.c      **** *   3. Starts I2C slave (SCB mode) component.
  40:.\main.c      **** *   4. Enables global interrupts.
  41:.\main.c      **** *   5. Waits for command from the I2C master to control the RGB LED.
  42:.\main.c      **** *
  43:.\main.c      **** * Parameters:
  44:.\main.c      **** *  None
  45:.\main.c      **** *
  46:.\main.c      **** * Return:
  47:.\main.c      **** *  None
  48:.\main.c      **** *
  49:.\main.c      **** *******************************************************************************/
  50:.\main.c      **** int main()
  51:.\main.c      **** {
  36              		.loc 1 51 0
  37              		.cfi_startproc
  38 0000 90B5     		push	{r4, r7, lr}
  39              		.cfi_def_cfa_offset 12
  40              		.cfi_offset 4, -12
  41              		.cfi_offset 7, -8
  42              		.cfi_offset 14, -4
  43 0002 83B0     		sub	sp, sp, #12
  44              		.cfi_def_cfa_offset 24
  45 0004 00AF     		add	r7, sp, #0
  46              		.cfi_def_cfa_register 7
  52:.\main.c      ****     uint8 status = STS_CMD_FAIL;
  47              		.loc 1 52 0
  48 0006 FB1D     		add	r3, r7, #7
  49 0008 FF22     		mov	r2, #255
  50 000a 1A70     		strb	r2, [r3]
  53:.\main.c      **** 
  54:.\main.c      ****     /* Start I2C slave (SCB mode) */
  55:.\main.c      ****     I2CS_I2CSlaveInitReadBuf (i2cReadBuffer,  BUFFER_SIZE);
  51              		.loc 1 55 0
  52 000c 1F4B     		ldr	r3, .L6
  53 000e 181C     		mov	r0, r3
  54 0010 0321     		mov	r1, #3
  55 0012 FFF7FEFF 		bl	I2CS_I2CSlaveInitReadBuf
  56:.\main.c      ****     I2CS_I2CSlaveInitWriteBuf(i2cWriteBuffer, BUFFER_SIZE);
  56              		.loc 1 56 0
  57 0016 1E4B     		ldr	r3, .L6+4
  58 0018 181C     		mov	r0, r3
ARM GAS  C:\Users\LUKASC~1\AppData\Local\Temp\cc21YZZV.s 			page 3


  59 001a 0321     		mov	r1, #3
  60 001c FFF7FEFF 		bl	I2CS_I2CSlaveInitWriteBuf
  57:.\main.c      ****     I2CS_Start();
  61              		.loc 1 57 0
  62 0020 FFF7FEFF 		bl	I2CS_Start
  58:.\main.c      ****     UARTInit();
  63              		.loc 1 58 0
  64 0024 FFF7FEFF 		bl	UARTInit
  59:.\main.c      **** 
  60:.\main.c      ****     CyGlobalIntEnable;
  65              		.loc 1 60 0
  66              	@ 60 ".\main.c" 1
  67 0028 62B6     		CPSIE   i
  68              	@ 0 "" 2
  69              		.code	16
  70              	.L5:
  61:.\main.c      **** 
  62:.\main.c      ****     /***************************************************************************
  63:.\main.c      ****     * Main polling loop
  64:.\main.c      ****     ***************************************************************************/
  65:.\main.c      ****     for (;;)
  66:.\main.c      ****     {
  67:.\main.c      ****         /* Write complete: parse command packet */
  68:.\main.c      ****         if (0u != (I2CS_I2CSlaveStatus() & I2CS_I2C_SSTAT_WR_CMPLT))
  71              		.loc 1 68 0
  72 002a FFF7FEFF 		bl	I2CS_I2CSlaveStatus
  73 002e 021C     		mov	r2, r0
  74 0030 1023     		mov	r3, #16
  75 0032 1340     		and	r3, r2
  76 0034 1FD0     		beq	.L2
  69:.\main.c      ****         {
  70:.\main.c      ****             /* Check packet length */
  71:.\main.c      ****             if (PACKET_SIZE == I2CS_I2CSlaveGetWriteBufSize())
  77              		.loc 1 71 0
  78 0036 FFF7FEFF 		bl	I2CS_I2CSlaveGetWriteBufSize
  79 003a 031E     		sub	r3, r0, #0
  80 003c 032B     		cmp	r3, #3
  81 003e 0FD1     		bne	.L3
  72:.\main.c      ****             {
  73:.\main.c      ****                 /* Check start and end of packet markers */
  74:.\main.c      ****                 if ((i2cWriteBuffer[PACKET_SOP_POS] == PACKET_SOP) &&
  82              		.loc 1 74 0
  83 0040 134B     		ldr	r3, .L6+4
  84 0042 1B78     		ldrb	r3, [r3]
  85 0044 012B     		cmp	r3, #1
  86 0046 0BD1     		bne	.L3
  75:.\main.c      ****                     (i2cWriteBuffer[PACKET_EOP_POS] == PACKET_EOP))
  87              		.loc 1 75 0 discriminator 1
  88 0048 114B     		ldr	r3, .L6+4
  89 004a 9B78     		ldrb	r3, [r3, #2]
  74:.\main.c      ****                     (i2cWriteBuffer[PACKET_EOP_POS] == PACKET_EOP))
  90              		.loc 1 74 0 discriminator 1
  91 004c 172B     		cmp	r3, #23
  92 004e 07D1     		bne	.L3
  76:.\main.c      ****                 {
  77:.\main.c      ****                     status = ExecuteCommand(i2cWriteBuffer[PACKET_CMD_POS]);
  93              		.loc 1 77 0
ARM GAS  C:\Users\LUKASC~1\AppData\Local\Temp\cc21YZZV.s 			page 4


  94 0050 0F4B     		ldr	r3, .L6+4
  95 0052 5B78     		ldrb	r3, [r3, #1]
  96 0054 FC1D     		add	r4, r7, #7
  97 0056 181C     		mov	r0, r3
  98 0058 FFF7FEFF 		bl	ExecuteCommand
  99 005c 031C     		mov	r3, r0
 100 005e 2370     		strb	r3, [r4]
 101              	.L3:
  78:.\main.c      ****                 }
  79:.\main.c      ****             }
  80:.\main.c      **** 
  81:.\main.c      ****             /* Clear slave write buffer and status */
  82:.\main.c      ****             I2CS_I2CSlaveClearWriteBuf();
 102              		.loc 1 82 0
 103 0060 FFF7FEFF 		bl	I2CS_I2CSlaveClearWriteBuf
  83:.\main.c      ****             (void) I2CS_I2CSlaveClearWriteStatus();
 104              		.loc 1 83 0
 105 0064 FFF7FEFF 		bl	I2CS_I2CSlaveClearWriteStatus
  84:.\main.c      **** 
  85:.\main.c      ****             /* Update read buffer */
  86:.\main.c      ****             i2cReadBuffer[PACKET_STS_POS] = status;
 106              		.loc 1 86 0
 107 0068 084B     		ldr	r3, .L6
 108 006a FA1D     		add	r2, r7, #7
 109 006c 1278     		ldrb	r2, [r2]
 110 006e 5A70     		strb	r2, [r3, #1]
  87:.\main.c      ****             status = STS_CMD_FAIL;
 111              		.loc 1 87 0
 112 0070 FB1D     		add	r3, r7, #7
 113 0072 FF22     		mov	r2, #255
 114 0074 1A70     		strb	r2, [r3]
 115              	.L2:
  88:.\main.c      ****         }
  89:.\main.c      **** 
  90:.\main.c      ****         /* Read complete: expose buffer to master */
  91:.\main.c      ****         if (0u != (I2CS_I2CSlaveStatus() & I2CS_I2C_SSTAT_RD_CMPLT))
 116              		.loc 1 91 0
 117 0076 FFF7FEFF 		bl	I2CS_I2CSlaveStatus
 118 007a 021C     		mov	r2, r0
 119 007c 0123     		mov	r3, #1
 120 007e 1340     		and	r3, r2
 121 0080 03D0     		beq	.L4
  92:.\main.c      ****         {
  93:.\main.c      ****             /* Clear slave read buffer and status */
  94:.\main.c      ****             I2CS_I2CSlaveClearReadBuf();
 122              		.loc 1 94 0
 123 0082 FFF7FEFF 		bl	I2CS_I2CSlaveClearReadBuf
  95:.\main.c      ****             (void) I2CS_I2CSlaveClearReadStatus();
 124              		.loc 1 95 0
 125 0086 FFF7FEFF 		bl	I2CS_I2CSlaveClearReadStatus
 126              	.L4:
  96:.\main.c      ****         }
  97:.\main.c      ****     }
 127              		.loc 1 97 0
 128 008a CEE7     		b	.L5
 129              	.L7:
 130              		.align	2
ARM GAS  C:\Users\LUKASC~1\AppData\Local\Temp\cc21YZZV.s 			page 5


 131              	.L6:
 132 008c 00000000 		.word	i2cReadBuffer
 133 0090 00000000 		.word	i2cWriteBuffer
 134              		.cfi_endproc
 135              	.LFE34:
 136              		.size	main, .-main
 137              		.section	.rodata
 138              		.align	2
 139              	.LC2:
 140 0000 52656365 		.ascii	"Received: \000"
 140      69766564 
 140      3A2000
 141 000b 00       		.section	.text.ExecuteCommand,"ax",%progbits
 142              		.align	2
 143              		.global	ExecuteCommand
 144              		.code	16
 145              		.thumb_func
 146              		.type	ExecuteCommand, %function
 147              	ExecuteCommand:
 148              	.LFB35:
  98:.\main.c      **** }
  99:.\main.c      **** 
 100:.\main.c      **** 
 101:.\main.c      **** /*******************************************************************************
 102:.\main.c      **** * Function Name: ExecuteCommand
 103:.\main.c      **** ********************************************************************************
 104:.\main.c      **** * Summary:
 105:.\main.c      **** *  Executes received command to control the LED color and returns status.
 106:.\main.c      **** *  If the command is unknown, the LED color is not changed.
 107:.\main.c      **** *
 108:.\main.c      **** * Parameters:
 109:.\main.c      **** *
 110:.\main.c      **** * Return:
 111:.\main.c      **** *  Returns status of command execution. There are two statuses
 112:.\main.c      **** *  - STS_CMD_DONE: command is executed successfully.
 113:.\main.c      **** *  - STS_CMD_FAIL: unknown command
 114:.\main.c      **** *
 115:.\main.c      **** *******************************************************************************/
 116:.\main.c      **** uint8 ExecuteCommand(uint32 cmd)
 117:.\main.c      **** {
 149              		.loc 1 117 0
 150              		.cfi_startproc
 151 0000 80B5     		push	{r7, lr}
 152              		.cfi_def_cfa_offset 8
 153              		.cfi_offset 7, -8
 154              		.cfi_offset 14, -4
 155 0002 84B0     		sub	sp, sp, #16
 156              		.cfi_def_cfa_offset 24
 157 0004 00AF     		add	r7, sp, #0
 158              		.cfi_def_cfa_register 7
 159 0006 7860     		str	r0, [r7, #4]
 118:.\main.c      ****     uint8 status;
 119:.\main.c      **** 
 120:.\main.c      ****     status = STS_CMD_DONE;
 160              		.loc 1 120 0
 161 0008 0F23     		mov	r3, #15
 162 000a FB18     		add	r3, r7, r3
ARM GAS  C:\Users\LUKASC~1\AppData\Local\Temp\cc21YZZV.s 			page 6


 163 000c 0022     		mov	r2, #0
 164 000e 1A70     		strb	r2, [r3]
 121:.\main.c      ****     UART_1_UartPutString("Received: ");
 165              		.loc 1 121 0
 166 0010 074B     		ldr	r3, .L10
 167 0012 181C     		mov	r0, r3
 168 0014 FFF7FEFF 		bl	UART_1_UartPutString
 122:.\main.c      ****     UART_SendNumber(cmd);
 169              		.loc 1 122 0
 170 0018 7B68     		ldr	r3, [r7, #4]
 171 001a 181C     		mov	r0, r3
 172 001c FFF7FEFF 		bl	UART_SendNumber
 123:.\main.c      **** //    /* Execute received command */
 124:.\main.c      **** //    switch (cmd)
 125:.\main.c      **** //    {
 126:.\main.c      **** //        case CMD_SET_RED:
 127:.\main.c      **** //            RGB_LED_ON_RED;
 128:.\main.c      **** //            break;
 129:.\main.c      **** //
 130:.\main.c      **** //        case CMD_SET_GREEN:
 131:.\main.c      **** //            RGB_LED_ON_GREEN;
 132:.\main.c      **** //            break;
 133:.\main.c      **** //
 134:.\main.c      **** //        case CMD_SET_BLUE:
 135:.\main.c      **** //            RGB_LED_ON_BLUE;
 136:.\main.c      **** //            break;
 137:.\main.c      **** //
 138:.\main.c      **** //        case CMD_SET_OFF:
 139:.\main.c      **** //            RGB_LED_OFF;
 140:.\main.c      **** //            break;
 141:.\main.c      **** //
 142:.\main.c      **** //        default:
 143:.\main.c      **** //            status = STS_CMD_FAIL;
 144:.\main.c      **** //            break;
 145:.\main.c      **** //    }
 146:.\main.c      **** 
 147:.\main.c      ****     return (status);
 173              		.loc 1 147 0
 174 0020 0F23     		mov	r3, #15
 175 0022 FB18     		add	r3, r7, r3
 176 0024 1B78     		ldrb	r3, [r3]
 148:.\main.c      **** }
 177              		.loc 1 148 0
 178 0026 181C     		mov	r0, r3
 179 0028 BD46     		mov	sp, r7
 180 002a 04B0     		add	sp, sp, #16
 181              		@ sp needed
 182 002c 80BD     		pop	{r7, pc}
 183              	.L11:
 184 002e C046     		.align	2
 185              	.L10:
 186 0030 00000000 		.word	.LC2
 187              		.cfi_endproc
 188              	.LFE35:
 189              		.size	ExecuteCommand, .-ExecuteCommand
 190              		.text
 191              	.Letext0:
ARM GAS  C:\Users\LUKASC~1\AppData\Local\Temp\cc21YZZV.s 			page 7


 192              		.file 2 "Generated_Source\\PSoC4/cytypes.h"