ARM GAS  C:\Users\LUKASC~1\AppData\Local\Temp\ccd155Lz.s 			page 1


   1              		.syntax unified
   2              		.cpu cortex-m3
   3              		.fpu softvfp
   4              		.eabi_attribute 20, 1
   5              		.eabi_attribute 21, 1
   6              		.eabi_attribute 23, 3
   7              		.eabi_attribute 24, 1
   8              		.eabi_attribute 25, 1
   9              		.eabi_attribute 26, 1
  10              		.eabi_attribute 30, 6
  11              		.eabi_attribute 34, 1
  12              		.eabi_attribute 18, 4
  13              		.thumb
  14              		.file	"CapSense_CSD_CSHL.c"
  15              		.text
  16              	.Ltext0:
  17              		.cfi_sections	.debug_frame
  18              		.comm	CapSense_CSD_sensorBaseline,14,4
  19              		.comm	CapSense_CSD_sensorBaselineLow,7,4
  20              		.comm	CapSense_CSD_sensorSignal,14,4
  21              		.comm	CapSense_CSD_sensorOnMask,1,4
  22              		.comm	CapSense_CSD_lowBaselineResetCnt,7,4
  23              		.global	CapSense_CSD_fingerThreshold
  24              		.data
  25              		.align	2
  26              		.type	CapSense_CSD_fingerThreshold, %object
  27              		.size	CapSense_CSD_fingerThreshold, 6
  28              	CapSense_CSD_fingerThreshold:
  29 0000 5400     		.short	84
  30 0002 7C00     		.short	124
  31 0004 4200     		.short	66
  32              		.global	CapSense_CSD_noiseThreshold
  33 0006 0000     		.align	2
  34              		.type	CapSense_CSD_noiseThreshold, %object
  35              		.size	CapSense_CSD_noiseThreshold, 6
  36              	CapSense_CSD_noiseThreshold:
  37 0008 2A00     		.short	42
  38 000a 2D00     		.short	45
  39 000c 2100     		.short	33
  40              		.global	CapSense_CSD_hysteresis
  41 000e 0000     		.align	2
  42              		.type	CapSense_CSD_hysteresis, %object
  43              		.size	CapSense_CSD_hysteresis, 6
  44              	CapSense_CSD_hysteresis:
  45 0010 0000     		.short	0
  46 0012 1200     		.short	18
  47 0014 0900     		.short	9
  48              		.global	CapSense_CSD_debounce
  49 0016 0000     		.align	2
  50              		.type	CapSense_CSD_debounce, %object
  51              		.size	CapSense_CSD_debounce, 3
  52              	CapSense_CSD_debounce:
  53 0018 01       		.byte	1
  54 0019 05       		.byte	5
  55 001a 05       		.byte	5
  56              		.global	CapSense_CSD_debounceCounter
  57 001b 00       		.bss
ARM GAS  C:\Users\LUKASC~1\AppData\Local\Temp\ccd155Lz.s 			page 2


  58              		.align	2
  59              		.type	CapSense_CSD_debounceCounter, %object
  60              		.size	CapSense_CSD_debounceCounter, 3
  61              	CapSense_CSD_debounceCounter:
  62 0000 000000   		.space	3
  63              		.global	CapSense_CSD_rawDataIndex
  64              		.section	.rodata
  65              		.align	2
  66              		.type	CapSense_CSD_rawDataIndex, %object
  67              		.size	CapSense_CSD_rawDataIndex, 3
  68              	CapSense_CSD_rawDataIndex:
  69 0000 02       		.byte	2
  70 0001 00       		.byte	0
  71 0002 01       		.byte	1
  72              		.global	CapSense_CSD_numberOfSensors
  73 0003 00       		.align	2
  74              		.type	CapSense_CSD_numberOfSensors, %object
  75              		.size	CapSense_CSD_numberOfSensors, 3
  76              	CapSense_CSD_numberOfSensors:
  77 0004 05       		.byte	5
  78 0005 01       		.byte	1
  79 0006 01       		.byte	1
  80              		.global	CapSense_CSD_centroidMult
  81 0007 00       		.align	2
  82              		.type	CapSense_CSD_centroidMult, %object
  83              		.size	CapSense_CSD_centroidMult, 2
  84              	CapSense_CSD_centroidMult:
  85 0008 0019     		.short	6400
  86 000a 0000     		.section	.text.CapSense_CSD_BaseInit,"ax",%progbits
  87              		.align	2
  88              		.global	CapSense_CSD_BaseInit
  89              		.thumb
  90              		.thumb_func
  91              		.type	CapSense_CSD_BaseInit, %function
  92              	CapSense_CSD_BaseInit:
  93              	.LFB0:
  94              		.file 1 ".\\Generated_Source\\PSoC5\\CapSense_CSD_CSHL.c"
   1:.\Generated_Source\PSoC5/CapSense_CSD_CSHL.c **** /*******************************************************************************
   2:.\Generated_Source\PSoC5/CapSense_CSD_CSHL.c **** * File Name: CapSense_CSD_CSHL.c
   3:.\Generated_Source\PSoC5/CapSense_CSD_CSHL.c **** * Version 3.40
   4:.\Generated_Source\PSoC5/CapSense_CSD_CSHL.c **** *
   5:.\Generated_Source\PSoC5/CapSense_CSD_CSHL.c **** * Description:
   6:.\Generated_Source\PSoC5/CapSense_CSD_CSHL.c **** *  This file provides the source code to the High Level APIs for the CapSesne
   7:.\Generated_Source\PSoC5/CapSense_CSD_CSHL.c **** *  CSD component.
   8:.\Generated_Source\PSoC5/CapSense_CSD_CSHL.c **** *
   9:.\Generated_Source\PSoC5/CapSense_CSD_CSHL.c **** * Note:
  10:.\Generated_Source\PSoC5/CapSense_CSD_CSHL.c **** *
  11:.\Generated_Source\PSoC5/CapSense_CSD_CSHL.c **** ********************************************************************************
  12:.\Generated_Source\PSoC5/CapSense_CSD_CSHL.c **** * Copyright 2008-2013, Cypress Semiconductor Corporation.  All rights reserved.
  13:.\Generated_Source\PSoC5/CapSense_CSD_CSHL.c **** * You may use this file only in accordance with the license, terms, conditions,
  14:.\Generated_Source\PSoC5/CapSense_CSD_CSHL.c **** * disclaimers, and limitations in the end user license agreement accompanying
  15:.\Generated_Source\PSoC5/CapSense_CSD_CSHL.c **** * the software package with which this file was provided.
  16:.\Generated_Source\PSoC5/CapSense_CSD_CSHL.c **** *******************************************************************************/
  17:.\Generated_Source\PSoC5/CapSense_CSD_CSHL.c **** 
  18:.\Generated_Source\PSoC5/CapSense_CSD_CSHL.c **** #include "CapSense_CSD_CSHL.h"
  19:.\Generated_Source\PSoC5/CapSense_CSD_CSHL.c **** 
  20:.\Generated_Source\PSoC5/CapSense_CSD_CSHL.c **** /* Storage of filters data */
ARM GAS  C:\Users\LUKASC~1\AppData\Local\Temp\ccd155Lz.s 			page 3


  21:.\Generated_Source\PSoC5/CapSense_CSD_CSHL.c **** #if ( (CapSense_CSD_RAW_FILTER_MASK & CapSense_CSD_MEDIAN_FILTER) | \
  22:.\Generated_Source\PSoC5/CapSense_CSD_CSHL.c ****       (CapSense_CSD_RAW_FILTER_MASK & CapSense_CSD_AVERAGING_FILTER) )
  23:.\Generated_Source\PSoC5/CapSense_CSD_CSHL.c **** 
  24:.\Generated_Source\PSoC5/CapSense_CSD_CSHL.c ****     uint16 CapSense_CSD_rawFilterData1[CapSense_CSD_TOTAL_SENSOR_COUNT];
  25:.\Generated_Source\PSoC5/CapSense_CSD_CSHL.c ****     uint16 CapSense_CSD_rawFilterData2[CapSense_CSD_TOTAL_SENSOR_COUNT];
  26:.\Generated_Source\PSoC5/CapSense_CSD_CSHL.c **** 
  27:.\Generated_Source\PSoC5/CapSense_CSD_CSHL.c **** #elif ( (CapSense_CSD_RAW_FILTER_MASK & CapSense_CSD_IIR2_FILTER)   | \
  28:.\Generated_Source\PSoC5/CapSense_CSD_CSHL.c ****         (CapSense_CSD_RAW_FILTER_MASK & CapSense_CSD_IIR4_FILTER)   | \
  29:.\Generated_Source\PSoC5/CapSense_CSD_CSHL.c ****         (CapSense_CSD_RAW_FILTER_MASK & CapSense_CSD_JITTER_FILTER) | \
  30:.\Generated_Source\PSoC5/CapSense_CSD_CSHL.c ****         (CapSense_CSD_RAW_FILTER_MASK & CapSense_CSD_IIR8_FILTER)   | \
  31:.\Generated_Source\PSoC5/CapSense_CSD_CSHL.c ****         (CapSense_CSD_RAW_FILTER_MASK & CapSense_CSD_IIR16_FILTER) )
  32:.\Generated_Source\PSoC5/CapSense_CSD_CSHL.c ****         
  33:.\Generated_Source\PSoC5/CapSense_CSD_CSHL.c ****     uint16 CapSense_CSD_rawFilterData1[CapSense_CSD_TOTAL_SENSOR_COUNT];
  34:.\Generated_Source\PSoC5/CapSense_CSD_CSHL.c **** 
  35:.\Generated_Source\PSoC5/CapSense_CSD_CSHL.c **** #else
  36:.\Generated_Source\PSoC5/CapSense_CSD_CSHL.c ****     /* No Raw filters */
  37:.\Generated_Source\PSoC5/CapSense_CSD_CSHL.c **** #endif  /* ( (CapSense_CSD_RAW_FILTER_MASK & CapSense_CSD_MEDIAN_FILTER) || \
  38:.\Generated_Source\PSoC5/CapSense_CSD_CSHL.c ****         *    (CapSense_CSD_RAW_FILTER_MASK & CapSense_CSD_AVERAGING_FILTER) )
  39:.\Generated_Source\PSoC5/CapSense_CSD_CSHL.c ****         */
  40:.\Generated_Source\PSoC5/CapSense_CSD_CSHL.c **** 
  41:.\Generated_Source\PSoC5/CapSense_CSD_CSHL.c **** uint16 CapSense_CSD_sensorBaseline[CapSense_CSD_TOTAL_SENSOR_COUNT];
  42:.\Generated_Source\PSoC5/CapSense_CSD_CSHL.c **** uint8 CapSense_CSD_sensorBaselineLow[CapSense_CSD_TOTAL_SENSOR_COUNT];
  43:.\Generated_Source\PSoC5/CapSense_CSD_CSHL.c **** uint16 CapSense_CSD_sensorSignal[CapSense_CSD_TOTAL_SENSOR_COUNT];
  44:.\Generated_Source\PSoC5/CapSense_CSD_CSHL.c **** uint8 CapSense_CSD_sensorOnMask[(((CapSense_CSD_TOTAL_SENSOR_COUNT - 1u) / 8u) + 1u)];
  45:.\Generated_Source\PSoC5/CapSense_CSD_CSHL.c **** 
  46:.\Generated_Source\PSoC5/CapSense_CSD_CSHL.c **** uint8 CapSense_CSD_lowBaselineResetCnt[CapSense_CSD_TOTAL_SENSOR_COUNT];
  47:.\Generated_Source\PSoC5/CapSense_CSD_CSHL.c **** 
  48:.\Generated_Source\PSoC5/CapSense_CSD_CSHL.c **** uint16 CapSense_CSD_fingerThreshold[] = {
  49:.\Generated_Source\PSoC5/CapSense_CSD_CSHL.c ****     84u, 124u, 66u, 
  50:.\Generated_Source\PSoC5/CapSense_CSD_CSHL.c **** };
  51:.\Generated_Source\PSoC5/CapSense_CSD_CSHL.c **** 
  52:.\Generated_Source\PSoC5/CapSense_CSD_CSHL.c **** uint16 CapSense_CSD_noiseThreshold[] = {
  53:.\Generated_Source\PSoC5/CapSense_CSD_CSHL.c ****     42u, 45u, 33u, 
  54:.\Generated_Source\PSoC5/CapSense_CSD_CSHL.c **** };
  55:.\Generated_Source\PSoC5/CapSense_CSD_CSHL.c **** 
  56:.\Generated_Source\PSoC5/CapSense_CSD_CSHL.c **** uint16 CapSense_CSD_hysteresis[] = {
  57:.\Generated_Source\PSoC5/CapSense_CSD_CSHL.c ****     0u, 18u, 9u, 
  58:.\Generated_Source\PSoC5/CapSense_CSD_CSHL.c **** };
  59:.\Generated_Source\PSoC5/CapSense_CSD_CSHL.c **** 
  60:.\Generated_Source\PSoC5/CapSense_CSD_CSHL.c **** uint8 CapSense_CSD_debounce[] = {
  61:.\Generated_Source\PSoC5/CapSense_CSD_CSHL.c ****     1u, 5u, 5u, 
  62:.\Generated_Source\PSoC5/CapSense_CSD_CSHL.c **** };
  63:.\Generated_Source\PSoC5/CapSense_CSD_CSHL.c **** 
  64:.\Generated_Source\PSoC5/CapSense_CSD_CSHL.c **** uint8 CapSense_CSD_debounceCounter[] = {
  65:.\Generated_Source\PSoC5/CapSense_CSD_CSHL.c ****     0u, 0u, 0u, 
  66:.\Generated_Source\PSoC5/CapSense_CSD_CSHL.c **** };
  67:.\Generated_Source\PSoC5/CapSense_CSD_CSHL.c **** 
  68:.\Generated_Source\PSoC5/CapSense_CSD_CSHL.c **** const uint8 CYCODE CapSense_CSD_rawDataIndex[] = {
  69:.\Generated_Source\PSoC5/CapSense_CSD_CSHL.c ****     2u, /* LinearSlider0__LS */
  70:.\Generated_Source\PSoC5/CapSense_CSD_CSHL.c ****     0u, /* Button0__BTN */
  71:.\Generated_Source\PSoC5/CapSense_CSD_CSHL.c ****     1u, /* Button1__BTN */
  72:.\Generated_Source\PSoC5/CapSense_CSD_CSHL.c **** 
  73:.\Generated_Source\PSoC5/CapSense_CSD_CSHL.c **** };
  74:.\Generated_Source\PSoC5/CapSense_CSD_CSHL.c **** 
  75:.\Generated_Source\PSoC5/CapSense_CSD_CSHL.c **** const uint8 CYCODE CapSense_CSD_numberOfSensors[] = {
  76:.\Generated_Source\PSoC5/CapSense_CSD_CSHL.c ****     5u, /* LinearSlider0__LS */
  77:.\Generated_Source\PSoC5/CapSense_CSD_CSHL.c ****     1u, /* Button0__BTN */
ARM GAS  C:\Users\LUKASC~1\AppData\Local\Temp\ccd155Lz.s 			page 4


  78:.\Generated_Source\PSoC5/CapSense_CSD_CSHL.c ****     1u, /* Button1__BTN */
  79:.\Generated_Source\PSoC5/CapSense_CSD_CSHL.c **** 
  80:.\Generated_Source\PSoC5/CapSense_CSD_CSHL.c **** };
  81:.\Generated_Source\PSoC5/CapSense_CSD_CSHL.c **** 
  82:.\Generated_Source\PSoC5/CapSense_CSD_CSHL.c **** const uint16 CYCODE CapSense_CSD_centroidMult[] = {
  83:.\Generated_Source\PSoC5/CapSense_CSD_CSHL.c ****     6400u, 
  84:.\Generated_Source\PSoC5/CapSense_CSD_CSHL.c **** };
  85:.\Generated_Source\PSoC5/CapSense_CSD_CSHL.c **** 
  86:.\Generated_Source\PSoC5/CapSense_CSD_CSHL.c **** 
  87:.\Generated_Source\PSoC5/CapSense_CSD_CSHL.c **** 
  88:.\Generated_Source\PSoC5/CapSense_CSD_CSHL.c **** 
  89:.\Generated_Source\PSoC5/CapSense_CSD_CSHL.c **** /*******************************************************************************
  90:.\Generated_Source\PSoC5/CapSense_CSD_CSHL.c **** * Function Name: CapSense_CSD_BaseInit
  91:.\Generated_Source\PSoC5/CapSense_CSD_CSHL.c **** ********************************************************************************
  92:.\Generated_Source\PSoC5/CapSense_CSD_CSHL.c **** *
  93:.\Generated_Source\PSoC5/CapSense_CSD_CSHL.c **** * Summary:
  94:.\Generated_Source\PSoC5/CapSense_CSD_CSHL.c **** *  Loads the CapSense_CSD_sensorBaseline[sensor] array element with an 
  95:.\Generated_Source\PSoC5/CapSense_CSD_CSHL.c **** *  initial value which is equal to raw count value. 
  96:.\Generated_Source\PSoC5/CapSense_CSD_CSHL.c **** *  Resets to zero CapSense_CSD_sensorBaselineLow[sensor] and 
  97:.\Generated_Source\PSoC5/CapSense_CSD_CSHL.c **** *  CapSense_CSD_sensorSignal[sensor] array element.
  98:.\Generated_Source\PSoC5/CapSense_CSD_CSHL.c **** *  Loads CapSense_CSD_debounceCounter[sensor] array element with initial 
  99:.\Generated_Source\PSoC5/CapSense_CSD_CSHL.c **** *  value equal CapSense_CSD_debounce[].
 100:.\Generated_Source\PSoC5/CapSense_CSD_CSHL.c **** *  Loads the CapSense_CSD_rawFilterData2[sensor] and 
 101:.\Generated_Source\PSoC5/CapSense_CSD_CSHL.c **** *  CapSense_CSD_rawFilterData2[sensor] array element with an 
 102:.\Generated_Source\PSoC5/CapSense_CSD_CSHL.c **** *  initial value which is equal raw count value if raw data filter is enabled.
 103:.\Generated_Source\PSoC5/CapSense_CSD_CSHL.c **** *
 104:.\Generated_Source\PSoC5/CapSense_CSD_CSHL.c **** * Parameters:
 105:.\Generated_Source\PSoC5/CapSense_CSD_CSHL.c **** *  sensor:  Sensor number.
 106:.\Generated_Source\PSoC5/CapSense_CSD_CSHL.c **** *
 107:.\Generated_Source\PSoC5/CapSense_CSD_CSHL.c **** * Return:
 108:.\Generated_Source\PSoC5/CapSense_CSD_CSHL.c **** *  None
 109:.\Generated_Source\PSoC5/CapSense_CSD_CSHL.c **** *
 110:.\Generated_Source\PSoC5/CapSense_CSD_CSHL.c **** * Global Variables:
 111:.\Generated_Source\PSoC5/CapSense_CSD_CSHL.c **** *  CapSense_CSD_sensorBaseline[]    - used to store baseline value.
 112:.\Generated_Source\PSoC5/CapSense_CSD_CSHL.c **** *  CapSense_CSD_sensorBaselineLow[] - used to store fraction byte of 
 113:.\Generated_Source\PSoC5/CapSense_CSD_CSHL.c **** *  baseline value.
 114:.\Generated_Source\PSoC5/CapSense_CSD_CSHL.c **** *  CapSense_CSD_sensorSignal[]      - used to store diffence between 
 115:.\Generated_Source\PSoC5/CapSense_CSD_CSHL.c **** *  current value of raw data and previous value of baseline.
 116:.\Generated_Source\PSoC5/CapSense_CSD_CSHL.c **** *  CapSense_CSD_debounceCounter[]   - used to store current debounce 
 117:.\Generated_Source\PSoC5/CapSense_CSD_CSHL.c **** *  counter of sensor. Widget which has this parameter are buttons, matrix 
 118:.\Generated_Source\PSoC5/CapSense_CSD_CSHL.c **** *  buttons, proximity, guard. All other widgets haven't debounce parameter
 119:.\Generated_Source\PSoC5/CapSense_CSD_CSHL.c **** *  and use the last element of this array with value 0 (it means no debounce).
 120:.\Generated_Source\PSoC5/CapSense_CSD_CSHL.c **** *  CapSense_CSD_rawFilterData1[]    - used to store previous sample of 
 121:.\Generated_Source\PSoC5/CapSense_CSD_CSHL.c **** *  any enabled raw data filter.
 122:.\Generated_Source\PSoC5/CapSense_CSD_CSHL.c **** *  CapSense_CSD_rawFilterData2[]    - used to store before previous sample
 123:.\Generated_Source\PSoC5/CapSense_CSD_CSHL.c **** *  of enabled raw data filter. Only required for median or average filters.
 124:.\Generated_Source\PSoC5/CapSense_CSD_CSHL.c **** *
 125:.\Generated_Source\PSoC5/CapSense_CSD_CSHL.c **** * Reentrant:
 126:.\Generated_Source\PSoC5/CapSense_CSD_CSHL.c **** *  No
 127:.\Generated_Source\PSoC5/CapSense_CSD_CSHL.c **** *
 128:.\Generated_Source\PSoC5/CapSense_CSD_CSHL.c **** *******************************************************************************/
 129:.\Generated_Source\PSoC5/CapSense_CSD_CSHL.c **** void CapSense_CSD_BaseInit(uint8 sensor) 
 130:.\Generated_Source\PSoC5/CapSense_CSD_CSHL.c **** {
  95              		.loc 1 130 0
  96              		.cfi_startproc
  97              		@ args = 0, pretend = 0, frame = 16
  98              		@ frame_needed = 1, uses_anonymous_args = 0
ARM GAS  C:\Users\LUKASC~1\AppData\Local\Temp\ccd155Lz.s 			page 5


  99              		@ link register save eliminated.
 100 0000 80B4     		push	{r7}
 101              		.cfi_def_cfa_offset 4
 102              		.cfi_offset 7, -4
 103 0002 85B0     		sub	sp, sp, #20
 104              		.cfi_def_cfa_offset 24
 105 0004 00AF     		add	r7, sp, #0
 106              		.cfi_def_cfa_register 7
 107 0006 0346     		mov	r3, r0
 108 0008 FB71     		strb	r3, [r7, #7]
 131:.\Generated_Source\PSoC5/CapSense_CSD_CSHL.c ****     #if ((CapSense_CSD_TOTAL_BUTTONS_COUNT) || (CapSense_CSD_TOTAL_MATRIX_BUTTONS_COUNT) || \
 132:.\Generated_Source\PSoC5/CapSense_CSD_CSHL.c ****          (CapSense_CSD_TOTAL_GENERICS_COUNT))
 133:.\Generated_Source\PSoC5/CapSense_CSD_CSHL.c ****         uint8 widget = CapSense_CSD_widgetNumber[sensor];
 109              		.loc 1 133 0
 110 000a FB79     		ldrb	r3, [r7, #7]	@ zero_extendqisi2
 111 000c 114A     		ldr	r2, .L3
 112 000e D35C     		ldrb	r3, [r2, r3]
 113 0010 FB73     		strb	r3, [r7, #15]
 134:.\Generated_Source\PSoC5/CapSense_CSD_CSHL.c ****     #endif /* ((CapSense_CSD_TOTAL_MATRIX_BUTTONS_COUNT) || (CapSense_CSD_TOTAL_MATRIX_BUTTONS_COUN
 135:.\Generated_Source\PSoC5/CapSense_CSD_CSHL.c ****     
 136:.\Generated_Source\PSoC5/CapSense_CSD_CSHL.c ****     #if (CapSense_CSD_TOTAL_MATRIX_BUTTONS_COUNT)
 137:.\Generated_Source\PSoC5/CapSense_CSD_CSHL.c ****         uint8 debounceIndex;
 138:.\Generated_Source\PSoC5/CapSense_CSD_CSHL.c ****     #endif  /* (CapSense_CSD_TOTAL_MATRIX_BUTTONS_COUNT) */
 139:.\Generated_Source\PSoC5/CapSense_CSD_CSHL.c ****     
 140:.\Generated_Source\PSoC5/CapSense_CSD_CSHL.c ****     #if (CapSense_CSD_TOTAL_GENERICS_COUNT)
 141:.\Generated_Source\PSoC5/CapSense_CSD_CSHL.c ****         /* Exclude generic widget */
 142:.\Generated_Source\PSoC5/CapSense_CSD_CSHL.c ****         if(widget < CapSense_CSD_END_OF_WIDGETS_INDEX)
 143:.\Generated_Source\PSoC5/CapSense_CSD_CSHL.c ****         {
 144:.\Generated_Source\PSoC5/CapSense_CSD_CSHL.c ****     #endif  /* CapSense_CSD_TOTAL_GENERICS_COUNT */
 145:.\Generated_Source\PSoC5/CapSense_CSD_CSHL.c ****     
 146:.\Generated_Source\PSoC5/CapSense_CSD_CSHL.c ****     /* Initialize Baseline */
 147:.\Generated_Source\PSoC5/CapSense_CSD_CSHL.c ****     CapSense_CSD_sensorBaseline[sensor] = CapSense_CSD_sensorRaw[sensor];
 114              		.loc 1 147 0
 115 0012 FB79     		ldrb	r3, [r7, #7]	@ zero_extendqisi2
 116 0014 FA79     		ldrb	r2, [r7, #7]	@ zero_extendqisi2
 117 0016 1049     		ldr	r1, .L3+4
 118 0018 31F81210 		ldrh	r1, [r1, r2, lsl #1]
 119 001c 0F4A     		ldr	r2, .L3+8
 120 001e 22F81310 		strh	r1, [r2, r3, lsl #1]	@ movhi
 148:.\Generated_Source\PSoC5/CapSense_CSD_CSHL.c ****     CapSense_CSD_sensorBaselineLow[sensor] = 0u;
 121              		.loc 1 148 0
 122 0022 FB79     		ldrb	r3, [r7, #7]	@ zero_extendqisi2
 123 0024 0E4A     		ldr	r2, .L3+12
 124 0026 0021     		movs	r1, #0
 125 0028 D154     		strb	r1, [r2, r3]
 149:.\Generated_Source\PSoC5/CapSense_CSD_CSHL.c ****     CapSense_CSD_sensorSignal[sensor] = 0u;
 126              		.loc 1 149 0
 127 002a FB79     		ldrb	r3, [r7, #7]	@ zero_extendqisi2
 128 002c 0D4A     		ldr	r2, .L3+16
 129 002e 0021     		movs	r1, #0
 130 0030 22F81310 		strh	r1, [r2, r3, lsl #1]	@ movhi
 150:.\Generated_Source\PSoC5/CapSense_CSD_CSHL.c ****         
 151:.\Generated_Source\PSoC5/CapSense_CSD_CSHL.c ****     if(widget > CapSense_CSD_END_OF_TOUCH_PAD_INDEX)
 131              		.loc 1 151 0
 132 0034 FB7B     		ldrb	r3, [r7, #15]	@ zero_extendqisi2
 133 0036 002B     		cmp	r3, #0
 134 0038 06D0     		beq	.L1
ARM GAS  C:\Users\LUKASC~1\AppData\Local\Temp\ccd155Lz.s 			page 6


 152:.\Generated_Source\PSoC5/CapSense_CSD_CSHL.c ****     {
 153:.\Generated_Source\PSoC5/CapSense_CSD_CSHL.c ****         CapSense_CSD_debounceCounter[widget - (CapSense_CSD_END_OF_TOUCH_PAD_INDEX + 1)] =  CapSens
 135              		.loc 1 153 0
 136 003a FB7B     		ldrb	r3, [r7, #15]	@ zero_extendqisi2
 137 003c 013B     		subs	r3, r3, #1
 138 003e FA7B     		ldrb	r2, [r7, #15]	@ zero_extendqisi2
 139 0040 0949     		ldr	r1, .L3+20
 140 0042 895C     		ldrb	r1, [r1, r2]	@ zero_extendqisi2
 141 0044 094A     		ldr	r2, .L3+24
 142 0046 D154     		strb	r1, [r2, r3]
 143              	.L1:
 154:.\Generated_Source\PSoC5/CapSense_CSD_CSHL.c ****     }
 155:.\Generated_Source\PSoC5/CapSense_CSD_CSHL.c **** 
 156:.\Generated_Source\PSoC5/CapSense_CSD_CSHL.c ****     
 157:.\Generated_Source\PSoC5/CapSense_CSD_CSHL.c ****     #if ((CapSense_CSD_RAW_FILTER_MASK & CapSense_CSD_MEDIAN_FILTER) |\
 158:.\Generated_Source\PSoC5/CapSense_CSD_CSHL.c ****          (CapSense_CSD_RAW_FILTER_MASK & CapSense_CSD_AVERAGING_FILTER))
 159:.\Generated_Source\PSoC5/CapSense_CSD_CSHL.c **** 
 160:.\Generated_Source\PSoC5/CapSense_CSD_CSHL.c ****         CapSense_CSD_rawFilterData1[sensor] = CapSense_CSD_sensorRaw[sensor];
 161:.\Generated_Source\PSoC5/CapSense_CSD_CSHL.c ****         CapSense_CSD_rawFilterData2[sensor] = CapSense_CSD_sensorRaw[sensor];
 162:.\Generated_Source\PSoC5/CapSense_CSD_CSHL.c ****     
 163:.\Generated_Source\PSoC5/CapSense_CSD_CSHL.c ****     #elif ((CapSense_CSD_RAW_FILTER_MASK & CapSense_CSD_IIR2_FILTER) |\
 164:.\Generated_Source\PSoC5/CapSense_CSD_CSHL.c ****            (CapSense_CSD_RAW_FILTER_MASK & CapSense_CSD_IIR4_FILTER) |\
 165:.\Generated_Source\PSoC5/CapSense_CSD_CSHL.c ****            (CapSense_CSD_RAW_FILTER_MASK & CapSense_CSD_JITTER_FILTER) |\
 166:.\Generated_Source\PSoC5/CapSense_CSD_CSHL.c ****            (CapSense_CSD_RAW_FILTER_MASK & CapSense_CSD_IIR8_FILTER) |\
 167:.\Generated_Source\PSoC5/CapSense_CSD_CSHL.c ****            (CapSense_CSD_RAW_FILTER_MASK & CapSense_CSD_IIR16_FILTER))
 168:.\Generated_Source\PSoC5/CapSense_CSD_CSHL.c ****             
 169:.\Generated_Source\PSoC5/CapSense_CSD_CSHL.c ****         CapSense_CSD_rawFilterData1[sensor] = CapSense_CSD_sensorRaw[sensor];
 170:.\Generated_Source\PSoC5/CapSense_CSD_CSHL.c ****     
 171:.\Generated_Source\PSoC5/CapSense_CSD_CSHL.c ****     #else
 172:.\Generated_Source\PSoC5/CapSense_CSD_CSHL.c ****         /* No Raw filters */
 173:.\Generated_Source\PSoC5/CapSense_CSD_CSHL.c ****     #endif  /* ((CapSense_CSD_RAW_FILTER_MASK & CapSense_CSD_MEDIAN_FILTER) | \
 174:.\Generated_Source\PSoC5/CapSense_CSD_CSHL.c ****             *   (CapSense_CSD_RAW_FILTER_MASK & CapSense_CSD_AVERAGING_FILTER))
 175:.\Generated_Source\PSoC5/CapSense_CSD_CSHL.c ****             */
 176:.\Generated_Source\PSoC5/CapSense_CSD_CSHL.c ****     
 177:.\Generated_Source\PSoC5/CapSense_CSD_CSHL.c ****     #if (CapSense_CSD_TOTAL_GENERICS_COUNT)
 178:.\Generated_Source\PSoC5/CapSense_CSD_CSHL.c ****         /* Exclude generic widget */
 179:.\Generated_Source\PSoC5/CapSense_CSD_CSHL.c ****         }
 180:.\Generated_Source\PSoC5/CapSense_CSD_CSHL.c ****     #endif  /* CapSense_CSD_TOTAL_GENERICS_COUNT */
 181:.\Generated_Source\PSoC5/CapSense_CSD_CSHL.c **** }
 144              		.loc 1 181 0
 145 0048 1437     		adds	r7, r7, #20
 146              		.cfi_def_cfa_offset 4
 147 004a BD46     		mov	sp, r7
 148              		.cfi_def_cfa_register 13
 149              		@ sp needed
 150 004c 5DF8047B 		ldr	r7, [sp], #4
 151              		.cfi_restore 7
 152              		.cfi_def_cfa_offset 0
 153 0050 7047     		bx	lr
 154              	.L4:
 155 0052 00BF     		.align	2
 156              	.L3:
 157 0054 00000000 		.word	CapSense_CSD_widgetNumber
 158 0058 00000000 		.word	CapSense_CSD_sensorRaw
 159 005c 00000000 		.word	CapSense_CSD_sensorBaseline
 160 0060 00000000 		.word	CapSense_CSD_sensorBaselineLow
 161 0064 00000000 		.word	CapSense_CSD_sensorSignal
ARM GAS  C:\Users\LUKASC~1\AppData\Local\Temp\ccd155Lz.s 			page 7


 162 0068 00000000 		.word	CapSense_CSD_debounce
 163 006c 00000000 		.word	CapSense_CSD_debounceCounter
 164              		.cfi_endproc
 165              	.LFE0:
 166              		.size	CapSense_CSD_BaseInit, .-CapSense_CSD_BaseInit
 167              		.section	.text.CapSense_CSD_InitializeSensorBaseline,"ax",%progbits
 168              		.align	2
 169              		.global	CapSense_CSD_InitializeSensorBaseline
 170              		.thumb
 171              		.thumb_func
 172              		.type	CapSense_CSD_InitializeSensorBaseline, %function
 173              	CapSense_CSD_InitializeSensorBaseline:
 174              	.LFB1:
 182:.\Generated_Source\PSoC5/CapSense_CSD_CSHL.c **** 
 183:.\Generated_Source\PSoC5/CapSense_CSD_CSHL.c **** 
 184:.\Generated_Source\PSoC5/CapSense_CSD_CSHL.c **** /*******************************************************************************
 185:.\Generated_Source\PSoC5/CapSense_CSD_CSHL.c **** * Function Name: CapSense_CSD_InitializeSensorBaseline
 186:.\Generated_Source\PSoC5/CapSense_CSD_CSHL.c **** ********************************************************************************
 187:.\Generated_Source\PSoC5/CapSense_CSD_CSHL.c **** *
 188:.\Generated_Source\PSoC5/CapSense_CSD_CSHL.c **** * Summary:
 189:.\Generated_Source\PSoC5/CapSense_CSD_CSHL.c **** *  Loads the CapSense_CSD_sensorBaseline[sensor] array element with an 
 190:.\Generated_Source\PSoC5/CapSense_CSD_CSHL.c **** *  initial value by scanning the selected sensor (one channel design) or pair 
 191:.\Generated_Source\PSoC5/CapSense_CSD_CSHL.c **** *  of sensors (two channels designs). The raw count value is copied into the 
 192:.\Generated_Source\PSoC5/CapSense_CSD_CSHL.c **** *  baseline array for each sensor. The raw data filters are initialized if 
 193:.\Generated_Source\PSoC5/CapSense_CSD_CSHL.c **** *  enabled.
 194:.\Generated_Source\PSoC5/CapSense_CSD_CSHL.c **** *
 195:.\Generated_Source\PSoC5/CapSense_CSD_CSHL.c **** * Parameters:
 196:.\Generated_Source\PSoC5/CapSense_CSD_CSHL.c **** *  sensor:  Sensor number.
 197:.\Generated_Source\PSoC5/CapSense_CSD_CSHL.c **** *
 198:.\Generated_Source\PSoC5/CapSense_CSD_CSHL.c **** * Return:
 199:.\Generated_Source\PSoC5/CapSense_CSD_CSHL.c **** *  None
 200:.\Generated_Source\PSoC5/CapSense_CSD_CSHL.c **** *
 201:.\Generated_Source\PSoC5/CapSense_CSD_CSHL.c **** * Reentrant:
 202:.\Generated_Source\PSoC5/CapSense_CSD_CSHL.c **** *  No
 203:.\Generated_Source\PSoC5/CapSense_CSD_CSHL.c **** *
 204:.\Generated_Source\PSoC5/CapSense_CSD_CSHL.c **** *******************************************************************************/
 205:.\Generated_Source\PSoC5/CapSense_CSD_CSHL.c **** void CapSense_CSD_InitializeSensorBaseline(uint8 sensor)
 206:.\Generated_Source\PSoC5/CapSense_CSD_CSHL.c ****                           
 207:.\Generated_Source\PSoC5/CapSense_CSD_CSHL.c **** {
 175              		.loc 1 207 0
 176              		.cfi_startproc
 177              		@ args = 0, pretend = 0, frame = 8
 178              		@ frame_needed = 1, uses_anonymous_args = 0
 179 0000 80B5     		push	{r7, lr}
 180              		.cfi_def_cfa_offset 8
 181              		.cfi_offset 7, -8
 182              		.cfi_offset 14, -4
 183 0002 82B0     		sub	sp, sp, #8
 184              		.cfi_def_cfa_offset 16
 185 0004 00AF     		add	r7, sp, #0
 186              		.cfi_def_cfa_register 7
 187 0006 0346     		mov	r3, r0
 188 0008 FB71     		strb	r3, [r7, #7]
 208:.\Generated_Source\PSoC5/CapSense_CSD_CSHL.c ****     /* Scan sensor */
 209:.\Generated_Source\PSoC5/CapSense_CSD_CSHL.c ****     CapSense_CSD_ScanSensor(sensor);
 189              		.loc 1 209 0
 190 000a FB79     		ldrb	r3, [r7, #7]	@ zero_extendqisi2
ARM GAS  C:\Users\LUKASC~1\AppData\Local\Temp\ccd155Lz.s 			page 8


 191 000c 1846     		mov	r0, r3
 192 000e FFF7FEFF 		bl	CapSense_CSD_ScanSensor
 210:.\Generated_Source\PSoC5/CapSense_CSD_CSHL.c ****     while(CapSense_CSD_IsBusy() != 0u)
 193              		.loc 1 210 0
 194 0012 00BF     		nop
 195              	.L6:
 196              		.loc 1 210 0 is_stmt 0 discriminator 1
 197 0014 FFF7FEFF 		bl	CapSense_CSD_IsBusy
 198 0018 0346     		mov	r3, r0
 199 001a 002B     		cmp	r3, #0
 200 001c FAD1     		bne	.L6
 211:.\Generated_Source\PSoC5/CapSense_CSD_CSHL.c ****     {
 212:.\Generated_Source\PSoC5/CapSense_CSD_CSHL.c ****         /* Wait while busy */
 213:.\Generated_Source\PSoC5/CapSense_CSD_CSHL.c ****     }
 214:.\Generated_Source\PSoC5/CapSense_CSD_CSHL.c ****     
 215:.\Generated_Source\PSoC5/CapSense_CSD_CSHL.c ****     #if (CapSense_CSD_DESIGN_TYPE == CapSense_CSD_ONE_CHANNEL_DESIGN)
 216:.\Generated_Source\PSoC5/CapSense_CSD_CSHL.c ****         /* Initialize Baseline, Signal and debounce counters */       
 217:.\Generated_Source\PSoC5/CapSense_CSD_CSHL.c ****         CapSense_CSD_BaseInit(sensor);
 201              		.loc 1 217 0 is_stmt 1
 202 001e FB79     		ldrb	r3, [r7, #7]	@ zero_extendqisi2
 203 0020 1846     		mov	r0, r3
 204 0022 FFF7FEFF 		bl	CapSense_CSD_BaseInit
 218:.\Generated_Source\PSoC5/CapSense_CSD_CSHL.c ****         
 219:.\Generated_Source\PSoC5/CapSense_CSD_CSHL.c ****     #else
 220:.\Generated_Source\PSoC5/CapSense_CSD_CSHL.c ****     
 221:.\Generated_Source\PSoC5/CapSense_CSD_CSHL.c ****         if(sensor < CapSense_CSD_TOTAL_SENSOR_COUNT__CH0)
 222:.\Generated_Source\PSoC5/CapSense_CSD_CSHL.c ****         {
 223:.\Generated_Source\PSoC5/CapSense_CSD_CSHL.c ****             /* Initialize Baseline, Signal and debounce counters */ 
 224:.\Generated_Source\PSoC5/CapSense_CSD_CSHL.c ****             CapSense_CSD_BaseInit(sensor);
 225:.\Generated_Source\PSoC5/CapSense_CSD_CSHL.c ****         }
 226:.\Generated_Source\PSoC5/CapSense_CSD_CSHL.c ****         
 227:.\Generated_Source\PSoC5/CapSense_CSD_CSHL.c ****         if(sensor < CapSense_CSD_TOTAL_SENSOR_COUNT__CH1)
 228:.\Generated_Source\PSoC5/CapSense_CSD_CSHL.c ****         {
 229:.\Generated_Source\PSoC5/CapSense_CSD_CSHL.c ****             /* Initialize Baseline, Signal and debounce counters */
 230:.\Generated_Source\PSoC5/CapSense_CSD_CSHL.c ****             CapSense_CSD_BaseInit(sensor + CapSense_CSD_TOTAL_SENSOR_COUNT__CH0);
 231:.\Generated_Source\PSoC5/CapSense_CSD_CSHL.c ****         }
 232:.\Generated_Source\PSoC5/CapSense_CSD_CSHL.c ****     
 233:.\Generated_Source\PSoC5/CapSense_CSD_CSHL.c ****     #endif  /* (CapSense_CSD_DESIGN_TYPE == CapSense_CSD_ONE_CHANNEL_DESIGN) */
 234:.\Generated_Source\PSoC5/CapSense_CSD_CSHL.c **** }
 205              		.loc 1 234 0
 206 0026 0837     		adds	r7, r7, #8
 207              		.cfi_def_cfa_offset 8
 208 0028 BD46     		mov	sp, r7
 209              		.cfi_def_cfa_register 13
 210              		@ sp needed
 211 002a 80BD     		pop	{r7, pc}
 212              		.cfi_endproc
 213              	.LFE1:
 214              		.size	CapSense_CSD_InitializeSensorBaseline, .-CapSense_CSD_InitializeSensorBaseline
 215              		.section	.text.CapSense_CSD_InitializeAllBaselines,"ax",%progbits
 216              		.align	2
 217              		.global	CapSense_CSD_InitializeAllBaselines
 218              		.thumb
 219              		.thumb_func
 220              		.type	CapSense_CSD_InitializeAllBaselines, %function
 221              	CapSense_CSD_InitializeAllBaselines:
 222              	.LFB2:
ARM GAS  C:\Users\LUKASC~1\AppData\Local\Temp\ccd155Lz.s 			page 9


 235:.\Generated_Source\PSoC5/CapSense_CSD_CSHL.c **** 
 236:.\Generated_Source\PSoC5/CapSense_CSD_CSHL.c **** 
 237:.\Generated_Source\PSoC5/CapSense_CSD_CSHL.c **** /*******************************************************************************
 238:.\Generated_Source\PSoC5/CapSense_CSD_CSHL.c **** * Function Name: CapSense_CSD_InitializeAllBaselines
 239:.\Generated_Source\PSoC5/CapSense_CSD_CSHL.c **** ********************************************************************************
 240:.\Generated_Source\PSoC5/CapSense_CSD_CSHL.c **** *
 241:.\Generated_Source\PSoC5/CapSense_CSD_CSHL.c **** * Summary:
 242:.\Generated_Source\PSoC5/CapSense_CSD_CSHL.c **** *  Uses the CapSense_CSD_InitializeSensorBaseline function to loads the 
 243:.\Generated_Source\PSoC5/CapSense_CSD_CSHL.c **** *  CapSense_CSD_sensorBaseline[] array with an initial values by scanning 
 244:.\Generated_Source\PSoC5/CapSense_CSD_CSHL.c **** *  all sensors. The raw count values are copied into the baseline array for 
 245:.\Generated_Source\PSoC5/CapSense_CSD_CSHL.c **** *  all sensors. The raw data filters are initialized if enabled.
 246:.\Generated_Source\PSoC5/CapSense_CSD_CSHL.c **** *
 247:.\Generated_Source\PSoC5/CapSense_CSD_CSHL.c **** * Parameters:
 248:.\Generated_Source\PSoC5/CapSense_CSD_CSHL.c **** *  None
 249:.\Generated_Source\PSoC5/CapSense_CSD_CSHL.c **** *
 250:.\Generated_Source\PSoC5/CapSense_CSD_CSHL.c **** * Return:
 251:.\Generated_Source\PSoC5/CapSense_CSD_CSHL.c **** *  None
 252:.\Generated_Source\PSoC5/CapSense_CSD_CSHL.c **** *
 253:.\Generated_Source\PSoC5/CapSense_CSD_CSHL.c **** * Reentrant:
 254:.\Generated_Source\PSoC5/CapSense_CSD_CSHL.c **** *  No
 255:.\Generated_Source\PSoC5/CapSense_CSD_CSHL.c **** *
 256:.\Generated_Source\PSoC5/CapSense_CSD_CSHL.c **** *******************************************************************************/
 257:.\Generated_Source\PSoC5/CapSense_CSD_CSHL.c **** void CapSense_CSD_InitializeAllBaselines(void)
 258:.\Generated_Source\PSoC5/CapSense_CSD_CSHL.c ****                           
 259:.\Generated_Source\PSoC5/CapSense_CSD_CSHL.c **** {
 223              		.loc 1 259 0
 224              		.cfi_startproc
 225              		@ args = 0, pretend = 0, frame = 8
 226              		@ frame_needed = 1, uses_anonymous_args = 0
 227 0000 80B5     		push	{r7, lr}
 228              		.cfi_def_cfa_offset 8
 229              		.cfi_offset 7, -8
 230              		.cfi_offset 14, -4
 231 0002 82B0     		sub	sp, sp, #8
 232              		.cfi_def_cfa_offset 16
 233 0004 00AF     		add	r7, sp, #0
 234              		.cfi_def_cfa_register 7
 260:.\Generated_Source\PSoC5/CapSense_CSD_CSHL.c ****     uint8 i;
 261:.\Generated_Source\PSoC5/CapSense_CSD_CSHL.c ****     
 262:.\Generated_Source\PSoC5/CapSense_CSD_CSHL.c ****     /* The baseline initialize by sensor of sensor pair */
 263:.\Generated_Source\PSoC5/CapSense_CSD_CSHL.c ****     for(i = 0u; i < CapSense_CSD_TOTAL_SCANSLOT_COUNT; i++)
 235              		.loc 1 263 0
 236 0006 0023     		movs	r3, #0
 237 0008 FB71     		strb	r3, [r7, #7]
 238 000a 06E0     		b	.L8
 239              	.L9:
 264:.\Generated_Source\PSoC5/CapSense_CSD_CSHL.c ****     {
 265:.\Generated_Source\PSoC5/CapSense_CSD_CSHL.c ****         CapSense_CSD_InitializeSensorBaseline(i);
 240              		.loc 1 265 0 discriminator 3
 241 000c FB79     		ldrb	r3, [r7, #7]	@ zero_extendqisi2
 242 000e 1846     		mov	r0, r3
 243 0010 FFF7FEFF 		bl	CapSense_CSD_InitializeSensorBaseline
 263:.\Generated_Source\PSoC5/CapSense_CSD_CSHL.c ****     {
 244              		.loc 1 263 0 discriminator 3
 245 0014 FB79     		ldrb	r3, [r7, #7]	@ zero_extendqisi2
 246 0016 0133     		adds	r3, r3, #1
 247 0018 FB71     		strb	r3, [r7, #7]
ARM GAS  C:\Users\LUKASC~1\AppData\Local\Temp\ccd155Lz.s 			page 10


 248              	.L8:
 263:.\Generated_Source\PSoC5/CapSense_CSD_CSHL.c ****     {
 249              		.loc 1 263 0 is_stmt 0 discriminator 1
 250 001a FB79     		ldrb	r3, [r7, #7]	@ zero_extendqisi2
 251 001c 062B     		cmp	r3, #6
 252 001e F5D9     		bls	.L9
 266:.\Generated_Source\PSoC5/CapSense_CSD_CSHL.c ****     }
 267:.\Generated_Source\PSoC5/CapSense_CSD_CSHL.c **** }
 253              		.loc 1 267 0 is_stmt 1
 254 0020 0837     		adds	r7, r7, #8
 255              		.cfi_def_cfa_offset 8
 256 0022 BD46     		mov	sp, r7
 257              		.cfi_def_cfa_register 13
 258              		@ sp needed
 259 0024 80BD     		pop	{r7, pc}
 260              		.cfi_endproc
 261              	.LFE2:
 262              		.size	CapSense_CSD_InitializeAllBaselines, .-CapSense_CSD_InitializeAllBaselines
 263 0026 00BF     		.section	.text.CapSense_CSD_InitializeEnabledBaselines,"ax",%progbits
 264              		.align	2
 265              		.global	CapSense_CSD_InitializeEnabledBaselines
 266              		.thumb
 267              		.thumb_func
 268              		.type	CapSense_CSD_InitializeEnabledBaselines, %function
 269              	CapSense_CSD_InitializeEnabledBaselines:
 270              	.LFB3:
 268:.\Generated_Source\PSoC5/CapSense_CSD_CSHL.c **** 
 269:.\Generated_Source\PSoC5/CapSense_CSD_CSHL.c **** 
 270:.\Generated_Source\PSoC5/CapSense_CSD_CSHL.c **** /*******************************************************************************
 271:.\Generated_Source\PSoC5/CapSense_CSD_CSHL.c **** * Function Name: CapSense_CSD_InitializeEnabledBaselines
 272:.\Generated_Source\PSoC5/CapSense_CSD_CSHL.c **** ********************************************************************************
 273:.\Generated_Source\PSoC5/CapSense_CSD_CSHL.c **** *
 274:.\Generated_Source\PSoC5/CapSense_CSD_CSHL.c **** * Summary:
 275:.\Generated_Source\PSoC5/CapSense_CSD_CSHL.c **** *  Scans all enabled widgets and the raw count values are copied into the 
 276:.\Generated_Source\PSoC5/CapSense_CSD_CSHL.c **** *  baseline array for all sensors enabled in scanning process. Baselines 
 277:.\Generated_Source\PSoC5/CapSense_CSD_CSHL.c **** *  initialize with zero values for sensors disabled from scanning process. 
 278:.\Generated_Source\PSoC5/CapSense_CSD_CSHL.c **** *  The raw data filters are initialized if enabled.
 279:.\Generated_Source\PSoC5/CapSense_CSD_CSHL.c **** *
 280:.\Generated_Source\PSoC5/CapSense_CSD_CSHL.c **** * Parameters:
 281:.\Generated_Source\PSoC5/CapSense_CSD_CSHL.c **** *  None
 282:.\Generated_Source\PSoC5/CapSense_CSD_CSHL.c **** *
 283:.\Generated_Source\PSoC5/CapSense_CSD_CSHL.c **** * Return:
 284:.\Generated_Source\PSoC5/CapSense_CSD_CSHL.c **** *  None
 285:.\Generated_Source\PSoC5/CapSense_CSD_CSHL.c **** *
 286:.\Generated_Source\PSoC5/CapSense_CSD_CSHL.c **** * Reentrant:
 287:.\Generated_Source\PSoC5/CapSense_CSD_CSHL.c **** *  No
 288:.\Generated_Source\PSoC5/CapSense_CSD_CSHL.c **** *
 289:.\Generated_Source\PSoC5/CapSense_CSD_CSHL.c **** *******************************************************************************/
 290:.\Generated_Source\PSoC5/CapSense_CSD_CSHL.c **** void CapSense_CSD_InitializeEnabledBaselines(void)
 291:.\Generated_Source\PSoC5/CapSense_CSD_CSHL.c ****                              
 292:.\Generated_Source\PSoC5/CapSense_CSD_CSHL.c **** {
 271              		.loc 1 292 0
 272              		.cfi_startproc
 273              		@ args = 0, pretend = 0, frame = 8
 274              		@ frame_needed = 1, uses_anonymous_args = 0
 275 0000 80B5     		push	{r7, lr}
 276              		.cfi_def_cfa_offset 8
ARM GAS  C:\Users\LUKASC~1\AppData\Local\Temp\ccd155Lz.s 			page 11


 277              		.cfi_offset 7, -8
 278              		.cfi_offset 14, -4
 279 0002 82B0     		sub	sp, sp, #8
 280              		.cfi_def_cfa_offset 16
 281 0004 00AF     		add	r7, sp, #0
 282              		.cfi_def_cfa_register 7
 293:.\Generated_Source\PSoC5/CapSense_CSD_CSHL.c ****     uint8 i;
 294:.\Generated_Source\PSoC5/CapSense_CSD_CSHL.c ****     uint8 pos;
 295:.\Generated_Source\PSoC5/CapSense_CSD_CSHL.c ****     uint8 enMask;
 296:.\Generated_Source\PSoC5/CapSense_CSD_CSHL.c ****     
 297:.\Generated_Source\PSoC5/CapSense_CSD_CSHL.c ****     CapSense_CSD_ScanEnabledWidgets();
 283              		.loc 1 297 0
 284 0006 FFF7FEFF 		bl	CapSense_CSD_ScanEnabledWidgets
 298:.\Generated_Source\PSoC5/CapSense_CSD_CSHL.c ****     while(CapSense_CSD_IsBusy() != 0u)
 285              		.loc 1 298 0
 286 000a 00BF     		nop
 287              	.L11:
 288              		.loc 1 298 0 is_stmt 0 discriminator 1
 289 000c FFF7FEFF 		bl	CapSense_CSD_IsBusy
 290 0010 0346     		mov	r3, r0
 291 0012 002B     		cmp	r3, #0
 292 0014 FAD1     		bne	.L11
 299:.\Generated_Source\PSoC5/CapSense_CSD_CSHL.c ****     {
 300:.\Generated_Source\PSoC5/CapSense_CSD_CSHL.c ****         /* Wait while busy */
 301:.\Generated_Source\PSoC5/CapSense_CSD_CSHL.c ****     }
 302:.\Generated_Source\PSoC5/CapSense_CSD_CSHL.c ****     
 303:.\Generated_Source\PSoC5/CapSense_CSD_CSHL.c ****     for(i = 0u; i < CapSense_CSD_TOTAL_SENSOR_COUNT; i++)
 293              		.loc 1 303 0 is_stmt 1
 294 0016 0023     		movs	r3, #0
 295 0018 FB71     		strb	r3, [r7, #7]
 296 001a 1DE0     		b	.L12
 297              	.L14:
 304:.\Generated_Source\PSoC5/CapSense_CSD_CSHL.c ****     {
 305:.\Generated_Source\PSoC5/CapSense_CSD_CSHL.c ****         pos = (i >> 3u);
 298              		.loc 1 305 0
 299 001c FB79     		ldrb	r3, [r7, #7]	@ zero_extendqisi2
 300 001e DB08     		lsrs	r3, r3, #3
 301 0020 BB71     		strb	r3, [r7, #6]
 306:.\Generated_Source\PSoC5/CapSense_CSD_CSHL.c ****         enMask = 0x01u << (i & 0x07u);
 302              		.loc 1 306 0
 303 0022 FB79     		ldrb	r3, [r7, #7]	@ zero_extendqisi2
 304 0024 03F00703 		and	r3, r3, #7
 305 0028 0122     		movs	r2, #1
 306 002a 02FA03F3 		lsl	r3, r2, r3
 307 002e 7B71     		strb	r3, [r7, #5]
 307:.\Generated_Source\PSoC5/CapSense_CSD_CSHL.c ****         
 308:.\Generated_Source\PSoC5/CapSense_CSD_CSHL.c ****         /* Clear raw data if sensor is disabled from scanning process */
 309:.\Generated_Source\PSoC5/CapSense_CSD_CSHL.c ****         if((CapSense_CSD_sensorEnableMask[pos] & enMask) == 0u)
 308              		.loc 1 309 0
 309 0030 BB79     		ldrb	r3, [r7, #6]	@ zero_extendqisi2
 310 0032 0C4A     		ldr	r2, .L15
 311 0034 D25C     		ldrb	r2, [r2, r3]	@ zero_extendqisi2
 312 0036 7B79     		ldrb	r3, [r7, #5]
 313 0038 1340     		ands	r3, r3, r2
 314 003a DBB2     		uxtb	r3, r3
 315 003c 002B     		cmp	r3, #0
 316 003e 04D1     		bne	.L13
ARM GAS  C:\Users\LUKASC~1\AppData\Local\Temp\ccd155Lz.s 			page 12


 310:.\Generated_Source\PSoC5/CapSense_CSD_CSHL.c ****         {
 311:.\Generated_Source\PSoC5/CapSense_CSD_CSHL.c ****             CapSense_CSD_sensorRaw[i] = 0u;
 317              		.loc 1 311 0
 318 0040 FB79     		ldrb	r3, [r7, #7]	@ zero_extendqisi2
 319 0042 094A     		ldr	r2, .L15+4
 320 0044 0021     		movs	r1, #0
 321 0046 22F81310 		strh	r1, [r2, r3, lsl #1]	@ movhi
 322              	.L13:
 312:.\Generated_Source\PSoC5/CapSense_CSD_CSHL.c ****         }
 313:.\Generated_Source\PSoC5/CapSense_CSD_CSHL.c ****         
 314:.\Generated_Source\PSoC5/CapSense_CSD_CSHL.c ****         /* Initialize baselines */
 315:.\Generated_Source\PSoC5/CapSense_CSD_CSHL.c ****         CapSense_CSD_BaseInit(i);
 323              		.loc 1 315 0 discriminator 2
 324 004a FB79     		ldrb	r3, [r7, #7]	@ zero_extendqisi2
 325 004c 1846     		mov	r0, r3
 326 004e FFF7FEFF 		bl	CapSense_CSD_BaseInit
 303:.\Generated_Source\PSoC5/CapSense_CSD_CSHL.c ****     {
 327              		.loc 1 303 0 discriminator 2
 328 0052 FB79     		ldrb	r3, [r7, #7]	@ zero_extendqisi2
 329 0054 0133     		adds	r3, r3, #1
 330 0056 FB71     		strb	r3, [r7, #7]
 331              	.L12:
 303:.\Generated_Source\PSoC5/CapSense_CSD_CSHL.c ****     {
 332              		.loc 1 303 0 is_stmt 0 discriminator 1
 333 0058 FB79     		ldrb	r3, [r7, #7]	@ zero_extendqisi2
 334 005a 062B     		cmp	r3, #6
 335 005c DED9     		bls	.L14
 316:.\Generated_Source\PSoC5/CapSense_CSD_CSHL.c ****     }
 317:.\Generated_Source\PSoC5/CapSense_CSD_CSHL.c **** }  
 336              		.loc 1 317 0 is_stmt 1
 337 005e 0837     		adds	r7, r7, #8
 338              		.cfi_def_cfa_offset 8
 339 0060 BD46     		mov	sp, r7
 340              		.cfi_def_cfa_register 13
 341              		@ sp needed
 342 0062 80BD     		pop	{r7, pc}
 343              	.L16:
 344              		.align	2
 345              	.L15:
 346 0064 00000000 		.word	CapSense_CSD_sensorEnableMask
 347 0068 00000000 		.word	CapSense_CSD_sensorRaw
 348              		.cfi_endproc
 349              	.LFE3:
 350              		.size	CapSense_CSD_InitializeEnabledBaselines, .-CapSense_CSD_InitializeEnabledBaselines
 351              		.section	.text.CapSense_CSD_UpdateSensorBaseline,"ax",%progbits
 352              		.align	2
 353              		.global	CapSense_CSD_UpdateSensorBaseline
 354              		.thumb
 355              		.thumb_func
 356              		.type	CapSense_CSD_UpdateSensorBaseline, %function
 357              	CapSense_CSD_UpdateSensorBaseline:
 358              	.LFB4:
 318:.\Generated_Source\PSoC5/CapSense_CSD_CSHL.c **** 
 319:.\Generated_Source\PSoC5/CapSense_CSD_CSHL.c **** 
 320:.\Generated_Source\PSoC5/CapSense_CSD_CSHL.c **** /*******************************************************************************
 321:.\Generated_Source\PSoC5/CapSense_CSD_CSHL.c **** * Function Name: CapSense_CSD_UpdateSensorBaseline
 322:.\Generated_Source\PSoC5/CapSense_CSD_CSHL.c **** ********************************************************************************
ARM GAS  C:\Users\LUKASC~1\AppData\Local\Temp\ccd155Lz.s 			page 13


 323:.\Generated_Source\PSoC5/CapSense_CSD_CSHL.c **** *
 324:.\Generated_Source\PSoC5/CapSense_CSD_CSHL.c **** * Summary:
 325:.\Generated_Source\PSoC5/CapSense_CSD_CSHL.c **** *  Updates the CapSense_CSD_sensorBaseline[sensor] array element using the 
 326:.\Generated_Source\PSoC5/CapSense_CSD_CSHL.c **** *  LP filter with k = 256. The signal calculates the difference of count by 
 327:.\Generated_Source\PSoC5/CapSense_CSD_CSHL.c **** *  subtracting the previous baseline from the current raw count value and stores
 328:.\Generated_Source\PSoC5/CapSense_CSD_CSHL.c **** *  it in CapSense_CSD_SensorSignal[sensor]. 
 329:.\Generated_Source\PSoC5/CapSense_CSD_CSHL.c **** *  If auto reset option is enabled the baseline updated regards noise threshold. 
 330:.\Generated_Source\PSoC5/CapSense_CSD_CSHL.c **** *  If auto reset option is disabled the baseline stops updating if signal is 
 331:.\Generated_Source\PSoC5/CapSense_CSD_CSHL.c **** *  greater that zero and baseline loads with raw count value if signal is less 
 332:.\Generated_Source\PSoC5/CapSense_CSD_CSHL.c **** *  that noise threshold.
 333:.\Generated_Source\PSoC5/CapSense_CSD_CSHL.c **** *  Raw data filters are applied to the values if enabled before baseline 
 334:.\Generated_Source\PSoC5/CapSense_CSD_CSHL.c **** *  calculation.
 335:.\Generated_Source\PSoC5/CapSense_CSD_CSHL.c **** *
 336:.\Generated_Source\PSoC5/CapSense_CSD_CSHL.c **** * Parameters:
 337:.\Generated_Source\PSoC5/CapSense_CSD_CSHL.c **** *  sensor:  Sensor number.
 338:.\Generated_Source\PSoC5/CapSense_CSD_CSHL.c **** *
 339:.\Generated_Source\PSoC5/CapSense_CSD_CSHL.c **** * Return:
 340:.\Generated_Source\PSoC5/CapSense_CSD_CSHL.c **** *  None
 341:.\Generated_Source\PSoC5/CapSense_CSD_CSHL.c **** *
 342:.\Generated_Source\PSoC5/CapSense_CSD_CSHL.c **** * Global Variables:
 343:.\Generated_Source\PSoC5/CapSense_CSD_CSHL.c **** *  CapSense_CSD_sensorBaseline[]    - used to store baseline value.
 344:.\Generated_Source\PSoC5/CapSense_CSD_CSHL.c **** *  CapSense_CSD_sensorBaselineLow[] - used to store fraction byte of 
 345:.\Generated_Source\PSoC5/CapSense_CSD_CSHL.c **** *  baseline value.
 346:.\Generated_Source\PSoC5/CapSense_CSD_CSHL.c **** *  CapSense_CSD_sensorSignal[]      - used to store diffence between 
 347:.\Generated_Source\PSoC5/CapSense_CSD_CSHL.c **** *  current value of raw data and previous value of baseline.
 348:.\Generated_Source\PSoC5/CapSense_CSD_CSHL.c **** *  CapSense_CSD_rawFilterData1[]    - used to store previous sample of 
 349:.\Generated_Source\PSoC5/CapSense_CSD_CSHL.c **** *  any enabled raw data filter.
 350:.\Generated_Source\PSoC5/CapSense_CSD_CSHL.c **** *  CapSense_CSD_rawFilterData2[]    - used to store before previous sample
 351:.\Generated_Source\PSoC5/CapSense_CSD_CSHL.c **** *  of enabled raw data filter. Only required for median or average filters.
 352:.\Generated_Source\PSoC5/CapSense_CSD_CSHL.c **** *
 353:.\Generated_Source\PSoC5/CapSense_CSD_CSHL.c **** * Reentrant:
 354:.\Generated_Source\PSoC5/CapSense_CSD_CSHL.c **** *  No
 355:.\Generated_Source\PSoC5/CapSense_CSD_CSHL.c **** *
 356:.\Generated_Source\PSoC5/CapSense_CSD_CSHL.c **** *******************************************************************************/
 357:.\Generated_Source\PSoC5/CapSense_CSD_CSHL.c ****  void CapSense_CSD_UpdateSensorBaseline(uint8 sensor)
 358:.\Generated_Source\PSoC5/CapSense_CSD_CSHL.c ****                                  
 359:.\Generated_Source\PSoC5/CapSense_CSD_CSHL.c **** {
 359              		.loc 1 359 0
 360              		.cfi_startproc
 361              		@ args = 0, pretend = 0, frame = 24
 362              		@ frame_needed = 1, uses_anonymous_args = 0
 363 0000 80B5     		push	{r7, lr}
 364              		.cfi_def_cfa_offset 8
 365              		.cfi_offset 7, -8
 366              		.cfi_offset 14, -4
 367 0002 86B0     		sub	sp, sp, #24
 368              		.cfi_def_cfa_offset 32
 369 0004 00AF     		add	r7, sp, #0
 370              		.cfi_def_cfa_register 7
 371 0006 0346     		mov	r3, r0
 372 0008 FB71     		strb	r3, [r7, #7]
 360:.\Generated_Source\PSoC5/CapSense_CSD_CSHL.c ****     uint32 calc;
 361:.\Generated_Source\PSoC5/CapSense_CSD_CSHL.c ****     uint16 tempRaw;
 362:.\Generated_Source\PSoC5/CapSense_CSD_CSHL.c ****     uint16 filteredRawData;
 363:.\Generated_Source\PSoC5/CapSense_CSD_CSHL.c ****     uint8 widget = CapSense_CSD_widgetNumber[sensor];
 373              		.loc 1 363 0
 374 000a FB79     		ldrb	r3, [r7, #7]	@ zero_extendqisi2
ARM GAS  C:\Users\LUKASC~1\AppData\Local\Temp\ccd155Lz.s 			page 14


 375 000c 454A     		ldr	r2, .L27
 376 000e D35C     		ldrb	r3, [r2, r3]
 377 0010 7B75     		strb	r3, [r7, #21]
 364:.\Generated_Source\PSoC5/CapSense_CSD_CSHL.c ****     uint16 noiseThreshold = CapSense_CSD_noiseThreshold[widget];
 378              		.loc 1 364 0
 379 0012 7B7D     		ldrb	r3, [r7, #21]	@ zero_extendqisi2
 380 0014 444A     		ldr	r2, .L27+4
 381 0016 32F81330 		ldrh	r3, [r2, r3, lsl #1]	@ movhi
 382 001a 7B82     		strh	r3, [r7, #18]	@ movhi
 365:.\Generated_Source\PSoC5/CapSense_CSD_CSHL.c ****     
 366:.\Generated_Source\PSoC5/CapSense_CSD_CSHL.c ****     #if (CapSense_CSD_TOTAL_GENERICS_COUNT)
 367:.\Generated_Source\PSoC5/CapSense_CSD_CSHL.c ****         /* Exclude generic widget */
 368:.\Generated_Source\PSoC5/CapSense_CSD_CSHL.c ****         if(widget < CapSense_CSD_END_OF_WIDGETS_INDEX)
 369:.\Generated_Source\PSoC5/CapSense_CSD_CSHL.c ****         {
 370:.\Generated_Source\PSoC5/CapSense_CSD_CSHL.c ****     #endif  /* CapSense_CSD_TOTAL_GENERICS_COUNT */
 371:.\Generated_Source\PSoC5/CapSense_CSD_CSHL.c ****     
 372:.\Generated_Source\PSoC5/CapSense_CSD_CSHL.c ****     filteredRawData = CapSense_CSD_sensorRaw[sensor];
 383              		.loc 1 372 0
 384 001c FB79     		ldrb	r3, [r7, #7]	@ zero_extendqisi2
 385 001e 434A     		ldr	r2, .L27+8
 386 0020 32F81330 		ldrh	r3, [r2, r3, lsl #1]	@ movhi
 387 0024 3B82     		strh	r3, [r7, #16]	@ movhi
 373:.\Generated_Source\PSoC5/CapSense_CSD_CSHL.c ****     
 374:.\Generated_Source\PSoC5/CapSense_CSD_CSHL.c ****     #if (CapSense_CSD_RAW_FILTER_MASK & CapSense_CSD_MEDIAN_FILTER)
 375:.\Generated_Source\PSoC5/CapSense_CSD_CSHL.c ****         tempRaw = filteredRawData;
 376:.\Generated_Source\PSoC5/CapSense_CSD_CSHL.c ****         filteredRawData = CapSense_CSD_MedianFilter(filteredRawData, CapSense_CSD_rawFilterData1[se
 377:.\Generated_Source\PSoC5/CapSense_CSD_CSHL.c ****                                                         CapSense_CSD_rawFilterData2[sensor]);
 378:.\Generated_Source\PSoC5/CapSense_CSD_CSHL.c ****         CapSense_CSD_rawFilterData2[sensor] = CapSense_CSD_rawFilterData1[sensor];
 379:.\Generated_Source\PSoC5/CapSense_CSD_CSHL.c ****         CapSense_CSD_rawFilterData1[sensor] = tempRaw;
 380:.\Generated_Source\PSoC5/CapSense_CSD_CSHL.c ****         
 381:.\Generated_Source\PSoC5/CapSense_CSD_CSHL.c ****     #elif (CapSense_CSD_RAW_FILTER_MASK & CapSense_CSD_AVERAGING_FILTER)
 382:.\Generated_Source\PSoC5/CapSense_CSD_CSHL.c ****         tempRaw = filteredRawData;
 383:.\Generated_Source\PSoC5/CapSense_CSD_CSHL.c ****         filteredRawData = CapSense_CSD_AveragingFilter(filteredRawData, CapSense_CSD_rawFilterData1
 384:.\Generated_Source\PSoC5/CapSense_CSD_CSHL.c ****                                                            CapSense_CSD_rawFilterData2[sensor]);
 385:.\Generated_Source\PSoC5/CapSense_CSD_CSHL.c ****         CapSense_CSD_rawFilterData2[sensor] = CapSense_CSD_rawFilterData1[sensor];
 386:.\Generated_Source\PSoC5/CapSense_CSD_CSHL.c ****         CapSense_CSD_rawFilterData1[sensor] = tempRaw;
 387:.\Generated_Source\PSoC5/CapSense_CSD_CSHL.c ****         
 388:.\Generated_Source\PSoC5/CapSense_CSD_CSHL.c ****     #elif (CapSense_CSD_RAW_FILTER_MASK & CapSense_CSD_IIR2_FILTER)
 389:.\Generated_Source\PSoC5/CapSense_CSD_CSHL.c ****         filteredRawData = CapSense_CSD_IIR2Filter(filteredRawData, CapSense_CSD_rawFilterData1[sens
 390:.\Generated_Source\PSoC5/CapSense_CSD_CSHL.c ****         CapSense_CSD_rawFilterData1[sensor] = filteredRawData;
 391:.\Generated_Source\PSoC5/CapSense_CSD_CSHL.c ****         
 392:.\Generated_Source\PSoC5/CapSense_CSD_CSHL.c ****     #elif (CapSense_CSD_RAW_FILTER_MASK & CapSense_CSD_IIR4_FILTER)
 393:.\Generated_Source\PSoC5/CapSense_CSD_CSHL.c ****         filteredRawData = CapSense_CSD_IIR4Filter(filteredRawData, CapSense_CSD_rawFilterData1[sens
 394:.\Generated_Source\PSoC5/CapSense_CSD_CSHL.c ****         CapSense_CSD_rawFilterData1[sensor] = filteredRawData;
 395:.\Generated_Source\PSoC5/CapSense_CSD_CSHL.c ****             
 396:.\Generated_Source\PSoC5/CapSense_CSD_CSHL.c ****     #elif (CapSense_CSD_RAW_FILTER_MASK & CapSense_CSD_JITTER_FILTER)
 397:.\Generated_Source\PSoC5/CapSense_CSD_CSHL.c ****         filteredRawData = CapSense_CSD_JitterFilter(filteredRawData, CapSense_CSD_rawFilterData1[se
 398:.\Generated_Source\PSoC5/CapSense_CSD_CSHL.c ****         CapSense_CSD_rawFilterData1[sensor] = filteredRawData;
 399:.\Generated_Source\PSoC5/CapSense_CSD_CSHL.c ****         
 400:.\Generated_Source\PSoC5/CapSense_CSD_CSHL.c ****     #elif (CapSense_CSD_RAW_FILTER_MASK & CapSense_CSD_IIR8_FILTER)
 401:.\Generated_Source\PSoC5/CapSense_CSD_CSHL.c ****         filteredRawData = CapSense_CSD_IIR8Filter(filteredRawData, CapSense_CSD_rawFilterData1[sens
 402:.\Generated_Source\PSoC5/CapSense_CSD_CSHL.c ****         CapSense_CSD_rawFilterData1[sensor] = filteredRawData;
 403:.\Generated_Source\PSoC5/CapSense_CSD_CSHL.c ****         
 404:.\Generated_Source\PSoC5/CapSense_CSD_CSHL.c ****     #elif (CapSense_CSD_RAW_FILTER_MASK & CapSense_CSD_IIR16_FILTER)
 405:.\Generated_Source\PSoC5/CapSense_CSD_CSHL.c ****         filteredRawData = CapSense_CSD_IIR16Filter(filteredRawData, CapSense_CSD_rawFilterData1[sen
 406:.\Generated_Source\PSoC5/CapSense_CSD_CSHL.c ****         CapSense_CSD_rawFilterData1[sensor] = filteredRawData;
 407:.\Generated_Source\PSoC5/CapSense_CSD_CSHL.c ****         
ARM GAS  C:\Users\LUKASC~1\AppData\Local\Temp\ccd155Lz.s 			page 15


 408:.\Generated_Source\PSoC5/CapSense_CSD_CSHL.c ****     #else
 409:.\Generated_Source\PSoC5/CapSense_CSD_CSHL.c ****         /* No Raw filters */
 410:.\Generated_Source\PSoC5/CapSense_CSD_CSHL.c ****     #endif  /* (CapSense_CSD_RAW_FILTER_MASK & CapSense_CSD_MEDIAN_FILTER) */
 411:.\Generated_Source\PSoC5/CapSense_CSD_CSHL.c ****     
 412:.\Generated_Source\PSoC5/CapSense_CSD_CSHL.c ****     #if (CapSense_CSD_TUNING_METHOD == CapSense_CSD_AUTO_TUNING)
 413:.\Generated_Source\PSoC5/CapSense_CSD_CSHL.c ****         CapSense_CSD_CalculateThresholds(sensor);
 414:.\Generated_Source\PSoC5/CapSense_CSD_CSHL.c ****     #endif /* (CapSense_CSD_TUNING_METHOD == CapSense_CSD_AUTO_TUNING) */
 415:.\Generated_Source\PSoC5/CapSense_CSD_CSHL.c **** 
 416:.\Generated_Source\PSoC5/CapSense_CSD_CSHL.c **** 
 417:.\Generated_Source\PSoC5/CapSense_CSD_CSHL.c ****     /* Baseline calculation */
 418:.\Generated_Source\PSoC5/CapSense_CSD_CSHL.c ****     /* Calculate difference RawData[cur] - Baseline[prev] */
 419:.\Generated_Source\PSoC5/CapSense_CSD_CSHL.c ****     if(filteredRawData >= CapSense_CSD_sensorBaseline[sensor])
 388              		.loc 1 419 0
 389 0026 FB79     		ldrb	r3, [r7, #7]	@ zero_extendqisi2
 390 0028 414A     		ldr	r2, .L27+12
 391 002a 32F81330 		ldrh	r3, [r2, r3, lsl #1]
 392 002e 3A8A     		ldrh	r2, [r7, #16]
 393 0030 9A42     		cmp	r2, r3
 394 0032 09D3     		bcc	.L18
 420:.\Generated_Source\PSoC5/CapSense_CSD_CSHL.c ****     {
 421:.\Generated_Source\PSoC5/CapSense_CSD_CSHL.c ****         tempRaw = filteredRawData - CapSense_CSD_sensorBaseline[sensor];
 395              		.loc 1 421 0
 396 0034 FB79     		ldrb	r3, [r7, #7]	@ zero_extendqisi2
 397 0036 3E4A     		ldr	r2, .L27+12
 398 0038 32F81330 		ldrh	r3, [r2, r3, lsl #1]
 399 003c 3A8A     		ldrh	r2, [r7, #16]	@ movhi
 400 003e D31A     		subs	r3, r2, r3
 401 0040 FB82     		strh	r3, [r7, #22]	@ movhi
 422:.\Generated_Source\PSoC5/CapSense_CSD_CSHL.c ****         widget = 1u;    /* Positive difference - Calculate the Signal */
 402              		.loc 1 422 0
 403 0042 0123     		movs	r3, #1
 404 0044 7B75     		strb	r3, [r7, #21]
 405 0046 08E0     		b	.L19
 406              	.L18:
 423:.\Generated_Source\PSoC5/CapSense_CSD_CSHL.c ****     }
 424:.\Generated_Source\PSoC5/CapSense_CSD_CSHL.c ****     else
 425:.\Generated_Source\PSoC5/CapSense_CSD_CSHL.c ****     {
 426:.\Generated_Source\PSoC5/CapSense_CSD_CSHL.c ****         tempRaw = CapSense_CSD_sensorBaseline[sensor] - filteredRawData;
 407              		.loc 1 426 0
 408 0048 FB79     		ldrb	r3, [r7, #7]	@ zero_extendqisi2
 409 004a 394A     		ldr	r2, .L27+12
 410 004c 32F81320 		ldrh	r2, [r2, r3, lsl #1]
 411 0050 3B8A     		ldrh	r3, [r7, #16]	@ movhi
 412 0052 D31A     		subs	r3, r2, r3
 413 0054 FB82     		strh	r3, [r7, #22]	@ movhi
 427:.\Generated_Source\PSoC5/CapSense_CSD_CSHL.c ****         widget = 0u;    /* Negative difference - Do NOT calculate the Signal */
 414              		.loc 1 427 0
 415 0056 0023     		movs	r3, #0
 416 0058 7B75     		strb	r3, [r7, #21]
 417              	.L19:
 428:.\Generated_Source\PSoC5/CapSense_CSD_CSHL.c ****     }
 429:.\Generated_Source\PSoC5/CapSense_CSD_CSHL.c **** 
 430:.\Generated_Source\PSoC5/CapSense_CSD_CSHL.c ****     if((widget == 0u) && (tempRaw > (uint16) CapSense_CSD_NEGATIVE_NOISE_THRESHOLD))
 418              		.loc 1 430 0
 419 005a 7B7D     		ldrb	r3, [r7, #21]	@ zero_extendqisi2
 420 005c 002B     		cmp	r3, #0
 421 005e 18D1     		bne	.L20
ARM GAS  C:\Users\LUKASC~1\AppData\Local\Temp\ccd155Lz.s 			page 16


 422              		.loc 1 430 0 is_stmt 0 discriminator 1
 423 0060 FB8A     		ldrh	r3, [r7, #22]
 424 0062 142B     		cmp	r3, #20
 425 0064 15D9     		bls	.L20
 431:.\Generated_Source\PSoC5/CapSense_CSD_CSHL.c ****     {
 432:.\Generated_Source\PSoC5/CapSense_CSD_CSHL.c ****         if(CapSense_CSD_lowBaselineResetCnt[sensor] >= CapSense_CSD_LOW_BASELINE_RESET)
 426              		.loc 1 432 0 is_stmt 1
 427 0066 FB79     		ldrb	r3, [r7, #7]	@ zero_extendqisi2
 428 0068 324A     		ldr	r2, .L27+16
 429 006a D35C     		ldrb	r3, [r2, r3]	@ zero_extendqisi2
 430 006c 042B     		cmp	r3, #4
 431 006e 08D9     		bls	.L21
 433:.\Generated_Source\PSoC5/CapSense_CSD_CSHL.c ****         {
 434:.\Generated_Source\PSoC5/CapSense_CSD_CSHL.c ****             CapSense_CSD_BaseInit(sensor);
 432              		.loc 1 434 0
 433 0070 FB79     		ldrb	r3, [r7, #7]	@ zero_extendqisi2
 434 0072 1846     		mov	r0, r3
 435 0074 FFF7FEFF 		bl	CapSense_CSD_BaseInit
 435:.\Generated_Source\PSoC5/CapSense_CSD_CSHL.c ****             CapSense_CSD_lowBaselineResetCnt[sensor] = 0u;
 436              		.loc 1 435 0
 437 0078 FB79     		ldrb	r3, [r7, #7]	@ zero_extendqisi2
 438 007a 2E4A     		ldr	r2, .L27+16
 439 007c 0021     		movs	r1, #0
 440 007e D154     		strb	r1, [r2, r3]
 432:.\Generated_Source\PSoC5/CapSense_CSD_CSHL.c ****         {
 441              		.loc 1 432 0
 442 0080 3AE0     		b	.L23
 443              	.L21:
 436:.\Generated_Source\PSoC5/CapSense_CSD_CSHL.c ****         }
 437:.\Generated_Source\PSoC5/CapSense_CSD_CSHL.c ****         else
 438:.\Generated_Source\PSoC5/CapSense_CSD_CSHL.c ****         {
 439:.\Generated_Source\PSoC5/CapSense_CSD_CSHL.c ****             CapSense_CSD_lowBaselineResetCnt[sensor]++;
 444              		.loc 1 439 0
 445 0082 FB79     		ldrb	r3, [r7, #7]	@ zero_extendqisi2
 446 0084 2B4A     		ldr	r2, .L27+16
 447 0086 D25C     		ldrb	r2, [r2, r3]	@ zero_extendqisi2
 448 0088 0132     		adds	r2, r2, #1
 449 008a D1B2     		uxtb	r1, r2
 450 008c 294A     		ldr	r2, .L27+16
 451 008e D154     		strb	r1, [r2, r3]
 432:.\Generated_Source\PSoC5/CapSense_CSD_CSHL.c ****         {
 452              		.loc 1 432 0
 453 0090 32E0     		b	.L23
 454              	.L20:
 440:.\Generated_Source\PSoC5/CapSense_CSD_CSHL.c ****         }
 441:.\Generated_Source\PSoC5/CapSense_CSD_CSHL.c ****     }
 442:.\Generated_Source\PSoC5/CapSense_CSD_CSHL.c ****     else
 443:.\Generated_Source\PSoC5/CapSense_CSD_CSHL.c ****     {
 444:.\Generated_Source\PSoC5/CapSense_CSD_CSHL.c ****         #if (CapSense_CSD_AUTO_RESET == CapSense_CSD_AUTO_RESET_DISABLE)
 445:.\Generated_Source\PSoC5/CapSense_CSD_CSHL.c ****             /* Update Baseline if lower that noiseThreshold */
 446:.\Generated_Source\PSoC5/CapSense_CSD_CSHL.c ****             if ( (tempRaw <= (uint16) noiseThreshold) || 
 455              		.loc 1 446 0
 456 0092 FA8A     		ldrh	r2, [r7, #22]
 457 0094 7B8A     		ldrh	r3, [r7, #18]
 458 0096 9A42     		cmp	r2, r3
 459 0098 05D9     		bls	.L24
 460              		.loc 1 446 0 is_stmt 0 discriminator 1
ARM GAS  C:\Users\LUKASC~1\AppData\Local\Temp\ccd155Lz.s 			page 17


 461 009a FB8A     		ldrh	r3, [r7, #22]
 462 009c 132B     		cmp	r3, #19
 463 009e 2BD8     		bhi	.L23
 447:.\Generated_Source\PSoC5/CapSense_CSD_CSHL.c ****                  ((tempRaw < (uint16) CapSense_CSD_NEGATIVE_NOISE_THRESHOLD)
 448:.\Generated_Source\PSoC5/CapSense_CSD_CSHL.c ****                    && (widget == 0u)))
 464              		.loc 1 448 0 is_stmt 1
 465 00a0 7B7D     		ldrb	r3, [r7, #21]	@ zero_extendqisi2
 466 00a2 002B     		cmp	r3, #0
 467 00a4 28D1     		bne	.L23
 468              	.L24:
 449:.\Generated_Source\PSoC5/CapSense_CSD_CSHL.c ****             {
 450:.\Generated_Source\PSoC5/CapSense_CSD_CSHL.c ****         #endif /* (CapSense_CSD_AUTO_RESET == CapSense_CSD_AUTO_RESET_DISABLE) */
 451:.\Generated_Source\PSoC5/CapSense_CSD_CSHL.c ****                 /* Make full Baseline 23 bits */
 452:.\Generated_Source\PSoC5/CapSense_CSD_CSHL.c ****                 calc = (uint32) CapSense_CSD_sensorBaseline[sensor] << 8u;
 469              		.loc 1 452 0
 470 00a6 FB79     		ldrb	r3, [r7, #7]	@ zero_extendqisi2
 471 00a8 214A     		ldr	r2, .L27+12
 472 00aa 32F81330 		ldrh	r3, [r2, r3, lsl #1]
 473 00ae 1B02     		lsls	r3, r3, #8
 474 00b0 FB60     		str	r3, [r7, #12]
 453:.\Generated_Source\PSoC5/CapSense_CSD_CSHL.c ****                 calc |= (uint32) CapSense_CSD_sensorBaselineLow[sensor];
 475              		.loc 1 453 0
 476 00b2 FB79     		ldrb	r3, [r7, #7]	@ zero_extendqisi2
 477 00b4 204A     		ldr	r2, .L27+20
 478 00b6 D35C     		ldrb	r3, [r2, r3]	@ zero_extendqisi2
 479 00b8 1A46     		mov	r2, r3
 480 00ba FB68     		ldr	r3, [r7, #12]
 481 00bc 1343     		orrs	r3, r3, r2
 482 00be FB60     		str	r3, [r7, #12]
 454:.\Generated_Source\PSoC5/CapSense_CSD_CSHL.c **** 
 455:.\Generated_Source\PSoC5/CapSense_CSD_CSHL.c ****                 /* Add Raw Data to Baseline */
 456:.\Generated_Source\PSoC5/CapSense_CSD_CSHL.c ****                 calc += filteredRawData;
 483              		.loc 1 456 0
 484 00c0 3B8A     		ldrh	r3, [r7, #16]
 485 00c2 FA68     		ldr	r2, [r7, #12]
 486 00c4 1344     		add	r3, r3, r2
 487 00c6 FB60     		str	r3, [r7, #12]
 457:.\Generated_Source\PSoC5/CapSense_CSD_CSHL.c **** 
 458:.\Generated_Source\PSoC5/CapSense_CSD_CSHL.c ****                 /* Sub the high Baseline */
 459:.\Generated_Source\PSoC5/CapSense_CSD_CSHL.c ****                 calc -= CapSense_CSD_sensorBaseline[sensor];
 488              		.loc 1 459 0
 489 00c8 FB79     		ldrb	r3, [r7, #7]	@ zero_extendqisi2
 490 00ca 194A     		ldr	r2, .L27+12
 491 00cc 32F81330 		ldrh	r3, [r2, r3, lsl #1]
 492 00d0 1A46     		mov	r2, r3
 493 00d2 FB68     		ldr	r3, [r7, #12]
 494 00d4 9B1A     		subs	r3, r3, r2
 495 00d6 FB60     		str	r3, [r7, #12]
 460:.\Generated_Source\PSoC5/CapSense_CSD_CSHL.c **** 
 461:.\Generated_Source\PSoC5/CapSense_CSD_CSHL.c ****                 /* Put Baseline and BaselineLow */
 462:.\Generated_Source\PSoC5/CapSense_CSD_CSHL.c ****                 CapSense_CSD_sensorBaseline[sensor] = ((uint16) (calc >> 8u));
 496              		.loc 1 462 0
 497 00d8 FB79     		ldrb	r3, [r7, #7]	@ zero_extendqisi2
 498 00da FA68     		ldr	r2, [r7, #12]
 499 00dc 120A     		lsrs	r2, r2, #8
 500 00de 91B2     		uxth	r1, r2
 501 00e0 134A     		ldr	r2, .L27+12
ARM GAS  C:\Users\LUKASC~1\AppData\Local\Temp\ccd155Lz.s 			page 18


 502 00e2 22F81310 		strh	r1, [r2, r3, lsl #1]	@ movhi
 463:.\Generated_Source\PSoC5/CapSense_CSD_CSHL.c ****                 CapSense_CSD_sensorBaselineLow[sensor] = ((uint8) calc);
 503              		.loc 1 463 0
 504 00e6 FB79     		ldrb	r3, [r7, #7]	@ zero_extendqisi2
 505 00e8 FA68     		ldr	r2, [r7, #12]
 506 00ea D1B2     		uxtb	r1, r2
 507 00ec 124A     		ldr	r2, .L27+20
 508 00ee D154     		strb	r1, [r2, r3]
 464:.\Generated_Source\PSoC5/CapSense_CSD_CSHL.c **** 
 465:.\Generated_Source\PSoC5/CapSense_CSD_CSHL.c ****                 CapSense_CSD_lowBaselineResetCnt[sensor] = 0u;
 509              		.loc 1 465 0
 510 00f0 FB79     		ldrb	r3, [r7, #7]	@ zero_extendqisi2
 511 00f2 104A     		ldr	r2, .L27+16
 512 00f4 0021     		movs	r1, #0
 513 00f6 D154     		strb	r1, [r2, r3]
 514              	.L23:
 466:.\Generated_Source\PSoC5/CapSense_CSD_CSHL.c ****         #if (CapSense_CSD_AUTO_RESET == CapSense_CSD_AUTO_RESET_DISABLE)
 467:.\Generated_Source\PSoC5/CapSense_CSD_CSHL.c ****             }
 468:.\Generated_Source\PSoC5/CapSense_CSD_CSHL.c ****         #endif /* (CapSense_CSD_AUTO_RESET == CapSense_CSD_AUTO_RESET_DISABLE) */
 469:.\Generated_Source\PSoC5/CapSense_CSD_CSHL.c ****     }
 470:.\Generated_Source\PSoC5/CapSense_CSD_CSHL.c **** 
 471:.\Generated_Source\PSoC5/CapSense_CSD_CSHL.c ****     /* Calculate Signal if possitive difference > noiseThreshold */
 472:.\Generated_Source\PSoC5/CapSense_CSD_CSHL.c ****     if((tempRaw > (uint16) noiseThreshold) && (widget != 0u))
 515              		.loc 1 472 0
 516 00f8 FA8A     		ldrh	r2, [r7, #22]
 517 00fa 7B8A     		ldrh	r3, [r7, #18]
 518 00fc 9A42     		cmp	r2, r3
 519 00fe 08D9     		bls	.L25
 520              		.loc 1 472 0 is_stmt 0 discriminator 1
 521 0100 7B7D     		ldrb	r3, [r7, #21]	@ zero_extendqisi2
 522 0102 002B     		cmp	r3, #0
 523 0104 05D0     		beq	.L25
 473:.\Generated_Source\PSoC5/CapSense_CSD_CSHL.c ****     {
 474:.\Generated_Source\PSoC5/CapSense_CSD_CSHL.c ****         #if (CapSense_CSD_SIGNAL_SIZE == CapSense_CSD_SIGNAL_SIZE_UINT8)
 475:.\Generated_Source\PSoC5/CapSense_CSD_CSHL.c ****             /* Over flow defence for uint8 */
 476:.\Generated_Source\PSoC5/CapSense_CSD_CSHL.c ****             if (tempRaw > 0xFFu)
 477:.\Generated_Source\PSoC5/CapSense_CSD_CSHL.c ****             {
 478:.\Generated_Source\PSoC5/CapSense_CSD_CSHL.c ****                 CapSense_CSD_sensorSignal[sensor] = 0xFFu;
 479:.\Generated_Source\PSoC5/CapSense_CSD_CSHL.c ****             }    
 480:.\Generated_Source\PSoC5/CapSense_CSD_CSHL.c ****             else 
 481:.\Generated_Source\PSoC5/CapSense_CSD_CSHL.c ****             {
 482:.\Generated_Source\PSoC5/CapSense_CSD_CSHL.c ****                 CapSense_CSD_sensorSignal[sensor] = ((uint8) tempRaw);
 483:.\Generated_Source\PSoC5/CapSense_CSD_CSHL.c ****             }
 484:.\Generated_Source\PSoC5/CapSense_CSD_CSHL.c ****         #else
 485:.\Generated_Source\PSoC5/CapSense_CSD_CSHL.c ****             CapSense_CSD_sensorSignal[sensor] = ((uint16) tempRaw);
 524              		.loc 1 485 0 is_stmt 1
 525 0106 FB79     		ldrb	r3, [r7, #7]	@ zero_extendqisi2
 526 0108 0C49     		ldr	r1, .L27+24
 527 010a FA8A     		ldrh	r2, [r7, #22]	@ movhi
 528 010c 21F81320 		strh	r2, [r1, r3, lsl #1]	@ movhi
 529 0110 04E0     		b	.L17
 530              	.L25:
 486:.\Generated_Source\PSoC5/CapSense_CSD_CSHL.c ****         #endif  /* (CapSense_CSD_SIGNAL_SIZE == CapSense_CSD_SIGNAL_SIZE_UINT8) */
 487:.\Generated_Source\PSoC5/CapSense_CSD_CSHL.c ****     }
 488:.\Generated_Source\PSoC5/CapSense_CSD_CSHL.c ****     else
 489:.\Generated_Source\PSoC5/CapSense_CSD_CSHL.c ****     {
 490:.\Generated_Source\PSoC5/CapSense_CSD_CSHL.c ****         /* Signal is zero */
ARM GAS  C:\Users\LUKASC~1\AppData\Local\Temp\ccd155Lz.s 			page 19


 491:.\Generated_Source\PSoC5/CapSense_CSD_CSHL.c ****         CapSense_CSD_sensorSignal[sensor] = 0u;
 531              		.loc 1 491 0
 532 0112 FB79     		ldrb	r3, [r7, #7]	@ zero_extendqisi2
 533 0114 094A     		ldr	r2, .L27+24
 534 0116 0021     		movs	r1, #0
 535 0118 22F81310 		strh	r1, [r2, r3, lsl #1]	@ movhi
 536              	.L17:
 492:.\Generated_Source\PSoC5/CapSense_CSD_CSHL.c ****     }
 493:.\Generated_Source\PSoC5/CapSense_CSD_CSHL.c **** 
 494:.\Generated_Source\PSoC5/CapSense_CSD_CSHL.c ****     #if (CapSense_CSD_TOTAL_GENERICS_COUNT)
 495:.\Generated_Source\PSoC5/CapSense_CSD_CSHL.c ****         /* Exclude generic widget */
 496:.\Generated_Source\PSoC5/CapSense_CSD_CSHL.c ****         }
 497:.\Generated_Source\PSoC5/CapSense_CSD_CSHL.c ****     #endif  /* CapSense_CSD_TOTAL_GENERICS_COUNT */
 498:.\Generated_Source\PSoC5/CapSense_CSD_CSHL.c **** }
 537              		.loc 1 498 0
 538 011c 1837     		adds	r7, r7, #24
 539              		.cfi_def_cfa_offset 8
 540 011e BD46     		mov	sp, r7
 541              		.cfi_def_cfa_register 13
 542              		@ sp needed
 543 0120 80BD     		pop	{r7, pc}
 544              	.L28:
 545 0122 00BF     		.align	2
 546              	.L27:
 547 0124 00000000 		.word	CapSense_CSD_widgetNumber
 548 0128 00000000 		.word	CapSense_CSD_noiseThreshold
 549 012c 00000000 		.word	CapSense_CSD_sensorRaw
 550 0130 00000000 		.word	CapSense_CSD_sensorBaseline
 551 0134 00000000 		.word	CapSense_CSD_lowBaselineResetCnt
 552 0138 00000000 		.word	CapSense_CSD_sensorBaselineLow
 553 013c 00000000 		.word	CapSense_CSD_sensorSignal
 554              		.cfi_endproc
 555              	.LFE4:
 556              		.size	CapSense_CSD_UpdateSensorBaseline, .-CapSense_CSD_UpdateSensorBaseline
 557              		.section	.text.CapSense_CSD_UpdateEnabledBaselines,"ax",%progbits
 558              		.align	2
 559              		.global	CapSense_CSD_UpdateEnabledBaselines
 560              		.thumb
 561              		.thumb_func
 562              		.type	CapSense_CSD_UpdateEnabledBaselines, %function
 563              	CapSense_CSD_UpdateEnabledBaselines:
 564              	.LFB5:
 499:.\Generated_Source\PSoC5/CapSense_CSD_CSHL.c **** 
 500:.\Generated_Source\PSoC5/CapSense_CSD_CSHL.c **** 
 501:.\Generated_Source\PSoC5/CapSense_CSD_CSHL.c **** /*******************************************************************************
 502:.\Generated_Source\PSoC5/CapSense_CSD_CSHL.c **** * Function Name: CapSense_CSD_UpdateEnabledBaselines
 503:.\Generated_Source\PSoC5/CapSense_CSD_CSHL.c **** ********************************************************************************
 504:.\Generated_Source\PSoC5/CapSense_CSD_CSHL.c **** *
 505:.\Generated_Source\PSoC5/CapSense_CSD_CSHL.c **** * Summary:
 506:.\Generated_Source\PSoC5/CapSense_CSD_CSHL.c **** *  Checks CapSense_CSD_sensorEnableMask[] array and calls the 
 507:.\Generated_Source\PSoC5/CapSense_CSD_CSHL.c **** *  CapSense_CSD_UpdateSensorBaseline function to update the baselines 
 508:.\Generated_Source\PSoC5/CapSense_CSD_CSHL.c **** *  for enabled sensors.
 509:.\Generated_Source\PSoC5/CapSense_CSD_CSHL.c **** *
 510:.\Generated_Source\PSoC5/CapSense_CSD_CSHL.c **** * Parameters:
 511:.\Generated_Source\PSoC5/CapSense_CSD_CSHL.c **** *  None
 512:.\Generated_Source\PSoC5/CapSense_CSD_CSHL.c **** *
 513:.\Generated_Source\PSoC5/CapSense_CSD_CSHL.c **** * Return:
ARM GAS  C:\Users\LUKASC~1\AppData\Local\Temp\ccd155Lz.s 			page 20


 514:.\Generated_Source\PSoC5/CapSense_CSD_CSHL.c **** *  None
 515:.\Generated_Source\PSoC5/CapSense_CSD_CSHL.c **** *
 516:.\Generated_Source\PSoC5/CapSense_CSD_CSHL.c **** * Global Variables:
 517:.\Generated_Source\PSoC5/CapSense_CSD_CSHL.c **** *  CapSense_CSD_sensorEnableMask[] - used to store the sensor scanning 
 518:.\Generated_Source\PSoC5/CapSense_CSD_CSHL.c **** *  state.
 519:.\Generated_Source\PSoC5/CapSense_CSD_CSHL.c **** *  CapSense_CSD_sensorEnableMask[0] contains the masked bits for sensors 
 520:.\Generated_Source\PSoC5/CapSense_CSD_CSHL.c **** *   0 through 7 (sensor 0 is bit 0, sensor 1 is bit 1).
 521:.\Generated_Source\PSoC5/CapSense_CSD_CSHL.c **** *  CapSense_CSD_sensorEnableMask[1] contains the masked bits for 
 522:.\Generated_Source\PSoC5/CapSense_CSD_CSHL.c **** *  sensors 8 through 15 (if needed), and so on.
 523:.\Generated_Source\PSoC5/CapSense_CSD_CSHL.c **** *  0 - sensor doesn't scan by CapSense_CSD_ScanEnabledWidgets().
 524:.\Generated_Source\PSoC5/CapSense_CSD_CSHL.c **** *  1 - sensor scans by CapSense_CSD_ScanEnabledWidgets().
 525:.\Generated_Source\PSoC5/CapSense_CSD_CSHL.c **** *
 526:.\Generated_Source\PSoC5/CapSense_CSD_CSHL.c **** * Reentrant:
 527:.\Generated_Source\PSoC5/CapSense_CSD_CSHL.c **** *  No
 528:.\Generated_Source\PSoC5/CapSense_CSD_CSHL.c **** *
 529:.\Generated_Source\PSoC5/CapSense_CSD_CSHL.c **** *******************************************************************************/
 530:.\Generated_Source\PSoC5/CapSense_CSD_CSHL.c ****  void CapSense_CSD_UpdateEnabledBaselines(void)
 531:.\Generated_Source\PSoC5/CapSense_CSD_CSHL.c ****                                  
 532:.\Generated_Source\PSoC5/CapSense_CSD_CSHL.c **** {
 565              		.loc 1 532 0
 566              		.cfi_startproc
 567              		@ args = 0, pretend = 0, frame = 8
 568              		@ frame_needed = 1, uses_anonymous_args = 0
 569 0000 80B5     		push	{r7, lr}
 570              		.cfi_def_cfa_offset 8
 571              		.cfi_offset 7, -8
 572              		.cfi_offset 14, -4
 573 0002 82B0     		sub	sp, sp, #8
 574              		.cfi_def_cfa_offset 16
 575 0004 00AF     		add	r7, sp, #0
 576              		.cfi_def_cfa_register 7
 533:.\Generated_Source\PSoC5/CapSense_CSD_CSHL.c ****     uint8 i;
 534:.\Generated_Source\PSoC5/CapSense_CSD_CSHL.c ****     uint8 pos;
 535:.\Generated_Source\PSoC5/CapSense_CSD_CSHL.c ****     uint8 enMask;
 536:.\Generated_Source\PSoC5/CapSense_CSD_CSHL.c ****     
 537:.\Generated_Source\PSoC5/CapSense_CSD_CSHL.c ****     for(i = 0u; i < CapSense_CSD_TOTAL_SENSOR_COUNT; i++)
 577              		.loc 1 537 0
 578 0006 0023     		movs	r3, #0
 579 0008 FB71     		strb	r3, [r7, #7]
 580 000a 18E0     		b	.L30
 581              	.L32:
 538:.\Generated_Source\PSoC5/CapSense_CSD_CSHL.c ****     {
 539:.\Generated_Source\PSoC5/CapSense_CSD_CSHL.c ****         pos = (i >> 3u);
 582              		.loc 1 539 0
 583 000c FB79     		ldrb	r3, [r7, #7]	@ zero_extendqisi2
 584 000e DB08     		lsrs	r3, r3, #3
 585 0010 BB71     		strb	r3, [r7, #6]
 540:.\Generated_Source\PSoC5/CapSense_CSD_CSHL.c ****         enMask = (uint8)(0x01u << (i & 0x07u));
 586              		.loc 1 540 0
 587 0012 FB79     		ldrb	r3, [r7, #7]	@ zero_extendqisi2
 588 0014 03F00703 		and	r3, r3, #7
 589 0018 0122     		movs	r2, #1
 590 001a 02FA03F3 		lsl	r3, r2, r3
 591 001e 7B71     		strb	r3, [r7, #5]
 541:.\Generated_Source\PSoC5/CapSense_CSD_CSHL.c ****         if((CapSense_CSD_sensorEnableMask[pos] & enMask) != 0u)
 592              		.loc 1 541 0
 593 0020 BB79     		ldrb	r3, [r7, #6]	@ zero_extendqisi2
ARM GAS  C:\Users\LUKASC~1\AppData\Local\Temp\ccd155Lz.s 			page 21


 594 0022 0A4A     		ldr	r2, .L33
 595 0024 D25C     		ldrb	r2, [r2, r3]	@ zero_extendqisi2
 596 0026 7B79     		ldrb	r3, [r7, #5]
 597 0028 1340     		ands	r3, r3, r2
 598 002a DBB2     		uxtb	r3, r3
 599 002c 002B     		cmp	r3, #0
 600 002e 03D0     		beq	.L31
 542:.\Generated_Source\PSoC5/CapSense_CSD_CSHL.c ****         {
 543:.\Generated_Source\PSoC5/CapSense_CSD_CSHL.c ****             CapSense_CSD_UpdateSensorBaseline(i);
 601              		.loc 1 543 0
 602 0030 FB79     		ldrb	r3, [r7, #7]	@ zero_extendqisi2
 603 0032 1846     		mov	r0, r3
 604 0034 FFF7FEFF 		bl	CapSense_CSD_UpdateSensorBaseline
 605              	.L31:
 537:.\Generated_Source\PSoC5/CapSense_CSD_CSHL.c ****     {
 606              		.loc 1 537 0 discriminator 2
 607 0038 FB79     		ldrb	r3, [r7, #7]	@ zero_extendqisi2
 608 003a 0133     		adds	r3, r3, #1
 609 003c FB71     		strb	r3, [r7, #7]
 610              	.L30:
 537:.\Generated_Source\PSoC5/CapSense_CSD_CSHL.c ****     {
 611              		.loc 1 537 0 is_stmt 0 discriminator 1
 612 003e FB79     		ldrb	r3, [r7, #7]	@ zero_extendqisi2
 613 0040 062B     		cmp	r3, #6
 614 0042 E3D9     		bls	.L32
 544:.\Generated_Source\PSoC5/CapSense_CSD_CSHL.c ****         }
 545:.\Generated_Source\PSoC5/CapSense_CSD_CSHL.c ****     }
 546:.\Generated_Source\PSoC5/CapSense_CSD_CSHL.c **** }
 615              		.loc 1 546 0 is_stmt 1
 616 0044 0837     		adds	r7, r7, #8
 617              		.cfi_def_cfa_offset 8
 618 0046 BD46     		mov	sp, r7
 619              		.cfi_def_cfa_register 13
 620              		@ sp needed
 621 0048 80BD     		pop	{r7, pc}
 622              	.L34:
 623 004a 00BF     		.align	2
 624              	.L33:
 625 004c 00000000 		.word	CapSense_CSD_sensorEnableMask
 626              		.cfi_endproc
 627              	.LFE5:
 628              		.size	CapSense_CSD_UpdateEnabledBaselines, .-CapSense_CSD_UpdateEnabledBaselines
 629              		.section	.text.CapSense_CSD_CheckIsSensorActive,"ax",%progbits
 630              		.align	2
 631              		.global	CapSense_CSD_CheckIsSensorActive
 632              		.thumb
 633              		.thumb_func
 634              		.type	CapSense_CSD_CheckIsSensorActive, %function
 635              	CapSense_CSD_CheckIsSensorActive:
 636              	.LFB6:
 547:.\Generated_Source\PSoC5/CapSense_CSD_CSHL.c **** 
 548:.\Generated_Source\PSoC5/CapSense_CSD_CSHL.c **** 
 549:.\Generated_Source\PSoC5/CapSense_CSD_CSHL.c **** /*******************************************************************************
 550:.\Generated_Source\PSoC5/CapSense_CSD_CSHL.c **** * Function Name: CapSense_CSD_CheckIsSensorActive
 551:.\Generated_Source\PSoC5/CapSense_CSD_CSHL.c **** ********************************************************************************
 552:.\Generated_Source\PSoC5/CapSense_CSD_CSHL.c **** *
 553:.\Generated_Source\PSoC5/CapSense_CSD_CSHL.c **** * Summary:
ARM GAS  C:\Users\LUKASC~1\AppData\Local\Temp\ccd155Lz.s 			page 22


 554:.\Generated_Source\PSoC5/CapSense_CSD_CSHL.c **** *  Compares the CapSense_CSD_SensorSignal[sensor] array element to finger
 555:.\Generated_Source\PSoC5/CapSense_CSD_CSHL.c **** *  threshold of widget it belongs to. The hysteresis and debounce are taken into 
 556:.\Generated_Source\PSoC5/CapSense_CSD_CSHL.c **** *  account. The hysteresis is added or subtracted from the finger threshold 
 557:.\Generated_Source\PSoC5/CapSense_CSD_CSHL.c **** *  based on whether the sensor is currently active. 
 558:.\Generated_Source\PSoC5/CapSense_CSD_CSHL.c **** *  If the sensor is active, the threshold is lowered by the hysteresis amount.
 559:.\Generated_Source\PSoC5/CapSense_CSD_CSHL.c **** *  If the sensor is inactive, the threshold is raised by the hysteresis amount.
 560:.\Generated_Source\PSoC5/CapSense_CSD_CSHL.c **** *  The debounce counter added to the sensor active transition.
 561:.\Generated_Source\PSoC5/CapSense_CSD_CSHL.c **** *  This function updates CapSense_CSD_SensorOnMask[] array element.
 562:.\Generated_Source\PSoC5/CapSense_CSD_CSHL.c **** *
 563:.\Generated_Source\PSoC5/CapSense_CSD_CSHL.c **** * Parameters:
 564:.\Generated_Source\PSoC5/CapSense_CSD_CSHL.c **** *  sensor:  Sensor number.
 565:.\Generated_Source\PSoC5/CapSense_CSD_CSHL.c **** *
 566:.\Generated_Source\PSoC5/CapSense_CSD_CSHL.c **** * Return:
 567:.\Generated_Source\PSoC5/CapSense_CSD_CSHL.c **** *  Returns sensor state 1 if active, 0 if not active.
 568:.\Generated_Source\PSoC5/CapSense_CSD_CSHL.c **** *
 569:.\Generated_Source\PSoC5/CapSense_CSD_CSHL.c **** * Global Variables:
 570:.\Generated_Source\PSoC5/CapSense_CSD_CSHL.c **** *  CapSense_CSD_sensorSignal[]      - used to store diffence between 
 571:.\Generated_Source\PSoC5/CapSense_CSD_CSHL.c **** *  current value of raw data and previous value of baseline.
 572:.\Generated_Source\PSoC5/CapSense_CSD_CSHL.c **** *  CapSense_CSD_debounceCounter[]   - used to store current debounce 
 573:.\Generated_Source\PSoC5/CapSense_CSD_CSHL.c **** *  counter of sensor. Widget which has this parameter are buttons, matrix 
 574:.\Generated_Source\PSoC5/CapSense_CSD_CSHL.c **** *  buttons, proximity, guard. All other widgets haven't debounce parameter
 575:.\Generated_Source\PSoC5/CapSense_CSD_CSHL.c **** *  and use the last element of this array with value 0 (it means no debounce).
 576:.\Generated_Source\PSoC5/CapSense_CSD_CSHL.c **** *  CapSense_CSD_sensorOnMask[] - used to store sensors on/off state.
 577:.\Generated_Source\PSoC5/CapSense_CSD_CSHL.c **** *  CapSense_CSD_sensorOnMask[0] contains the masked bits for sensors 
 578:.\Generated_Source\PSoC5/CapSense_CSD_CSHL.c **** *   0 through 7 (sensor 0 is bit 0, sensor 1 is bit 1).
 579:.\Generated_Source\PSoC5/CapSense_CSD_CSHL.c **** *  CapSense_CSD_sensorEnableMask[1] contains the masked bits for 
 580:.\Generated_Source\PSoC5/CapSense_CSD_CSHL.c **** *  sensors 8 through 15 (if needed), and so on.
 581:.\Generated_Source\PSoC5/CapSense_CSD_CSHL.c **** *  0 - sensor is inactive.
 582:.\Generated_Source\PSoC5/CapSense_CSD_CSHL.c **** *  1 - sensor is active.
 583:.\Generated_Source\PSoC5/CapSense_CSD_CSHL.c **** *
 584:.\Generated_Source\PSoC5/CapSense_CSD_CSHL.c **** * Reentrant:
 585:.\Generated_Source\PSoC5/CapSense_CSD_CSHL.c **** *  No
 586:.\Generated_Source\PSoC5/CapSense_CSD_CSHL.c **** *
 587:.\Generated_Source\PSoC5/CapSense_CSD_CSHL.c **** *******************************************************************************/
 588:.\Generated_Source\PSoC5/CapSense_CSD_CSHL.c **** uint8 CapSense_CSD_CheckIsSensorActive(uint8 sensor)
 589:.\Generated_Source\PSoC5/CapSense_CSD_CSHL.c ****                                   
 590:.\Generated_Source\PSoC5/CapSense_CSD_CSHL.c **** {
 637              		.loc 1 590 0
 638              		.cfi_startproc
 639              		@ args = 0, pretend = 0, frame = 24
 640              		@ frame_needed = 1, uses_anonymous_args = 0
 641              		@ link register save eliminated.
 642 0000 80B4     		push	{r7}
 643              		.cfi_def_cfa_offset 4
 644              		.cfi_offset 7, -4
 645 0002 87B0     		sub	sp, sp, #28
 646              		.cfi_def_cfa_offset 32
 647 0004 00AF     		add	r7, sp, #0
 648              		.cfi_def_cfa_register 7
 649 0006 0346     		mov	r3, r0
 650 0008 FB71     		strb	r3, [r7, #7]
 591:.\Generated_Source\PSoC5/CapSense_CSD_CSHL.c ****     uint8 debounceIndex;
 592:.\Generated_Source\PSoC5/CapSense_CSD_CSHL.c ****     /* Get On/Off mask */
 593:.\Generated_Source\PSoC5/CapSense_CSD_CSHL.c ****     uint8 pos = (sensor >> 3u);
 651              		.loc 1 593 0
 652 000a FB79     		ldrb	r3, [r7, #7]	@ zero_extendqisi2
 653 000c DB08     		lsrs	r3, r3, #3
ARM GAS  C:\Users\LUKASC~1\AppData\Local\Temp\ccd155Lz.s 			page 23


 654 000e BB75     		strb	r3, [r7, #22]
 594:.\Generated_Source\PSoC5/CapSense_CSD_CSHL.c ****     uint8 onMask = 0x01u << (sensor & 0x07u);
 655              		.loc 1 594 0
 656 0010 FB79     		ldrb	r3, [r7, #7]	@ zero_extendqisi2
 657 0012 03F00703 		and	r3, r3, #7
 658 0016 0122     		movs	r2, #1
 659 0018 02FA03F3 		lsl	r3, r2, r3
 660 001c 7B75     		strb	r3, [r7, #21]
 595:.\Generated_Source\PSoC5/CapSense_CSD_CSHL.c ****     /* Prepare to find debounce counter index */
 596:.\Generated_Source\PSoC5/CapSense_CSD_CSHL.c ****     uint8 widget = CapSense_CSD_widgetNumber[sensor];
 661              		.loc 1 596 0
 662 001e FB79     		ldrb	r3, [r7, #7]	@ zero_extendqisi2
 663 0020 3A4A     		ldr	r2, .L46
 664 0022 D35C     		ldrb	r3, [r2, r3]
 665 0024 3B75     		strb	r3, [r7, #20]
 597:.\Generated_Source\PSoC5/CapSense_CSD_CSHL.c ****     uint16 fingerThreshold = CapSense_CSD_fingerThreshold[widget];
 666              		.loc 1 597 0
 667 0026 3B7D     		ldrb	r3, [r7, #20]	@ zero_extendqisi2
 668 0028 394A     		ldr	r2, .L46+4
 669 002a 32F81330 		ldrh	r3, [r2, r3, lsl #1]	@ movhi
 670 002e 7B82     		strh	r3, [r7, #18]	@ movhi
 598:.\Generated_Source\PSoC5/CapSense_CSD_CSHL.c ****     uint16 hysteresis = CapSense_CSD_hysteresis[widget];
 671              		.loc 1 598 0
 672 0030 3B7D     		ldrb	r3, [r7, #20]	@ zero_extendqisi2
 673 0032 384A     		ldr	r2, .L46+8
 674 0034 32F81330 		ldrh	r3, [r2, r3, lsl #1]	@ movhi
 675 0038 3B82     		strh	r3, [r7, #16]	@ movhi
 599:.\Generated_Source\PSoC5/CapSense_CSD_CSHL.c ****     uint8 debounce = CapSense_CSD_debounce[widget];
 676              		.loc 1 599 0
 677 003a 3B7D     		ldrb	r3, [r7, #20]	@ zero_extendqisi2
 678 003c 364A     		ldr	r2, .L46+12
 679 003e D35C     		ldrb	r3, [r2, r3]
 680 0040 FB73     		strb	r3, [r7, #15]
 600:.\Generated_Source\PSoC5/CapSense_CSD_CSHL.c ****     
 601:.\Generated_Source\PSoC5/CapSense_CSD_CSHL.c ****     if (widget < CapSense_CSD_TOTAL_CENTROIDS_COUNT)
 681              		.loc 1 601 0
 682 0042 3B7D     		ldrb	r3, [r7, #20]	@ zero_extendqisi2
 683 0044 002B     		cmp	r3, #0
 684 0046 06D1     		bne	.L36
 602:.\Generated_Source\PSoC5/CapSense_CSD_CSHL.c ****     {
 603:.\Generated_Source\PSoC5/CapSense_CSD_CSHL.c ****         debounceIndex = CapSense_CSD_UNUSED_DEBOUNCE_COUNTER_INDEX;
 685              		.loc 1 603 0
 686 0048 0223     		movs	r3, #2
 687 004a FB75     		strb	r3, [r7, #23]
 604:.\Generated_Source\PSoC5/CapSense_CSD_CSHL.c ****         CapSense_CSD_debounceCounter[debounceIndex] = 1u;
 688              		.loc 1 604 0
 689 004c FB7D     		ldrb	r3, [r7, #23]	@ zero_extendqisi2
 690 004e 334A     		ldr	r2, .L46+16
 691 0050 0121     		movs	r1, #1
 692 0052 D154     		strb	r1, [r2, r3]
 693 0054 02E0     		b	.L37
 694              	.L36:
 605:.\Generated_Source\PSoC5/CapSense_CSD_CSHL.c ****     }
 606:.\Generated_Source\PSoC5/CapSense_CSD_CSHL.c ****     else
 607:.\Generated_Source\PSoC5/CapSense_CSD_CSHL.c ****     {
 608:.\Generated_Source\PSoC5/CapSense_CSD_CSHL.c ****         debounceIndex = widget - (CapSense_CSD_END_OF_TOUCH_PAD_INDEX + 1);
 695              		.loc 1 608 0
ARM GAS  C:\Users\LUKASC~1\AppData\Local\Temp\ccd155Lz.s 			page 24


 696 0056 3B7D     		ldrb	r3, [r7, #20]
 697 0058 013B     		subs	r3, r3, #1
 698 005a FB75     		strb	r3, [r7, #23]
 699              	.L37:
 609:.\Generated_Source\PSoC5/CapSense_CSD_CSHL.c ****     }
 610:.\Generated_Source\PSoC5/CapSense_CSD_CSHL.c **** 
 611:.\Generated_Source\PSoC5/CapSense_CSD_CSHL.c ****     
 612:.\Generated_Source\PSoC5/CapSense_CSD_CSHL.c ****     /* Was on */
 613:.\Generated_Source\PSoC5/CapSense_CSD_CSHL.c ****     if (0u != (CapSense_CSD_sensorOnMask[pos] & onMask))
 700              		.loc 1 613 0
 701 005c BB7D     		ldrb	r3, [r7, #22]	@ zero_extendqisi2
 702 005e 304A     		ldr	r2, .L46+20
 703 0060 D25C     		ldrb	r2, [r2, r3]	@ zero_extendqisi2
 704 0062 7B7D     		ldrb	r3, [r7, #21]
 705 0064 1340     		ands	r3, r3, r2
 706 0066 DBB2     		uxtb	r3, r3
 707 0068 002B     		cmp	r3, #0
 708 006a 19D0     		beq	.L38
 614:.\Generated_Source\PSoC5/CapSense_CSD_CSHL.c ****     {
 615:.\Generated_Source\PSoC5/CapSense_CSD_CSHL.c ****         /* Hysteresis minus */
 616:.\Generated_Source\PSoC5/CapSense_CSD_CSHL.c ****         if (CapSense_CSD_sensorSignal[sensor] < (fingerThreshold - hysteresis))
 709              		.loc 1 616 0
 710 006c FB79     		ldrb	r3, [r7, #7]	@ zero_extendqisi2
 711 006e 2D4A     		ldr	r2, .L46+24
 712 0070 32F81330 		ldrh	r3, [r2, r3, lsl #1]
 713 0074 1946     		mov	r1, r3
 714 0076 7A8A     		ldrh	r2, [r7, #18]
 715 0078 3B8A     		ldrh	r3, [r7, #16]
 716 007a D31A     		subs	r3, r2, r3
 717 007c 9942     		cmp	r1, r3
 718 007e 33DA     		bge	.L40
 617:.\Generated_Source\PSoC5/CapSense_CSD_CSHL.c ****         {
 618:.\Generated_Source\PSoC5/CapSense_CSD_CSHL.c ****             CapSense_CSD_sensorOnMask[pos] &= (uint8)~onMask;
 719              		.loc 1 618 0
 720 0080 BB7D     		ldrb	r3, [r7, #22]	@ zero_extendqisi2
 721 0082 BA7D     		ldrb	r2, [r7, #22]	@ zero_extendqisi2
 722 0084 2649     		ldr	r1, .L46+20
 723 0086 895C     		ldrb	r1, [r1, r2]	@ zero_extendqisi2
 724 0088 7A7D     		ldrb	r2, [r7, #21]
 725 008a D243     		mvns	r2, r2
 726 008c D2B2     		uxtb	r2, r2
 727 008e 0A40     		ands	r2, r2, r1
 728 0090 D1B2     		uxtb	r1, r2
 729 0092 234A     		ldr	r2, .L46+20
 730 0094 D154     		strb	r1, [r2, r3]
 619:.\Generated_Source\PSoC5/CapSense_CSD_CSHL.c ****             CapSense_CSD_debounceCounter[debounceIndex] = debounce; 
 731              		.loc 1 619 0
 732 0096 FB7D     		ldrb	r3, [r7, #23]	@ zero_extendqisi2
 733 0098 2049     		ldr	r1, .L46+16
 734 009a FA7B     		ldrb	r2, [r7, #15]
 735 009c CA54     		strb	r2, [r1, r3]
 736 009e 23E0     		b	.L40
 737              	.L38:
 620:.\Generated_Source\PSoC5/CapSense_CSD_CSHL.c ****         }
 621:.\Generated_Source\PSoC5/CapSense_CSD_CSHL.c ****     }
 622:.\Generated_Source\PSoC5/CapSense_CSD_CSHL.c ****     else    /* Was off */
 623:.\Generated_Source\PSoC5/CapSense_CSD_CSHL.c ****     {
ARM GAS  C:\Users\LUKASC~1\AppData\Local\Temp\ccd155Lz.s 			page 25


 624:.\Generated_Source\PSoC5/CapSense_CSD_CSHL.c ****         /* Hysteresis plus */
 625:.\Generated_Source\PSoC5/CapSense_CSD_CSHL.c ****         if (CapSense_CSD_sensorSignal[sensor] > (fingerThreshold + hysteresis))
 738              		.loc 1 625 0
 739 00a0 FB79     		ldrb	r3, [r7, #7]	@ zero_extendqisi2
 740 00a2 204A     		ldr	r2, .L46+24
 741 00a4 32F81330 		ldrh	r3, [r2, r3, lsl #1]
 742 00a8 1946     		mov	r1, r3
 743 00aa 7A8A     		ldrh	r2, [r7, #18]
 744 00ac 3B8A     		ldrh	r3, [r7, #16]
 745 00ae 1344     		add	r3, r3, r2
 746 00b0 9942     		cmp	r1, r3
 747 00b2 15DD     		ble	.L41
 626:.\Generated_Source\PSoC5/CapSense_CSD_CSHL.c ****         {
 627:.\Generated_Source\PSoC5/CapSense_CSD_CSHL.c ****             /* Sensor active, decrement debounce counter */
 628:.\Generated_Source\PSoC5/CapSense_CSD_CSHL.c ****             if (CapSense_CSD_debounceCounter[debounceIndex] <= 1u)
 748              		.loc 1 628 0
 749 00b4 FB7D     		ldrb	r3, [r7, #23]	@ zero_extendqisi2
 750 00b6 194A     		ldr	r2, .L46+16
 751 00b8 D35C     		ldrb	r3, [r2, r3]	@ zero_extendqisi2
 752 00ba 012B     		cmp	r3, #1
 753 00bc 08D8     		bhi	.L42
 629:.\Generated_Source\PSoC5/CapSense_CSD_CSHL.c ****             {
 630:.\Generated_Source\PSoC5/CapSense_CSD_CSHL.c ****                 CapSense_CSD_sensorOnMask[pos] |= onMask; 
 754              		.loc 1 630 0
 755 00be BB7D     		ldrb	r3, [r7, #22]	@ zero_extendqisi2
 756 00c0 BA7D     		ldrb	r2, [r7, #22]	@ zero_extendqisi2
 757 00c2 1749     		ldr	r1, .L46+20
 758 00c4 895C     		ldrb	r1, [r1, r2]	@ zero_extendqisi2
 759 00c6 7A7D     		ldrb	r2, [r7, #21]
 760 00c8 0A43     		orrs	r2, r2, r1
 761 00ca D1B2     		uxtb	r1, r2
 762 00cc 144A     		ldr	r2, .L46+20
 763 00ce D154     		strb	r1, [r2, r3]
 764              	.L42:
 631:.\Generated_Source\PSoC5/CapSense_CSD_CSHL.c ****             }
 632:.\Generated_Source\PSoC5/CapSense_CSD_CSHL.c ****             CapSense_CSD_debounceCounter[debounceIndex]--;
 765              		.loc 1 632 0
 766 00d0 FB7D     		ldrb	r3, [r7, #23]	@ zero_extendqisi2
 767 00d2 124A     		ldr	r2, .L46+16
 768 00d4 D25C     		ldrb	r2, [r2, r3]	@ zero_extendqisi2
 769 00d6 013A     		subs	r2, r2, #1
 770 00d8 D1B2     		uxtb	r1, r2
 771 00da 104A     		ldr	r2, .L46+16
 772 00dc D154     		strb	r1, [r2, r3]
 773 00de 03E0     		b	.L40
 774              	.L41:
 633:.\Generated_Source\PSoC5/CapSense_CSD_CSHL.c ****         }
 634:.\Generated_Source\PSoC5/CapSense_CSD_CSHL.c ****         else
 635:.\Generated_Source\PSoC5/CapSense_CSD_CSHL.c ****         {
 636:.\Generated_Source\PSoC5/CapSense_CSD_CSHL.c ****             /* Sensor inactive - reset Debounce counter */
 637:.\Generated_Source\PSoC5/CapSense_CSD_CSHL.c ****             CapSense_CSD_debounceCounter[debounceIndex] = debounce;
 775              		.loc 1 637 0
 776 00e0 FB7D     		ldrb	r3, [r7, #23]	@ zero_extendqisi2
 777 00e2 0E49     		ldr	r1, .L46+16
 778 00e4 FA7B     		ldrb	r2, [r7, #15]
 779 00e6 CA54     		strb	r2, [r1, r3]
 780              	.L40:
ARM GAS  C:\Users\LUKASC~1\AppData\Local\Temp\ccd155Lz.s 			page 26


 638:.\Generated_Source\PSoC5/CapSense_CSD_CSHL.c ****         }
 639:.\Generated_Source\PSoC5/CapSense_CSD_CSHL.c ****     }
 640:.\Generated_Source\PSoC5/CapSense_CSD_CSHL.c ****     
 641:.\Generated_Source\PSoC5/CapSense_CSD_CSHL.c ****     return (((CapSense_CSD_sensorOnMask[pos] & onMask) != 0u) ? 1u : 0u);
 781              		.loc 1 641 0
 782 00e8 BB7D     		ldrb	r3, [r7, #22]	@ zero_extendqisi2
 783 00ea 0D4A     		ldr	r2, .L46+20
 784 00ec D25C     		ldrb	r2, [r2, r3]	@ zero_extendqisi2
 785 00ee 7B7D     		ldrb	r3, [r7, #21]
 786 00f0 1340     		ands	r3, r3, r2
 787 00f2 DBB2     		uxtb	r3, r3
 788 00f4 002B     		cmp	r3, #0
 789 00f6 01D0     		beq	.L43
 790              		.loc 1 641 0 is_stmt 0 discriminator 1
 791 00f8 0123     		movs	r3, #1
 792 00fa 00E0     		b	.L44
 793              	.L43:
 794              		.loc 1 641 0 discriminator 2
 795 00fc 0023     		movs	r3, #0
 796              	.L44:
 642:.\Generated_Source\PSoC5/CapSense_CSD_CSHL.c **** }
 797              		.loc 1 642 0 is_stmt 1 discriminator 4
 798 00fe 1846     		mov	r0, r3
 799 0100 1C37     		adds	r7, r7, #28
 800              		.cfi_def_cfa_offset 4
 801 0102 BD46     		mov	sp, r7
 802              		.cfi_def_cfa_register 13
 803              		@ sp needed
 804 0104 5DF8047B 		ldr	r7, [sp], #4
 805              		.cfi_restore 7
 806              		.cfi_def_cfa_offset 0
 807 0108 7047     		bx	lr
 808              	.L47:
 809 010a 00BF     		.align	2
 810              	.L46:
 811 010c 00000000 		.word	CapSense_CSD_widgetNumber
 812 0110 00000000 		.word	CapSense_CSD_fingerThreshold
 813 0114 00000000 		.word	CapSense_CSD_hysteresis
 814 0118 00000000 		.word	CapSense_CSD_debounce
 815 011c 00000000 		.word	CapSense_CSD_debounceCounter
 816 0120 00000000 		.word	CapSense_CSD_sensorOnMask
 817 0124 00000000 		.word	CapSense_CSD_sensorSignal
 818              		.cfi_endproc
 819              	.LFE6:
 820              		.size	CapSense_CSD_CheckIsSensorActive, .-CapSense_CSD_CheckIsSensorActive
 821              		.section	.text.CapSense_CSD_CheckIsWidgetActive,"ax",%progbits
 822              		.align	2
 823              		.global	CapSense_CSD_CheckIsWidgetActive
 824              		.thumb
 825              		.thumb_func
 826              		.type	CapSense_CSD_CheckIsWidgetActive, %function
 827              	CapSense_CSD_CheckIsWidgetActive:
 828              	.LFB7:
 643:.\Generated_Source\PSoC5/CapSense_CSD_CSHL.c **** 
 644:.\Generated_Source\PSoC5/CapSense_CSD_CSHL.c **** 
 645:.\Generated_Source\PSoC5/CapSense_CSD_CSHL.c **** /*******************************************************************************
 646:.\Generated_Source\PSoC5/CapSense_CSD_CSHL.c **** * Function Name: CapSense_CSD_CheckIsWidgetActive
ARM GAS  C:\Users\LUKASC~1\AppData\Local\Temp\ccd155Lz.s 			page 27


 647:.\Generated_Source\PSoC5/CapSense_CSD_CSHL.c **** ********************************************************************************
 648:.\Generated_Source\PSoC5/CapSense_CSD_CSHL.c **** *
 649:.\Generated_Source\PSoC5/CapSense_CSD_CSHL.c **** * Summary:
 650:.\Generated_Source\PSoC5/CapSense_CSD_CSHL.c **** *  Use function CapSense_CSD_CheckIsSensorActive() to update 
 651:.\Generated_Source\PSoC5/CapSense_CSD_CSHL.c **** *  CapSense_CSD_sensorOnMask[] for all sensors within the widget.
 652:.\Generated_Source\PSoC5/CapSense_CSD_CSHL.c **** *  If one of sensors within widget is active the function return that widget is 
 653:.\Generated_Source\PSoC5/CapSense_CSD_CSHL.c **** *  active.
 654:.\Generated_Source\PSoC5/CapSense_CSD_CSHL.c **** *  The touch pad and matrix buttons widgets need to have active sensor within 
 655:.\Generated_Source\PSoC5/CapSense_CSD_CSHL.c **** *  col and row to return widget active status.
 656:.\Generated_Source\PSoC5/CapSense_CSD_CSHL.c **** *
 657:.\Generated_Source\PSoC5/CapSense_CSD_CSHL.c **** * Parameters:
 658:.\Generated_Source\PSoC5/CapSense_CSD_CSHL.c **** *  widget:  widget number.
 659:.\Generated_Source\PSoC5/CapSense_CSD_CSHL.c **** *
 660:.\Generated_Source\PSoC5/CapSense_CSD_CSHL.c **** * Return:
 661:.\Generated_Source\PSoC5/CapSense_CSD_CSHL.c **** *  Returns widget sensor state 1 if one or more sensors within widget is/are 
 662:.\Generated_Source\PSoC5/CapSense_CSD_CSHL.c **** *  active, 0 if all sensors within widget are inactive.
 663:.\Generated_Source\PSoC5/CapSense_CSD_CSHL.c **** *
 664:.\Generated_Source\PSoC5/CapSense_CSD_CSHL.c **** * Reentrant:
 665:.\Generated_Source\PSoC5/CapSense_CSD_CSHL.c **** *  No
 666:.\Generated_Source\PSoC5/CapSense_CSD_CSHL.c **** *
 667:.\Generated_Source\PSoC5/CapSense_CSD_CSHL.c **** *******************************************************************************/
 668:.\Generated_Source\PSoC5/CapSense_CSD_CSHL.c **** uint8 CapSense_CSD_CheckIsWidgetActive(uint8 widget)
 669:.\Generated_Source\PSoC5/CapSense_CSD_CSHL.c ****                                  
 670:.\Generated_Source\PSoC5/CapSense_CSD_CSHL.c **** {
 829              		.loc 1 670 0
 830              		.cfi_startproc
 831              		@ args = 0, pretend = 0, frame = 16
 832              		@ frame_needed = 1, uses_anonymous_args = 0
 833 0000 80B5     		push	{r7, lr}
 834              		.cfi_def_cfa_offset 8
 835              		.cfi_offset 7, -8
 836              		.cfi_offset 14, -4
 837 0002 84B0     		sub	sp, sp, #16
 838              		.cfi_def_cfa_offset 24
 839 0004 00AF     		add	r7, sp, #0
 840              		.cfi_def_cfa_register 7
 841 0006 0346     		mov	r3, r0
 842 0008 FB71     		strb	r3, [r7, #7]
 671:.\Generated_Source\PSoC5/CapSense_CSD_CSHL.c ****     uint8 rawIndex = CapSense_CSD_rawDataIndex[widget];
 843              		.loc 1 671 0
 844 000a FB79     		ldrb	r3, [r7, #7]	@ zero_extendqisi2
 845 000c 0F4A     		ldr	r2, .L52
 846 000e D35C     		ldrb	r3, [r2, r3]
 847 0010 FB73     		strb	r3, [r7, #15]
 672:.\Generated_Source\PSoC5/CapSense_CSD_CSHL.c ****     uint8 numberOfSensors = CapSense_CSD_numberOfSensors[widget] + rawIndex;
 848              		.loc 1 672 0
 849 0012 FB79     		ldrb	r3, [r7, #7]	@ zero_extendqisi2
 850 0014 0E4A     		ldr	r2, .L52+4
 851 0016 D25C     		ldrb	r2, [r2, r3]	@ zero_extendqisi2
 852 0018 FB7B     		ldrb	r3, [r7, #15]
 853 001a 1344     		add	r3, r3, r2
 854 001c 7B73     		strb	r3, [r7, #13]
 673:.\Generated_Source\PSoC5/CapSense_CSD_CSHL.c ****     uint8 state = 0u;
 855              		.loc 1 673 0
 856 001e 0023     		movs	r3, #0
 857 0020 BB73     		strb	r3, [r7, #14]
 858              	.L50:
ARM GAS  C:\Users\LUKASC~1\AppData\Local\Temp\ccd155Lz.s 			page 28


 674:.\Generated_Source\PSoC5/CapSense_CSD_CSHL.c **** 
 675:.\Generated_Source\PSoC5/CapSense_CSD_CSHL.c ****     /* Check all sensors of the widget */
 676:.\Generated_Source\PSoC5/CapSense_CSD_CSHL.c ****     do
 677:.\Generated_Source\PSoC5/CapSense_CSD_CSHL.c ****     {
 678:.\Generated_Source\PSoC5/CapSense_CSD_CSHL.c ****         if(CapSense_CSD_CheckIsSensorActive(rawIndex) != 0u)
 859              		.loc 1 678 0
 860 0022 FB7B     		ldrb	r3, [r7, #15]	@ zero_extendqisi2
 861 0024 1846     		mov	r0, r3
 862 0026 FFF7FEFF 		bl	CapSense_CSD_CheckIsSensorActive
 863 002a 0346     		mov	r3, r0
 864 002c 002B     		cmp	r3, #0
 865 002e 01D0     		beq	.L49
 679:.\Generated_Source\PSoC5/CapSense_CSD_CSHL.c ****         {
 680:.\Generated_Source\PSoC5/CapSense_CSD_CSHL.c ****             state = CapSense_CSD_SENSOR_1_IS_ACTIVE;
 866              		.loc 1 680 0
 867 0030 0123     		movs	r3, #1
 868 0032 BB73     		strb	r3, [r7, #14]
 869              	.L49:
 681:.\Generated_Source\PSoC5/CapSense_CSD_CSHL.c ****         }
 682:.\Generated_Source\PSoC5/CapSense_CSD_CSHL.c ****         rawIndex++;
 870              		.loc 1 682 0
 871 0034 FB7B     		ldrb	r3, [r7, #15]	@ zero_extendqisi2
 872 0036 0133     		adds	r3, r3, #1
 873 0038 FB73     		strb	r3, [r7, #15]
 683:.\Generated_Source\PSoC5/CapSense_CSD_CSHL.c ****     }
 684:.\Generated_Source\PSoC5/CapSense_CSD_CSHL.c ****     while(rawIndex < numberOfSensors);
 874              		.loc 1 684 0
 875 003a FA7B     		ldrb	r2, [r7, #15]	@ zero_extendqisi2
 876 003c 7B7B     		ldrb	r3, [r7, #13]	@ zero_extendqisi2
 877 003e 9A42     		cmp	r2, r3
 878 0040 EFD3     		bcc	.L50
 685:.\Generated_Source\PSoC5/CapSense_CSD_CSHL.c ****     
 686:.\Generated_Source\PSoC5/CapSense_CSD_CSHL.c **** 
 687:.\Generated_Source\PSoC5/CapSense_CSD_CSHL.c ****     
 688:.\Generated_Source\PSoC5/CapSense_CSD_CSHL.c ****     return (state);
 879              		.loc 1 688 0
 880 0042 BB7B     		ldrb	r3, [r7, #14]	@ zero_extendqisi2
 689:.\Generated_Source\PSoC5/CapSense_CSD_CSHL.c **** }
 881              		.loc 1 689 0
 882 0044 1846     		mov	r0, r3
 883 0046 1037     		adds	r7, r7, #16
 884              		.cfi_def_cfa_offset 8
 885 0048 BD46     		mov	sp, r7
 886              		.cfi_def_cfa_register 13
 887              		@ sp needed
 888 004a 80BD     		pop	{r7, pc}
 889              	.L53:
 890              		.align	2
 891              	.L52:
 892 004c 00000000 		.word	CapSense_CSD_rawDataIndex
 893 0050 00000000 		.word	CapSense_CSD_numberOfSensors
 894              		.cfi_endproc
 895              	.LFE7:
 896              		.size	CapSense_CSD_CheckIsWidgetActive, .-CapSense_CSD_CheckIsWidgetActive
 897              		.section	.text.CapSense_CSD_CheckIsAnyWidgetActive,"ax",%progbits
 898              		.align	2
 899              		.global	CapSense_CSD_CheckIsAnyWidgetActive
ARM GAS  C:\Users\LUKASC~1\AppData\Local\Temp\ccd155Lz.s 			page 29


 900              		.thumb
 901              		.thumb_func
 902              		.type	CapSense_CSD_CheckIsAnyWidgetActive, %function
 903              	CapSense_CSD_CheckIsAnyWidgetActive:
 904              	.LFB8:
 690:.\Generated_Source\PSoC5/CapSense_CSD_CSHL.c **** 
 691:.\Generated_Source\PSoC5/CapSense_CSD_CSHL.c **** 
 692:.\Generated_Source\PSoC5/CapSense_CSD_CSHL.c **** /*******************************************************************************
 693:.\Generated_Source\PSoC5/CapSense_CSD_CSHL.c **** * Function Name: CapSense_CSD_CheckIsAnyWidgetActive
 694:.\Generated_Source\PSoC5/CapSense_CSD_CSHL.c **** ********************************************************************************
 695:.\Generated_Source\PSoC5/CapSense_CSD_CSHL.c **** *
 696:.\Generated_Source\PSoC5/CapSense_CSD_CSHL.c **** * Summary:
 697:.\Generated_Source\PSoC5/CapSense_CSD_CSHL.c **** *  Compares all sensors of the CapSense_CSD_signal[] array to their finger 
 698:.\Generated_Source\PSoC5/CapSense_CSD_CSHL.c **** *  threshold. Calls CapSense_CSD_CheckIsWidgetActive() for each widget so 
 699:.\Generated_Source\PSoC5/CapSense_CSD_CSHL.c **** *  the CapSense_CSD_SensorOnMask[] array is up to date after calling this 
 700:.\Generated_Source\PSoC5/CapSense_CSD_CSHL.c **** *  function.
 701:.\Generated_Source\PSoC5/CapSense_CSD_CSHL.c **** *
 702:.\Generated_Source\PSoC5/CapSense_CSD_CSHL.c **** * Parameters:
 703:.\Generated_Source\PSoC5/CapSense_CSD_CSHL.c **** *  widget:  widget number.
 704:.\Generated_Source\PSoC5/CapSense_CSD_CSHL.c **** *
 705:.\Generated_Source\PSoC5/CapSense_CSD_CSHL.c **** * Return:
 706:.\Generated_Source\PSoC5/CapSense_CSD_CSHL.c **** *  Returns 1 if any widget is active, 0 none of widgets are active.
 707:.\Generated_Source\PSoC5/CapSense_CSD_CSHL.c **** *
 708:.\Generated_Source\PSoC5/CapSense_CSD_CSHL.c **** * Reentrant:
 709:.\Generated_Source\PSoC5/CapSense_CSD_CSHL.c **** *  No
 710:.\Generated_Source\PSoC5/CapSense_CSD_CSHL.c **** *
 711:.\Generated_Source\PSoC5/CapSense_CSD_CSHL.c **** *******************************************************************************/
 712:.\Generated_Source\PSoC5/CapSense_CSD_CSHL.c **** uint8 CapSense_CSD_CheckIsAnyWidgetActive(void)
 713:.\Generated_Source\PSoC5/CapSense_CSD_CSHL.c ****                                  
 714:.\Generated_Source\PSoC5/CapSense_CSD_CSHL.c **** {
 905              		.loc 1 714 0
 906              		.cfi_startproc
 907              		@ args = 0, pretend = 0, frame = 8
 908              		@ frame_needed = 1, uses_anonymous_args = 0
 909 0000 80B5     		push	{r7, lr}
 910              		.cfi_def_cfa_offset 8
 911              		.cfi_offset 7, -8
 912              		.cfi_offset 14, -4
 913 0002 82B0     		sub	sp, sp, #8
 914              		.cfi_def_cfa_offset 16
 915 0004 00AF     		add	r7, sp, #0
 916              		.cfi_def_cfa_register 7
 715:.\Generated_Source\PSoC5/CapSense_CSD_CSHL.c ****     uint8 i;
 716:.\Generated_Source\PSoC5/CapSense_CSD_CSHL.c ****     uint8 state = 0u;
 917              		.loc 1 716 0
 918 0006 0023     		movs	r3, #0
 919 0008 BB71     		strb	r3, [r7, #6]
 717:.\Generated_Source\PSoC5/CapSense_CSD_CSHL.c ****     
 718:.\Generated_Source\PSoC5/CapSense_CSD_CSHL.c ****     for(i = 0u; i < CapSense_CSD_TOTAL_WIDGET_COUNT; i++)
 920              		.loc 1 718 0
 921 000a 0023     		movs	r3, #0
 922 000c FB71     		strb	r3, [r7, #7]
 923 000e 0BE0     		b	.L55
 924              	.L57:
 719:.\Generated_Source\PSoC5/CapSense_CSD_CSHL.c ****     {
 720:.\Generated_Source\PSoC5/CapSense_CSD_CSHL.c ****         if (CapSense_CSD_CheckIsWidgetActive(i) != 0u)
 925              		.loc 1 720 0
ARM GAS  C:\Users\LUKASC~1\AppData\Local\Temp\ccd155Lz.s 			page 30


 926 0010 FB79     		ldrb	r3, [r7, #7]	@ zero_extendqisi2
 927 0012 1846     		mov	r0, r3
 928 0014 FFF7FEFF 		bl	CapSense_CSD_CheckIsWidgetActive
 929 0018 0346     		mov	r3, r0
 930 001a 002B     		cmp	r3, #0
 931 001c 01D0     		beq	.L56
 721:.\Generated_Source\PSoC5/CapSense_CSD_CSHL.c ****         {
 722:.\Generated_Source\PSoC5/CapSense_CSD_CSHL.c ****             state = CapSense_CSD_WIDGET_IS_ACTIVE;
 932              		.loc 1 722 0
 933 001e 0123     		movs	r3, #1
 934 0020 BB71     		strb	r3, [r7, #6]
 935              	.L56:
 718:.\Generated_Source\PSoC5/CapSense_CSD_CSHL.c ****     {
 936              		.loc 1 718 0 discriminator 2
 937 0022 FB79     		ldrb	r3, [r7, #7]	@ zero_extendqisi2
 938 0024 0133     		adds	r3, r3, #1
 939 0026 FB71     		strb	r3, [r7, #7]
 940              	.L55:
 718:.\Generated_Source\PSoC5/CapSense_CSD_CSHL.c ****     {
 941              		.loc 1 718 0 is_stmt 0 discriminator 1
 942 0028 FB79     		ldrb	r3, [r7, #7]	@ zero_extendqisi2
 943 002a 022B     		cmp	r3, #2
 944 002c F0D9     		bls	.L57
 723:.\Generated_Source\PSoC5/CapSense_CSD_CSHL.c ****         }
 724:.\Generated_Source\PSoC5/CapSense_CSD_CSHL.c ****     }
 725:.\Generated_Source\PSoC5/CapSense_CSD_CSHL.c ****     
 726:.\Generated_Source\PSoC5/CapSense_CSD_CSHL.c **** 
 727:.\Generated_Source\PSoC5/CapSense_CSD_CSHL.c ****     return (state);
 945              		.loc 1 727 0 is_stmt 1
 946 002e BB79     		ldrb	r3, [r7, #6]	@ zero_extendqisi2
 728:.\Generated_Source\PSoC5/CapSense_CSD_CSHL.c **** }
 947              		.loc 1 728 0
 948 0030 1846     		mov	r0, r3
 949 0032 0837     		adds	r7, r7, #8
 950              		.cfi_def_cfa_offset 8
 951 0034 BD46     		mov	sp, r7
 952              		.cfi_def_cfa_register 13
 953              		@ sp needed
 954 0036 80BD     		pop	{r7, pc}
 955              		.cfi_endproc
 956              	.LFE8:
 957              		.size	CapSense_CSD_CheckIsAnyWidgetActive, .-CapSense_CSD_CheckIsAnyWidgetActive
 958              		.section	.text.CapSense_CSD_EnableWidget,"ax",%progbits
 959              		.align	2
 960              		.global	CapSense_CSD_EnableWidget
 961              		.thumb
 962              		.thumb_func
 963              		.type	CapSense_CSD_EnableWidget, %function
 964              	CapSense_CSD_EnableWidget:
 965              	.LFB9:
 729:.\Generated_Source\PSoC5/CapSense_CSD_CSHL.c **** 
 730:.\Generated_Source\PSoC5/CapSense_CSD_CSHL.c **** 
 731:.\Generated_Source\PSoC5/CapSense_CSD_CSHL.c **** /*******************************************************************************
 732:.\Generated_Source\PSoC5/CapSense_CSD_CSHL.c **** * Function Name: CapSense_CSD_EnableWidget
 733:.\Generated_Source\PSoC5/CapSense_CSD_CSHL.c **** ********************************************************************************
 734:.\Generated_Source\PSoC5/CapSense_CSD_CSHL.c **** *
 735:.\Generated_Source\PSoC5/CapSense_CSD_CSHL.c **** * Summary:
ARM GAS  C:\Users\LUKASC~1\AppData\Local\Temp\ccd155Lz.s 			page 31


 736:.\Generated_Source\PSoC5/CapSense_CSD_CSHL.c **** *  Enable all widget elements (sensors) to scanning process.
 737:.\Generated_Source\PSoC5/CapSense_CSD_CSHL.c **** *
 738:.\Generated_Source\PSoC5/CapSense_CSD_CSHL.c **** * Parameters:
 739:.\Generated_Source\PSoC5/CapSense_CSD_CSHL.c **** *  widget:  widget number.
 740:.\Generated_Source\PSoC5/CapSense_CSD_CSHL.c **** *
 741:.\Generated_Source\PSoC5/CapSense_CSD_CSHL.c **** * Return:
 742:.\Generated_Source\PSoC5/CapSense_CSD_CSHL.c **** *  None
 743:.\Generated_Source\PSoC5/CapSense_CSD_CSHL.c **** *
 744:.\Generated_Source\PSoC5/CapSense_CSD_CSHL.c **** * Global Variables:
 745:.\Generated_Source\PSoC5/CapSense_CSD_CSHL.c **** *  CapSense_CSD_sensorEnableMask[] - used to store the sensor scanning 
 746:.\Generated_Source\PSoC5/CapSense_CSD_CSHL.c **** *  state.
 747:.\Generated_Source\PSoC5/CapSense_CSD_CSHL.c **** *  CapSense_CSD_sensorEnableMask[0] contains the masked bits for sensors 
 748:.\Generated_Source\PSoC5/CapSense_CSD_CSHL.c **** *  0 through 7 (sensor 0 is bit 0, sensor 1 is bit 1).
 749:.\Generated_Source\PSoC5/CapSense_CSD_CSHL.c **** *  CapSense_CSD_sensorEnableMask[1] contains the masked bits for 
 750:.\Generated_Source\PSoC5/CapSense_CSD_CSHL.c **** *  sensors 8 through 15 (if needed), and so on.
 751:.\Generated_Source\PSoC5/CapSense_CSD_CSHL.c **** *  0 - sensor doesn't scan by CapSense_CSD_ScanEnabledWidgets().
 752:.\Generated_Source\PSoC5/CapSense_CSD_CSHL.c **** *  1 - sensor scans by CapSense_CSD_ScanEnabledWidgets().
 753:.\Generated_Source\PSoC5/CapSense_CSD_CSHL.c **** *
 754:.\Generated_Source\PSoC5/CapSense_CSD_CSHL.c **** * Reentrant:
 755:.\Generated_Source\PSoC5/CapSense_CSD_CSHL.c **** *  No
 756:.\Generated_Source\PSoC5/CapSense_CSD_CSHL.c **** *
 757:.\Generated_Source\PSoC5/CapSense_CSD_CSHL.c **** *******************************************************************************/
 758:.\Generated_Source\PSoC5/CapSense_CSD_CSHL.c **** void CapSense_CSD_EnableWidget(uint8 widget)
 759:.\Generated_Source\PSoC5/CapSense_CSD_CSHL.c ****                                    
 760:.\Generated_Source\PSoC5/CapSense_CSD_CSHL.c **** {
 966              		.loc 1 760 0
 967              		.cfi_startproc
 968              		@ args = 0, pretend = 0, frame = 16
 969              		@ frame_needed = 1, uses_anonymous_args = 0
 970              		@ link register save eliminated.
 971 0000 80B4     		push	{r7}
 972              		.cfi_def_cfa_offset 4
 973              		.cfi_offset 7, -4
 974 0002 85B0     		sub	sp, sp, #20
 975              		.cfi_def_cfa_offset 24
 976 0004 00AF     		add	r7, sp, #0
 977              		.cfi_def_cfa_register 7
 978 0006 0346     		mov	r3, r0
 979 0008 FB71     		strb	r3, [r7, #7]
 761:.\Generated_Source\PSoC5/CapSense_CSD_CSHL.c ****     uint8 pos;
 762:.\Generated_Source\PSoC5/CapSense_CSD_CSHL.c ****     uint8 enMask;
 763:.\Generated_Source\PSoC5/CapSense_CSD_CSHL.c ****     uint8 rawIndex = CapSense_CSD_rawDataIndex[widget];
 980              		.loc 1 763 0
 981 000a FB79     		ldrb	r3, [r7, #7]	@ zero_extendqisi2
 982 000c 134A     		ldr	r2, .L61
 983 000e D35C     		ldrb	r3, [r2, r3]
 984 0010 FB73     		strb	r3, [r7, #15]
 764:.\Generated_Source\PSoC5/CapSense_CSD_CSHL.c ****     uint8 numberOfSensors = CapSense_CSD_numberOfSensors[widget] + rawIndex;
 985              		.loc 1 764 0
 986 0012 FB79     		ldrb	r3, [r7, #7]	@ zero_extendqisi2
 987 0014 124A     		ldr	r2, .L61+4
 988 0016 D25C     		ldrb	r2, [r2, r3]	@ zero_extendqisi2
 989 0018 FB7B     		ldrb	r3, [r7, #15]
 990 001a 1344     		add	r3, r3, r2
 991 001c BB73     		strb	r3, [r7, #14]
 992              	.L60:
 765:.\Generated_Source\PSoC5/CapSense_CSD_CSHL.c ****     
ARM GAS  C:\Users\LUKASC~1\AppData\Local\Temp\ccd155Lz.s 			page 32


 766:.\Generated_Source\PSoC5/CapSense_CSD_CSHL.c ****     /* Enable all sensors of the widget */
 767:.\Generated_Source\PSoC5/CapSense_CSD_CSHL.c ****     do
 768:.\Generated_Source\PSoC5/CapSense_CSD_CSHL.c ****     {
 769:.\Generated_Source\PSoC5/CapSense_CSD_CSHL.c ****         pos = (rawIndex >> 3u);
 993              		.loc 1 769 0 discriminator 1
 994 001e FB7B     		ldrb	r3, [r7, #15]	@ zero_extendqisi2
 995 0020 DB08     		lsrs	r3, r3, #3
 996 0022 7B73     		strb	r3, [r7, #13]
 770:.\Generated_Source\PSoC5/CapSense_CSD_CSHL.c ****         enMask = 0x01u << (rawIndex & 0x07u);
 997              		.loc 1 770 0 discriminator 1
 998 0024 FB7B     		ldrb	r3, [r7, #15]	@ zero_extendqisi2
 999 0026 03F00703 		and	r3, r3, #7
 1000 002a 0122     		movs	r2, #1
 1001 002c 02FA03F3 		lsl	r3, r2, r3
 1002 0030 3B73     		strb	r3, [r7, #12]
 771:.\Generated_Source\PSoC5/CapSense_CSD_CSHL.c ****         
 772:.\Generated_Source\PSoC5/CapSense_CSD_CSHL.c ****         CapSense_CSD_sensorEnableMask[pos] |= enMask;
 1003              		.loc 1 772 0 discriminator 1
 1004 0032 7B7B     		ldrb	r3, [r7, #13]	@ zero_extendqisi2
 1005 0034 7A7B     		ldrb	r2, [r7, #13]	@ zero_extendqisi2
 1006 0036 0B49     		ldr	r1, .L61+8
 1007 0038 895C     		ldrb	r1, [r1, r2]	@ zero_extendqisi2
 1008 003a 3A7B     		ldrb	r2, [r7, #12]
 1009 003c 0A43     		orrs	r2, r2, r1
 1010 003e D1B2     		uxtb	r1, r2
 1011 0040 084A     		ldr	r2, .L61+8
 1012 0042 D154     		strb	r1, [r2, r3]
 773:.\Generated_Source\PSoC5/CapSense_CSD_CSHL.c ****         rawIndex++;
 1013              		.loc 1 773 0 discriminator 1
 1014 0044 FB7B     		ldrb	r3, [r7, #15]	@ zero_extendqisi2
 1015 0046 0133     		adds	r3, r3, #1
 1016 0048 FB73     		strb	r3, [r7, #15]
 774:.\Generated_Source\PSoC5/CapSense_CSD_CSHL.c ****     }
 775:.\Generated_Source\PSoC5/CapSense_CSD_CSHL.c ****     while(rawIndex < numberOfSensors);
 1017              		.loc 1 775 0 discriminator 1
 1018 004a FA7B     		ldrb	r2, [r7, #15]	@ zero_extendqisi2
 1019 004c BB7B     		ldrb	r3, [r7, #14]	@ zero_extendqisi2
 1020 004e 9A42     		cmp	r2, r3
 1021 0050 E5D3     		bcc	.L60
 776:.\Generated_Source\PSoC5/CapSense_CSD_CSHL.c ****     
 777:.\Generated_Source\PSoC5/CapSense_CSD_CSHL.c **** 
 778:.\Generated_Source\PSoC5/CapSense_CSD_CSHL.c **** }
 1022              		.loc 1 778 0
 1023 0052 1437     		adds	r7, r7, #20
 1024              		.cfi_def_cfa_offset 4
 1025 0054 BD46     		mov	sp, r7
 1026              		.cfi_def_cfa_register 13
 1027              		@ sp needed
 1028 0056 5DF8047B 		ldr	r7, [sp], #4
 1029              		.cfi_restore 7
 1030              		.cfi_def_cfa_offset 0
 1031 005a 7047     		bx	lr
 1032              	.L62:
 1033              		.align	2
 1034              	.L61:
 1035 005c 00000000 		.word	CapSense_CSD_rawDataIndex
 1036 0060 00000000 		.word	CapSense_CSD_numberOfSensors
ARM GAS  C:\Users\LUKASC~1\AppData\Local\Temp\ccd155Lz.s 			page 33


 1037 0064 00000000 		.word	CapSense_CSD_sensorEnableMask
 1038              		.cfi_endproc
 1039              	.LFE9:
 1040              		.size	CapSense_CSD_EnableWidget, .-CapSense_CSD_EnableWidget
 1041              		.section	.text.CapSense_CSD_DisableWidget,"ax",%progbits
 1042              		.align	2
 1043              		.global	CapSense_CSD_DisableWidget
 1044              		.thumb
 1045              		.thumb_func
 1046              		.type	CapSense_CSD_DisableWidget, %function
 1047              	CapSense_CSD_DisableWidget:
 1048              	.LFB10:
 779:.\Generated_Source\PSoC5/CapSense_CSD_CSHL.c **** 
 780:.\Generated_Source\PSoC5/CapSense_CSD_CSHL.c **** 
 781:.\Generated_Source\PSoC5/CapSense_CSD_CSHL.c **** /*******************************************************************************
 782:.\Generated_Source\PSoC5/CapSense_CSD_CSHL.c **** * Function Name: CapSense_CSD_DisableWidget
 783:.\Generated_Source\PSoC5/CapSense_CSD_CSHL.c **** ********************************************************************************
 784:.\Generated_Source\PSoC5/CapSense_CSD_CSHL.c **** *
 785:.\Generated_Source\PSoC5/CapSense_CSD_CSHL.c **** * Summary:
 786:.\Generated_Source\PSoC5/CapSense_CSD_CSHL.c **** *  Disable all widget elements (sensors) from scanning process.
 787:.\Generated_Source\PSoC5/CapSense_CSD_CSHL.c **** *
 788:.\Generated_Source\PSoC5/CapSense_CSD_CSHL.c **** * Parameters:
 789:.\Generated_Source\PSoC5/CapSense_CSD_CSHL.c **** *  widget:  widget number.
 790:.\Generated_Source\PSoC5/CapSense_CSD_CSHL.c **** *
 791:.\Generated_Source\PSoC5/CapSense_CSD_CSHL.c **** * Return:
 792:.\Generated_Source\PSoC5/CapSense_CSD_CSHL.c **** *  None
 793:.\Generated_Source\PSoC5/CapSense_CSD_CSHL.c **** *
 794:.\Generated_Source\PSoC5/CapSense_CSD_CSHL.c **** * Global Variables:
 795:.\Generated_Source\PSoC5/CapSense_CSD_CSHL.c **** *  CapSense_CSD_sensorEnableMask[] - used to store the sensor scanning 
 796:.\Generated_Source\PSoC5/CapSense_CSD_CSHL.c **** *  state.
 797:.\Generated_Source\PSoC5/CapSense_CSD_CSHL.c **** *  CapSense_CSD_sensorEnableMask[0] contains the masked bits for sensors 
 798:.\Generated_Source\PSoC5/CapSense_CSD_CSHL.c **** *  0 through 7 (sensor 0 is bit 0, sensor 1 is bit 1).
 799:.\Generated_Source\PSoC5/CapSense_CSD_CSHL.c **** *  CapSense_CSD_sensorEnableMask[1] contains the masked bits for 
 800:.\Generated_Source\PSoC5/CapSense_CSD_CSHL.c **** *  sensors 8 through 15 (if needed), and so on.
 801:.\Generated_Source\PSoC5/CapSense_CSD_CSHL.c **** *  0 - sensor doesn't scan by CapSense_CSD_ScanEnabledWidgets().
 802:.\Generated_Source\PSoC5/CapSense_CSD_CSHL.c **** *  1 - sensor scans by CapSense_CSD_ScanEnabledWidgets().
 803:.\Generated_Source\PSoC5/CapSense_CSD_CSHL.c **** *
 804:.\Generated_Source\PSoC5/CapSense_CSD_CSHL.c **** * Reentrant:
 805:.\Generated_Source\PSoC5/CapSense_CSD_CSHL.c **** *  No
 806:.\Generated_Source\PSoC5/CapSense_CSD_CSHL.c **** *
 807:.\Generated_Source\PSoC5/CapSense_CSD_CSHL.c **** *******************************************************************************/
 808:.\Generated_Source\PSoC5/CapSense_CSD_CSHL.c **** void CapSense_CSD_DisableWidget(uint8 widget)
 809:.\Generated_Source\PSoC5/CapSense_CSD_CSHL.c ****                                     
 810:.\Generated_Source\PSoC5/CapSense_CSD_CSHL.c **** {
 1049              		.loc 1 810 0
 1050              		.cfi_startproc
 1051              		@ args = 0, pretend = 0, frame = 16
 1052              		@ frame_needed = 1, uses_anonymous_args = 0
 1053              		@ link register save eliminated.
 1054 0000 80B4     		push	{r7}
 1055              		.cfi_def_cfa_offset 4
 1056              		.cfi_offset 7, -4
 1057 0002 85B0     		sub	sp, sp, #20
 1058              		.cfi_def_cfa_offset 24
 1059 0004 00AF     		add	r7, sp, #0
 1060              		.cfi_def_cfa_register 7
 1061 0006 0346     		mov	r3, r0
ARM GAS  C:\Users\LUKASC~1\AppData\Local\Temp\ccd155Lz.s 			page 34


 1062 0008 FB71     		strb	r3, [r7, #7]
 811:.\Generated_Source\PSoC5/CapSense_CSD_CSHL.c ****     uint8 pos;
 812:.\Generated_Source\PSoC5/CapSense_CSD_CSHL.c ****     uint8 enMask;
 813:.\Generated_Source\PSoC5/CapSense_CSD_CSHL.c ****     uint8 rawIndex = CapSense_CSD_rawDataIndex[widget];
 1063              		.loc 1 813 0
 1064 000a FB79     		ldrb	r3, [r7, #7]	@ zero_extendqisi2
 1065 000c 144A     		ldr	r2, .L65
 1066 000e D35C     		ldrb	r3, [r2, r3]
 1067 0010 FB73     		strb	r3, [r7, #15]
 814:.\Generated_Source\PSoC5/CapSense_CSD_CSHL.c ****     uint8 numberOfSensors = CapSense_CSD_numberOfSensors[widget] + rawIndex;
 1068              		.loc 1 814 0
 1069 0012 FB79     		ldrb	r3, [r7, #7]	@ zero_extendqisi2
 1070 0014 134A     		ldr	r2, .L65+4
 1071 0016 D25C     		ldrb	r2, [r2, r3]	@ zero_extendqisi2
 1072 0018 FB7B     		ldrb	r3, [r7, #15]
 1073 001a 1344     		add	r3, r3, r2
 1074 001c BB73     		strb	r3, [r7, #14]
 1075              	.L64:
 815:.\Generated_Source\PSoC5/CapSense_CSD_CSHL.c ****    
 816:.\Generated_Source\PSoC5/CapSense_CSD_CSHL.c ****     /* Disable all sensors of the widget */
 817:.\Generated_Source\PSoC5/CapSense_CSD_CSHL.c ****     do
 818:.\Generated_Source\PSoC5/CapSense_CSD_CSHL.c ****     {
 819:.\Generated_Source\PSoC5/CapSense_CSD_CSHL.c ****         pos = (rawIndex >> 3u);
 1076              		.loc 1 819 0 discriminator 1
 1077 001e FB7B     		ldrb	r3, [r7, #15]	@ zero_extendqisi2
 1078 0020 DB08     		lsrs	r3, r3, #3
 1079 0022 7B73     		strb	r3, [r7, #13]
 820:.\Generated_Source\PSoC5/CapSense_CSD_CSHL.c ****         enMask = 0x01u << (rawIndex & 0x07u);
 1080              		.loc 1 820 0 discriminator 1
 1081 0024 FB7B     		ldrb	r3, [r7, #15]	@ zero_extendqisi2
 1082 0026 03F00703 		and	r3, r3, #7
 1083 002a 0122     		movs	r2, #1
 1084 002c 02FA03F3 		lsl	r3, r2, r3
 1085 0030 3B73     		strb	r3, [r7, #12]
 821:.\Generated_Source\PSoC5/CapSense_CSD_CSHL.c ****         
 822:.\Generated_Source\PSoC5/CapSense_CSD_CSHL.c ****         CapSense_CSD_sensorEnableMask[pos] &= (uint8)~enMask;
 1086              		.loc 1 822 0 discriminator 1
 1087 0032 7B7B     		ldrb	r3, [r7, #13]	@ zero_extendqisi2
 1088 0034 7A7B     		ldrb	r2, [r7, #13]	@ zero_extendqisi2
 1089 0036 0C49     		ldr	r1, .L65+8
 1090 0038 895C     		ldrb	r1, [r1, r2]	@ zero_extendqisi2
 1091 003a 3A7B     		ldrb	r2, [r7, #12]
 1092 003c D243     		mvns	r2, r2
 1093 003e D2B2     		uxtb	r2, r2
 1094 0040 0A40     		ands	r2, r2, r1
 1095 0042 D1B2     		uxtb	r1, r2
 1096 0044 084A     		ldr	r2, .L65+8
 1097 0046 D154     		strb	r1, [r2, r3]
 823:.\Generated_Source\PSoC5/CapSense_CSD_CSHL.c ****         rawIndex++;
 1098              		.loc 1 823 0 discriminator 1
 1099 0048 FB7B     		ldrb	r3, [r7, #15]	@ zero_extendqisi2
 1100 004a 0133     		adds	r3, r3, #1
 1101 004c FB73     		strb	r3, [r7, #15]
 824:.\Generated_Source\PSoC5/CapSense_CSD_CSHL.c ****     }
 825:.\Generated_Source\PSoC5/CapSense_CSD_CSHL.c ****     while(rawIndex < numberOfSensors);
 1102              		.loc 1 825 0 discriminator 1
 1103 004e FA7B     		ldrb	r2, [r7, #15]	@ zero_extendqisi2
ARM GAS  C:\Users\LUKASC~1\AppData\Local\Temp\ccd155Lz.s 			page 35


 1104 0050 BB7B     		ldrb	r3, [r7, #14]	@ zero_extendqisi2
 1105 0052 9A42     		cmp	r2, r3
 1106 0054 E3D3     		bcc	.L64
 826:.\Generated_Source\PSoC5/CapSense_CSD_CSHL.c ****     
 827:.\Generated_Source\PSoC5/CapSense_CSD_CSHL.c **** 
 828:.\Generated_Source\PSoC5/CapSense_CSD_CSHL.c **** }
 1107              		.loc 1 828 0
 1108 0056 1437     		adds	r7, r7, #20
 1109              		.cfi_def_cfa_offset 4
 1110 0058 BD46     		mov	sp, r7
 1111              		.cfi_def_cfa_register 13
 1112              		@ sp needed
 1113 005a 5DF8047B 		ldr	r7, [sp], #4
 1114              		.cfi_restore 7
 1115              		.cfi_def_cfa_offset 0
 1116 005e 7047     		bx	lr
 1117              	.L66:
 1118              		.align	2
 1119              	.L65:
 1120 0060 00000000 		.word	CapSense_CSD_rawDataIndex
 1121 0064 00000000 		.word	CapSense_CSD_numberOfSensors
 1122 0068 00000000 		.word	CapSense_CSD_sensorEnableMask
 1123              		.cfi_endproc
 1124              	.LFE10:
 1125              		.size	CapSense_CSD_DisableWidget, .-CapSense_CSD_DisableWidget
 1126              		.section	.text.CapSense_CSD_FindMaximum,"ax",%progbits
 1127              		.align	2
 1128              		.global	CapSense_CSD_FindMaximum
 1129              		.thumb
 1130              		.thumb_func
 1131              		.type	CapSense_CSD_FindMaximum, %function
 1132              	CapSense_CSD_FindMaximum:
 1133              	.LFB11:
 829:.\Generated_Source\PSoC5/CapSense_CSD_CSHL.c **** #if(CapSense_CSD_TOTAL_CENTROIDS_COUNT)
 830:.\Generated_Source\PSoC5/CapSense_CSD_CSHL.c ****     /*******************************************************************************
 831:.\Generated_Source\PSoC5/CapSense_CSD_CSHL.c ****     * Function Name: CapSense_CSD_FindMaximum
 832:.\Generated_Source\PSoC5/CapSense_CSD_CSHL.c ****     ********************************************************************************
 833:.\Generated_Source\PSoC5/CapSense_CSD_CSHL.c ****     *
 834:.\Generated_Source\PSoC5/CapSense_CSD_CSHL.c ****     * Summary:
 835:.\Generated_Source\PSoC5/CapSense_CSD_CSHL.c ****     *  Finds index of maximum element within defined centroid. Checks 
 836:.\Generated_Source\PSoC5/CapSense_CSD_CSHL.c ****     *  CapSense_CSD_SensorSignal[] within defined cenrtoid and 
 837:.\Generated_Source\PSoC5/CapSense_CSD_CSHL.c ****     *  returns index of maximum element. The values below finger threshold are 
 838:.\Generated_Source\PSoC5/CapSense_CSD_CSHL.c ****     *  ignored.
 839:.\Generated_Source\PSoC5/CapSense_CSD_CSHL.c ****     *  The centrod defines by offset of first element and number of elements - count.
 840:.\Generated_Source\PSoC5/CapSense_CSD_CSHL.c ****     *  The diplexed centroid requires at least consecutive two elements above
 841:.\Generated_Source\PSoC5/CapSense_CSD_CSHL.c ****     *  FingerThreshold to find index of maximum element.
 842:.\Generated_Source\PSoC5/CapSense_CSD_CSHL.c ****     * 
 843:.\Generated_Source\PSoC5/CapSense_CSD_CSHL.c ****     * Parameters:
 844:.\Generated_Source\PSoC5/CapSense_CSD_CSHL.c ****     *  offset:  Start index of cetroid in CapSense_CSD_sensorSignal[] array.
 845:.\Generated_Source\PSoC5/CapSense_CSD_CSHL.c ****     *  count:   number of elements within centroid.
 846:.\Generated_Source\PSoC5/CapSense_CSD_CSHL.c ****     *  fingerThreshold:  Finger threshould.
 847:.\Generated_Source\PSoC5/CapSense_CSD_CSHL.c ****     *  diplex:   pointer to diplex table.
 848:.\Generated_Source\PSoC5/CapSense_CSD_CSHL.c ****     * 
 849:.\Generated_Source\PSoC5/CapSense_CSD_CSHL.c ****     * Return:
 850:.\Generated_Source\PSoC5/CapSense_CSD_CSHL.c ****     *  Returns index of maximum element within defined centroid.
 851:.\Generated_Source\PSoC5/CapSense_CSD_CSHL.c ****     *  If index of maximum element doesn't find the 0xFF returns.
 852:.\Generated_Source\PSoC5/CapSense_CSD_CSHL.c ****     * 
ARM GAS  C:\Users\LUKASC~1\AppData\Local\Temp\ccd155Lz.s 			page 36


 853:.\Generated_Source\PSoC5/CapSense_CSD_CSHL.c ****     *******************************************************************************/
 854:.\Generated_Source\PSoC5/CapSense_CSD_CSHL.c ****     #if (CapSense_CSD_IS_DIPLEX_SLIDER)
 855:.\Generated_Source\PSoC5/CapSense_CSD_CSHL.c ****         uint8 CapSense_CSD_FindMaximum(uint8 offset, uint8 count, uint16 fingerThreshold, const uin
 856:.\Generated_Source\PSoC5/CapSense_CSD_CSHL.c **** 	                                       
 857:.\Generated_Source\PSoC5/CapSense_CSD_CSHL.c ****     #else 
 858:.\Generated_Source\PSoC5/CapSense_CSD_CSHL.c ****         uint8 CapSense_CSD_FindMaximum(uint8 offset, uint8 count, uint16 fingerThreshold)
 859:.\Generated_Source\PSoC5/CapSense_CSD_CSHL.c **** 	                                       
 860:.\Generated_Source\PSoC5/CapSense_CSD_CSHL.c ****     #endif /* (CapSense_CSD_IS_DIPLEX_SLIDER) */
 861:.\Generated_Source\PSoC5/CapSense_CSD_CSHL.c ****     {
 1134              		.loc 1 861 0
 1135              		.cfi_startproc
 1136              		@ args = 0, pretend = 0, frame = 16
 1137              		@ frame_needed = 1, uses_anonymous_args = 0
 1138              		@ link register save eliminated.
 1139 0000 80B4     		push	{r7}
 1140              		.cfi_def_cfa_offset 4
 1141              		.cfi_offset 7, -4
 1142 0002 85B0     		sub	sp, sp, #20
 1143              		.cfi_def_cfa_offset 24
 1144 0004 00AF     		add	r7, sp, #0
 1145              		.cfi_def_cfa_register 7
 1146 0006 0346     		mov	r3, r0
 1147 0008 FB71     		strb	r3, [r7, #7]
 1148 000a 0B46     		mov	r3, r1
 1149 000c BB71     		strb	r3, [r7, #6]
 1150 000e 1346     		mov	r3, r2	@ movhi
 1151 0010 BB80     		strh	r3, [r7, #4]	@ movhi
 862:.\Generated_Source\PSoC5/CapSense_CSD_CSHL.c ****         uint8 i;
 863:.\Generated_Source\PSoC5/CapSense_CSD_CSHL.c ****         #if (CapSense_CSD_IS_DIPLEX_SLIDER)        
 864:.\Generated_Source\PSoC5/CapSense_CSD_CSHL.c ****             uint8 curPos = 0u;
 865:.\Generated_Source\PSoC5/CapSense_CSD_CSHL.c ****             /* No centroid at the Start */
 866:.\Generated_Source\PSoC5/CapSense_CSD_CSHL.c ****             uint8 curCntrdSize = 0u;
 867:.\Generated_Source\PSoC5/CapSense_CSD_CSHL.c ****             uint8 curCtrdStartPos = 0xFFu;
 868:.\Generated_Source\PSoC5/CapSense_CSD_CSHL.c ****             /* The biggset centroid is zero */
 869:.\Generated_Source\PSoC5/CapSense_CSD_CSHL.c ****             uint8 biggestCtrdSize = 0u;
 870:.\Generated_Source\PSoC5/CapSense_CSD_CSHL.c ****             uint8 biggestCtrdStartPos = 0u;
 871:.\Generated_Source\PSoC5/CapSense_CSD_CSHL.c ****         #endif /* (CapSense_CSD_IS_DIPLEX_SLIDER) */
 872:.\Generated_Source\PSoC5/CapSense_CSD_CSHL.c ****         uint8 maximum = 0xFFu;
 1152              		.loc 1 872 0
 1153 0012 FF23     		movs	r3, #255
 1154 0014 BB73     		strb	r3, [r7, #14]
 873:.\Generated_Source\PSoC5/CapSense_CSD_CSHL.c ****         uint16 temp = 0u;
 1155              		.loc 1 873 0
 1156 0016 0023     		movs	r3, #0
 1157 0018 BB81     		strh	r3, [r7, #12]	@ movhi
 874:.\Generated_Source\PSoC5/CapSense_CSD_CSHL.c ****         uint16 *startOfSlider = &CapSense_CSD_sensorSignal[offset]; 
 1158              		.loc 1 874 0
 1159 001a FB79     		ldrb	r3, [r7, #7]	@ zero_extendqisi2
 1160 001c 5B00     		lsls	r3, r3, #1
 1161 001e 164A     		ldr	r2, .L72
 1162 0020 1344     		add	r3, r3, r2
 1163 0022 BB60     		str	r3, [r7, #8]
 875:.\Generated_Source\PSoC5/CapSense_CSD_CSHL.c **** 
 876:.\Generated_Source\PSoC5/CapSense_CSD_CSHL.c ****         #if (CapSense_CSD_IS_DIPLEX_SLIDER)        
 877:.\Generated_Source\PSoC5/CapSense_CSD_CSHL.c ****             if(diplex != 0u)
 878:.\Generated_Source\PSoC5/CapSense_CSD_CSHL.c ****             {
 879:.\Generated_Source\PSoC5/CapSense_CSD_CSHL.c ****                 /* Initialize */
ARM GAS  C:\Users\LUKASC~1\AppData\Local\Temp\ccd155Lz.s 			page 37


 880:.\Generated_Source\PSoC5/CapSense_CSD_CSHL.c ****                 i = 0u;
 881:.\Generated_Source\PSoC5/CapSense_CSD_CSHL.c ****                 
 882:.\Generated_Source\PSoC5/CapSense_CSD_CSHL.c ****                 /* Make slider x2 as Diplexed */
 883:.\Generated_Source\PSoC5/CapSense_CSD_CSHL.c ****                 count <<= 1u;
 884:.\Generated_Source\PSoC5/CapSense_CSD_CSHL.c ****                 while(1u)
 885:.\Generated_Source\PSoC5/CapSense_CSD_CSHL.c ****                 { 
 886:.\Generated_Source\PSoC5/CapSense_CSD_CSHL.c ****                     if (startOfSlider[curPos] > 0u)    /* Looking for centroids */
 887:.\Generated_Source\PSoC5/CapSense_CSD_CSHL.c ****                     {
 888:.\Generated_Source\PSoC5/CapSense_CSD_CSHL.c ****                         if (curCtrdStartPos == 0xFFu)
 889:.\Generated_Source\PSoC5/CapSense_CSD_CSHL.c ****                         {
 890:.\Generated_Source\PSoC5/CapSense_CSD_CSHL.c ****                             /* Start of centroid */
 891:.\Generated_Source\PSoC5/CapSense_CSD_CSHL.c ****                             curCtrdStartPos = i;
 892:.\Generated_Source\PSoC5/CapSense_CSD_CSHL.c ****                             curCntrdSize++;
 893:.\Generated_Source\PSoC5/CapSense_CSD_CSHL.c ****                         }
 894:.\Generated_Source\PSoC5/CapSense_CSD_CSHL.c ****                         else
 895:.\Generated_Source\PSoC5/CapSense_CSD_CSHL.c ****                         {
 896:.\Generated_Source\PSoC5/CapSense_CSD_CSHL.c ****                             curCntrdSize++;
 897:.\Generated_Source\PSoC5/CapSense_CSD_CSHL.c ****                         }
 898:.\Generated_Source\PSoC5/CapSense_CSD_CSHL.c ****                     }
 899:.\Generated_Source\PSoC5/CapSense_CSD_CSHL.c ****                     else   /* Select the bigest and indicate zero start */
 900:.\Generated_Source\PSoC5/CapSense_CSD_CSHL.c ****                     {          
 901:.\Generated_Source\PSoC5/CapSense_CSD_CSHL.c ****                         if(curCntrdSize > 0u)
 902:.\Generated_Source\PSoC5/CapSense_CSD_CSHL.c ****                         {
 903:.\Generated_Source\PSoC5/CapSense_CSD_CSHL.c ****                             /* We are in the end of current */
 904:.\Generated_Source\PSoC5/CapSense_CSD_CSHL.c ****                             if(curCntrdSize > biggestCtrdSize)
 905:.\Generated_Source\PSoC5/CapSense_CSD_CSHL.c ****                             {
 906:.\Generated_Source\PSoC5/CapSense_CSD_CSHL.c ****                                 biggestCtrdSize = curCntrdSize;
 907:.\Generated_Source\PSoC5/CapSense_CSD_CSHL.c ****                                 biggestCtrdStartPos = curCtrdStartPos;
 908:.\Generated_Source\PSoC5/CapSense_CSD_CSHL.c ****                             }
 909:.\Generated_Source\PSoC5/CapSense_CSD_CSHL.c ****                             
 910:.\Generated_Source\PSoC5/CapSense_CSD_CSHL.c ****                             curCntrdSize = 0u;
 911:.\Generated_Source\PSoC5/CapSense_CSD_CSHL.c ****                             curCtrdStartPos = 0xFFu;
 912:.\Generated_Source\PSoC5/CapSense_CSD_CSHL.c ****                         }
 913:.\Generated_Source\PSoC5/CapSense_CSD_CSHL.c ****                     }
 914:.\Generated_Source\PSoC5/CapSense_CSD_CSHL.c ****                     
 915:.\Generated_Source\PSoC5/CapSense_CSD_CSHL.c ****                     i++; 
 916:.\Generated_Source\PSoC5/CapSense_CSD_CSHL.c ****                     curPos = diplex[i];
 917:.\Generated_Source\PSoC5/CapSense_CSD_CSHL.c ****                     if(i == count)
 918:.\Generated_Source\PSoC5/CapSense_CSD_CSHL.c ****                     {
 919:.\Generated_Source\PSoC5/CapSense_CSD_CSHL.c ****                         break;
 920:.\Generated_Source\PSoC5/CapSense_CSD_CSHL.c ****                     }            
 921:.\Generated_Source\PSoC5/CapSense_CSD_CSHL.c ****                 }
 922:.\Generated_Source\PSoC5/CapSense_CSD_CSHL.c ****                     
 923:.\Generated_Source\PSoC5/CapSense_CSD_CSHL.c ****                     /* Find the biggest centroid if two are the same size, last one wins
 924:.\Generated_Source\PSoC5/CapSense_CSD_CSHL.c ****                        We are in the end of current */
 925:.\Generated_Source\PSoC5/CapSense_CSD_CSHL.c ****                 if (curCntrdSize >= biggestCtrdSize) 
 926:.\Generated_Source\PSoC5/CapSense_CSD_CSHL.c ****                 {
 927:.\Generated_Source\PSoC5/CapSense_CSD_CSHL.c ****                     biggestCtrdSize = curCntrdSize;
 928:.\Generated_Source\PSoC5/CapSense_CSD_CSHL.c ****                     biggestCtrdStartPos = curCtrdStartPos;
 929:.\Generated_Source\PSoC5/CapSense_CSD_CSHL.c ****                 }
 930:.\Generated_Source\PSoC5/CapSense_CSD_CSHL.c ****             }
 931:.\Generated_Source\PSoC5/CapSense_CSD_CSHL.c ****             else
 932:.\Generated_Source\PSoC5/CapSense_CSD_CSHL.c ****             {
 933:.\Generated_Source\PSoC5/CapSense_CSD_CSHL.c ****                 /* Without diplexing */ 
 934:.\Generated_Source\PSoC5/CapSense_CSD_CSHL.c ****                 biggestCtrdSize = count;
 935:.\Generated_Source\PSoC5/CapSense_CSD_CSHL.c ****             }
 936:.\Generated_Source\PSoC5/CapSense_CSD_CSHL.c ****                         
ARM GAS  C:\Users\LUKASC~1\AppData\Local\Temp\ccd155Lz.s 			page 38


 937:.\Generated_Source\PSoC5/CapSense_CSD_CSHL.c **** 
 938:.\Generated_Source\PSoC5/CapSense_CSD_CSHL.c ****             /* Check centroid size */
 939:.\Generated_Source\PSoC5/CapSense_CSD_CSHL.c ****             #if (CapSense_CSD_IS_NON_DIPLEX_SLIDER)
 940:.\Generated_Source\PSoC5/CapSense_CSD_CSHL.c ****                 if((biggestCtrdSize >= 2u) || ((biggestCtrdSize == 1u) && (diplex == 0u)))
 941:.\Generated_Source\PSoC5/CapSense_CSD_CSHL.c ****             #else                    
 942:.\Generated_Source\PSoC5/CapSense_CSD_CSHL.c ****                 if(biggestCtrdSize >= 2u)
 943:.\Generated_Source\PSoC5/CapSense_CSD_CSHL.c ****             #endif /* (CapSense_CSD_IS_NON_DIPLEX_SLIDER) */
 944:.\Generated_Source\PSoC5/CapSense_CSD_CSHL.c ****                 {
 945:.\Generated_Source\PSoC5/CapSense_CSD_CSHL.c ****                     for (i = biggestCtrdStartPos; i < (biggestCtrdStartPos + biggestCtrdSize); i++)
 946:.\Generated_Source\PSoC5/CapSense_CSD_CSHL.c ****                     {
 947:.\Generated_Source\PSoC5/CapSense_CSD_CSHL.c ****                         #if (CapSense_CSD_IS_DIPLEX_SLIDER && CapSense_CSD_IS_NON_DIPLEX_SLIDER)
 948:.\Generated_Source\PSoC5/CapSense_CSD_CSHL.c ****                             if (diplex == 0u)
 949:.\Generated_Source\PSoC5/CapSense_CSD_CSHL.c ****                             {
 950:.\Generated_Source\PSoC5/CapSense_CSD_CSHL.c ****                                 curPos = i;
 951:.\Generated_Source\PSoC5/CapSense_CSD_CSHL.c ****                             }
 952:.\Generated_Source\PSoC5/CapSense_CSD_CSHL.c ****                             else
 953:.\Generated_Source\PSoC5/CapSense_CSD_CSHL.c ****                             {
 954:.\Generated_Source\PSoC5/CapSense_CSD_CSHL.c ****                                 curPos = diplex[i];
 955:.\Generated_Source\PSoC5/CapSense_CSD_CSHL.c ****                             }                    
 956:.\Generated_Source\PSoC5/CapSense_CSD_CSHL.c ****                         #elif (CapSense_CSD_IS_DIPLEX_SLIDER)                    
 957:.\Generated_Source\PSoC5/CapSense_CSD_CSHL.c ****                             curPos = diplex[i];                    
 958:.\Generated_Source\PSoC5/CapSense_CSD_CSHL.c ****                         #endif /* (CapSense_CSD_IS_DIPLEX_SLIDER && CapSense_CSD_IS_NON_DIPLEX_SLID
 959:.\Generated_Source\PSoC5/CapSense_CSD_CSHL.c ****                         /* Looking for the grater element within centroid */
 960:.\Generated_Source\PSoC5/CapSense_CSD_CSHL.c ****                         if(startOfSlider[curPos] > fingerThreshold)
 961:.\Generated_Source\PSoC5/CapSense_CSD_CSHL.c ****                         {
 962:.\Generated_Source\PSoC5/CapSense_CSD_CSHL.c ****                             if(startOfSlider[curPos] > temp)
 963:.\Generated_Source\PSoC5/CapSense_CSD_CSHL.c ****                             {
 964:.\Generated_Source\PSoC5/CapSense_CSD_CSHL.c ****                                 maximum = i;
 965:.\Generated_Source\PSoC5/CapSense_CSD_CSHL.c ****                                 temp = startOfSlider[curPos];
 966:.\Generated_Source\PSoC5/CapSense_CSD_CSHL.c ****                             }
 967:.\Generated_Source\PSoC5/CapSense_CSD_CSHL.c ****                         }
 968:.\Generated_Source\PSoC5/CapSense_CSD_CSHL.c ****                     }
 969:.\Generated_Source\PSoC5/CapSense_CSD_CSHL.c ****                 } 
 970:.\Generated_Source\PSoC5/CapSense_CSD_CSHL.c ****         #else
 971:.\Generated_Source\PSoC5/CapSense_CSD_CSHL.c ****             for (i = 0u; i < count; i++)
 1164              		.loc 1 971 0
 1165 0024 0023     		movs	r3, #0
 1166 0026 FB73     		strb	r3, [r7, #15]
 1167 0028 1AE0     		b	.L68
 1168              	.L70:
 972:.\Generated_Source\PSoC5/CapSense_CSD_CSHL.c ****             {                      
 973:.\Generated_Source\PSoC5/CapSense_CSD_CSHL.c ****                 /* Looking for the grater element within centroid */
 974:.\Generated_Source\PSoC5/CapSense_CSD_CSHL.c ****                 if(startOfSlider[i] > fingerThreshold)
 1169              		.loc 1 974 0
 1170 002a FB7B     		ldrb	r3, [r7, #15]	@ zero_extendqisi2
 1171 002c 5B00     		lsls	r3, r3, #1
 1172 002e BA68     		ldr	r2, [r7, #8]
 1173 0030 1344     		add	r3, r3, r2
 1174 0032 1B88     		ldrh	r3, [r3]
 1175 0034 BA88     		ldrh	r2, [r7, #4]
 1176 0036 9A42     		cmp	r2, r3
 1177 0038 0FD2     		bcs	.L69
 975:.\Generated_Source\PSoC5/CapSense_CSD_CSHL.c ****                 {
 976:.\Generated_Source\PSoC5/CapSense_CSD_CSHL.c ****                     if(startOfSlider[i] > temp)
 1178              		.loc 1 976 0
 1179 003a FB7B     		ldrb	r3, [r7, #15]	@ zero_extendqisi2
 1180 003c 5B00     		lsls	r3, r3, #1
ARM GAS  C:\Users\LUKASC~1\AppData\Local\Temp\ccd155Lz.s 			page 39


 1181 003e BA68     		ldr	r2, [r7, #8]
 1182 0040 1344     		add	r3, r3, r2
 1183 0042 1B88     		ldrh	r3, [r3]
 1184 0044 BA89     		ldrh	r2, [r7, #12]
 1185 0046 9A42     		cmp	r2, r3
 1186 0048 07D2     		bcs	.L69
 977:.\Generated_Source\PSoC5/CapSense_CSD_CSHL.c ****                     {
 978:.\Generated_Source\PSoC5/CapSense_CSD_CSHL.c ****                         maximum = i;
 1187              		.loc 1 978 0
 1188 004a FB7B     		ldrb	r3, [r7, #15]
 1189 004c BB73     		strb	r3, [r7, #14]
 979:.\Generated_Source\PSoC5/CapSense_CSD_CSHL.c ****                         temp = startOfSlider[i];
 1190              		.loc 1 979 0
 1191 004e FB7B     		ldrb	r3, [r7, #15]	@ zero_extendqisi2
 1192 0050 5B00     		lsls	r3, r3, #1
 1193 0052 BA68     		ldr	r2, [r7, #8]
 1194 0054 1344     		add	r3, r3, r2
 1195 0056 1B88     		ldrh	r3, [r3]	@ movhi
 1196 0058 BB81     		strh	r3, [r7, #12]	@ movhi
 1197              	.L69:
 971:.\Generated_Source\PSoC5/CapSense_CSD_CSHL.c ****             {                      
 1198              		.loc 1 971 0 discriminator 2
 1199 005a FB7B     		ldrb	r3, [r7, #15]	@ zero_extendqisi2
 1200 005c 0133     		adds	r3, r3, #1
 1201 005e FB73     		strb	r3, [r7, #15]
 1202              	.L68:
 971:.\Generated_Source\PSoC5/CapSense_CSD_CSHL.c ****             {                      
 1203              		.loc 1 971 0 is_stmt 0 discriminator 1
 1204 0060 FA7B     		ldrb	r2, [r7, #15]	@ zero_extendqisi2
 1205 0062 BB79     		ldrb	r3, [r7, #6]	@ zero_extendqisi2
 1206 0064 9A42     		cmp	r2, r3
 1207 0066 E0D3     		bcc	.L70
 980:.\Generated_Source\PSoC5/CapSense_CSD_CSHL.c ****                     }
 981:.\Generated_Source\PSoC5/CapSense_CSD_CSHL.c ****                 }
 982:.\Generated_Source\PSoC5/CapSense_CSD_CSHL.c ****             }    
 983:.\Generated_Source\PSoC5/CapSense_CSD_CSHL.c ****         #endif /* (CapSense_CSD_IS_DIPLEX_SLIDER) */
 984:.\Generated_Source\PSoC5/CapSense_CSD_CSHL.c ****         return (maximum);
 1208              		.loc 1 984 0 is_stmt 1
 1209 0068 BB7B     		ldrb	r3, [r7, #14]	@ zero_extendqisi2
 985:.\Generated_Source\PSoC5/CapSense_CSD_CSHL.c ****     }
 1210              		.loc 1 985 0
 1211 006a 1846     		mov	r0, r3
 1212 006c 1437     		adds	r7, r7, #20
 1213              		.cfi_def_cfa_offset 4
 1214 006e BD46     		mov	sp, r7
 1215              		.cfi_def_cfa_register 13
 1216              		@ sp needed
 1217 0070 5DF8047B 		ldr	r7, [sp], #4
 1218              		.cfi_restore 7
 1219              		.cfi_def_cfa_offset 0
 1220 0074 7047     		bx	lr
 1221              	.L73:
 1222 0076 00BF     		.align	2
 1223              	.L72:
 1224 0078 00000000 		.word	CapSense_CSD_sensorSignal
 1225              		.cfi_endproc
 1226              	.LFE11:
ARM GAS  C:\Users\LUKASC~1\AppData\Local\Temp\ccd155Lz.s 			page 40


 1227              		.size	CapSense_CSD_FindMaximum, .-CapSense_CSD_FindMaximum
 1228              		.section	.text.CapSense_CSD_CalcCentroid,"ax",%progbits
 1229              		.align	2
 1230              		.global	CapSense_CSD_CalcCentroid
 1231              		.thumb
 1232              		.thumb_func
 1233              		.type	CapSense_CSD_CalcCentroid, %function
 1234              	CapSense_CSD_CalcCentroid:
 1235              	.LFB12:
 986:.\Generated_Source\PSoC5/CapSense_CSD_CSHL.c ****     
 987:.\Generated_Source\PSoC5/CapSense_CSD_CSHL.c ****     
 988:.\Generated_Source\PSoC5/CapSense_CSD_CSHL.c ****     /*******************************************************************************
 989:.\Generated_Source\PSoC5/CapSense_CSD_CSHL.c ****     * Function Name: CapSense_CSD_CalcCentroid
 990:.\Generated_Source\PSoC5/CapSense_CSD_CSHL.c ****     ********************************************************************************
 991:.\Generated_Source\PSoC5/CapSense_CSD_CSHL.c ****     *
 992:.\Generated_Source\PSoC5/CapSense_CSD_CSHL.c ****     * Summary:
 993:.\Generated_Source\PSoC5/CapSense_CSD_CSHL.c ****     *  Returns position value calculated accoring index of maximum element and API
 994:.\Generated_Source\PSoC5/CapSense_CSD_CSHL.c ****     *  resolution.
 995:.\Generated_Source\PSoC5/CapSense_CSD_CSHL.c ****     *
 996:.\Generated_Source\PSoC5/CapSense_CSD_CSHL.c ****     * Parameters:
 997:.\Generated_Source\PSoC5/CapSense_CSD_CSHL.c ****     *  type:  widget type.
 998:.\Generated_Source\PSoC5/CapSense_CSD_CSHL.c ****     *  diplex:  pointer to diplex table.
 999:.\Generated_Source\PSoC5/CapSense_CSD_CSHL.c ****     *  maximum:  Index of maximum element within centroid.
1000:.\Generated_Source\PSoC5/CapSense_CSD_CSHL.c ****     *  offset:   Start index of cetroid in CapSense_CSD_SensorSignal[] array.
1001:.\Generated_Source\PSoC5/CapSense_CSD_CSHL.c ****     *  count:    Number of elements within centroid.
1002:.\Generated_Source\PSoC5/CapSense_CSD_CSHL.c ****     *  resolution:  multiplicator calculated according to centroid type and
1003:.\Generated_Source\PSoC5/CapSense_CSD_CSHL.c ****     *  API resolution.
1004:.\Generated_Source\PSoC5/CapSense_CSD_CSHL.c ****     *  noiseThreshold:  Noise threshould.
1005:.\Generated_Source\PSoC5/CapSense_CSD_CSHL.c ****     * 
1006:.\Generated_Source\PSoC5/CapSense_CSD_CSHL.c ****     * Return:
1007:.\Generated_Source\PSoC5/CapSense_CSD_CSHL.c ****     *  Returns position value of the slider.
1008:.\Generated_Source\PSoC5/CapSense_CSD_CSHL.c ****     * 
1009:.\Generated_Source\PSoC5/CapSense_CSD_CSHL.c ****     *
1010:.\Generated_Source\PSoC5/CapSense_CSD_CSHL.c ****     * Reentrant:
1011:.\Generated_Source\PSoC5/CapSense_CSD_CSHL.c ****     *  No.
1012:.\Generated_Source\PSoC5/CapSense_CSD_CSHL.c ****     *
1013:.\Generated_Source\PSoC5/CapSense_CSD_CSHL.c ****     *******************************************************************************/
1014:.\Generated_Source\PSoC5/CapSense_CSD_CSHL.c ****     uint8 CapSense_CSD_CalcCentroid(uint8 maximum, uint8 offset, 
1015:.\Generated_Source\PSoC5/CapSense_CSD_CSHL.c ****                                         uint8 count, uint16 resolution, uint16 noiseThreshold)
1016:.\Generated_Source\PSoC5/CapSense_CSD_CSHL.c **** 	                                    
1017:.\Generated_Source\PSoC5/CapSense_CSD_CSHL.c ****     {
 1236              		.loc 1 1017 0
 1237              		.cfi_startproc
 1238              		@ args = 4, pretend = 0, frame = 32
 1239              		@ frame_needed = 1, uses_anonymous_args = 0
 1240              		@ link register save eliminated.
 1241 0000 90B4     		push	{r4, r7}
 1242              		.cfi_def_cfa_offset 8
 1243              		.cfi_offset 4, -8
 1244              		.cfi_offset 7, -4
 1245 0002 88B0     		sub	sp, sp, #32
 1246              		.cfi_def_cfa_offset 40
 1247 0004 00AF     		add	r7, sp, #0
 1248              		.cfi_def_cfa_register 7
 1249 0006 0446     		mov	r4, r0
 1250 0008 0846     		mov	r0, r1
 1251 000a 1146     		mov	r1, r2
ARM GAS  C:\Users\LUKASC~1\AppData\Local\Temp\ccd155Lz.s 			page 41


 1252 000c 1A46     		mov	r2, r3
 1253 000e 2346     		mov	r3, r4
 1254 0010 FB71     		strb	r3, [r7, #7]
 1255 0012 0346     		mov	r3, r0
 1256 0014 BB71     		strb	r3, [r7, #6]
 1257 0016 0B46     		mov	r3, r1
 1258 0018 7B71     		strb	r3, [r7, #5]
 1259 001a 1346     		mov	r3, r2	@ movhi
 1260 001c 7B80     		strh	r3, [r7, #2]	@ movhi
1018:.\Generated_Source\PSoC5/CapSense_CSD_CSHL.c ****         #if ((CapSense_CSD_TOTAL_LINEAR_SLIDERS_COUNT > 0u) || (CapSense_CSD_TOTAL_TOUCH_PADS_COUNT
1019:.\Generated_Source\PSoC5/CapSense_CSD_CSHL.c ****             uint8 posPrev = 0u;
 1261              		.loc 1 1019 0
 1262 001e 0023     		movs	r3, #0
 1263 0020 FB77     		strb	r3, [r7, #31]
1020:.\Generated_Source\PSoC5/CapSense_CSD_CSHL.c ****             uint8 posNext = 0u;
 1264              		.loc 1 1020 0
 1265 0022 0023     		movs	r3, #0
 1266 0024 BB77     		strb	r3, [r7, #30]
1021:.\Generated_Source\PSoC5/CapSense_CSD_CSHL.c ****         #endif /* ((CapSense_CSD_TOTAL_LINEAR_SLIDERS_COUNT>0u) || (CapSense_CSD_TOTAL_TOUCH_PADS_C
1022:.\Generated_Source\PSoC5/CapSense_CSD_CSHL.c ****                
1023:.\Generated_Source\PSoC5/CapSense_CSD_CSHL.c ****         #if (CapSense_CSD_IS_DIPLEX_SLIDER)                
1024:.\Generated_Source\PSoC5/CapSense_CSD_CSHL.c ****             uint8 pos;
1025:.\Generated_Source\PSoC5/CapSense_CSD_CSHL.c ****         #endif /* (CapSense_CSD_IS_DIPLEX_SLIDER) */
1026:.\Generated_Source\PSoC5/CapSense_CSD_CSHL.c ****         
1027:.\Generated_Source\PSoC5/CapSense_CSD_CSHL.c ****         /* Helps while centroid calulation */
1028:.\Generated_Source\PSoC5/CapSense_CSD_CSHL.c ****         static uint16 CapSense_CSD_centroid[3u];
1029:.\Generated_Source\PSoC5/CapSense_CSD_CSHL.c **** 
1030:.\Generated_Source\PSoC5/CapSense_CSD_CSHL.c ****         uint8 position;
1031:.\Generated_Source\PSoC5/CapSense_CSD_CSHL.c ****         uint32 numerator;
1032:.\Generated_Source\PSoC5/CapSense_CSD_CSHL.c ****         int32 denominator;
1033:.\Generated_Source\PSoC5/CapSense_CSD_CSHL.c ****         uint16 *startOfSlider = &CapSense_CSD_sensorSignal[offset];
 1267              		.loc 1 1033 0
 1268 0026 BB79     		ldrb	r3, [r7, #6]	@ zero_extendqisi2
 1269 0028 5B00     		lsls	r3, r3, #1
 1270 002a 494A     		ldr	r2, .L84
 1271 002c 1344     		add	r3, r3, r2
 1272 002e BB61     		str	r3, [r7, #24]
1034:.\Generated_Source\PSoC5/CapSense_CSD_CSHL.c ****                     
1035:.\Generated_Source\PSoC5/CapSense_CSD_CSHL.c ****         #if (CapSense_CSD_ADD_SLIDER_TYPE)
1036:.\Generated_Source\PSoC5/CapSense_CSD_CSHL.c ****             if(type == CapSense_CSD_TYPE_RADIAL_SLIDER)
1037:.\Generated_Source\PSoC5/CapSense_CSD_CSHL.c ****             {
1038:.\Generated_Source\PSoC5/CapSense_CSD_CSHL.c ****         #endif /* (CapSense_CSD_ADD_SLIDER_TYPE) */
1039:.\Generated_Source\PSoC5/CapSense_CSD_CSHL.c **** 
1040:.\Generated_Source\PSoC5/CapSense_CSD_CSHL.c ****             #if (CapSense_CSD_TOTAL_RADIAL_SLIDERS_COUNT > 0u)                
1041:.\Generated_Source\PSoC5/CapSense_CSD_CSHL.c ****                 /* Copy Signal for found centriod */
1042:.\Generated_Source\PSoC5/CapSense_CSD_CSHL.c ****                 CapSense_CSD_centroid[CapSense_CSD_POS] = startOfSlider[maximum];
1043:.\Generated_Source\PSoC5/CapSense_CSD_CSHL.c ****                  
1044:.\Generated_Source\PSoC5/CapSense_CSD_CSHL.c ****                 /* Check borders for ROTARY Slider */
1045:.\Generated_Source\PSoC5/CapSense_CSD_CSHL.c ****                 if (maximum == 0u)                   /* Start of centroid */
1046:.\Generated_Source\PSoC5/CapSense_CSD_CSHL.c ****                 { 
1047:.\Generated_Source\PSoC5/CapSense_CSD_CSHL.c ****                     CapSense_CSD_centroid[CapSense_CSD_POS_PREV] = startOfSlider[count - 1u];
1048:.\Generated_Source\PSoC5/CapSense_CSD_CSHL.c ****                     CapSense_CSD_centroid[CapSense_CSD_POS_NEXT] = startOfSlider[1u];
1049:.\Generated_Source\PSoC5/CapSense_CSD_CSHL.c ****                 }
1050:.\Generated_Source\PSoC5/CapSense_CSD_CSHL.c ****                 else if (maximum == (count - 1u))    /* End of centroid */
1051:.\Generated_Source\PSoC5/CapSense_CSD_CSHL.c ****                 {
1052:.\Generated_Source\PSoC5/CapSense_CSD_CSHL.c ****                     CapSense_CSD_centroid[CapSense_CSD_POS_PREV] = startOfSlider[maximum - 1u];
1053:.\Generated_Source\PSoC5/CapSense_CSD_CSHL.c ****                     CapSense_CSD_centroid[CapSense_CSD_POS_NEXT] = startOfSlider[0u];
ARM GAS  C:\Users\LUKASC~1\AppData\Local\Temp\ccd155Lz.s 			page 42


1054:.\Generated_Source\PSoC5/CapSense_CSD_CSHL.c ****                 }
1055:.\Generated_Source\PSoC5/CapSense_CSD_CSHL.c ****                 else                                /* Not first Not last */
1056:.\Generated_Source\PSoC5/CapSense_CSD_CSHL.c ****                 {
1057:.\Generated_Source\PSoC5/CapSense_CSD_CSHL.c ****                     CapSense_CSD_centroid[CapSense_CSD_POS_PREV] = startOfSlider[maximum - 1u];
1058:.\Generated_Source\PSoC5/CapSense_CSD_CSHL.c ****                     CapSense_CSD_centroid[CapSense_CSD_POS_NEXT] = startOfSlider[maximum + 1u];
1059:.\Generated_Source\PSoC5/CapSense_CSD_CSHL.c ****                 }
1060:.\Generated_Source\PSoC5/CapSense_CSD_CSHL.c ****             #endif /* (CapSense_CSD_TOTAL_RADIAL_SLIDERS_COUNT > 0u) */
1061:.\Generated_Source\PSoC5/CapSense_CSD_CSHL.c **** 
1062:.\Generated_Source\PSoC5/CapSense_CSD_CSHL.c ****         #if (CapSense_CSD_ADD_SLIDER_TYPE)
1063:.\Generated_Source\PSoC5/CapSense_CSD_CSHL.c ****             }
1064:.\Generated_Source\PSoC5/CapSense_CSD_CSHL.c ****             else
1065:.\Generated_Source\PSoC5/CapSense_CSD_CSHL.c ****             {
1066:.\Generated_Source\PSoC5/CapSense_CSD_CSHL.c ****         #endif /* (CapSense_CSD_ADD_SLIDER_TYPE) */
1067:.\Generated_Source\PSoC5/CapSense_CSD_CSHL.c **** 
1068:.\Generated_Source\PSoC5/CapSense_CSD_CSHL.c ****             #if ((CapSense_CSD_TOTAL_LINEAR_SLIDERS_COUNT > 0u) || (CapSense_CSD_TOTAL_TOUCH_PADS_C
1069:.\Generated_Source\PSoC5/CapSense_CSD_CSHL.c ****                 #if (CapSense_CSD_IS_DIPLEX_SLIDER && CapSense_CSD_IS_NON_DIPLEX_SLIDER)           
1070:.\Generated_Source\PSoC5/CapSense_CSD_CSHL.c ****                     /* Calculate next and previous near to maximum */
1071:.\Generated_Source\PSoC5/CapSense_CSD_CSHL.c ****                     if(diplex == 0u)
1072:.\Generated_Source\PSoC5/CapSense_CSD_CSHL.c ****                     {
1073:.\Generated_Source\PSoC5/CapSense_CSD_CSHL.c ****                         pos     = maximum;
1074:.\Generated_Source\PSoC5/CapSense_CSD_CSHL.c ****                         posPrev = maximum - 1u;
1075:.\Generated_Source\PSoC5/CapSense_CSD_CSHL.c ****                         posNext = maximum + 1u; 
1076:.\Generated_Source\PSoC5/CapSense_CSD_CSHL.c ****                     }
1077:.\Generated_Source\PSoC5/CapSense_CSD_CSHL.c ****                     else
1078:.\Generated_Source\PSoC5/CapSense_CSD_CSHL.c ****                     {
1079:.\Generated_Source\PSoC5/CapSense_CSD_CSHL.c ****                         pos     = diplex[maximum];
1080:.\Generated_Source\PSoC5/CapSense_CSD_CSHL.c ****                         posPrev = diplex[maximum - 1u];
1081:.\Generated_Source\PSoC5/CapSense_CSD_CSHL.c ****                         posNext = diplex[maximum + 1u];
1082:.\Generated_Source\PSoC5/CapSense_CSD_CSHL.c ****                         count <<= 1u;
1083:.\Generated_Source\PSoC5/CapSense_CSD_CSHL.c ****                     }                    
1084:.\Generated_Source\PSoC5/CapSense_CSD_CSHL.c ****                 #elif (CapSense_CSD_IS_DIPLEX_SLIDER)
1085:.\Generated_Source\PSoC5/CapSense_CSD_CSHL.c ****                     /* Calculate next and previous near to maximum */
1086:.\Generated_Source\PSoC5/CapSense_CSD_CSHL.c ****                     pos     = diplex[maximum];
1087:.\Generated_Source\PSoC5/CapSense_CSD_CSHL.c ****                     posPrev = diplex[maximum - 1u];
1088:.\Generated_Source\PSoC5/CapSense_CSD_CSHL.c ****                     posNext = diplex[maximum + 1u];
1089:.\Generated_Source\PSoC5/CapSense_CSD_CSHL.c ****                     count <<= 1u;                    
1090:.\Generated_Source\PSoC5/CapSense_CSD_CSHL.c ****                 #else                    
1091:.\Generated_Source\PSoC5/CapSense_CSD_CSHL.c ****                     /* Calculate next and previous near to maximum */
1092:.\Generated_Source\PSoC5/CapSense_CSD_CSHL.c ****                     if (maximum >= 1u)
 1273              		.loc 1 1092 0
 1274 0030 FB79     		ldrb	r3, [r7, #7]	@ zero_extendqisi2
 1275 0032 002B     		cmp	r3, #0
 1276 0034 02D0     		beq	.L75
1093:.\Generated_Source\PSoC5/CapSense_CSD_CSHL.c ****                     {
1094:.\Generated_Source\PSoC5/CapSense_CSD_CSHL.c ****                         posPrev = maximum - 1u;
 1277              		.loc 1 1094 0
 1278 0036 FB79     		ldrb	r3, [r7, #7]
 1279 0038 013B     		subs	r3, r3, #1
 1280 003a FB77     		strb	r3, [r7, #31]
 1281              	.L75:
1095:.\Generated_Source\PSoC5/CapSense_CSD_CSHL.c ****                     }
1096:.\Generated_Source\PSoC5/CapSense_CSD_CSHL.c ****                     posNext = maximum + 1u; 
 1282              		.loc 1 1096 0
 1283 003c FB79     		ldrb	r3, [r7, #7]
 1284 003e 0133     		adds	r3, r3, #1
 1285 0040 BB77     		strb	r3, [r7, #30]
1097:.\Generated_Source\PSoC5/CapSense_CSD_CSHL.c ****                 #endif /* (CapSense_CSD_IS_DIPLEX_SLIDER && CapSense_CSD_IS_NON_DIPLEX_SLIDER) */
ARM GAS  C:\Users\LUKASC~1\AppData\Local\Temp\ccd155Lz.s 			page 43


1098:.\Generated_Source\PSoC5/CapSense_CSD_CSHL.c ****                         
1099:.\Generated_Source\PSoC5/CapSense_CSD_CSHL.c ****                 /* Copy Signal for found centriod */
1100:.\Generated_Source\PSoC5/CapSense_CSD_CSHL.c ****                 #if (CapSense_CSD_IS_DIPLEX_SLIDER)
1101:.\Generated_Source\PSoC5/CapSense_CSD_CSHL.c ****                     CapSense_CSD_centroid[CapSense_CSD_POS] = startOfSlider[pos];
1102:.\Generated_Source\PSoC5/CapSense_CSD_CSHL.c ****                 #else
1103:.\Generated_Source\PSoC5/CapSense_CSD_CSHL.c ****                     CapSense_CSD_centroid[CapSense_CSD_POS] = startOfSlider[maximum];
 1286              		.loc 1 1103 0
 1287 0042 FB79     		ldrb	r3, [r7, #7]	@ zero_extendqisi2
 1288 0044 5B00     		lsls	r3, r3, #1
 1289 0046 BA69     		ldr	r2, [r7, #24]
 1290 0048 1344     		add	r3, r3, r2
 1291 004a 1A88     		ldrh	r2, [r3]
 1292 004c 414B     		ldr	r3, .L84+4
 1293 004e 5A80     		strh	r2, [r3, #2]	@ movhi
1104:.\Generated_Source\PSoC5/CapSense_CSD_CSHL.c ****                 #endif /* (CapSense_CSD_IS_DIPLEX_SLIDER) */
1105:.\Generated_Source\PSoC5/CapSense_CSD_CSHL.c ****                     
1106:.\Generated_Source\PSoC5/CapSense_CSD_CSHL.c ****                 /* Check borders for LINEAR Slider */
1107:.\Generated_Source\PSoC5/CapSense_CSD_CSHL.c ****                 if (maximum == 0u)                   /* Start of centroid */
 1294              		.loc 1 1107 0
 1295 0050 FB79     		ldrb	r3, [r7, #7]	@ zero_extendqisi2
 1296 0052 002B     		cmp	r3, #0
 1297 0054 0AD1     		bne	.L76
1108:.\Generated_Source\PSoC5/CapSense_CSD_CSHL.c ****                 { 
1109:.\Generated_Source\PSoC5/CapSense_CSD_CSHL.c ****                     CapSense_CSD_centroid[CapSense_CSD_POS_PREV] = 0u;
 1298              		.loc 1 1109 0
 1299 0056 3F4B     		ldr	r3, .L84+4
 1300 0058 0022     		movs	r2, #0
 1301 005a 1A80     		strh	r2, [r3]	@ movhi
1110:.\Generated_Source\PSoC5/CapSense_CSD_CSHL.c ****                     CapSense_CSD_centroid[CapSense_CSD_POS_NEXT] = startOfSlider[posNext];
 1302              		.loc 1 1110 0
 1303 005c BB7F     		ldrb	r3, [r7, #30]	@ zero_extendqisi2
 1304 005e 5B00     		lsls	r3, r3, #1
 1305 0060 BA69     		ldr	r2, [r7, #24]
 1306 0062 1344     		add	r3, r3, r2
 1307 0064 1A88     		ldrh	r2, [r3]
 1308 0066 3B4B     		ldr	r3, .L84+4
 1309 0068 9A80     		strh	r2, [r3, #4]	@ movhi
 1310 006a 1DE0     		b	.L77
 1311              	.L76:
1111:.\Generated_Source\PSoC5/CapSense_CSD_CSHL.c ****                 }
1112:.\Generated_Source\PSoC5/CapSense_CSD_CSHL.c ****                 else if (maximum == ((count) - 1u)) /* End of centroid */
 1312              		.loc 1 1112 0
 1313 006c FA79     		ldrb	r2, [r7, #7]	@ zero_extendqisi2
 1314 006e 7B79     		ldrb	r3, [r7, #5]	@ zero_extendqisi2
 1315 0070 013B     		subs	r3, r3, #1
 1316 0072 9A42     		cmp	r2, r3
 1317 0074 0AD1     		bne	.L78
1113:.\Generated_Source\PSoC5/CapSense_CSD_CSHL.c ****                 {
1114:.\Generated_Source\PSoC5/CapSense_CSD_CSHL.c ****                     CapSense_CSD_centroid[CapSense_CSD_POS_PREV] = startOfSlider[posPrev];
 1318              		.loc 1 1114 0
 1319 0076 FB7F     		ldrb	r3, [r7, #31]	@ zero_extendqisi2
 1320 0078 5B00     		lsls	r3, r3, #1
 1321 007a BA69     		ldr	r2, [r7, #24]
 1322 007c 1344     		add	r3, r3, r2
 1323 007e 1A88     		ldrh	r2, [r3]
 1324 0080 344B     		ldr	r3, .L84+4
 1325 0082 1A80     		strh	r2, [r3]	@ movhi
ARM GAS  C:\Users\LUKASC~1\AppData\Local\Temp\ccd155Lz.s 			page 44


1115:.\Generated_Source\PSoC5/CapSense_CSD_CSHL.c ****                     CapSense_CSD_centroid[CapSense_CSD_POS_NEXT] = 0u;
 1326              		.loc 1 1115 0
 1327 0084 334B     		ldr	r3, .L84+4
 1328 0086 0022     		movs	r2, #0
 1329 0088 9A80     		strh	r2, [r3, #4]	@ movhi
 1330 008a 0DE0     		b	.L77
 1331              	.L78:
1116:.\Generated_Source\PSoC5/CapSense_CSD_CSHL.c ****                 }
1117:.\Generated_Source\PSoC5/CapSense_CSD_CSHL.c ****                 else                                /* Not first Not last */
1118:.\Generated_Source\PSoC5/CapSense_CSD_CSHL.c ****                 {
1119:.\Generated_Source\PSoC5/CapSense_CSD_CSHL.c ****                     CapSense_CSD_centroid[CapSense_CSD_POS_PREV] = startOfSlider[posPrev];
 1332              		.loc 1 1119 0
 1333 008c FB7F     		ldrb	r3, [r7, #31]	@ zero_extendqisi2
 1334 008e 5B00     		lsls	r3, r3, #1
 1335 0090 BA69     		ldr	r2, [r7, #24]
 1336 0092 1344     		add	r3, r3, r2
 1337 0094 1A88     		ldrh	r2, [r3]
 1338 0096 2F4B     		ldr	r3, .L84+4
 1339 0098 1A80     		strh	r2, [r3]	@ movhi
1120:.\Generated_Source\PSoC5/CapSense_CSD_CSHL.c ****                     CapSense_CSD_centroid[CapSense_CSD_POS_NEXT] = startOfSlider[posNext];
 1340              		.loc 1 1120 0
 1341 009a BB7F     		ldrb	r3, [r7, #30]	@ zero_extendqisi2
 1342 009c 5B00     		lsls	r3, r3, #1
 1343 009e BA69     		ldr	r2, [r7, #24]
 1344 00a0 1344     		add	r3, r3, r2
 1345 00a2 1A88     		ldrh	r2, [r3]
 1346 00a4 2B4B     		ldr	r3, .L84+4
 1347 00a6 9A80     		strh	r2, [r3, #4]	@ movhi
 1348              	.L77:
1121:.\Generated_Source\PSoC5/CapSense_CSD_CSHL.c ****                 }
1122:.\Generated_Source\PSoC5/CapSense_CSD_CSHL.c ****             #endif /* ((CapSense_CSD_TOTAL_LINEAR_SLIDERS_COUNT>0u)||(CapSense_CSD_TOTAL_TOUCH_PADS
1123:.\Generated_Source\PSoC5/CapSense_CSD_CSHL.c **** 
1124:.\Generated_Source\PSoC5/CapSense_CSD_CSHL.c ****         #if (CapSense_CSD_ADD_SLIDER_TYPE)
1125:.\Generated_Source\PSoC5/CapSense_CSD_CSHL.c ****             }
1126:.\Generated_Source\PSoC5/CapSense_CSD_CSHL.c ****         #endif /* (CapSense_CSD_ADD_SLIDER_TYPE) */
1127:.\Generated_Source\PSoC5/CapSense_CSD_CSHL.c ****     
1128:.\Generated_Source\PSoC5/CapSense_CSD_CSHL.c ****         /* Subtract noiseThreshold */
1129:.\Generated_Source\PSoC5/CapSense_CSD_CSHL.c ****         if(CapSense_CSD_centroid[CapSense_CSD_POS_PREV] > noiseThreshold)
 1349              		.loc 1 1129 0
 1350 00a8 2A4B     		ldr	r3, .L84+4
 1351 00aa 1B88     		ldrh	r3, [r3]
 1352 00ac 3A8D     		ldrh	r2, [r7, #40]
 1353 00ae 9A42     		cmp	r2, r3
 1354 00b0 07D2     		bcs	.L79
1130:.\Generated_Source\PSoC5/CapSense_CSD_CSHL.c ****         {
1131:.\Generated_Source\PSoC5/CapSense_CSD_CSHL.c ****             CapSense_CSD_centroid[CapSense_CSD_POS_PREV] -= noiseThreshold;
 1355              		.loc 1 1131 0
 1356 00b2 284B     		ldr	r3, .L84+4
 1357 00b4 1A88     		ldrh	r2, [r3]
 1358 00b6 3B8D     		ldrh	r3, [r7, #40]	@ movhi
 1359 00b8 D31A     		subs	r3, r2, r3
 1360 00ba 9AB2     		uxth	r2, r3
 1361 00bc 254B     		ldr	r3, .L84+4
 1362 00be 1A80     		strh	r2, [r3]	@ movhi
 1363 00c0 02E0     		b	.L80
 1364              	.L79:
1132:.\Generated_Source\PSoC5/CapSense_CSD_CSHL.c ****         }
ARM GAS  C:\Users\LUKASC~1\AppData\Local\Temp\ccd155Lz.s 			page 45


1133:.\Generated_Source\PSoC5/CapSense_CSD_CSHL.c ****         else
1134:.\Generated_Source\PSoC5/CapSense_CSD_CSHL.c ****         {
1135:.\Generated_Source\PSoC5/CapSense_CSD_CSHL.c ****             CapSense_CSD_centroid[CapSense_CSD_POS_PREV] = 0u;
 1365              		.loc 1 1135 0
 1366 00c2 244B     		ldr	r3, .L84+4
 1367 00c4 0022     		movs	r2, #0
 1368 00c6 1A80     		strh	r2, [r3]	@ movhi
 1369              	.L80:
1136:.\Generated_Source\PSoC5/CapSense_CSD_CSHL.c ****         }
1137:.\Generated_Source\PSoC5/CapSense_CSD_CSHL.c ****         
1138:.\Generated_Source\PSoC5/CapSense_CSD_CSHL.c ****         /* Maximum always grater than fingerThreshold, so grate than noiseThreshold */
1139:.\Generated_Source\PSoC5/CapSense_CSD_CSHL.c ****         CapSense_CSD_centroid[CapSense_CSD_POS] -= noiseThreshold;
 1370              		.loc 1 1139 0
 1371 00c8 224B     		ldr	r3, .L84+4
 1372 00ca 5A88     		ldrh	r2, [r3, #2]
 1373 00cc 3B8D     		ldrh	r3, [r7, #40]	@ movhi
 1374 00ce D31A     		subs	r3, r2, r3
 1375 00d0 9AB2     		uxth	r2, r3
 1376 00d2 204B     		ldr	r3, .L84+4
 1377 00d4 5A80     		strh	r2, [r3, #2]	@ movhi
1140:.\Generated_Source\PSoC5/CapSense_CSD_CSHL.c ****         
1141:.\Generated_Source\PSoC5/CapSense_CSD_CSHL.c ****         /* Subtract noiseThreshold */
1142:.\Generated_Source\PSoC5/CapSense_CSD_CSHL.c ****         if(CapSense_CSD_centroid[CapSense_CSD_POS_NEXT] > noiseThreshold)
 1378              		.loc 1 1142 0
 1379 00d6 1F4B     		ldr	r3, .L84+4
 1380 00d8 9B88     		ldrh	r3, [r3, #4]
 1381 00da 3A8D     		ldrh	r2, [r7, #40]
 1382 00dc 9A42     		cmp	r2, r3
 1383 00de 07D2     		bcs	.L81
1143:.\Generated_Source\PSoC5/CapSense_CSD_CSHL.c ****         {
1144:.\Generated_Source\PSoC5/CapSense_CSD_CSHL.c ****             CapSense_CSD_centroid[CapSense_CSD_POS_NEXT] -= noiseThreshold;
 1384              		.loc 1 1144 0
 1385 00e0 1C4B     		ldr	r3, .L84+4
 1386 00e2 9A88     		ldrh	r2, [r3, #4]
 1387 00e4 3B8D     		ldrh	r3, [r7, #40]	@ movhi
 1388 00e6 D31A     		subs	r3, r2, r3
 1389 00e8 9AB2     		uxth	r2, r3
 1390 00ea 1A4B     		ldr	r3, .L84+4
 1391 00ec 9A80     		strh	r2, [r3, #4]	@ movhi
 1392 00ee 02E0     		b	.L82
 1393              	.L81:
1145:.\Generated_Source\PSoC5/CapSense_CSD_CSHL.c ****         }
1146:.\Generated_Source\PSoC5/CapSense_CSD_CSHL.c ****         else
1147:.\Generated_Source\PSoC5/CapSense_CSD_CSHL.c ****         {
1148:.\Generated_Source\PSoC5/CapSense_CSD_CSHL.c ****             CapSense_CSD_centroid[CapSense_CSD_POS_NEXT] = 0u;
 1394              		.loc 1 1148 0
 1395 00f0 184B     		ldr	r3, .L84+4
 1396 00f2 0022     		movs	r2, #0
 1397 00f4 9A80     		strh	r2, [r3, #4]	@ movhi
 1398              	.L82:
1149:.\Generated_Source\PSoC5/CapSense_CSD_CSHL.c ****         }
1150:.\Generated_Source\PSoC5/CapSense_CSD_CSHL.c ****         
1151:.\Generated_Source\PSoC5/CapSense_CSD_CSHL.c ****         
1152:.\Generated_Source\PSoC5/CapSense_CSD_CSHL.c ****         /* Si+1 - Si-1 */
1153:.\Generated_Source\PSoC5/CapSense_CSD_CSHL.c ****         numerator = (uint32) CapSense_CSD_centroid[CapSense_CSD_POS_NEXT] -
 1399              		.loc 1 1153 0
 1400 00f6 174B     		ldr	r3, .L84+4
ARM GAS  C:\Users\LUKASC~1\AppData\Local\Temp\ccd155Lz.s 			page 46


 1401 00f8 9B88     		ldrh	r3, [r3, #4]
 1402 00fa 1A46     		mov	r2, r3
1154:.\Generated_Source\PSoC5/CapSense_CSD_CSHL.c ****                     (uint32) CapSense_CSD_centroid[CapSense_CSD_POS_PREV];
 1403              		.loc 1 1154 0
 1404 00fc 154B     		ldr	r3, .L84+4
 1405 00fe 1B88     		ldrh	r3, [r3]
1153:.\Generated_Source\PSoC5/CapSense_CSD_CSHL.c ****                     (uint32) CapSense_CSD_centroid[CapSense_CSD_POS_PREV];
 1406              		.loc 1 1153 0
 1407 0100 D31A     		subs	r3, r2, r3
 1408 0102 7B61     		str	r3, [r7, #20]
1155:.\Generated_Source\PSoC5/CapSense_CSD_CSHL.c **** 
1156:.\Generated_Source\PSoC5/CapSense_CSD_CSHL.c ****         /* Si+1 + Si + Si-1 */
1157:.\Generated_Source\PSoC5/CapSense_CSD_CSHL.c ****         denominator = (int32) CapSense_CSD_centroid[CapSense_CSD_POS_PREV] + 
 1409              		.loc 1 1157 0
 1410 0104 134B     		ldr	r3, .L84+4
 1411 0106 1B88     		ldrh	r3, [r3]
 1412 0108 1A46     		mov	r2, r3
1158:.\Generated_Source\PSoC5/CapSense_CSD_CSHL.c ****                       (int32) CapSense_CSD_centroid[CapSense_CSD_POS] + 
 1413              		.loc 1 1158 0
 1414 010a 124B     		ldr	r3, .L84+4
 1415 010c 5B88     		ldrh	r3, [r3, #2]
1157:.\Generated_Source\PSoC5/CapSense_CSD_CSHL.c ****                       (int32) CapSense_CSD_centroid[CapSense_CSD_POS] + 
 1416              		.loc 1 1157 0
 1417 010e 1344     		add	r3, r3, r2
1159:.\Generated_Source\PSoC5/CapSense_CSD_CSHL.c ****                       (int32) CapSense_CSD_centroid[CapSense_CSD_POS_NEXT];
 1418              		.loc 1 1159 0
 1419 0110 104A     		ldr	r2, .L84+4
 1420 0112 9288     		ldrh	r2, [r2, #4]
1157:.\Generated_Source\PSoC5/CapSense_CSD_CSHL.c ****                       (int32) CapSense_CSD_centroid[CapSense_CSD_POS] + 
 1421              		.loc 1 1157 0
 1422 0114 1344     		add	r3, r3, r2
 1423 0116 3B61     		str	r3, [r7, #16]
1160:.\Generated_Source\PSoC5/CapSense_CSD_CSHL.c ****         
1161:.\Generated_Source\PSoC5/CapSense_CSD_CSHL.c ****         /* (numerator/denominator) + maximum */
1162:.\Generated_Source\PSoC5/CapSense_CSD_CSHL.c ****         denominator = (((int32)(uint32)((uint32)numerator << 8u)/denominator) + (int32)(uint32)((ui
 1424              		.loc 1 1162 0
 1425 0118 7B69     		ldr	r3, [r7, #20]
 1426 011a 1B02     		lsls	r3, r3, #8
 1427 011c 1A46     		mov	r2, r3
 1428 011e 3B69     		ldr	r3, [r7, #16]
 1429 0120 92FBF3F3 		sdiv	r3, r2, r3
 1430 0124 FA79     		ldrb	r2, [r7, #7]	@ zero_extendqisi2
 1431 0126 1202     		lsls	r2, r2, #8
 1432 0128 1344     		add	r3, r3, r2
 1433 012a 3B61     		str	r3, [r7, #16]
1163:.\Generated_Source\PSoC5/CapSense_CSD_CSHL.c **** 
1164:.\Generated_Source\PSoC5/CapSense_CSD_CSHL.c ****         #if(CapSense_CSD_TOTAL_RADIAL_SLIDERS_COUNT > 0u)
1165:.\Generated_Source\PSoC5/CapSense_CSD_CSHL.c ****             /* Only required for RADIAL Slider */
1166:.\Generated_Source\PSoC5/CapSense_CSD_CSHL.c ****             if(denominator < 0)
1167:.\Generated_Source\PSoC5/CapSense_CSD_CSHL.c ****             {
1168:.\Generated_Source\PSoC5/CapSense_CSD_CSHL.c ****                 denominator += (int32)((uint16)((uint16) count << 8u));
1169:.\Generated_Source\PSoC5/CapSense_CSD_CSHL.c ****             }
1170:.\Generated_Source\PSoC5/CapSense_CSD_CSHL.c ****         #endif /* (CapSense_CSD_TOTAL_RADIAL_SLIDERS_COUNT > 0u) */
1171:.\Generated_Source\PSoC5/CapSense_CSD_CSHL.c **** 
1172:.\Generated_Source\PSoC5/CapSense_CSD_CSHL.c ****         denominator *= (int16)resolution;
 1434              		.loc 1 1172 0
 1435 012c 7B88     		ldrh	r3, [r7, #2]
ARM GAS  C:\Users\LUKASC~1\AppData\Local\Temp\ccd155Lz.s 			page 47


 1436 012e 1AB2     		sxth	r2, r3
 1437 0130 3B69     		ldr	r3, [r7, #16]
 1438 0132 02FB03F3 		mul	r3, r2, r3
 1439 0136 3B61     		str	r3, [r7, #16]
1173:.\Generated_Source\PSoC5/CapSense_CSD_CSHL.c **** 
1174:.\Generated_Source\PSoC5/CapSense_CSD_CSHL.c ****         /* Round the relust and put it to uint8 */
1175:.\Generated_Source\PSoC5/CapSense_CSD_CSHL.c ****         position = ((uint8) HI16((uint32)denominator + CapSense_CSD_CENTROID_ROUND_VALUE));
 1440              		.loc 1 1175 0
 1441 0138 3B69     		ldr	r3, [r7, #16]
 1442 013a 03F5FE43 		add	r3, r3, #32512
 1443 013e 1B0C     		lsrs	r3, r3, #16
 1444 0140 FB73     		strb	r3, [r7, #15]
1176:.\Generated_Source\PSoC5/CapSense_CSD_CSHL.c **** 
1177:.\Generated_Source\PSoC5/CapSense_CSD_CSHL.c ****         return (position);
 1445              		.loc 1 1177 0
 1446 0142 FB7B     		ldrb	r3, [r7, #15]	@ zero_extendqisi2
1178:.\Generated_Source\PSoC5/CapSense_CSD_CSHL.c ****     }    
 1447              		.loc 1 1178 0
 1448 0144 1846     		mov	r0, r3
 1449 0146 2037     		adds	r7, r7, #32
 1450              		.cfi_def_cfa_offset 8
 1451 0148 BD46     		mov	sp, r7
 1452              		.cfi_def_cfa_register 13
 1453              		@ sp needed
 1454 014a 90BC     		pop	{r4, r7}
 1455              		.cfi_restore 7
 1456              		.cfi_restore 4
 1457              		.cfi_def_cfa_offset 0
 1458 014c 7047     		bx	lr
 1459              	.L85:
 1460 014e 00BF     		.align	2
 1461              	.L84:
 1462 0150 00000000 		.word	CapSense_CSD_sensorSignal
 1463 0154 04000000 		.word	CapSense_CSD_centroid.5126
 1464              		.cfi_endproc
 1465              	.LFE12:
 1466              		.size	CapSense_CSD_CalcCentroid, .-CapSense_CSD_CalcCentroid
 1467              		.section	.text.CapSense_CSD_GetCentroidPos,"ax",%progbits
 1468              		.align	2
 1469              		.global	CapSense_CSD_GetCentroidPos
 1470              		.thumb
 1471              		.thumb_func
 1472              		.type	CapSense_CSD_GetCentroidPos, %function
 1473              	CapSense_CSD_GetCentroidPos:
 1474              	.LFB13:
1179:.\Generated_Source\PSoC5/CapSense_CSD_CSHL.c **** #endif /* (CapSense_CSD_TOTAL_CENTROIDS_COUNT) */
1180:.\Generated_Source\PSoC5/CapSense_CSD_CSHL.c **** 
1181:.\Generated_Source\PSoC5/CapSense_CSD_CSHL.c **** 
1182:.\Generated_Source\PSoC5/CapSense_CSD_CSHL.c **** #if(CapSense_CSD_TOTAL_LINEAR_SLIDERS_COUNT > 0u)
1183:.\Generated_Source\PSoC5/CapSense_CSD_CSHL.c ****     /*******************************************************************************
1184:.\Generated_Source\PSoC5/CapSense_CSD_CSHL.c ****     * Function Name: CapSense_CSD_GetCentroidPos
1185:.\Generated_Source\PSoC5/CapSense_CSD_CSHL.c ****     ********************************************************************************
1186:.\Generated_Source\PSoC5/CapSense_CSD_CSHL.c ****     *
1187:.\Generated_Source\PSoC5/CapSense_CSD_CSHL.c ****     * Summary:
1188:.\Generated_Source\PSoC5/CapSense_CSD_CSHL.c ****     *  Checks the CapSense_CSD_Signal[ ] array for a centroid within
1189:.\Generated_Source\PSoC5/CapSense_CSD_CSHL.c ****     *  slider specified range. The centroid position is calculated to the resolution
1190:.\Generated_Source\PSoC5/CapSense_CSD_CSHL.c ****     *  specified in the CapSense customizer. The position filters are applied to the
ARM GAS  C:\Users\LUKASC~1\AppData\Local\Temp\ccd155Lz.s 			page 48


1191:.\Generated_Source\PSoC5/CapSense_CSD_CSHL.c ****     *  result if enabled.
1192:.\Generated_Source\PSoC5/CapSense_CSD_CSHL.c ****     *
1193:.\Generated_Source\PSoC5/CapSense_CSD_CSHL.c ****     * Parameters:
1194:.\Generated_Source\PSoC5/CapSense_CSD_CSHL.c ****     *  widget:  Widget number.
1195:.\Generated_Source\PSoC5/CapSense_CSD_CSHL.c ****     *  For every linear slider widget there are defines in this format:
1196:.\Generated_Source\PSoC5/CapSense_CSD_CSHL.c ****     *  #define CapSense_CSD_LS__"widget_name"            5
1197:.\Generated_Source\PSoC5/CapSense_CSD_CSHL.c ****     * 
1198:.\Generated_Source\PSoC5/CapSense_CSD_CSHL.c ****     * Return:
1199:.\Generated_Source\PSoC5/CapSense_CSD_CSHL.c ****     *  Returns position value of the linear slider.
1200:.\Generated_Source\PSoC5/CapSense_CSD_CSHL.c ****     *
1201:.\Generated_Source\PSoC5/CapSense_CSD_CSHL.c ****     * Side Effects:
1202:.\Generated_Source\PSoC5/CapSense_CSD_CSHL.c ****     *  If any sensor within the slider widget is active, the function returns values
1203:.\Generated_Source\PSoC5/CapSense_CSD_CSHL.c ****     *  from zero to the API resolution value set in the CapSense customizer. If no
1204:.\Generated_Source\PSoC5/CapSense_CSD_CSHL.c ****     *  sensors are active, the function returns 0xFFFF. If an error occurs during
1205:.\Generated_Source\PSoC5/CapSense_CSD_CSHL.c ****     *  execution of the centroid/diplexing algorithm, the function returns 0xFFFF.
1206:.\Generated_Source\PSoC5/CapSense_CSD_CSHL.c ****     *  There are no checks of widget type argument provided to this function.
1207:.\Generated_Source\PSoC5/CapSense_CSD_CSHL.c ****     *  The unproper widget type provided will cause unexpected position calculations.
1208:.\Generated_Source\PSoC5/CapSense_CSD_CSHL.c ****     *
1209:.\Generated_Source\PSoC5/CapSense_CSD_CSHL.c ****     * Note:
1210:.\Generated_Source\PSoC5/CapSense_CSD_CSHL.c ****     *  If noise counts on the slider segments are greater than the noise
1211:.\Generated_Source\PSoC5/CapSense_CSD_CSHL.c ****     *  threshold, this subroutine may generate a false centroid result. The noise
1212:.\Generated_Source\PSoC5/CapSense_CSD_CSHL.c ****     *  threshold should be set carefully (high enough above the noise level) so
1213:.\Generated_Source\PSoC5/CapSense_CSD_CSHL.c ****     *  that noise will not generate a false centroid.
1214:.\Generated_Source\PSoC5/CapSense_CSD_CSHL.c ****     *
1215:.\Generated_Source\PSoC5/CapSense_CSD_CSHL.c ****     * Reentrant:
1216:.\Generated_Source\PSoC5/CapSense_CSD_CSHL.c ****     *  No.
1217:.\Generated_Source\PSoC5/CapSense_CSD_CSHL.c ****     *
1218:.\Generated_Source\PSoC5/CapSense_CSD_CSHL.c ****     *******************************************************************************/
1219:.\Generated_Source\PSoC5/CapSense_CSD_CSHL.c ****     uint16 CapSense_CSD_GetCentroidPos(uint8 widget) 
1220:.\Generated_Source\PSoC5/CapSense_CSD_CSHL.c ****     {
 1475              		.loc 1 1220 0
 1476              		.cfi_startproc
 1477              		@ args = 0, pretend = 0, frame = 16
 1478              		@ frame_needed = 1, uses_anonymous_args = 0
 1479 0000 90B5     		push	{r4, r7, lr}
 1480              		.cfi_def_cfa_offset 12
 1481              		.cfi_offset 4, -12
 1482              		.cfi_offset 7, -8
 1483              		.cfi_offset 14, -4
 1484 0002 87B0     		sub	sp, sp, #28
 1485              		.cfi_def_cfa_offset 40
 1486 0004 02AF     		add	r7, sp, #8
 1487              		.cfi_def_cfa 7, 32
 1488 0006 0346     		mov	r3, r0
 1489 0008 FB71     		strb	r3, [r7, #7]
1221:.\Generated_Source\PSoC5/CapSense_CSD_CSHL.c ****         #if (CapSense_CSD_IS_DIPLEX_SLIDER)
1222:.\Generated_Source\PSoC5/CapSense_CSD_CSHL.c ****             const uint8 CYCODE *diplex;
1223:.\Generated_Source\PSoC5/CapSense_CSD_CSHL.c ****         #endif /* (CapSense_CSD_IS_DIPLEX_SLIDER) */
1224:.\Generated_Source\PSoC5/CapSense_CSD_CSHL.c ****                 
1225:.\Generated_Source\PSoC5/CapSense_CSD_CSHL.c ****         #if (0u != CapSense_CSD_LINEAR_SLIDERS_POS_FILTERS_MASK)
1226:.\Generated_Source\PSoC5/CapSense_CSD_CSHL.c ****             uint8 posIndex;
1227:.\Generated_Source\PSoC5/CapSense_CSD_CSHL.c ****             uint8 firstTimeIndex = CapSense_CSD_posFiltersData[widget];
1228:.\Generated_Source\PSoC5/CapSense_CSD_CSHL.c ****             uint8 posFiltersMask = CapSense_CSD_posFiltersMask[widget];  
1229:.\Generated_Source\PSoC5/CapSense_CSD_CSHL.c ****         #endif /* (0u != CapSense_CSD_LINEAR_SLIDERS_POS_FILTERS_MASK) */
1230:.\Generated_Source\PSoC5/CapSense_CSD_CSHL.c **** 
1231:.\Generated_Source\PSoC5/CapSense_CSD_CSHL.c ****         #if ((0u != (CapSense_CSD_MEDIAN_FILTER & CapSense_CSD_LINEAR_SLIDERS_POS_FILTERS_MASK)) ||
1232:.\Generated_Source\PSoC5/CapSense_CSD_CSHL.c ****              (0u != (CapSense_CSD_AVERAGING_FILTER & CapSense_CSD_LINEAR_SLIDERS_POS_FILTERS_MASK))
ARM GAS  C:\Users\LUKASC~1\AppData\Local\Temp\ccd155Lz.s 			page 49


1233:.\Generated_Source\PSoC5/CapSense_CSD_CSHL.c ****             uint8 tempPos;
1234:.\Generated_Source\PSoC5/CapSense_CSD_CSHL.c ****         #endif /* ((0u != (CapSense_CSD_MEDIAN_FILTER & CapSense_CSD_LINEAR_SLIDERS_POS_FILTERS_MAS
1235:.\Generated_Source\PSoC5/CapSense_CSD_CSHL.c ****                *   (0u != (CapSense_CSD_AVERAGING_FILTER & CapSense_CSD_LINEAR_SLIDERS_POS_FILTERS_
1236:.\Generated_Source\PSoC5/CapSense_CSD_CSHL.c ****                */
1237:.\Generated_Source\PSoC5/CapSense_CSD_CSHL.c **** 
1238:.\Generated_Source\PSoC5/CapSense_CSD_CSHL.c ****         uint8 maximum;
1239:.\Generated_Source\PSoC5/CapSense_CSD_CSHL.c ****         uint16 position;
1240:.\Generated_Source\PSoC5/CapSense_CSD_CSHL.c ****         uint8 offset = CapSense_CSD_rawDataIndex[widget];
 1490              		.loc 1 1240 0
 1491 000a FB79     		ldrb	r3, [r7, #7]	@ zero_extendqisi2
 1492 000c 174A     		ldr	r2, .L90
 1493 000e D35C     		ldrb	r3, [r2, r3]
 1494 0010 7B73     		strb	r3, [r7, #13]
1241:.\Generated_Source\PSoC5/CapSense_CSD_CSHL.c ****         uint8 count = CapSense_CSD_numberOfSensors[widget];
 1495              		.loc 1 1241 0
 1496 0012 FB79     		ldrb	r3, [r7, #7]	@ zero_extendqisi2
 1497 0014 164A     		ldr	r2, .L90+4
 1498 0016 D35C     		ldrb	r3, [r2, r3]
 1499 0018 3B73     		strb	r3, [r7, #12]
1242:.\Generated_Source\PSoC5/CapSense_CSD_CSHL.c ****                         
1243:.\Generated_Source\PSoC5/CapSense_CSD_CSHL.c ****         #if (CapSense_CSD_IS_DIPLEX_SLIDER)
1244:.\Generated_Source\PSoC5/CapSense_CSD_CSHL.c ****             if(widget < CapSense_CSD_TOTAL_DIPLEXED_SLIDERS_COUNT)
1245:.\Generated_Source\PSoC5/CapSense_CSD_CSHL.c ****             {
1246:.\Generated_Source\PSoC5/CapSense_CSD_CSHL.c ****                 maximum = CapSense_CSD_diplexTable[widget];
1247:.\Generated_Source\PSoC5/CapSense_CSD_CSHL.c ****                 diplex = &CapSense_CSD_diplexTable[maximum];
1248:.\Generated_Source\PSoC5/CapSense_CSD_CSHL.c ****             }
1249:.\Generated_Source\PSoC5/CapSense_CSD_CSHL.c ****             else
1250:.\Generated_Source\PSoC5/CapSense_CSD_CSHL.c ****             {
1251:.\Generated_Source\PSoC5/CapSense_CSD_CSHL.c ****                 diplex = 0u;
1252:.\Generated_Source\PSoC5/CapSense_CSD_CSHL.c ****             }
1253:.\Generated_Source\PSoC5/CapSense_CSD_CSHL.c ****         #endif /* (CapSense_CSD_IS_DIPLEX_SLIDER) */
1254:.\Generated_Source\PSoC5/CapSense_CSD_CSHL.c **** 
1255:.\Generated_Source\PSoC5/CapSense_CSD_CSHL.c ****         /* Find Maximum within centroid */      
1256:.\Generated_Source\PSoC5/CapSense_CSD_CSHL.c ****         #if (CapSense_CSD_IS_DIPLEX_SLIDER)        
1257:.\Generated_Source\PSoC5/CapSense_CSD_CSHL.c ****             maximum = CapSense_CSD_FindMaximum(offset, count, CapSense_CSD_fingerThreshold[widget],
1258:.\Generated_Source\PSoC5/CapSense_CSD_CSHL.c ****         #else
1259:.\Generated_Source\PSoC5/CapSense_CSD_CSHL.c ****             maximum = CapSense_CSD_FindMaximum(offset, count, CapSense_CSD_fingerThreshold[widget])
 1500              		.loc 1 1259 0
 1501 001a FB79     		ldrb	r3, [r7, #7]	@ zero_extendqisi2
 1502 001c 154A     		ldr	r2, .L90+8
 1503 001e 32F81330 		ldrh	r3, [r2, r3, lsl #1]
 1504 0022 797B     		ldrb	r1, [r7, #13]	@ zero_extendqisi2
 1505 0024 3A7B     		ldrb	r2, [r7, #12]	@ zero_extendqisi2
 1506 0026 0846     		mov	r0, r1
 1507 0028 1146     		mov	r1, r2
 1508 002a 1A46     		mov	r2, r3
 1509 002c FFF7FEFF 		bl	CapSense_CSD_FindMaximum
 1510 0030 0346     		mov	r3, r0
 1511 0032 FB72     		strb	r3, [r7, #11]
1260:.\Generated_Source\PSoC5/CapSense_CSD_CSHL.c ****         #endif /* (CapSense_CSD_IS_DIPLEX_SLIDER) */
1261:.\Generated_Source\PSoC5/CapSense_CSD_CSHL.c **** 
1262:.\Generated_Source\PSoC5/CapSense_CSD_CSHL.c ****         if (maximum != 0xFFu)
 1512              		.loc 1 1262 0
 1513 0034 FB7A     		ldrb	r3, [r7, #11]	@ zero_extendqisi2
 1514 0036 FF2B     		cmp	r3, #255
 1515 0038 0FD0     		beq	.L87
1263:.\Generated_Source\PSoC5/CapSense_CSD_CSHL.c ****         {
ARM GAS  C:\Users\LUKASC~1\AppData\Local\Temp\ccd155Lz.s 			page 50


1264:.\Generated_Source\PSoC5/CapSense_CSD_CSHL.c ****             /* Calculate centroid */
1265:.\Generated_Source\PSoC5/CapSense_CSD_CSHL.c ****             position = (uint16) CapSense_CSD_CalcCentroid(maximum, 
 1516              		.loc 1 1265 0
 1517 003a 4FF4C854 		mov	r4, #6400
 1518 003e FB79     		ldrb	r3, [r7, #7]	@ zero_extendqisi2
 1519 0040 0D4A     		ldr	r2, .L90+12
 1520 0042 32F81330 		ldrh	r3, [r2, r3, lsl #1]
 1521 0046 F87A     		ldrb	r0, [r7, #11]	@ zero_extendqisi2
 1522 0048 797B     		ldrb	r1, [r7, #13]	@ zero_extendqisi2
 1523 004a 3A7B     		ldrb	r2, [r7, #12]	@ zero_extendqisi2
 1524 004c 0093     		str	r3, [sp]
 1525 004e 2346     		mov	r3, r4
 1526 0050 FFF7FEFF 		bl	CapSense_CSD_CalcCentroid
 1527 0054 0346     		mov	r3, r0
 1528 0056 FB81     		strh	r3, [r7, #14]	@ movhi
 1529 0058 02E0     		b	.L88
 1530              	.L87:
1266:.\Generated_Source\PSoC5/CapSense_CSD_CSHL.c ****                          offset, count, CapSense_CSD_centroidMult[widget], CapSense_CSD_noiseThresh
1267:.\Generated_Source\PSoC5/CapSense_CSD_CSHL.c **** 
1268:.\Generated_Source\PSoC5/CapSense_CSD_CSHL.c ****             #if (0u != CapSense_CSD_LINEAR_SLIDERS_POS_FILTERS_MASK)
1269:.\Generated_Source\PSoC5/CapSense_CSD_CSHL.c ****                 /* Check if this linear slider has enabled filters */
1270:.\Generated_Source\PSoC5/CapSense_CSD_CSHL.c ****                 if (0u != (posFiltersMask & CapSense_CSD_ANY_POS_FILTER))
1271:.\Generated_Source\PSoC5/CapSense_CSD_CSHL.c ****                 {
1272:.\Generated_Source\PSoC5/CapSense_CSD_CSHL.c ****                     /* Caluclate position to store filters data */
1273:.\Generated_Source\PSoC5/CapSense_CSD_CSHL.c ****                     posIndex  = firstTimeIndex + 1u;
1274:.\Generated_Source\PSoC5/CapSense_CSD_CSHL.c ****                     
1275:.\Generated_Source\PSoC5/CapSense_CSD_CSHL.c ****                     if (0u == CapSense_CSD_posFiltersData[firstTimeIndex])
1276:.\Generated_Source\PSoC5/CapSense_CSD_CSHL.c ****                     {
1277:.\Generated_Source\PSoC5/CapSense_CSD_CSHL.c ****                         /* Init filters */
1278:.\Generated_Source\PSoC5/CapSense_CSD_CSHL.c ****                         CapSense_CSD_posFiltersData[posIndex] = (uint8) position;
1279:.\Generated_Source\PSoC5/CapSense_CSD_CSHL.c ****                         #if ((0u != (CapSense_CSD_MEDIAN_FILTER & \
1280:.\Generated_Source\PSoC5/CapSense_CSD_CSHL.c ****                                      CapSense_CSD_LINEAR_SLIDERS_POS_FILTERS_MASK)) || \
1281:.\Generated_Source\PSoC5/CapSense_CSD_CSHL.c ****                              (0u != (CapSense_CSD_AVERAGING_FILTER & \
1282:.\Generated_Source\PSoC5/CapSense_CSD_CSHL.c ****                                      CapSense_CSD_LINEAR_SLIDERS_POS_FILTERS_MASK)))
1283:.\Generated_Source\PSoC5/CapSense_CSD_CSHL.c **** 
1284:.\Generated_Source\PSoC5/CapSense_CSD_CSHL.c ****                             if ( (0u != (posFiltersMask & CapSense_CSD_MEDIAN_FILTER)) || 
1285:.\Generated_Source\PSoC5/CapSense_CSD_CSHL.c ****                                  (0u != (posFiltersMask & CapSense_CSD_AVERAGING_FILTER)) )
1286:.\Generated_Source\PSoC5/CapSense_CSD_CSHL.c ****                             {
1287:.\Generated_Source\PSoC5/CapSense_CSD_CSHL.c ****                                 CapSense_CSD_posFiltersData[posIndex + 1u] = (uint8) position;
1288:.\Generated_Source\PSoC5/CapSense_CSD_CSHL.c ****                             }
1289:.\Generated_Source\PSoC5/CapSense_CSD_CSHL.c ****                         #endif /* ((0u != (CapSense_CSD_MEDIAN_FILTER & \
1290:.\Generated_Source\PSoC5/CapSense_CSD_CSHL.c ****                                *           CapSense_CSD_LINEAR_SLIDERS_POS_FILTERS_MASK)) || \
1291:.\Generated_Source\PSoC5/CapSense_CSD_CSHL.c ****                                *   (0u != (CapSense_CSD_AVERAGING_FILTER & \
1292:.\Generated_Source\PSoC5/CapSense_CSD_CSHL.c ****                                *           CapSense_CSD_LINEAR_SLIDERS_POS_FILTERS_MASK)))
1293:.\Generated_Source\PSoC5/CapSense_CSD_CSHL.c ****                                */
1294:.\Generated_Source\PSoC5/CapSense_CSD_CSHL.c ****                         
1295:.\Generated_Source\PSoC5/CapSense_CSD_CSHL.c ****                         CapSense_CSD_posFiltersData[firstTimeIndex] = 1u;
1296:.\Generated_Source\PSoC5/CapSense_CSD_CSHL.c ****                     }
1297:.\Generated_Source\PSoC5/CapSense_CSD_CSHL.c ****                     else
1298:.\Generated_Source\PSoC5/CapSense_CSD_CSHL.c ****                     {
1299:.\Generated_Source\PSoC5/CapSense_CSD_CSHL.c ****                         /* Do filtering */
1300:.\Generated_Source\PSoC5/CapSense_CSD_CSHL.c ****                         #if (0u != (CapSense_CSD_MEDIAN_FILTER & CapSense_CSD_LINEAR_SLIDERS_POS_FI
1301:.\Generated_Source\PSoC5/CapSense_CSD_CSHL.c ****                             if (0u != (posFiltersMask & CapSense_CSD_MEDIAN_FILTER))
1302:.\Generated_Source\PSoC5/CapSense_CSD_CSHL.c ****                             {
1303:.\Generated_Source\PSoC5/CapSense_CSD_CSHL.c ****                                 tempPos = (uint8) position;
1304:.\Generated_Source\PSoC5/CapSense_CSD_CSHL.c ****                                 position = CapSense_CSD_MedianFilter(position,
1305:.\Generated_Source\PSoC5/CapSense_CSD_CSHL.c ****                                                                 (uint16)CapSense_CSD_posFiltersData
ARM GAS  C:\Users\LUKASC~1\AppData\Local\Temp\ccd155Lz.s 			page 51


1306:.\Generated_Source\PSoC5/CapSense_CSD_CSHL.c ****                                                                 (uint16)CapSense_CSD_posFiltersData
1307:.\Generated_Source\PSoC5/CapSense_CSD_CSHL.c ****                                 CapSense_CSD_posFiltersData[posIndex + 1u] =
1308:.\Generated_Source\PSoC5/CapSense_CSD_CSHL.c ****                                                                              CapSense_CSD_posFilter
1309:.\Generated_Source\PSoC5/CapSense_CSD_CSHL.c ****                                 CapSense_CSD_posFiltersData[posIndex] = tempPos;
1310:.\Generated_Source\PSoC5/CapSense_CSD_CSHL.c ****                             }
1311:.\Generated_Source\PSoC5/CapSense_CSD_CSHL.c ****                         #endif /*(0u != (CapSense_CSD_MEDIAN_FILTER &
1312:.\Generated_Source\PSoC5/CapSense_CSD_CSHL.c ****                                *         CapSense_CSD_LINEAR_SLIDERS_POS_FILTERS_MASK))
1313:.\Generated_Source\PSoC5/CapSense_CSD_CSHL.c ****                                */
1314:.\Generated_Source\PSoC5/CapSense_CSD_CSHL.c **** 
1315:.\Generated_Source\PSoC5/CapSense_CSD_CSHL.c ****                         #if(0u!=(CapSense_CSD_AVERAGING_FILTER & CapSense_CSD_LINEAR_SLIDERS_POS_FI
1316:.\Generated_Source\PSoC5/CapSense_CSD_CSHL.c ****                             if (0u != (posFiltersMask & CapSense_CSD_AVERAGING_FILTER)) 
1317:.\Generated_Source\PSoC5/CapSense_CSD_CSHL.c ****                             {
1318:.\Generated_Source\PSoC5/CapSense_CSD_CSHL.c ****                                 tempPos = (uint8) position;
1319:.\Generated_Source\PSoC5/CapSense_CSD_CSHL.c ****                                 position = CapSense_CSD_AveragingFilter(position,
1320:.\Generated_Source\PSoC5/CapSense_CSD_CSHL.c ****                                                                 (uint16)CapSense_CSD_posFiltersData
1321:.\Generated_Source\PSoC5/CapSense_CSD_CSHL.c ****                                                                 (uint16)CapSense_CSD_posFiltersData
1322:.\Generated_Source\PSoC5/CapSense_CSD_CSHL.c ****                                 CapSense_CSD_posFiltersData[posIndex+1u]=CapSense_CSD_posFiltersDat
1323:.\Generated_Source\PSoC5/CapSense_CSD_CSHL.c ****                                 CapSense_CSD_posFiltersData[posIndex] = tempPos;
1324:.\Generated_Source\PSoC5/CapSense_CSD_CSHL.c ****                             }
1325:.\Generated_Source\PSoC5/CapSense_CSD_CSHL.c ****                         #endif /* (0u != (CapSense_CSD_AVERAGING_FILTER & \
1326:.\Generated_Source\PSoC5/CapSense_CSD_CSHL.c ****                                *           CapSense_CSD_LINEAR_SLIDERS_POS_FILTERS_MASK))
1327:.\Generated_Source\PSoC5/CapSense_CSD_CSHL.c ****                                */
1328:.\Generated_Source\PSoC5/CapSense_CSD_CSHL.c **** 
1329:.\Generated_Source\PSoC5/CapSense_CSD_CSHL.c ****                         #if (0u != (CapSense_CSD_IIR2_FILTER & CapSense_CSD_LINEAR_SLIDERS_POS_FILT
1330:.\Generated_Source\PSoC5/CapSense_CSD_CSHL.c ****                             if (0u != (posFiltersMask & CapSense_CSD_IIR2_FILTER)) 
1331:.\Generated_Source\PSoC5/CapSense_CSD_CSHL.c ****                             {
1332:.\Generated_Source\PSoC5/CapSense_CSD_CSHL.c ****                                 position = CapSense_CSD_IIR2Filter(position,
1333:.\Generated_Source\PSoC5/CapSense_CSD_CSHL.c ****                                                                     (uint16)CapSense_CSD_posFilters
1334:.\Generated_Source\PSoC5/CapSense_CSD_CSHL.c ****                                 CapSense_CSD_posFiltersData[posIndex] = (uint8) position;
1335:.\Generated_Source\PSoC5/CapSense_CSD_CSHL.c ****                             }
1336:.\Generated_Source\PSoC5/CapSense_CSD_CSHL.c ****                         #endif /* (0u != (CapSense_CSD_IIR2_FILTER & \
1337:.\Generated_Source\PSoC5/CapSense_CSD_CSHL.c ****                                *          CapSense_CSD_LINEAR_SLIDERS_POS_FILTERS_MASK))
1338:.\Generated_Source\PSoC5/CapSense_CSD_CSHL.c ****                                */
1339:.\Generated_Source\PSoC5/CapSense_CSD_CSHL.c **** 
1340:.\Generated_Source\PSoC5/CapSense_CSD_CSHL.c ****                         #if (0u != (CapSense_CSD_IIR4_FILTER & CapSense_CSD_LINEAR_SLIDERS_POS_FILT
1341:.\Generated_Source\PSoC5/CapSense_CSD_CSHL.c ****                             if (0u != (posFiltersMask & CapSense_CSD_IIR4_FILTER))
1342:.\Generated_Source\PSoC5/CapSense_CSD_CSHL.c ****                             {
1343:.\Generated_Source\PSoC5/CapSense_CSD_CSHL.c ****                                 position = CapSense_CSD_IIR4Filter(position,
1344:.\Generated_Source\PSoC5/CapSense_CSD_CSHL.c ****                                                                     (uint16)CapSense_CSD_posFilters
1345:.\Generated_Source\PSoC5/CapSense_CSD_CSHL.c ****                                 CapSense_CSD_posFiltersData[posIndex] = (uint8) position;
1346:.\Generated_Source\PSoC5/CapSense_CSD_CSHL.c ****                             }                                
1347:.\Generated_Source\PSoC5/CapSense_CSD_CSHL.c ****                         #endif /* (0u != (CapSense_CSD_IIR4_FILTER & \
1348:.\Generated_Source\PSoC5/CapSense_CSD_CSHL.c ****                                *          CapSense_CSD_LINEAR_SLIDERS_POS_FILTERS_MASK))
1349:.\Generated_Source\PSoC5/CapSense_CSD_CSHL.c ****                                */
1350:.\Generated_Source\PSoC5/CapSense_CSD_CSHL.c **** 
1351:.\Generated_Source\PSoC5/CapSense_CSD_CSHL.c ****                         #if (0u != (CapSense_CSD_JITTER_FILTER & CapSense_CSD_LINEAR_SLIDERS_POS_FI
1352:.\Generated_Source\PSoC5/CapSense_CSD_CSHL.c ****                             if (0u != (posFiltersMask & CapSense_CSD_JITTER_FILTER))
1353:.\Generated_Source\PSoC5/CapSense_CSD_CSHL.c ****                             {
1354:.\Generated_Source\PSoC5/CapSense_CSD_CSHL.c ****                                 position = CapSense_CSD_JitterFilter(position,
1355:.\Generated_Source\PSoC5/CapSense_CSD_CSHL.c ****                                                                     (uint16)CapSense_CSD_posFilters
1356:.\Generated_Source\PSoC5/CapSense_CSD_CSHL.c ****                                 CapSense_CSD_posFiltersData[posIndex] = (uint8) position;
1357:.\Generated_Source\PSoC5/CapSense_CSD_CSHL.c ****                             }
1358:.\Generated_Source\PSoC5/CapSense_CSD_CSHL.c ****                         #endif /* (0u != (CapSense_CSD_JITTER_FILTER & \
1359:.\Generated_Source\PSoC5/CapSense_CSD_CSHL.c ****                                *           CapSense_CSD_LINEAR_SLIDERS_POS_FILTERS_MASK))
1360:.\Generated_Source\PSoC5/CapSense_CSD_CSHL.c ****                                */
1361:.\Generated_Source\PSoC5/CapSense_CSD_CSHL.c ****                     }
1362:.\Generated_Source\PSoC5/CapSense_CSD_CSHL.c ****                 }
ARM GAS  C:\Users\LUKASC~1\AppData\Local\Temp\ccd155Lz.s 			page 52


1363:.\Generated_Source\PSoC5/CapSense_CSD_CSHL.c ****             #endif /* (0u != CapSense_CSD_LINEAR_SLIDERS_POS_FILTERS_MASK) */
1364:.\Generated_Source\PSoC5/CapSense_CSD_CSHL.c **** 
1365:.\Generated_Source\PSoC5/CapSense_CSD_CSHL.c ****         }
1366:.\Generated_Source\PSoC5/CapSense_CSD_CSHL.c ****         else
1367:.\Generated_Source\PSoC5/CapSense_CSD_CSHL.c ****         {
1368:.\Generated_Source\PSoC5/CapSense_CSD_CSHL.c ****             /* The maximum wasn't found */
1369:.\Generated_Source\PSoC5/CapSense_CSD_CSHL.c ****             position = 0xFFFFu;
 1531              		.loc 1 1369 0
 1532 005a 4FF6FF73 		movw	r3, #65535
 1533 005e FB81     		strh	r3, [r7, #14]	@ movhi
 1534              	.L88:
1370:.\Generated_Source\PSoC5/CapSense_CSD_CSHL.c **** 
1371:.\Generated_Source\PSoC5/CapSense_CSD_CSHL.c ****             #if(0u != CapSense_CSD_LINEAR_SLIDERS_POS_FILTERS_MASK)
1372:.\Generated_Source\PSoC5/CapSense_CSD_CSHL.c ****                 /* Reset the filters */
1373:.\Generated_Source\PSoC5/CapSense_CSD_CSHL.c ****                 if(0u != (posFiltersMask & CapSense_CSD_ANY_POS_FILTER))
1374:.\Generated_Source\PSoC5/CapSense_CSD_CSHL.c ****                 {
1375:.\Generated_Source\PSoC5/CapSense_CSD_CSHL.c ****                     CapSense_CSD_posFiltersData[firstTimeIndex] = 0u;
1376:.\Generated_Source\PSoC5/CapSense_CSD_CSHL.c ****                 }
1377:.\Generated_Source\PSoC5/CapSense_CSD_CSHL.c ****             #endif /* (0u != CapSense_CSD_LINEAR_SLIDERS_POS_FILTERS_MASK) */
1378:.\Generated_Source\PSoC5/CapSense_CSD_CSHL.c ****         }
1379:.\Generated_Source\PSoC5/CapSense_CSD_CSHL.c **** 
1380:.\Generated_Source\PSoC5/CapSense_CSD_CSHL.c ****         
1381:.\Generated_Source\PSoC5/CapSense_CSD_CSHL.c ****         return (position);
 1535              		.loc 1 1381 0
 1536 0060 FB89     		ldrh	r3, [r7, #14]
1382:.\Generated_Source\PSoC5/CapSense_CSD_CSHL.c ****     }
 1537              		.loc 1 1382 0
 1538 0062 1846     		mov	r0, r3
 1539 0064 1437     		adds	r7, r7, #20
 1540              		.cfi_def_cfa_offset 12
 1541 0066 BD46     		mov	sp, r7
 1542              		.cfi_def_cfa_register 13
 1543              		@ sp needed
 1544 0068 90BD     		pop	{r4, r7, pc}
 1545              	.L91:
 1546 006a 00BF     		.align	2
 1547              	.L90:
 1548 006c 00000000 		.word	CapSense_CSD_rawDataIndex
 1549 0070 00000000 		.word	CapSense_CSD_numberOfSensors
 1550 0074 00000000 		.word	CapSense_CSD_fingerThreshold
 1551 0078 00000000 		.word	CapSense_CSD_noiseThreshold
 1552              		.cfi_endproc
 1553              	.LFE13:
 1554              		.size	CapSense_CSD_GetCentroidPos, .-CapSense_CSD_GetCentroidPos
 1555              		.bss
 1556 0003 00       		.align	2
 1557              	CapSense_CSD_centroid.5126:
 1558 0004 00000000 		.space	6
 1558      0000
 1559 000a 0000     		.text
 1560              	.Letext0:
 1561              		.file 2 ".\\Generated_Source\\PSoC5\\cytypes.h"
 1562              		.file 3 ".\\Generated_Source\\PSoC5\\CapSense_CSD.h"
 1563              		.file 4 ".\\Generated_Source\\PSoC5\\CapSense_CSD_CSHL.h"