ARM GAS  C:\Users\LUKASC~1\AppData\Local\Temp\ccCq3L3f.s 			page 1


   1              		.syntax unified
   2              		.cpu cortex-m3
   3              		.fpu softvfp
   4              		.eabi_attribute 20, 1
   5              		.eabi_attribute 21, 1
   6              		.eabi_attribute 23, 3
   7              		.eabi_attribute 24, 1
   8              		.eabi_attribute 25, 1
   9              		.eabi_attribute 26, 1
  10              		.eabi_attribute 30, 6
  11              		.eabi_attribute 34, 1
  12              		.eabi_attribute 18, 4
  13              		.thumb
  14              		.file	"LCD.c"
  15              		.text
  16              	.Ltext0:
  17              		.cfi_sections	.debug_frame
  18              		.global	LCD_enableState
  19              		.bss
  20              		.type	LCD_enableState, %object
  21              		.size	LCD_enableState, 1
  22              	LCD_enableState:
  23 0000 00       		.space	1
  24              		.global	LCD_initVar
  25              		.type	LCD_initVar, %object
  26              		.size	LCD_initVar, 1
  27              	LCD_initVar:
  28 0001 00       		.space	1
  29              		.section	.text.LCD_Init,"ax",%progbits
  30              		.align	2
  31              		.global	LCD_Init
  32              		.thumb
  33              		.thumb_func
  34              		.type	LCD_Init, %function
  35              	LCD_Init:
  36              	.LFB0:
  37              		.file 1 ".\\Generated_Source\\PSoC5\\LCD.c"
   1:.\Generated_Source\PSoC5/LCD.c **** /*******************************************************************************
   2:.\Generated_Source\PSoC5/LCD.c **** * File Name: LCD.c
   3:.\Generated_Source\PSoC5/LCD.c **** * Version 2.20
   4:.\Generated_Source\PSoC5/LCD.c **** *
   5:.\Generated_Source\PSoC5/LCD.c **** * Description:
   6:.\Generated_Source\PSoC5/LCD.c **** *  This file provides source code for the Character LCD component's API.
   7:.\Generated_Source\PSoC5/LCD.c **** *
   8:.\Generated_Source\PSoC5/LCD.c **** * Note:
   9:.\Generated_Source\PSoC5/LCD.c **** *
  10:.\Generated_Source\PSoC5/LCD.c **** ********************************************************************************
  11:.\Generated_Source\PSoC5/LCD.c **** * Copyright 2008-2014, Cypress Semiconductor Corporation.  All rights reserved.
  12:.\Generated_Source\PSoC5/LCD.c **** * You may use this file only in accordance with the license, terms, conditions,
  13:.\Generated_Source\PSoC5/LCD.c **** * disclaimers, and limitations in the end user license agreement accompanying
  14:.\Generated_Source\PSoC5/LCD.c **** * the software package with which this file was provided.
  15:.\Generated_Source\PSoC5/LCD.c **** *******************************************************************************/
  16:.\Generated_Source\PSoC5/LCD.c **** 
  17:.\Generated_Source\PSoC5/LCD.c **** #include "CyLib.h"
  18:.\Generated_Source\PSoC5/LCD.c **** #include "LCD.h"
  19:.\Generated_Source\PSoC5/LCD.c **** 
  20:.\Generated_Source\PSoC5/LCD.c **** 
ARM GAS  C:\Users\LUKASC~1\AppData\Local\Temp\ccCq3L3f.s 			page 2


  21:.\Generated_Source\PSoC5/LCD.c **** static void LCD_WrDatNib(uint8 nibble) ;
  22:.\Generated_Source\PSoC5/LCD.c **** static void LCD_WrCntrlNib(uint8 nibble) ;
  23:.\Generated_Source\PSoC5/LCD.c **** 
  24:.\Generated_Source\PSoC5/LCD.c **** /* Stores state of component. Indicates whether component is or not
  25:.\Generated_Source\PSoC5/LCD.c **** * in enable state.
  26:.\Generated_Source\PSoC5/LCD.c **** */
  27:.\Generated_Source\PSoC5/LCD.c **** uint8 LCD_enableState = 0u;
  28:.\Generated_Source\PSoC5/LCD.c **** 
  29:.\Generated_Source\PSoC5/LCD.c **** uint8 LCD_initVar = 0u;
  30:.\Generated_Source\PSoC5/LCD.c **** 
  31:.\Generated_Source\PSoC5/LCD.c **** 
  32:.\Generated_Source\PSoC5/LCD.c **** /*******************************************************************************
  33:.\Generated_Source\PSoC5/LCD.c **** * Function Name: LCD_Init
  34:.\Generated_Source\PSoC5/LCD.c **** ********************************************************************************
  35:.\Generated_Source\PSoC5/LCD.c **** *
  36:.\Generated_Source\PSoC5/LCD.c **** * Summary:
  37:.\Generated_Source\PSoC5/LCD.c **** *  Performs initialization required for the components normal work.
  38:.\Generated_Source\PSoC5/LCD.c **** *  This function initializes the LCD hardware module as follows:
  39:.\Generated_Source\PSoC5/LCD.c **** *        Enables a 4-bit interface
  40:.\Generated_Source\PSoC5/LCD.c **** *        Clears the display
  41:.\Generated_Source\PSoC5/LCD.c **** *        Enables the auto cursor increment
  42:.\Generated_Source\PSoC5/LCD.c **** *        Resets the cursor to start position
  43:.\Generated_Source\PSoC5/LCD.c **** *  Also, it loads a custom character set to the LCD if it was defined in the customizer.
  44:.\Generated_Source\PSoC5/LCD.c **** *
  45:.\Generated_Source\PSoC5/LCD.c **** * Parameters:
  46:.\Generated_Source\PSoC5/LCD.c **** *  None.
  47:.\Generated_Source\PSoC5/LCD.c **** *
  48:.\Generated_Source\PSoC5/LCD.c **** * Return:
  49:.\Generated_Source\PSoC5/LCD.c **** *  None.
  50:.\Generated_Source\PSoC5/LCD.c **** *
  51:.\Generated_Source\PSoC5/LCD.c **** * Reentrant:
  52:.\Generated_Source\PSoC5/LCD.c **** *  No.
  53:.\Generated_Source\PSoC5/LCD.c **** *
  54:.\Generated_Source\PSoC5/LCD.c **** *******************************************************************************/
  55:.\Generated_Source\PSoC5/LCD.c **** void LCD_Init(void) 
  56:.\Generated_Source\PSoC5/LCD.c **** {
  38              		.loc 1 56 0
  39              		.cfi_startproc
  40              		@ args = 0, pretend = 0, frame = 0
  41              		@ frame_needed = 1, uses_anonymous_args = 0
  42 0000 80B5     		push	{r7, lr}
  43              		.cfi_def_cfa_offset 8
  44              		.cfi_offset 7, -8
  45              		.cfi_offset 14, -4
  46 0002 00AF     		add	r7, sp, #0
  47              		.cfi_def_cfa_register 7
  57:.\Generated_Source\PSoC5/LCD.c ****     /* INIT CODE */
  58:.\Generated_Source\PSoC5/LCD.c ****     CyDelay(40u);                                                        /* Delay 40 ms */
  48              		.loc 1 58 0
  49 0004 2820     		movs	r0, #40
  50 0006 FFF7FEFF 		bl	CyDelay
  59:.\Generated_Source\PSoC5/LCD.c ****     LCD_WrCntrlNib(LCD_DISPLAY_8_BIT_INIT);    /* Selects 8-bit mode */
  51              		.loc 1 59 0
  52 000a 0320     		movs	r0, #3
  53 000c FFF7FEFF 		bl	LCD_WrCntrlNib
  60:.\Generated_Source\PSoC5/LCD.c ****     CyDelay(5u);                                                         /* Delay 5 ms */
  54              		.loc 1 60 0
ARM GAS  C:\Users\LUKASC~1\AppData\Local\Temp\ccCq3L3f.s 			page 3


  55 0010 0520     		movs	r0, #5
  56 0012 FFF7FEFF 		bl	CyDelay
  61:.\Generated_Source\PSoC5/LCD.c ****     LCD_WrCntrlNib(LCD_DISPLAY_8_BIT_INIT);    /* Selects 8-bit mode */
  57              		.loc 1 61 0
  58 0016 0320     		movs	r0, #3
  59 0018 FFF7FEFF 		bl	LCD_WrCntrlNib
  62:.\Generated_Source\PSoC5/LCD.c ****     CyDelay(15u);                                                        /* Delay 15 ms */
  60              		.loc 1 62 0
  61 001c 0F20     		movs	r0, #15
  62 001e FFF7FEFF 		bl	CyDelay
  63:.\Generated_Source\PSoC5/LCD.c ****     LCD_WrCntrlNib(LCD_DISPLAY_8_BIT_INIT);    /* Selects 8-bit mode */
  63              		.loc 1 63 0
  64 0022 0320     		movs	r0, #3
  65 0024 FFF7FEFF 		bl	LCD_WrCntrlNib
  64:.\Generated_Source\PSoC5/LCD.c ****     CyDelay(1u);                                                         /* Delay 1 ms */
  66              		.loc 1 64 0
  67 0028 0120     		movs	r0, #1
  68 002a FFF7FEFF 		bl	CyDelay
  65:.\Generated_Source\PSoC5/LCD.c ****     LCD_WrCntrlNib(LCD_DISPLAY_4_BIT_INIT);    /* Selects 4-bit mode */
  69              		.loc 1 65 0
  70 002e 0220     		movs	r0, #2
  71 0030 FFF7FEFF 		bl	LCD_WrCntrlNib
  66:.\Generated_Source\PSoC5/LCD.c ****     CyDelay(5u);                                                         /* Delay 5 ms */
  72              		.loc 1 66 0
  73 0034 0520     		movs	r0, #5
  74 0036 FFF7FEFF 		bl	CyDelay
  67:.\Generated_Source\PSoC5/LCD.c **** 
  68:.\Generated_Source\PSoC5/LCD.c ****     LCD_WriteControl(LCD_CURSOR_AUTO_INCR_ON);    /* Incr Cursor After Writes */
  75              		.loc 1 68 0
  76 003a 0620     		movs	r0, #6
  77 003c FFF7FEFF 		bl	LCD_WriteControl
  69:.\Generated_Source\PSoC5/LCD.c ****     LCD_WriteControl(LCD_DISPLAY_CURSOR_ON);      /* Turn Display, Cursor ON */
  78              		.loc 1 69 0
  79 0040 0E20     		movs	r0, #14
  80 0042 FFF7FEFF 		bl	LCD_WriteControl
  70:.\Generated_Source\PSoC5/LCD.c ****     LCD_WriteControl(LCD_DISPLAY_2_LINES_5x10);   /* 2 Lines by 5x10 Characters */
  81              		.loc 1 70 0
  82 0046 2C20     		movs	r0, #44
  83 0048 FFF7FEFF 		bl	LCD_WriteControl
  71:.\Generated_Source\PSoC5/LCD.c ****     LCD_WriteControl(LCD_DISPLAY_CURSOR_OFF);     /* Turn Display, Cursor OFF */
  84              		.loc 1 71 0
  85 004c 0820     		movs	r0, #8
  86 004e FFF7FEFF 		bl	LCD_WriteControl
  72:.\Generated_Source\PSoC5/LCD.c ****     LCD_WriteControl(LCD_CLEAR_DISPLAY);          /* Clear LCD Screen */
  87              		.loc 1 72 0
  88 0052 0120     		movs	r0, #1
  89 0054 FFF7FEFF 		bl	LCD_WriteControl
  73:.\Generated_Source\PSoC5/LCD.c ****     LCD_WriteControl(LCD_DISPLAY_ON_CURSOR_OFF);  /* Turn Display ON, Cursor OFF */
  90              		.loc 1 73 0
  91 0058 0C20     		movs	r0, #12
  92 005a FFF7FEFF 		bl	LCD_WriteControl
  74:.\Generated_Source\PSoC5/LCD.c ****     LCD_WriteControl(LCD_RESET_CURSOR_POSITION);  /* Set Cursor to 0,0 */
  93              		.loc 1 74 0
  94 005e 0320     		movs	r0, #3
  95 0060 FFF7FEFF 		bl	LCD_WriteControl
  75:.\Generated_Source\PSoC5/LCD.c ****     CyDelay(5u);
  96              		.loc 1 75 0
ARM GAS  C:\Users\LUKASC~1\AppData\Local\Temp\ccCq3L3f.s 			page 4


  97 0064 0520     		movs	r0, #5
  98 0066 FFF7FEFF 		bl	CyDelay
  76:.\Generated_Source\PSoC5/LCD.c **** 
  77:.\Generated_Source\PSoC5/LCD.c ****     #if(LCD_CUSTOM_CHAR_SET != LCD_NONE)
  78:.\Generated_Source\PSoC5/LCD.c ****         LCD_LoadCustomFonts(LCD_customFonts);
  99              		.loc 1 78 0
 100 006a 0248     		ldr	r0, .L2
 101 006c FFF7FEFF 		bl	LCD_LoadCustomFonts
  79:.\Generated_Source\PSoC5/LCD.c ****     #endif /* LCD_CUSTOM_CHAR_SET != LCD_NONE */
  80:.\Generated_Source\PSoC5/LCD.c **** }
 102              		.loc 1 80 0
 103 0070 80BD     		pop	{r7, pc}
 104              	.L3:
 105 0072 00BF     		.align	2
 106              	.L2:
 107 0074 00000000 		.word	LCD_customFonts
 108              		.cfi_endproc
 109              	.LFE0:
 110              		.size	LCD_Init, .-LCD_Init
 111              		.section	.text.LCD_Enable,"ax",%progbits
 112              		.align	2
 113              		.global	LCD_Enable
 114              		.thumb
 115              		.thumb_func
 116              		.type	LCD_Enable, %function
 117              	LCD_Enable:
 118              	.LFB1:
  81:.\Generated_Source\PSoC5/LCD.c **** 
  82:.\Generated_Source\PSoC5/LCD.c **** 
  83:.\Generated_Source\PSoC5/LCD.c **** /*******************************************************************************
  84:.\Generated_Source\PSoC5/LCD.c **** * Function Name: LCD_Enable
  85:.\Generated_Source\PSoC5/LCD.c **** ********************************************************************************
  86:.\Generated_Source\PSoC5/LCD.c **** *
  87:.\Generated_Source\PSoC5/LCD.c **** * Summary:
  88:.\Generated_Source\PSoC5/LCD.c **** *  Turns on the display.
  89:.\Generated_Source\PSoC5/LCD.c **** *
  90:.\Generated_Source\PSoC5/LCD.c **** * Parameters:
  91:.\Generated_Source\PSoC5/LCD.c **** *  None.
  92:.\Generated_Source\PSoC5/LCD.c **** *
  93:.\Generated_Source\PSoC5/LCD.c **** * Return:
  94:.\Generated_Source\PSoC5/LCD.c **** *  None.
  95:.\Generated_Source\PSoC5/LCD.c **** *
  96:.\Generated_Source\PSoC5/LCD.c **** * Reentrant:
  97:.\Generated_Source\PSoC5/LCD.c **** *  No.
  98:.\Generated_Source\PSoC5/LCD.c **** *
  99:.\Generated_Source\PSoC5/LCD.c **** * Theory:
 100:.\Generated_Source\PSoC5/LCD.c **** *  This function has no effect when it is called the first time as
 101:.\Generated_Source\PSoC5/LCD.c **** *  LCD_Init() turns on the LCD.
 102:.\Generated_Source\PSoC5/LCD.c **** *
 103:.\Generated_Source\PSoC5/LCD.c **** *******************************************************************************/
 104:.\Generated_Source\PSoC5/LCD.c **** void LCD_Enable(void) 
 105:.\Generated_Source\PSoC5/LCD.c **** {
 119              		.loc 1 105 0
 120              		.cfi_startproc
 121              		@ args = 0, pretend = 0, frame = 0
 122              		@ frame_needed = 1, uses_anonymous_args = 0
 123 0000 80B5     		push	{r7, lr}
ARM GAS  C:\Users\LUKASC~1\AppData\Local\Temp\ccCq3L3f.s 			page 5


 124              		.cfi_def_cfa_offset 8
 125              		.cfi_offset 7, -8
 126              		.cfi_offset 14, -4
 127 0002 00AF     		add	r7, sp, #0
 128              		.cfi_def_cfa_register 7
 106:.\Generated_Source\PSoC5/LCD.c ****     LCD_DisplayOn();
 129              		.loc 1 106 0
 130 0004 0C20     		movs	r0, #12
 131 0006 FFF7FEFF 		bl	LCD_WriteControl
 107:.\Generated_Source\PSoC5/LCD.c ****     LCD_enableState = 1u;
 132              		.loc 1 107 0
 133 000a 024B     		ldr	r3, .L5
 134 000c 0122     		movs	r2, #1
 135 000e 1A70     		strb	r2, [r3]
 108:.\Generated_Source\PSoC5/LCD.c **** }
 136              		.loc 1 108 0
 137 0010 80BD     		pop	{r7, pc}
 138              	.L6:
 139 0012 00BF     		.align	2
 140              	.L5:
 141 0014 00000000 		.word	LCD_enableState
 142              		.cfi_endproc
 143              	.LFE1:
 144              		.size	LCD_Enable, .-LCD_Enable
 145              		.section	.text.LCD_Start,"ax",%progbits
 146              		.align	2
 147              		.global	LCD_Start
 148              		.thumb
 149              		.thumb_func
 150              		.type	LCD_Start, %function
 151              	LCD_Start:
 152              	.LFB2:
 109:.\Generated_Source\PSoC5/LCD.c **** 
 110:.\Generated_Source\PSoC5/LCD.c **** 
 111:.\Generated_Source\PSoC5/LCD.c **** /*******************************************************************************
 112:.\Generated_Source\PSoC5/LCD.c **** * Function Name: LCD_Start
 113:.\Generated_Source\PSoC5/LCD.c **** ********************************************************************************
 114:.\Generated_Source\PSoC5/LCD.c **** *
 115:.\Generated_Source\PSoC5/LCD.c **** * Summary:
 116:.\Generated_Source\PSoC5/LCD.c **** *  Performs initialization required for the components normal work.
 117:.\Generated_Source\PSoC5/LCD.c **** *  This function initializes the LCD hardware module as follows:
 118:.\Generated_Source\PSoC5/LCD.c **** *        Enables 4-bit interface
 119:.\Generated_Source\PSoC5/LCD.c **** *        Clears the display
 120:.\Generated_Source\PSoC5/LCD.c **** *        Enables auto cursor increment
 121:.\Generated_Source\PSoC5/LCD.c **** *        Resets the cursor to start position
 122:.\Generated_Source\PSoC5/LCD.c **** *  Also, it loads a custom character set to the LCD if it was defined in the customizer.
 123:.\Generated_Source\PSoC5/LCD.c **** *  If it was not the first call in this project, then it just turns on the
 124:.\Generated_Source\PSoC5/LCD.c **** *  display
 125:.\Generated_Source\PSoC5/LCD.c **** *
 126:.\Generated_Source\PSoC5/LCD.c **** *
 127:.\Generated_Source\PSoC5/LCD.c **** * Parameters:
 128:.\Generated_Source\PSoC5/LCD.c **** *  LCD_initVar - global variable.
 129:.\Generated_Source\PSoC5/LCD.c **** *
 130:.\Generated_Source\PSoC5/LCD.c **** * Return:
 131:.\Generated_Source\PSoC5/LCD.c **** *  LCD_initVar - global variable.
 132:.\Generated_Source\PSoC5/LCD.c **** *
 133:.\Generated_Source\PSoC5/LCD.c **** * Reentrant:
ARM GAS  C:\Users\LUKASC~1\AppData\Local\Temp\ccCq3L3f.s 			page 6


 134:.\Generated_Source\PSoC5/LCD.c **** *  No.
 135:.\Generated_Source\PSoC5/LCD.c **** *
 136:.\Generated_Source\PSoC5/LCD.c **** *******************************************************************************/
 137:.\Generated_Source\PSoC5/LCD.c **** void LCD_Start(void) 
 138:.\Generated_Source\PSoC5/LCD.c **** {
 153              		.loc 1 138 0
 154              		.cfi_startproc
 155              		@ args = 0, pretend = 0, frame = 0
 156              		@ frame_needed = 1, uses_anonymous_args = 0
 157 0000 80B5     		push	{r7, lr}
 158              		.cfi_def_cfa_offset 8
 159              		.cfi_offset 7, -8
 160              		.cfi_offset 14, -4
 161 0002 00AF     		add	r7, sp, #0
 162              		.cfi_def_cfa_register 7
 139:.\Generated_Source\PSoC5/LCD.c ****     /* If not initialized, perform initialization */
 140:.\Generated_Source\PSoC5/LCD.c ****     if(LCD_initVar == 0u)
 163              		.loc 1 140 0
 164 0004 054B     		ldr	r3, .L9
 165 0006 1B78     		ldrb	r3, [r3]	@ zero_extendqisi2
 166 0008 002B     		cmp	r3, #0
 167 000a 04D1     		bne	.L8
 141:.\Generated_Source\PSoC5/LCD.c ****     {
 142:.\Generated_Source\PSoC5/LCD.c ****         LCD_Init();
 168              		.loc 1 142 0
 169 000c FFF7FEFF 		bl	LCD_Init
 143:.\Generated_Source\PSoC5/LCD.c ****         LCD_initVar = 1u;
 170              		.loc 1 143 0
 171 0010 024B     		ldr	r3, .L9
 172 0012 0122     		movs	r2, #1
 173 0014 1A70     		strb	r2, [r3]
 174              	.L8:
 144:.\Generated_Source\PSoC5/LCD.c ****     }
 145:.\Generated_Source\PSoC5/LCD.c **** 
 146:.\Generated_Source\PSoC5/LCD.c ****     /* Turn on the LCD */
 147:.\Generated_Source\PSoC5/LCD.c ****     LCD_Enable();
 175              		.loc 1 147 0
 176 0016 FFF7FEFF 		bl	LCD_Enable
 148:.\Generated_Source\PSoC5/LCD.c **** }
 177              		.loc 1 148 0
 178 001a 80BD     		pop	{r7, pc}
 179              	.L10:
 180              		.align	2
 181              	.L9:
 182 001c 00000000 		.word	LCD_initVar
 183              		.cfi_endproc
 184              	.LFE2:
 185              		.size	LCD_Start, .-LCD_Start
 186              		.section	.text.LCD_Stop,"ax",%progbits
 187              		.align	2
 188              		.global	LCD_Stop
 189              		.thumb
 190              		.thumb_func
 191              		.type	LCD_Stop, %function
 192              	LCD_Stop:
 193              	.LFB3:
 149:.\Generated_Source\PSoC5/LCD.c **** 
ARM GAS  C:\Users\LUKASC~1\AppData\Local\Temp\ccCq3L3f.s 			page 7


 150:.\Generated_Source\PSoC5/LCD.c **** 
 151:.\Generated_Source\PSoC5/LCD.c **** /*******************************************************************************
 152:.\Generated_Source\PSoC5/LCD.c **** * Function Name: LCD_Stop
 153:.\Generated_Source\PSoC5/LCD.c **** ********************************************************************************
 154:.\Generated_Source\PSoC5/LCD.c **** *
 155:.\Generated_Source\PSoC5/LCD.c **** * Summary:
 156:.\Generated_Source\PSoC5/LCD.c **** *  Turns off the display of the LCD screen.
 157:.\Generated_Source\PSoC5/LCD.c **** *
 158:.\Generated_Source\PSoC5/LCD.c **** * Parameters:
 159:.\Generated_Source\PSoC5/LCD.c **** *  None.
 160:.\Generated_Source\PSoC5/LCD.c **** *
 161:.\Generated_Source\PSoC5/LCD.c **** * Return:
 162:.\Generated_Source\PSoC5/LCD.c **** *  None.
 163:.\Generated_Source\PSoC5/LCD.c **** *
 164:.\Generated_Source\PSoC5/LCD.c **** * Reentrant:
 165:.\Generated_Source\PSoC5/LCD.c **** *  No.
 166:.\Generated_Source\PSoC5/LCD.c **** *
 167:.\Generated_Source\PSoC5/LCD.c **** *******************************************************************************/
 168:.\Generated_Source\PSoC5/LCD.c **** void LCD_Stop(void) 
 169:.\Generated_Source\PSoC5/LCD.c **** {
 194              		.loc 1 169 0
 195              		.cfi_startproc
 196              		@ args = 0, pretend = 0, frame = 0
 197              		@ frame_needed = 1, uses_anonymous_args = 0
 198 0000 80B5     		push	{r7, lr}
 199              		.cfi_def_cfa_offset 8
 200              		.cfi_offset 7, -8
 201              		.cfi_offset 14, -4
 202 0002 00AF     		add	r7, sp, #0
 203              		.cfi_def_cfa_register 7
 170:.\Generated_Source\PSoC5/LCD.c ****     /* Calls LCD Off Macro */
 171:.\Generated_Source\PSoC5/LCD.c ****     LCD_DisplayOff();
 204              		.loc 1 171 0
 205 0004 0820     		movs	r0, #8
 206 0006 FFF7FEFF 		bl	LCD_WriteControl
 172:.\Generated_Source\PSoC5/LCD.c ****     LCD_enableState = 0u;
 207              		.loc 1 172 0
 208 000a 024B     		ldr	r3, .L12
 209 000c 0022     		movs	r2, #0
 210 000e 1A70     		strb	r2, [r3]
 173:.\Generated_Source\PSoC5/LCD.c **** }
 211              		.loc 1 173 0
 212 0010 80BD     		pop	{r7, pc}
 213              	.L13:
 214 0012 00BF     		.align	2
 215              	.L12:
 216 0014 00000000 		.word	LCD_enableState
 217              		.cfi_endproc
 218              	.LFE3:
 219              		.size	LCD_Stop, .-LCD_Stop
 220              		.section	.text.LCD_Position,"ax",%progbits
 221              		.align	2
 222              		.global	LCD_Position
 223              		.thumb
 224              		.thumb_func
 225              		.type	LCD_Position, %function
 226              	LCD_Position:
ARM GAS  C:\Users\LUKASC~1\AppData\Local\Temp\ccCq3L3f.s 			page 8


 227              	.LFB4:
 174:.\Generated_Source\PSoC5/LCD.c **** 
 175:.\Generated_Source\PSoC5/LCD.c **** 
 176:.\Generated_Source\PSoC5/LCD.c **** /*******************************************************************************
 177:.\Generated_Source\PSoC5/LCD.c **** *  Function Name: LCD_Position
 178:.\Generated_Source\PSoC5/LCD.c **** ********************************************************************************
 179:.\Generated_Source\PSoC5/LCD.c **** *
 180:.\Generated_Source\PSoC5/LCD.c **** * Summary:
 181:.\Generated_Source\PSoC5/LCD.c **** *  Moves the active cursor location to a point specified by the input arguments
 182:.\Generated_Source\PSoC5/LCD.c **** *
 183:.\Generated_Source\PSoC5/LCD.c **** * Parameters:
 184:.\Generated_Source\PSoC5/LCD.c **** *  row:    Specific row of LCD module to be written
 185:.\Generated_Source\PSoC5/LCD.c **** *  column: Column of LCD module to be written
 186:.\Generated_Source\PSoC5/LCD.c **** *
 187:.\Generated_Source\PSoC5/LCD.c **** * Return:
 188:.\Generated_Source\PSoC5/LCD.c **** *  None.
 189:.\Generated_Source\PSoC5/LCD.c **** *
 190:.\Generated_Source\PSoC5/LCD.c **** * Note:
 191:.\Generated_Source\PSoC5/LCD.c **** *  This only applies for LCD displays that use the 2X40 address mode.
 192:.\Generated_Source\PSoC5/LCD.c **** *  In this case Row 2 starts with a 0x28 offset from Row 1.
 193:.\Generated_Source\PSoC5/LCD.c **** *  When there are more than 2 rows, each row must be fewer than 20 characters.
 194:.\Generated_Source\PSoC5/LCD.c **** *
 195:.\Generated_Source\PSoC5/LCD.c **** *******************************************************************************/
 196:.\Generated_Source\PSoC5/LCD.c **** void LCD_Position(uint8 row, uint8 column) 
 197:.\Generated_Source\PSoC5/LCD.c **** {
 228              		.loc 1 197 0
 229              		.cfi_startproc
 230              		@ args = 0, pretend = 0, frame = 8
 231              		@ frame_needed = 1, uses_anonymous_args = 0
 232 0000 80B5     		push	{r7, lr}
 233              		.cfi_def_cfa_offset 8
 234              		.cfi_offset 7, -8
 235              		.cfi_offset 14, -4
 236 0002 82B0     		sub	sp, sp, #8
 237              		.cfi_def_cfa_offset 16
 238 0004 00AF     		add	r7, sp, #0
 239              		.cfi_def_cfa_register 7
 240 0006 0346     		mov	r3, r0
 241 0008 0A46     		mov	r2, r1
 242 000a FB71     		strb	r3, [r7, #7]
 243 000c 1346     		mov	r3, r2
 244 000e BB71     		strb	r3, [r7, #6]
 198:.\Generated_Source\PSoC5/LCD.c ****     switch (row)
 245              		.loc 1 198 0
 246 0010 FB79     		ldrb	r3, [r7, #7]	@ zero_extendqisi2
 247 0012 032B     		cmp	r3, #3
 248 0014 26D8     		bhi	.L22
 249 0016 01A2     		adr	r2, .L17
 250 0018 52F823F0 		ldr	pc, [r2, r3, lsl #2]
 251              		.p2align 2
 252              	.L17:
 253 001c 2D000000 		.word	.L16+1
 254 0020 3B000000 		.word	.L18+1
 255 0024 49000000 		.word	.L19+1
 256 0028 57000000 		.word	.L20+1
 257              		.p2align 1
 258              	.L16:
ARM GAS  C:\Users\LUKASC~1\AppData\Local\Temp\ccCq3L3f.s 			page 9


 199:.\Generated_Source\PSoC5/LCD.c ****     {
 200:.\Generated_Source\PSoC5/LCD.c ****         case (uint8)0:
 201:.\Generated_Source\PSoC5/LCD.c ****             LCD_WriteControl(LCD_ROW_0_START + column);
 259              		.loc 1 201 0
 260 002c BB79     		ldrb	r3, [r7, #6]
 261 002e 803B     		subs	r3, r3, #128
 262 0030 DBB2     		uxtb	r3, r3
 263 0032 1846     		mov	r0, r3
 264 0034 FFF7FEFF 		bl	LCD_WriteControl
 202:.\Generated_Source\PSoC5/LCD.c ****             break;
 265              		.loc 1 202 0
 266 0038 15E0     		b	.L14
 267              	.L18:
 203:.\Generated_Source\PSoC5/LCD.c ****         case (uint8) 1:
 204:.\Generated_Source\PSoC5/LCD.c ****             LCD_WriteControl(LCD_ROW_1_START + column);
 268              		.loc 1 204 0
 269 003a BB79     		ldrb	r3, [r7, #6]
 270 003c 403B     		subs	r3, r3, #64
 271 003e DBB2     		uxtb	r3, r3
 272 0040 1846     		mov	r0, r3
 273 0042 FFF7FEFF 		bl	LCD_WriteControl
 205:.\Generated_Source\PSoC5/LCD.c ****             break;
 274              		.loc 1 205 0
 275 0046 0EE0     		b	.L14
 276              	.L19:
 206:.\Generated_Source\PSoC5/LCD.c ****         case (uint8) 2:
 207:.\Generated_Source\PSoC5/LCD.c ****             LCD_WriteControl(LCD_ROW_2_START + column);
 277              		.loc 1 207 0
 278 0048 BB79     		ldrb	r3, [r7, #6]
 279 004a 6C3B     		subs	r3, r3, #108
 280 004c DBB2     		uxtb	r3, r3
 281 004e 1846     		mov	r0, r3
 282 0050 FFF7FEFF 		bl	LCD_WriteControl
 208:.\Generated_Source\PSoC5/LCD.c ****             break;
 283              		.loc 1 208 0
 284 0054 07E0     		b	.L14
 285              	.L20:
 209:.\Generated_Source\PSoC5/LCD.c ****         case (uint8) 3:
 210:.\Generated_Source\PSoC5/LCD.c ****             LCD_WriteControl(LCD_ROW_3_START + column);
 286              		.loc 1 210 0
 287 0056 BB79     		ldrb	r3, [r7, #6]
 288 0058 2C3B     		subs	r3, r3, #44
 289 005a DBB2     		uxtb	r3, r3
 290 005c 1846     		mov	r0, r3
 291 005e FFF7FEFF 		bl	LCD_WriteControl
 211:.\Generated_Source\PSoC5/LCD.c ****             break;
 292              		.loc 1 211 0
 293 0062 00E0     		b	.L14
 294              	.L22:
 212:.\Generated_Source\PSoC5/LCD.c ****         default:
 213:.\Generated_Source\PSoC5/LCD.c ****             /* if default case is hit, invalid row argument was passed.*/
 214:.\Generated_Source\PSoC5/LCD.c ****             break;
 295              		.loc 1 214 0
 296 0064 00BF     		nop
 297              	.L14:
 215:.\Generated_Source\PSoC5/LCD.c ****     }
 216:.\Generated_Source\PSoC5/LCD.c **** }
ARM GAS  C:\Users\LUKASC~1\AppData\Local\Temp\ccCq3L3f.s 			page 10


 298              		.loc 1 216 0
 299 0066 0837     		adds	r7, r7, #8
 300              		.cfi_def_cfa_offset 8
 301 0068 BD46     		mov	sp, r7
 302              		.cfi_def_cfa_register 13
 303              		@ sp needed
 304 006a 80BD     		pop	{r7, pc}
 305              		.cfi_endproc
 306              	.LFE4:
 307              		.size	LCD_Position, .-LCD_Position
 308              		.section	.text.LCD_PrintString,"ax",%progbits
 309              		.align	2
 310              		.global	LCD_PrintString
 311              		.thumb
 312              		.thumb_func
 313              		.type	LCD_PrintString, %function
 314              	LCD_PrintString:
 315              	.LFB5:
 217:.\Generated_Source\PSoC5/LCD.c **** 
 218:.\Generated_Source\PSoC5/LCD.c **** 
 219:.\Generated_Source\PSoC5/LCD.c **** /*******************************************************************************
 220:.\Generated_Source\PSoC5/LCD.c **** * Function Name: LCD_PrintString
 221:.\Generated_Source\PSoC5/LCD.c **** ********************************************************************************
 222:.\Generated_Source\PSoC5/LCD.c **** *
 223:.\Generated_Source\PSoC5/LCD.c **** * Summary:
 224:.\Generated_Source\PSoC5/LCD.c **** *  Writes a zero terminated string to the LCD.
 225:.\Generated_Source\PSoC5/LCD.c **** *
 226:.\Generated_Source\PSoC5/LCD.c **** * Parameters:
 227:.\Generated_Source\PSoC5/LCD.c **** *  string: Pointer to head of char8 array to be written to the LCD module
 228:.\Generated_Source\PSoC5/LCD.c **** *
 229:.\Generated_Source\PSoC5/LCD.c **** * Return:
 230:.\Generated_Source\PSoC5/LCD.c **** *  None.
 231:.\Generated_Source\PSoC5/LCD.c **** *
 232:.\Generated_Source\PSoC5/LCD.c **** *******************************************************************************/
 233:.\Generated_Source\PSoC5/LCD.c **** void LCD_PrintString(char8 const string[]) 
 234:.\Generated_Source\PSoC5/LCD.c **** {
 316              		.loc 1 234 0
 317              		.cfi_startproc
 318              		@ args = 0, pretend = 0, frame = 16
 319              		@ frame_needed = 1, uses_anonymous_args = 0
 320 0000 80B5     		push	{r7, lr}
 321              		.cfi_def_cfa_offset 8
 322              		.cfi_offset 7, -8
 323              		.cfi_offset 14, -4
 324 0002 84B0     		sub	sp, sp, #16
 325              		.cfi_def_cfa_offset 24
 326 0004 00AF     		add	r7, sp, #0
 327              		.cfi_def_cfa_register 7
 328 0006 7860     		str	r0, [r7, #4]
 235:.\Generated_Source\PSoC5/LCD.c ****     uint8 indexU8 = 1u;
 329              		.loc 1 235 0
 330 0008 0123     		movs	r3, #1
 331 000a FB73     		strb	r3, [r7, #15]
 236:.\Generated_Source\PSoC5/LCD.c ****     char8 current = *string;
 332              		.loc 1 236 0
 333 000c 7B68     		ldr	r3, [r7, #4]
 334 000e 1B78     		ldrb	r3, [r3]
ARM GAS  C:\Users\LUKASC~1\AppData\Local\Temp\ccCq3L3f.s 			page 11


 335 0010 BB73     		strb	r3, [r7, #14]
 237:.\Generated_Source\PSoC5/LCD.c **** 
 238:.\Generated_Source\PSoC5/LCD.c ****     /* Until null is reached, print next character */
 239:.\Generated_Source\PSoC5/LCD.c ****     while((char8) '\0' != current)
 336              		.loc 1 239 0
 337 0012 0BE0     		b	.L24
 338              	.L25:
 240:.\Generated_Source\PSoC5/LCD.c ****     {
 241:.\Generated_Source\PSoC5/LCD.c ****         LCD_WriteData((uint8)current);
 339              		.loc 1 241 0
 340 0014 BB7B     		ldrb	r3, [r7, #14]	@ zero_extendqisi2
 341 0016 1846     		mov	r0, r3
 342 0018 FFF7FEFF 		bl	LCD_WriteData
 242:.\Generated_Source\PSoC5/LCD.c ****         current = string[indexU8];
 343              		.loc 1 242 0
 344 001c FB7B     		ldrb	r3, [r7, #15]	@ zero_extendqisi2
 345 001e 7A68     		ldr	r2, [r7, #4]
 346 0020 1344     		add	r3, r3, r2
 347 0022 1B78     		ldrb	r3, [r3]
 348 0024 BB73     		strb	r3, [r7, #14]
 243:.\Generated_Source\PSoC5/LCD.c ****         indexU8++;
 349              		.loc 1 243 0
 350 0026 FB7B     		ldrb	r3, [r7, #15]	@ zero_extendqisi2
 351 0028 0133     		adds	r3, r3, #1
 352 002a FB73     		strb	r3, [r7, #15]
 353              	.L24:
 239:.\Generated_Source\PSoC5/LCD.c ****     {
 354              		.loc 1 239 0
 355 002c BB7B     		ldrb	r3, [r7, #14]	@ zero_extendqisi2
 356 002e 002B     		cmp	r3, #0
 357 0030 F0D1     		bne	.L25
 244:.\Generated_Source\PSoC5/LCD.c ****     }
 245:.\Generated_Source\PSoC5/LCD.c **** }
 358              		.loc 1 245 0
 359 0032 1037     		adds	r7, r7, #16
 360              		.cfi_def_cfa_offset 8
 361 0034 BD46     		mov	sp, r7
 362              		.cfi_def_cfa_register 13
 363              		@ sp needed
 364 0036 80BD     		pop	{r7, pc}
 365              		.cfi_endproc
 366              	.LFE5:
 367              		.size	LCD_PrintString, .-LCD_PrintString
 368              		.section	.text.LCD_PutChar,"ax",%progbits
 369              		.align	2
 370              		.global	LCD_PutChar
 371              		.thumb
 372              		.thumb_func
 373              		.type	LCD_PutChar, %function
 374              	LCD_PutChar:
 375              	.LFB6:
 246:.\Generated_Source\PSoC5/LCD.c **** 
 247:.\Generated_Source\PSoC5/LCD.c **** 
 248:.\Generated_Source\PSoC5/LCD.c **** /*******************************************************************************
 249:.\Generated_Source\PSoC5/LCD.c **** *  Function Name: LCD_PutChar
 250:.\Generated_Source\PSoC5/LCD.c **** ********************************************************************************
 251:.\Generated_Source\PSoC5/LCD.c **** *
ARM GAS  C:\Users\LUKASC~1\AppData\Local\Temp\ccCq3L3f.s 			page 12


 252:.\Generated_Source\PSoC5/LCD.c **** * Summary:
 253:.\Generated_Source\PSoC5/LCD.c **** *  Writes a single character to the current cursor position of the LCD module.
 254:.\Generated_Source\PSoC5/LCD.c **** *  Custom character names (_CUSTOM_0 through
 255:.\Generated_Source\PSoC5/LCD.c **** *  _CUSTOM_7) are acceptable as inputs.
 256:.\Generated_Source\PSoC5/LCD.c **** *
 257:.\Generated_Source\PSoC5/LCD.c **** * Parameters:
 258:.\Generated_Source\PSoC5/LCD.c **** *  character: Character to be written to LCD
 259:.\Generated_Source\PSoC5/LCD.c **** *
 260:.\Generated_Source\PSoC5/LCD.c **** * Return:
 261:.\Generated_Source\PSoC5/LCD.c **** *  None.
 262:.\Generated_Source\PSoC5/LCD.c **** *
 263:.\Generated_Source\PSoC5/LCD.c **** *******************************************************************************/
 264:.\Generated_Source\PSoC5/LCD.c **** void LCD_PutChar(char8 character) 
 265:.\Generated_Source\PSoC5/LCD.c **** {
 376              		.loc 1 265 0
 377              		.cfi_startproc
 378              		@ args = 0, pretend = 0, frame = 8
 379              		@ frame_needed = 1, uses_anonymous_args = 0
 380 0000 80B5     		push	{r7, lr}
 381              		.cfi_def_cfa_offset 8
 382              		.cfi_offset 7, -8
 383              		.cfi_offset 14, -4
 384 0002 82B0     		sub	sp, sp, #8
 385              		.cfi_def_cfa_offset 16
 386 0004 00AF     		add	r7, sp, #0
 387              		.cfi_def_cfa_register 7
 388 0006 0346     		mov	r3, r0
 389 0008 FB71     		strb	r3, [r7, #7]
 266:.\Generated_Source\PSoC5/LCD.c ****     LCD_WriteData((uint8)character);
 390              		.loc 1 266 0
 391 000a FB79     		ldrb	r3, [r7, #7]	@ zero_extendqisi2
 392 000c 1846     		mov	r0, r3
 393 000e FFF7FEFF 		bl	LCD_WriteData
 267:.\Generated_Source\PSoC5/LCD.c **** }
 394              		.loc 1 267 0
 395 0012 0837     		adds	r7, r7, #8
 396              		.cfi_def_cfa_offset 8
 397 0014 BD46     		mov	sp, r7
 398              		.cfi_def_cfa_register 13
 399              		@ sp needed
 400 0016 80BD     		pop	{r7, pc}
 401              		.cfi_endproc
 402              	.LFE6:
 403              		.size	LCD_PutChar, .-LCD_PutChar
 404              		.section	.text.LCD_WriteData,"ax",%progbits
 405              		.align	2
 406              		.global	LCD_WriteData
 407              		.thumb
 408              		.thumb_func
 409              		.type	LCD_WriteData, %function
 410              	LCD_WriteData:
 411              	.LFB7:
 268:.\Generated_Source\PSoC5/LCD.c **** 
 269:.\Generated_Source\PSoC5/LCD.c **** 
 270:.\Generated_Source\PSoC5/LCD.c **** /*******************************************************************************
 271:.\Generated_Source\PSoC5/LCD.c **** *  Function Name: LCD_WriteData
 272:.\Generated_Source\PSoC5/LCD.c **** ********************************************************************************
ARM GAS  C:\Users\LUKASC~1\AppData\Local\Temp\ccCq3L3f.s 			page 13


 273:.\Generated_Source\PSoC5/LCD.c **** *
 274:.\Generated_Source\PSoC5/LCD.c **** * Summary:
 275:.\Generated_Source\PSoC5/LCD.c **** *  Writes a data byte to the LCD module's Data Display RAM.
 276:.\Generated_Source\PSoC5/LCD.c **** *
 277:.\Generated_Source\PSoC5/LCD.c **** * Parameters:
 278:.\Generated_Source\PSoC5/LCD.c **** *  dByte: Byte to be written to the LCD module
 279:.\Generated_Source\PSoC5/LCD.c **** *
 280:.\Generated_Source\PSoC5/LCD.c **** * Return:
 281:.\Generated_Source\PSoC5/LCD.c **** *  None.
 282:.\Generated_Source\PSoC5/LCD.c **** *
 283:.\Generated_Source\PSoC5/LCD.c **** *******************************************************************************/
 284:.\Generated_Source\PSoC5/LCD.c **** void LCD_WriteData(uint8 dByte) 
 285:.\Generated_Source\PSoC5/LCD.c **** {
 412              		.loc 1 285 0
 413              		.cfi_startproc
 414              		@ args = 0, pretend = 0, frame = 16
 415              		@ frame_needed = 1, uses_anonymous_args = 0
 416 0000 80B5     		push	{r7, lr}
 417              		.cfi_def_cfa_offset 8
 418              		.cfi_offset 7, -8
 419              		.cfi_offset 14, -4
 420 0002 84B0     		sub	sp, sp, #16
 421              		.cfi_def_cfa_offset 24
 422 0004 00AF     		add	r7, sp, #0
 423              		.cfi_def_cfa_register 7
 424 0006 0346     		mov	r3, r0
 425 0008 FB71     		strb	r3, [r7, #7]
 286:.\Generated_Source\PSoC5/LCD.c ****     uint8 nibble;
 287:.\Generated_Source\PSoC5/LCD.c **** 
 288:.\Generated_Source\PSoC5/LCD.c ****     LCD_IsReady();
 426              		.loc 1 288 0
 427 000a FFF7FEFF 		bl	LCD_IsReady
 289:.\Generated_Source\PSoC5/LCD.c ****     nibble = dByte >> LCD_NIBBLE_SHIFT;
 428              		.loc 1 289 0
 429 000e FB79     		ldrb	r3, [r7, #7]	@ zero_extendqisi2
 430 0010 1B09     		lsrs	r3, r3, #4
 431 0012 FB73     		strb	r3, [r7, #15]
 290:.\Generated_Source\PSoC5/LCD.c **** 
 291:.\Generated_Source\PSoC5/LCD.c ****     /* Write high nibble */
 292:.\Generated_Source\PSoC5/LCD.c ****     LCD_WrDatNib(nibble);
 432              		.loc 1 292 0
 433 0014 FB7B     		ldrb	r3, [r7, #15]	@ zero_extendqisi2
 434 0016 1846     		mov	r0, r3
 435 0018 FFF7FEFF 		bl	LCD_WrDatNib
 293:.\Generated_Source\PSoC5/LCD.c **** 
 294:.\Generated_Source\PSoC5/LCD.c ****     nibble = dByte & LCD_NIBBLE_MASK;
 436              		.loc 1 294 0
 437 001c FB79     		ldrb	r3, [r7, #7]
 438 001e 03F00F03 		and	r3, r3, #15
 439 0022 FB73     		strb	r3, [r7, #15]
 295:.\Generated_Source\PSoC5/LCD.c ****     /* Write low nibble */
 296:.\Generated_Source\PSoC5/LCD.c ****     LCD_WrDatNib(nibble);
 440              		.loc 1 296 0
 441 0024 FB7B     		ldrb	r3, [r7, #15]	@ zero_extendqisi2
 442 0026 1846     		mov	r0, r3
 443 0028 FFF7FEFF 		bl	LCD_WrDatNib
 297:.\Generated_Source\PSoC5/LCD.c **** }
ARM GAS  C:\Users\LUKASC~1\AppData\Local\Temp\ccCq3L3f.s 			page 14


 444              		.loc 1 297 0
 445 002c 1037     		adds	r7, r7, #16
 446              		.cfi_def_cfa_offset 8
 447 002e BD46     		mov	sp, r7
 448              		.cfi_def_cfa_register 13
 449              		@ sp needed
 450 0030 80BD     		pop	{r7, pc}
 451              		.cfi_endproc
 452              	.LFE7:
 453              		.size	LCD_WriteData, .-LCD_WriteData
 454 0032 00BF     		.section	.text.LCD_WriteControl,"ax",%progbits
 455              		.align	2
 456              		.global	LCD_WriteControl
 457              		.thumb
 458              		.thumb_func
 459              		.type	LCD_WriteControl, %function
 460              	LCD_WriteControl:
 461              	.LFB8:
 298:.\Generated_Source\PSoC5/LCD.c **** 
 299:.\Generated_Source\PSoC5/LCD.c **** 
 300:.\Generated_Source\PSoC5/LCD.c **** /*******************************************************************************
 301:.\Generated_Source\PSoC5/LCD.c **** *  Function Name: LCD_WriteControl
 302:.\Generated_Source\PSoC5/LCD.c **** ********************************************************************************
 303:.\Generated_Source\PSoC5/LCD.c **** *
 304:.\Generated_Source\PSoC5/LCD.c **** * Summary:
 305:.\Generated_Source\PSoC5/LCD.c **** *  Writes a command byte to the LCD module.
 306:.\Generated_Source\PSoC5/LCD.c **** *
 307:.\Generated_Source\PSoC5/LCD.c **** * Parameters:
 308:.\Generated_Source\PSoC5/LCD.c **** *  cByte:  The byte to be written to theLCD module
 309:.\Generated_Source\PSoC5/LCD.c **** * 
 310:.\Generated_Source\PSoC5/LCD.c **** * Return:
 311:.\Generated_Source\PSoC5/LCD.c **** *  None.
 312:.\Generated_Source\PSoC5/LCD.c **** *
 313:.\Generated_Source\PSoC5/LCD.c **** *******************************************************************************/
 314:.\Generated_Source\PSoC5/LCD.c **** void LCD_WriteControl(uint8 cByte) 
 315:.\Generated_Source\PSoC5/LCD.c **** {
 462              		.loc 1 315 0
 463              		.cfi_startproc
 464              		@ args = 0, pretend = 0, frame = 16
 465              		@ frame_needed = 1, uses_anonymous_args = 0
 466 0000 80B5     		push	{r7, lr}
 467              		.cfi_def_cfa_offset 8
 468              		.cfi_offset 7, -8
 469              		.cfi_offset 14, -4
 470 0002 84B0     		sub	sp, sp, #16
 471              		.cfi_def_cfa_offset 24
 472 0004 00AF     		add	r7, sp, #0
 473              		.cfi_def_cfa_register 7
 474 0006 0346     		mov	r3, r0
 475 0008 FB71     		strb	r3, [r7, #7]
 316:.\Generated_Source\PSoC5/LCD.c ****     uint8 nibble;
 317:.\Generated_Source\PSoC5/LCD.c **** 
 318:.\Generated_Source\PSoC5/LCD.c ****     LCD_IsReady();
 476              		.loc 1 318 0
 477 000a FFF7FEFF 		bl	LCD_IsReady
 319:.\Generated_Source\PSoC5/LCD.c **** 
 320:.\Generated_Source\PSoC5/LCD.c ****     nibble = cByte >> LCD_NIBBLE_SHIFT;
ARM GAS  C:\Users\LUKASC~1\AppData\Local\Temp\ccCq3L3f.s 			page 15


 478              		.loc 1 320 0
 479 000e FB79     		ldrb	r3, [r7, #7]	@ zero_extendqisi2
 480 0010 1B09     		lsrs	r3, r3, #4
 481 0012 FB73     		strb	r3, [r7, #15]
 321:.\Generated_Source\PSoC5/LCD.c ****     
 322:.\Generated_Source\PSoC5/LCD.c ****     /* WrCntrlNib(High Nibble) */
 323:.\Generated_Source\PSoC5/LCD.c ****     LCD_WrCntrlNib(nibble);
 482              		.loc 1 323 0
 483 0014 FB7B     		ldrb	r3, [r7, #15]	@ zero_extendqisi2
 484 0016 1846     		mov	r0, r3
 485 0018 FFF7FEFF 		bl	LCD_WrCntrlNib
 324:.\Generated_Source\PSoC5/LCD.c ****     nibble = cByte & LCD_NIBBLE_MASK;
 486              		.loc 1 324 0
 487 001c FB79     		ldrb	r3, [r7, #7]
 488 001e 03F00F03 		and	r3, r3, #15
 489 0022 FB73     		strb	r3, [r7, #15]
 325:.\Generated_Source\PSoC5/LCD.c **** 
 326:.\Generated_Source\PSoC5/LCD.c ****     /* WrCntrlNib(Low Nibble) */
 327:.\Generated_Source\PSoC5/LCD.c ****     LCD_WrCntrlNib(nibble);
 490              		.loc 1 327 0
 491 0024 FB7B     		ldrb	r3, [r7, #15]	@ zero_extendqisi2
 492 0026 1846     		mov	r0, r3
 493 0028 FFF7FEFF 		bl	LCD_WrCntrlNib
 328:.\Generated_Source\PSoC5/LCD.c **** }
 494              		.loc 1 328 0
 495 002c 1037     		adds	r7, r7, #16
 496              		.cfi_def_cfa_offset 8
 497 002e BD46     		mov	sp, r7
 498              		.cfi_def_cfa_register 13
 499              		@ sp needed
 500 0030 80BD     		pop	{r7, pc}
 501              		.cfi_endproc
 502              	.LFE8:
 503              		.size	LCD_WriteControl, .-LCD_WriteControl
 504 0032 00BF     		.section	.text.LCD_IsReady,"ax",%progbits
 505              		.align	2
 506              		.global	LCD_IsReady
 507              		.thumb
 508              		.thumb_func
 509              		.type	LCD_IsReady, %function
 510              	LCD_IsReady:
 511              	.LFB9:
 329:.\Generated_Source\PSoC5/LCD.c **** 
 330:.\Generated_Source\PSoC5/LCD.c **** 
 331:.\Generated_Source\PSoC5/LCD.c **** /*******************************************************************************
 332:.\Generated_Source\PSoC5/LCD.c **** * Function Name: LCD_IsReady
 333:.\Generated_Source\PSoC5/LCD.c **** ********************************************************************************
 334:.\Generated_Source\PSoC5/LCD.c **** *
 335:.\Generated_Source\PSoC5/LCD.c **** * Summary:
 336:.\Generated_Source\PSoC5/LCD.c **** *  Polls the LCD until the ready bit is set or a timeout occurs.
 337:.\Generated_Source\PSoC5/LCD.c **** *
 338:.\Generated_Source\PSoC5/LCD.c **** * Parameters:
 339:.\Generated_Source\PSoC5/LCD.c **** *  None.
 340:.\Generated_Source\PSoC5/LCD.c **** *
 341:.\Generated_Source\PSoC5/LCD.c **** * Return:
 342:.\Generated_Source\PSoC5/LCD.c **** *  None.
 343:.\Generated_Source\PSoC5/LCD.c **** *
ARM GAS  C:\Users\LUKASC~1\AppData\Local\Temp\ccCq3L3f.s 			page 16


 344:.\Generated_Source\PSoC5/LCD.c **** * Note:
 345:.\Generated_Source\PSoC5/LCD.c **** *  Changes the pins to High-Z.
 346:.\Generated_Source\PSoC5/LCD.c **** *
 347:.\Generated_Source\PSoC5/LCD.c **** *******************************************************************************/
 348:.\Generated_Source\PSoC5/LCD.c **** void LCD_IsReady(void) 
 349:.\Generated_Source\PSoC5/LCD.c **** {
 512              		.loc 1 349 0
 513              		.cfi_startproc
 514              		@ args = 0, pretend = 0, frame = 8
 515              		@ frame_needed = 1, uses_anonymous_args = 0
 516 0000 80B5     		push	{r7, lr}
 517              		.cfi_def_cfa_offset 8
 518              		.cfi_offset 7, -8
 519              		.cfi_offset 14, -4
 520 0002 82B0     		sub	sp, sp, #8
 521              		.cfi_def_cfa_offset 16
 522 0004 00AF     		add	r7, sp, #0
 523              		.cfi_def_cfa_register 7
 350:.\Generated_Source\PSoC5/LCD.c ****     uint8 value;
 351:.\Generated_Source\PSoC5/LCD.c ****     uint32 timeout;
 352:.\Generated_Source\PSoC5/LCD.c ****     timeout = LCD_READY_DELAY;
 524              		.loc 1 352 0
 525 0006 4FF4CA73 		mov	r3, #404
 526 000a 7B60     		str	r3, [r7, #4]
 353:.\Generated_Source\PSoC5/LCD.c **** 
 354:.\Generated_Source\PSoC5/LCD.c ****     /* Clear LCD port*/
 355:.\Generated_Source\PSoC5/LCD.c ****     LCD_PORT_DR_REG &= ((uint8)(~LCD_PORT_MASK));
 527              		.loc 1 355 0
 528 000c 554A     		ldr	r2, .L33
 529 000e 554B     		ldr	r3, .L33
 530 0010 1B78     		ldrb	r3, [r3]
 531 0012 DBB2     		uxtb	r3, r3
 532 0014 23F07F03 		bic	r3, r3, #127
 533 0018 DBB2     		uxtb	r3, r3
 534 001a 1370     		strb	r3, [r2]
 356:.\Generated_Source\PSoC5/LCD.c **** 
 357:.\Generated_Source\PSoC5/LCD.c ****     /* PSoC4 has a little different from PSoC3/5 port/pin organization for setting Drive Modes.
 358:.\Generated_Source\PSoC5/LCD.c ****   
 359:.\Generated_Source\PSoC5/LCD.c ****     */
 360:.\Generated_Source\PSoC5/LCD.c ****     #if (CY_PSOC4)
 361:.\Generated_Source\PSoC5/LCD.c ****         
 362:.\Generated_Source\PSoC5/LCD.c ****         /* Mask off data pins to clear old values out */
 363:.\Generated_Source\PSoC5/LCD.c ****         value = LCD_PORT_PC_REG & ((uint32) (~ LCD_DM_DATA_MASK));
 364:.\Generated_Source\PSoC5/LCD.c ****         /* Load in high Z values for data pins, others unchanged */
 365:.\Generated_Source\PSoC5/LCD.c ****         LCD_PORT_PC_REG = value | LCD_HIGH_Z_DATA_DM;
 366:.\Generated_Source\PSoC5/LCD.c **** 
 367:.\Generated_Source\PSoC5/LCD.c ****     #else
 368:.\Generated_Source\PSoC5/LCD.c ****     
 369:.\Generated_Source\PSoC5/LCD.c ****         /* Change Port to High-Z Status on data pins */
 370:.\Generated_Source\PSoC5/LCD.c **** 
 371:.\Generated_Source\PSoC5/LCD.c ****         /* Mask off data pins to clear old values out */
 372:.\Generated_Source\PSoC5/LCD.c ****         value = LCD_PORT_DM0_REG & ((uint8)(~LCD_DATA_MASK));
 535              		.loc 1 372 0
 536 001c 524B     		ldr	r3, .L33+4
 537 001e 1B78     		ldrb	r3, [r3]
 538 0020 DBB2     		uxtb	r3, r3
 539 0022 23F00F03 		bic	r3, r3, #15
ARM GAS  C:\Users\LUKASC~1\AppData\Local\Temp\ccCq3L3f.s 			page 17


 540 0026 FB70     		strb	r3, [r7, #3]
 373:.\Generated_Source\PSoC5/LCD.c ****         /* Load in high Z values for data pins, others unchanged */
 374:.\Generated_Source\PSoC5/LCD.c ****         LCD_PORT_DM0_REG = value | (LCD_HIGH_Z_DM0 & LCD_DATA_MASK);
 541              		.loc 1 374 0
 542 0028 4F4A     		ldr	r2, .L33+4
 543 002a FB78     		ldrb	r3, [r7, #3]
 544 002c 43F00F03 		orr	r3, r3, #15
 545 0030 DBB2     		uxtb	r3, r3
 546 0032 1370     		strb	r3, [r2]
 375:.\Generated_Source\PSoC5/LCD.c **** 
 376:.\Generated_Source\PSoC5/LCD.c ****         /* Mask off data pins to clear old values out */
 377:.\Generated_Source\PSoC5/LCD.c ****         value = LCD_PORT_DM1_REG & ((uint8)(~LCD_DATA_MASK));
 547              		.loc 1 377 0
 548 0034 4D4B     		ldr	r3, .L33+8
 549 0036 1B78     		ldrb	r3, [r3]
 550 0038 DBB2     		uxtb	r3, r3
 551 003a 23F00F03 		bic	r3, r3, #15
 552 003e FB70     		strb	r3, [r7, #3]
 378:.\Generated_Source\PSoC5/LCD.c ****         /* Load in high Z values for data pins, others unchanged */
 379:.\Generated_Source\PSoC5/LCD.c ****         LCD_PORT_DM1_REG = value;
 553              		.loc 1 379 0
 554 0040 4A4A     		ldr	r2, .L33+8
 555 0042 FB78     		ldrb	r3, [r7, #3]
 556 0044 1370     		strb	r3, [r2]
 380:.\Generated_Source\PSoC5/LCD.c **** 
 381:.\Generated_Source\PSoC5/LCD.c ****         /* Mask off data pins to clear old values out */
 382:.\Generated_Source\PSoC5/LCD.c ****         value = LCD_PORT_DM2_REG & ((uint8)(~LCD_DATA_MASK));
 557              		.loc 1 382 0
 558 0046 4A4B     		ldr	r3, .L33+12
 559 0048 1B78     		ldrb	r3, [r3]
 560 004a DBB2     		uxtb	r3, r3
 561 004c 23F00F03 		bic	r3, r3, #15
 562 0050 FB70     		strb	r3, [r7, #3]
 383:.\Generated_Source\PSoC5/LCD.c ****         /* Load in high Z values for data pins, others unchanged */
 384:.\Generated_Source\PSoC5/LCD.c ****         LCD_PORT_DM2_REG = value;
 563              		.loc 1 384 0
 564 0052 474A     		ldr	r2, .L33+12
 565 0054 FB78     		ldrb	r3, [r7, #3]
 566 0056 1370     		strb	r3, [r2]
 385:.\Generated_Source\PSoC5/LCD.c ****     
 386:.\Generated_Source\PSoC5/LCD.c ****     #endif /* CY_PSOC4 */
 387:.\Generated_Source\PSoC5/LCD.c ****     
 388:.\Generated_Source\PSoC5/LCD.c ****     /* Make sure RS is low */
 389:.\Generated_Source\PSoC5/LCD.c ****     LCD_PORT_DR_REG &= ((uint8)(~LCD_RS));
 567              		.loc 1 389 0
 568 0058 424A     		ldr	r2, .L33
 569 005a 424B     		ldr	r3, .L33
 570 005c 1B78     		ldrb	r3, [r3]
 571 005e DBB2     		uxtb	r3, r3
 572 0060 23F02003 		bic	r3, r3, #32
 573 0064 DBB2     		uxtb	r3, r3
 574 0066 1370     		strb	r3, [r2]
 390:.\Generated_Source\PSoC5/LCD.c **** 
 391:.\Generated_Source\PSoC5/LCD.c ****     /* Set R/W high to read */
 392:.\Generated_Source\PSoC5/LCD.c ****     LCD_PORT_DR_REG |= LCD_RW;
 575              		.loc 1 392 0
 576 0068 3E4A     		ldr	r2, .L33
ARM GAS  C:\Users\LUKASC~1\AppData\Local\Temp\ccCq3L3f.s 			page 18


 577 006a 3E4B     		ldr	r3, .L33
 578 006c 1B78     		ldrb	r3, [r3]
 579 006e DBB2     		uxtb	r3, r3
 580 0070 43F04003 		orr	r3, r3, #64
 581 0074 DBB2     		uxtb	r3, r3
 582 0076 1370     		strb	r3, [r2]
 583              	.L32:
 393:.\Generated_Source\PSoC5/LCD.c **** 
 394:.\Generated_Source\PSoC5/LCD.c ****     do
 395:.\Generated_Source\PSoC5/LCD.c ****     {
 396:.\Generated_Source\PSoC5/LCD.c ****         /* 40 ns delay required before rising Enable and 500ns between neighbour Enables */
 397:.\Generated_Source\PSoC5/LCD.c ****         CyDelayUs(0u);
 584              		.loc 1 397 0
 585 0078 0020     		movs	r0, #0
 586 007a FFF7FEFF 		bl	CyDelayUs
 398:.\Generated_Source\PSoC5/LCD.c **** 
 399:.\Generated_Source\PSoC5/LCD.c ****         /* Set E high */
 400:.\Generated_Source\PSoC5/LCD.c ****         LCD_PORT_DR_REG |= LCD_E;
 587              		.loc 1 400 0
 588 007e 394A     		ldr	r2, .L33
 589 0080 384B     		ldr	r3, .L33
 590 0082 1B78     		ldrb	r3, [r3]
 591 0084 DBB2     		uxtb	r3, r3
 592 0086 43F01003 		orr	r3, r3, #16
 593 008a DBB2     		uxtb	r3, r3
 594 008c 1370     		strb	r3, [r2]
 401:.\Generated_Source\PSoC5/LCD.c **** 
 402:.\Generated_Source\PSoC5/LCD.c ****         /* 360 ns delay setup time for data pins */
 403:.\Generated_Source\PSoC5/LCD.c ****         CyDelayUs(1u);
 595              		.loc 1 403 0
 596 008e 0120     		movs	r0, #1
 597 0090 FFF7FEFF 		bl	CyDelayUs
 404:.\Generated_Source\PSoC5/LCD.c **** 
 405:.\Generated_Source\PSoC5/LCD.c ****         /* Get port state */
 406:.\Generated_Source\PSoC5/LCD.c ****         value = LCD_PORT_PS_REG;
 598              		.loc 1 406 0
 599 0094 374B     		ldr	r3, .L33+16
 600 0096 1B78     		ldrb	r3, [r3]
 601 0098 FB70     		strb	r3, [r7, #3]
 407:.\Generated_Source\PSoC5/LCD.c **** 
 408:.\Generated_Source\PSoC5/LCD.c ****         /* Set enable low */
 409:.\Generated_Source\PSoC5/LCD.c ****         LCD_PORT_DR_REG &= ((uint8)(~LCD_E));
 602              		.loc 1 409 0
 603 009a 324A     		ldr	r2, .L33
 604 009c 314B     		ldr	r3, .L33
 605 009e 1B78     		ldrb	r3, [r3]
 606 00a0 DBB2     		uxtb	r3, r3
 607 00a2 23F01003 		bic	r3, r3, #16
 608 00a6 DBB2     		uxtb	r3, r3
 609 00a8 1370     		strb	r3, [r2]
 410:.\Generated_Source\PSoC5/LCD.c **** 
 411:.\Generated_Source\PSoC5/LCD.c ****         /* This gives true delay between disabling Enable bit and polling Ready bit */
 412:.\Generated_Source\PSoC5/LCD.c ****         CyDelayUs(0u);
 610              		.loc 1 412 0
 611 00aa 0020     		movs	r0, #0
 612 00ac FFF7FEFF 		bl	CyDelayUs
 413:.\Generated_Source\PSoC5/LCD.c **** 
ARM GAS  C:\Users\LUKASC~1\AppData\Local\Temp\ccCq3L3f.s 			page 19


 414:.\Generated_Source\PSoC5/LCD.c ****         /* Extract ready bit */
 415:.\Generated_Source\PSoC5/LCD.c ****         value &= LCD_READY_BIT;
 613              		.loc 1 415 0
 614 00b0 FB78     		ldrb	r3, [r7, #3]
 615 00b2 03F00803 		and	r3, r3, #8
 616 00b6 FB70     		strb	r3, [r7, #3]
 416:.\Generated_Source\PSoC5/LCD.c **** 
 417:.\Generated_Source\PSoC5/LCD.c ****         /* Set E high as we in 4-bit interface we need extra operation */
 418:.\Generated_Source\PSoC5/LCD.c ****         LCD_PORT_DR_REG |= LCD_E;
 617              		.loc 1 418 0
 618 00b8 2A4A     		ldr	r2, .L33
 619 00ba 2A4B     		ldr	r3, .L33
 620 00bc 1B78     		ldrb	r3, [r3]
 621 00be DBB2     		uxtb	r3, r3
 622 00c0 43F01003 		orr	r3, r3, #16
 623 00c4 DBB2     		uxtb	r3, r3
 624 00c6 1370     		strb	r3, [r2]
 419:.\Generated_Source\PSoC5/LCD.c **** 
 420:.\Generated_Source\PSoC5/LCD.c ****         /* 360 ns delay setup time for data pins */
 421:.\Generated_Source\PSoC5/LCD.c ****         CyDelayUs(1u);
 625              		.loc 1 421 0
 626 00c8 0120     		movs	r0, #1
 627 00ca FFF7FEFF 		bl	CyDelayUs
 422:.\Generated_Source\PSoC5/LCD.c **** 
 423:.\Generated_Source\PSoC5/LCD.c ****         /* Set enable low */
 424:.\Generated_Source\PSoC5/LCD.c ****         LCD_PORT_DR_REG &= ((uint8)(~LCD_E));
 628              		.loc 1 424 0
 629 00ce 254A     		ldr	r2, .L33
 630 00d0 244B     		ldr	r3, .L33
 631 00d2 1B78     		ldrb	r3, [r3]
 632 00d4 DBB2     		uxtb	r3, r3
 633 00d6 23F01003 		bic	r3, r3, #16
 634 00da DBB2     		uxtb	r3, r3
 635 00dc 1370     		strb	r3, [r2]
 425:.\Generated_Source\PSoC5/LCD.c **** 
 426:.\Generated_Source\PSoC5/LCD.c ****         /* If LCD is not ready make a delay */
 427:.\Generated_Source\PSoC5/LCD.c ****         if (value == 0u)
 636              		.loc 1 427 0
 637 00de FB78     		ldrb	r3, [r7, #3]	@ zero_extendqisi2
 638 00e0 002B     		cmp	r3, #0
 639 00e2 02D1     		bne	.L30
 428:.\Generated_Source\PSoC5/LCD.c ****         {
 429:.\Generated_Source\PSoC5/LCD.c ****             CyDelayUs(10u);
 640              		.loc 1 429 0
 641 00e4 0A20     		movs	r0, #10
 642 00e6 FFF7FEFF 		bl	CyDelayUs
 643              	.L30:
 430:.\Generated_Source\PSoC5/LCD.c ****         }
 431:.\Generated_Source\PSoC5/LCD.c **** 
 432:.\Generated_Source\PSoC5/LCD.c ****         /* Repeat until bit 4 is not zero or until timeout. */
 433:.\Generated_Source\PSoC5/LCD.c ****         timeout--;
 644              		.loc 1 433 0
 645 00ea 7B68     		ldr	r3, [r7, #4]
 646 00ec 013B     		subs	r3, r3, #1
 647 00ee 7B60     		str	r3, [r7, #4]
 434:.\Generated_Source\PSoC5/LCD.c **** 
 435:.\Generated_Source\PSoC5/LCD.c ****     } while ((value != 0u) && (timeout > 0u));
ARM GAS  C:\Users\LUKASC~1\AppData\Local\Temp\ccCq3L3f.s 			page 20


 648              		.loc 1 435 0
 649 00f0 FB78     		ldrb	r3, [r7, #3]	@ zero_extendqisi2
 650 00f2 002B     		cmp	r3, #0
 651 00f4 02D0     		beq	.L31
 652              		.loc 1 435 0 is_stmt 0 discriminator 1
 653 00f6 7B68     		ldr	r3, [r7, #4]
 654 00f8 002B     		cmp	r3, #0
 655 00fa BDD1     		bne	.L32
 656              	.L31:
 436:.\Generated_Source\PSoC5/LCD.c **** 
 437:.\Generated_Source\PSoC5/LCD.c ****     /* Set R/W low to write */
 438:.\Generated_Source\PSoC5/LCD.c ****     LCD_PORT_DR_REG &= ((uint8)(~LCD_RW));
 657              		.loc 1 438 0 is_stmt 1
 658 00fc 194A     		ldr	r2, .L33
 659 00fe 194B     		ldr	r3, .L33
 660 0100 1B78     		ldrb	r3, [r3]
 661 0102 DBB2     		uxtb	r3, r3
 662 0104 23F04003 		bic	r3, r3, #64
 663 0108 DBB2     		uxtb	r3, r3
 664 010a 1370     		strb	r3, [r2]
 439:.\Generated_Source\PSoC5/LCD.c **** 
 440:.\Generated_Source\PSoC5/LCD.c ****     /* Clear LCD port*/
 441:.\Generated_Source\PSoC5/LCD.c ****     LCD_PORT_DR_REG &= ((uint8)(~LCD_PORT_MASK));
 665              		.loc 1 441 0
 666 010c 154A     		ldr	r2, .L33
 667 010e 154B     		ldr	r3, .L33
 668 0110 1B78     		ldrb	r3, [r3]
 669 0112 DBB2     		uxtb	r3, r3
 670 0114 23F07F03 		bic	r3, r3, #127
 671 0118 DBB2     		uxtb	r3, r3
 672 011a 1370     		strb	r3, [r2]
 442:.\Generated_Source\PSoC5/LCD.c **** 
 443:.\Generated_Source\PSoC5/LCD.c ****     #if (CY_PSOC4)
 444:.\Generated_Source\PSoC5/LCD.c ****         
 445:.\Generated_Source\PSoC5/LCD.c ****         /* Mask off data pins to clear old values out */
 446:.\Generated_Source\PSoC5/LCD.c ****         value = LCD_PORT_PC_REG & ((uint32)(~ LCD_DM_DATA_MASK));
 447:.\Generated_Source\PSoC5/LCD.c ****         /* Load in high Z values for data pins, others unchanged */
 448:.\Generated_Source\PSoC5/LCD.c ****         LCD_PORT_PC_REG = value | LCD_STRONG_DATA_DM;
 449:.\Generated_Source\PSoC5/LCD.c **** 
 450:.\Generated_Source\PSoC5/LCD.c ****     #else
 451:.\Generated_Source\PSoC5/LCD.c **** 
 452:.\Generated_Source\PSoC5/LCD.c ****         /* Change Port to Output (Strong) on data pins */
 453:.\Generated_Source\PSoC5/LCD.c ****         /* Mask off data pins to clear high z values out. Configure data pins 
 454:.\Generated_Source\PSoC5/LCD.c ****         * to Strong Drive, others unchanged.
 455:.\Generated_Source\PSoC5/LCD.c ****         */
 456:.\Generated_Source\PSoC5/LCD.c ****         LCD_PORT_DM0_REG &= ((uint8)(~LCD_DATA_MASK));
 673              		.loc 1 456 0
 674 011c 124A     		ldr	r2, .L33+4
 675 011e 124B     		ldr	r3, .L33+4
 676 0120 1B78     		ldrb	r3, [r3]
 677 0122 DBB2     		uxtb	r3, r3
 678 0124 23F00F03 		bic	r3, r3, #15
 679 0128 DBB2     		uxtb	r3, r3
 680 012a 1370     		strb	r3, [r2]
 457:.\Generated_Source\PSoC5/LCD.c ****         /* Mask off data pins to clear high z values out */
 458:.\Generated_Source\PSoC5/LCD.c ****         value = LCD_PORT_DM1_REG & ((uint8)(~LCD_DATA_MASK));
 681              		.loc 1 458 0
ARM GAS  C:\Users\LUKASC~1\AppData\Local\Temp\ccCq3L3f.s 			page 21


 682 012c 0F4B     		ldr	r3, .L33+8
 683 012e 1B78     		ldrb	r3, [r3]
 684 0130 DBB2     		uxtb	r3, r3
 685 0132 23F00F03 		bic	r3, r3, #15
 686 0136 FB70     		strb	r3, [r7, #3]
 459:.\Generated_Source\PSoC5/LCD.c ****         /* Configure data pins to Strong Drive, others unchanged */
 460:.\Generated_Source\PSoC5/LCD.c ****         LCD_PORT_DM1_REG = value | (LCD_STRONG_DM1 & LCD_DATA_MASK);
 687              		.loc 1 460 0
 688 0138 0C4A     		ldr	r2, .L33+8
 689 013a FB78     		ldrb	r3, [r7, #3]
 690 013c 43F00F03 		orr	r3, r3, #15
 691 0140 DBB2     		uxtb	r3, r3
 692 0142 1370     		strb	r3, [r2]
 461:.\Generated_Source\PSoC5/LCD.c **** 
 462:.\Generated_Source\PSoC5/LCD.c ****         /* Mask off data pins to clear high z values out */
 463:.\Generated_Source\PSoC5/LCD.c ****         value = LCD_PORT_DM2_REG & ((uint8)(~LCD_DATA_MASK));
 693              		.loc 1 463 0
 694 0144 0A4B     		ldr	r3, .L33+12
 695 0146 1B78     		ldrb	r3, [r3]
 696 0148 DBB2     		uxtb	r3, r3
 697 014a 23F00F03 		bic	r3, r3, #15
 698 014e FB70     		strb	r3, [r7, #3]
 464:.\Generated_Source\PSoC5/LCD.c ****         /* Configure data pins to Strong Drive, others unchanged */
 465:.\Generated_Source\PSoC5/LCD.c ****         LCD_PORT_DM2_REG = value | (LCD_STRONG_DM2 & LCD_DATA_MASK);
 699              		.loc 1 465 0
 700 0150 074A     		ldr	r2, .L33+12
 701 0152 FB78     		ldrb	r3, [r7, #3]
 702 0154 43F00F03 		orr	r3, r3, #15
 703 0158 DBB2     		uxtb	r3, r3
 704 015a 1370     		strb	r3, [r2]
 466:.\Generated_Source\PSoC5/LCD.c ****     
 467:.\Generated_Source\PSoC5/LCD.c ****     #endif /* CY_PSOC4 */
 468:.\Generated_Source\PSoC5/LCD.c **** }
 705              		.loc 1 468 0
 706 015c 0837     		adds	r7, r7, #8
 707              		.cfi_def_cfa_offset 8
 708 015e BD46     		mov	sp, r7
 709              		.cfi_def_cfa_register 13
 710              		@ sp needed
 711 0160 80BD     		pop	{r7, pc}
 712              	.L34:
 713 0162 00BF     		.align	2
 714              	.L33:
 715 0164 20510040 		.word	1073762592
 716 0168 22510040 		.word	1073762594
 717 016c 23510040 		.word	1073762595
 718 0170 24510040 		.word	1073762596
 719 0174 21510040 		.word	1073762593
 720              		.cfi_endproc
 721              	.LFE9:
 722              		.size	LCD_IsReady, .-LCD_IsReady
 723              		.section	.text.LCD_WrDatNib,"ax",%progbits
 724              		.align	2
 725              		.thumb
 726              		.thumb_func
 727              		.type	LCD_WrDatNib, %function
 728              	LCD_WrDatNib:
ARM GAS  C:\Users\LUKASC~1\AppData\Local\Temp\ccCq3L3f.s 			page 22


 729              	.LFB10:
 469:.\Generated_Source\PSoC5/LCD.c **** 
 470:.\Generated_Source\PSoC5/LCD.c **** 
 471:.\Generated_Source\PSoC5/LCD.c **** /*******************************************************************************
 472:.\Generated_Source\PSoC5/LCD.c **** *  Function Name: LCD_WrDatNib
 473:.\Generated_Source\PSoC5/LCD.c **** ********************************************************************************
 474:.\Generated_Source\PSoC5/LCD.c **** *
 475:.\Generated_Source\PSoC5/LCD.c **** * Summary:
 476:.\Generated_Source\PSoC5/LCD.c **** *  Writes a data nibble to the LCD module.
 477:.\Generated_Source\PSoC5/LCD.c **** *
 478:.\Generated_Source\PSoC5/LCD.c **** * Parameters:
 479:.\Generated_Source\PSoC5/LCD.c **** *  nibble:  Byte containing nibble in the least significant nibble to be
 480:.\Generated_Source\PSoC5/LCD.c **** *           written to the LCD module.
 481:.\Generated_Source\PSoC5/LCD.c **** *
 482:.\Generated_Source\PSoC5/LCD.c **** * Return:
 483:.\Generated_Source\PSoC5/LCD.c **** *  None.
 484:.\Generated_Source\PSoC5/LCD.c **** *
 485:.\Generated_Source\PSoC5/LCD.c **** *******************************************************************************/
 486:.\Generated_Source\PSoC5/LCD.c **** static void LCD_WrDatNib(uint8 nibble) 
 487:.\Generated_Source\PSoC5/LCD.c **** {
 730              		.loc 1 487 0
 731              		.cfi_startproc
 732              		@ args = 0, pretend = 0, frame = 8
 733              		@ frame_needed = 1, uses_anonymous_args = 0
 734 0000 80B5     		push	{r7, lr}
 735              		.cfi_def_cfa_offset 8
 736              		.cfi_offset 7, -8
 737              		.cfi_offset 14, -4
 738 0002 82B0     		sub	sp, sp, #8
 739              		.cfi_def_cfa_offset 16
 740 0004 00AF     		add	r7, sp, #0
 741              		.cfi_def_cfa_register 7
 742 0006 0346     		mov	r3, r0
 743 0008 FB71     		strb	r3, [r7, #7]
 488:.\Generated_Source\PSoC5/LCD.c ****     /* RS should be low to select data register */
 489:.\Generated_Source\PSoC5/LCD.c ****     LCD_PORT_DR_REG |= LCD_RS;
 744              		.loc 1 489 0
 745 000a 1A4A     		ldr	r2, .L36
 746 000c 194B     		ldr	r3, .L36
 747 000e 1B78     		ldrb	r3, [r3]
 748 0010 DBB2     		uxtb	r3, r3
 749 0012 43F02003 		orr	r3, r3, #32
 750 0016 DBB2     		uxtb	r3, r3
 751 0018 1370     		strb	r3, [r2]
 490:.\Generated_Source\PSoC5/LCD.c ****     /* Reset RW for write operation */
 491:.\Generated_Source\PSoC5/LCD.c ****     LCD_PORT_DR_REG &= ((uint8)(~LCD_RW));
 752              		.loc 1 491 0
 753 001a 164A     		ldr	r2, .L36
 754 001c 154B     		ldr	r3, .L36
 755 001e 1B78     		ldrb	r3, [r3]
 756 0020 DBB2     		uxtb	r3, r3
 757 0022 23F04003 		bic	r3, r3, #64
 758 0026 DBB2     		uxtb	r3, r3
 759 0028 1370     		strb	r3, [r2]
 492:.\Generated_Source\PSoC5/LCD.c **** 
 493:.\Generated_Source\PSoC5/LCD.c ****     /* Guaranteed delay between Setting RS and RW and setting E bits */
 494:.\Generated_Source\PSoC5/LCD.c ****     CyDelayUs(0u);
ARM GAS  C:\Users\LUKASC~1\AppData\Local\Temp\ccCq3L3f.s 			page 23


 760              		.loc 1 494 0
 761 002a 0020     		movs	r0, #0
 762 002c FFF7FEFF 		bl	CyDelayUs
 495:.\Generated_Source\PSoC5/LCD.c ****     
 496:.\Generated_Source\PSoC5/LCD.c ****     /* Clear data pins */
 497:.\Generated_Source\PSoC5/LCD.c ****     LCD_PORT_DR_REG &= ((uint8)(~LCD_DATA_MASK));
 763              		.loc 1 497 0
 764 0030 104A     		ldr	r2, .L36
 765 0032 104B     		ldr	r3, .L36
 766 0034 1B78     		ldrb	r3, [r3]
 767 0036 DBB2     		uxtb	r3, r3
 768 0038 23F00F03 		bic	r3, r3, #15
 769 003c DBB2     		uxtb	r3, r3
 770 003e 1370     		strb	r3, [r2]
 498:.\Generated_Source\PSoC5/LCD.c **** 
 499:.\Generated_Source\PSoC5/LCD.c ****     /* Write data, bring E high */
 500:.\Generated_Source\PSoC5/LCD.c ****     #if(0u != LCD_PORT_SHIFT) /* MISRA forbids shift by 0 so need to handle that */
 501:.\Generated_Source\PSoC5/LCD.c ****         LCD_PORT_DR_REG |= 
 502:.\Generated_Source\PSoC5/LCD.c ****             (LCD_E | ((uint8)(((uint8) nibble) << LCD_PORT_SHIFT)));
 503:.\Generated_Source\PSoC5/LCD.c ****     #else
 504:.\Generated_Source\PSoC5/LCD.c ****         LCD_PORT_DR_REG |= (LCD_E | nibble);
 771              		.loc 1 504 0
 772 0040 0C49     		ldr	r1, .L36
 773 0042 0C4B     		ldr	r3, .L36
 774 0044 1B78     		ldrb	r3, [r3]
 775 0046 DAB2     		uxtb	r2, r3
 776 0048 FB79     		ldrb	r3, [r7, #7]
 777 004a 1343     		orrs	r3, r3, r2
 778 004c DBB2     		uxtb	r3, r3
 779 004e 43F01003 		orr	r3, r3, #16
 780 0052 DBB2     		uxtb	r3, r3
 781 0054 0B70     		strb	r3, [r1]
 505:.\Generated_Source\PSoC5/LCD.c ****     #endif /* (0u != LCD_PORT_SHIFT) */
 506:.\Generated_Source\PSoC5/LCD.c **** 
 507:.\Generated_Source\PSoC5/LCD.c ****     /* Minimum of 230 ns delay */
 508:.\Generated_Source\PSoC5/LCD.c ****     CyDelayUs(1u);
 782              		.loc 1 508 0
 783 0056 0120     		movs	r0, #1
 784 0058 FFF7FEFF 		bl	CyDelayUs
 509:.\Generated_Source\PSoC5/LCD.c **** 
 510:.\Generated_Source\PSoC5/LCD.c ****     LCD_PORT_DR_REG &= ((uint8)(~LCD_E));
 785              		.loc 1 510 0
 786 005c 054A     		ldr	r2, .L36
 787 005e 054B     		ldr	r3, .L36
 788 0060 1B78     		ldrb	r3, [r3]
 789 0062 DBB2     		uxtb	r3, r3
 790 0064 23F01003 		bic	r3, r3, #16
 791 0068 DBB2     		uxtb	r3, r3
 792 006a 1370     		strb	r3, [r2]
 511:.\Generated_Source\PSoC5/LCD.c **** }
 793              		.loc 1 511 0
 794 006c 0837     		adds	r7, r7, #8
 795              		.cfi_def_cfa_offset 8
 796 006e BD46     		mov	sp, r7
 797              		.cfi_def_cfa_register 13
 798              		@ sp needed
 799 0070 80BD     		pop	{r7, pc}
ARM GAS  C:\Users\LUKASC~1\AppData\Local\Temp\ccCq3L3f.s 			page 24


 800              	.L37:
 801 0072 00BF     		.align	2
 802              	.L36:
 803 0074 20510040 		.word	1073762592
 804              		.cfi_endproc
 805              	.LFE10:
 806              		.size	LCD_WrDatNib, .-LCD_WrDatNib
 807              		.section	.text.LCD_WrCntrlNib,"ax",%progbits
 808              		.align	2
 809              		.thumb
 810              		.thumb_func
 811              		.type	LCD_WrCntrlNib, %function
 812              	LCD_WrCntrlNib:
 813              	.LFB11:
 512:.\Generated_Source\PSoC5/LCD.c **** 
 513:.\Generated_Source\PSoC5/LCD.c **** 
 514:.\Generated_Source\PSoC5/LCD.c **** /*******************************************************************************
 515:.\Generated_Source\PSoC5/LCD.c **** *  Function Name: LCD_WrCntrlNib
 516:.\Generated_Source\PSoC5/LCD.c **** ********************************************************************************
 517:.\Generated_Source\PSoC5/LCD.c **** *
 518:.\Generated_Source\PSoC5/LCD.c **** * Summary:
 519:.\Generated_Source\PSoC5/LCD.c **** *  Writes a control nibble to the LCD module.
 520:.\Generated_Source\PSoC5/LCD.c **** *
 521:.\Generated_Source\PSoC5/LCD.c **** * Parameters:
 522:.\Generated_Source\PSoC5/LCD.c **** *  nibble: The byte containing a nibble in the four least significant bits.????
 523:.\Generated_Source\PSoC5/LCD.c **** *
 524:.\Generated_Source\PSoC5/LCD.c **** * Return:
 525:.\Generated_Source\PSoC5/LCD.c **** *  None.
 526:.\Generated_Source\PSoC5/LCD.c **** *
 527:.\Generated_Source\PSoC5/LCD.c **** *******************************************************************************/
 528:.\Generated_Source\PSoC5/LCD.c **** static void LCD_WrCntrlNib(uint8 nibble) 
 529:.\Generated_Source\PSoC5/LCD.c **** {
 814              		.loc 1 529 0
 815              		.cfi_startproc
 816              		@ args = 0, pretend = 0, frame = 8
 817              		@ frame_needed = 1, uses_anonymous_args = 0
 818 0000 80B5     		push	{r7, lr}
 819              		.cfi_def_cfa_offset 8
 820              		.cfi_offset 7, -8
 821              		.cfi_offset 14, -4
 822 0002 82B0     		sub	sp, sp, #8
 823              		.cfi_def_cfa_offset 16
 824 0004 00AF     		add	r7, sp, #0
 825              		.cfi_def_cfa_register 7
 826 0006 0346     		mov	r3, r0
 827 0008 FB71     		strb	r3, [r7, #7]
 530:.\Generated_Source\PSoC5/LCD.c ****     /* RS and RW should be low to select instruction register and  write operation respectively */
 531:.\Generated_Source\PSoC5/LCD.c ****     LCD_PORT_DR_REG &= ((uint8)(~(LCD_RS | LCD_RW)));
 828              		.loc 1 531 0
 829 000a 144A     		ldr	r2, .L39
 830 000c 134B     		ldr	r3, .L39
 831 000e 1B78     		ldrb	r3, [r3]
 832 0010 DBB2     		uxtb	r3, r3
 833 0012 23F06003 		bic	r3, r3, #96
 834 0016 DBB2     		uxtb	r3, r3
 835 0018 1370     		strb	r3, [r2]
 532:.\Generated_Source\PSoC5/LCD.c **** 
ARM GAS  C:\Users\LUKASC~1\AppData\Local\Temp\ccCq3L3f.s 			page 25


 533:.\Generated_Source\PSoC5/LCD.c ****     /* Two following lines of code will give 40ns delay */
 534:.\Generated_Source\PSoC5/LCD.c ****     /* Clear data pins */
 535:.\Generated_Source\PSoC5/LCD.c ****     LCD_PORT_DR_REG &= ((uint8)(~LCD_DATA_MASK));
 836              		.loc 1 535 0
 837 001a 104A     		ldr	r2, .L39
 838 001c 0F4B     		ldr	r3, .L39
 839 001e 1B78     		ldrb	r3, [r3]
 840 0020 DBB2     		uxtb	r3, r3
 841 0022 23F00F03 		bic	r3, r3, #15
 842 0026 DBB2     		uxtb	r3, r3
 843 0028 1370     		strb	r3, [r2]
 536:.\Generated_Source\PSoC5/LCD.c **** 
 537:.\Generated_Source\PSoC5/LCD.c ****     /* Write control data and set enable signal */
 538:.\Generated_Source\PSoC5/LCD.c ****     #if(0u != LCD_PORT_SHIFT) /* MISRA forbids shift by 0 so need to handle that */
 539:.\Generated_Source\PSoC5/LCD.c ****         LCD_PORT_DR_REG |= 
 540:.\Generated_Source\PSoC5/LCD.c ****             (LCD_E | ((uint8)(((uint8) nibble) << LCD_PORT_SHIFT)));
 541:.\Generated_Source\PSoC5/LCD.c ****     #else
 542:.\Generated_Source\PSoC5/LCD.c ****         LCD_PORT_DR_REG |= (LCD_E | nibble);
 844              		.loc 1 542 0
 845 002a 0C49     		ldr	r1, .L39
 846 002c 0B4B     		ldr	r3, .L39
 847 002e 1B78     		ldrb	r3, [r3]
 848 0030 DAB2     		uxtb	r2, r3
 849 0032 FB79     		ldrb	r3, [r7, #7]
 850 0034 1343     		orrs	r3, r3, r2
 851 0036 DBB2     		uxtb	r3, r3
 852 0038 43F01003 		orr	r3, r3, #16
 853 003c DBB2     		uxtb	r3, r3
 854 003e 0B70     		strb	r3, [r1]
 543:.\Generated_Source\PSoC5/LCD.c ****     #endif /* (0u != LCD_PORT_SHIFT) */
 544:.\Generated_Source\PSoC5/LCD.c **** 
 545:.\Generated_Source\PSoC5/LCD.c ****     /* Minimum of 230 ns delay */
 546:.\Generated_Source\PSoC5/LCD.c ****     CyDelayUs(1u);
 855              		.loc 1 546 0
 856 0040 0120     		movs	r0, #1
 857 0042 FFF7FEFF 		bl	CyDelayUs
 547:.\Generated_Source\PSoC5/LCD.c **** 
 548:.\Generated_Source\PSoC5/LCD.c ****     LCD_PORT_DR_REG &= ((uint8)(~LCD_E));
 858              		.loc 1 548 0
 859 0046 054A     		ldr	r2, .L39
 860 0048 044B     		ldr	r3, .L39
 861 004a 1B78     		ldrb	r3, [r3]
 862 004c DBB2     		uxtb	r3, r3
 863 004e 23F01003 		bic	r3, r3, #16
 864 0052 DBB2     		uxtb	r3, r3
 865 0054 1370     		strb	r3, [r2]
 549:.\Generated_Source\PSoC5/LCD.c **** }
 866              		.loc 1 549 0
 867 0056 0837     		adds	r7, r7, #8
 868              		.cfi_def_cfa_offset 8
 869 0058 BD46     		mov	sp, r7
 870              		.cfi_def_cfa_register 13
 871              		@ sp needed
 872 005a 80BD     		pop	{r7, pc}
 873              	.L40:
 874              		.align	2
 875              	.L39:
ARM GAS  C:\Users\LUKASC~1\AppData\Local\Temp\ccCq3L3f.s 			page 26


 876 005c 20510040 		.word	1073762592
 877              		.cfi_endproc
 878              	.LFE11:
 879              		.size	LCD_WrCntrlNib, .-LCD_WrCntrlNib
 880              		.section	.text.LCD_PrintInt8,"ax",%progbits
 881              		.align	2
 882              		.global	LCD_PrintInt8
 883              		.thumb
 884              		.thumb_func
 885              		.type	LCD_PrintInt8, %function
 886              	LCD_PrintInt8:
 887              	.LFB12:
 550:.\Generated_Source\PSoC5/LCD.c **** 
 551:.\Generated_Source\PSoC5/LCD.c **** 
 552:.\Generated_Source\PSoC5/LCD.c **** #if(LCD_CONVERSION_ROUTINES == 1u)
 553:.\Generated_Source\PSoC5/LCD.c **** 
 554:.\Generated_Source\PSoC5/LCD.c ****     /*******************************************************************************
 555:.\Generated_Source\PSoC5/LCD.c ****     *  Function Name: LCD_PrintInt8
 556:.\Generated_Source\PSoC5/LCD.c ****     ********************************************************************************
 557:.\Generated_Source\PSoC5/LCD.c ****     *
 558:.\Generated_Source\PSoC5/LCD.c ****     * Summary:
 559:.\Generated_Source\PSoC5/LCD.c ****     *  Print a byte as two ASCII characters.
 560:.\Generated_Source\PSoC5/LCD.c ****     *
 561:.\Generated_Source\PSoC5/LCD.c ****     * Parameters:
 562:.\Generated_Source\PSoC5/LCD.c ****     *  value: The byte to be printed out as ASCII characters.
 563:.\Generated_Source\PSoC5/LCD.c ****     *
 564:.\Generated_Source\PSoC5/LCD.c ****     * Return:
 565:.\Generated_Source\PSoC5/LCD.c ****     *  None.
 566:.\Generated_Source\PSoC5/LCD.c ****     *
 567:.\Generated_Source\PSoC5/LCD.c ****     *******************************************************************************/
 568:.\Generated_Source\PSoC5/LCD.c ****     void LCD_PrintInt8(uint8 value) 
 569:.\Generated_Source\PSoC5/LCD.c ****     {
 888              		.loc 1 569 0
 889              		.cfi_startproc
 890              		@ args = 0, pretend = 0, frame = 8
 891              		@ frame_needed = 1, uses_anonymous_args = 0
 892 0000 80B5     		push	{r7, lr}
 893              		.cfi_def_cfa_offset 8
 894              		.cfi_offset 7, -8
 895              		.cfi_offset 14, -4
 896 0002 82B0     		sub	sp, sp, #8
 897              		.cfi_def_cfa_offset 16
 898 0004 00AF     		add	r7, sp, #0
 899              		.cfi_def_cfa_register 7
 900 0006 0346     		mov	r3, r0
 901 0008 FB71     		strb	r3, [r7, #7]
 570:.\Generated_Source\PSoC5/LCD.c ****         static char8 const CYCODE LCD_hex[16u] = "0123456789ABCDEF";
 571:.\Generated_Source\PSoC5/LCD.c ****         
 572:.\Generated_Source\PSoC5/LCD.c ****         LCD_PutChar((char8) LCD_hex[value >> LCD_BYTE_UPPER_NIBBLE_SHIFT]);
 902              		.loc 1 572 0
 903 000a FB79     		ldrb	r3, [r7, #7]	@ zero_extendqisi2
 904 000c 1B09     		lsrs	r3, r3, #4
 905 000e DBB2     		uxtb	r3, r3
 906 0010 1A46     		mov	r2, r3
 907 0012 084B     		ldr	r3, .L42
 908 0014 9B5C     		ldrb	r3, [r3, r2]	@ zero_extendqisi2
 909 0016 1846     		mov	r0, r3
ARM GAS  C:\Users\LUKASC~1\AppData\Local\Temp\ccCq3L3f.s 			page 27


 910 0018 FFF7FEFF 		bl	LCD_PutChar
 573:.\Generated_Source\PSoC5/LCD.c ****         LCD_PutChar((char8) LCD_hex[value & LCD_BYTE_LOWER_NIBBLE_MASK]);
 911              		.loc 1 573 0
 912 001c FB79     		ldrb	r3, [r7, #7]	@ zero_extendqisi2
 913 001e 03F00F03 		and	r3, r3, #15
 914 0022 044A     		ldr	r2, .L42
 915 0024 D35C     		ldrb	r3, [r2, r3]	@ zero_extendqisi2
 916 0026 1846     		mov	r0, r3
 917 0028 FFF7FEFF 		bl	LCD_PutChar
 574:.\Generated_Source\PSoC5/LCD.c ****     }
 918              		.loc 1 574 0
 919 002c 0837     		adds	r7, r7, #8
 920              		.cfi_def_cfa_offset 8
 921 002e BD46     		mov	sp, r7
 922              		.cfi_def_cfa_register 13
 923              		@ sp needed
 924 0030 80BD     		pop	{r7, pc}
 925              	.L43:
 926 0032 00BF     		.align	2
 927              	.L42:
 928 0034 00000000 		.word	LCD_hex.4917
 929              		.cfi_endproc
 930              	.LFE12:
 931              		.size	LCD_PrintInt8, .-LCD_PrintInt8
 932              		.section	.text.LCD_PrintInt16,"ax",%progbits
 933              		.align	2
 934              		.global	LCD_PrintInt16
 935              		.thumb
 936              		.thumb_func
 937              		.type	LCD_PrintInt16, %function
 938              	LCD_PrintInt16:
 939              	.LFB13:
 575:.\Generated_Source\PSoC5/LCD.c **** 
 576:.\Generated_Source\PSoC5/LCD.c **** 
 577:.\Generated_Source\PSoC5/LCD.c ****     /*******************************************************************************
 578:.\Generated_Source\PSoC5/LCD.c ****     *  Function Name: LCD_PrintInt16
 579:.\Generated_Source\PSoC5/LCD.c ****     ********************************************************************************
 580:.\Generated_Source\PSoC5/LCD.c ****     *
 581:.\Generated_Source\PSoC5/LCD.c ****     * Summary:
 582:.\Generated_Source\PSoC5/LCD.c ****     *  Print a uint16 as four ASCII characters.
 583:.\Generated_Source\PSoC5/LCD.c ****     *
 584:.\Generated_Source\PSoC5/LCD.c ****     * Parameters:
 585:.\Generated_Source\PSoC5/LCD.c ****     *  value: The uint16 to be printed out as ASCII characters.
 586:.\Generated_Source\PSoC5/LCD.c ****     *
 587:.\Generated_Source\PSoC5/LCD.c ****     * Return:
 588:.\Generated_Source\PSoC5/LCD.c ****     *  None.
 589:.\Generated_Source\PSoC5/LCD.c ****     *
 590:.\Generated_Source\PSoC5/LCD.c ****     *******************************************************************************/
 591:.\Generated_Source\PSoC5/LCD.c ****     void LCD_PrintInt16(uint16 value) 
 592:.\Generated_Source\PSoC5/LCD.c ****     {
 940              		.loc 1 592 0
 941              		.cfi_startproc
 942              		@ args = 0, pretend = 0, frame = 8
 943              		@ frame_needed = 1, uses_anonymous_args = 0
 944 0000 80B5     		push	{r7, lr}
 945              		.cfi_def_cfa_offset 8
 946              		.cfi_offset 7, -8
ARM GAS  C:\Users\LUKASC~1\AppData\Local\Temp\ccCq3L3f.s 			page 28


 947              		.cfi_offset 14, -4
 948 0002 82B0     		sub	sp, sp, #8
 949              		.cfi_def_cfa_offset 16
 950 0004 00AF     		add	r7, sp, #0
 951              		.cfi_def_cfa_register 7
 952 0006 0346     		mov	r3, r0
 953 0008 FB80     		strh	r3, [r7, #6]	@ movhi
 593:.\Generated_Source\PSoC5/LCD.c ****         LCD_PrintInt8((uint8)(value >> LCD_U16_UPPER_BYTE_SHIFT));
 954              		.loc 1 593 0
 955 000a FB88     		ldrh	r3, [r7, #6]
 956 000c 1B0A     		lsrs	r3, r3, #8
 957 000e 9BB2     		uxth	r3, r3
 958 0010 DBB2     		uxtb	r3, r3
 959 0012 1846     		mov	r0, r3
 960 0014 FFF7FEFF 		bl	LCD_PrintInt8
 594:.\Generated_Source\PSoC5/LCD.c ****         LCD_PrintInt8((uint8)(value & LCD_U16_LOWER_BYTE_MASK));
 961              		.loc 1 594 0
 962 0018 FB88     		ldrh	r3, [r7, #6]	@ movhi
 963 001a DBB2     		uxtb	r3, r3
 964 001c 1846     		mov	r0, r3
 965 001e FFF7FEFF 		bl	LCD_PrintInt8
 595:.\Generated_Source\PSoC5/LCD.c ****     }
 966              		.loc 1 595 0
 967 0022 0837     		adds	r7, r7, #8
 968              		.cfi_def_cfa_offset 8
 969 0024 BD46     		mov	sp, r7
 970              		.cfi_def_cfa_register 13
 971              		@ sp needed
 972 0026 80BD     		pop	{r7, pc}
 973              		.cfi_endproc
 974              	.LFE13:
 975              		.size	LCD_PrintInt16, .-LCD_PrintInt16
 976              		.section	.text.LCD_PrintInt32,"ax",%progbits
 977              		.align	2
 978              		.global	LCD_PrintInt32
 979              		.thumb
 980              		.thumb_func
 981              		.type	LCD_PrintInt32, %function
 982              	LCD_PrintInt32:
 983              	.LFB14:
 596:.\Generated_Source\PSoC5/LCD.c **** 
 597:.\Generated_Source\PSoC5/LCD.c ****     
 598:.\Generated_Source\PSoC5/LCD.c ****     /*******************************************************************************
 599:.\Generated_Source\PSoC5/LCD.c ****     *  Function Name: LCD_PrintInt32
 600:.\Generated_Source\PSoC5/LCD.c ****     ********************************************************************************
 601:.\Generated_Source\PSoC5/LCD.c ****     *
 602:.\Generated_Source\PSoC5/LCD.c ****     * Summary:
 603:.\Generated_Source\PSoC5/LCD.c ****     *  Print a uint32 hexadecimal number as eight ASCII characters.
 604:.\Generated_Source\PSoC5/LCD.c ****     *
 605:.\Generated_Source\PSoC5/LCD.c ****     * Parameters:
 606:.\Generated_Source\PSoC5/LCD.c ****     *  value: The uint32 to be printed out as ASCII characters.
 607:.\Generated_Source\PSoC5/LCD.c ****     *
 608:.\Generated_Source\PSoC5/LCD.c ****     * Return:
 609:.\Generated_Source\PSoC5/LCD.c ****     *  None.
 610:.\Generated_Source\PSoC5/LCD.c ****     *
 611:.\Generated_Source\PSoC5/LCD.c ****     *******************************************************************************/
 612:.\Generated_Source\PSoC5/LCD.c ****     void LCD_PrintInt32(uint32 value) 
ARM GAS  C:\Users\LUKASC~1\AppData\Local\Temp\ccCq3L3f.s 			page 29


 613:.\Generated_Source\PSoC5/LCD.c ****     {
 984              		.loc 1 613 0
 985              		.cfi_startproc
 986              		@ args = 0, pretend = 0, frame = 16
 987              		@ frame_needed = 1, uses_anonymous_args = 0
 988 0000 80B5     		push	{r7, lr}
 989              		.cfi_def_cfa_offset 8
 990              		.cfi_offset 7, -8
 991              		.cfi_offset 14, -4
 992 0002 84B0     		sub	sp, sp, #16
 993              		.cfi_def_cfa_offset 24
 994 0004 00AF     		add	r7, sp, #0
 995              		.cfi_def_cfa_register 7
 996 0006 7860     		str	r0, [r7, #4]
 614:.\Generated_Source\PSoC5/LCD.c ****         uint8 shift = LCD_32_BIT_SHIFT;
 997              		.loc 1 614 0
 998 0008 2023     		movs	r3, #32
 999 000a FB73     		strb	r3, [r7, #15]
 615:.\Generated_Source\PSoC5/LCD.c ****         
 616:.\Generated_Source\PSoC5/LCD.c ****         while (shift != 0u)
 1000              		.loc 1 616 0
 1001 000c 0AE0     		b	.L46
 1002              	.L47:
 617:.\Generated_Source\PSoC5/LCD.c ****         {
 618:.\Generated_Source\PSoC5/LCD.c ****             /* "shift" var is to be subtracted by 8 prior shifting. This implements 
 619:.\Generated_Source\PSoC5/LCD.c ****             * shifting by 24, 16, 8 and 0u. 
 620:.\Generated_Source\PSoC5/LCD.c ****             */
 621:.\Generated_Source\PSoC5/LCD.c ****             shift -= LCD_8_BIT_SHIFT;
 1003              		.loc 1 621 0
 1004 000e FB7B     		ldrb	r3, [r7, #15]
 1005 0010 083B     		subs	r3, r3, #8
 1006 0012 FB73     		strb	r3, [r7, #15]
 622:.\Generated_Source\PSoC5/LCD.c ****             
 623:.\Generated_Source\PSoC5/LCD.c ****             /* Print 8 bits of uint32 hex number */
 624:.\Generated_Source\PSoC5/LCD.c ****             LCD_PrintInt8((uint8) ((uint32) (value >> shift)));
 1007              		.loc 1 624 0
 1008 0014 FB7B     		ldrb	r3, [r7, #15]	@ zero_extendqisi2
 1009 0016 7A68     		ldr	r2, [r7, #4]
 1010 0018 22FA03F3 		lsr	r3, r2, r3
 1011 001c DBB2     		uxtb	r3, r3
 1012 001e 1846     		mov	r0, r3
 1013 0020 FFF7FEFF 		bl	LCD_PrintInt8
 1014              	.L46:
 616:.\Generated_Source\PSoC5/LCD.c ****         {
 1015              		.loc 1 616 0
 1016 0024 FB7B     		ldrb	r3, [r7, #15]	@ zero_extendqisi2
 1017 0026 002B     		cmp	r3, #0
 1018 0028 F1D1     		bne	.L47
 625:.\Generated_Source\PSoC5/LCD.c ****         }
 626:.\Generated_Source\PSoC5/LCD.c ****     }
 1019              		.loc 1 626 0
 1020 002a 1037     		adds	r7, r7, #16
 1021              		.cfi_def_cfa_offset 8
 1022 002c BD46     		mov	sp, r7
 1023              		.cfi_def_cfa_register 13
 1024              		@ sp needed
 1025 002e 80BD     		pop	{r7, pc}
ARM GAS  C:\Users\LUKASC~1\AppData\Local\Temp\ccCq3L3f.s 			page 30


 1026              		.cfi_endproc
 1027              	.LFE14:
 1028              		.size	LCD_PrintInt32, .-LCD_PrintInt32
 1029              		.section	.text.LCD_PrintU32Number,"ax",%progbits
 1030              		.align	2
 1031              		.global	LCD_PrintU32Number
 1032              		.thumb
 1033              		.thumb_func
 1034              		.type	LCD_PrintU32Number, %function
 1035              	LCD_PrintU32Number:
 1036              	.LFB15:
 627:.\Generated_Source\PSoC5/LCD.c ****     
 628:.\Generated_Source\PSoC5/LCD.c ****     
 629:.\Generated_Source\PSoC5/LCD.c ****     /*******************************************************************************
 630:.\Generated_Source\PSoC5/LCD.c ****     *  Function Name: LCD_PrintNumber
 631:.\Generated_Source\PSoC5/LCD.c ****     ********************************************************************************
 632:.\Generated_Source\PSoC5/LCD.c ****     *
 633:.\Generated_Source\PSoC5/LCD.c ****     * Summary:
 634:.\Generated_Source\PSoC5/LCD.c ****     *  Print an uint16 value as a left-justified decimal value.
 635:.\Generated_Source\PSoC5/LCD.c ****     *
 636:.\Generated_Source\PSoC5/LCD.c ****     * Parameters:
 637:.\Generated_Source\PSoC5/LCD.c ****     *  value: A 16-bit value to be printed in ASCII characters as a decimal number
 638:.\Generated_Source\PSoC5/LCD.c ****     *
 639:.\Generated_Source\PSoC5/LCD.c ****     * Return:
 640:.\Generated_Source\PSoC5/LCD.c ****     *  None.
 641:.\Generated_Source\PSoC5/LCD.c ****     *
 642:.\Generated_Source\PSoC5/LCD.c ****     * Note:
 643:.\Generated_Source\PSoC5/LCD.c ****     *  This function is implemented as a macro.
 644:.\Generated_Source\PSoC5/LCD.c ****     *
 645:.\Generated_Source\PSoC5/LCD.c ****     *******************************************************************************/
 646:.\Generated_Source\PSoC5/LCD.c **** 
 647:.\Generated_Source\PSoC5/LCD.c ****     
 648:.\Generated_Source\PSoC5/LCD.c ****     /*******************************************************************************
 649:.\Generated_Source\PSoC5/LCD.c ****     *  Function Name: LCD_PrintU32Number
 650:.\Generated_Source\PSoC5/LCD.c ****     ********************************************************************************
 651:.\Generated_Source\PSoC5/LCD.c ****     *
 652:.\Generated_Source\PSoC5/LCD.c ****     * Summary:
 653:.\Generated_Source\PSoC5/LCD.c ****     *  Print an uint32 value as a left-justified decimal value.
 654:.\Generated_Source\PSoC5/LCD.c ****     *
 655:.\Generated_Source\PSoC5/LCD.c ****     * Parameters:
 656:.\Generated_Source\PSoC5/LCD.c ****     *  value: A 32-bit value to be printed in ASCII characters as a decimal number
 657:.\Generated_Source\PSoC5/LCD.c ****     *
 658:.\Generated_Source\PSoC5/LCD.c ****     * Return:
 659:.\Generated_Source\PSoC5/LCD.c ****     *  None.
 660:.\Generated_Source\PSoC5/LCD.c ****     *
 661:.\Generated_Source\PSoC5/LCD.c ****     *******************************************************************************/
 662:.\Generated_Source\PSoC5/LCD.c ****     void LCD_PrintU32Number(uint32 value) 
 663:.\Generated_Source\PSoC5/LCD.c ****     {
 1037              		.loc 1 663 0
 1038              		.cfi_startproc
 1039              		@ args = 0, pretend = 0, frame = 24
 1040              		@ frame_needed = 1, uses_anonymous_args = 0
 1041 0000 80B5     		push	{r7, lr}
 1042              		.cfi_def_cfa_offset 8
 1043              		.cfi_offset 7, -8
 1044              		.cfi_offset 14, -4
 1045 0002 86B0     		sub	sp, sp, #24
ARM GAS  C:\Users\LUKASC~1\AppData\Local\Temp\ccCq3L3f.s 			page 31


 1046              		.cfi_def_cfa_offset 32
 1047 0004 00AF     		add	r7, sp, #0
 1048              		.cfi_def_cfa_register 7
 1049 0006 7860     		str	r0, [r7, #4]
 664:.\Generated_Source\PSoC5/LCD.c ****         uint8 tmpDigit;
 665:.\Generated_Source\PSoC5/LCD.c ****         char8 number[LCD_NUMBER_OF_REMAINDERS_U32 + 1u];
 666:.\Generated_Source\PSoC5/LCD.c ****         uint8 digIndex = LCD_NUMBER_OF_REMAINDERS_U32;
 1050              		.loc 1 666 0
 1051 0008 0A23     		movs	r3, #10
 1052 000a FB75     		strb	r3, [r7, #23]
 667:.\Generated_Source\PSoC5/LCD.c ****         
 668:.\Generated_Source\PSoC5/LCD.c ****         /* This API will output a decimal number as a string and that string will be 
 669:.\Generated_Source\PSoC5/LCD.c ****         * filled from end to start. Set Null termination character first.
 670:.\Generated_Source\PSoC5/LCD.c ****         */
 671:.\Generated_Source\PSoC5/LCD.c ****         number[digIndex] = (char8) '\0';
 1053              		.loc 1 671 0
 1054 000c FB7D     		ldrb	r3, [r7, #23]	@ zero_extendqisi2
 1055 000e 07F11802 		add	r2, r7, #24
 1056 0012 1344     		add	r3, r3, r2
 1057 0014 0022     		movs	r2, #0
 1058 0016 03F8102C 		strb	r2, [r3, #-16]
 672:.\Generated_Source\PSoC5/LCD.c ****         digIndex--;
 1059              		.loc 1 672 0
 1060 001a FB7D     		ldrb	r3, [r7, #23]	@ zero_extendqisi2
 1061 001c 013B     		subs	r3, r3, #1
 1062 001e FB75     		strb	r3, [r7, #23]
 673:.\Generated_Source\PSoC5/LCD.c ****         
 674:.\Generated_Source\PSoC5/LCD.c ****         /* Load these in reverse order */
 675:.\Generated_Source\PSoC5/LCD.c ****         while(value >= LCD_TEN)
 1063              		.loc 1 675 0
 1064 0020 1CE0     		b	.L49
 1065              	.L50:
 676:.\Generated_Source\PSoC5/LCD.c ****         {
 677:.\Generated_Source\PSoC5/LCD.c ****             /* Extract decimal digit, indexed by 'digIndex', from 'value' and
 678:.\Generated_Source\PSoC5/LCD.c ****             * convert it to ASCII character.
 679:.\Generated_Source\PSoC5/LCD.c ****             */
 680:.\Generated_Source\PSoC5/LCD.c ****             tmpDigit = (uint8) (((uint8) (value % LCD_TEN)) + (uint8) LCD_ZERO_CHAR_ASCII);
 1066              		.loc 1 680 0
 1067 0022 7968     		ldr	r1, [r7, #4]
 1068 0024 1E4B     		ldr	r3, .L51
 1069 0026 A3FB0123 		umull	r2, r3, r3, r1
 1070 002a DA08     		lsrs	r2, r3, #3
 1071 002c 1346     		mov	r3, r2
 1072 002e 9B00     		lsls	r3, r3, #2
 1073 0030 1344     		add	r3, r3, r2
 1074 0032 5B00     		lsls	r3, r3, #1
 1075 0034 CA1A     		subs	r2, r1, r3
 1076 0036 D3B2     		uxtb	r3, r2
 1077 0038 3033     		adds	r3, r3, #48
 1078 003a BB75     		strb	r3, [r7, #22]
 681:.\Generated_Source\PSoC5/LCD.c ****             
 682:.\Generated_Source\PSoC5/LCD.c ****             /* Temporary variable 'tmpDigit' is used to avoid Violation of MISRA rule 
 683:.\Generated_Source\PSoC5/LCD.c ****             * #10.3.
 684:.\Generated_Source\PSoC5/LCD.c ****             */
 685:.\Generated_Source\PSoC5/LCD.c ****             number[digIndex] = (char8) tmpDigit;
 1079              		.loc 1 685 0
 1080 003c FB7D     		ldrb	r3, [r7, #23]	@ zero_extendqisi2
ARM GAS  C:\Users\LUKASC~1\AppData\Local\Temp\ccCq3L3f.s 			page 32


 1081 003e 07F11802 		add	r2, r7, #24
 1082 0042 1344     		add	r3, r3, r2
 1083 0044 BA7D     		ldrb	r2, [r7, #22]
 1084 0046 03F8102C 		strb	r2, [r3, #-16]
 686:.\Generated_Source\PSoC5/LCD.c ****             value /= LCD_TEN;
 1085              		.loc 1 686 0
 1086 004a 7B68     		ldr	r3, [r7, #4]
 1087 004c 144A     		ldr	r2, .L51
 1088 004e A2FB0323 		umull	r2, r3, r2, r3
 1089 0052 DB08     		lsrs	r3, r3, #3
 1090 0054 7B60     		str	r3, [r7, #4]
 687:.\Generated_Source\PSoC5/LCD.c ****             digIndex--;
 1091              		.loc 1 687 0
 1092 0056 FB7D     		ldrb	r3, [r7, #23]	@ zero_extendqisi2
 1093 0058 013B     		subs	r3, r3, #1
 1094 005a FB75     		strb	r3, [r7, #23]
 1095              	.L49:
 675:.\Generated_Source\PSoC5/LCD.c ****         {
 1096              		.loc 1 675 0
 1097 005c 7B68     		ldr	r3, [r7, #4]
 1098 005e 092B     		cmp	r3, #9
 1099 0060 DFD8     		bhi	.L50
 688:.\Generated_Source\PSoC5/LCD.c ****         }
 689:.\Generated_Source\PSoC5/LCD.c ****         
 690:.\Generated_Source\PSoC5/LCD.c ****         /* Extract last decimal digit 'digIndex', from the 'value' and convert it
 691:.\Generated_Source\PSoC5/LCD.c ****         * to ASCII character.
 692:.\Generated_Source\PSoC5/LCD.c ****         */
 693:.\Generated_Source\PSoC5/LCD.c ****         tmpDigit = (uint8) (((uint8)(value % LCD_TEN)) + (uint8) LCD_ZERO_CHAR_ASCII);
 1100              		.loc 1 693 0
 1101 0062 7968     		ldr	r1, [r7, #4]
 1102 0064 0E4B     		ldr	r3, .L51
 1103 0066 A3FB0123 		umull	r2, r3, r3, r1
 1104 006a DA08     		lsrs	r2, r3, #3
 1105 006c 1346     		mov	r3, r2
 1106 006e 9B00     		lsls	r3, r3, #2
 1107 0070 1344     		add	r3, r3, r2
 1108 0072 5B00     		lsls	r3, r3, #1
 1109 0074 CA1A     		subs	r2, r1, r3
 1110 0076 D3B2     		uxtb	r3, r2
 1111 0078 3033     		adds	r3, r3, #48
 1112 007a BB75     		strb	r3, [r7, #22]
 694:.\Generated_Source\PSoC5/LCD.c ****         number[digIndex] = (char8) tmpDigit;
 1113              		.loc 1 694 0
 1114 007c FB7D     		ldrb	r3, [r7, #23]	@ zero_extendqisi2
 1115 007e 07F11802 		add	r2, r7, #24
 1116 0082 1344     		add	r3, r3, r2
 1117 0084 BA7D     		ldrb	r2, [r7, #22]
 1118 0086 03F8102C 		strb	r2, [r3, #-16]
 695:.\Generated_Source\PSoC5/LCD.c **** 
 696:.\Generated_Source\PSoC5/LCD.c ****         /* Print out number */
 697:.\Generated_Source\PSoC5/LCD.c ****         LCD_PrintString(&number[digIndex]);
 1119              		.loc 1 697 0
 1120 008a FB7D     		ldrb	r3, [r7, #23]	@ zero_extendqisi2
 1121 008c 07F10802 		add	r2, r7, #8
 1122 0090 1344     		add	r3, r3, r2
 1123 0092 1846     		mov	r0, r3
 1124 0094 FFF7FEFF 		bl	LCD_PrintString
ARM GAS  C:\Users\LUKASC~1\AppData\Local\Temp\ccCq3L3f.s 			page 33


 698:.\Generated_Source\PSoC5/LCD.c ****     }
 1125              		.loc 1 698 0
 1126 0098 1837     		adds	r7, r7, #24
 1127              		.cfi_def_cfa_offset 8
 1128 009a BD46     		mov	sp, r7
 1129              		.cfi_def_cfa_register 13
 1130              		@ sp needed
 1131 009c 80BD     		pop	{r7, pc}
 1132              	.L52:
 1133 009e 00BF     		.align	2
 1134              	.L51:
 1135 00a0 CDCCCCCC 		.word	-858993459
 1136              		.cfi_endproc
 1137              	.LFE15:
 1138              		.size	LCD_PrintU32Number, .-LCD_PrintU32Number
 1139              		.section	.rodata
 1140              		.align	2
 1141              		.type	LCD_hex.4917, %object
 1142              		.size	LCD_hex.4917, 16
 1143              	LCD_hex.4917:
 1144 0000 30313233 		.ascii	"0123456789ABCDEF"
 1144      34353637 
 1144      38394142 
 1144      43444546 
 1145              		.text
 1146              	.Letext0:
 1147              		.file 2 ".\\Generated_Source\\PSoC5\\cytypes.h"
 1148              		.file 3 ".\\Generated_Source\\PSoC5\\LCD.h"