ARM GAS  C:\Users\LUKASC~1\AppData\Local\Temp\ccvPKFt2.s 			page 1


   1              		.syntax unified
   2              		.cpu cortex-m3
   3              		.fpu softvfp
   4              		.eabi_attribute 20, 1
   5              		.eabi_attribute 21, 1
   6              		.eabi_attribute 23, 3
   7              		.eabi_attribute 24, 1
   8              		.eabi_attribute 25, 1
   9              		.eabi_attribute 26, 1
  10              		.eabi_attribute 30, 6
  11              		.eabi_attribute 34, 1
  12              		.eabi_attribute 18, 4
  13              		.thumb
  14              		.file	"LCD_BarGraph.c"
  15              		.text
  16              	.Ltext0:
  17              		.cfi_sections	.debug_frame
  18              		.global	LCD_customFonts
  19              		.section	.rodata
  20              		.align	2
  21              		.type	LCD_customFonts, %object
  22              		.size	LCD_customFonts, 64
  23              	LCD_customFonts:
  24 0000 00       		.byte	0
  25 0001 00       		.byte	0
  26 0002 00       		.byte	0
  27 0003 00       		.byte	0
  28 0004 00       		.byte	0
  29 0005 00       		.byte	0
  30 0006 00       		.byte	0
  31 0007 00       		.byte	0
  32 0008 10       		.byte	16
  33 0009 10       		.byte	16
  34 000a 10       		.byte	16
  35 000b 10       		.byte	16
  36 000c 10       		.byte	16
  37 000d 10       		.byte	16
  38 000e 10       		.byte	16
  39 000f 10       		.byte	16
  40 0010 18       		.byte	24
  41 0011 18       		.byte	24
  42 0012 18       		.byte	24
  43 0013 18       		.byte	24
  44 0014 18       		.byte	24
  45 0015 18       		.byte	24
  46 0016 18       		.byte	24
  47 0017 18       		.byte	24
  48 0018 1C       		.byte	28
  49 0019 1C       		.byte	28
  50 001a 1C       		.byte	28
  51 001b 1C       		.byte	28
  52 001c 1C       		.byte	28
  53 001d 1C       		.byte	28
  54 001e 1C       		.byte	28
  55 001f 1C       		.byte	28
  56 0020 1E       		.byte	30
  57 0021 1E       		.byte	30
ARM GAS  C:\Users\LUKASC~1\AppData\Local\Temp\ccvPKFt2.s 			page 2


  58 0022 1E       		.byte	30
  59 0023 1E       		.byte	30
  60 0024 1E       		.byte	30
  61 0025 1E       		.byte	30
  62 0026 1E       		.byte	30
  63 0027 1E       		.byte	30
  64 0028 1F       		.byte	31
  65 0029 1F       		.byte	31
  66 002a 1F       		.byte	31
  67 002b 1F       		.byte	31
  68 002c 1F       		.byte	31
  69 002d 1F       		.byte	31
  70 002e 1F       		.byte	31
  71 002f 1F       		.byte	31
  72 0030 00       		.byte	0
  73 0031 00       		.byte	0
  74 0032 00       		.byte	0
  75 0033 00       		.byte	0
  76 0034 00       		.byte	0
  77 0035 00       		.byte	0
  78 0036 00       		.byte	0
  79 0037 00       		.byte	0
  80 0038 00       		.byte	0
  81 0039 00       		.byte	0
  82 003a 00       		.byte	0
  83 003b 00       		.byte	0
  84 003c 00       		.byte	0
  85 003d 00       		.byte	0
  86 003e 00       		.byte	0
  87 003f 00       		.byte	0
  88              		.section	.text.LCD_LoadCustomFonts,"ax",%progbits
  89              		.align	2
  90              		.global	LCD_LoadCustomFonts
  91              		.thumb
  92              		.thumb_func
  93              		.type	LCD_LoadCustomFonts, %function
  94              	LCD_LoadCustomFonts:
  95              	.LFB0:
  96              		.file 1 ".\\Generated_Source\\PSoC5\\LCD_BarGraph.c"
   1:.\Generated_Source\PSoC5/LCD_BarGraph.c **** /*******************************************************************************
   2:.\Generated_Source\PSoC5/LCD_BarGraph.c **** * File Name: LCD_BarGraph.c
   3:.\Generated_Source\PSoC5/LCD_BarGraph.c **** * Version 2.20
   4:.\Generated_Source\PSoC5/LCD_BarGraph.c **** *
   5:.\Generated_Source\PSoC5/LCD_BarGraph.c **** * Description:
   6:.\Generated_Source\PSoC5/LCD_BarGraph.c **** *  This file provides the custom character data and API for creating and using
   7:.\Generated_Source\PSoC5/LCD_BarGraph.c **** *  bar graphs with the Character LCD component.
   8:.\Generated_Source\PSoC5/LCD_BarGraph.c **** *
   9:.\Generated_Source\PSoC5/LCD_BarGraph.c **** * Note:
  10:.\Generated_Source\PSoC5/LCD_BarGraph.c **** *
  11:.\Generated_Source\PSoC5/LCD_BarGraph.c **** ********************************************************************************
  12:.\Generated_Source\PSoC5/LCD_BarGraph.c **** * Copyright 2008-2014, Cypress Semiconductor Corporation.  All rights reserved.
  13:.\Generated_Source\PSoC5/LCD_BarGraph.c **** * You may use this file only in accordance with the license, terms, conditions,
  14:.\Generated_Source\PSoC5/LCD_BarGraph.c **** * disclaimers, and limitations in the end user license agreement accompanying
  15:.\Generated_Source\PSoC5/LCD_BarGraph.c **** * the software package with which this file was provided.
  16:.\Generated_Source\PSoC5/LCD_BarGraph.c **** *******************************************************************************/
  17:.\Generated_Source\PSoC5/LCD_BarGraph.c **** 
  18:.\Generated_Source\PSoC5/LCD_BarGraph.c **** #include "LCD.h"
ARM GAS  C:\Users\LUKASC~1\AppData\Local\Temp\ccvPKFt2.s 			page 3


  19:.\Generated_Source\PSoC5/LCD_BarGraph.c **** 
  20:.\Generated_Source\PSoC5/LCD_BarGraph.c **** 
  21:.\Generated_Source\PSoC5/LCD_BarGraph.c **** uint8 const CYCODE LCD_customFonts[] = \
  22:.\Generated_Source\PSoC5/LCD_BarGraph.c **** {
  23:.\Generated_Source\PSoC5/LCD_BarGraph.c ****     /* Character LCD_CUSTOM_0   */
  24:.\Generated_Source\PSoC5/LCD_BarGraph.c ****     0x00u,    0x00u,    0x00u,    0x00u,    0x00u,    0x00u,    0x00u,    0x00u, \
  25:.\Generated_Source\PSoC5/LCD_BarGraph.c ****     /* Character LCD_CUSTOM_1   */
  26:.\Generated_Source\PSoC5/LCD_BarGraph.c ****     0x10u,    0x10u,    0x10u,    0x10u,    0x10u,    0x10u,    0x10u,    0x10u, \
  27:.\Generated_Source\PSoC5/LCD_BarGraph.c ****     /* Character LCD_CUSTOM_2   */
  28:.\Generated_Source\PSoC5/LCD_BarGraph.c ****     0x18u,    0x18u,    0x18u,    0x18u,    0x18u,    0x18u,    0x18u,    0x18u, \
  29:.\Generated_Source\PSoC5/LCD_BarGraph.c ****     /* Character LCD_CUSTOM_3   */
  30:.\Generated_Source\PSoC5/LCD_BarGraph.c ****     0x1Cu,    0x1Cu,    0x1Cu,    0x1Cu,    0x1Cu,    0x1Cu,    0x1Cu,    0x1Cu, \
  31:.\Generated_Source\PSoC5/LCD_BarGraph.c ****     /* Character LCD_CUSTOM_4   */
  32:.\Generated_Source\PSoC5/LCD_BarGraph.c ****     0x1Eu,    0x1Eu,    0x1Eu,    0x1Eu,    0x1Eu,    0x1Eu,    0x1Eu,    0x1Eu, \
  33:.\Generated_Source\PSoC5/LCD_BarGraph.c ****     /* Character LCD_CUSTOM_5   */
  34:.\Generated_Source\PSoC5/LCD_BarGraph.c ****     0x1Fu,    0x1Fu,    0x1Fu,    0x1Fu,    0x1Fu,    0x1Fu,    0x1Fu,    0x1Fu, \
  35:.\Generated_Source\PSoC5/LCD_BarGraph.c ****     /* Character LCD_CUSTOM_6   */
  36:.\Generated_Source\PSoC5/LCD_BarGraph.c ****     0x00u,    0x00u,    0x00u,    0x00u,    0x00u,    0x00u,    0x00u,    0x00u, \
  37:.\Generated_Source\PSoC5/LCD_BarGraph.c ****     /* Character LCD_CUSTOM_7   */
  38:.\Generated_Source\PSoC5/LCD_BarGraph.c ****     0x00u,    0x00u,    0x00u,    0x00u,    0x00u,    0x00u,    0x00u,    0x00u \
  39:.\Generated_Source\PSoC5/LCD_BarGraph.c **** };
  40:.\Generated_Source\PSoC5/LCD_BarGraph.c **** 
  41:.\Generated_Source\PSoC5/LCD_BarGraph.c **** 
  42:.\Generated_Source\PSoC5/LCD_BarGraph.c **** /*******************************************************************************
  43:.\Generated_Source\PSoC5/LCD_BarGraph.c **** * Function Name: LCD_LoadCustomFonts
  44:.\Generated_Source\PSoC5/LCD_BarGraph.c **** ********************************************************************************
  45:.\Generated_Source\PSoC5/LCD_BarGraph.c **** *
  46:.\Generated_Source\PSoC5/LCD_BarGraph.c **** * Summary:
  47:.\Generated_Source\PSoC5/LCD_BarGraph.c **** *  Loads 8 custom font characters into the LCD Module for use.  Cannot use
  48:.\Generated_Source\PSoC5/LCD_BarGraph.c **** *  characters from two different font sets at once, but font sets can be
  49:.\Generated_Source\PSoC5/LCD_BarGraph.c **** *  switched out during runtime.
  50:.\Generated_Source\PSoC5/LCD_BarGraph.c **** *
  51:.\Generated_Source\PSoC5/LCD_BarGraph.c **** * Parameters:
  52:.\Generated_Source\PSoC5/LCD_BarGraph.c **** *  customData:  pointer to a constant array of 64 bytes representing 8 custom
  53:.\Generated_Source\PSoC5/LCD_BarGraph.c **** *               font characters.
  54:.\Generated_Source\PSoC5/LCD_BarGraph.c **** * Return:
  55:.\Generated_Source\PSoC5/LCD_BarGraph.c **** *  None.
  56:.\Generated_Source\PSoC5/LCD_BarGraph.c **** *
  57:.\Generated_Source\PSoC5/LCD_BarGraph.c **** * Theory:
  58:.\Generated_Source\PSoC5/LCD_BarGraph.c **** *  Prior to using this function user need to import the pointer to custom
  59:.\Generated_Source\PSoC5/LCD_BarGraph.c **** *  font array to your project by writting the following in the source code file
  60:.\Generated_Source\PSoC5/LCD_BarGraph.c **** *  where custom font will be used:
  61:.\Generated_Source\PSoC5/LCD_BarGraph.c **** *       extern uint8 const CYCODE LCD_Char_customFonts[];
  62:.\Generated_Source\PSoC5/LCD_BarGraph.c **** *  This function is not automatically called by the Start() routine and must be
  63:.\Generated_Source\PSoC5/LCD_BarGraph.c **** *  called manually by the user.
  64:.\Generated_Source\PSoC5/LCD_BarGraph.c **** *******************************************************************************/
  65:.\Generated_Source\PSoC5/LCD_BarGraph.c **** void LCD_LoadCustomFonts(uint8 const customData[]) 
  66:.\Generated_Source\PSoC5/LCD_BarGraph.c **** {
  97              		.loc 1 66 0
  98              		.cfi_startproc
  99              		@ args = 0, pretend = 0, frame = 16
 100              		@ frame_needed = 1, uses_anonymous_args = 0
 101 0000 80B5     		push	{r7, lr}
 102              		.cfi_def_cfa_offset 8
 103              		.cfi_offset 7, -8
 104              		.cfi_offset 14, -4
 105 0002 84B0     		sub	sp, sp, #16
ARM GAS  C:\Users\LUKASC~1\AppData\Local\Temp\ccvPKFt2.s 			page 4


 106              		.cfi_def_cfa_offset 24
 107 0004 00AF     		add	r7, sp, #0
 108              		.cfi_def_cfa_register 7
 109 0006 7860     		str	r0, [r7, #4]
  67:.\Generated_Source\PSoC5/LCD_BarGraph.c ****     uint8 indexU8;
  68:.\Generated_Source\PSoC5/LCD_BarGraph.c **** 
  69:.\Generated_Source\PSoC5/LCD_BarGraph.c ****     LCD_IsReady();
 110              		.loc 1 69 0
 111 0008 FFF7FEFF 		bl	LCD_IsReady
  70:.\Generated_Source\PSoC5/LCD_BarGraph.c ****     /* Set starting address in the LCD Module */
  71:.\Generated_Source\PSoC5/LCD_BarGraph.c ****     /* Optionally: Read the current address to restore at a later time */
  72:.\Generated_Source\PSoC5/LCD_BarGraph.c ****     LCD_WriteControl(LCD_CGRAM_0);
 112              		.loc 1 72 0
 113 000c 4020     		movs	r0, #64
 114 000e FFF7FEFF 		bl	LCD_WriteControl
  73:.\Generated_Source\PSoC5/LCD_BarGraph.c **** 
  74:.\Generated_Source\PSoC5/LCD_BarGraph.c ****     /* Load in the 64 bytes of CustomChar Data */
  75:.\Generated_Source\PSoC5/LCD_BarGraph.c ****     for(indexU8 = 0u; indexU8 < LCD_CUSTOM_CHAR_SET_LEN; indexU8++)
 115              		.loc 1 75 0
 116 0012 0023     		movs	r3, #0
 117 0014 FB73     		strb	r3, [r7, #15]
 118 0016 09E0     		b	.L2
 119              	.L3:
  76:.\Generated_Source\PSoC5/LCD_BarGraph.c ****     {
  77:.\Generated_Source\PSoC5/LCD_BarGraph.c ****         /* Delay between each write */
  78:.\Generated_Source\PSoC5/LCD_BarGraph.c ****         LCD_WriteData(customData[indexU8]);
 120              		.loc 1 78 0 discriminator 3
 121 0018 FB7B     		ldrb	r3, [r7, #15]	@ zero_extendqisi2
 122 001a 7A68     		ldr	r2, [r7, #4]
 123 001c 1344     		add	r3, r3, r2
 124 001e 1B78     		ldrb	r3, [r3]	@ zero_extendqisi2
 125 0020 1846     		mov	r0, r3
 126 0022 FFF7FEFF 		bl	LCD_WriteData
  75:.\Generated_Source\PSoC5/LCD_BarGraph.c ****     {
 127              		.loc 1 75 0 discriminator 3
 128 0026 FB7B     		ldrb	r3, [r7, #15]	@ zero_extendqisi2
 129 0028 0133     		adds	r3, r3, #1
 130 002a FB73     		strb	r3, [r7, #15]
 131              	.L2:
  75:.\Generated_Source\PSoC5/LCD_BarGraph.c ****     {
 132              		.loc 1 75 0 is_stmt 0 discriminator 1
 133 002c FB7B     		ldrb	r3, [r7, #15]	@ zero_extendqisi2
 134 002e 3F2B     		cmp	r3, #63
 135 0030 F2D9     		bls	.L3
  79:.\Generated_Source\PSoC5/LCD_BarGraph.c ****     }
  80:.\Generated_Source\PSoC5/LCD_BarGraph.c **** 
  81:.\Generated_Source\PSoC5/LCD_BarGraph.c ****     LCD_IsReady();
 136              		.loc 1 81 0 is_stmt 1
 137 0032 FFF7FEFF 		bl	LCD_IsReady
  82:.\Generated_Source\PSoC5/LCD_BarGraph.c ****     LCD_WriteControl(LCD_DDRAM_0);
 138              		.loc 1 82 0
 139 0036 8020     		movs	r0, #128
 140 0038 FFF7FEFF 		bl	LCD_WriteControl
  83:.\Generated_Source\PSoC5/LCD_BarGraph.c **** }
 141              		.loc 1 83 0
 142 003c 1037     		adds	r7, r7, #16
 143              		.cfi_def_cfa_offset 8
ARM GAS  C:\Users\LUKASC~1\AppData\Local\Temp\ccvPKFt2.s 			page 5


 144 003e BD46     		mov	sp, r7
 145              		.cfi_def_cfa_register 13
 146              		@ sp needed
 147 0040 80BD     		pop	{r7, pc}
 148              		.cfi_endproc
 149              	.LFE0:
 150              		.size	LCD_LoadCustomFonts, .-LCD_LoadCustomFonts
 151 0042 00BF     		.section	.text.LCD_DrawHorizontalBG,"ax",%progbits
 152              		.align	2
 153              		.global	LCD_DrawHorizontalBG
 154              		.thumb
 155              		.thumb_func
 156              		.type	LCD_DrawHorizontalBG, %function
 157              	LCD_DrawHorizontalBG:
 158              	.LFB1:
  84:.\Generated_Source\PSoC5/LCD_BarGraph.c **** 
  85:.\Generated_Source\PSoC5/LCD_BarGraph.c **** 
  86:.\Generated_Source\PSoC5/LCD_BarGraph.c **** #if (LCD_CUSTOM_CHAR_SET == LCD_HORIZONTAL_BG)
  87:.\Generated_Source\PSoC5/LCD_BarGraph.c **** 
  88:.\Generated_Source\PSoC5/LCD_BarGraph.c ****     /*******************************************************************************
  89:.\Generated_Source\PSoC5/LCD_BarGraph.c ****     * Function Name: LCD_DrawHorizontalBG
  90:.\Generated_Source\PSoC5/LCD_BarGraph.c ****     ********************************************************************************
  91:.\Generated_Source\PSoC5/LCD_BarGraph.c ****     *
  92:.\Generated_Source\PSoC5/LCD_BarGraph.c ****     * Summary:
  93:.\Generated_Source\PSoC5/LCD_BarGraph.c ****     *  Draws the horizontal bargraph.
  94:.\Generated_Source\PSoC5/LCD_BarGraph.c ****     *
  95:.\Generated_Source\PSoC5/LCD_BarGraph.c ****     * Parameters:
  96:.\Generated_Source\PSoC5/LCD_BarGraph.c ****     *  row:            The row in which the bar graph starts.
  97:.\Generated_Source\PSoC5/LCD_BarGraph.c ****     *  column:         The column in which the bar graph starts.
  98:.\Generated_Source\PSoC5/LCD_BarGraph.c ****     *  maxCharacters:  The max length of the graph in whole characters.
  99:.\Generated_Source\PSoC5/LCD_BarGraph.c ****     *  value:          The current length or height of the graph in pixels.
 100:.\Generated_Source\PSoC5/LCD_BarGraph.c ****     *
 101:.\Generated_Source\PSoC5/LCD_BarGraph.c ****     * Return:
 102:.\Generated_Source\PSoC5/LCD_BarGraph.c ****     *  void.
 103:.\Generated_Source\PSoC5/LCD_BarGraph.c ****     *
 104:.\Generated_Source\PSoC5/LCD_BarGraph.c ****     *******************************************************************************/
 105:.\Generated_Source\PSoC5/LCD_BarGraph.c ****     void LCD_DrawHorizontalBG(uint8 row, uint8 column, uint8 maxCharacters, uint8 value) \
 106:.\Generated_Source\PSoC5/LCD_BarGraph.c ****                                                             
 107:.\Generated_Source\PSoC5/LCD_BarGraph.c ****     {
 159              		.loc 1 107 0
 160              		.cfi_startproc
 161              		@ args = 0, pretend = 0, frame = 16
 162              		@ frame_needed = 1, uses_anonymous_args = 0
 163 0000 90B5     		push	{r4, r7, lr}
 164              		.cfi_def_cfa_offset 12
 165              		.cfi_offset 4, -12
 166              		.cfi_offset 7, -8
 167              		.cfi_offset 14, -4
 168 0002 85B0     		sub	sp, sp, #20
 169              		.cfi_def_cfa_offset 32
 170 0004 00AF     		add	r7, sp, #0
 171              		.cfi_def_cfa_register 7
 172 0006 0446     		mov	r4, r0
 173 0008 0846     		mov	r0, r1
 174 000a 1146     		mov	r1, r2
 175 000c 1A46     		mov	r2, r3
 176 000e 2346     		mov	r3, r4
ARM GAS  C:\Users\LUKASC~1\AppData\Local\Temp\ccvPKFt2.s 			page 6


 177 0010 FB71     		strb	r3, [r7, #7]
 178 0012 0346     		mov	r3, r0
 179 0014 BB71     		strb	r3, [r7, #6]
 180 0016 0B46     		mov	r3, r1
 181 0018 7B71     		strb	r3, [r7, #5]
 182 001a 1346     		mov	r3, r2
 183 001c 3B71     		strb	r3, [r7, #4]
 108:.\Generated_Source\PSoC5/LCD_BarGraph.c ****         /* 8-bit Counter */
 109:.\Generated_Source\PSoC5/LCD_BarGraph.c ****         uint8 count8;
 110:.\Generated_Source\PSoC5/LCD_BarGraph.c ****         uint8 fullChars;
 111:.\Generated_Source\PSoC5/LCD_BarGraph.c ****         uint8 remainingPixels;
 112:.\Generated_Source\PSoC5/LCD_BarGraph.c **** 
 113:.\Generated_Source\PSoC5/LCD_BarGraph.c ****         /* Number of full characters to draw */
 114:.\Generated_Source\PSoC5/LCD_BarGraph.c ****         fullChars = value / LCD_CHARACTER_WIDTH;
 184              		.loc 1 114 0
 185 001e 3B79     		ldrb	r3, [r7, #4]	@ zero_extendqisi2
 186 0020 234A     		ldr	r2, .L11
 187 0022 A2FB0323 		umull	r2, r3, r2, r3
 188 0026 9B08     		lsrs	r3, r3, #2
 189 0028 BB73     		strb	r3, [r7, #14]
 115:.\Generated_Source\PSoC5/LCD_BarGraph.c **** 
 116:.\Generated_Source\PSoC5/LCD_BarGraph.c ****         /* Number of remaining pixels to draw */
 117:.\Generated_Source\PSoC5/LCD_BarGraph.c ****         remainingPixels = value % LCD_CHARACTER_WIDTH;
 190              		.loc 1 117 0
 191 002a 3A79     		ldrb	r2, [r7, #4]	@ zero_extendqisi2
 192 002c 204B     		ldr	r3, .L11
 193 002e A3FB0213 		umull	r1, r3, r3, r2
 194 0032 9908     		lsrs	r1, r3, #2
 195 0034 0B46     		mov	r3, r1
 196 0036 9B00     		lsls	r3, r3, #2
 197 0038 0B44     		add	r3, r3, r1
 198 003a D31A     		subs	r3, r2, r3
 199 003c 7B73     		strb	r3, [r7, #13]
 118:.\Generated_Source\PSoC5/LCD_BarGraph.c **** 
 119:.\Generated_Source\PSoC5/LCD_BarGraph.c ****         /* Ensure that the maximum character limit is followed. */
 120:.\Generated_Source\PSoC5/LCD_BarGraph.c ****         if(fullChars >= maxCharacters)
 200              		.loc 1 120 0
 201 003e BA7B     		ldrb	r2, [r7, #14]	@ zero_extendqisi2
 202 0040 7B79     		ldrb	r3, [r7, #5]	@ zero_extendqisi2
 203 0042 9A42     		cmp	r2, r3
 204 0044 01D3     		bcc	.L5
 121:.\Generated_Source\PSoC5/LCD_BarGraph.c ****         {
 122:.\Generated_Source\PSoC5/LCD_BarGraph.c ****             fullChars = maxCharacters;
 205              		.loc 1 122 0
 206 0046 7B79     		ldrb	r3, [r7, #5]
 207 0048 BB73     		strb	r3, [r7, #14]
 208              	.L5:
 123:.\Generated_Source\PSoC5/LCD_BarGraph.c ****         }
 124:.\Generated_Source\PSoC5/LCD_BarGraph.c **** 
 125:.\Generated_Source\PSoC5/LCD_BarGraph.c ****         /* Put Cursor at start position */
 126:.\Generated_Source\PSoC5/LCD_BarGraph.c ****         LCD_Position(row, column);
 209              		.loc 1 126 0
 210 004a FA79     		ldrb	r2, [r7, #7]	@ zero_extendqisi2
 211 004c BB79     		ldrb	r3, [r7, #6]	@ zero_extendqisi2
 212 004e 1046     		mov	r0, r2
 213 0050 1946     		mov	r1, r3
 214 0052 FFF7FEFF 		bl	LCD_Position
ARM GAS  C:\Users\LUKASC~1\AppData\Local\Temp\ccvPKFt2.s 			page 7


 127:.\Generated_Source\PSoC5/LCD_BarGraph.c **** 
 128:.\Generated_Source\PSoC5/LCD_BarGraph.c ****         /* Write full characters */
 129:.\Generated_Source\PSoC5/LCD_BarGraph.c ****         for(count8 = 0u; count8 < fullChars; count8++)
 215              		.loc 1 129 0
 216 0056 0023     		movs	r3, #0
 217 0058 FB73     		strb	r3, [r7, #15]
 218 005a 05E0     		b	.L6
 219              	.L7:
 130:.\Generated_Source\PSoC5/LCD_BarGraph.c ****         {
 131:.\Generated_Source\PSoC5/LCD_BarGraph.c ****             LCD_WriteData(LCD_CUSTOM_5);
 220              		.loc 1 131 0 discriminator 3
 221 005c 0520     		movs	r0, #5
 222 005e FFF7FEFF 		bl	LCD_WriteData
 129:.\Generated_Source\PSoC5/LCD_BarGraph.c ****         {
 223              		.loc 1 129 0 discriminator 3
 224 0062 FB7B     		ldrb	r3, [r7, #15]	@ zero_extendqisi2
 225 0064 0133     		adds	r3, r3, #1
 226 0066 FB73     		strb	r3, [r7, #15]
 227              	.L6:
 129:.\Generated_Source\PSoC5/LCD_BarGraph.c ****         {
 228              		.loc 1 129 0 is_stmt 0 discriminator 1
 229 0068 FA7B     		ldrb	r2, [r7, #15]	@ zero_extendqisi2
 230 006a BB7B     		ldrb	r3, [r7, #14]	@ zero_extendqisi2
 231 006c 9A42     		cmp	r2, r3
 232 006e F5D3     		bcc	.L7
 132:.\Generated_Source\PSoC5/LCD_BarGraph.c ****         }
 133:.\Generated_Source\PSoC5/LCD_BarGraph.c **** 
 134:.\Generated_Source\PSoC5/LCD_BarGraph.c ****         if(fullChars < maxCharacters)
 233              		.loc 1 134 0 is_stmt 1
 234 0070 BA7B     		ldrb	r2, [r7, #14]	@ zero_extendqisi2
 235 0072 7B79     		ldrb	r3, [r7, #5]	@ zero_extendqisi2
 236 0074 9A42     		cmp	r2, r3
 237 0076 18D2     		bcs	.L4
 135:.\Generated_Source\PSoC5/LCD_BarGraph.c ****         {
 136:.\Generated_Source\PSoC5/LCD_BarGraph.c ****             /* Write remaining pixels */
 137:.\Generated_Source\PSoC5/LCD_BarGraph.c ****             LCD_WriteData(remainingPixels);
 238              		.loc 1 137 0
 239 0078 7B7B     		ldrb	r3, [r7, #13]	@ zero_extendqisi2
 240 007a 1846     		mov	r0, r3
 241 007c FFF7FEFF 		bl	LCD_WriteData
 138:.\Generated_Source\PSoC5/LCD_BarGraph.c **** 
 139:.\Generated_Source\PSoC5/LCD_BarGraph.c ****             if(fullChars < (maxCharacters - 1u))
 242              		.loc 1 139 0
 243 0080 BA7B     		ldrb	r2, [r7, #14]	@ zero_extendqisi2
 244 0082 7B79     		ldrb	r3, [r7, #5]	@ zero_extendqisi2
 245 0084 013B     		subs	r3, r3, #1
 246 0086 9A42     		cmp	r2, r3
 247 0088 0FD2     		bcs	.L4
 140:.\Generated_Source\PSoC5/LCD_BarGraph.c ****             {
 141:.\Generated_Source\PSoC5/LCD_BarGraph.c ****                 /* Fill with whitespace to end of bar graph */
 142:.\Generated_Source\PSoC5/LCD_BarGraph.c ****                 for(count8 = 0u; count8 < (maxCharacters - fullChars - 1u); count8++)
 248              		.loc 1 142 0
 249 008a 0023     		movs	r3, #0
 250 008c FB73     		strb	r3, [r7, #15]
 251 008e 05E0     		b	.L9
 252              	.L10:
 143:.\Generated_Source\PSoC5/LCD_BarGraph.c ****                 {
ARM GAS  C:\Users\LUKASC~1\AppData\Local\Temp\ccvPKFt2.s 			page 8


 144:.\Generated_Source\PSoC5/LCD_BarGraph.c ****                     LCD_WriteData(LCD_CUSTOM_0);
 253              		.loc 1 144 0 discriminator 3
 254 0090 0020     		movs	r0, #0
 255 0092 FFF7FEFF 		bl	LCD_WriteData
 142:.\Generated_Source\PSoC5/LCD_BarGraph.c ****                 {
 256              		.loc 1 142 0 discriminator 3
 257 0096 FB7B     		ldrb	r3, [r7, #15]	@ zero_extendqisi2
 258 0098 0133     		adds	r3, r3, #1
 259 009a FB73     		strb	r3, [r7, #15]
 260              	.L9:
 142:.\Generated_Source\PSoC5/LCD_BarGraph.c ****                 {
 261              		.loc 1 142 0 is_stmt 0 discriminator 1
 262 009c FA7B     		ldrb	r2, [r7, #15]	@ zero_extendqisi2
 263 009e 7979     		ldrb	r1, [r7, #5]	@ zero_extendqisi2
 264 00a0 BB7B     		ldrb	r3, [r7, #14]	@ zero_extendqisi2
 265 00a2 CB1A     		subs	r3, r1, r3
 266 00a4 013B     		subs	r3, r3, #1
 267 00a6 9A42     		cmp	r2, r3
 268 00a8 F2D3     		bcc	.L10
 269              	.L4:
 145:.\Generated_Source\PSoC5/LCD_BarGraph.c ****                 }
 146:.\Generated_Source\PSoC5/LCD_BarGraph.c ****             }
 147:.\Generated_Source\PSoC5/LCD_BarGraph.c ****         }
 148:.\Generated_Source\PSoC5/LCD_BarGraph.c ****     }
 270              		.loc 1 148 0 is_stmt 1
 271 00aa 1437     		adds	r7, r7, #20
 272              		.cfi_def_cfa_offset 12
 273 00ac BD46     		mov	sp, r7
 274              		.cfi_def_cfa_register 13
 275              		@ sp needed
 276 00ae 90BD     		pop	{r4, r7, pc}
 277              	.L12:
 278              		.align	2
 279              	.L11:
 280 00b0 CDCCCCCC 		.word	-858993459
 281              		.cfi_endproc
 282              	.LFE1:
 283              		.size	LCD_DrawHorizontalBG, .-LCD_DrawHorizontalBG
 284              		.text
 285              	.Letext0:
 286              		.file 2 ".\\Generated_Source\\PSoC5\\cytypes.h"