ARM GAS  C:\Users\LUKASC~1\AppData\Local\Temp\cchoAV1U.s 			page 1


   1              		.syntax unified
   2              		.cpu cortex-m3
   3              		.fpu softvfp
   4              		.eabi_attribute 20, 1
   5              		.eabi_attribute 21, 1
   6              		.eabi_attribute 23, 3
   7              		.eabi_attribute 24, 1
   8              		.eabi_attribute 25, 1
   9              		.eabi_attribute 26, 1
  10              		.eabi_attribute 30, 6
  11              		.eabi_attribute 34, 1
  12              		.eabi_attribute 18, 4
  13              		.thumb
  14              		.file	"main.c"
  15              		.text
  16              	.Ltext0:
  17              		.cfi_sections	.debug_frame
  18              		.comm	curPos,2,2
  19              		.comm	oldPos,2,2
  20              		.section	.text.main,"ax",%progbits
  21              		.align	2
  22              		.global	main
  23              		.thumb
  24              		.thumb_func
  25              		.type	main, %function
  26              	main:
  27              	.LFB63:
  28              		.file 1 ".\\main.c"
   1:.\main.c      **** /*******************************************************************************
   2:.\main.c      **** * File Name: main.c
   3:.\main.c      **** *
   4:.\main.c      **** * Version: 2.40
   5:.\main.c      **** *
   6:.\main.c      **** * Description:
   7:.\main.c      **** *  The project explains the usage of CapSense CSD component. The 2 buttons and
   8:.\main.c      **** *  linear sliders are used as sensing elements. LED displays buttons active
   9:.\main.c      **** *  state and slider position is shown on LCD.
  10:.\main.c      **** *
  11:.\main.c      **** ********************************************************************************
  12:.\main.c      **** * Copyright 2012-2014, Cypress Semiconductor Corporation. All rights reserved.
  13:.\main.c      **** * This software is owned by Cypress Semiconductor Corporation and is protected
  14:.\main.c      **** * by and subject to worldwide patent and copyright laws and treaties.
  15:.\main.c      **** * Therefore, you may use this software only as provided in the license agreement
  16:.\main.c      **** * accompanying the software package from which you obtained this software.
  17:.\main.c      **** * CYPRESS AND ITS SUPPLIERS MAKE NO WARRANTY OF ANY KIND, EXPRESS OR IMPLIED,
  18:.\main.c      **** * WITH REGARD TO THIS SOFTWARE, INCLUDING, BUT NOT LIMITED TO, NONINFRINGEMENT,
  19:.\main.c      **** * IMPLIED WARRANTIES OF MERCHANTABILITY AND FITNESS FOR A PARTICULAR PURPOSE.
  20:.\main.c      **** *******************************************************************************/
  21:.\main.c      **** 
  22:.\main.c      **** #include <device.h>
  23:.\main.c      **** 
  24:.\main.c      **** /* Needed for Bargraph */
  25:.\main.c      **** extern uint8 const CYCODE LCD_customFonts[];
  26:.\main.c      **** 
  27:.\main.c      **** uint16 curPos, oldPos;
  28:.\main.c      **** 
  29:.\main.c      **** /*******************************************************************************
ARM GAS  C:\Users\LUKASC~1\AppData\Local\Temp\cchoAV1U.s 			page 2


  30:.\main.c      **** * Function Name: main
  31:.\main.c      **** ********************************************************************************
  32:.\main.c      **** * Summary:
  33:.\main.c      **** *  Main function performs following functions:
  34:.\main.c      **** *   1. Enable global interrupts.
  35:.\main.c      **** *   2. Initialize CapSense CSD and Start the sensor scanning loop.
  36:.\main.c      **** *   3. Process scanning results and display it on LCD/LED.
  37:.\main.c      **** *
  38:.\main.c      **** * Parameters:
  39:.\main.c      **** *  None
  40:.\main.c      **** *
  41:.\main.c      **** * Return:
  42:.\main.c      **** *  None
  43:.\main.c      **** *
  44:.\main.c      **** *******************************************************************************/
  45:.\main.c      **** int main()
  46:.\main.c      **** {
  29              		.loc 1 46 0
  30              		.cfi_startproc
  31              		@ args = 0, pretend = 0, frame = 0
  32              		@ frame_needed = 1, uses_anonymous_args = 0
  33 0000 80B5     		push	{r7, lr}
  34              		.cfi_def_cfa_offset 8
  35              		.cfi_offset 7, -8
  36              		.cfi_offset 14, -4
  37 0002 00AF     		add	r7, sp, #0
  38              		.cfi_def_cfa_register 7
  47:.\main.c      ****     /* Enable global interrupts */
  48:.\main.c      ****     CyGlobalIntEnable;
  39              		.loc 1 48 0
  40              	@ 48 ".\main.c" 1
  41 0004 62B6     		CPSIE   i
  42              	@ 0 "" 2
  49:.\main.c      **** 
  50:.\main.c      ****     /* Initialize CapSense CSD and EzI2C Start the sensor scanning loop */
  51:.\main.c      ****     CapSense_CSD_TunerStart();
  43              		.loc 1 51 0
  44              		.thumb
  45 0006 FFF7FEFF 		bl	CapSense_CSD_TunerStart
  46              	.L2:
  52:.\main.c      **** 
  53:.\main.c      ****     while(1u)
  54:.\main.c      ****     {
  55:.\main.c      ****         /* Process scanning results and communicates with Tuner GUI */
  56:.\main.c      ****         CapSense_CSD_TunerComm();
  47              		.loc 1 56 0 discriminator 1
  48 000a FFF7FEFF 		bl	CapSense_CSD_TunerComm
  57:.\main.c      ****     }
  49              		.loc 1 57 0 discriminator 1
  50 000e FCE7     		b	.L2
  51              		.cfi_endproc
  52              	.LFE63:
  53              		.size	main, .-main
  54              		.section	.text.CapSense_DisplayState,"ax",%progbits
  55              		.align	2
  56              		.global	CapSense_DisplayState
  57              		.thumb
ARM GAS  C:\Users\LUKASC~1\AppData\Local\Temp\cchoAV1U.s 			page 3


  58              		.thumb_func
  59              		.type	CapSense_DisplayState, %function
  60              	CapSense_DisplayState:
  61              	.LFB64:
  58:.\main.c      **** }
  59:.\main.c      **** 
  60:.\main.c      **** /*******************************************************************************
  61:.\main.c      **** * Function Name: CapSense_DisplayState
  62:.\main.c      **** ********************************************************************************
  63:.\main.c      **** * Summary:
  64:.\main.c      **** *  Function performs following functions:
  65:.\main.c      **** *   Display Buttons' state using LEDs and Slider state using LCD bargraph
  66:.\main.c      **** *
  67:.\main.c      **** * Parameters:
  68:.\main.c      **** *  None
  69:.\main.c      **** *
  70:.\main.c      **** * Return:
  71:.\main.c      **** *  None
  72:.\main.c      **** *
  73:.\main.c      **** *******************************************************************************/
  74:.\main.c      **** void CapSense_DisplayState(void)
  75:.\main.c      **** {
  62              		.loc 1 75 0
  63              		.cfi_startproc
  64              		@ args = 0, pretend = 0, frame = 0
  65              		@ frame_needed = 1, uses_anonymous_args = 0
  66 0000 80B5     		push	{r7, lr}
  67              		.cfi_def_cfa_offset 8
  68              		.cfi_offset 7, -8
  69              		.cfi_offset 14, -4
  70 0002 00AF     		add	r7, sp, #0
  71              		.cfi_def_cfa_register 7
  76:.\main.c      ****     /* Display BUTTON0 state */
  77:.\main.c      ****     if (CapSense_CSD_CheckIsWidgetActive(CapSense_CSD_BUTTON0__BTN))
  72              		.loc 1 77 0
  73 0004 0120     		movs	r0, #1
  74 0006 FFF7FEFF 		bl	CapSense_CSD_CheckIsWidgetActive
  75 000a 0346     		mov	r3, r0
  76 000c 002B     		cmp	r3, #0
  77 000e 03D0     		beq	.L4
  78:.\main.c      ****     {
  79:.\main.c      ****         LED1_Write(1u);
  78              		.loc 1 79 0
  79 0010 0120     		movs	r0, #1
  80 0012 FFF7FEFF 		bl	LED1_Write
  81 0016 02E0     		b	.L5
  82              	.L4:
  80:.\main.c      ****     }
  81:.\main.c      ****     else
  82:.\main.c      ****     {
  83:.\main.c      ****         LED1_Write(0u);
  83              		.loc 1 83 0
  84 0018 0020     		movs	r0, #0
  85 001a FFF7FEFF 		bl	LED1_Write
  86              	.L5:
  84:.\main.c      ****     }
  85:.\main.c      **** 
ARM GAS  C:\Users\LUKASC~1\AppData\Local\Temp\cchoAV1U.s 			page 4


  86:.\main.c      ****     /* Display BUTTON1 state */
  87:.\main.c      ****     if (CapSense_CSD_CheckIsWidgetActive(CapSense_CSD_BUTTON1__BTN))
  87              		.loc 1 87 0
  88 001e 0220     		movs	r0, #2
  89 0020 FFF7FEFF 		bl	CapSense_CSD_CheckIsWidgetActive
  90 0024 0346     		mov	r3, r0
  91 0026 002B     		cmp	r3, #0
  92 0028 03D0     		beq	.L6
  88:.\main.c      ****     {
  89:.\main.c      ****         LED2_Write(1u);
  93              		.loc 1 89 0
  94 002a 0120     		movs	r0, #1
  95 002c FFF7FEFF 		bl	LED2_Write
  96 0030 02E0     		b	.L7
  97              	.L6:
  90:.\main.c      ****     }
  91:.\main.c      ****     else
  92:.\main.c      ****     {
  93:.\main.c      ****         LED2_Write(0u);
  98              		.loc 1 93 0
  99 0032 0020     		movs	r0, #0
 100 0034 FFF7FEFF 		bl	LED2_Write
 101              	.L7:
  94:.\main.c      ****     }
  95:.\main.c      **** 
  96:.\main.c      ****     /* Find Slider Position */
  97:.\main.c      ****     curPos = CapSense_CSD_GetCentroidPos(CapSense_CSD_LINEARSLIDER0__LS);
 102              		.loc 1 97 0
 103 0038 0020     		movs	r0, #0
 104 003a FFF7FEFF 		bl	CapSense_CSD_GetCentroidPos
 105 003e 0346     		mov	r3, r0
 106 0040 1A46     		mov	r2, r3
 107 0042 164B     		ldr	r3, .L11
 108 0044 1A80     		strh	r2, [r3]	@ movhi
  98:.\main.c      **** 
  99:.\main.c      ****     /* Reset position */
 100:.\main.c      ****     if(curPos == 0xFFFFu)
 109              		.loc 1 100 0
 110 0046 154B     		ldr	r3, .L11
 111 0048 1B88     		ldrh	r3, [r3]
 112 004a 4FF6FF72 		movw	r2, #65535
 113 004e 9342     		cmp	r3, r2
 114 0050 02D1     		bne	.L8
 101:.\main.c      ****     {
 102:.\main.c      ****         curPos = 0u;
 115              		.loc 1 102 0
 116 0052 124B     		ldr	r3, .L11
 117 0054 0022     		movs	r2, #0
 118 0056 1A80     		strh	r2, [r3]	@ movhi
 119              	.L8:
 103:.\main.c      ****     }
 104:.\main.c      **** 
 105:.\main.c      ****     /* Move bargraph */
 106:.\main.c      ****     if (curPos != oldPos)
 120              		.loc 1 106 0
 121 0058 104B     		ldr	r3, .L11
 122 005a 1A88     		ldrh	r2, [r3]
ARM GAS  C:\Users\LUKASC~1\AppData\Local\Temp\cchoAV1U.s 			page 5


 123 005c 104B     		ldr	r3, .L11+4
 124 005e 1B88     		ldrh	r3, [r3]
 125 0060 9A42     		cmp	r2, r3
 126 0062 1AD0     		beq	.L3
 107:.\main.c      ****     {
 108:.\main.c      ****         oldPos = curPos;
 127              		.loc 1 108 0
 128 0064 0D4B     		ldr	r3, .L11
 129 0066 1A88     		ldrh	r2, [r3]
 130 0068 0D4B     		ldr	r3, .L11+4
 131 006a 1A80     		strh	r2, [r3]	@ movhi
 109:.\main.c      ****         /* Display Slider bargraph */
 110:.\main.c      ****         if (curPos != 0u)
 132              		.loc 1 110 0
 133 006c 0B4B     		ldr	r3, .L11
 134 006e 1B88     		ldrh	r3, [r3]
 135 0070 002B     		cmp	r3, #0
 136 0072 09D0     		beq	.L10
 111:.\main.c      ****         {
 112:.\main.c      ****             LCD_DrawHorizontalBG(0u, 9u, 6u, curPos >> 2);
 137              		.loc 1 112 0
 138 0074 094B     		ldr	r3, .L11
 139 0076 1B88     		ldrh	r3, [r3]
 140 0078 9B08     		lsrs	r3, r3, #2
 141 007a 9BB2     		uxth	r3, r3
 142 007c DBB2     		uxtb	r3, r3
 143 007e 0020     		movs	r0, #0
 144 0080 0921     		movs	r1, #9
 145 0082 0622     		movs	r2, #6
 146 0084 FFF7FEFF 		bl	LCD_DrawHorizontalBG
 147              	.L10:
 113:.\main.c      ****         }
 114:.\main.c      **** 
 115:.\main.c      ****         /* Display Slider position value */
 116:.\main.c      ****         LCD_Position(1u, 10u);
 148              		.loc 1 116 0
 149 0088 0120     		movs	r0, #1
 150 008a 0A21     		movs	r1, #10
 151 008c FFF7FEFF 		bl	LCD_Position
 117:.\main.c      ****         LCD_PrintInt16(curPos);
 152              		.loc 1 117 0
 153 0090 024B     		ldr	r3, .L11
 154 0092 1B88     		ldrh	r3, [r3]
 155 0094 1846     		mov	r0, r3
 156 0096 FFF7FEFF 		bl	LCD_PrintInt16
 157              	.L3:
 118:.\main.c      ****     }
 119:.\main.c      **** }
 158              		.loc 1 119 0
 159 009a 80BD     		pop	{r7, pc}
 160              	.L12:
 161              		.align	2
 162              	.L11:
 163 009c 00000000 		.word	curPos
 164 00a0 00000000 		.word	oldPos
 165              		.cfi_endproc
 166              	.LFE64:
ARM GAS  C:\Users\LUKASC~1\AppData\Local\Temp\cchoAV1U.s 			page 6


 167              		.size	CapSense_DisplayState, .-CapSense_DisplayState
 168              		.text
 169              	.Letext0:
 170              		.file 2 "c:\\program files (x86)\\cypress\\psoc creator\\3.3\\psoc creator\\import\\gnu\\arm\\4.9.
 171              		.file 3 "c:\\program files (x86)\\cypress\\psoc creator\\3.3\\psoc creator\\import\\gnu\\arm\\4.9.
 172              		.file 4 "Generated_Source\\PSoC5/cytypes.h"
 173              		.file 5 "Generated_Source\\PSoC5/core_cm3.h"