ARM GAS  C:\Users\LUKASC~1\AppData\Local\Temp\cco7HWdB.s 			page 1


   1              		.syntax unified
   2              		.cpu cortex-m3
   3              		.fpu softvfp
   4              		.eabi_attribute 20, 1
   5              		.eabi_attribute 21, 1
   6              		.eabi_attribute 23, 3
   7              		.eabi_attribute 24, 1
   8              		.eabi_attribute 25, 1
   9              		.eabi_attribute 26, 1
  10              		.eabi_attribute 30, 6
  11              		.eabi_attribute 34, 1
  12              		.eabi_attribute 18, 4
  13              		.thumb
  14              		.file	"main.c"
  15              		.text
  16              	.Ltext0:
  17              		.cfi_sections	.debug_frame
  18              		.global _printf_float
  19              		.thumb
  20              		.global	parity
  21              		.section	.rodata
  22              		.align	2
  23              	.LC0:
  24 0000 4E6F6E65 		.ascii	"None\000"
  24      00
  25 0005 000000   		.align	2
  26              	.LC1:
  27 0008 4F646400 		.ascii	"Odd\000"
  28              		.align	2
  29              	.LC2:
  30 000c 4576656E 		.ascii	"Even\000"
  30      00
  31 0011 000000   		.align	2
  32              	.LC3:
  33 0014 4D61726B 		.ascii	"Mark\000"
  33      00
  34 0019 000000   		.align	2
  35              	.LC4:
  36 001c 53706163 		.ascii	"Space\000"
  36      6500
  37              		.data
  38              		.align	2
  39              		.type	parity, %object
  40              		.size	parity, 20
  41              	parity:
  42 0000 00000000 		.word	.LC0
  43 0004 08000000 		.word	.LC1
  44 0008 0C000000 		.word	.LC2
  45 000c 14000000 		.word	.LC3
  46 0010 1C000000 		.word	.LC4
  47              		.global	stop
  48              		.section	.rodata
  49 0022 0000     		.align	2
  50              	.LC5:
  51 0024 3100     		.ascii	"1\000"
  52 0026 0000     		.align	2
  53              	.LC6:
ARM GAS  C:\Users\LUKASC~1\AppData\Local\Temp\cco7HWdB.s 			page 2


  54 0028 312E3500 		.ascii	"1.5\000"
  55              		.align	2
  56              	.LC7:
  57 002c 3200     		.ascii	"2\000"
  58              		.data
  59              		.align	2
  60              		.type	stop, %object
  61              		.size	stop, 12
  62              	stop:
  63 0014 24000000 		.word	.LC5
  64 0018 28000000 		.word	.LC6
  65 001c 2C000000 		.word	.LC7
  66              		.section	.rodata
  67 002e 0000     		.align	2
  68              	.LC8:
  69 0030 42523A25 		.ascii	"BR:%4ld %d%c%s\000"
  69      346C6420 
  69      25642563 
  69      257300
  70 003f 00       		.align	2
  71              	.LC9:
  72 0040 20202020 		.ascii	"                    \000"
  72      20202020 
  72      20202020 
  72      20202020 
  72      20202020 
  73 0055 000000   		.align	2
  74              	.LC10:
  75 0058 4F4E00   		.ascii	"ON\000"
  76 005b 00       		.align	2
  77              	.LC11:
  78 005c 4F464600 		.ascii	"OFF\000"
  79              		.align	2
  80              	.LC12:
  81 0060 4454523A 		.ascii	"DTR:%s,RTS:%s\000"
  81      25732C52 
  81      54533A25 
  81      7300
  82 006e 0000     		.section	.text.main,"ax",%progbits
  83              		.align	2
  84              		.global	main
  85              		.thumb
  86              		.thumb_func
  87              		.type	main, %function
  88              	main:
  89              	.LFB63:
  90              		.file 1 ".\\main.c"
   1:.\main.c      **** /*******************************************************************************
   2:.\main.c      **** * File Name: main.c
   3:.\main.c      **** *
   4:.\main.c      **** * Version: 2.0
   5:.\main.c      **** *
   6:.\main.c      **** * Description:
   7:.\main.c      **** *   The component is enumerated as a Virtual Com port. Receives data from the 
   8:.\main.c      **** *   hyper terminal, then sends back the received data.
   9:.\main.c      **** *   For PSoC3/PSoC5LP, the LCD shows the line settings.
  10:.\main.c      **** *
ARM GAS  C:\Users\LUKASC~1\AppData\Local\Temp\cco7HWdB.s 			page 3


  11:.\main.c      **** * Related Document:
  12:.\main.c      **** *  Universal Serial Bus Specification Revision 2.0
  13:.\main.c      **** *  Universal Serial Bus Class Definitions for Communications Devices
  14:.\main.c      **** *  Revision 1.2
  15:.\main.c      **** *
  16:.\main.c      **** ********************************************************************************
  17:.\main.c      **** * Copyright 2015, Cypress Semiconductor Corporation. All rights reserved.
  18:.\main.c      **** * This software is owned by Cypress Semiconductor Corporation and is protected
  19:.\main.c      **** * by and subject to worldwide patent and copyright laws and treaties.
  20:.\main.c      **** * Therefore, you may use this software only as provided in the license agreement
  21:.\main.c      **** * accompanying the software package from which you obtained this software.
  22:.\main.c      **** * CYPRESS AND ITS SUPPLIERS MAKE NO WARRANTY OF ANY KIND, EXPRESS OR IMPLIED,
  23:.\main.c      **** * WITH REGARD TO THIS SOFTWARE, INCLUDING, BUT NOT LIMITED TO, NONINFRINGEMENT,
  24:.\main.c      **** * IMPLIED WARRANTIES OF MERCHANTABILITY AND FITNESS FOR A PARTICULAR PURPOSE.
  25:.\main.c      **** *******************************************************************************/
  26:.\main.c      **** 
  27:.\main.c      **** #include <project.h>
  28:.\main.c      **** #include "stdio.h"
  29:.\main.c      **** 
  30:.\main.c      **** #if defined (__GNUC__)
  31:.\main.c      ****     /* Add an explicit reference to the floating point printf library */
  32:.\main.c      ****     /* to allow usage of the floating point conversion specifiers. */
  33:.\main.c      ****     /* This is not linked in by default with the newlib-nano library. */
  34:.\main.c      ****     asm (".global _printf_float");
  35:.\main.c      **** #endif
  36:.\main.c      **** 
  37:.\main.c      **** #define USBFS_DEVICE    (0u)
  38:.\main.c      **** 
  39:.\main.c      **** /* The buffer size is equal to the maximum packet size of the IN and OUT bulk
  40:.\main.c      **** * endpoints.
  41:.\main.c      **** */
  42:.\main.c      **** #define USBUART_BUFFER_SIZE (64u)
  43:.\main.c      **** #define LINE_STR_LENGTH     (20u)
  44:.\main.c      **** 
  45:.\main.c      **** char8* parity[] = {"None", "Odd", "Even", "Mark", "Space"};
  46:.\main.c      **** char8* stop[]   = {"1", "1.5", "2"};
  47:.\main.c      **** 
  48:.\main.c      **** 
  49:.\main.c      **** /*******************************************************************************
  50:.\main.c      **** * Function Name: main
  51:.\main.c      **** ********************************************************************************
  52:.\main.c      **** *
  53:.\main.c      **** * Summary:
  54:.\main.c      **** *  The main function performs the following actions:
  55:.\main.c      **** *   1. Waits until VBUS becomes valid and starts the USBFS component which is
  56:.\main.c      **** *      enumerated as virtual Com port.
  57:.\main.c      **** *   2. Waits until the device is enumerated by the host.
  58:.\main.c      **** *   3. Waits for data coming from the hyper terminal and sends it back.
  59:.\main.c      **** *   4. PSoC3/PSoC5LP: the LCD shows the line settings.
  60:.\main.c      **** *
  61:.\main.c      **** * Parameters:
  62:.\main.c      **** *  None.
  63:.\main.c      **** *
  64:.\main.c      **** * Return:
  65:.\main.c      **** *  None.
  66:.\main.c      **** *
  67:.\main.c      **** *******************************************************************************/
ARM GAS  C:\Users\LUKASC~1\AppData\Local\Temp\cco7HWdB.s 			page 4


  68:.\main.c      **** int main()
  69:.\main.c      **** {
  91              		.loc 1 69 0
  92              		.cfi_startproc
  93              		@ args = 0, pretend = 0, frame = 88
  94              		@ frame_needed = 1, uses_anonymous_args = 0
  95 0000 F0B5     		push	{r4, r5, r6, r7, lr}
  96              		.cfi_def_cfa_offset 20
  97              		.cfi_offset 4, -20
  98              		.cfi_offset 5, -16
  99              		.cfi_offset 6, -12
 100              		.cfi_offset 7, -8
 101              		.cfi_offset 14, -4
 102 0002 99B0     		sub	sp, sp, #100
 103              		.cfi_def_cfa_offset 120
 104 0004 02AF     		add	r7, sp, #8
 105              		.cfi_def_cfa 7, 112
  70:.\main.c      ****     uint16 count;
  71:.\main.c      ****     uint8 buffer[USBUART_BUFFER_SIZE];
  72:.\main.c      ****     
  73:.\main.c      **** #if (CY_PSOC3 || CY_PSOC5LP)
  74:.\main.c      ****     uint8 state;
  75:.\main.c      ****     char8 lineStr[LINE_STR_LENGTH];
  76:.\main.c      ****     
  77:.\main.c      ****     LCD_Start();
 106              		.loc 1 77 0
 107 0006 FFF7FEFF 		bl	LCD_Start
  78:.\main.c      **** #endif /* (CY_PSOC3 || CY_PSOC5LP) */
  79:.\main.c      ****     
  80:.\main.c      ****     CyGlobalIntEnable;
 108              		.loc 1 80 0
 109              	@ 80 ".\main.c" 1
 110 000a 62B6     		CPSIE   i
 111              	@ 0 "" 2
  81:.\main.c      **** 
  82:.\main.c      ****     /* Start USBFS operation with 5-V operation. */
  83:.\main.c      ****     USBUART_Start(USBFS_DEVICE, USBUART_5V_OPERATION);
 112              		.loc 1 83 0
 113              		.thumb
 114 000c 0020     		movs	r0, #0
 115 000e 0121     		movs	r1, #1
 116 0010 FFF7FEFF 		bl	USBUART_Start
 117              	.L12:
  84:.\main.c      ****     
  85:.\main.c      ****     for(;;)
  86:.\main.c      ****     {
  87:.\main.c      ****         /* Host can send double SET_INTERFACE request. */
  88:.\main.c      ****         if (0u != USBUART_IsConfigurationChanged())
 118              		.loc 1 88 0
 119 0014 FFF7FEFF 		bl	USBUART_IsConfigurationChanged
 120 0018 0346     		mov	r3, r0
 121 001a 002B     		cmp	r3, #0
 122 001c 06D0     		beq	.L2
  89:.\main.c      ****         {
  90:.\main.c      ****             /* Initialize IN endpoints when device is configured. */
  91:.\main.c      ****             if (0u != USBUART_GetConfiguration())
 123              		.loc 1 91 0
ARM GAS  C:\Users\LUKASC~1\AppData\Local\Temp\cco7HWdB.s 			page 5


 124 001e FFF7FEFF 		bl	USBUART_GetConfiguration
 125 0022 0346     		mov	r3, r0
 126 0024 002B     		cmp	r3, #0
 127 0026 01D0     		beq	.L2
  92:.\main.c      ****             {
  93:.\main.c      ****                 /* Enumeration is done, enable OUT endpoint to receive data 
  94:.\main.c      ****                  * from host. */
  95:.\main.c      ****                 USBUART_CDC_Init();
 128              		.loc 1 95 0
 129 0028 FFF7FEFF 		bl	USBUART_CDC_Init
 130              	.L2:
  96:.\main.c      ****             }
  97:.\main.c      ****         }
  98:.\main.c      **** 
  99:.\main.c      ****         /* Service USB CDC when device is configured. */
 100:.\main.c      ****         if (0u != USBUART_GetConfiguration())
 131              		.loc 1 100 0
 132 002c FFF7FEFF 		bl	USBUART_GetConfiguration
 133 0030 0346     		mov	r3, r0
 134 0032 002B     		cmp	r3, #0
 135 0034 00F09C80 		beq	.L3
 101:.\main.c      ****         {
 102:.\main.c      ****             /* Check for input data from host. */
 103:.\main.c      ****             if (0u != USBUART_DataIsReady())
 136              		.loc 1 103 0
 137 0038 FFF7FEFF 		bl	USBUART_DataIsReady
 138 003c 0346     		mov	r3, r0
 139 003e 002B     		cmp	r3, #0
 140 0040 27D0     		beq	.L4
 104:.\main.c      ****             {
 105:.\main.c      ****                 /* Read received data and re-enable OUT endpoint. */
 106:.\main.c      ****                 count = USBUART_GetAll(buffer);
 141              		.loc 1 106 0
 142 0042 07F11403 		add	r3, r7, #20
 143 0046 1846     		mov	r0, r3
 144 0048 FFF7FEFF 		bl	USBUART_GetAll
 145 004c 0346     		mov	r3, r0
 146 004e A7F85430 		strh	r3, [r7, #84]	@ movhi
 107:.\main.c      **** 
 108:.\main.c      ****                 if (0u != count)
 147              		.loc 1 108 0
 148 0052 B7F85430 		ldrh	r3, [r7, #84]
 149 0056 002B     		cmp	r3, #0
 150 0058 1BD0     		beq	.L4
 109:.\main.c      ****                 {
 110:.\main.c      ****                     /* Wait until component is ready to send data to host. */
 111:.\main.c      ****                     while (0u == USBUART_CDCIsReady())
 151              		.loc 1 111 0
 152 005a 00BF     		nop
 153              	.L5:
 154              		.loc 1 111 0 is_stmt 0 discriminator 1
 155 005c FFF7FEFF 		bl	USBUART_CDCIsReady
 156 0060 0346     		mov	r3, r0
 157 0062 002B     		cmp	r3, #0
 158 0064 FAD0     		beq	.L5
 112:.\main.c      ****                     {
 113:.\main.c      ****                     }
ARM GAS  C:\Users\LUKASC~1\AppData\Local\Temp\cco7HWdB.s 			page 6


 114:.\main.c      **** 
 115:.\main.c      ****                     /* Send data back to host. */
 116:.\main.c      ****                     USBUART_PutData(buffer, count);
 159              		.loc 1 116 0 is_stmt 1
 160 0066 07F11402 		add	r2, r7, #20
 161 006a B7F85430 		ldrh	r3, [r7, #84]
 162 006e 1046     		mov	r0, r2
 163 0070 1946     		mov	r1, r3
 164 0072 FFF7FEFF 		bl	USBUART_PutData
 117:.\main.c      **** 
 118:.\main.c      ****                     /* If the last sent packet is exactly the maximum packet 
 119:.\main.c      ****                     *  size, it is followed by a zero-length packet to assure
 120:.\main.c      ****                     *  that the end of the segment is properly identified by 
 121:.\main.c      ****                     *  the terminal.
 122:.\main.c      ****                     */
 123:.\main.c      ****                     if (USBUART_BUFFER_SIZE == count)
 165              		.loc 1 123 0
 166 0076 B7F85430 		ldrh	r3, [r7, #84]
 167 007a 402B     		cmp	r3, #64
 168 007c 09D1     		bne	.L4
 124:.\main.c      ****                     {
 125:.\main.c      ****                         /* Wait until component is ready to send data to PC. */
 126:.\main.c      ****                         while (0u == USBUART_CDCIsReady())
 169              		.loc 1 126 0
 170 007e 00BF     		nop
 171              	.L6:
 172              		.loc 1 126 0 is_stmt 0 discriminator 1
 173 0080 FFF7FEFF 		bl	USBUART_CDCIsReady
 174 0084 0346     		mov	r3, r0
 175 0086 002B     		cmp	r3, #0
 176 0088 FAD0     		beq	.L6
 127:.\main.c      ****                         {
 128:.\main.c      ****                         }
 129:.\main.c      **** 
 130:.\main.c      ****                         /* Send zero-length packet to PC. */
 131:.\main.c      ****                         USBUART_PutData(NULL, 0u);
 177              		.loc 1 131 0 is_stmt 1
 178 008a 0020     		movs	r0, #0
 179 008c 0021     		movs	r1, #0
 180 008e FFF7FEFF 		bl	USBUART_PutData
 181              	.L4:
 132:.\main.c      ****                     }
 133:.\main.c      ****                 }
 134:.\main.c      ****             }
 135:.\main.c      **** 
 136:.\main.c      **** 
 137:.\main.c      ****         #if (CY_PSOC3 || CY_PSOC5LP)
 138:.\main.c      ****             /* Check for Line settings change. */
 139:.\main.c      ****             state = USBUART_IsLineChanged();
 182              		.loc 1 139 0
 183 0092 FFF7FEFF 		bl	USBUART_IsLineChanged
 184 0096 0346     		mov	r3, r0
 185 0098 87F85730 		strb	r3, [r7, #87]
 140:.\main.c      ****             if (0u != state)
 186              		.loc 1 140 0
 187 009c 97F85730 		ldrb	r3, [r7, #87]	@ zero_extendqisi2
 188 00a0 002B     		cmp	r3, #0
ARM GAS  C:\Users\LUKASC~1\AppData\Local\Temp\cco7HWdB.s 			page 7


 189 00a2 65D0     		beq	.L3
 141:.\main.c      ****             {
 142:.\main.c      ****                 /* Output on LCD Line Coding settings. */
 143:.\main.c      ****                 if (0u != (state & USBUART_LINE_CODING_CHANGED))
 190              		.loc 1 143 0
 191 00a4 97F85730 		ldrb	r3, [r7, #87]	@ zero_extendqisi2
 192 00a8 03F00103 		and	r3, r3, #1
 193 00ac 002B     		cmp	r3, #0
 194 00ae 2ED0     		beq	.L7
 144:.\main.c      ****                 {                  
 145:.\main.c      ****                     /* Get string to output. */
 146:.\main.c      ****                     sprintf(lineStr,"BR:%4ld %d%c%s", USBUART_GetDTERate(),\
 195              		.loc 1 146 0
 196 00b0 FFF7FEFF 		bl	USBUART_GetDTERate
 197 00b4 0646     		mov	r6, r0
 147:.\main.c      ****                                    (uint16) USBUART_GetDataBits(),\
 198              		.loc 1 147 0
 199 00b6 FFF7FEFF 		bl	USBUART_GetDataBits
 200 00ba 0346     		mov	r3, r0
 146:.\main.c      ****                                    (uint16) USBUART_GetDataBits(),\
 201              		.loc 1 146 0
 202 00bc 1D46     		mov	r5, r3
 148:.\main.c      ****                                    parity[(uint16) USBUART_GetParityType()][0],\
 203              		.loc 1 148 0
 204 00be FFF7FEFF 		bl	USBUART_GetParityType
 205 00c2 0346     		mov	r3, r0
 206 00c4 1A46     		mov	r2, r3
 207 00c6 2B4B     		ldr	r3, .L13
 208 00c8 53F82230 		ldr	r3, [r3, r2, lsl #2]
 209 00cc 1B78     		ldrb	r3, [r3]	@ zero_extendqisi2
 146:.\main.c      ****                                    (uint16) USBUART_GetDataBits(),\
 210              		.loc 1 146 0
 211 00ce 1C46     		mov	r4, r3
 149:.\main.c      ****                                    stop[(uint16) USBUART_GetCharFormat()]);
 212              		.loc 1 149 0
 213 00d0 FFF7FEFF 		bl	USBUART_GetCharFormat
 214 00d4 0346     		mov	r3, r0
 146:.\main.c      ****                                    (uint16) USBUART_GetDataBits(),\
 215              		.loc 1 146 0
 216 00d6 1A46     		mov	r2, r3
 217 00d8 274B     		ldr	r3, .L13+4
 218 00da 53F82230 		ldr	r3, [r3, r2, lsl #2]
 219 00de 3A46     		mov	r2, r7
 220 00e0 0094     		str	r4, [sp]
 221 00e2 0193     		str	r3, [sp, #4]
 222 00e4 1046     		mov	r0, r2
 223 00e6 2549     		ldr	r1, .L13+8
 224 00e8 3246     		mov	r2, r6
 225 00ea 2B46     		mov	r3, r5
 226 00ec FFF7FEFF 		bl	sprintf
 150:.\main.c      **** 
 151:.\main.c      ****                     /* Clear LCD line. */
 152:.\main.c      ****                     LCD_Position(0u, 0u);
 227              		.loc 1 152 0
 228 00f0 0020     		movs	r0, #0
 229 00f2 0021     		movs	r1, #0
 230 00f4 FFF7FEFF 		bl	LCD_Position
ARM GAS  C:\Users\LUKASC~1\AppData\Local\Temp\cco7HWdB.s 			page 8


 153:.\main.c      ****                     LCD_PrintString("                    ");
 231              		.loc 1 153 0
 232 00f8 2148     		ldr	r0, .L13+12
 233 00fa FFF7FEFF 		bl	LCD_PrintString
 154:.\main.c      **** 
 155:.\main.c      ****                     /* Output string on LCD. */
 156:.\main.c      ****                     LCD_Position(0u, 0u);
 234              		.loc 1 156 0
 235 00fe 0020     		movs	r0, #0
 236 0100 0021     		movs	r1, #0
 237 0102 FFF7FEFF 		bl	LCD_Position
 157:.\main.c      ****                     LCD_PrintString(lineStr);
 238              		.loc 1 157 0
 239 0106 3B46     		mov	r3, r7
 240 0108 1846     		mov	r0, r3
 241 010a FFF7FEFF 		bl	LCD_PrintString
 242              	.L7:
 158:.\main.c      ****                 }
 159:.\main.c      **** 
 160:.\main.c      ****                 /* Output on LCD Line Control settings. */
 161:.\main.c      ****                 if (0u != (state & USBUART_LINE_CONTROL_CHANGED))
 243              		.loc 1 161 0
 244 010e 97F85730 		ldrb	r3, [r7, #87]	@ zero_extendqisi2
 245 0112 03F00203 		and	r3, r3, #2
 246 0116 002B     		cmp	r3, #0
 247 0118 2AD0     		beq	.L3
 162:.\main.c      ****                 {                   
 163:.\main.c      ****                     /* Get string to output. */
 164:.\main.c      ****                     state = USBUART_GetLineControl();
 248              		.loc 1 164 0
 249 011a FFF7FEFF 		bl	USBUART_GetLineControl
 250 011e 0346     		mov	r3, r0
 251 0120 87F85730 		strb	r3, [r7, #87]
 165:.\main.c      ****                     sprintf(lineStr,"DTR:%s,RTS:%s",  (0u != (state & USBUART_LINE_CONTROL_DTR)) ? 
 252              		.loc 1 165 0
 253 0124 97F85730 		ldrb	r3, [r7, #87]	@ zero_extendqisi2
 254 0128 03F00103 		and	r3, r3, #1
 255 012c 002B     		cmp	r3, #0
 256 012e 01D0     		beq	.L8
 257              		.loc 1 165 0 is_stmt 0 discriminator 1
 258 0130 144A     		ldr	r2, .L13+16
 259 0132 00E0     		b	.L9
 260              	.L8:
 261              		.loc 1 165 0 discriminator 2
 262 0134 144A     		ldr	r2, .L13+20
 263              	.L9:
 166:.\main.c      ****                                                       (0u != (state & USBUART_LINE_CONTROL_RTS)) ? 
 264              		.loc 1 166 0 is_stmt 1 discriminator 4
 265 0136 97F85730 		ldrb	r3, [r7, #87]	@ zero_extendqisi2
 266 013a 03F00203 		and	r3, r3, #2
 165:.\main.c      ****                     sprintf(lineStr,"DTR:%s,RTS:%s",  (0u != (state & USBUART_LINE_CONTROL_DTR)) ? 
 267              		.loc 1 165 0 discriminator 4
 268 013e 002B     		cmp	r3, #0
 269 0140 01D0     		beq	.L10
 165:.\main.c      ****                     sprintf(lineStr,"DTR:%s,RTS:%s",  (0u != (state & USBUART_LINE_CONTROL_DTR)) ? 
 270              		.loc 1 165 0 is_stmt 0 discriminator 5
 271 0142 104B     		ldr	r3, .L13+16
ARM GAS  C:\Users\LUKASC~1\AppData\Local\Temp\cco7HWdB.s 			page 9


 272 0144 00E0     		b	.L11
 273              	.L10:
 165:.\main.c      ****                     sprintf(lineStr,"DTR:%s,RTS:%s",  (0u != (state & USBUART_LINE_CONTROL_DTR)) ? 
 274              		.loc 1 165 0 discriminator 6
 275 0146 104B     		ldr	r3, .L13+20
 276              	.L11:
 165:.\main.c      ****                     sprintf(lineStr,"DTR:%s,RTS:%s",  (0u != (state & USBUART_LINE_CONTROL_DTR)) ? 
 277              		.loc 1 165 0 discriminator 8
 278 0148 3946     		mov	r1, r7
 279 014a 0846     		mov	r0, r1
 280 014c 0F49     		ldr	r1, .L13+24
 281 014e FFF7FEFF 		bl	sprintf
 167:.\main.c      **** 
 168:.\main.c      ****                     /* Clear LCD line. */
 169:.\main.c      ****                     LCD_Position(1u, 0u);
 282              		.loc 1 169 0 is_stmt 1 discriminator 8
 283 0152 0120     		movs	r0, #1
 284 0154 0021     		movs	r1, #0
 285 0156 FFF7FEFF 		bl	LCD_Position
 170:.\main.c      ****                     LCD_PrintString("                    ");
 286              		.loc 1 170 0 discriminator 8
 287 015a 0948     		ldr	r0, .L13+12
 288 015c FFF7FEFF 		bl	LCD_PrintString
 171:.\main.c      **** 
 172:.\main.c      ****                     /* Output string on LCD. */
 173:.\main.c      ****                     LCD_Position(1u, 0u);
 289              		.loc 1 173 0 discriminator 8
 290 0160 0120     		movs	r0, #1
 291 0162 0021     		movs	r1, #0
 292 0164 FFF7FEFF 		bl	LCD_Position
 174:.\main.c      ****                     LCD_PrintString(lineStr);
 293              		.loc 1 174 0 discriminator 8
 294 0168 3B46     		mov	r3, r7
 295 016a 1846     		mov	r0, r3
 296 016c FFF7FEFF 		bl	LCD_PrintString
 297              	.L3:
 175:.\main.c      ****                 }
 176:.\main.c      ****             }
 177:.\main.c      ****         #endif /* (CY_PSOC3 || CY_PSOC5LP) */
 178:.\main.c      ****         }
 179:.\main.c      ****     }
 298              		.loc 1 179 0
 299 0170 50E7     		b	.L12
 300              	.L14:
 301 0172 00BF     		.align	2
 302              	.L13:
 303 0174 00000000 		.word	parity
 304 0178 00000000 		.word	stop
 305 017c 30000000 		.word	.LC8
 306 0180 40000000 		.word	.LC9
 307 0184 58000000 		.word	.LC10
 308 0188 5C000000 		.word	.LC11
 309 018c 60000000 		.word	.LC12
 310              		.cfi_endproc
 311              	.LFE63:
 312              		.size	main, .-main
 313              		.text
ARM GAS  C:\Users\LUKASC~1\AppData\Local\Temp\cco7HWdB.s 			page 10


 314              	.Letext0:
 315              		.file 2 "c:\\program files (x86)\\cypress\\psoc creator\\3.3\\psoc creator\\import\\gnu\\arm\\4.9.
 316              		.file 3 "c:\\program files (x86)\\cypress\\psoc creator\\3.3\\psoc creator\\import\\gnu\\arm\\4.9.
 317              		.file 4 "Generated_Source\\PSoC5/cytypes.h"
 318              		.file 5 "Generated_Source\\PSoC5/core_cm3.h"