ARM GAS  C:\Users\LUKASC~1\AppData\Local\Temp\ccb4CB1g.s 			page 1


   1              		.cpu cortex-m0
   2              		.fpu softvfp
   3              		.eabi_attribute 20, 1
   4              		.eabi_attribute 21, 1
   5              		.eabi_attribute 23, 3
   6              		.eabi_attribute 24, 1
   7              		.eabi_attribute 25, 1
   8              		.eabi_attribute 26, 1
   9              		.eabi_attribute 30, 6
  10              		.eabi_attribute 34, 0
  11              		.eabi_attribute 18, 4
  12              		.code	16
  13              		.file	"Cm0Start.c"
  14              		.text
  15              	.Ltext0:
  16              		.cfi_sections	.debug_frame
  17              		.section	.noinit,"aw",%progbits
  18              		.align	2
  19              		.type	cySysNoInitDataValid, %object
  20              		.size	cySysNoInitDataValid, 4
  21              	cySysNoInitDataValid:
  22 0000 00000000 		.space	4
  23              		.global	cyBtldrRunType
  24              		.section	.bootloaderruntype,"aw",%progbits
  25              		.align	2
  26              		.type	cyBtldrRunType, %object
  27              		.size	cyBtldrRunType, 4
  28              	cyBtldrRunType:
  29 0000 00000000 		.space	4
  30              		.section	.text.IntDefaultHandler,"ax",%progbits
  31              		.align	2
  32              		.global	IntDefaultHandler
  33              		.code	16
  34              		.thumb_func
  35              		.type	IntDefaultHandler, %function
  36              	IntDefaultHandler:
  37              	.LFB0:
  38              		.file 1 ".\\Generated_Source\\PSoC4\\Cm0Start.c"
   1:.\Generated_Source\PSoC4/Cm0Start.c **** /***************************************************************************//**
   2:.\Generated_Source\PSoC4/Cm0Start.c **** * \file Cm0Start.c
   3:.\Generated_Source\PSoC4/Cm0Start.c **** * \version 5.40
   4:.\Generated_Source\PSoC4/Cm0Start.c **** *
   5:.\Generated_Source\PSoC4/Cm0Start.c **** * \brief Startup code for the ARM CM0.
   6:.\Generated_Source\PSoC4/Cm0Start.c **** *
   7:.\Generated_Source\PSoC4/Cm0Start.c **** ********************************************************************************
   8:.\Generated_Source\PSoC4/Cm0Start.c **** * \copyright
   9:.\Generated_Source\PSoC4/Cm0Start.c **** * Copyright 2010-2016, Cypress Semiconductor Corporation.  All rights reserved.
  10:.\Generated_Source\PSoC4/Cm0Start.c **** * You may use this file only in accordance with the license, terms, conditions,
  11:.\Generated_Source\PSoC4/Cm0Start.c **** * disclaimers, and limitations in the end user license agreement accompanying
  12:.\Generated_Source\PSoC4/Cm0Start.c **** * the software package with which this file was provided.
  13:.\Generated_Source\PSoC4/Cm0Start.c **** *******************************************************************************/
  14:.\Generated_Source\PSoC4/Cm0Start.c **** 
  15:.\Generated_Source\PSoC4/Cm0Start.c **** #include <limits.h>
  16:.\Generated_Source\PSoC4/Cm0Start.c **** #include "cydevice_trm.h"
  17:.\Generated_Source\PSoC4/Cm0Start.c **** #include "cytypes.h"
  18:.\Generated_Source\PSoC4/Cm0Start.c **** #include "cyfitter_cfg.h"
  19:.\Generated_Source\PSoC4/Cm0Start.c **** #include "CyLib.h"
ARM GAS  C:\Users\LUKASC~1\AppData\Local\Temp\ccb4CB1g.s 			page 2


  20:.\Generated_Source\PSoC4/Cm0Start.c **** #include "cyfitter.h"
  21:.\Generated_Source\PSoC4/Cm0Start.c **** #include "cyapicallbacks.h"
  22:.\Generated_Source\PSoC4/Cm0Start.c **** 
  23:.\Generated_Source\PSoC4/Cm0Start.c **** #define CY_NUM_VECTORS              (CY_INT_IRQ_BASE + CY_NUM_INTERRUPTS)
  24:.\Generated_Source\PSoC4/Cm0Start.c **** 
  25:.\Generated_Source\PSoC4/Cm0Start.c **** #if (CY_IP_CPUSS_CM0)
  26:.\Generated_Source\PSoC4/Cm0Start.c ****     #define CY_CPUSS_CONFIG_VECT_IN_RAM (( uint32 ) 0x01)
  27:.\Generated_Source\PSoC4/Cm0Start.c **** #endif /* (CY_IP_CPUSS_CM0) */
  28:.\Generated_Source\PSoC4/Cm0Start.c **** 
  29:.\Generated_Source\PSoC4/Cm0Start.c **** 
  30:.\Generated_Source\PSoC4/Cm0Start.c **** #if (CY_IP_CPUSS_CM0)
  31:.\Generated_Source\PSoC4/Cm0Start.c ****     /* CPUSS Configuration register */
  32:.\Generated_Source\PSoC4/Cm0Start.c ****     #define CY_CPUSS_CONFIG_REG         (*(reg32 *) CYREG_CPUSS_CONFIG)
  33:.\Generated_Source\PSoC4/Cm0Start.c ****     #define CY_CPUSS_CONFIG_PTR         ( (reg32 *) CYREG_CPUSS_CONFIG)
  34:.\Generated_Source\PSoC4/Cm0Start.c **** #endif /* (CY_IP_CPUSS_CM0) */
  35:.\Generated_Source\PSoC4/Cm0Start.c **** 
  36:.\Generated_Source\PSoC4/Cm0Start.c **** 
  37:.\Generated_Source\PSoC4/Cm0Start.c **** #if defined (__ICCARM__)
  38:.\Generated_Source\PSoC4/Cm0Start.c ****     #define CY_NUM_ROM_VECTORS      (CY_NUM_VECTORS)
  39:.\Generated_Source\PSoC4/Cm0Start.c **** #else
  40:.\Generated_Source\PSoC4/Cm0Start.c ****     #define CY_NUM_ROM_VECTORS      (4u)
  41:.\Generated_Source\PSoC4/Cm0Start.c **** #endif  /* defined (__ICCARM__) */
  42:.\Generated_Source\PSoC4/Cm0Start.c **** 
  43:.\Generated_Source\PSoC4/Cm0Start.c **** /* Vector table address in SRAM */
  44:.\Generated_Source\PSoC4/Cm0Start.c **** #define CY_CPUSS_CONFIG_VECT_ADDR_IN_RAM    (0x20000000u)
  45:.\Generated_Source\PSoC4/Cm0Start.c **** 
  46:.\Generated_Source\PSoC4/Cm0Start.c **** #ifndef CY_SYS_INITIAL_STACK_POINTER
  47:.\Generated_Source\PSoC4/Cm0Start.c **** 
  48:.\Generated_Source\PSoC4/Cm0Start.c ****     #if defined(__ARMCC_VERSION)
  49:.\Generated_Source\PSoC4/Cm0Start.c ****         #define CY_SYS_INITIAL_STACK_POINTER ((cyisraddress)(uint32)&Image$$ARM_LIB_STACK$$ZI$$Limi
  50:.\Generated_Source\PSoC4/Cm0Start.c ****     #elif defined (__GNUC__)
  51:.\Generated_Source\PSoC4/Cm0Start.c ****         #define CY_SYS_INITIAL_STACK_POINTER (&__cy_stack)
  52:.\Generated_Source\PSoC4/Cm0Start.c ****     #elif defined (__ICCARM__)
  53:.\Generated_Source\PSoC4/Cm0Start.c ****         #pragma language=extended
  54:.\Generated_Source\PSoC4/Cm0Start.c ****         #pragma segment="CSTACK"
  55:.\Generated_Source\PSoC4/Cm0Start.c ****         #define CY_SYS_INITIAL_STACK_POINTER  { .__ptr = __sfe( "CSTACK" ) }
  56:.\Generated_Source\PSoC4/Cm0Start.c **** 
  57:.\Generated_Source\PSoC4/Cm0Start.c ****         extern void __iar_program_start( void );
  58:.\Generated_Source\PSoC4/Cm0Start.c ****         extern void __iar_data_init3 (void);
  59:.\Generated_Source\PSoC4/Cm0Start.c ****     #endif  /* (__ARMCC_VERSION) */
  60:.\Generated_Source\PSoC4/Cm0Start.c **** 
  61:.\Generated_Source\PSoC4/Cm0Start.c **** #endif /* CY_SYS_INITIAL_STACK_POINTER */
  62:.\Generated_Source\PSoC4/Cm0Start.c **** 
  63:.\Generated_Source\PSoC4/Cm0Start.c **** 
  64:.\Generated_Source\PSoC4/Cm0Start.c **** #if defined(__GNUC__)
  65:.\Generated_Source\PSoC4/Cm0Start.c ****     #include <errno.h>
  66:.\Generated_Source\PSoC4/Cm0Start.c ****     extern int  errno;
  67:.\Generated_Source\PSoC4/Cm0Start.c ****     extern int  end;
  68:.\Generated_Source\PSoC4/Cm0Start.c **** #endif  /* defined(__GNUC__) */
  69:.\Generated_Source\PSoC4/Cm0Start.c **** 
  70:.\Generated_Source\PSoC4/Cm0Start.c **** /* Extern functions */
  71:.\Generated_Source\PSoC4/Cm0Start.c **** extern void CyBtldr_CheckLaunch(void);
  72:.\Generated_Source\PSoC4/Cm0Start.c **** 
  73:.\Generated_Source\PSoC4/Cm0Start.c **** /* Function prototypes */
  74:.\Generated_Source\PSoC4/Cm0Start.c **** void initialize_psoc(void);
  75:.\Generated_Source\PSoC4/Cm0Start.c **** 
  76:.\Generated_Source\PSoC4/Cm0Start.c **** /* Global variables */
ARM GAS  C:\Users\LUKASC~1\AppData\Local\Temp\ccb4CB1g.s 			page 3


  77:.\Generated_Source\PSoC4/Cm0Start.c **** #if !defined (__ICCARM__)
  78:.\Generated_Source\PSoC4/Cm0Start.c ****     CY_NOINIT static uint32 cySysNoInitDataValid;
  79:.\Generated_Source\PSoC4/Cm0Start.c **** #endif  /* !defined (__ICCARM__) */
  80:.\Generated_Source\PSoC4/Cm0Start.c **** 
  81:.\Generated_Source\PSoC4/Cm0Start.c **** 
  82:.\Generated_Source\PSoC4/Cm0Start.c **** #if (CYDEV_PROJ_TYPE != CYDEV_PROJ_TYPE_STANDARD)
  83:.\Generated_Source\PSoC4/Cm0Start.c **** 
  84:.\Generated_Source\PSoC4/Cm0Start.c ****     /*******************************************************************************
  85:.\Generated_Source\PSoC4/Cm0Start.c ****     This variable is used by the Bootloader/Bootloadable components to schedule
  86:.\Generated_Source\PSoC4/Cm0Start.c ****     what application will be started after a software reset.
  87:.\Generated_Source\PSoC4/Cm0Start.c ****     *******************************************************************************/
  88:.\Generated_Source\PSoC4/Cm0Start.c ****     #if (__ARMCC_VERSION)
  89:.\Generated_Source\PSoC4/Cm0Start.c ****         __attribute__ ((section(".bootloaderruntype"), zero_init))
  90:.\Generated_Source\PSoC4/Cm0Start.c ****     #elif defined (__GNUC__)
  91:.\Generated_Source\PSoC4/Cm0Start.c ****         __attribute__ ((section(".bootloaderruntype")))
  92:.\Generated_Source\PSoC4/Cm0Start.c ****     #elif defined (__ICCARM__)
  93:.\Generated_Source\PSoC4/Cm0Start.c ****         #pragma location=".bootloaderruntype"
  94:.\Generated_Source\PSoC4/Cm0Start.c ****     #endif /* (__ARMCC_VERSION) */
  95:.\Generated_Source\PSoC4/Cm0Start.c ****     volatile uint32 cyBtldrRunType;
  96:.\Generated_Source\PSoC4/Cm0Start.c **** 
  97:.\Generated_Source\PSoC4/Cm0Start.c **** #endif  /* (CYDEV_PROJ_TYPE != CYDEV_PROJ_TYPE_STANDARD) */
  98:.\Generated_Source\PSoC4/Cm0Start.c **** 
  99:.\Generated_Source\PSoC4/Cm0Start.c **** 
 100:.\Generated_Source\PSoC4/Cm0Start.c **** /*******************************************************************************
 101:.\Generated_Source\PSoC4/Cm0Start.c **** * Function Name: IntDefaultHandler
 102:.\Generated_Source\PSoC4/Cm0Start.c **** ****************************************************************************//**
 103:.\Generated_Source\PSoC4/Cm0Start.c **** *
 104:.\Generated_Source\PSoC4/Cm0Start.c **** *  This function is called for all interrupts, other than a reset that is called
 105:.\Generated_Source\PSoC4/Cm0Start.c **** *  before the system is setup.
 106:.\Generated_Source\PSoC4/Cm0Start.c **** *
 107:.\Generated_Source\PSoC4/Cm0Start.c **** *******************************************************************************/
 108:.\Generated_Source\PSoC4/Cm0Start.c **** CY_NORETURN
 109:.\Generated_Source\PSoC4/Cm0Start.c **** CY_ISR(IntDefaultHandler)
 110:.\Generated_Source\PSoC4/Cm0Start.c **** {
  39              		.loc 1 110 0
  40              		.cfi_startproc
  41 0000 80B5     		push	{r7, lr}
  42              		.cfi_def_cfa_offset 8
  43              		.cfi_offset 7, -8
  44              		.cfi_offset 14, -4
  45 0002 00AF     		add	r7, sp, #0
  46              		.cfi_def_cfa_register 7
  47              	.L2:
 111:.\Generated_Source\PSoC4/Cm0Start.c ****     /***************************************************************************
 112:.\Generated_Source\PSoC4/Cm0Start.c ****     * We must not get here. If we do, a serious problem occurs, so go into
 113:.\Generated_Source\PSoC4/Cm0Start.c ****     * an infinite loop.
 114:.\Generated_Source\PSoC4/Cm0Start.c ****     ***************************************************************************/
 115:.\Generated_Source\PSoC4/Cm0Start.c **** 
 116:.\Generated_Source\PSoC4/Cm0Start.c ****     #ifdef CY_BOOT_INT_DEFAULT_HANDLER_EXCEPTION_ENTRY_CALLBACK
 117:.\Generated_Source\PSoC4/Cm0Start.c ****         CyBoot_IntDefaultHandler_Exception_EntryCallback();
 118:.\Generated_Source\PSoC4/Cm0Start.c ****     #endif /* CY_BOOT_INT_DEFAULT_HANDLER_EXCEPTION_ENTRY_CALLBACK */
 119:.\Generated_Source\PSoC4/Cm0Start.c **** 
 120:.\Generated_Source\PSoC4/Cm0Start.c ****     while(1)
 121:.\Generated_Source\PSoC4/Cm0Start.c ****     {
 122:.\Generated_Source\PSoC4/Cm0Start.c **** 
 123:.\Generated_Source\PSoC4/Cm0Start.c ****     }
  48              		.loc 1 123 0 discriminator 1
ARM GAS  C:\Users\LUKASC~1\AppData\Local\Temp\ccb4CB1g.s 			page 4


  49 0004 FEE7     		b	.L2
  50              		.cfi_endproc
  51              	.LFE0:
  52              		.size	IntDefaultHandler, .-IntDefaultHandler
  53 0006 C046     		.section	.text._exit,"ax",%progbits
  54              		.align	2
  55              		.weak	_exit
  56              		.code	16
  57              		.thumb_func
  58              		.type	_exit, %function
  59              	_exit:
  60              	.LFB1:
 124:.\Generated_Source\PSoC4/Cm0Start.c **** }
 125:.\Generated_Source\PSoC4/Cm0Start.c **** 
 126:.\Generated_Source\PSoC4/Cm0Start.c **** #if defined(__ARMCC_VERSION)
 127:.\Generated_Source\PSoC4/Cm0Start.c **** 
 128:.\Generated_Source\PSoC4/Cm0Start.c **** /* Local function for device reset. */
 129:.\Generated_Source\PSoC4/Cm0Start.c **** extern void Reset(void);
 130:.\Generated_Source\PSoC4/Cm0Start.c **** 
 131:.\Generated_Source\PSoC4/Cm0Start.c **** /* Application entry point. */
 132:.\Generated_Source\PSoC4/Cm0Start.c **** extern void $Super$$main(void);
 133:.\Generated_Source\PSoC4/Cm0Start.c **** 
 134:.\Generated_Source\PSoC4/Cm0Start.c **** /* Linker-generated Stack Base addresses, Two Region and One Region */
 135:.\Generated_Source\PSoC4/Cm0Start.c **** extern unsigned long Image$$ARM_LIB_STACK$$ZI$$Limit;
 136:.\Generated_Source\PSoC4/Cm0Start.c **** 
 137:.\Generated_Source\PSoC4/Cm0Start.c **** /* RealView C Library initialization. */
 138:.\Generated_Source\PSoC4/Cm0Start.c **** extern int __main(void);
 139:.\Generated_Source\PSoC4/Cm0Start.c **** 
 140:.\Generated_Source\PSoC4/Cm0Start.c **** 
 141:.\Generated_Source\PSoC4/Cm0Start.c **** /*******************************************************************************
 142:.\Generated_Source\PSoC4/Cm0Start.c **** * Function Name: Reset
 143:.\Generated_Source\PSoC4/Cm0Start.c **** ****************************************************************************//**
 144:.\Generated_Source\PSoC4/Cm0Start.c **** *
 145:.\Generated_Source\PSoC4/Cm0Start.c **** * This function handles the reset interrupt for the MDK toolchains.
 146:.\Generated_Source\PSoC4/Cm0Start.c **** * This is the first bit of code that is executed at startup.
 147:.\Generated_Source\PSoC4/Cm0Start.c **** *
 148:.\Generated_Source\PSoC4/Cm0Start.c **** *******************************************************************************/
 149:.\Generated_Source\PSoC4/Cm0Start.c **** void Reset(void)
 150:.\Generated_Source\PSoC4/Cm0Start.c **** {
 151:.\Generated_Source\PSoC4/Cm0Start.c ****     #if (CYDEV_PROJ_TYPE == CYDEV_PROJ_TYPE_LOADABLE || CYDEV_PROJ_TYPE == CYDEV_PROJ_TYPE_LOADABLE
 152:.\Generated_Source\PSoC4/Cm0Start.c ****         /* The bootloadable application image is started at Reset() handler
 153:.\Generated_Source\PSoC4/Cm0Start.c ****         * as a result of a branch instruction execution from the bootloader.
 154:.\Generated_Source\PSoC4/Cm0Start.c ****         * So, the stack pointer needs to be reset to be sure that
 155:.\Generated_Source\PSoC4/Cm0Start.c ****         * there is no garbage in the stack.
 156:.\Generated_Source\PSoC4/Cm0Start.c ****         */
 157:.\Generated_Source\PSoC4/Cm0Start.c ****         register uint32_t msp __asm("msp");
 158:.\Generated_Source\PSoC4/Cm0Start.c ****         msp = (uint32_t)&Image$$ARM_LIB_STACK$$ZI$$Limit;
 159:.\Generated_Source\PSoC4/Cm0Start.c ****     #endif /*(CYDEV_PROJ_TYPE == CYDEV_PROJ_TYPE_LOADABLE || CYDEV_PROJ_TYPE == CYDEV_PROJ_TYPE_LOA
 160:.\Generated_Source\PSoC4/Cm0Start.c **** 
 161:.\Generated_Source\PSoC4/Cm0Start.c ****     #if(CY_IP_SRSSLT)
 162:.\Generated_Source\PSoC4/Cm0Start.c ****         CySysWdtDisable();
 163:.\Generated_Source\PSoC4/Cm0Start.c ****     #endif  /* (CY_IP_SRSSLT) */
 164:.\Generated_Source\PSoC4/Cm0Start.c **** 
 165:.\Generated_Source\PSoC4/Cm0Start.c ****     #if ((CYDEV_BOOTLOADER_ENABLE) && (CYDEV_PROJ_TYPE != CYDEV_PROJ_TYPE_LOADABLEANDBOOTLOADER))
 166:.\Generated_Source\PSoC4/Cm0Start.c ****         CyBtldr_CheckLaunch();
 167:.\Generated_Source\PSoC4/Cm0Start.c ****     #endif /* ((CYDEV_BOOTLOADER_ENABLE) && (CYDEV_PROJ_TYPE != CYDEV_PROJ_TYPE_LOADABLEANDBOOTLOAD
 168:.\Generated_Source\PSoC4/Cm0Start.c **** 
ARM GAS  C:\Users\LUKASC~1\AppData\Local\Temp\ccb4CB1g.s 			page 5


 169:.\Generated_Source\PSoC4/Cm0Start.c ****     __main();
 170:.\Generated_Source\PSoC4/Cm0Start.c **** }
 171:.\Generated_Source\PSoC4/Cm0Start.c **** 
 172:.\Generated_Source\PSoC4/Cm0Start.c **** /*******************************************************************************
 173:.\Generated_Source\PSoC4/Cm0Start.c **** * Function Name: $Sub$$main
 174:.\Generated_Source\PSoC4/Cm0Start.c **** ****************************************************************************//**
 175:.\Generated_Source\PSoC4/Cm0Start.c **** *
 176:.\Generated_Source\PSoC4/Cm0Start.c **** * This function is called immediately before the users main
 177:.\Generated_Source\PSoC4/Cm0Start.c **** *
 178:.\Generated_Source\PSoC4/Cm0Start.c **** *******************************************************************************/
 179:.\Generated_Source\PSoC4/Cm0Start.c **** __attribute__ ((noreturn, __noinline__))
 180:.\Generated_Source\PSoC4/Cm0Start.c **** void $Sub$$main(void)
 181:.\Generated_Source\PSoC4/Cm0Start.c **** {
 182:.\Generated_Source\PSoC4/Cm0Start.c ****     initialize_psoc();
 183:.\Generated_Source\PSoC4/Cm0Start.c **** 
 184:.\Generated_Source\PSoC4/Cm0Start.c ****     /* Call original main */
 185:.\Generated_Source\PSoC4/Cm0Start.c ****     $Super$$main();
 186:.\Generated_Source\PSoC4/Cm0Start.c **** 
 187:.\Generated_Source\PSoC4/Cm0Start.c ****     while (1)
 188:.\Generated_Source\PSoC4/Cm0Start.c ****     {
 189:.\Generated_Source\PSoC4/Cm0Start.c ****         /* If main returns it is undefined what we should do. */
 190:.\Generated_Source\PSoC4/Cm0Start.c ****     }
 191:.\Generated_Source\PSoC4/Cm0Start.c **** }
 192:.\Generated_Source\PSoC4/Cm0Start.c **** 
 193:.\Generated_Source\PSoC4/Cm0Start.c **** #elif defined(__GNUC__)
 194:.\Generated_Source\PSoC4/Cm0Start.c **** 
 195:.\Generated_Source\PSoC4/Cm0Start.c **** /* Stack Base address */
 196:.\Generated_Source\PSoC4/Cm0Start.c **** extern void __cy_stack(void);
 197:.\Generated_Source\PSoC4/Cm0Start.c **** 
 198:.\Generated_Source\PSoC4/Cm0Start.c **** /* Application entry point. */
 199:.\Generated_Source\PSoC4/Cm0Start.c **** extern int main(void);
 200:.\Generated_Source\PSoC4/Cm0Start.c **** 
 201:.\Generated_Source\PSoC4/Cm0Start.c **** /* The static objects constructors initializer */
 202:.\Generated_Source\PSoC4/Cm0Start.c **** extern void __libc_init_array(void);
 203:.\Generated_Source\PSoC4/Cm0Start.c **** 
 204:.\Generated_Source\PSoC4/Cm0Start.c **** typedef unsigned char __cy_byte_align8 __attribute ((aligned (8)));
 205:.\Generated_Source\PSoC4/Cm0Start.c **** 
 206:.\Generated_Source\PSoC4/Cm0Start.c **** struct __cy_region
 207:.\Generated_Source\PSoC4/Cm0Start.c **** {
 208:.\Generated_Source\PSoC4/Cm0Start.c ****     __cy_byte_align8 *init; /* Initial contents of this region.  */
 209:.\Generated_Source\PSoC4/Cm0Start.c ****     __cy_byte_align8 *data; /* Start address of region.  */
 210:.\Generated_Source\PSoC4/Cm0Start.c ****     size_t init_size;       /* Size of initial data.  */
 211:.\Generated_Source\PSoC4/Cm0Start.c ****     size_t zero_size;       /* Additional size to be zeroed.  */
 212:.\Generated_Source\PSoC4/Cm0Start.c **** };
 213:.\Generated_Source\PSoC4/Cm0Start.c **** 
 214:.\Generated_Source\PSoC4/Cm0Start.c **** extern const struct __cy_region __cy_regions[];
 215:.\Generated_Source\PSoC4/Cm0Start.c **** extern const char __cy_region_num __attribute__((weak));
 216:.\Generated_Source\PSoC4/Cm0Start.c **** #define __cy_region_num ((size_t)&__cy_region_num)
 217:.\Generated_Source\PSoC4/Cm0Start.c **** 
 218:.\Generated_Source\PSoC4/Cm0Start.c **** 
 219:.\Generated_Source\PSoC4/Cm0Start.c **** /*******************************************************************************
 220:.\Generated_Source\PSoC4/Cm0Start.c **** * System Calls of the Red Hat newlib C Library
 221:.\Generated_Source\PSoC4/Cm0Start.c **** *******************************************************************************/
 222:.\Generated_Source\PSoC4/Cm0Start.c **** 
 223:.\Generated_Source\PSoC4/Cm0Start.c **** 
 224:.\Generated_Source\PSoC4/Cm0Start.c **** /*******************************************************************************
 225:.\Generated_Source\PSoC4/Cm0Start.c **** * Function Name: _exit
ARM GAS  C:\Users\LUKASC~1\AppData\Local\Temp\ccb4CB1g.s 			page 6


 226:.\Generated_Source\PSoC4/Cm0Start.c **** ****************************************************************************//**
 227:.\Generated_Source\PSoC4/Cm0Start.c **** *
 228:.\Generated_Source\PSoC4/Cm0Start.c **** * Exit a program without cleaning up files. If your system doesn't provide
 229:.\Generated_Source\PSoC4/Cm0Start.c **** * this, it is best to avoid linking with subroutines that require it (exit,
 230:.\Generated_Source\PSoC4/Cm0Start.c **** * system).
 231:.\Generated_Source\PSoC4/Cm0Start.c **** *
 232:.\Generated_Source\PSoC4/Cm0Start.c **** * \param status: Status caused program exit.
 233:.\Generated_Source\PSoC4/Cm0Start.c **** *
 234:.\Generated_Source\PSoC4/Cm0Start.c **** *******************************************************************************/
 235:.\Generated_Source\PSoC4/Cm0Start.c **** __attribute__((weak))
 236:.\Generated_Source\PSoC4/Cm0Start.c **** void _exit(int status)
 237:.\Generated_Source\PSoC4/Cm0Start.c **** {
  61              		.loc 1 237 0
  62              		.cfi_startproc
  63 0000 80B5     		push	{r7, lr}
  64              		.cfi_def_cfa_offset 8
  65              		.cfi_offset 7, -8
  66              		.cfi_offset 14, -4
  67 0002 82B0     		sub	sp, sp, #8
  68              		.cfi_def_cfa_offset 16
  69 0004 00AF     		add	r7, sp, #0
  70              		.cfi_def_cfa_register 7
  71 0006 7860     		str	r0, [r7, #4]
 238:.\Generated_Source\PSoC4/Cm0Start.c ****     CyHalt((uint8) status);
  72              		.loc 1 238 0
  73 0008 7B68     		ldr	r3, [r7, #4]
  74 000a DBB2     		uxtb	r3, r3
  75 000c 181C     		mov	r0, r3
  76 000e FFF7FEFF 		bl	CyHalt
  77              	.L4:
 239:.\Generated_Source\PSoC4/Cm0Start.c **** 
 240:.\Generated_Source\PSoC4/Cm0Start.c ****     while(1)
 241:.\Generated_Source\PSoC4/Cm0Start.c ****     {
 242:.\Generated_Source\PSoC4/Cm0Start.c **** 
 243:.\Generated_Source\PSoC4/Cm0Start.c ****     }
  78              		.loc 1 243 0 discriminator 1
  79 0012 FEE7     		b	.L4
  80              		.cfi_endproc
  81              	.LFE1:
  82              		.size	_exit, .-_exit
  83              		.section	.text._sbrk,"ax",%progbits
  84              		.align	2
  85              		.weak	_sbrk
  86              		.code	16
  87              		.thumb_func
  88              		.type	_sbrk, %function
  89              	_sbrk:
  90              	.LFB2:
 244:.\Generated_Source\PSoC4/Cm0Start.c **** }
 245:.\Generated_Source\PSoC4/Cm0Start.c **** 
 246:.\Generated_Source\PSoC4/Cm0Start.c **** 
 247:.\Generated_Source\PSoC4/Cm0Start.c **** /*******************************************************************************
 248:.\Generated_Source\PSoC4/Cm0Start.c **** * Function Name: _sbrk
 249:.\Generated_Source\PSoC4/Cm0Start.c **** ****************************************************************************//**
 250:.\Generated_Source\PSoC4/Cm0Start.c **** *
 251:.\Generated_Source\PSoC4/Cm0Start.c **** * Increase program data space. As malloc and related functions depend on this,
 252:.\Generated_Source\PSoC4/Cm0Start.c **** * it is useful to have a working implementation. The following suffices for a
ARM GAS  C:\Users\LUKASC~1\AppData\Local\Temp\ccb4CB1g.s 			page 7


 253:.\Generated_Source\PSoC4/Cm0Start.c **** * standalone system; it exploits the symbol end automatically defined by the
 254:.\Generated_Source\PSoC4/Cm0Start.c **** * GNU linker.
 255:.\Generated_Source\PSoC4/Cm0Start.c **** *
 256:.\Generated_Source\PSoC4/Cm0Start.c **** * \param nbytes: The number of bytes requested (if the parameter value is positive)
 257:.\Generated_Source\PSoC4/Cm0Start.c **** * from the heap or returned back to the heap (if the parameter value is
 258:.\Generated_Source\PSoC4/Cm0Start.c **** * negative).
 259:.\Generated_Source\PSoC4/Cm0Start.c **** *
 260:.\Generated_Source\PSoC4/Cm0Start.c **** *******************************************************************************/
 261:.\Generated_Source\PSoC4/Cm0Start.c **** __attribute__((weak))
 262:.\Generated_Source\PSoC4/Cm0Start.c **** void * _sbrk (int nbytes)
 263:.\Generated_Source\PSoC4/Cm0Start.c **** {
  91              		.loc 1 263 0
  92              		.cfi_startproc
  93 0000 80B5     		push	{r7, lr}
  94              		.cfi_def_cfa_offset 8
  95              		.cfi_offset 7, -8
  96              		.cfi_offset 14, -4
  97 0002 84B0     		sub	sp, sp, #16
  98              		.cfi_def_cfa_offset 24
  99 0004 00AF     		add	r7, sp, #0
 100              		.cfi_def_cfa_register 7
 101 0006 7860     		str	r0, [r7, #4]
 264:.\Generated_Source\PSoC4/Cm0Start.c ****     extern int  end;            /* Symbol defined by linker map. Start of free memory (as symbol). 
 265:.\Generated_Source\PSoC4/Cm0Start.c ****     void *      returnValue;
 266:.\Generated_Source\PSoC4/Cm0Start.c **** 
 267:.\Generated_Source\PSoC4/Cm0Start.c ****     /* The statically held previous end of the heap, with its initialization. */
 268:.\Generated_Source\PSoC4/Cm0Start.c ****     static void *heapPointer = (void *) &end;                 /* Previous end */
 269:.\Generated_Source\PSoC4/Cm0Start.c **** 
 270:.\Generated_Source\PSoC4/Cm0Start.c ****     if (((heapPointer + nbytes) - (void *) &end) <= CYDEV_HEAP_SIZE)
 102              		.loc 1 270 0
 103 0008 104B     		ldr	r3, .L9
 104 000a 1A68     		ldr	r2, [r3]
 105 000c 7B68     		ldr	r3, [r7, #4]
 106 000e D318     		add	r3, r2, r3
 107 0010 1A1C     		mov	r2, r3
 108 0012 0F4B     		ldr	r3, .L9+4
 109 0014 D21A     		sub	r2, r2, r3
 110 0016 8023     		mov	r3, #128
 111 0018 5B00     		lsl	r3, r3, #1
 112 001a 9A42     		cmp	r2, r3
 113 001c 09DC     		bgt	.L6
 271:.\Generated_Source\PSoC4/Cm0Start.c ****     {
 272:.\Generated_Source\PSoC4/Cm0Start.c ****         returnValue  = heapPointer;
 114              		.loc 1 272 0
 115 001e 0B4B     		ldr	r3, .L9
 116 0020 1B68     		ldr	r3, [r3]
 117 0022 FB60     		str	r3, [r7, #12]
 273:.\Generated_Source\PSoC4/Cm0Start.c ****         heapPointer += nbytes;
 118              		.loc 1 273 0
 119 0024 094B     		ldr	r3, .L9
 120 0026 1A68     		ldr	r2, [r3]
 121 0028 7B68     		ldr	r3, [r7, #4]
 122 002a D218     		add	r2, r2, r3
 123 002c 074B     		ldr	r3, .L9
 124 002e 1A60     		str	r2, [r3]
 125 0030 07E0     		b	.L7
 126              	.L6:
ARM GAS  C:\Users\LUKASC~1\AppData\Local\Temp\ccb4CB1g.s 			page 8


 274:.\Generated_Source\PSoC4/Cm0Start.c ****     }
 275:.\Generated_Source\PSoC4/Cm0Start.c ****     else
 276:.\Generated_Source\PSoC4/Cm0Start.c ****     {
 277:.\Generated_Source\PSoC4/Cm0Start.c ****         errno = ENOMEM;
 127              		.loc 1 277 0
 128 0032 FFF7FEFF 		bl	__errno
 129 0036 031C     		mov	r3, r0
 130 0038 0C22     		mov	r2, #12
 131 003a 1A60     		str	r2, [r3]
 278:.\Generated_Source\PSoC4/Cm0Start.c ****         returnValue = (void *) -1;
 132              		.loc 1 278 0
 133 003c 0123     		mov	r3, #1
 134 003e 5B42     		neg	r3, r3
 135 0040 FB60     		str	r3, [r7, #12]
 136              	.L7:
 279:.\Generated_Source\PSoC4/Cm0Start.c ****     }
 280:.\Generated_Source\PSoC4/Cm0Start.c **** 
 281:.\Generated_Source\PSoC4/Cm0Start.c ****     return (returnValue);
 137              		.loc 1 281 0
 138 0042 FB68     		ldr	r3, [r7, #12]
 282:.\Generated_Source\PSoC4/Cm0Start.c **** }
 139              		.loc 1 282 0
 140 0044 181C     		mov	r0, r3
 141 0046 BD46     		mov	sp, r7
 142 0048 04B0     		add	sp, sp, #16
 143              		@ sp needed
 144 004a 80BD     		pop	{r7, pc}
 145              	.L10:
 146              		.align	2
 147              	.L9:
 148 004c 00000000 		.word	heapPointer.4723
 149 0050 00000000 		.word	end
 150              		.cfi_endproc
 151              	.LFE2:
 152              		.size	_sbrk, .-_sbrk
 153              		.section	.text.Start_c,"ax",%progbits
 154              		.align	2
 155              		.global	Start_c
 156              		.code	16
 157              		.thumb_func
 158              		.type	Start_c, %function
 159              	Start_c:
 160              	.LFB3:
 283:.\Generated_Source\PSoC4/Cm0Start.c **** 
 284:.\Generated_Source\PSoC4/Cm0Start.c **** 
 285:.\Generated_Source\PSoC4/Cm0Start.c **** /*******************************************************************************
 286:.\Generated_Source\PSoC4/Cm0Start.c **** * Function Name: Start_c
 287:.\Generated_Source\PSoC4/Cm0Start.c **** ****************************************************************************//**
 288:.\Generated_Source\PSoC4/Cm0Start.c **** *
 289:.\Generated_Source\PSoC4/Cm0Start.c **** * This function handles initializing the .data and .bss sections in
 290:.\Generated_Source\PSoC4/Cm0Start.c **** * preparation for running the standard c code.  Once initialization is complete
 291:.\Generated_Source\PSoC4/Cm0Start.c **** * it will call main().  This function will never return.
 292:.\Generated_Source\PSoC4/Cm0Start.c **** *
 293:.\Generated_Source\PSoC4/Cm0Start.c **** *******************************************************************************/
 294:.\Generated_Source\PSoC4/Cm0Start.c **** void Start_c(void)  __attribute__ ((noreturn, noinline));
 295:.\Generated_Source\PSoC4/Cm0Start.c **** void Start_c(void)
 296:.\Generated_Source\PSoC4/Cm0Start.c **** {
ARM GAS  C:\Users\LUKASC~1\AppData\Local\Temp\ccb4CB1g.s 			page 9


 161              		.loc 1 296 0
 162              		.cfi_startproc
 163 0000 80B5     		push	{r7, lr}
 164              		.cfi_def_cfa_offset 8
 165              		.cfi_offset 7, -8
 166              		.cfi_offset 14, -4
 167 0002 86B0     		sub	sp, sp, #24
 168              		.cfi_def_cfa_offset 32
 169 0004 00AF     		add	r7, sp, #0
 170              		.cfi_def_cfa_register 7
 297:.\Generated_Source\PSoC4/Cm0Start.c ****     #ifdef CY_BOOT_START_C_CALLBACK
 298:.\Generated_Source\PSoC4/Cm0Start.c ****         CyBoot_Start_c_Callback();
 299:.\Generated_Source\PSoC4/Cm0Start.c ****     #else
 300:.\Generated_Source\PSoC4/Cm0Start.c ****         unsigned regions = __cy_region_num;
 171              		.loc 1 300 0
 172 0006 224B     		ldr	r3, .L19
 173 0008 7B61     		str	r3, [r7, #20]
 301:.\Generated_Source\PSoC4/Cm0Start.c ****         const struct __cy_region *rptr = __cy_regions;
 174              		.loc 1 301 0
 175 000a 224B     		ldr	r3, .L19+4
 176 000c 3B61     		str	r3, [r7, #16]
 302:.\Generated_Source\PSoC4/Cm0Start.c **** 
 303:.\Generated_Source\PSoC4/Cm0Start.c ****         /* Initialize memory */
 304:.\Generated_Source\PSoC4/Cm0Start.c ****         for (regions = __cy_region_num; regions != 0u; regions--)
 177              		.loc 1 304 0
 178 000e 204B     		ldr	r3, .L19
 179 0010 7B61     		str	r3, [r7, #20]
 180 0012 35E0     		b	.L12
 181              	.L17:
 182              	.LBB2:
 305:.\Generated_Source\PSoC4/Cm0Start.c ****         {
 306:.\Generated_Source\PSoC4/Cm0Start.c ****             uint32 *src = (uint32 *)rptr->init;
 183              		.loc 1 306 0
 184 0014 3B69     		ldr	r3, [r7, #16]
 185 0016 1B68     		ldr	r3, [r3]
 186 0018 FB60     		str	r3, [r7, #12]
 307:.\Generated_Source\PSoC4/Cm0Start.c ****             uint32 *dst = (uint32 *)rptr->data;
 187              		.loc 1 307 0
 188 001a 3B69     		ldr	r3, [r7, #16]
 189 001c 5B68     		ldr	r3, [r3, #4]
 190 001e BB60     		str	r3, [r7, #8]
 308:.\Generated_Source\PSoC4/Cm0Start.c ****             unsigned limit = rptr->init_size;
 191              		.loc 1 308 0
 192 0020 3B69     		ldr	r3, [r7, #16]
 193 0022 9B68     		ldr	r3, [r3, #8]
 194 0024 3B60     		str	r3, [r7]
 309:.\Generated_Source\PSoC4/Cm0Start.c ****             unsigned count;
 310:.\Generated_Source\PSoC4/Cm0Start.c **** 
 311:.\Generated_Source\PSoC4/Cm0Start.c ****             for (count = 0u; count != limit; count += sizeof (uint32))
 195              		.loc 1 311 0
 196 0026 0023     		mov	r3, #0
 197 0028 7B60     		str	r3, [r7, #4]
 198 002a 0CE0     		b	.L13
 199              	.L14:
 312:.\Generated_Source\PSoC4/Cm0Start.c ****             {
 313:.\Generated_Source\PSoC4/Cm0Start.c ****                 *dst = *src;
 200              		.loc 1 313 0 discriminator 3
ARM GAS  C:\Users\LUKASC~1\AppData\Local\Temp\ccb4CB1g.s 			page 10


 201 002c FB68     		ldr	r3, [r7, #12]
 202 002e 1A68     		ldr	r2, [r3]
 203 0030 BB68     		ldr	r3, [r7, #8]
 204 0032 1A60     		str	r2, [r3]
 314:.\Generated_Source\PSoC4/Cm0Start.c ****                 dst++;
 205              		.loc 1 314 0 discriminator 3
 206 0034 BB68     		ldr	r3, [r7, #8]
 207 0036 0433     		add	r3, r3, #4
 208 0038 BB60     		str	r3, [r7, #8]
 315:.\Generated_Source\PSoC4/Cm0Start.c ****                 src++;
 209              		.loc 1 315 0 discriminator 3
 210 003a FB68     		ldr	r3, [r7, #12]
 211 003c 0433     		add	r3, r3, #4
 212 003e FB60     		str	r3, [r7, #12]
 311:.\Generated_Source\PSoC4/Cm0Start.c ****             {
 213              		.loc 1 311 0 discriminator 3
 214 0040 7B68     		ldr	r3, [r7, #4]
 215 0042 0433     		add	r3, r3, #4
 216 0044 7B60     		str	r3, [r7, #4]
 217              	.L13:
 311:.\Generated_Source\PSoC4/Cm0Start.c ****             {
 218              		.loc 1 311 0 is_stmt 0 discriminator 1
 219 0046 7A68     		ldr	r2, [r7, #4]
 220 0048 3B68     		ldr	r3, [r7]
 221 004a 9A42     		cmp	r2, r3
 222 004c EED1     		bne	.L14
 316:.\Generated_Source\PSoC4/Cm0Start.c ****             }
 317:.\Generated_Source\PSoC4/Cm0Start.c ****             limit = rptr->zero_size;
 223              		.loc 1 317 0 is_stmt 1
 224 004e 3B69     		ldr	r3, [r7, #16]
 225 0050 DB68     		ldr	r3, [r3, #12]
 226 0052 3B60     		str	r3, [r7]
 318:.\Generated_Source\PSoC4/Cm0Start.c ****             for (count = 0u; count != limit; count += sizeof (uint32))
 227              		.loc 1 318 0
 228 0054 0023     		mov	r3, #0
 229 0056 7B60     		str	r3, [r7, #4]
 230 0058 08E0     		b	.L15
 231              	.L16:
 319:.\Generated_Source\PSoC4/Cm0Start.c ****             {
 320:.\Generated_Source\PSoC4/Cm0Start.c ****                 *dst = 0u;
 232              		.loc 1 320 0 discriminator 3
 233 005a BB68     		ldr	r3, [r7, #8]
 234 005c 0022     		mov	r2, #0
 235 005e 1A60     		str	r2, [r3]
 321:.\Generated_Source\PSoC4/Cm0Start.c ****                 dst++;
 236              		.loc 1 321 0 discriminator 3
 237 0060 BB68     		ldr	r3, [r7, #8]
 238 0062 0433     		add	r3, r3, #4
 239 0064 BB60     		str	r3, [r7, #8]
 318:.\Generated_Source\PSoC4/Cm0Start.c ****             for (count = 0u; count != limit; count += sizeof (uint32))
 240              		.loc 1 318 0 discriminator 3
 241 0066 7B68     		ldr	r3, [r7, #4]
 242 0068 0433     		add	r3, r3, #4
 243 006a 7B60     		str	r3, [r7, #4]
 244              	.L15:
 318:.\Generated_Source\PSoC4/Cm0Start.c ****             for (count = 0u; count != limit; count += sizeof (uint32))
 245              		.loc 1 318 0 is_stmt 0 discriminator 1
ARM GAS  C:\Users\LUKASC~1\AppData\Local\Temp\ccb4CB1g.s 			page 11


 246 006c 7A68     		ldr	r2, [r7, #4]
 247 006e 3B68     		ldr	r3, [r7]
 248 0070 9A42     		cmp	r2, r3
 249 0072 F2D1     		bne	.L16
 322:.\Generated_Source\PSoC4/Cm0Start.c ****             }
 323:.\Generated_Source\PSoC4/Cm0Start.c **** 
 324:.\Generated_Source\PSoC4/Cm0Start.c ****             rptr++;
 250              		.loc 1 324 0 is_stmt 1 discriminator 2
 251 0074 3B69     		ldr	r3, [r7, #16]
 252 0076 1033     		add	r3, r3, #16
 253 0078 3B61     		str	r3, [r7, #16]
 254              	.LBE2:
 304:.\Generated_Source\PSoC4/Cm0Start.c ****         {
 255              		.loc 1 304 0 discriminator 2
 256 007a 7B69     		ldr	r3, [r7, #20]
 257 007c 013B     		sub	r3, r3, #1
 258 007e 7B61     		str	r3, [r7, #20]
 259              	.L12:
 304:.\Generated_Source\PSoC4/Cm0Start.c ****         {
 260              		.loc 1 304 0 is_stmt 0 discriminator 1
 261 0080 7B69     		ldr	r3, [r7, #20]
 262 0082 002B     		cmp	r3, #0
 263 0084 C6D1     		bne	.L17
 325:.\Generated_Source\PSoC4/Cm0Start.c ****         }
 326:.\Generated_Source\PSoC4/Cm0Start.c **** 
 327:.\Generated_Source\PSoC4/Cm0Start.c ****         /* Invoke static objects constructors */
 328:.\Generated_Source\PSoC4/Cm0Start.c ****         __libc_init_array();
 264              		.loc 1 328 0 is_stmt 1
 265 0086 FFF7FEFF 		bl	__libc_init_array
 329:.\Generated_Source\PSoC4/Cm0Start.c ****         (void) main();
 266              		.loc 1 329 0
 267 008a FFF7FEFF 		bl	main
 268              	.L18:
 330:.\Generated_Source\PSoC4/Cm0Start.c **** 
 331:.\Generated_Source\PSoC4/Cm0Start.c ****         while (1)
 332:.\Generated_Source\PSoC4/Cm0Start.c ****         {
 333:.\Generated_Source\PSoC4/Cm0Start.c ****             /* If main returns, make sure we don't return. */
 334:.\Generated_Source\PSoC4/Cm0Start.c ****         }
 269              		.loc 1 334 0 discriminator 1
 270 008e FEE7     		b	.L18
 271              	.L20:
 272              		.align	2
 273              	.L19:
 274 0090 00000000 		.word	__cy_region_num
 275 0094 00000000 		.word	__cy_regions
 276              		.cfi_endproc
 277              	.LFE3:
 278              		.size	Start_c, .-Start_c
 279              		.section	.text.Reset,"ax",%progbits
 280              		.align	2
 281              		.global	Reset
 282              		.code	16
 283              		.thumb_func
 284              		.type	Reset, %function
 285              	Reset:
 286              	.LFB4:
 335:.\Generated_Source\PSoC4/Cm0Start.c **** 
ARM GAS  C:\Users\LUKASC~1\AppData\Local\Temp\ccb4CB1g.s 			page 12


 336:.\Generated_Source\PSoC4/Cm0Start.c ****     #endif /* CY_BOOT_START_C_CALLBACK */
 337:.\Generated_Source\PSoC4/Cm0Start.c **** }
 338:.\Generated_Source\PSoC4/Cm0Start.c **** 
 339:.\Generated_Source\PSoC4/Cm0Start.c **** 
 340:.\Generated_Source\PSoC4/Cm0Start.c **** /*******************************************************************************
 341:.\Generated_Source\PSoC4/Cm0Start.c **** * Function Name: Reset
 342:.\Generated_Source\PSoC4/Cm0Start.c **** ****************************************************************************//**
 343:.\Generated_Source\PSoC4/Cm0Start.c **** *
 344:.\Generated_Source\PSoC4/Cm0Start.c **** * This function handles the reset interrupt for the GCC toolchain.  This is
 345:.\Generated_Source\PSoC4/Cm0Start.c **** * the first bit of code that is executed at startup.
 346:.\Generated_Source\PSoC4/Cm0Start.c **** *
 347:.\Generated_Source\PSoC4/Cm0Start.c **** *******************************************************************************/
 348:.\Generated_Source\PSoC4/Cm0Start.c **** void Reset(void)
 349:.\Generated_Source\PSoC4/Cm0Start.c **** {
 287              		.loc 1 349 0
 288              		.cfi_startproc
 289 0000 80B5     		push	{r7, lr}
 290              		.cfi_def_cfa_offset 8
 291              		.cfi_offset 7, -8
 292              		.cfi_offset 14, -4
 293 0002 00AF     		add	r7, sp, #0
 294              		.cfi_def_cfa_register 7
 350:.\Generated_Source\PSoC4/Cm0Start.c ****     #if (CYDEV_PROJ_TYPE == CYDEV_PROJ_TYPE_LOADABLE || CYDEV_PROJ_TYPE == CYDEV_PROJ_TYPE_LOADABLE
 351:.\Generated_Source\PSoC4/Cm0Start.c **** 
 352:.\Generated_Source\PSoC4/Cm0Start.c ****         /* The bootloadable application image is started at Reset() handler
 353:.\Generated_Source\PSoC4/Cm0Start.c ****         * as a result of a branch instruction execution from the bootloader.
 354:.\Generated_Source\PSoC4/Cm0Start.c ****         * So, the stack pointer needs to be reset to be sure that
 355:.\Generated_Source\PSoC4/Cm0Start.c ****         * there is no garbage in the stack.
 356:.\Generated_Source\PSoC4/Cm0Start.c ****         */
 357:.\Generated_Source\PSoC4/Cm0Start.c ****         __asm volatile ("MSR msp, %0\n" : : "r" ((uint32)&__cy_stack) : "sp");
 295              		.loc 1 357 0
 296 0004 024B     		ldr	r3, .L22
 297              	@ 357 ".\Generated_Source\PSoC4\Cm0Start.c" 1
 298 0006 83F30888 		MSR msp, r3
 299              	
 300              	@ 0 "" 2
 358:.\Generated_Source\PSoC4/Cm0Start.c ****     #endif /* CYDEV_PROJ_TYPE_LOADABLE */
 359:.\Generated_Source\PSoC4/Cm0Start.c **** 
 360:.\Generated_Source\PSoC4/Cm0Start.c ****     #if(CY_IP_SRSSLT)
 361:.\Generated_Source\PSoC4/Cm0Start.c ****         CySysWdtDisable();
 362:.\Generated_Source\PSoC4/Cm0Start.c ****     #endif  /* (CY_IP_SRSSLT) */
 363:.\Generated_Source\PSoC4/Cm0Start.c **** 
 364:.\Generated_Source\PSoC4/Cm0Start.c ****     #if ((CYDEV_BOOTLOADER_ENABLE) && (CYDEV_PROJ_TYPE != CYDEV_PROJ_TYPE_LOADABLEANDBOOTLOADER))
 365:.\Generated_Source\PSoC4/Cm0Start.c ****         CyBtldr_CheckLaunch();
 366:.\Generated_Source\PSoC4/Cm0Start.c ****     #endif /* ((CYDEV_BOOTLOADER_ENABLE) && (CYDEV_PROJ_TYPE != CYDEV_PROJ_TYPE_LOADABLEANDBOOTLOAD
 367:.\Generated_Source\PSoC4/Cm0Start.c ****     Start_c();
 301              		.loc 1 367 0
 302              		.code	16
 303 000a FFF7FEFF 		bl	Start_c
 304              	.L23:
 305 000e C046     		.align	2
 306              	.L22:
 307 0010 00000000 		.word	__cy_stack
 308              		.cfi_endproc
 309              	.LFE4:
 310              		.size	Reset, .-Reset
 311              		.global	CyRamVectors
ARM GAS  C:\Users\LUKASC~1\AppData\Local\Temp\ccb4CB1g.s 			page 13


 312              		.section	.ramvectors,"aw",%progbits
 313              		.align	2
 314              		.type	CyRamVectors, %object
 315              		.size	CyRamVectors, 192
 316              	CyRamVectors:
 317 0000 00000000 		.space	192
 317      00000000 
 317      00000000 
 317      00000000 
 317      00000000 
 318              		.global	RomVectors
 319              		.section	.romvectors,"a",%progbits
 320              		.align	2
 321              		.type	RomVectors, %object
 322              		.size	RomVectors, 16
 323              	RomVectors:
 324 0000 00000000 		.word	__cy_stack
 325 0004 00000000 		.word	Reset
 326 0008 00000000 		.word	IntDefaultHandler
 327 000c 00000000 		.word	IntDefaultHandler
 328              		.section	.text.initialize_psoc,"ax",%progbits
 329              		.align	2
 330              		.global	initialize_psoc
 331              		.code	16
 332              		.thumb_func
 333              		.type	initialize_psoc, %function
 334              	initialize_psoc:
 335              	.LFB5:
 368:.\Generated_Source\PSoC4/Cm0Start.c **** }
 369:.\Generated_Source\PSoC4/Cm0Start.c **** 
 370:.\Generated_Source\PSoC4/Cm0Start.c **** #elif defined (__ICCARM__)
 371:.\Generated_Source\PSoC4/Cm0Start.c **** 
 372:.\Generated_Source\PSoC4/Cm0Start.c **** 
 373:.\Generated_Source\PSoC4/Cm0Start.c **** /*******************************************************************************
 374:.\Generated_Source\PSoC4/Cm0Start.c **** * Function Name: __low_level_init
 375:.\Generated_Source\PSoC4/Cm0Start.c **** ****************************************************************************//**
 376:.\Generated_Source\PSoC4/Cm0Start.c **** *
 377:.\Generated_Source\PSoC4/Cm0Start.c **** * This function performs early initializations for the IAR Embedded
 378:.\Generated_Source\PSoC4/Cm0Start.c **** * Workbench IDE. It is executed in the context of reset interrupt handler
 379:.\Generated_Source\PSoC4/Cm0Start.c **** * before the data sections are initialized.
 380:.\Generated_Source\PSoC4/Cm0Start.c **** *
 381:.\Generated_Source\PSoC4/Cm0Start.c **** * \return The value that determines whether or not data sections should be
 382:.\Generated_Source\PSoC4/Cm0Start.c **** * initialized by the system startup code:
 383:.\Generated_Source\PSoC4/Cm0Start.c **** *    0 - skip data sections initialization;
 384:.\Generated_Source\PSoC4/Cm0Start.c **** *    1 - initialize data sections;
 385:.\Generated_Source\PSoC4/Cm0Start.c **** *
 386:.\Generated_Source\PSoC4/Cm0Start.c **** *******************************************************************************/
 387:.\Generated_Source\PSoC4/Cm0Start.c **** #pragma inline = never
 388:.\Generated_Source\PSoC4/Cm0Start.c **** int __low_level_init(void)
 389:.\Generated_Source\PSoC4/Cm0Start.c **** {
 390:.\Generated_Source\PSoC4/Cm0Start.c ****     #if(CY_IP_SRSSLT)
 391:.\Generated_Source\PSoC4/Cm0Start.c ****         CySysWdtDisable();
 392:.\Generated_Source\PSoC4/Cm0Start.c ****     #endif  /* (CY_IP_SRSSLT) */
 393:.\Generated_Source\PSoC4/Cm0Start.c **** 
 394:.\Generated_Source\PSoC4/Cm0Start.c **** #if ((CYDEV_BOOTLOADER_ENABLE) && (CYDEV_PROJ_TYPE != CYDEV_PROJ_TYPE_LOADABLEANDBOOTLOADER))
 395:.\Generated_Source\PSoC4/Cm0Start.c ****     CyBtldr_CheckLaunch();
 396:.\Generated_Source\PSoC4/Cm0Start.c **** #endif /* ((CYDEV_BOOTLOADER_ENABLE) && (CYDEV_PROJ_TYPE != CYDEV_PROJ_TYPE_LOADABLEANDBOOTLOADER))
ARM GAS  C:\Users\LUKASC~1\AppData\Local\Temp\ccb4CB1g.s 			page 14


 397:.\Generated_Source\PSoC4/Cm0Start.c **** 
 398:.\Generated_Source\PSoC4/Cm0Start.c ****     /* Initialize data sections */
 399:.\Generated_Source\PSoC4/Cm0Start.c ****     __iar_data_init3();
 400:.\Generated_Source\PSoC4/Cm0Start.c **** 
 401:.\Generated_Source\PSoC4/Cm0Start.c ****     initialize_psoc();
 402:.\Generated_Source\PSoC4/Cm0Start.c **** 
 403:.\Generated_Source\PSoC4/Cm0Start.c ****     return 0;
 404:.\Generated_Source\PSoC4/Cm0Start.c **** }
 405:.\Generated_Source\PSoC4/Cm0Start.c **** 
 406:.\Generated_Source\PSoC4/Cm0Start.c **** #endif /* __GNUC__ */
 407:.\Generated_Source\PSoC4/Cm0Start.c **** 
 408:.\Generated_Source\PSoC4/Cm0Start.c **** 
 409:.\Generated_Source\PSoC4/Cm0Start.c **** /*******************************************************************************
 410:.\Generated_Source\PSoC4/Cm0Start.c **** * Ram Interrupt Vector table storage area. Must be placed at 0x20000000.
 411:.\Generated_Source\PSoC4/Cm0Start.c **** *******************************************************************************/
 412:.\Generated_Source\PSoC4/Cm0Start.c **** 
 413:.\Generated_Source\PSoC4/Cm0Start.c **** #if defined (__ICCARM__)
 414:.\Generated_Source\PSoC4/Cm0Start.c ****     #pragma location=".ramvectors"
 415:.\Generated_Source\PSoC4/Cm0Start.c **** #else
 416:.\Generated_Source\PSoC4/Cm0Start.c ****     #ifndef CY_SYS_RAM_VECTOR_SECTION
 417:.\Generated_Source\PSoC4/Cm0Start.c ****         #define CY_SYS_RAM_VECTOR_SECTION CY_SECTION(".ramvectors")
 418:.\Generated_Source\PSoC4/Cm0Start.c ****     #endif /* CY_SYS_RAM_VECTOR_SECTION */
 419:.\Generated_Source\PSoC4/Cm0Start.c ****     CY_SYS_RAM_VECTOR_SECTION
 420:.\Generated_Source\PSoC4/Cm0Start.c **** #endif  /* defined (__ICCARM__) */
 421:.\Generated_Source\PSoC4/Cm0Start.c **** cyisraddress CyRamVectors[CY_NUM_VECTORS];
 422:.\Generated_Source\PSoC4/Cm0Start.c **** 
 423:.\Generated_Source\PSoC4/Cm0Start.c **** 
 424:.\Generated_Source\PSoC4/Cm0Start.c **** /*******************************************************************************
 425:.\Generated_Source\PSoC4/Cm0Start.c **** * Rom Interrupt Vector table storage area. Must be 256-byte aligned.
 426:.\Generated_Source\PSoC4/Cm0Start.c **** *******************************************************************************/
 427:.\Generated_Source\PSoC4/Cm0Start.c **** 
 428:.\Generated_Source\PSoC4/Cm0Start.c **** #if defined(__ARMCC_VERSION)
 429:.\Generated_Source\PSoC4/Cm0Start.c ****     /* Suppress diagnostic message 1296-D: extended constant initialiser used */
 430:.\Generated_Source\PSoC4/Cm0Start.c ****     #pragma diag_suppress 1296
 431:.\Generated_Source\PSoC4/Cm0Start.c **** #endif  /* defined(__ARMCC_VERSION) */
 432:.\Generated_Source\PSoC4/Cm0Start.c **** 
 433:.\Generated_Source\PSoC4/Cm0Start.c **** #if defined (__ICCARM__)
 434:.\Generated_Source\PSoC4/Cm0Start.c ****     #pragma location=".romvectors"
 435:.\Generated_Source\PSoC4/Cm0Start.c ****     const intvec_elem __vector_table[CY_NUM_ROM_VECTORS] =
 436:.\Generated_Source\PSoC4/Cm0Start.c **** #else
 437:.\Generated_Source\PSoC4/Cm0Start.c ****     #ifndef CY_SYS_ROM_VECTOR_SECTION
 438:.\Generated_Source\PSoC4/Cm0Start.c ****         #define CY_SYS_ROM_VECTOR_SECTION CY_SECTION(".romvectors")
 439:.\Generated_Source\PSoC4/Cm0Start.c ****     #endif /* CY_SYS_ROM_VECTOR_SECTION */
 440:.\Generated_Source\PSoC4/Cm0Start.c ****     CY_SYS_ROM_VECTOR_SECTION
 441:.\Generated_Source\PSoC4/Cm0Start.c ****     const cyisraddress RomVectors[CY_NUM_ROM_VECTORS] =
 442:.\Generated_Source\PSoC4/Cm0Start.c **** #endif  /* defined (__ICCARM__) */
 443:.\Generated_Source\PSoC4/Cm0Start.c **** {
 444:.\Generated_Source\PSoC4/Cm0Start.c ****     CY_SYS_INITIAL_STACK_POINTER,   /* The initial stack pointer  0 */
 445:.\Generated_Source\PSoC4/Cm0Start.c ****     #if defined (__ICCARM__) /* The reset handler          1 */
 446:.\Generated_Source\PSoC4/Cm0Start.c ****         __iar_program_start,
 447:.\Generated_Source\PSoC4/Cm0Start.c ****     #else
 448:.\Generated_Source\PSoC4/Cm0Start.c ****         (cyisraddress)&Reset,
 449:.\Generated_Source\PSoC4/Cm0Start.c ****     #endif  /* defined (__ICCARM__) */
 450:.\Generated_Source\PSoC4/Cm0Start.c ****     &IntDefaultHandler,      /* The NMI handler            2 */
 451:.\Generated_Source\PSoC4/Cm0Start.c ****     &IntDefaultHandler,      /* The hard fault handler     3 */
 452:.\Generated_Source\PSoC4/Cm0Start.c **** };
 453:.\Generated_Source\PSoC4/Cm0Start.c **** 
ARM GAS  C:\Users\LUKASC~1\AppData\Local\Temp\ccb4CB1g.s 			page 15


 454:.\Generated_Source\PSoC4/Cm0Start.c **** #if defined(__ARMCC_VERSION)
 455:.\Generated_Source\PSoC4/Cm0Start.c ****     #pragma diag_default 1296
 456:.\Generated_Source\PSoC4/Cm0Start.c **** #endif  /* defined(__ARMCC_VERSION) */
 457:.\Generated_Source\PSoC4/Cm0Start.c **** 
 458:.\Generated_Source\PSoC4/Cm0Start.c **** 
 459:.\Generated_Source\PSoC4/Cm0Start.c **** /*******************************************************************************
 460:.\Generated_Source\PSoC4/Cm0Start.c **** * Function Name: initialize_psoc
 461:.\Generated_Source\PSoC4/Cm0Start.c **** ****************************************************************************//**
 462:.\Generated_Source\PSoC4/Cm0Start.c **** *
 463:.\Generated_Source\PSoC4/Cm0Start.c **** * This function is used to initialize the PSoC chip before calling main.
 464:.\Generated_Source\PSoC4/Cm0Start.c **** *
 465:.\Generated_Source\PSoC4/Cm0Start.c **** *******************************************************************************/
 466:.\Generated_Source\PSoC4/Cm0Start.c **** #if(defined(__GNUC__) && !defined(__ARMCC_VERSION))
 467:.\Generated_Source\PSoC4/Cm0Start.c **** __attribute__ ((constructor(101)))
 468:.\Generated_Source\PSoC4/Cm0Start.c **** #endif  /* (defined(__GNUC__) && !defined(__ARMCC_VERSION)) */
 469:.\Generated_Source\PSoC4/Cm0Start.c **** void initialize_psoc(void)
 470:.\Generated_Source\PSoC4/Cm0Start.c **** {
 336              		.loc 1 470 0
 337              		.cfi_startproc
 338 0000 80B5     		push	{r7, lr}
 339              		.cfi_def_cfa_offset 8
 340              		.cfi_offset 7, -8
 341              		.cfi_offset 14, -4
 342 0002 82B0     		sub	sp, sp, #8
 343              		.cfi_def_cfa_offset 16
 344 0004 00AF     		add	r7, sp, #0
 345              		.cfi_def_cfa_register 7
 471:.\Generated_Source\PSoC4/Cm0Start.c ****     uint32 indexInit;
 472:.\Generated_Source\PSoC4/Cm0Start.c **** 
 473:.\Generated_Source\PSoC4/Cm0Start.c ****     #if(CY_IP_CPUSSV2)
 474:.\Generated_Source\PSoC4/Cm0Start.c ****         #if (CY_IP_CPUSS_CM0)
 475:.\Generated_Source\PSoC4/Cm0Start.c ****             /***********************************************************************
 476:.\Generated_Source\PSoC4/Cm0Start.c ****             * Make sure that Vector Table is located at 0000_0000 in Flash, before
 477:.\Generated_Source\PSoC4/Cm0Start.c ****             * accessing RomVectors or calling functions that may be placed in
 478:.\Generated_Source\PSoC4/Cm0Start.c ****             * .psocinit (cyfitter_cfg and ClockSetup). Note The CY_CPUSS_CONFIG_REG
 479:.\Generated_Source\PSoC4/Cm0Start.c ****             * register is retention for the specified device family.
 480:.\Generated_Source\PSoC4/Cm0Start.c ****             ***********************************************************************/
 481:.\Generated_Source\PSoC4/Cm0Start.c ****             CY_CPUSS_CONFIG_REG &= (uint32) ~CY_CPUSS_CONFIG_VECT_IN_RAM;
 482:.\Generated_Source\PSoC4/Cm0Start.c ****         #endif /* (CY_IP_CPUSS_CM0) */
 483:.\Generated_Source\PSoC4/Cm0Start.c ****     #endif  /* (CY_IP_CPUSSV2) */
 484:.\Generated_Source\PSoC4/Cm0Start.c **** 
 485:.\Generated_Source\PSoC4/Cm0Start.c ****     /* Set Ram interrupt vectors to default functions. */
 486:.\Generated_Source\PSoC4/Cm0Start.c ****     for (indexInit = 0u; indexInit < CY_NUM_VECTORS; indexInit++)
 346              		.loc 1 486 0
 347 0006 0023     		mov	r3, #0
 348 0008 7B60     		str	r3, [r7, #4]
 349 000a 0FE0     		b	.L25
 350              	.L28:
 487:.\Generated_Source\PSoC4/Cm0Start.c ****     {
 488:.\Generated_Source\PSoC4/Cm0Start.c ****         CyRamVectors[indexInit] = (indexInit < CY_NUM_ROM_VECTORS) ?
 489:.\Generated_Source\PSoC4/Cm0Start.c ****             #if defined (__ICCARM__)
 490:.\Generated_Source\PSoC4/Cm0Start.c ****                 __vector_table[indexInit].__fun : &IntDefaultHandler;
 491:.\Generated_Source\PSoC4/Cm0Start.c ****             #else
 492:.\Generated_Source\PSoC4/Cm0Start.c ****                 RomVectors[indexInit] : &IntDefaultHandler;
 351              		.loc 1 492 0
 352 000c 7B68     		ldr	r3, [r7, #4]
 353 000e 032B     		cmp	r3, #3
ARM GAS  C:\Users\LUKASC~1\AppData\Local\Temp\ccb4CB1g.s 			page 16


 354 0010 04D8     		bhi	.L26
 355              		.loc 1 492 0 is_stmt 0 discriminator 1
 356 0012 134B     		ldr	r3, .L30
 357 0014 7A68     		ldr	r2, [r7, #4]
 358 0016 9200     		lsl	r2, r2, #2
 359 0018 D358     		ldr	r3, [r2, r3]
 360 001a 00E0     		b	.L27
 361              	.L26:
 362              		.loc 1 492 0 discriminator 2
 363 001c 114B     		ldr	r3, .L30+4
 364              	.L27:
 488:.\Generated_Source\PSoC4/Cm0Start.c ****             #if defined (__ICCARM__)
 365              		.loc 1 488 0 is_stmt 1 discriminator 2
 366 001e 124A     		ldr	r2, .L30+8
 367 0020 7968     		ldr	r1, [r7, #4]
 368 0022 8900     		lsl	r1, r1, #2
 369 0024 8B50     		str	r3, [r1, r2]
 486:.\Generated_Source\PSoC4/Cm0Start.c ****     {
 370              		.loc 1 486 0 discriminator 2
 371 0026 7B68     		ldr	r3, [r7, #4]
 372 0028 0133     		add	r3, r3, #1
 373 002a 7B60     		str	r3, [r7, #4]
 374              	.L25:
 486:.\Generated_Source\PSoC4/Cm0Start.c ****     {
 375              		.loc 1 486 0 is_stmt 0 discriminator 1
 376 002c 7B68     		ldr	r3, [r7, #4]
 377 002e 2F2B     		cmp	r3, #47
 378 0030 ECD9     		bls	.L28
 493:.\Generated_Source\PSoC4/Cm0Start.c ****             #endif  /* defined (__ICCARM__) */
 494:.\Generated_Source\PSoC4/Cm0Start.c ****     }
 495:.\Generated_Source\PSoC4/Cm0Start.c **** 
 496:.\Generated_Source\PSoC4/Cm0Start.c ****     /* Initialize configuration registers. */
 497:.\Generated_Source\PSoC4/Cm0Start.c ****     cyfitter_cfg();
 379              		.loc 1 497 0 is_stmt 1
 380 0032 FFF7FEFF 		bl	cyfitter_cfg
 498:.\Generated_Source\PSoC4/Cm0Start.c **** 
 499:.\Generated_Source\PSoC4/Cm0Start.c ****     #if !defined (__ICCARM__)
 500:.\Generated_Source\PSoC4/Cm0Start.c ****         /* Actually, no need to clean this variable, just to make compiler happy. */
 501:.\Generated_Source\PSoC4/Cm0Start.c ****         cySysNoInitDataValid = 0u;
 381              		.loc 1 501 0
 382 0036 0D4B     		ldr	r3, .L30+12
 383 0038 0022     		mov	r2, #0
 384 003a 1A60     		str	r2, [r3]
 502:.\Generated_Source\PSoC4/Cm0Start.c ****     #endif  /* !defined (__ICCARM__) */
 503:.\Generated_Source\PSoC4/Cm0Start.c **** 
 504:.\Generated_Source\PSoC4/Cm0Start.c ****     #if (CYDEV_PROJ_TYPE != CYDEV_PROJ_TYPE_STANDARD)
 505:.\Generated_Source\PSoC4/Cm0Start.c **** 
 506:.\Generated_Source\PSoC4/Cm0Start.c ****         /* Need to make sure that this variable will not be optimized out */
 507:.\Generated_Source\PSoC4/Cm0Start.c ****         if (0u == cyBtldrRunType)
 385              		.loc 1 507 0
 386 003c 0C4B     		ldr	r3, .L30+16
 387 003e 1B68     		ldr	r3, [r3]
 388 0040 002B     		cmp	r3, #0
 389 0042 02D1     		bne	.L29
 508:.\Generated_Source\PSoC4/Cm0Start.c ****         {
 509:.\Generated_Source\PSoC4/Cm0Start.c ****             cyBtldrRunType = 0u;
 390              		.loc 1 509 0
ARM GAS  C:\Users\LUKASC~1\AppData\Local\Temp\ccb4CB1g.s 			page 17


 391 0044 0A4B     		ldr	r3, .L30+16
 392 0046 0022     		mov	r2, #0
 393 0048 1A60     		str	r2, [r3]
 394              	.L29:
 510:.\Generated_Source\PSoC4/Cm0Start.c ****         }
 511:.\Generated_Source\PSoC4/Cm0Start.c **** 
 512:.\Generated_Source\PSoC4/Cm0Start.c ****     #endif  /* (CYDEV_PROJ_TYPE != CYDEV_PROJ_TYPE_STANDARD) */
 513:.\Generated_Source\PSoC4/Cm0Start.c **** 
 514:.\Generated_Source\PSoC4/Cm0Start.c ****     #if (CY_IP_CPUSS_CM0)
 515:.\Generated_Source\PSoC4/Cm0Start.c ****         /* Vector Table is located at 0x2000:0000 in SRAM */
 516:.\Generated_Source\PSoC4/Cm0Start.c ****         CY_CPUSS_CONFIG_REG |= CY_CPUSS_CONFIG_VECT_IN_RAM;
 395              		.loc 1 516 0
 396 004a 8023     		mov	r3, #128
 397 004c DB05     		lsl	r3, r3, #23
 398 004e 8022     		mov	r2, #128
 399 0050 D205     		lsl	r2, r2, #23
 400 0052 1268     		ldr	r2, [r2]
 401 0054 0121     		mov	r1, #1
 402 0056 0A43     		orr	r2, r1
 403 0058 1A60     		str	r2, [r3]
 517:.\Generated_Source\PSoC4/Cm0Start.c **** 	#else
 518:.\Generated_Source\PSoC4/Cm0Start.c **** 		(*(uint32 *)CYREG_CM0P_VTOR) = CY_CPUSS_CONFIG_VECT_ADDR_IN_RAM;
 519:.\Generated_Source\PSoC4/Cm0Start.c ****     #endif /* (CY_IP_CPUSS_CM0) */
 520:.\Generated_Source\PSoC4/Cm0Start.c **** }
 404              		.loc 1 520 0
 405 005a BD46     		mov	sp, r7
 406 005c 02B0     		add	sp, sp, #8
 407              		@ sp needed
 408 005e 80BD     		pop	{r7, pc}
 409              	.L31:
 410              		.align	2
 411              	.L30:
 412 0060 00000000 		.word	RomVectors
 413 0064 00000000 		.word	IntDefaultHandler
 414 0068 00000000 		.word	CyRamVectors
 415 006c 00000000 		.word	cySysNoInitDataValid
 416 0070 00000000 		.word	cyBtldrRunType
 417              		.cfi_endproc
 418              	.LFE5:
 419              		.size	initialize_psoc, .-initialize_psoc
 420              		.section	.init_array,"aw",%init_array
 421              		.align	2
 422 0000 00000000 		.word	initialize_psoc(target1)
 423              		.data
 424              		.align	2
 425              		.type	heapPointer.4723, %object
 426              		.size	heapPointer.4723, 4
 427              	heapPointer.4723:
 428 0000 00000000 		.word	end
 429              		.weak	__cy_region_num
 430              		.text
 431              	.Letext0:
 432              		.file 2 ".\\Generated_Source\\PSoC4\\cytypes.h"
 433              		.file 3 "c:\\program files (x86)\\cypress\\psoc creator\\3.3\\psoc creator\\import\\gnu\\arm\\4.9.