ARM GAS  C:\Users\LUKASC~1\AppData\Local\Temp\ccLY7ayr.s 			page 1


   1              		.cpu cortex-m0
   2              		.fpu softvfp
   3              		.eabi_attribute 20, 1
   4              		.eabi_attribute 21, 1
   5              		.eabi_attribute 23, 3
   6              		.eabi_attribute 24, 1
   7              		.eabi_attribute 25, 1
   8              		.eabi_attribute 26, 1
   9              		.eabi_attribute 30, 6
  10              		.eabi_attribute 34, 0
  11              		.eabi_attribute 18, 4
  12              		.code	16
  13              		.file	"cyfitter_cfg.c"
  14              		.text
  15              	.Ltext0:
  16              		.cfi_sections	.debug_frame
  17              		.section	.text.CYMEMZERO,"ax",%progbits
  18              		.align	2
  19              		.code	16
  20              		.thumb_func
  21              		.type	CYMEMZERO, %function
  22              	CYMEMZERO:
  23              	.LFB0:
  24              		.file 1 ".\\Generated_Source\\PSoC4\\cyfitter_cfg.c"
   1:.\Generated_Source\PSoC4/cyfitter_cfg.c **** /*******************************************************************************
   2:.\Generated_Source\PSoC4/cyfitter_cfg.c **** * File Name: cyfitter_cfg.c
   3:.\Generated_Source\PSoC4/cyfitter_cfg.c **** * 
   4:.\Generated_Source\PSoC4/cyfitter_cfg.c **** * PSoC Creator  3.3 SP2
   5:.\Generated_Source\PSoC4/cyfitter_cfg.c **** *
   6:.\Generated_Source\PSoC4/cyfitter_cfg.c **** * Description:
   7:.\Generated_Source\PSoC4/cyfitter_cfg.c **** * This file contains device initialization code.
   8:.\Generated_Source\PSoC4/cyfitter_cfg.c **** * Except for the user defined sections in CyClockStartupError(), this file should not be modified.
   9:.\Generated_Source\PSoC4/cyfitter_cfg.c **** * This file is automatically generated by PSoC Creator.
  10:.\Generated_Source\PSoC4/cyfitter_cfg.c **** *
  11:.\Generated_Source\PSoC4/cyfitter_cfg.c **** ********************************************************************************
  12:.\Generated_Source\PSoC4/cyfitter_cfg.c **** * Copyright (c) 2007-2016 Cypress Semiconductor.  All rights reserved.
  13:.\Generated_Source\PSoC4/cyfitter_cfg.c **** * You may use this file only in accordance with the license, terms, conditions, 
  14:.\Generated_Source\PSoC4/cyfitter_cfg.c **** * disclaimers, and limitations in the end user license agreement accompanying 
  15:.\Generated_Source\PSoC4/cyfitter_cfg.c **** * the software package with which this file was provided.
  16:.\Generated_Source\PSoC4/cyfitter_cfg.c **** ********************************************************************************/
  17:.\Generated_Source\PSoC4/cyfitter_cfg.c **** 
  18:.\Generated_Source\PSoC4/cyfitter_cfg.c **** #include <string.h>
  19:.\Generated_Source\PSoC4/cyfitter_cfg.c **** #include "cytypes.h"
  20:.\Generated_Source\PSoC4/cyfitter_cfg.c **** #include "cydevice_trm.h"
  21:.\Generated_Source\PSoC4/cyfitter_cfg.c **** #include "cyfitter.h"
  22:.\Generated_Source\PSoC4/cyfitter_cfg.c **** #include "CyLib.h"
  23:.\Generated_Source\PSoC4/cyfitter_cfg.c **** #include "cyfitter_cfg.h"
  24:.\Generated_Source\PSoC4/cyfitter_cfg.c **** 
  25:.\Generated_Source\PSoC4/cyfitter_cfg.c **** 
  26:.\Generated_Source\PSoC4/cyfitter_cfg.c **** #if defined(__GNUC__) || defined(__ARMCC_VERSION)
  27:.\Generated_Source\PSoC4/cyfitter_cfg.c ****     #define CYPACKED 
  28:.\Generated_Source\PSoC4/cyfitter_cfg.c ****     #define CYPACKED_ATTR __attribute__ ((packed))
  29:.\Generated_Source\PSoC4/cyfitter_cfg.c ****     #define CYALIGNED __attribute__ ((aligned))
  30:.\Generated_Source\PSoC4/cyfitter_cfg.c ****     #define CY_CFG_UNUSED __attribute__ ((unused))
  31:.\Generated_Source\PSoC4/cyfitter_cfg.c ****     #ifndef CY_CFG_SECTION
  32:.\Generated_Source\PSoC4/cyfitter_cfg.c ****         #define CY_CFG_SECTION __attribute__ ((section(".psocinit")))
  33:.\Generated_Source\PSoC4/cyfitter_cfg.c ****     #endif
ARM GAS  C:\Users\LUKASC~1\AppData\Local\Temp\ccLY7ayr.s 			page 2


  34:.\Generated_Source\PSoC4/cyfitter_cfg.c ****     
  35:.\Generated_Source\PSoC4/cyfitter_cfg.c ****     #if defined(__ARMCC_VERSION)
  36:.\Generated_Source\PSoC4/cyfitter_cfg.c ****         #define CY_CFG_MEMORY_BARRIER() __memory_changed()
  37:.\Generated_Source\PSoC4/cyfitter_cfg.c ****     #else
  38:.\Generated_Source\PSoC4/cyfitter_cfg.c ****         #define CY_CFG_MEMORY_BARRIER() __sync_synchronize()
  39:.\Generated_Source\PSoC4/cyfitter_cfg.c ****     #endif
  40:.\Generated_Source\PSoC4/cyfitter_cfg.c ****     
  41:.\Generated_Source\PSoC4/cyfitter_cfg.c **** #elif defined(__ICCARM__)
  42:.\Generated_Source\PSoC4/cyfitter_cfg.c ****     #include <intrinsics.h>
  43:.\Generated_Source\PSoC4/cyfitter_cfg.c **** 
  44:.\Generated_Source\PSoC4/cyfitter_cfg.c ****     #define CYPACKED __packed
  45:.\Generated_Source\PSoC4/cyfitter_cfg.c ****     #define CYPACKED_ATTR 
  46:.\Generated_Source\PSoC4/cyfitter_cfg.c ****     #define CYALIGNED _Pragma("data_alignment=4")
  47:.\Generated_Source\PSoC4/cyfitter_cfg.c ****     #define CY_CFG_UNUSED _Pragma("diag_suppress=Pe177")
  48:.\Generated_Source\PSoC4/cyfitter_cfg.c ****     #define CY_CFG_SECTION _Pragma("location=\".psocinit\"")
  49:.\Generated_Source\PSoC4/cyfitter_cfg.c ****     
  50:.\Generated_Source\PSoC4/cyfitter_cfg.c ****     #define CY_CFG_MEMORY_BARRIER() __DMB()
  51:.\Generated_Source\PSoC4/cyfitter_cfg.c ****     
  52:.\Generated_Source\PSoC4/cyfitter_cfg.c **** #else
  53:.\Generated_Source\PSoC4/cyfitter_cfg.c ****     #error Unsupported toolchain
  54:.\Generated_Source\PSoC4/cyfitter_cfg.c **** #endif
  55:.\Generated_Source\PSoC4/cyfitter_cfg.c **** 
  56:.\Generated_Source\PSoC4/cyfitter_cfg.c **** 
  57:.\Generated_Source\PSoC4/cyfitter_cfg.c **** CY_CFG_UNUSED
  58:.\Generated_Source\PSoC4/cyfitter_cfg.c **** static void CYMEMZERO(void *s, size_t n);
  59:.\Generated_Source\PSoC4/cyfitter_cfg.c **** CY_CFG_UNUSED
  60:.\Generated_Source\PSoC4/cyfitter_cfg.c **** static void CYMEMZERO(void *s, size_t n)
  61:.\Generated_Source\PSoC4/cyfitter_cfg.c **** {
  25              		.loc 1 61 0
  26              		.cfi_startproc
  27 0000 80B5     		push	{r7, lr}
  28              		.cfi_def_cfa_offset 8
  29              		.cfi_offset 7, -8
  30              		.cfi_offset 14, -4
  31 0002 82B0     		sub	sp, sp, #8
  32              		.cfi_def_cfa_offset 16
  33 0004 00AF     		add	r7, sp, #0
  34              		.cfi_def_cfa_register 7
  35 0006 7860     		str	r0, [r7, #4]
  36 0008 3960     		str	r1, [r7]
  62:.\Generated_Source\PSoC4/cyfitter_cfg.c **** 	(void)memset(s, 0, n);
  37              		.loc 1 62 0
  38 000a 7A68     		ldr	r2, [r7, #4]
  39 000c 3B68     		ldr	r3, [r7]
  40 000e 101C     		mov	r0, r2
  41 0010 0021     		mov	r1, #0
  42 0012 1A1C     		mov	r2, r3
  43 0014 FFF7FEFF 		bl	memset
  63:.\Generated_Source\PSoC4/cyfitter_cfg.c **** }
  44              		.loc 1 63 0
  45 0018 BD46     		mov	sp, r7
  46 001a 02B0     		add	sp, sp, #8
  47              		@ sp needed
  48 001c 80BD     		pop	{r7, pc}
  49              		.cfi_endproc
  50              	.LFE0:
  51              		.size	CYMEMZERO, .-CYMEMZERO
ARM GAS  C:\Users\LUKASC~1\AppData\Local\Temp\ccLY7ayr.s 			page 3


  52 001e C046     		.section	.text.CYCONFIGCPY,"ax",%progbits
  53              		.align	2
  54              		.code	16
  55              		.thumb_func
  56              		.type	CYCONFIGCPY, %function
  57              	CYCONFIGCPY:
  58              	.LFB1:
  64:.\Generated_Source\PSoC4/cyfitter_cfg.c **** CY_CFG_UNUSED
  65:.\Generated_Source\PSoC4/cyfitter_cfg.c **** static void CYCONFIGCPY(void *dest, const void *src, size_t n);
  66:.\Generated_Source\PSoC4/cyfitter_cfg.c **** CY_CFG_UNUSED
  67:.\Generated_Source\PSoC4/cyfitter_cfg.c **** static void CYCONFIGCPY(void *dest, const void *src, size_t n)
  68:.\Generated_Source\PSoC4/cyfitter_cfg.c **** {
  59              		.loc 1 68 0
  60              		.cfi_startproc
  61 0000 80B5     		push	{r7, lr}
  62              		.cfi_def_cfa_offset 8
  63              		.cfi_offset 7, -8
  64              		.cfi_offset 14, -4
  65 0002 84B0     		sub	sp, sp, #16
  66              		.cfi_def_cfa_offset 24
  67 0004 00AF     		add	r7, sp, #0
  68              		.cfi_def_cfa_register 7
  69 0006 F860     		str	r0, [r7, #12]
  70 0008 B960     		str	r1, [r7, #8]
  71 000a 7A60     		str	r2, [r7, #4]
  69:.\Generated_Source\PSoC4/cyfitter_cfg.c **** 	(void)memcpy(dest, src, n);
  72              		.loc 1 69 0
  73 000c F968     		ldr	r1, [r7, #12]
  74 000e BA68     		ldr	r2, [r7, #8]
  75 0010 7B68     		ldr	r3, [r7, #4]
  76 0012 081C     		mov	r0, r1
  77 0014 111C     		mov	r1, r2
  78 0016 1A1C     		mov	r2, r3
  79 0018 FFF7FEFF 		bl	memcpy
  70:.\Generated_Source\PSoC4/cyfitter_cfg.c **** }
  80              		.loc 1 70 0
  81 001c BD46     		mov	sp, r7
  82 001e 04B0     		add	sp, sp, #16
  83              		@ sp needed
  84 0020 80BD     		pop	{r7, pc}
  85              		.cfi_endproc
  86              	.LFE1:
  87              		.size	CYCONFIGCPY, .-CYCONFIGCPY
  88 0022 C046     		.section	.text.CYCONFIGCPYCODE,"ax",%progbits
  89              		.align	2
  90              		.code	16
  91              		.thumb_func
  92              		.type	CYCONFIGCPYCODE, %function
  93              	CYCONFIGCPYCODE:
  94              	.LFB2:
  71:.\Generated_Source\PSoC4/cyfitter_cfg.c **** CY_CFG_UNUSED
  72:.\Generated_Source\PSoC4/cyfitter_cfg.c **** static void CYCONFIGCPYCODE(void *dest, const void *src, size_t n);
  73:.\Generated_Source\PSoC4/cyfitter_cfg.c **** CY_CFG_UNUSED
  74:.\Generated_Source\PSoC4/cyfitter_cfg.c **** static void CYCONFIGCPYCODE(void *dest, const void *src, size_t n)
  75:.\Generated_Source\PSoC4/cyfitter_cfg.c **** {
  95              		.loc 1 75 0
  96              		.cfi_startproc
ARM GAS  C:\Users\LUKASC~1\AppData\Local\Temp\ccLY7ayr.s 			page 4


  97 0000 80B5     		push	{r7, lr}
  98              		.cfi_def_cfa_offset 8
  99              		.cfi_offset 7, -8
 100              		.cfi_offset 14, -4
 101 0002 84B0     		sub	sp, sp, #16
 102              		.cfi_def_cfa_offset 24
 103 0004 00AF     		add	r7, sp, #0
 104              		.cfi_def_cfa_register 7
 105 0006 F860     		str	r0, [r7, #12]
 106 0008 B960     		str	r1, [r7, #8]
 107 000a 7A60     		str	r2, [r7, #4]
  76:.\Generated_Source\PSoC4/cyfitter_cfg.c **** 	(void)memcpy(dest, src, n);
 108              		.loc 1 76 0
 109 000c F968     		ldr	r1, [r7, #12]
 110 000e BA68     		ldr	r2, [r7, #8]
 111 0010 7B68     		ldr	r3, [r7, #4]
 112 0012 081C     		mov	r0, r1
 113 0014 111C     		mov	r1, r2
 114 0016 1A1C     		mov	r2, r3
 115 0018 FFF7FEFF 		bl	memcpy
  77:.\Generated_Source\PSoC4/cyfitter_cfg.c **** }
 116              		.loc 1 77 0
 117 001c BD46     		mov	sp, r7
 118 001e 04B0     		add	sp, sp, #16
 119              		@ sp needed
 120 0020 80BD     		pop	{r7, pc}
 121              		.cfi_endproc
 122              	.LFE2:
 123              		.size	CYCONFIGCPYCODE, .-CYCONFIGCPYCODE
 124 0022 C046     		.section	.text.cfg_write_bytes32,"ax",%progbits
 125              		.align	2
 126              		.code	16
 127              		.thumb_func
 128              		.type	cfg_write_bytes32, %function
 129              	cfg_write_bytes32:
 130              	.LFB3:
  78:.\Generated_Source\PSoC4/cyfitter_cfg.c **** 
  79:.\Generated_Source\PSoC4/cyfitter_cfg.c **** 
  80:.\Generated_Source\PSoC4/cyfitter_cfg.c **** 
  81:.\Generated_Source\PSoC4/cyfitter_cfg.c **** /* Clock startup error codes                                                   */
  82:.\Generated_Source\PSoC4/cyfitter_cfg.c **** #define CYCLOCKSTART_NO_ERROR    0u
  83:.\Generated_Source\PSoC4/cyfitter_cfg.c **** #define CYCLOCKSTART_XTAL_ERROR  1u
  84:.\Generated_Source\PSoC4/cyfitter_cfg.c **** #define CYCLOCKSTART_32KHZ_ERROR 2u
  85:.\Generated_Source\PSoC4/cyfitter_cfg.c **** #define CYCLOCKSTART_PLL_ERROR   3u
  86:.\Generated_Source\PSoC4/cyfitter_cfg.c **** 
  87:.\Generated_Source\PSoC4/cyfitter_cfg.c **** #ifdef CY_NEED_CYCLOCKSTARTUPERROR
  88:.\Generated_Source\PSoC4/cyfitter_cfg.c **** /*******************************************************************************
  89:.\Generated_Source\PSoC4/cyfitter_cfg.c **** * Function Name: CyClockStartupError
  90:.\Generated_Source\PSoC4/cyfitter_cfg.c **** ********************************************************************************
  91:.\Generated_Source\PSoC4/cyfitter_cfg.c **** * Summary:
  92:.\Generated_Source\PSoC4/cyfitter_cfg.c **** *  If an error is encountered during clock configuration (crystal startup error,
  93:.\Generated_Source\PSoC4/cyfitter_cfg.c **** *  PLL lock error, etc.), the system will end up here.  Unless reimplemented by
  94:.\Generated_Source\PSoC4/cyfitter_cfg.c **** *  the customer, this function will stop in an infinite loop.
  95:.\Generated_Source\PSoC4/cyfitter_cfg.c **** *
  96:.\Generated_Source\PSoC4/cyfitter_cfg.c **** * Parameters:
  97:.\Generated_Source\PSoC4/cyfitter_cfg.c **** *   void
  98:.\Generated_Source\PSoC4/cyfitter_cfg.c **** *
ARM GAS  C:\Users\LUKASC~1\AppData\Local\Temp\ccLY7ayr.s 			page 5


  99:.\Generated_Source\PSoC4/cyfitter_cfg.c **** * Return:
 100:.\Generated_Source\PSoC4/cyfitter_cfg.c **** *   void
 101:.\Generated_Source\PSoC4/cyfitter_cfg.c **** *
 102:.\Generated_Source\PSoC4/cyfitter_cfg.c **** *******************************************************************************/
 103:.\Generated_Source\PSoC4/cyfitter_cfg.c **** CY_CFG_UNUSED
 104:.\Generated_Source\PSoC4/cyfitter_cfg.c **** static void CyClockStartupError(uint8 errorCode);
 105:.\Generated_Source\PSoC4/cyfitter_cfg.c **** CY_CFG_UNUSED
 106:.\Generated_Source\PSoC4/cyfitter_cfg.c **** static void CyClockStartupError(uint8 errorCode)
 107:.\Generated_Source\PSoC4/cyfitter_cfg.c **** {
 108:.\Generated_Source\PSoC4/cyfitter_cfg.c ****     /* To remove the compiler warning if errorCode not used.                */
 109:.\Generated_Source\PSoC4/cyfitter_cfg.c ****     errorCode = errorCode;
 110:.\Generated_Source\PSoC4/cyfitter_cfg.c **** 
 111:.\Generated_Source\PSoC4/cyfitter_cfg.c ****     /* `#START CyClockStartupError` */
 112:.\Generated_Source\PSoC4/cyfitter_cfg.c **** 
 113:.\Generated_Source\PSoC4/cyfitter_cfg.c ****     /* If we have a clock startup error (bad MHz crystal, PLL lock, etc.),  */
 114:.\Generated_Source\PSoC4/cyfitter_cfg.c ****     /* we will end up here to allow the customer to implement something to  */
 115:.\Generated_Source\PSoC4/cyfitter_cfg.c ****     /* deal with the clock condition.                                       */
 116:.\Generated_Source\PSoC4/cyfitter_cfg.c **** 
 117:.\Generated_Source\PSoC4/cyfitter_cfg.c ****     /* `#END` */
 118:.\Generated_Source\PSoC4/cyfitter_cfg.c **** 
 119:.\Generated_Source\PSoC4/cyfitter_cfg.c ****     /* If nothing else, stop here since the clocks have not started         */
 120:.\Generated_Source\PSoC4/cyfitter_cfg.c ****     /* correctly.                                                           */
 121:.\Generated_Source\PSoC4/cyfitter_cfg.c ****     while(1) {}
 122:.\Generated_Source\PSoC4/cyfitter_cfg.c **** }
 123:.\Generated_Source\PSoC4/cyfitter_cfg.c **** #endif
 124:.\Generated_Source\PSoC4/cyfitter_cfg.c **** 
 125:.\Generated_Source\PSoC4/cyfitter_cfg.c **** #define CY_CFG_BASE_ADDR_COUNT 5u
 126:.\Generated_Source\PSoC4/cyfitter_cfg.c **** CYPACKED typedef struct
 127:.\Generated_Source\PSoC4/cyfitter_cfg.c **** {
 128:.\Generated_Source\PSoC4/cyfitter_cfg.c **** 	uint8 offset;
 129:.\Generated_Source\PSoC4/cyfitter_cfg.c **** 	uint8 value;
 130:.\Generated_Source\PSoC4/cyfitter_cfg.c **** } CYPACKED_ATTR cy_cfg_addrvalue_t;
 131:.\Generated_Source\PSoC4/cyfitter_cfg.c **** 
 132:.\Generated_Source\PSoC4/cyfitter_cfg.c **** 
 133:.\Generated_Source\PSoC4/cyfitter_cfg.c **** 
 134:.\Generated_Source\PSoC4/cyfitter_cfg.c **** /*******************************************************************************
 135:.\Generated_Source\PSoC4/cyfitter_cfg.c **** * Function Name: cfg_write_bytes32
 136:.\Generated_Source\PSoC4/cyfitter_cfg.c **** ********************************************************************************
 137:.\Generated_Source\PSoC4/cyfitter_cfg.c **** * Summary:
 138:.\Generated_Source\PSoC4/cyfitter_cfg.c **** *  This function is used for setting up the chip configuration areas that
 139:.\Generated_Source\PSoC4/cyfitter_cfg.c **** *  contain relatively sparse data.
 140:.\Generated_Source\PSoC4/cyfitter_cfg.c **** *
 141:.\Generated_Source\PSoC4/cyfitter_cfg.c **** * Parameters:
 142:.\Generated_Source\PSoC4/cyfitter_cfg.c **** *   void
 143:.\Generated_Source\PSoC4/cyfitter_cfg.c **** *
 144:.\Generated_Source\PSoC4/cyfitter_cfg.c **** * Return:
 145:.\Generated_Source\PSoC4/cyfitter_cfg.c **** *   void
 146:.\Generated_Source\PSoC4/cyfitter_cfg.c **** *
 147:.\Generated_Source\PSoC4/cyfitter_cfg.c **** *******************************************************************************/
 148:.\Generated_Source\PSoC4/cyfitter_cfg.c **** static void cfg_write_bytes32(const uint32 addr_table[], const cy_cfg_addrvalue_t data_table[]);
 149:.\Generated_Source\PSoC4/cyfitter_cfg.c **** static void cfg_write_bytes32(const uint32 addr_table[], const cy_cfg_addrvalue_t data_table[])
 150:.\Generated_Source\PSoC4/cyfitter_cfg.c **** {
 131              		.loc 1 150 0
 132              		.cfi_startproc
 133 0000 80B5     		push	{r7, lr}
 134              		.cfi_def_cfa_offset 8
 135              		.cfi_offset 7, -8
ARM GAS  C:\Users\LUKASC~1\AppData\Local\Temp\ccLY7ayr.s 			page 6


 136              		.cfi_offset 14, -4
 137 0002 86B0     		sub	sp, sp, #24
 138              		.cfi_def_cfa_offset 32
 139 0004 00AF     		add	r7, sp, #0
 140              		.cfi_def_cfa_register 7
 141 0006 7860     		str	r0, [r7, #4]
 142 0008 3960     		str	r1, [r7]
 151:.\Generated_Source\PSoC4/cyfitter_cfg.c **** 	/* For 32-bit little-endian architectures */
 152:.\Generated_Source\PSoC4/cyfitter_cfg.c **** 	uint32 i, j = 0u;
 143              		.loc 1 152 0
 144 000a 0023     		mov	r3, #0
 145 000c 3B61     		str	r3, [r7, #16]
 153:.\Generated_Source\PSoC4/cyfitter_cfg.c **** 	for (i = 0u; i < CY_CFG_BASE_ADDR_COUNT; i++)
 146              		.loc 1 153 0
 147 000e 0023     		mov	r3, #0
 148 0010 7B61     		str	r3, [r7, #20]
 149 0012 2FE0     		b	.L5
 150              	.L8:
 151              	.LBB2:
 154:.\Generated_Source\PSoC4/cyfitter_cfg.c **** 	{
 155:.\Generated_Source\PSoC4/cyfitter_cfg.c **** 		uint32 baseAddr = addr_table[i];
 152              		.loc 1 155 0
 153 0014 7B69     		ldr	r3, [r7, #20]
 154 0016 9B00     		lsl	r3, r3, #2
 155 0018 7A68     		ldr	r2, [r7, #4]
 156 001a D318     		add	r3, r2, r3
 157 001c 1B68     		ldr	r3, [r3]
 158 001e BB60     		str	r3, [r7, #8]
 156:.\Generated_Source\PSoC4/cyfitter_cfg.c **** 		uint8 count = (uint8)baseAddr;
 159              		.loc 1 156 0
 160 0020 0F23     		mov	r3, #15
 161 0022 FB18     		add	r3, r7, r3
 162 0024 BA68     		ldr	r2, [r7, #8]
 163 0026 1A70     		strb	r2, [r3]
 157:.\Generated_Source\PSoC4/cyfitter_cfg.c **** 		baseAddr &= 0xFFFFFF00u;
 164              		.loc 1 157 0
 165 0028 BB68     		ldr	r3, [r7, #8]
 166 002a FF22     		mov	r2, #255
 167 002c 9343     		bic	r3, r2
 168 002e BB60     		str	r3, [r7, #8]
 158:.\Generated_Source\PSoC4/cyfitter_cfg.c **** 		while (count != 0u)
 169              		.loc 1 158 0
 170 0030 18E0     		b	.L6
 171              	.L7:
 159:.\Generated_Source\PSoC4/cyfitter_cfg.c **** 		{
 160:.\Generated_Source\PSoC4/cyfitter_cfg.c **** 			CY_SET_XTND_REG8((void CYFAR *)(baseAddr + data_table[j].offset), data_table[j].value);
 172              		.loc 1 160 0
 173 0032 3B69     		ldr	r3, [r7, #16]
 174 0034 5B00     		lsl	r3, r3, #1
 175 0036 3A68     		ldr	r2, [r7]
 176 0038 D318     		add	r3, r2, r3
 177 003a 1B78     		ldrb	r3, [r3]
 178 003c 1A1C     		mov	r2, r3
 179 003e BB68     		ldr	r3, [r7, #8]
 180 0040 D318     		add	r3, r2, r3
 181 0042 191C     		mov	r1, r3
 182 0044 3B69     		ldr	r3, [r7, #16]
ARM GAS  C:\Users\LUKASC~1\AppData\Local\Temp\ccLY7ayr.s 			page 7


 183 0046 5B00     		lsl	r3, r3, #1
 184 0048 3A68     		ldr	r2, [r7]
 185 004a D318     		add	r3, r2, r3
 186 004c 5B78     		ldrb	r3, [r3, #1]
 187 004e 0B70     		strb	r3, [r1]
 161:.\Generated_Source\PSoC4/cyfitter_cfg.c **** 			j++;
 188              		.loc 1 161 0
 189 0050 3B69     		ldr	r3, [r7, #16]
 190 0052 0133     		add	r3, r3, #1
 191 0054 3B61     		str	r3, [r7, #16]
 162:.\Generated_Source\PSoC4/cyfitter_cfg.c **** 			count--;
 192              		.loc 1 162 0
 193 0056 0F23     		mov	r3, #15
 194 0058 FB18     		add	r3, r7, r3
 195 005a 1A78     		ldrb	r2, [r3]
 196 005c 0F23     		mov	r3, #15
 197 005e FB18     		add	r3, r7, r3
 198 0060 013A     		sub	r2, r2, #1
 199 0062 1A70     		strb	r2, [r3]
 200              	.L6:
 158:.\Generated_Source\PSoC4/cyfitter_cfg.c **** 		{
 201              		.loc 1 158 0
 202 0064 0F23     		mov	r3, #15
 203 0066 FB18     		add	r3, r7, r3
 204 0068 1B78     		ldrb	r3, [r3]
 205 006a 002B     		cmp	r3, #0
 206 006c E1D1     		bne	.L7
 207              	.LBE2:
 153:.\Generated_Source\PSoC4/cyfitter_cfg.c **** 	{
 208              		.loc 1 153 0 discriminator 2
 209 006e 7B69     		ldr	r3, [r7, #20]
 210 0070 0133     		add	r3, r3, #1
 211 0072 7B61     		str	r3, [r7, #20]
 212              	.L5:
 153:.\Generated_Source\PSoC4/cyfitter_cfg.c **** 	{
 213              		.loc 1 153 0 is_stmt 0 discriminator 1
 214 0074 7B69     		ldr	r3, [r7, #20]
 215 0076 042B     		cmp	r3, #4
 216 0078 CCD9     		bls	.L8
 163:.\Generated_Source\PSoC4/cyfitter_cfg.c **** 		}
 164:.\Generated_Source\PSoC4/cyfitter_cfg.c **** 	}
 165:.\Generated_Source\PSoC4/cyfitter_cfg.c **** }
 217              		.loc 1 165 0 is_stmt 1
 218 007a BD46     		mov	sp, r7
 219 007c 06B0     		add	sp, sp, #24
 220              		@ sp needed
 221 007e 80BD     		pop	{r7, pc}
 222              		.cfi_endproc
 223              	.LFE3:
 224              		.size	cfg_write_bytes32, .-cfg_write_bytes32
 225              		.section	.psocinit,"ax",%progbits
 226              		.align	2
 227              		.code	16
 228              		.thumb_func
 229              		.type	ClockSetup, %function
 230              	ClockSetup:
 231              	.LFB4:
ARM GAS  C:\Users\LUKASC~1\AppData\Local\Temp\ccLY7ayr.s 			page 8


 166:.\Generated_Source\PSoC4/cyfitter_cfg.c **** 
 167:.\Generated_Source\PSoC4/cyfitter_cfg.c **** 
 168:.\Generated_Source\PSoC4/cyfitter_cfg.c **** /*******************************************************************************
 169:.\Generated_Source\PSoC4/cyfitter_cfg.c **** * Function Name: ClockSetup
 170:.\Generated_Source\PSoC4/cyfitter_cfg.c **** ********************************************************************************
 171:.\Generated_Source\PSoC4/cyfitter_cfg.c **** *
 172:.\Generated_Source\PSoC4/cyfitter_cfg.c **** * Summary:
 173:.\Generated_Source\PSoC4/cyfitter_cfg.c **** *   Performs the initialization of all of the clocks in the device based on the
 174:.\Generated_Source\PSoC4/cyfitter_cfg.c **** *   settings in the Clock tab of the DWR.  This includes enabling the requested
 175:.\Generated_Source\PSoC4/cyfitter_cfg.c **** *   clocks and setting the necessary dividers to produce the desired frequency. 
 176:.\Generated_Source\PSoC4/cyfitter_cfg.c **** *
 177:.\Generated_Source\PSoC4/cyfitter_cfg.c **** * Parameters:
 178:.\Generated_Source\PSoC4/cyfitter_cfg.c **** *   void
 179:.\Generated_Source\PSoC4/cyfitter_cfg.c **** *
 180:.\Generated_Source\PSoC4/cyfitter_cfg.c **** * Return:
 181:.\Generated_Source\PSoC4/cyfitter_cfg.c **** *   void
 182:.\Generated_Source\PSoC4/cyfitter_cfg.c **** *
 183:.\Generated_Source\PSoC4/cyfitter_cfg.c **** *******************************************************************************/
 184:.\Generated_Source\PSoC4/cyfitter_cfg.c **** static void ClockSetup(void);
 185:.\Generated_Source\PSoC4/cyfitter_cfg.c **** CY_CFG_SECTION
 186:.\Generated_Source\PSoC4/cyfitter_cfg.c **** static void ClockSetup(void)
 187:.\Generated_Source\PSoC4/cyfitter_cfg.c **** {
 232              		.loc 1 187 0
 233              		.cfi_startproc
 234 0000 80B5     		push	{r7, lr}
 235              		.cfi_def_cfa_offset 8
 236              		.cfi_offset 7, -8
 237              		.cfi_offset 14, -4
 238 0002 00AF     		add	r7, sp, #0
 239              		.cfi_def_cfa_register 7
 188:.\Generated_Source\PSoC4/cyfitter_cfg.c **** 	/* Enable HALF_EN before trimming for the flash accelerator. */
 189:.\Generated_Source\PSoC4/cyfitter_cfg.c **** 	CY_SET_REG32((void CYXDATA *)(CYREG_CLK_SELECT), (CY_GET_REG32((void *)CYREG_CLK_SELECT) | 0x00040
 240              		.loc 1 189 0
 241 0004 1B4B     		ldr	r3, .L10
 242 0006 1B4A     		ldr	r2, .L10
 243 0008 1268     		ldr	r2, [r2]
 244 000a 8021     		mov	r1, #128
 245 000c C902     		lsl	r1, r1, #11
 246 000e 0A43     		orr	r2, r1
 247 0010 1A60     		str	r2, [r3]
 190:.\Generated_Source\PSoC4/cyfitter_cfg.c **** 
 191:.\Generated_Source\PSoC4/cyfitter_cfg.c **** 	/* Setup and trim IMO based on desired frequency. */
 192:.\Generated_Source\PSoC4/cyfitter_cfg.c **** 	CySysClkWriteImoFreq(24u);
 248              		.loc 1 192 0
 249 0012 1820     		mov	r0, #24
 250 0014 FFF7FEFF 		bl	CySysClkWriteImoFreq
 193:.\Generated_Source\PSoC4/cyfitter_cfg.c **** 
 194:.\Generated_Source\PSoC4/cyfitter_cfg.c **** 	/* Disable HALF_EN since it is not required at this IMO frequency. */
 195:.\Generated_Source\PSoC4/cyfitter_cfg.c **** 	CY_SET_REG32((void CYXDATA *)(CYREG_CLK_SELECT), (CY_GET_REG32((void *)CYREG_CLK_SELECT) & 0xFFFBF
 251              		.loc 1 195 0
 252 0018 164B     		ldr	r3, .L10
 253 001a 164A     		ldr	r2, .L10
 254 001c 1268     		ldr	r2, [r2]
 255 001e 1649     		ldr	r1, .L10+4
 256 0020 0A40     		and	r2, r1
 257 0022 1A60     		str	r2, [r3]
 196:.\Generated_Source\PSoC4/cyfitter_cfg.c **** 	/* CYDEV_CLK_ILO_CONFIG Starting address: CYDEV_CLK_ILO_CONFIG */
ARM GAS  C:\Users\LUKASC~1\AppData\Local\Temp\ccLY7ayr.s 			page 9


 197:.\Generated_Source\PSoC4/cyfitter_cfg.c **** 	CY_SET_XTND_REG32((void CYFAR *)(CYREG_CLK_ILO_CONFIG), 0x80000006u);
 258              		.loc 1 197 0
 259 0024 154B     		ldr	r3, .L10+8
 260 0026 164A     		ldr	r2, .L10+12
 261 0028 1A60     		str	r2, [r3]
 198:.\Generated_Source\PSoC4/cyfitter_cfg.c **** 
 199:.\Generated_Source\PSoC4/cyfitter_cfg.c **** 
 200:.\Generated_Source\PSoC4/cyfitter_cfg.c **** 	/* CYDEV_CLK_SELECT00 Starting address: CYDEV_CLK_SELECT00 */
 201:.\Generated_Source\PSoC4/cyfitter_cfg.c **** 	CY_SET_XTND_REG32((void CYFAR *)(CYREG_CLK_SELECT02), 0x00000011u);
 262              		.loc 1 201 0
 263 002a 164B     		ldr	r3, .L10+16
 264 002c 1122     		mov	r2, #17
 265 002e 1A60     		str	r2, [r3]
 202:.\Generated_Source\PSoC4/cyfitter_cfg.c **** 	CY_SET_XTND_REG32((void CYFAR *)(CYREG_CLK_SELECT03), 0x00000030u);
 266              		.loc 1 202 0
 267 0030 154B     		ldr	r3, .L10+20
 268 0032 3022     		mov	r2, #48
 269 0034 1A60     		str	r2, [r3]
 203:.\Generated_Source\PSoC4/cyfitter_cfg.c **** 	CY_SET_XTND_REG32((void CYFAR *)(CYREG_CLK_SELECT05), 0x00000020u);
 270              		.loc 1 203 0
 271 0036 154B     		ldr	r3, .L10+24
 272 0038 2022     		mov	r2, #32
 273 003a 1A60     		str	r2, [r3]
 204:.\Generated_Source\PSoC4/cyfitter_cfg.c **** 	CY_SET_XTND_REG32((void CYFAR *)(CYREG_CLK_SELECT06), 0x00000010u);
 274              		.loc 1 204 0
 275 003c 144B     		ldr	r3, .L10+28
 276 003e 1022     		mov	r2, #16
 277 0040 1A60     		str	r2, [r3]
 205:.\Generated_Source\PSoC4/cyfitter_cfg.c **** 
 206:.\Generated_Source\PSoC4/cyfitter_cfg.c **** 	/* CYDEV_CLK_IMO_CONFIG Starting address: CYDEV_CLK_IMO_CONFIG */
 207:.\Generated_Source\PSoC4/cyfitter_cfg.c **** 	CY_SET_XTND_REG32((void CYFAR *)(CYREG_CLK_IMO_CONFIG), 0x80000000u);
 278              		.loc 1 207 0
 279 0042 144B     		ldr	r3, .L10+32
 280 0044 8022     		mov	r2, #128
 281 0046 1206     		lsl	r2, r2, #24
 282 0048 1A60     		str	r2, [r3]
 208:.\Generated_Source\PSoC4/cyfitter_cfg.c **** 
 209:.\Generated_Source\PSoC4/cyfitter_cfg.c **** 	/* CYDEV_CLK_SELECT Starting address: CYDEV_CLK_SELECT */
 210:.\Generated_Source\PSoC4/cyfitter_cfg.c **** 	CY_SET_XTND_REG32((void CYFAR *)(CYREG_CLK_SELECT), 0x00000000u);
 283              		.loc 1 210 0
 284 004a 0A4B     		ldr	r3, .L10
 285 004c 0022     		mov	r2, #0
 286 004e 1A60     		str	r2, [r3]
 211:.\Generated_Source\PSoC4/cyfitter_cfg.c **** 
 212:.\Generated_Source\PSoC4/cyfitter_cfg.c **** 	/* CYDEV_CLK_DIVIDER_A00 Starting address: CYDEV_CLK_DIVIDER_A00 */
 213:.\Generated_Source\PSoC4/cyfitter_cfg.c **** 	CY_SET_XTND_REG32((void CYFAR *)(CYREG_CLK_DIVIDER_A00), 0x800000FEu);
 287              		.loc 1 213 0
 288 0050 114B     		ldr	r3, .L10+36
 289 0052 124A     		ldr	r2, .L10+40
 290 0054 1A60     		str	r2, [r3]
 214:.\Generated_Source\PSoC4/cyfitter_cfg.c **** 
 215:.\Generated_Source\PSoC4/cyfitter_cfg.c **** 	/* CYDEV_CLK_DIVIDER_B00 Starting address: CYDEV_CLK_DIVIDER_B00 */
 216:.\Generated_Source\PSoC4/cyfitter_cfg.c **** 	CY_SET_XTND_REG32((void CYFAR *)(CYREG_CLK_DIVIDER_B00), 0xC00000FEu);
 291              		.loc 1 216 0
 292 0056 124B     		ldr	r3, .L10+44
 293 0058 124A     		ldr	r2, .L10+48
 294 005a 1A60     		str	r2, [r3]
ARM GAS  C:\Users\LUKASC~1\AppData\Local\Temp\ccLY7ayr.s 			page 10


 217:.\Generated_Source\PSoC4/cyfitter_cfg.c **** 
 218:.\Generated_Source\PSoC4/cyfitter_cfg.c **** 	/* CYDEV_CLK_DIVIDER_C00 Starting address: CYDEV_CLK_DIVIDER_C00 */
 219:.\Generated_Source\PSoC4/cyfitter_cfg.c **** 	CY_SET_XTND_REG32((void CYFAR *)(CYREG_CLK_DIVIDER_C00), 0x8000000Eu);
 295              		.loc 1 219 0
 296 005c 124B     		ldr	r3, .L10+52
 297 005e 134A     		ldr	r2, .L10+56
 298 0060 1A60     		str	r2, [r3]
 220:.\Generated_Source\PSoC4/cyfitter_cfg.c **** 
 221:.\Generated_Source\PSoC4/cyfitter_cfg.c **** 	/* CYDEV_CLK_DIVIDER_A01 Starting address: CYDEV_CLK_DIVIDER_A01 */
 222:.\Generated_Source\PSoC4/cyfitter_cfg.c **** 	CY_SET_XTND_REG32((void CYFAR *)(CYREG_CLK_DIVIDER_A01), 0x80000010u);
 299              		.loc 1 222 0
 300 0062 134B     		ldr	r3, .L10+60
 301 0064 134A     		ldr	r2, .L10+64
 302 0066 1A60     		str	r2, [r3]
 223:.\Generated_Source\PSoC4/cyfitter_cfg.c **** 
 224:.\Generated_Source\PSoC4/cyfitter_cfg.c **** 	CY_SET_XTND_REG32((void CYFAR *)(CYREG_WDT_CONFIG), 0x00000000u);
 303              		.loc 1 224 0
 304 0068 134B     		ldr	r3, .L10+68
 305 006a 0022     		mov	r2, #0
 306 006c 1A60     		str	r2, [r3]
 225:.\Generated_Source\PSoC4/cyfitter_cfg.c **** }
 307              		.loc 1 225 0
 308 006e BD46     		mov	sp, r7
 309              		@ sp needed
 310 0070 80BD     		pop	{r7, pc}
 311              	.L11:
 312 0072 C046     		.align	2
 313              	.L10:
 314 0074 00010B40 		.word	1074462976
 315 0078 FFFFFBFF 		.word	-262145
 316 007c 04010B40 		.word	1074462980
 317 0080 06000080 		.word	-2147483642
 318 0084 08020240 		.word	1073873416
 319 0088 0C020240 		.word	1073873420
 320 008c 14020240 		.word	1073873428
 321 0090 18020240 		.word	1073873432
 322 0094 08010B40 		.word	1074462984
 323 0098 00000240 		.word	1073872896
 324 009c FE000080 		.word	-2147483394
 325 00a0 40000240 		.word	1073872960
 326 00a4 FE0000C0 		.word	-1073741570
 327 00a8 80000240 		.word	1073873024
 328 00ac 0E000080 		.word	-2147483634
 329 00b0 04000240 		.word	1073872900
 330 00b4 10000080 		.word	-2147483632
 331 00b8 0C020B40 		.word	1074463244
 332              		.cfi_endproc
 333              	.LFE4:
 334              		.size	ClockSetup, .-ClockSetup
 335              		.section	.text.AnalogSetDefault,"ax",%progbits
 336              		.align	2
 337              		.code	16
 338              		.thumb_func
 339              		.type	AnalogSetDefault, %function
 340              	AnalogSetDefault:
 341              	.LFB5:
 226:.\Generated_Source\PSoC4/cyfitter_cfg.c **** 
ARM GAS  C:\Users\LUKASC~1\AppData\Local\Temp\ccLY7ayr.s 			page 11


 227:.\Generated_Source\PSoC4/cyfitter_cfg.c **** 
 228:.\Generated_Source\PSoC4/cyfitter_cfg.c **** /* Analog API Functions */
 229:.\Generated_Source\PSoC4/cyfitter_cfg.c **** 
 230:.\Generated_Source\PSoC4/cyfitter_cfg.c **** 
 231:.\Generated_Source\PSoC4/cyfitter_cfg.c **** /*******************************************************************************
 232:.\Generated_Source\PSoC4/cyfitter_cfg.c **** * Function Name: AnalogSetDefault
 233:.\Generated_Source\PSoC4/cyfitter_cfg.c **** ********************************************************************************
 234:.\Generated_Source\PSoC4/cyfitter_cfg.c **** *
 235:.\Generated_Source\PSoC4/cyfitter_cfg.c **** * Summary:
 236:.\Generated_Source\PSoC4/cyfitter_cfg.c **** *  Sets up the analog portions of the chip to default values based on chip
 237:.\Generated_Source\PSoC4/cyfitter_cfg.c **** *  configuration options from the project.
 238:.\Generated_Source\PSoC4/cyfitter_cfg.c **** *
 239:.\Generated_Source\PSoC4/cyfitter_cfg.c **** * Parameters:
 240:.\Generated_Source\PSoC4/cyfitter_cfg.c **** *  void
 241:.\Generated_Source\PSoC4/cyfitter_cfg.c **** *
 242:.\Generated_Source\PSoC4/cyfitter_cfg.c **** * Return:
 243:.\Generated_Source\PSoC4/cyfitter_cfg.c **** *  void
 244:.\Generated_Source\PSoC4/cyfitter_cfg.c **** *
 245:.\Generated_Source\PSoC4/cyfitter_cfg.c **** *******************************************************************************/
 246:.\Generated_Source\PSoC4/cyfitter_cfg.c **** static void AnalogSetDefault(void);
 247:.\Generated_Source\PSoC4/cyfitter_cfg.c **** static void AnalogSetDefault(void)
 248:.\Generated_Source\PSoC4/cyfitter_cfg.c **** {
 342              		.loc 1 248 0
 343              		.cfi_startproc
 344 0000 80B5     		push	{r7, lr}
 345              		.cfi_def_cfa_offset 8
 346              		.cfi_offset 7, -8
 347              		.cfi_offset 14, -4
 348 0002 00AF     		add	r7, sp, #0
 349              		.cfi_def_cfa_register 7
 249:.\Generated_Source\PSoC4/cyfitter_cfg.c **** 	SetAnalogRoutingPumps(1);
 350              		.loc 1 249 0
 351 0004 0120     		mov	r0, #1
 352 0006 FFF7FEFF 		bl	SetAnalogRoutingPumps
 250:.\Generated_Source\PSoC4/cyfitter_cfg.c **** }
 353              		.loc 1 250 0
 354 000a BD46     		mov	sp, r7
 355              		@ sp needed
 356 000c 80BD     		pop	{r7, pc}
 357              		.cfi_endproc
 358              	.LFE5:
 359              		.size	AnalogSetDefault, .-AnalogSetDefault
 360              		.section	.text.SetAnalogRoutingPumps,"ax",%progbits
 361              		.align	2
 362              		.global	SetAnalogRoutingPumps
 363              		.code	16
 364              		.thumb_func
 365              		.type	SetAnalogRoutingPumps, %function
 366              	SetAnalogRoutingPumps:
 367              	.LFB6:
 251:.\Generated_Source\PSoC4/cyfitter_cfg.c **** 
 252:.\Generated_Source\PSoC4/cyfitter_cfg.c **** 
 253:.\Generated_Source\PSoC4/cyfitter_cfg.c **** /*******************************************************************************
 254:.\Generated_Source\PSoC4/cyfitter_cfg.c **** * Function Name: SetAnalogRoutingPumps
 255:.\Generated_Source\PSoC4/cyfitter_cfg.c **** ********************************************************************************
 256:.\Generated_Source\PSoC4/cyfitter_cfg.c **** *
 257:.\Generated_Source\PSoC4/cyfitter_cfg.c **** * Summary:
ARM GAS  C:\Users\LUKASC~1\AppData\Local\Temp\ccLY7ayr.s 			page 12


 258:.\Generated_Source\PSoC4/cyfitter_cfg.c **** * Enables or disables the analog pumps feeding analog routing switches.
 259:.\Generated_Source\PSoC4/cyfitter_cfg.c **** * Intended to be called at startup, based on the Vdda system configuration;
 260:.\Generated_Source\PSoC4/cyfitter_cfg.c **** * may be called during operation when the user informs us that the Vdda voltage crossed the pump th
 261:.\Generated_Source\PSoC4/cyfitter_cfg.c **** *
 262:.\Generated_Source\PSoC4/cyfitter_cfg.c **** * Parameters:
 263:.\Generated_Source\PSoC4/cyfitter_cfg.c **** *  enabled - 1 to enable the pumps, 0 to disable the pumps
 264:.\Generated_Source\PSoC4/cyfitter_cfg.c **** *
 265:.\Generated_Source\PSoC4/cyfitter_cfg.c **** * Return:
 266:.\Generated_Source\PSoC4/cyfitter_cfg.c **** *  void
 267:.\Generated_Source\PSoC4/cyfitter_cfg.c **** *
 268:.\Generated_Source\PSoC4/cyfitter_cfg.c **** *******************************************************************************/
 269:.\Generated_Source\PSoC4/cyfitter_cfg.c **** void SetAnalogRoutingPumps(uint8 enabled)
 270:.\Generated_Source\PSoC4/cyfitter_cfg.c **** {
 368              		.loc 1 270 0
 369              		.cfi_startproc
 370 0000 80B5     		push	{r7, lr}
 371              		.cfi_def_cfa_offset 8
 372              		.cfi_offset 7, -8
 373              		.cfi_offset 14, -4
 374 0002 84B0     		sub	sp, sp, #16
 375              		.cfi_def_cfa_offset 24
 376 0004 00AF     		add	r7, sp, #0
 377              		.cfi_def_cfa_register 7
 378 0006 021C     		mov	r2, r0
 379 0008 FB1D     		add	r3, r7, #7
 380 000a 1A70     		strb	r2, [r3]
 271:.\Generated_Source\PSoC4/cyfitter_cfg.c **** 	uint32 regValue = CY_GET_XTND_REG32((void *)(CYREG_SAR_PUMP_CTRL));
 381              		.loc 1 271 0
 382 000c 154B     		ldr	r3, .L18
 383 000e 1B68     		ldr	r3, [r3]
 384 0010 FB60     		str	r3, [r7, #12]
 272:.\Generated_Source\PSoC4/cyfitter_cfg.c **** 	if (enabled != 0u)
 385              		.loc 1 272 0
 386 0012 FB1D     		add	r3, r7, #7
 387 0014 1B78     		ldrb	r3, [r3]
 388 0016 002B     		cmp	r3, #0
 389 0018 05D0     		beq	.L14
 273:.\Generated_Source\PSoC4/cyfitter_cfg.c **** 	{
 274:.\Generated_Source\PSoC4/cyfitter_cfg.c **** 		regValue |= 0x80000000u;
 390              		.loc 1 274 0
 391 001a FB68     		ldr	r3, [r7, #12]
 392 001c 8022     		mov	r2, #128
 393 001e 1206     		lsl	r2, r2, #24
 394 0020 1343     		orr	r3, r2
 395 0022 FB60     		str	r3, [r7, #12]
 396 0024 03E0     		b	.L15
 397              	.L14:
 275:.\Generated_Source\PSoC4/cyfitter_cfg.c **** 	}
 276:.\Generated_Source\PSoC4/cyfitter_cfg.c **** 	else
 277:.\Generated_Source\PSoC4/cyfitter_cfg.c **** 	{
 278:.\Generated_Source\PSoC4/cyfitter_cfg.c **** 		regValue &= ~0x80000000u;
 398              		.loc 1 278 0
 399 0026 FB68     		ldr	r3, [r7, #12]
 400 0028 5B00     		lsl	r3, r3, #1
 401 002a 5B08     		lsr	r3, r3, #1
 402 002c FB60     		str	r3, [r7, #12]
 403              	.L15:
ARM GAS  C:\Users\LUKASC~1\AppData\Local\Temp\ccLY7ayr.s 			page 13


 279:.\Generated_Source\PSoC4/cyfitter_cfg.c **** 	}
 280:.\Generated_Source\PSoC4/cyfitter_cfg.c **** 	CY_SET_XTND_REG32((void *)(CYREG_SAR_PUMP_CTRL), regValue);
 404              		.loc 1 280 0
 405 002e 0D4B     		ldr	r3, .L18
 406 0030 FA68     		ldr	r2, [r7, #12]
 407 0032 1A60     		str	r2, [r3]
 281:.\Generated_Source\PSoC4/cyfitter_cfg.c **** 	regValue = CY_GET_XTND_REG32((void *)(CYREG_CLK_IMO_CONFIG));
 408              		.loc 1 281 0
 409 0034 0C4B     		ldr	r3, .L18+4
 410 0036 1B68     		ldr	r3, [r3]
 411 0038 FB60     		str	r3, [r7, #12]
 282:.\Generated_Source\PSoC4/cyfitter_cfg.c **** 	if (enabled != 0u)
 412              		.loc 1 282 0
 413 003a FB1D     		add	r3, r7, #7
 414 003c 1B78     		ldrb	r3, [r3]
 415 003e 002B     		cmp	r3, #0
 416 0040 05D0     		beq	.L16
 283:.\Generated_Source\PSoC4/cyfitter_cfg.c **** 	{
 284:.\Generated_Source\PSoC4/cyfitter_cfg.c **** 		regValue |= 0x02000000u;
 417              		.loc 1 284 0
 418 0042 FB68     		ldr	r3, [r7, #12]
 419 0044 8022     		mov	r2, #128
 420 0046 9204     		lsl	r2, r2, #18
 421 0048 1343     		orr	r3, r2
 422 004a FB60     		str	r3, [r7, #12]
 423 004c 03E0     		b	.L17
 424              	.L16:
 285:.\Generated_Source\PSoC4/cyfitter_cfg.c **** 	}
 286:.\Generated_Source\PSoC4/cyfitter_cfg.c **** 	else
 287:.\Generated_Source\PSoC4/cyfitter_cfg.c **** 	{
 288:.\Generated_Source\PSoC4/cyfitter_cfg.c **** 		regValue &= ~0x02000000u;
 425              		.loc 1 288 0
 426 004e FB68     		ldr	r3, [r7, #12]
 427 0050 064A     		ldr	r2, .L18+8
 428 0052 1340     		and	r3, r2
 429 0054 FB60     		str	r3, [r7, #12]
 430              	.L17:
 289:.\Generated_Source\PSoC4/cyfitter_cfg.c **** 	}
 290:.\Generated_Source\PSoC4/cyfitter_cfg.c **** 	CY_SET_XTND_REG32((void *)(CYREG_CLK_IMO_CONFIG), regValue);
 431              		.loc 1 290 0
 432 0056 044B     		ldr	r3, .L18+4
 433 0058 FA68     		ldr	r2, [r7, #12]
 434 005a 1A60     		str	r2, [r3]
 291:.\Generated_Source\PSoC4/cyfitter_cfg.c **** }
 435              		.loc 1 291 0
 436 005c BD46     		mov	sp, r7
 437 005e 04B0     		add	sp, sp, #16
 438              		@ sp needed
 439 0060 80BD     		pop	{r7, pc}
 440              	.L19:
 441 0062 C046     		.align	2
 442              	.L18:
 443 0064 80031A40 		.word	1075446656
 444 0068 08010B40 		.word	1074462984
 445 006c FFFFFFFD 		.word	-33554433
 446              		.cfi_endproc
 447              	.LFE6:
ARM GAS  C:\Users\LUKASC~1\AppData\Local\Temp\ccLY7ayr.s 			page 14


 448              		.size	SetAnalogRoutingPumps, .-SetAnalogRoutingPumps
 449              		.section	.psocinit
 450              		.align	2
 451              		.global	cyfitter_cfg
 452              		.code	16
 453              		.thumb_func
 454              		.type	cyfitter_cfg, %function
 455              	cyfitter_cfg:
 456              	.LFB7:
 292:.\Generated_Source\PSoC4/cyfitter_cfg.c **** 
 293:.\Generated_Source\PSoC4/cyfitter_cfg.c **** #define CY_AMUX_UNUSED CYREG_CM0_ROM_DWT
 294:.\Generated_Source\PSoC4/cyfitter_cfg.c **** 
 295:.\Generated_Source\PSoC4/cyfitter_cfg.c **** 
 296:.\Generated_Source\PSoC4/cyfitter_cfg.c **** /*******************************************************************************
 297:.\Generated_Source\PSoC4/cyfitter_cfg.c **** * Function Name: cyfitter_cfg
 298:.\Generated_Source\PSoC4/cyfitter_cfg.c **** ********************************************************************************
 299:.\Generated_Source\PSoC4/cyfitter_cfg.c **** * Summary:
 300:.\Generated_Source\PSoC4/cyfitter_cfg.c **** *  This function is called by the start-up code for the selected device. It
 301:.\Generated_Source\PSoC4/cyfitter_cfg.c **** *  performs all of the necessary device configuration based on the design
 302:.\Generated_Source\PSoC4/cyfitter_cfg.c **** *  settings.  This includes settings from the Design Wide Resources (DWR) such
 303:.\Generated_Source\PSoC4/cyfitter_cfg.c **** *  as Clocks and Pins as well as any component configuration that is necessary.
 304:.\Generated_Source\PSoC4/cyfitter_cfg.c **** *
 305:.\Generated_Source\PSoC4/cyfitter_cfg.c **** * Parameters:  
 306:.\Generated_Source\PSoC4/cyfitter_cfg.c **** *   void
 307:.\Generated_Source\PSoC4/cyfitter_cfg.c **** *
 308:.\Generated_Source\PSoC4/cyfitter_cfg.c **** * Return:
 309:.\Generated_Source\PSoC4/cyfitter_cfg.c **** *   void
 310:.\Generated_Source\PSoC4/cyfitter_cfg.c **** *
 311:.\Generated_Source\PSoC4/cyfitter_cfg.c **** *******************************************************************************/
 312:.\Generated_Source\PSoC4/cyfitter_cfg.c **** CY_CFG_SECTION
 313:.\Generated_Source\PSoC4/cyfitter_cfg.c **** void cyfitter_cfg(void)
 314:.\Generated_Source\PSoC4/cyfitter_cfg.c **** {
 457              		.loc 1 314 0
 458              		.cfi_startproc
 459 00bc 80B5     		push	{r7, lr}
 460              		.cfi_def_cfa_offset 8
 461              		.cfi_offset 7, -8
 462              		.cfi_offset 14, -4
 463 00be 82B0     		sub	sp, sp, #8
 464              		.cfi_def_cfa_offset 16
 465 00c0 00AF     		add	r7, sp, #0
 466              		.cfi_def_cfa_register 7
 315:.\Generated_Source\PSoC4/cyfitter_cfg.c **** 	/* Disable interrupts by default. Let user enable if/when they want. */
 316:.\Generated_Source\PSoC4/cyfitter_cfg.c **** 	CyGlobalIntDisable;
 467              		.loc 1 316 0
 468              	@ 316 ".\Generated_Source\PSoC4\cyfitter_cfg.c" 1
 469 00c2 72B6     		CPSID   i
 470              	@ 0 "" 2
 471              		.code	16
 472              	.LBB3:
 317:.\Generated_Source\PSoC4/cyfitter_cfg.c **** 
 318:.\Generated_Source\PSoC4/cyfitter_cfg.c **** 	{
 319:.\Generated_Source\PSoC4/cyfitter_cfg.c **** 		static const uint32 CYCODE cy_cfg_addr_table[] = {
 320:.\Generated_Source\PSoC4/cyfitter_cfg.c **** 			0x400F3004u, /* Base address: 0x400F3000 Count: 4 */
 321:.\Generated_Source\PSoC4/cyfitter_cfg.c **** 			0x400F3101u, /* Base address: 0x400F3100 Count: 1 */
 322:.\Generated_Source\PSoC4/cyfitter_cfg.c **** 			0x400F3301u, /* Base address: 0x400F3300 Count: 1 */
 323:.\Generated_Source\PSoC4/cyfitter_cfg.c **** 			0x400F4203u, /* Base address: 0x400F4200 Count: 3 */
ARM GAS  C:\Users\LUKASC~1\AppData\Local\Temp\ccLY7ayr.s 			page 15


 324:.\Generated_Source\PSoC4/cyfitter_cfg.c **** 			0x400F4306u, /* Base address: 0x400F4300 Count: 6 */
 325:.\Generated_Source\PSoC4/cyfitter_cfg.c **** 		};
 326:.\Generated_Source\PSoC4/cyfitter_cfg.c **** 
 327:.\Generated_Source\PSoC4/cyfitter_cfg.c **** 		static const cy_cfg_addrvalue_t CYCODE cy_cfg_data_table[] = {
 328:.\Generated_Source\PSoC4/cyfitter_cfg.c **** 			{0x38u, 0x80u},
 329:.\Generated_Source\PSoC4/cyfitter_cfg.c **** 			{0x3Eu, 0x40u},
 330:.\Generated_Source\PSoC4/cyfitter_cfg.c **** 			{0x58u, 0x04u},
 331:.\Generated_Source\PSoC4/cyfitter_cfg.c **** 			{0x5Fu, 0x01u},
 332:.\Generated_Source\PSoC4/cyfitter_cfg.c **** 			{0x18u, 0x01u},
 333:.\Generated_Source\PSoC4/cyfitter_cfg.c **** 			{0xB4u, 0x01u},
 334:.\Generated_Source\PSoC4/cyfitter_cfg.c **** 			{0x6Cu, 0x40u},
 335:.\Generated_Source\PSoC4/cyfitter_cfg.c **** 			{0x70u, 0x08u},
 336:.\Generated_Source\PSoC4/cyfitter_cfg.c **** 			{0xDCu, 0x03u},
 337:.\Generated_Source\PSoC4/cyfitter_cfg.c **** 			{0x61u, 0x02u},
 338:.\Generated_Source\PSoC4/cyfitter_cfg.c **** 			{0xA1u, 0x02u},
 339:.\Generated_Source\PSoC4/cyfitter_cfg.c **** 			{0xB4u, 0x48u},
 340:.\Generated_Source\PSoC4/cyfitter_cfg.c **** 			{0xB5u, 0x02u},
 341:.\Generated_Source\PSoC4/cyfitter_cfg.c **** 			{0xD8u, 0x02u},
 342:.\Generated_Source\PSoC4/cyfitter_cfg.c **** 			{0xECu, 0x08u},
 343:.\Generated_Source\PSoC4/cyfitter_cfg.c **** 		};
 344:.\Generated_Source\PSoC4/cyfitter_cfg.c **** 
 345:.\Generated_Source\PSoC4/cyfitter_cfg.c **** 
 346:.\Generated_Source\PSoC4/cyfitter_cfg.c **** 
 347:.\Generated_Source\PSoC4/cyfitter_cfg.c **** 		CYPACKED typedef struct {
 348:.\Generated_Source\PSoC4/cyfitter_cfg.c **** 			void CYFAR *address;
 349:.\Generated_Source\PSoC4/cyfitter_cfg.c **** 			uint16 size;
 350:.\Generated_Source\PSoC4/cyfitter_cfg.c **** 		} CYPACKED_ATTR cfg_memset_t;
 351:.\Generated_Source\PSoC4/cyfitter_cfg.c **** 
 352:.\Generated_Source\PSoC4/cyfitter_cfg.c **** 		static const cfg_memset_t CYCODE cfg_memset_list [] = {
 353:.\Generated_Source\PSoC4/cyfitter_cfg.c **** 			/* address, size */
 354:.\Generated_Source\PSoC4/cyfitter_cfg.c **** 			{(void CYFAR *)(CYDEV_UDB_P0_U0_BASE), 1024u},
 355:.\Generated_Source\PSoC4/cyfitter_cfg.c **** 			{(void CYFAR *)(CYDEV_UDB_DSI0_BASE), 1024u},
 356:.\Generated_Source\PSoC4/cyfitter_cfg.c **** 		};
 357:.\Generated_Source\PSoC4/cyfitter_cfg.c **** 
 358:.\Generated_Source\PSoC4/cyfitter_cfg.c **** 		uint8 CYDATA i;
 359:.\Generated_Source\PSoC4/cyfitter_cfg.c **** 
 360:.\Generated_Source\PSoC4/cyfitter_cfg.c **** 		/* Zero out critical memory blocks before beginning configuration */
 361:.\Generated_Source\PSoC4/cyfitter_cfg.c **** 		for (i = 0u; i < (sizeof(cfg_memset_list)/sizeof(cfg_memset_list[0])); i++)
 473              		.loc 1 361 0
 474 00c4 FB1D     		add	r3, r7, #7
 475 00c6 0022     		mov	r2, #0
 476 00c8 1A70     		strb	r2, [r3]
 477 00ca 23E0     		b	.L21
 478              	.L22:
 479              	.LBB4:
 362:.\Generated_Source\PSoC4/cyfitter_cfg.c **** 		{
 363:.\Generated_Source\PSoC4/cyfitter_cfg.c **** 			const cfg_memset_t CYCODE * CYDATA ms = &cfg_memset_list[i];
 480              		.loc 1 363 0 discriminator 3
 481 00cc FB1D     		add	r3, r7, #7
 482 00ce 1A78     		ldrb	r2, [r3]
 483 00d0 131C     		mov	r3, r2
 484 00d2 5B00     		lsl	r3, r3, #1
 485 00d4 9B18     		add	r3, r3, r2
 486 00d6 5B00     		lsl	r3, r3, #1
 487 00d8 3F4A     		ldr	r2, .L23
 488 00da 9B18     		add	r3, r3, r2
 489 00dc 3B60     		str	r3, [r7]
ARM GAS  C:\Users\LUKASC~1\AppData\Local\Temp\ccLY7ayr.s 			page 16


 364:.\Generated_Source\PSoC4/cyfitter_cfg.c **** 			CYMEMZERO(ms->address, (size_t)(uint32)(ms->size));
 490              		.loc 1 364 0 discriminator 3
 491 00de 3B68     		ldr	r3, [r7]
 492 00e0 1A78     		ldrb	r2, [r3]
 493 00e2 5978     		ldrb	r1, [r3, #1]
 494 00e4 0902     		lsl	r1, r1, #8
 495 00e6 0A43     		orr	r2, r1
 496 00e8 9978     		ldrb	r1, [r3, #2]
 497 00ea 0904     		lsl	r1, r1, #16
 498 00ec 0A43     		orr	r2, r1
 499 00ee DB78     		ldrb	r3, [r3, #3]
 500 00f0 1B06     		lsl	r3, r3, #24
 501 00f2 1343     		orr	r3, r2
 502 00f4 191C     		mov	r1, r3
 503 00f6 3B68     		ldr	r3, [r7]
 504 00f8 1A79     		ldrb	r2, [r3, #4]
 505 00fa 5B79     		ldrb	r3, [r3, #5]
 506 00fc 1B02     		lsl	r3, r3, #8
 507 00fe 1343     		orr	r3, r2
 508 0100 9BB2     		uxth	r3, r3
 509 0102 081C     		mov	r0, r1
 510 0104 191C     		mov	r1, r3
 511 0106 FFF7FEFF 		bl	CYMEMZERO
 512              	.LBE4:
 361:.\Generated_Source\PSoC4/cyfitter_cfg.c **** 		{
 513              		.loc 1 361 0 discriminator 3
 514 010a FB1D     		add	r3, r7, #7
 515 010c 1A78     		ldrb	r2, [r3]
 516 010e FB1D     		add	r3, r7, #7
 517 0110 0132     		add	r2, r2, #1
 518 0112 1A70     		strb	r2, [r3]
 519              	.L21:
 361:.\Generated_Source\PSoC4/cyfitter_cfg.c **** 		{
 520              		.loc 1 361 0 is_stmt 0 discriminator 1
 521 0114 FB1D     		add	r3, r7, #7
 522 0116 1B78     		ldrb	r3, [r3]
 523 0118 012B     		cmp	r3, #1
 524 011a D7D9     		bls	.L22
 365:.\Generated_Source\PSoC4/cyfitter_cfg.c **** 		}
 366:.\Generated_Source\PSoC4/cyfitter_cfg.c **** 
 367:.\Generated_Source\PSoC4/cyfitter_cfg.c **** 		cfg_write_bytes32(cy_cfg_addr_table, cy_cfg_data_table);
 525              		.loc 1 367 0 is_stmt 1
 526 011c 2F4A     		ldr	r2, .L23+4
 527 011e 304B     		ldr	r3, .L23+8
 528 0120 101C     		mov	r0, r2
 529 0122 191C     		mov	r1, r3
 530 0124 FFF7FEFF 		bl	cfg_write_bytes32
 368:.\Generated_Source\PSoC4/cyfitter_cfg.c **** 
 369:.\Generated_Source\PSoC4/cyfitter_cfg.c **** 		/* HSIOM Starting address: CYDEV_HSIOM_BASE */
 370:.\Generated_Source\PSoC4/cyfitter_cfg.c **** 		CY_SET_XTND_REG32((void CYFAR *)(CYREG_HSIOM_PORT_SEL3), 0x0000EEEEu);
 531              		.loc 1 370 0
 532 0128 2E4B     		ldr	r3, .L23+12
 533 012a 2F4A     		ldr	r2, .L23+16
 534 012c 1A60     		str	r2, [r3]
 371:.\Generated_Source\PSoC4/cyfitter_cfg.c **** 		CY_SET_XTND_REG32((void CYFAR *)(CYREG_HSIOM_PORT_SEL4), 0x00000099u);
 535              		.loc 1 371 0
 536 012e 2F4B     		ldr	r3, .L23+20
ARM GAS  C:\Users\LUKASC~1\AppData\Local\Temp\ccLY7ayr.s 			page 17


 537 0130 9922     		mov	r2, #153
 538 0132 1A60     		str	r2, [r3]
 372:.\Generated_Source\PSoC4/cyfitter_cfg.c **** 
 373:.\Generated_Source\PSoC4/cyfitter_cfg.c **** 		/* UDB_PA_0 Starting address: CYDEV_UDB_PA0_BASE */
 374:.\Generated_Source\PSoC4/cyfitter_cfg.c **** 		CY_SET_XTND_REG32((void CYFAR *)(CYDEV_UDB_PA0_BASE), 0x00990000u);
 539              		.loc 1 374 0
 540 0134 2E4B     		ldr	r3, .L23+24
 541 0136 9922     		mov	r2, #153
 542 0138 1204     		lsl	r2, r2, #16
 543 013a 1A60     		str	r2, [r3]
 375:.\Generated_Source\PSoC4/cyfitter_cfg.c **** 
 376:.\Generated_Source\PSoC4/cyfitter_cfg.c **** 		/* UDB_PA_1 Starting address: CYDEV_UDB_PA1_BASE */
 377:.\Generated_Source\PSoC4/cyfitter_cfg.c **** 		CY_SET_XTND_REG32((void CYFAR *)(CYDEV_UDB_PA1_BASE), 0x00990000u);
 544              		.loc 1 377 0
 545 013c 2D4B     		ldr	r3, .L23+28
 546 013e 9922     		mov	r2, #153
 547 0140 1204     		lsl	r2, r2, #16
 548 0142 1A60     		str	r2, [r3]
 378:.\Generated_Source\PSoC4/cyfitter_cfg.c **** 
 379:.\Generated_Source\PSoC4/cyfitter_cfg.c **** 		/* UDB_PA_3 Starting address: CYDEV_UDB_PA3_BASE */
 380:.\Generated_Source\PSoC4/cyfitter_cfg.c **** 		CY_SET_XTND_REG32((void CYFAR *)(CYDEV_UDB_PA3_BASE), 0x00990000u);
 549              		.loc 1 380 0
 550 0144 2C4B     		ldr	r3, .L23+32
 551 0146 9922     		mov	r2, #153
 552 0148 1204     		lsl	r2, r2, #16
 553 014a 1A60     		str	r2, [r3]
 381:.\Generated_Source\PSoC4/cyfitter_cfg.c **** 		CY_SET_XTND_REG32((void CYFAR *)(CYREG_UDB_PA3_CFG8), 0x20000000u);
 554              		.loc 1 381 0
 555 014c 2B4B     		ldr	r3, .L23+36
 556 014e 8022     		mov	r2, #128
 557 0150 9205     		lsl	r2, r2, #22
 558 0152 1A60     		str	r2, [r3]
 382:.\Generated_Source\PSoC4/cyfitter_cfg.c **** 
 383:.\Generated_Source\PSoC4/cyfitter_cfg.c **** 		/* Enable digital routing */
 384:.\Generated_Source\PSoC4/cyfitter_cfg.c **** 		CY_SET_XTND_REG8((void *)CYREG_UDB_UDBIF_BANK_CTL, CY_GET_XTND_REG8((void *)CYREG_UDB_UDBIF_BANK_
 559              		.loc 1 384 0
 560 0154 2A4A     		ldr	r2, .L23+40
 561 0156 2A4B     		ldr	r3, .L23+40
 562 0158 1B78     		ldrb	r3, [r3]
 563 015a DBB2     		uxtb	r3, r3
 564 015c 0221     		mov	r1, #2
 565 015e 0B43     		orr	r3, r1
 566 0160 DBB2     		uxtb	r3, r3
 567 0162 1370     		strb	r3, [r2]
 385:.\Generated_Source\PSoC4/cyfitter_cfg.c **** 
 386:.\Generated_Source\PSoC4/cyfitter_cfg.c **** 		/* Enable UDB array */
 387:.\Generated_Source\PSoC4/cyfitter_cfg.c **** 		CY_SET_XTND_REG8((void *)CYREG_UDB_UDBIF_WAIT_CFG, (uint8)((CY_GET_XTND_REG8((void *)CYREG_UDB_UD
 568              		.loc 1 387 0
 569 0164 274A     		ldr	r2, .L23+44
 570 0166 274B     		ldr	r3, .L23+44
 571 0168 1B78     		ldrb	r3, [r3]
 572 016a DBB2     		uxtb	r3, r3
 573 016c 3C21     		mov	r1, #60
 574 016e 8B43     		bic	r3, r1
 575 0170 DBB2     		uxtb	r3, r3
 576 0172 1421     		mov	r1, #20
 577 0174 0B43     		orr	r3, r1
ARM GAS  C:\Users\LUKASC~1\AppData\Local\Temp\ccLY7ayr.s 			page 18


 578 0176 DBB2     		uxtb	r3, r3
 579 0178 1370     		strb	r3, [r2]
 388:.\Generated_Source\PSoC4/cyfitter_cfg.c **** 		CY_SET_XTND_REG8((void *)CYREG_UDB_UDBIF_BANK_CTL, (uint8)(CY_GET_XTND_REG8((void *)CYREG_UDB_UDB
 580              		.loc 1 388 0
 581 017a 214A     		ldr	r2, .L23+40
 582 017c 204B     		ldr	r3, .L23+40
 583 017e 1B78     		ldrb	r3, [r3]
 584 0180 DBB2     		uxtb	r3, r3
 585 0182 1621     		mov	r1, #22
 586 0184 0B43     		orr	r3, r1
 587 0186 DBB2     		uxtb	r3, r3
 588 0188 1370     		strb	r3, [r2]
 589              	.LBE3:
 389:.\Generated_Source\PSoC4/cyfitter_cfg.c **** 	}
 390:.\Generated_Source\PSoC4/cyfitter_cfg.c **** 
 391:.\Generated_Source\PSoC4/cyfitter_cfg.c **** 	/* Perform second pass device configuration. These items must be configured in specific order afte
 392:.\Generated_Source\PSoC4/cyfitter_cfg.c **** 	/* IOPINS0_0 Starting address: CYDEV_PRT0_BASE */
 393:.\Generated_Source\PSoC4/cyfitter_cfg.c **** 	CY_SET_XTND_REG32((void CYFAR *)(CYDEV_PRT0_BASE), 0x000000FFu);
 590              		.loc 1 393 0
 591 018a 1F4B     		ldr	r3, .L23+48
 592 018c FF22     		mov	r2, #255
 593 018e 1A60     		str	r2, [r3]
 394:.\Generated_Source\PSoC4/cyfitter_cfg.c **** 	CY_SET_XTND_REG32((void CYFAR *)(CYREG_PRT0_PC2), 0x000000FFu);
 594              		.loc 1 394 0
 595 0190 1E4B     		ldr	r3, .L23+52
 596 0192 FF22     		mov	r2, #255
 597 0194 1A60     		str	r2, [r3]
 395:.\Generated_Source\PSoC4/cyfitter_cfg.c **** 
 396:.\Generated_Source\PSoC4/cyfitter_cfg.c **** 	/* IOPINS0_1 Starting address: CYDEV_PRT1_BASE */
 397:.\Generated_Source\PSoC4/cyfitter_cfg.c **** 	CY_SET_XTND_REG32((void CYFAR *)(CYDEV_PRT1_BASE), 0x0000000Fu);
 598              		.loc 1 397 0
 599 0196 1E4B     		ldr	r3, .L23+56
 600 0198 0F22     		mov	r2, #15
 601 019a 1A60     		str	r2, [r3]
 398:.\Generated_Source\PSoC4/cyfitter_cfg.c **** 	CY_SET_XTND_REG32((void CYFAR *)(CYREG_PRT1_PC), 0x00180000u);
 602              		.loc 1 398 0
 603 019c 1D4B     		ldr	r3, .L23+60
 604 019e C022     		mov	r2, #192
 605 01a0 5203     		lsl	r2, r2, #13
 606 01a2 1A60     		str	r2, [r3]
 399:.\Generated_Source\PSoC4/cyfitter_cfg.c **** 	CY_SET_XTND_REG32((void CYFAR *)(CYREG_PRT1_PC2), 0x0000000Fu);
 607              		.loc 1 399 0
 608 01a4 1C4B     		ldr	r3, .L23+64
 609 01a6 0F22     		mov	r2, #15
 610 01a8 1A60     		str	r2, [r3]
 400:.\Generated_Source\PSoC4/cyfitter_cfg.c **** 
 401:.\Generated_Source\PSoC4/cyfitter_cfg.c **** 	/* IOPINS0_3 Starting address: CYDEV_PRT3_BASE */
 402:.\Generated_Source\PSoC4/cyfitter_cfg.c **** 	CY_SET_XTND_REG32((void CYFAR *)(CYDEV_PRT3_BASE), 0x00000003u);
 611              		.loc 1 402 0
 612 01aa 1C4B     		ldr	r3, .L23+68
 613 01ac 0322     		mov	r2, #3
 614 01ae 1A60     		str	r2, [r3]
 403:.\Generated_Source\PSoC4/cyfitter_cfg.c **** 	CY_SET_XTND_REG32((void CYFAR *)(CYREG_PRT3_PC), 0x00000DA4u);
 615              		.loc 1 403 0
 616 01b0 1B4B     		ldr	r3, .L23+72
 617 01b2 1C4A     		ldr	r2, .L23+76
 618 01b4 1A60     		str	r2, [r3]
ARM GAS  C:\Users\LUKASC~1\AppData\Local\Temp\ccLY7ayr.s 			page 19


 404:.\Generated_Source\PSoC4/cyfitter_cfg.c **** 
 405:.\Generated_Source\PSoC4/cyfitter_cfg.c **** 	/* IOPINS0_4 Starting address: CYDEV_PRT4_BASE */
 406:.\Generated_Source\PSoC4/cyfitter_cfg.c **** 	CY_SET_XTND_REG32((void CYFAR *)(CYDEV_PRT4_BASE), 0x00000006u);
 619              		.loc 1 406 0
 620 01b6 1C4B     		ldr	r3, .L23+80
 621 01b8 0622     		mov	r2, #6
 622 01ba 1A60     		str	r2, [r3]
 407:.\Generated_Source\PSoC4/cyfitter_cfg.c **** 	CY_SET_XTND_REG32((void CYFAR *)(CYREG_PRT4_PC), 0x00000031u);
 623              		.loc 1 407 0
 624 01bc 1B4B     		ldr	r3, .L23+84
 625 01be 3122     		mov	r2, #49
 626 01c0 1A60     		str	r2, [r3]
 408:.\Generated_Source\PSoC4/cyfitter_cfg.c **** 	CY_SET_XTND_REG32((void CYFAR *)(CYREG_PRT4_PC2), 0x00000006u);
 627              		.loc 1 408 0
 628 01c2 1B4B     		ldr	r3, .L23+88
 629 01c4 0622     		mov	r2, #6
 630 01c6 1A60     		str	r2, [r3]
 409:.\Generated_Source\PSoC4/cyfitter_cfg.c **** 
 410:.\Generated_Source\PSoC4/cyfitter_cfg.c **** 
 411:.\Generated_Source\PSoC4/cyfitter_cfg.c **** 	/* Setup clocks based on selections from Clock DWR */
 412:.\Generated_Source\PSoC4/cyfitter_cfg.c **** 	ClockSetup();
 631              		.loc 1 412 0
 632 01c8 FFF71AFF 		bl	ClockSetup
 413:.\Generated_Source\PSoC4/cyfitter_cfg.c **** 
 414:.\Generated_Source\PSoC4/cyfitter_cfg.c **** 	/* Perform basic analog initialization to defaults */
 415:.\Generated_Source\PSoC4/cyfitter_cfg.c **** 	AnalogSetDefault();
 633              		.loc 1 415 0
 634 01cc FFF7FEFF 		bl	AnalogSetDefault
 416:.\Generated_Source\PSoC4/cyfitter_cfg.c **** 
 417:.\Generated_Source\PSoC4/cyfitter_cfg.c **** }
 635              		.loc 1 417 0
 636 01d0 BD46     		mov	sp, r7
 637 01d2 02B0     		add	sp, sp, #8
 638              		@ sp needed
 639 01d4 80BD     		pop	{r7, pc}
 640              	.L24:
 641 01d6 C046     		.align	2
 642              	.L23:
 643 01d8 00000000 		.word	cfg_memset_list.4752
 644 01dc 0C000000 		.word	cy_cfg_addr_table.4746
 645 01e0 20000000 		.word	cy_cfg_data_table.4747
 646 01e4 0C000140 		.word	1073807372
 647 01e8 EEEE0000 		.word	61166
 648 01ec 10000140 		.word	1073807376
 649 01f0 00500F40 		.word	1074745344
 650 01f4 10500F40 		.word	1074745360
 651 01f8 30500F40 		.word	1074745392
 652 01fc 38500F40 		.word	1074745400
 653 0200 00700F40 		.word	1074753536
 654 0204 01700F40 		.word	1074753537
 655 0208 00000440 		.word	1074003968
 656 020c 18000440 		.word	1074003992
 657 0210 00010440 		.word	1074004224
 658 0214 08010440 		.word	1074004232
 659 0218 18010440 		.word	1074004248
 660 021c 00030440 		.word	1074004736
 661 0220 08030440 		.word	1074004744
ARM GAS  C:\Users\LUKASC~1\AppData\Local\Temp\ccLY7ayr.s 			page 20


 662 0224 A40D0000 		.word	3492
 663 0228 00040440 		.word	1074004992
 664 022c 08040440 		.word	1074005000
 665 0230 18040440 		.word	1074005016
 666              		.cfi_endproc
 667              	.LFE7:
 668              		.size	cyfitter_cfg, .-cyfitter_cfg
 669              		.section	.rodata
 670              		.align	2
 671              		.type	cfg_memset_list.4752, %object
 672              		.size	cfg_memset_list.4752, 12
 673              	cfg_memset_list.4752:
 674 0000 00300F40 		.word	1074737152
 675 0004 0004     		.short	1024
 676 0006 00400F40 		.4byte	1074741248
 677 000a 0004     		.short	1024
 678              		.align	2
 679              		.type	cy_cfg_addr_table.4746, %object
 680              		.size	cy_cfg_addr_table.4746, 20
 681              	cy_cfg_addr_table.4746:
 682 000c 04300F40 		.word	1074737156
 683 0010 01310F40 		.word	1074737409
 684 0014 01330F40 		.word	1074737921
 685 0018 03420F40 		.word	1074741763
 686 001c 06430F40 		.word	1074742022
 687              		.align	2
 688              		.type	cy_cfg_data_table.4747, %object
 689              		.size	cy_cfg_data_table.4747, 30
 690              	cy_cfg_data_table.4747:
 691 0020 38       		.byte	56
 692 0021 80       		.byte	-128
 693 0022 3E       		.byte	62
 694 0023 40       		.byte	64
 695 0024 58       		.byte	88
 696 0025 04       		.byte	4
 697 0026 5F       		.byte	95
 698 0027 01       		.byte	1
 699 0028 18       		.byte	24
 700 0029 01       		.byte	1
 701 002a B4       		.byte	-76
 702 002b 01       		.byte	1
 703 002c 6C       		.byte	108
 704 002d 40       		.byte	64
 705 002e 70       		.byte	112
 706 002f 08       		.byte	8
 707 0030 DC       		.byte	-36
 708 0031 03       		.byte	3
 709 0032 61       		.byte	97
 710 0033 02       		.byte	2
 711 0034 A1       		.byte	-95
 712 0035 02       		.byte	2
 713 0036 B4       		.byte	-76
 714 0037 48       		.byte	72
 715 0038 B5       		.byte	-75
 716 0039 02       		.byte	2
 717 003a D8       		.byte	-40
 718 003b 02       		.byte	2
ARM GAS  C:\Users\LUKASC~1\AppData\Local\Temp\ccLY7ayr.s 			page 21


 719 003c EC       		.byte	-20
 720 003d 08       		.byte	8
 721 003e 0000     		.text
 722              	.Letext0:
 723              		.file 2 "c:\\program files (x86)\\cypress\\psoc creator\\3.3\\psoc creator\\import\\gnu\\arm\\4.9.
 724              		.file 3 ".\\Generated_Source\\PSoC4\\cytypes.h"