ARM GAS  C:\Users\LUKASC~1\AppData\Local\Temp\ccSv4rUt.s 			page 1


   1              		.cpu cortex-m0
   2              		.fpu softvfp
   3              		.eabi_attribute 20, 1
   4              		.eabi_attribute 21, 1
   5              		.eabi_attribute 23, 3
   6              		.eabi_attribute 24, 1
   7              		.eabi_attribute 25, 1
   8              		.eabi_attribute 26, 1
   9              		.eabi_attribute 30, 6
  10              		.eabi_attribute 34, 0
  11              		.eabi_attribute 18, 4
  12              		.code	16
  13              		.file	"CyLFClk.c"
  14              		.text
  15              	.Ltext0:
  16              		.cfi_sections	.debug_frame
  17              		.bss
  18              		.align	2
  19              	lfclkPosedgeWdtCounter0Enabled:
  20 0000 00000000 		.space	4
  21              		.align	2
  22              	lfclkPosedgeWdtCounter0Mode:
  23 0004 00000000 		.space	4
  24              		.align	2
  25              	disableServicedIsr:
  26 0008 00000000 		.space	4
  27              		.data
  28              		.align	2
  29              		.type	wdtIsrMask, %object
  30              		.size	wdtIsrMask, 4
  31              	wdtIsrMask:
  32 0000 04040400 		.word	263172
  33              		.section	.rodata
  34              		.align	2
  35              		.type	counterIntMaskTbl, %object
  36              		.size	counterIntMaskTbl, 12
  37              	counterIntMaskTbl:
  38 0000 04000000 		.word	4
  39 0004 00040000 		.word	1024
  40 0008 00000400 		.word	262144
  41              		.bss
  42              		.align	2
  43              	cySysWdtCallback:
  44 000c 00000000 		.space	12
  44      00000000 
  44      00000000 
  45              		.section	.text.CySysClkIloStart,"ax",%progbits
  46              		.align	2
  47              		.global	CySysClkIloStart
  48              		.code	16
  49              		.thumb_func
  50              		.type	CySysClkIloStart, %function
  51              	CySysClkIloStart:
  52              	.LFB0:
  53              		.file 1 ".\\Generated_Source\\PSoC4\\CyLFClk.c"
   1:.\Generated_Source\PSoC4/CyLFClk.c **** /*******************************************************************************
   2:.\Generated_Source\PSoC4/CyLFClk.c **** * File Name: .c
ARM GAS  C:\Users\LUKASC~1\AppData\Local\Temp\ccSv4rUt.s 			page 2


   3:.\Generated_Source\PSoC4/CyLFClk.c **** * Version 1.0
   4:.\Generated_Source\PSoC4/CyLFClk.c **** *
   5:.\Generated_Source\PSoC4/CyLFClk.c **** * Description:
   6:.\Generated_Source\PSoC4/CyLFClk.c **** *  This file provides the source code to API for the cy_lfclk Component.
   7:.\Generated_Source\PSoC4/CyLFClk.c **** *
   8:.\Generated_Source\PSoC4/CyLFClk.c **** ********************************************************************************
   9:.\Generated_Source\PSoC4/CyLFClk.c **** * Copyright 2008-2015, Cypress Semiconductor Corporation.  All rights reserved.
  10:.\Generated_Source\PSoC4/CyLFClk.c **** * You may use this file only in accordance with the license, terms, conditions,
  11:.\Generated_Source\PSoC4/CyLFClk.c **** * disclaimers, and limitations in the end user license agreement accompanying
  12:.\Generated_Source\PSoC4/CyLFClk.c **** * the software package with which this file was provided.
  13:.\Generated_Source\PSoC4/CyLFClk.c **** *******************************************************************************/
  14:.\Generated_Source\PSoC4/CyLFClk.c **** 
  15:.\Generated_Source\PSoC4/CyLFClk.c **** 
  16:.\Generated_Source\PSoC4/CyLFClk.c **** #include "CyLFClk.h"
  17:.\Generated_Source\PSoC4/CyLFClk.c **** #include "CyLib.h"
  18:.\Generated_Source\PSoC4/CyLFClk.c **** 
  19:.\Generated_Source\PSoC4/CyLFClk.c **** 
  20:.\Generated_Source\PSoC4/CyLFClk.c **** #if (CY_IP_WCO)
  21:.\Generated_Source\PSoC4/CyLFClk.c ****     static uint32 CySysClkGetLfclkSource(void);
  22:.\Generated_Source\PSoC4/CyLFClk.c **** #endif /* (CY_IP_WCO) */
  23:.\Generated_Source\PSoC4/CyLFClk.c **** 
  24:.\Generated_Source\PSoC4/CyLFClk.c **** #if(CY_IP_SRSSV2)
  25:.\Generated_Source\PSoC4/CyLFClk.c ****     /* CySysClkLfclkPosedgeCatch() / CySysClkLfclkPosedgeRestore() */
  26:.\Generated_Source\PSoC4/CyLFClk.c ****     static uint32 lfclkPosedgeWdtCounter0Enabled = 0u;
  27:.\Generated_Source\PSoC4/CyLFClk.c ****     static uint32 lfclkPosedgeWdtCounter0Mode    = CY_SYS_WDT_MODE_NONE;
  28:.\Generated_Source\PSoC4/CyLFClk.c **** 
  29:.\Generated_Source\PSoC4/CyLFClk.c ****     static volatile uint32 disableServicedIsr = 0uL;
  30:.\Generated_Source\PSoC4/CyLFClk.c ****     static volatile uint32 wdtIsrMask = CY_SYS_WDT_COUNTER0_INT |\
  31:.\Generated_Source\PSoC4/CyLFClk.c ****                                         CY_SYS_WDT_COUNTER1_INT |\
  32:.\Generated_Source\PSoC4/CyLFClk.c ****                                         CY_SYS_WDT_COUNTER2_INT;
  33:.\Generated_Source\PSoC4/CyLFClk.c **** 
  34:.\Generated_Source\PSoC4/CyLFClk.c ****     static const uint32 counterIntMaskTbl[CY_WDT_NUM_OF_WDT] = {CY_SYS_WDT_COUNTER0_INT,
  35:.\Generated_Source\PSoC4/CyLFClk.c ****                                                                 CY_SYS_WDT_COUNTER1_INT,
  36:.\Generated_Source\PSoC4/CyLFClk.c ****                                                                 CY_SYS_WDT_COUNTER2_INT};
  37:.\Generated_Source\PSoC4/CyLFClk.c **** 
  38:.\Generated_Source\PSoC4/CyLFClk.c ****     static void CySysClkLfclkPosedgeCatch(void);
  39:.\Generated_Source\PSoC4/CyLFClk.c ****     static void CySysClkLfclkPosedgeRestore(void);
  40:.\Generated_Source\PSoC4/CyLFClk.c **** 
  41:.\Generated_Source\PSoC4/CyLFClk.c ****     static uint32 CySysWdtLocked(void);
  42:.\Generated_Source\PSoC4/CyLFClk.c ****     static uint32 CySysClkIloEnabled(void);
  43:.\Generated_Source\PSoC4/CyLFClk.c **** #endif /* (CY_IP_SRSSV2) */
  44:.\Generated_Source\PSoC4/CyLFClk.c **** 
  45:.\Generated_Source\PSoC4/CyLFClk.c **** #if(CY_IP_SRSSV2)
  46:.\Generated_Source\PSoC4/CyLFClk.c ****     static cyWdtCallback cySysWdtCallback[CY_WDT_NUM_OF_WDT] = {(void *)0, (void *)0, (void *)0};
  47:.\Generated_Source\PSoC4/CyLFClk.c **** #else
  48:.\Generated_Source\PSoC4/CyLFClk.c ****     static cyWdtCallback cySysWdtCallback = (void *)0;
  49:.\Generated_Source\PSoC4/CyLFClk.c **** #endif /* (CY_IP_SRSSV2) */
  50:.\Generated_Source\PSoC4/CyLFClk.c **** 
  51:.\Generated_Source\PSoC4/CyLFClk.c **** /*******************************************************************************
  52:.\Generated_Source\PSoC4/CyLFClk.c **** * Function Name: CySysClkIloStart
  53:.\Generated_Source\PSoC4/CyLFClk.c **** ********************************************************************************
  54:.\Generated_Source\PSoC4/CyLFClk.c **** *
  55:.\Generated_Source\PSoC4/CyLFClk.c **** * Summary:
  56:.\Generated_Source\PSoC4/CyLFClk.c **** *  Enables ILO. Refer to the device datasheet for the ILO startup time.
  57:.\Generated_Source\PSoC4/CyLFClk.c **** *
  58:.\Generated_Source\PSoC4/CyLFClk.c **** * Parameters:
  59:.\Generated_Source\PSoC4/CyLFClk.c **** *  None
ARM GAS  C:\Users\LUKASC~1\AppData\Local\Temp\ccSv4rUt.s 			page 3


  60:.\Generated_Source\PSoC4/CyLFClk.c **** *
  61:.\Generated_Source\PSoC4/CyLFClk.c **** * Return:
  62:.\Generated_Source\PSoC4/CyLFClk.c **** *  None
  63:.\Generated_Source\PSoC4/CyLFClk.c **** *
  64:.\Generated_Source\PSoC4/CyLFClk.c **** *******************************************************************************/
  65:.\Generated_Source\PSoC4/CyLFClk.c **** void CySysClkIloStart(void)
  66:.\Generated_Source\PSoC4/CyLFClk.c **** {
  54              		.loc 1 66 0
  55              		.cfi_startproc
  56 0000 80B5     		push	{r7, lr}
  57              		.cfi_def_cfa_offset 8
  58              		.cfi_offset 7, -8
  59              		.cfi_offset 14, -4
  60 0002 00AF     		add	r7, sp, #0
  61              		.cfi_def_cfa_register 7
  67:.\Generated_Source\PSoC4/CyLFClk.c ****     CY_SYS_CLK_ILO_CONFIG_REG |= CY_SYS_CLK_ILO_CONFIG_ENABLE;
  62              		.loc 1 67 0
  63 0004 044B     		ldr	r3, .L2
  64 0006 044A     		ldr	r2, .L2
  65 0008 1268     		ldr	r2, [r2]
  66 000a 8021     		mov	r1, #128
  67 000c 0906     		lsl	r1, r1, #24
  68 000e 0A43     		orr	r2, r1
  69 0010 1A60     		str	r2, [r3]
  68:.\Generated_Source\PSoC4/CyLFClk.c **** }
  70              		.loc 1 68 0
  71 0012 BD46     		mov	sp, r7
  72              		@ sp needed
  73 0014 80BD     		pop	{r7, pc}
  74              	.L3:
  75 0016 C046     		.align	2
  76              	.L2:
  77 0018 04010B40 		.word	1074462980
  78              		.cfi_endproc
  79              	.LFE0:
  80              		.size	CySysClkIloStart, .-CySysClkIloStart
  81              		.section	.text.CySysClkIloStop,"ax",%progbits
  82              		.align	2
  83              		.global	CySysClkIloStop
  84              		.code	16
  85              		.thumb_func
  86              		.type	CySysClkIloStop, %function
  87              	CySysClkIloStop:
  88              	.LFB1:
  69:.\Generated_Source\PSoC4/CyLFClk.c **** 
  70:.\Generated_Source\PSoC4/CyLFClk.c **** 
  71:.\Generated_Source\PSoC4/CyLFClk.c **** /*******************************************************************************
  72:.\Generated_Source\PSoC4/CyLFClk.c **** * Function Name: CySysClkIloStop
  73:.\Generated_Source\PSoC4/CyLFClk.c **** ********************************************************************************
  74:.\Generated_Source\PSoC4/CyLFClk.c **** *
  75:.\Generated_Source\PSoC4/CyLFClk.c **** * Summary:
  76:.\Generated_Source\PSoC4/CyLFClk.c **** *  Disables ILO.
  77:.\Generated_Source\PSoC4/CyLFClk.c **** *
  78:.\Generated_Source\PSoC4/CyLFClk.c **** * Parameters:
  79:.\Generated_Source\PSoC4/CyLFClk.c **** *  None.
  80:.\Generated_Source\PSoC4/CyLFClk.c **** *
  81:.\Generated_Source\PSoC4/CyLFClk.c **** * Return:
ARM GAS  C:\Users\LUKASC~1\AppData\Local\Temp\ccSv4rUt.s 			page 4


  82:.\Generated_Source\PSoC4/CyLFClk.c **** *  None.
  83:.\Generated_Source\PSoC4/CyLFClk.c **** *
  84:.\Generated_Source\PSoC4/CyLFClk.c **** * Side Effects:
  85:.\Generated_Source\PSoC4/CyLFClk.c **** *  This function has no effect if WDT is locked (CySysWdtLock() is
  86:.\Generated_Source\PSoC4/CyLFClk.c **** *  called). Call CySysWdtUnlock() to unlock WDT and stop ILO.
  87:.\Generated_Source\PSoC4/CyLFClk.c **** *
  88:.\Generated_Source\PSoC4/CyLFClk.c **** *  PSoC 4100 / PSoC 4200: Note that ILO is required for WDT's operation.
  89:.\Generated_Source\PSoC4/CyLFClk.c **** *  ILO is required for WDT operation.
  90:.\Generated_Source\PSoC4/CyLFClk.c **** *
  91:.\Generated_Source\PSoC4/CyLFClk.c **** *  PSoC 4100-BL / PSoC 4200-BL and PSoC 4100M / PSoC 4200M:
  92:.\Generated_Source\PSoC4/CyLFClk.c **** *  Stopping ILO affects the peripheral clocked by LFCLK, if
  93:.\Generated_Source\PSoC4/CyLFClk.c **** *  LFCLK is configured to be sourced by ILO.
  94:.\Generated_Source\PSoC4/CyLFClk.c **** *
  95:.\Generated_Source\PSoC4/CyLFClk.c **** *******************************************************************************/
  96:.\Generated_Source\PSoC4/CyLFClk.c **** void CySysClkIloStop(void)
  97:.\Generated_Source\PSoC4/CyLFClk.c **** {
  89              		.loc 1 97 0
  90              		.cfi_startproc
  91 0000 90B5     		push	{r4, r7, lr}
  92              		.cfi_def_cfa_offset 12
  93              		.cfi_offset 4, -12
  94              		.cfi_offset 7, -8
  95              		.cfi_offset 14, -4
  96 0002 83B0     		sub	sp, sp, #12
  97              		.cfi_def_cfa_offset 24
  98 0004 00AF     		add	r7, sp, #0
  99              		.cfi_def_cfa_register 7
  98:.\Generated_Source\PSoC4/CyLFClk.c ****     #if(CY_IP_SRSSV2)
  99:.\Generated_Source\PSoC4/CyLFClk.c ****         uint8  interruptState;
 100:.\Generated_Source\PSoC4/CyLFClk.c **** 
 101:.\Generated_Source\PSoC4/CyLFClk.c ****         /* Do nothing if WDT is locked or ILO is disabled */
 102:.\Generated_Source\PSoC4/CyLFClk.c ****         if (0u == CySysWdtLocked())
 100              		.loc 1 102 0
 101 0006 FFF7FEFF 		bl	CySysWdtLocked
 102 000a 031E     		sub	r3, r0, #0
 103 000c 17D1     		bne	.L4
 103:.\Generated_Source\PSoC4/CyLFClk.c ****         {
 104:.\Generated_Source\PSoC4/CyLFClk.c ****             if (0u != CySysClkIloEnabled())
 104              		.loc 1 104 0
 105 000e FFF7FEFF 		bl	CySysClkIloEnabled
 106 0012 031E     		sub	r3, r0, #0
 107 0014 13D0     		beq	.L4
 105:.\Generated_Source\PSoC4/CyLFClk.c ****             {
 106:.\Generated_Source\PSoC4/CyLFClk.c **** 
 107:.\Generated_Source\PSoC4/CyLFClk.c ****             #if (CY_IP_WCO)
 108:.\Generated_Source\PSoC4/CyLFClk.c ****                 if (CY_SYS_CLK_LFCLK_SRC_ILO == CySysClkGetLfclkSource())
 109:.\Generated_Source\PSoC4/CyLFClk.c ****                 {
 110:.\Generated_Source\PSoC4/CyLFClk.c ****             #endif /* (CY_IP_WCO) */
 111:.\Generated_Source\PSoC4/CyLFClk.c **** 
 112:.\Generated_Source\PSoC4/CyLFClk.c ****                 interruptState = CyEnterCriticalSection();
 108              		.loc 1 112 0
 109 0016 FC1D     		add	r4, r7, #7
 110 0018 FFF7FEFF 		bl	CyEnterCriticalSection
 111 001c 031C     		mov	r3, r0
 112 001e 2370     		strb	r3, [r4]
 113:.\Generated_Source\PSoC4/CyLFClk.c ****                 CySysClkLfclkPosedgeCatch();
 113              		.loc 1 113 0
ARM GAS  C:\Users\LUKASC~1\AppData\Local\Temp\ccSv4rUt.s 			page 5


 114 0020 FFF7FEFF 		bl	CySysClkLfclkPosedgeCatch
 114:.\Generated_Source\PSoC4/CyLFClk.c ****                 CY_SYS_CLK_ILO_CONFIG_REG &= ( uint32 ) ( ~( uint32 )CY_SYS_CLK_ILO_CONFIG_ENABLE);
 115              		.loc 1 114 0
 116 0024 074B     		ldr	r3, .L6
 117 0026 074A     		ldr	r2, .L6
 118 0028 1268     		ldr	r2, [r2]
 119 002a 5200     		lsl	r2, r2, #1
 120 002c 5208     		lsr	r2, r2, #1
 121 002e 1A60     		str	r2, [r3]
 115:.\Generated_Source\PSoC4/CyLFClk.c ****                 CySysClkLfclkPosedgeRestore();
 122              		.loc 1 115 0
 123 0030 FFF7FEFF 		bl	CySysClkLfclkPosedgeRestore
 116:.\Generated_Source\PSoC4/CyLFClk.c ****                 CyExitCriticalSection(interruptState);
 124              		.loc 1 116 0
 125 0034 FB1D     		add	r3, r7, #7
 126 0036 1B78     		ldrb	r3, [r3]
 127 0038 181C     		mov	r0, r3
 128 003a FFF7FEFF 		bl	CyExitCriticalSection
 129              	.L4:
 117:.\Generated_Source\PSoC4/CyLFClk.c **** 
 118:.\Generated_Source\PSoC4/CyLFClk.c ****             #if (CY_IP_WCO)
 119:.\Generated_Source\PSoC4/CyLFClk.c ****                 }
 120:.\Generated_Source\PSoC4/CyLFClk.c ****                 else /* Safe to disable - shortened pulse does not impact peripheral */
 121:.\Generated_Source\PSoC4/CyLFClk.c ****                 {
 122:.\Generated_Source\PSoC4/CyLFClk.c ****                     CY_SYS_CLK_ILO_CONFIG_REG &= ( uint32 ) ( ~( uint32 )CY_SYS_CLK_ILO_CONFIG_ENAB
 123:.\Generated_Source\PSoC4/CyLFClk.c ****                 }
 124:.\Generated_Source\PSoC4/CyLFClk.c ****             #endif /* (CY_IP_WCO) */
 125:.\Generated_Source\PSoC4/CyLFClk.c **** 
 126:.\Generated_Source\PSoC4/CyLFClk.c ****             }
 127:.\Generated_Source\PSoC4/CyLFClk.c ****         }
 128:.\Generated_Source\PSoC4/CyLFClk.c ****     #else
 129:.\Generated_Source\PSoC4/CyLFClk.c ****         CY_SYS_CLK_ILO_CONFIG_REG &= ( uint32 ) ( ~( uint32 )CY_SYS_CLK_ILO_CONFIG_ENABLE);
 130:.\Generated_Source\PSoC4/CyLFClk.c ****     #endif /* (CY_IP_SRSSV2) */
 131:.\Generated_Source\PSoC4/CyLFClk.c **** }
 130              		.loc 1 131 0
 131 003e BD46     		mov	sp, r7
 132 0040 03B0     		add	sp, sp, #12
 133              		@ sp needed
 134 0042 90BD     		pop	{r4, r7, pc}
 135              	.L7:
 136              		.align	2
 137              	.L6:
 138 0044 04010B40 		.word	1074462980
 139              		.cfi_endproc
 140              	.LFE1:
 141              		.size	CySysClkIloStop, .-CySysClkIloStop
 142              		.section	.text.CySysClkIloEnabled,"ax",%progbits
 143              		.align	2
 144              		.code	16
 145              		.thumb_func
 146              		.type	CySysClkIloEnabled, %function
 147              	CySysClkIloEnabled:
 148              	.LFB2:
 132:.\Generated_Source\PSoC4/CyLFClk.c **** 
 133:.\Generated_Source\PSoC4/CyLFClk.c **** #if(CY_IP_SRSSV2)
 134:.\Generated_Source\PSoC4/CyLFClk.c ****     /*******************************************************************************
 135:.\Generated_Source\PSoC4/CyLFClk.c ****     * Function Name: CySysClkIloEnabled
ARM GAS  C:\Users\LUKASC~1\AppData\Local\Temp\ccSv4rUt.s 			page 6


 136:.\Generated_Source\PSoC4/CyLFClk.c ****     ********************************************************************************
 137:.\Generated_Source\PSoC4/CyLFClk.c ****     *
 138:.\Generated_Source\PSoC4/CyLFClk.c ****     * Summary:
 139:.\Generated_Source\PSoC4/CyLFClk.c ****     *  Reports the ILO enable state.
 140:.\Generated_Source\PSoC4/CyLFClk.c ****     *
 141:.\Generated_Source\PSoC4/CyLFClk.c ****     * Parameters:
 142:.\Generated_Source\PSoC4/CyLFClk.c ****     *  None.
 143:.\Generated_Source\PSoC4/CyLFClk.c ****     *
 144:.\Generated_Source\PSoC4/CyLFClk.c ****     * Return:
 145:.\Generated_Source\PSoC4/CyLFClk.c ****     *  1 if ILO is enabled, and 0 if ILO is disabled.
 146:.\Generated_Source\PSoC4/CyLFClk.c ****     *
 147:.\Generated_Source\PSoC4/CyLFClk.c ****     *******************************************************************************/
 148:.\Generated_Source\PSoC4/CyLFClk.c ****     static uint32 CySysClkIloEnabled(void)
 149:.\Generated_Source\PSoC4/CyLFClk.c ****     {
 149              		.loc 1 149 0
 150              		.cfi_startproc
 151 0000 80B5     		push	{r7, lr}
 152              		.cfi_def_cfa_offset 8
 153              		.cfi_offset 7, -8
 154              		.cfi_offset 14, -4
 155 0002 00AF     		add	r7, sp, #0
 156              		.cfi_def_cfa_register 7
 150:.\Generated_Source\PSoC4/CyLFClk.c ****         /* Prohibits writing to WDT registers and ILO/WCO registers when not equal to 0 */
 151:.\Generated_Source\PSoC4/CyLFClk.c ****         return ((0u != (CY_SYS_CLK_ILO_CONFIG_REG & (uint32)(CY_SYS_CLK_ILO_CONFIG_ENABLE))) ?
 157              		.loc 1 151 0
 158 0004 044B     		ldr	r3, .L12
 159 0006 1B68     		ldr	r3, [r3]
 152:.\Generated_Source\PSoC4/CyLFClk.c ****             (uint32) 1u :
 160              		.loc 1 152 0
 161 0008 002B     		cmp	r3, #0
 162 000a 01DA     		bge	.L9
 163              		.loc 1 152 0 is_stmt 0 discriminator 1
 164 000c 0123     		mov	r3, #1
 165 000e 00E0     		b	.L10
 166              	.L9:
 167              		.loc 1 152 0 discriminator 2
 168 0010 0023     		mov	r3, #0
 169              	.L10:
 153:.\Generated_Source\PSoC4/CyLFClk.c ****             (uint32) 0u);
 154:.\Generated_Source\PSoC4/CyLFClk.c ****     }
 170              		.loc 1 154 0 is_stmt 1
 171 0012 181C     		mov	r0, r3
 172 0014 BD46     		mov	sp, r7
 173              		@ sp needed
 174 0016 80BD     		pop	{r7, pc}
 175              	.L13:
 176              		.align	2
 177              	.L12:
 178 0018 04010B40 		.word	1074462980
 179              		.cfi_endproc
 180              	.LFE2:
 181              		.size	CySysClkIloEnabled, .-CySysClkIloEnabled
 182              		.section	.text.CySysWdtLock,"ax",%progbits
 183              		.align	2
 184              		.global	CySysWdtLock
 185              		.code	16
 186              		.thumb_func
ARM GAS  C:\Users\LUKASC~1\AppData\Local\Temp\ccSv4rUt.s 			page 7


 187              		.type	CySysWdtLock, %function
 188              	CySysWdtLock:
 189              	.LFB3:
 155:.\Generated_Source\PSoC4/CyLFClk.c **** #endif /* (CY_IP_SRSSV2) */
 156:.\Generated_Source\PSoC4/CyLFClk.c **** 
 157:.\Generated_Source\PSoC4/CyLFClk.c **** 
 158:.\Generated_Source\PSoC4/CyLFClk.c **** /*******************************************************************************
 159:.\Generated_Source\PSoC4/CyLFClk.c **** * Function Name: CySysClkGetLfclkSource
 160:.\Generated_Source\PSoC4/CyLFClk.c **** ********************************************************************************
 161:.\Generated_Source\PSoC4/CyLFClk.c **** *
 162:.\Generated_Source\PSoC4/CyLFClk.c **** * Summary:
 163:.\Generated_Source\PSoC4/CyLFClk.c **** *  Gets the clock source for the LFCLK clock.
 164:.\Generated_Source\PSoC4/CyLFClk.c **** *  The function is applicable only for PSoC 4100-BL and PSoC 4200-BL.
 165:.\Generated_Source\PSoC4/CyLFClk.c **** *
 166:.\Generated_Source\PSoC4/CyLFClk.c **** * Parameters:
 167:.\Generated_Source\PSoC4/CyLFClk.c **** *  None.
 168:.\Generated_Source\PSoC4/CyLFClk.c **** *
 169:.\Generated_Source\PSoC4/CyLFClk.c **** * Return:
 170:.\Generated_Source\PSoC4/CyLFClk.c **** *  The LFCLK source:
 171:.\Generated_Source\PSoC4/CyLFClk.c **** *   CY_SYS_CLK_LFCLK_SRC_ILO    Internal Low Frequency (32 kHz) Oscillator (ILO)
 172:.\Generated_Source\PSoC4/CyLFClk.c **** *   CY_SYS_CLK_LFCLK_SRC_WCO    Low Frequency Watch Crystal Oscillator (WCO)
 173:.\Generated_Source\PSoC4/CyLFClk.c **** *
 174:.\Generated_Source\PSoC4/CyLFClk.c **** *******************************************************************************/
 175:.\Generated_Source\PSoC4/CyLFClk.c **** #if (CY_IP_WCO)
 176:.\Generated_Source\PSoC4/CyLFClk.c ****     static uint32 CySysClkGetLfclkSource(void)
 177:.\Generated_Source\PSoC4/CyLFClk.c ****     {
 178:.\Generated_Source\PSoC4/CyLFClk.c ****         uint32 lfclkSource;
 179:.\Generated_Source\PSoC4/CyLFClk.c ****         lfclkSource = CY_SYS_WDT_CONFIG_REG & CY_SYS_CLK_LFCLK_SEL_MASK;
 180:.\Generated_Source\PSoC4/CyLFClk.c ****         return (lfclkSource);
 181:.\Generated_Source\PSoC4/CyLFClk.c ****     }
 182:.\Generated_Source\PSoC4/CyLFClk.c **** #endif /* (CY_IP_WCO) */
 183:.\Generated_Source\PSoC4/CyLFClk.c **** 
 184:.\Generated_Source\PSoC4/CyLFClk.c **** 
 185:.\Generated_Source\PSoC4/CyLFClk.c **** /*******************************************************************************
 186:.\Generated_Source\PSoC4/CyLFClk.c **** * Function Name: CySysClkSetLfclkSource
 187:.\Generated_Source\PSoC4/CyLFClk.c **** ********************************************************************************
 188:.\Generated_Source\PSoC4/CyLFClk.c **** *
 189:.\Generated_Source\PSoC4/CyLFClk.c **** * Summary:
 190:.\Generated_Source\PSoC4/CyLFClk.c **** *  Sets the clock source for the LFCLK clock.
 191:.\Generated_Source\PSoC4/CyLFClk.c **** *
 192:.\Generated_Source\PSoC4/CyLFClk.c **** *  The switch between LFCLK sources must be done between the positive edges of
 193:.\Generated_Source\PSoC4/CyLFClk.c **** *  LFCLK, because the glitch risk is around the LFCLK positive edge. To ensure
 194:.\Generated_Source\PSoC4/CyLFClk.c **** *  that the switch can be done safely, the WDT counter value is read until it
 195:.\Generated_Source\PSoC4/CyLFClk.c **** *  changes.
 196:.\Generated_Source\PSoC4/CyLFClk.c **** *
 197:.\Generated_Source\PSoC4/CyLFClk.c **** *  That means that the positive edge just finished and the switch is performed.
 198:.\Generated_Source\PSoC4/CyLFClk.c **** *  The enabled WDT counter is used for that purpose. If no counters are enabled,
 199:.\Generated_Source\PSoC4/CyLFClk.c **** *  counter 0 is enabled. And after the LFCLK source is switched, counter 0
 200:.\Generated_Source\PSoC4/CyLFClk.c **** *  configuration is restored.
 201:.\Generated_Source\PSoC4/CyLFClk.c **** *
 202:.\Generated_Source\PSoC4/CyLFClk.c **** *  The function is applicable only for PSoC 4100-BL and PSoC 4200-BL.
 203:.\Generated_Source\PSoC4/CyLFClk.c **** *
 204:.\Generated_Source\PSoC4/CyLFClk.c **** * Parameters:
 205:.\Generated_Source\PSoC4/CyLFClk.c **** *  source: One of the available LFCLK sources.
 206:.\Generated_Source\PSoC4/CyLFClk.c **** *   CY_SYS_CLK_LFCLK_SRC_ILO    Internal Low Frequency (32 kHz) Oscillator (ILO)
 207:.\Generated_Source\PSoC4/CyLFClk.c **** *   CY_SYS_CLK_LFCLK_SRC_WCO    Low Frequency Watch Crystal Oscillator (WCO)
 208:.\Generated_Source\PSoC4/CyLFClk.c **** *
ARM GAS  C:\Users\LUKASC~1\AppData\Local\Temp\ccSv4rUt.s 			page 8


 209:.\Generated_Source\PSoC4/CyLFClk.c **** * Return:
 210:.\Generated_Source\PSoC4/CyLFClk.c **** *  None
 211:.\Generated_Source\PSoC4/CyLFClk.c **** *
 212:.\Generated_Source\PSoC4/CyLFClk.c **** * Side Effects:
 213:.\Generated_Source\PSoC4/CyLFClk.c **** *  This function has no effect if WDT is locked (CySysWdtLock() is
 214:.\Generated_Source\PSoC4/CyLFClk.c **** *  called). Call CySysWdtUnlock() to unlock WDT.
 215:.\Generated_Source\PSoC4/CyLFClk.c **** *
 216:.\Generated_Source\PSoC4/CyLFClk.c **** *  Both the current source and the new source must be running and stable before
 217:.\Generated_Source\PSoC4/CyLFClk.c **** *  calling this function.
 218:.\Generated_Source\PSoC4/CyLFClk.c **** *
 219:.\Generated_Source\PSoC4/CyLFClk.c **** *  Changing the LFCLK clock source may change the LFCLK clock frequency and
 220:.\Generated_Source\PSoC4/CyLFClk.c **** *  affect the functionality that uses this clock. For example, watchdog timer
 221:.\Generated_Source\PSoC4/CyLFClk.c **** *  "uses this clock" or "this clock uses" (WDT) is clocked by LFCLK.
 222:.\Generated_Source\PSoC4/CyLFClk.c **** *
 223:.\Generated_Source\PSoC4/CyLFClk.c **** *******************************************************************************/
 224:.\Generated_Source\PSoC4/CyLFClk.c **** #if (CY_IP_WCO)
 225:.\Generated_Source\PSoC4/CyLFClk.c ****     void CySysClkSetLfclkSource(uint32 source)
 226:.\Generated_Source\PSoC4/CyLFClk.c ****     {
 227:.\Generated_Source\PSoC4/CyLFClk.c ****         uint8  interruptState;
 228:.\Generated_Source\PSoC4/CyLFClk.c **** 
 229:.\Generated_Source\PSoC4/CyLFClk.c ****         if (CySysClkGetLfclkSource() != source)
 230:.\Generated_Source\PSoC4/CyLFClk.c ****         {
 231:.\Generated_Source\PSoC4/CyLFClk.c ****             interruptState = CyEnterCriticalSection();
 232:.\Generated_Source\PSoC4/CyLFClk.c **** 
 233:.\Generated_Source\PSoC4/CyLFClk.c ****             CySysClkLfclkPosedgeCatch();
 234:.\Generated_Source\PSoC4/CyLFClk.c **** 
 235:.\Generated_Source\PSoC4/CyLFClk.c ****             CY_SYS_WDT_CONFIG_REG = (CY_SYS_WDT_CONFIG_REG & (uint32)(~CY_SYS_CLK_LFCLK_SEL_MASK)) 
 236:.\Generated_Source\PSoC4/CyLFClk.c ****                                     (source & CY_SYS_CLK_LFCLK_SEL_MASK);
 237:.\Generated_Source\PSoC4/CyLFClk.c **** 
 238:.\Generated_Source\PSoC4/CyLFClk.c ****             CySysClkLfclkPosedgeRestore();
 239:.\Generated_Source\PSoC4/CyLFClk.c **** 
 240:.\Generated_Source\PSoC4/CyLFClk.c ****             CyExitCriticalSection(interruptState);
 241:.\Generated_Source\PSoC4/CyLFClk.c ****         }
 242:.\Generated_Source\PSoC4/CyLFClk.c ****     }
 243:.\Generated_Source\PSoC4/CyLFClk.c **** #endif /* (CY_IP_WCO) */
 244:.\Generated_Source\PSoC4/CyLFClk.c **** 
 245:.\Generated_Source\PSoC4/CyLFClk.c **** 
 246:.\Generated_Source\PSoC4/CyLFClk.c **** #if (CY_IP_WCO)
 247:.\Generated_Source\PSoC4/CyLFClk.c ****     /*******************************************************************************
 248:.\Generated_Source\PSoC4/CyLFClk.c ****     * Function Name: CySysClkWcoStart
 249:.\Generated_Source\PSoC4/CyLFClk.c ****     ********************************************************************************
 250:.\Generated_Source\PSoC4/CyLFClk.c ****     *
 251:.\Generated_Source\PSoC4/CyLFClk.c ****     * Summary:
 252:.\Generated_Source\PSoC4/CyLFClk.c ****     *  Enables Watch Crystal Oscillator (WCO). WCO is used as a source for
 253:.\Generated_Source\PSoC4/CyLFClk.c ****     *  LFCLK.  Similar to ILO, WCO is also available in all modes except Hibernate
 254:.\Generated_Source\PSoC4/CyLFClk.c ****     *  and Stop modes.
 255:.\Generated_Source\PSoC4/CyLFClk.c ****     *
 256:.\Generated_Source\PSoC4/CyLFClk.c ****     *  WCO is always enabled in High Power Mode (HPM). Refer to the device
 257:.\Generated_Source\PSoC4/CyLFClk.c ****     *  datasheet for the  WCO startup time. Once WCO becomes stable it can be
 258:.\Generated_Source\PSoC4/CyLFClk.c ****     *  switched to Low Power Mode (LPM). Note that oscillator can be unstable
 259:.\Generated_Source\PSoC4/CyLFClk.c ****     *  during a switch and hence its output should not be used at that moment.
 260:.\Generated_Source\PSoC4/CyLFClk.c ****     *
 261:.\Generated_Source\PSoC4/CyLFClk.c ****     *  The CySysClkWcoSetPowerMode() function configures the WCO power mode.
 262:.\Generated_Source\PSoC4/CyLFClk.c ****     *
 263:.\Generated_Source\PSoC4/CyLFClk.c ****     * Parameters:
 264:.\Generated_Source\PSoC4/CyLFClk.c ****     *  None.
 265:.\Generated_Source\PSoC4/CyLFClk.c ****     *
ARM GAS  C:\Users\LUKASC~1\AppData\Local\Temp\ccSv4rUt.s 			page 9


 266:.\Generated_Source\PSoC4/CyLFClk.c ****     * Return:
 267:.\Generated_Source\PSoC4/CyLFClk.c ****     *  None.
 268:.\Generated_Source\PSoC4/CyLFClk.c ****     *
 269:.\Generated_Source\PSoC4/CyLFClk.c ****     *******************************************************************************/
 270:.\Generated_Source\PSoC4/CyLFClk.c ****     void CySysClkWcoStart(void)
 271:.\Generated_Source\PSoC4/CyLFClk.c ****     {
 272:.\Generated_Source\PSoC4/CyLFClk.c ****         CySysClkWcoSetHighPowerMode();
 273:.\Generated_Source\PSoC4/CyLFClk.c ****         CY_SYS_CLK_WCO_CONFIG_REG |= CY_SYS_CLK_WCO_CONFIG_LPM_ENABLE;
 274:.\Generated_Source\PSoC4/CyLFClk.c ****     }
 275:.\Generated_Source\PSoC4/CyLFClk.c **** 
 276:.\Generated_Source\PSoC4/CyLFClk.c **** 
 277:.\Generated_Source\PSoC4/CyLFClk.c ****     /*******************************************************************************
 278:.\Generated_Source\PSoC4/CyLFClk.c ****     * Function Name: CySysClkWcoStop
 279:.\Generated_Source\PSoC4/CyLFClk.c ****     ********************************************************************************
 280:.\Generated_Source\PSoC4/CyLFClk.c ****     *
 281:.\Generated_Source\PSoC4/CyLFClk.c ****     * Summary:
 282:.\Generated_Source\PSoC4/CyLFClk.c ****     *  Disables the 32KHz Crystal Oscillator.
 283:.\Generated_Source\PSoC4/CyLFClk.c ****     *
 284:.\Generated_Source\PSoC4/CyLFClk.c ****     * Parameters:
 285:.\Generated_Source\PSoC4/CyLFClk.c ****     *  None.
 286:.\Generated_Source\PSoC4/CyLFClk.c ****     *
 287:.\Generated_Source\PSoC4/CyLFClk.c ****     * Return:
 288:.\Generated_Source\PSoC4/CyLFClk.c ****     *  None.
 289:.\Generated_Source\PSoC4/CyLFClk.c ****     *
 290:.\Generated_Source\PSoC4/CyLFClk.c ****     *******************************************************************************/
 291:.\Generated_Source\PSoC4/CyLFClk.c ****     void  CySysClkWcoStop(void)
 292:.\Generated_Source\PSoC4/CyLFClk.c ****     {
 293:.\Generated_Source\PSoC4/CyLFClk.c ****         uint8  interruptState;
 294:.\Generated_Source\PSoC4/CyLFClk.c **** 
 295:.\Generated_Source\PSoC4/CyLFClk.c ****         if (0u != CySysClkWcoEnabled())
 296:.\Generated_Source\PSoC4/CyLFClk.c ****         {
 297:.\Generated_Source\PSoC4/CyLFClk.c **** 
 298:.\Generated_Source\PSoC4/CyLFClk.c ****             if (CY_SYS_CLK_LFCLK_SRC_WCO == CySysClkGetLfclkSource())
 299:.\Generated_Source\PSoC4/CyLFClk.c ****             {
 300:.\Generated_Source\PSoC4/CyLFClk.c ****                 interruptState = CyEnterCriticalSection();
 301:.\Generated_Source\PSoC4/CyLFClk.c ****                 CySysClkLfclkPosedgeCatch();
 302:.\Generated_Source\PSoC4/CyLFClk.c ****                 CY_SYS_CLK_WCO_CONFIG_REG &= (uint32) ~CY_SYS_CLK_WCO_CONFIG_LPM_ENABLE;
 303:.\Generated_Source\PSoC4/CyLFClk.c ****                 CySysClkLfclkPosedgeRestore();
 304:.\Generated_Source\PSoC4/CyLFClk.c ****                 CyExitCriticalSection(interruptState);
 305:.\Generated_Source\PSoC4/CyLFClk.c ****             }
 306:.\Generated_Source\PSoC4/CyLFClk.c ****             else /* Safe to disable - shortened pulse does not impact peripheral */
 307:.\Generated_Source\PSoC4/CyLFClk.c ****             {
 308:.\Generated_Source\PSoC4/CyLFClk.c ****                 CY_SYS_CLK_WCO_CONFIG_REG &= (uint32) ~CY_SYS_CLK_WCO_CONFIG_LPM_ENABLE;
 309:.\Generated_Source\PSoC4/CyLFClk.c ****             }
 310:.\Generated_Source\PSoC4/CyLFClk.c ****         } /* Otherwise do nothing. WCO configuration cannot be changed. */
 311:.\Generated_Source\PSoC4/CyLFClk.c ****     }
 312:.\Generated_Source\PSoC4/CyLFClk.c **** 
 313:.\Generated_Source\PSoC4/CyLFClk.c **** 
 314:.\Generated_Source\PSoC4/CyLFClk.c ****     /*******************************************************************************
 315:.\Generated_Source\PSoC4/CyLFClk.c ****     * Function Name: CySysClkWcoEnabled
 316:.\Generated_Source\PSoC4/CyLFClk.c ****     ********************************************************************************
 317:.\Generated_Source\PSoC4/CyLFClk.c ****     *
 318:.\Generated_Source\PSoC4/CyLFClk.c ****     * Summary:
 319:.\Generated_Source\PSoC4/CyLFClk.c ****     *  Reports the WCO enable state.
 320:.\Generated_Source\PSoC4/CyLFClk.c ****     *
 321:.\Generated_Source\PSoC4/CyLFClk.c ****     * Parameters:
 322:.\Generated_Source\PSoC4/CyLFClk.c ****     *  None.
ARM GAS  C:\Users\LUKASC~1\AppData\Local\Temp\ccSv4rUt.s 			page 10


 323:.\Generated_Source\PSoC4/CyLFClk.c ****     *
 324:.\Generated_Source\PSoC4/CyLFClk.c ****     * Return:
 325:.\Generated_Source\PSoC4/CyLFClk.c ****     *  1 if WCO is enabled, and 0 if WCO is disabled.
 326:.\Generated_Source\PSoC4/CyLFClk.c ****     *
 327:.\Generated_Source\PSoC4/CyLFClk.c ****     *******************************************************************************/
 328:.\Generated_Source\PSoC4/CyLFClk.c ****     uint32 CySysClkWcoEnabled(void)
 329:.\Generated_Source\PSoC4/CyLFClk.c ****     {
 330:.\Generated_Source\PSoC4/CyLFClk.c ****         return ((0u != (CY_SYS_CLK_WCO_CONFIG_REG & (uint32)(CY_SYS_CLK_WCO_CONFIG_LPM_ENABLE))) ?
 331:.\Generated_Source\PSoC4/CyLFClk.c ****                 (uint32) 1u :
 332:.\Generated_Source\PSoC4/CyLFClk.c ****                 (uint32) 0u);
 333:.\Generated_Source\PSoC4/CyLFClk.c ****     }
 334:.\Generated_Source\PSoC4/CyLFClk.c **** 
 335:.\Generated_Source\PSoC4/CyLFClk.c **** 
 336:.\Generated_Source\PSoC4/CyLFClk.c ****     /*******************************************************************************
 337:.\Generated_Source\PSoC4/CyLFClk.c ****     * Function Name: CySysClkWcoSetPowerMode
 338:.\Generated_Source\PSoC4/CyLFClk.c ****     ********************************************************************************
 339:.\Generated_Source\PSoC4/CyLFClk.c ****     *
 340:.\Generated_Source\PSoC4/CyLFClk.c ****     * Summary:
 341:.\Generated_Source\PSoC4/CyLFClk.c ****     *  Sets the power mode for the 32 KHz WCO.
 342:.\Generated_Source\PSoC4/CyLFClk.c ****     *
 343:.\Generated_Source\PSoC4/CyLFClk.c ****     * Parameters:
 344:.\Generated_Source\PSoC4/CyLFClk.c ****     *  uint32 mode:
 345:.\Generated_Source\PSoC4/CyLFClk.c ****     *   CY_SYS_CLK_WCO_HPM  - The High Power mode
 346:.\Generated_Source\PSoC4/CyLFClk.c ****     *   CY_SYS_CLK_WCO_LPM  - The Low Power mode(not applicable for
 347:.\Generated_Source\PSoC4/CyLFClk.c ****     *                         PSoC 4100M / PSoC 4200M devices)
 348:.\Generated_Source\PSoC4/CyLFClk.c ****     *
 349:.\Generated_Source\PSoC4/CyLFClk.c ****     * Return:
 350:.\Generated_Source\PSoC4/CyLFClk.c ****     *  A previous power mode. The same as the parameters.
 351:.\Generated_Source\PSoC4/CyLFClk.c ****     *
 352:.\Generated_Source\PSoC4/CyLFClk.c ****     * Note:
 353:.\Generated_Source\PSoC4/CyLFClk.c ****     *  The WCO Low power mode is not applicable for the PSoC 4100M/PSoC 4200M
 354:.\Generated_Source\PSoC4/CyLFClk.c ****     *  devices.
 355:.\Generated_Source\PSoC4/CyLFClk.c ****     *
 356:.\Generated_Source\PSoC4/CyLFClk.c ****     *******************************************************************************/
 357:.\Generated_Source\PSoC4/CyLFClk.c ****     uint32 CySysClkWcoSetPowerMode(uint32 mode)
 358:.\Generated_Source\PSoC4/CyLFClk.c ****     {
 359:.\Generated_Source\PSoC4/CyLFClk.c ****         uint32 status;
 360:.\Generated_Source\PSoC4/CyLFClk.c **** 
 361:.\Generated_Source\PSoC4/CyLFClk.c ****         status = CY_SYS_CLK_WCO_CONFIG_REG & CY_SYS_CLK_WCO_CONFIG_LPM_EN;
 362:.\Generated_Source\PSoC4/CyLFClk.c **** 
 363:.\Generated_Source\PSoC4/CyLFClk.c ****         switch(mode)
 364:.\Generated_Source\PSoC4/CyLFClk.c ****         {
 365:.\Generated_Source\PSoC4/CyLFClk.c ****         case CY_SYS_CLK_WCO_HPM:
 366:.\Generated_Source\PSoC4/CyLFClk.c ****                 CySysClkWcoSetHighPowerMode();
 367:.\Generated_Source\PSoC4/CyLFClk.c ****             break;
 368:.\Generated_Source\PSoC4/CyLFClk.c **** 
 369:.\Generated_Source\PSoC4/CyLFClk.c ****         #if(!CY_PSOC4_4100M && !CY_PSOC4_4200M)
 370:.\Generated_Source\PSoC4/CyLFClk.c ****             case CY_SYS_CLK_WCO_LPM:
 371:.\Generated_Source\PSoC4/CyLFClk.c ****                     CySysClkWcoSetLowPowerMode();
 372:.\Generated_Source\PSoC4/CyLFClk.c ****                 break;
 373:.\Generated_Source\PSoC4/CyLFClk.c ****         #endif /* (!CY_PSOC4_4100M && !CY_PSOC4_4200M) */
 374:.\Generated_Source\PSoC4/CyLFClk.c **** 
 375:.\Generated_Source\PSoC4/CyLFClk.c ****         default:
 376:.\Generated_Source\PSoC4/CyLFClk.c ****             CYASSERT(0u != 0u);
 377:.\Generated_Source\PSoC4/CyLFClk.c ****             break;
 378:.\Generated_Source\PSoC4/CyLFClk.c ****         }
 379:.\Generated_Source\PSoC4/CyLFClk.c **** 
ARM GAS  C:\Users\LUKASC~1\AppData\Local\Temp\ccSv4rUt.s 			page 11


 380:.\Generated_Source\PSoC4/CyLFClk.c ****         return (status);
 381:.\Generated_Source\PSoC4/CyLFClk.c ****     }
 382:.\Generated_Source\PSoC4/CyLFClk.c **** 
 383:.\Generated_Source\PSoC4/CyLFClk.c **** #endif  /* (CY_IP_WCO) */
 384:.\Generated_Source\PSoC4/CyLFClk.c **** 
 385:.\Generated_Source\PSoC4/CyLFClk.c **** 
 386:.\Generated_Source\PSoC4/CyLFClk.c **** #if(CY_IP_SRSSV2)
 387:.\Generated_Source\PSoC4/CyLFClk.c **** 
 388:.\Generated_Source\PSoC4/CyLFClk.c **** 
 389:.\Generated_Source\PSoC4/CyLFClk.c ****     /*******************************************************************************
 390:.\Generated_Source\PSoC4/CyLFClk.c ****     * Function Name: CySysWdtLock
 391:.\Generated_Source\PSoC4/CyLFClk.c ****     ********************************************************************************
 392:.\Generated_Source\PSoC4/CyLFClk.c ****     *
 393:.\Generated_Source\PSoC4/CyLFClk.c ****     * Summary:
 394:.\Generated_Source\PSoC4/CyLFClk.c ****     *  Locks out configuration changes to the Watchdog timer registers and ILO
 395:.\Generated_Source\PSoC4/CyLFClk.c ****     *  configuration register.
 396:.\Generated_Source\PSoC4/CyLFClk.c ****     *
 397:.\Generated_Source\PSoC4/CyLFClk.c ****     * Parameters:
 398:.\Generated_Source\PSoC4/CyLFClk.c ****     *  None.
 399:.\Generated_Source\PSoC4/CyLFClk.c ****     *
 400:.\Generated_Source\PSoC4/CyLFClk.c ****     * Return:
 401:.\Generated_Source\PSoC4/CyLFClk.c ****     *  None.
 402:.\Generated_Source\PSoC4/CyLFClk.c ****     *
 403:.\Generated_Source\PSoC4/CyLFClk.c ****     * Side effects:
 404:.\Generated_Source\PSoC4/CyLFClk.c ****     *  After this function is called, ILO clock can't be disabled until
 405:.\Generated_Source\PSoC4/CyLFClk.c ****     *  CySysWdtUnlock() is called.
 406:.\Generated_Source\PSoC4/CyLFClk.c ****     *
 407:.\Generated_Source\PSoC4/CyLFClk.c ****     *******************************************************************************/
 408:.\Generated_Source\PSoC4/CyLFClk.c ****     void CySysWdtLock(void)
 409:.\Generated_Source\PSoC4/CyLFClk.c ****     {
 190              		.loc 1 409 0
 191              		.cfi_startproc
 192 0000 90B5     		push	{r4, r7, lr}
 193              		.cfi_def_cfa_offset 12
 194              		.cfi_offset 4, -12
 195              		.cfi_offset 7, -8
 196              		.cfi_offset 14, -4
 197 0002 83B0     		sub	sp, sp, #12
 198              		.cfi_def_cfa_offset 24
 199 0004 00AF     		add	r7, sp, #0
 200              		.cfi_def_cfa_register 7
 410:.\Generated_Source\PSoC4/CyLFClk.c ****         uint8 interruptState;
 411:.\Generated_Source\PSoC4/CyLFClk.c ****         interruptState = CyEnterCriticalSection();
 201              		.loc 1 411 0
 202 0006 FC1D     		add	r4, r7, #7
 203 0008 FFF7FEFF 		bl	CyEnterCriticalSection
 204 000c 031C     		mov	r3, r0
 205 000e 2370     		strb	r3, [r4]
 412:.\Generated_Source\PSoC4/CyLFClk.c **** 
 413:.\Generated_Source\PSoC4/CyLFClk.c ****         CY_SYS_CLK_SELECT_REG = (CY_SYS_CLK_SELECT_REG & (uint32)(~CY_SYS_WDT_CLK_LOCK_BITS_MASK)) 
 206              		.loc 1 413 0
 207 0010 074B     		ldr	r3, .L15
 208 0012 074A     		ldr	r2, .L15
 209 0014 1268     		ldr	r2, [r2]
 210 0016 C021     		mov	r1, #192
 211 0018 0902     		lsl	r1, r1, #8
 212 001a 0A43     		orr	r2, r1
ARM GAS  C:\Users\LUKASC~1\AppData\Local\Temp\ccSv4rUt.s 			page 12


 213 001c 1A60     		str	r2, [r3]
 414:.\Generated_Source\PSoC4/CyLFClk.c ****                  CY_SYS_WDT_CLK_LOCK_BITS_MASK;
 415:.\Generated_Source\PSoC4/CyLFClk.c **** 
 416:.\Generated_Source\PSoC4/CyLFClk.c ****         CyExitCriticalSection(interruptState);
 214              		.loc 1 416 0
 215 001e FB1D     		add	r3, r7, #7
 216 0020 1B78     		ldrb	r3, [r3]
 217 0022 181C     		mov	r0, r3
 218 0024 FFF7FEFF 		bl	CyExitCriticalSection
 417:.\Generated_Source\PSoC4/CyLFClk.c ****     }
 219              		.loc 1 417 0
 220 0028 BD46     		mov	sp, r7
 221 002a 03B0     		add	sp, sp, #12
 222              		@ sp needed
 223 002c 90BD     		pop	{r4, r7, pc}
 224              	.L16:
 225 002e C046     		.align	2
 226              	.L15:
 227 0030 00010B40 		.word	1074462976
 228              		.cfi_endproc
 229              	.LFE3:
 230              		.size	CySysWdtLock, .-CySysWdtLock
 231              		.section	.text.CySysWdtLocked,"ax",%progbits
 232              		.align	2
 233              		.code	16
 234              		.thumb_func
 235              		.type	CySysWdtLocked, %function
 236              	CySysWdtLocked:
 237              	.LFB4:
 418:.\Generated_Source\PSoC4/CyLFClk.c **** 
 419:.\Generated_Source\PSoC4/CyLFClk.c **** 
 420:.\Generated_Source\PSoC4/CyLFClk.c ****     /*******************************************************************************
 421:.\Generated_Source\PSoC4/CyLFClk.c ****     * Function Name: CySysWdtLocked
 422:.\Generated_Source\PSoC4/CyLFClk.c ****     ********************************************************************************
 423:.\Generated_Source\PSoC4/CyLFClk.c ****     *
 424:.\Generated_Source\PSoC4/CyLFClk.c ****     * Summary:
 425:.\Generated_Source\PSoC4/CyLFClk.c ****     *  Reports the WDT lock state.
 426:.\Generated_Source\PSoC4/CyLFClk.c ****     *
 427:.\Generated_Source\PSoC4/CyLFClk.c ****     * Parameters:
 428:.\Generated_Source\PSoC4/CyLFClk.c ****     *  None
 429:.\Generated_Source\PSoC4/CyLFClk.c ****     *
 430:.\Generated_Source\PSoC4/CyLFClk.c ****     * Return:
 431:.\Generated_Source\PSoC4/CyLFClk.c ****     *  1 - WDT is locked, and 0 - WDT is unlocked.
 432:.\Generated_Source\PSoC4/CyLFClk.c ****     *
 433:.\Generated_Source\PSoC4/CyLFClk.c ****     *******************************************************************************/
 434:.\Generated_Source\PSoC4/CyLFClk.c ****     static uint32 CySysWdtLocked(void)
 435:.\Generated_Source\PSoC4/CyLFClk.c ****     {
 238              		.loc 1 435 0
 239              		.cfi_startproc
 240 0000 80B5     		push	{r7, lr}
 241              		.cfi_def_cfa_offset 8
 242              		.cfi_offset 7, -8
 243              		.cfi_offset 14, -4
 244 0002 00AF     		add	r7, sp, #0
 245              		.cfi_def_cfa_register 7
 436:.\Generated_Source\PSoC4/CyLFClk.c ****         /* Prohibits writing to WDT registers and ILO/WCO registers when not equal 0 */
 437:.\Generated_Source\PSoC4/CyLFClk.c ****         return ((0u != (CY_SYS_CLK_SELECT_REG & (uint32)(CY_SYS_WDT_CLK_LOCK_BITS_MASK))) ? (uint32
ARM GAS  C:\Users\LUKASC~1\AppData\Local\Temp\ccSv4rUt.s 			page 13


 246              		.loc 1 437 0
 247 0004 054B     		ldr	r3, .L21
 248 0006 1A68     		ldr	r2, [r3]
 249 0008 C023     		mov	r3, #192
 250 000a 1B02     		lsl	r3, r3, #8
 251 000c 1340     		and	r3, r2
 252 000e 01D0     		beq	.L18
 253              		.loc 1 437 0 is_stmt 0 discriminator 1
 254 0010 0123     		mov	r3, #1
 255 0012 00E0     		b	.L19
 256              	.L18:
 257              		.loc 1 437 0 discriminator 2
 258 0014 0023     		mov	r3, #0
 259              	.L19:
 438:.\Generated_Source\PSoC4/CyLFClk.c ****     }
 260              		.loc 1 438 0 is_stmt 1 discriminator 4
 261 0016 181C     		mov	r0, r3
 262 0018 BD46     		mov	sp, r7
 263              		@ sp needed
 264 001a 80BD     		pop	{r7, pc}
 265              	.L22:
 266              		.align	2
 267              	.L21:
 268 001c 00010B40 		.word	1074462976
 269              		.cfi_endproc
 270              	.LFE4:
 271              		.size	CySysWdtLocked, .-CySysWdtLocked
 272              		.section	.text.CySysWdtUnlock,"ax",%progbits
 273              		.align	2
 274              		.global	CySysWdtUnlock
 275              		.code	16
 276              		.thumb_func
 277              		.type	CySysWdtUnlock, %function
 278              	CySysWdtUnlock:
 279              	.LFB5:
 439:.\Generated_Source\PSoC4/CyLFClk.c **** 
 440:.\Generated_Source\PSoC4/CyLFClk.c **** 
 441:.\Generated_Source\PSoC4/CyLFClk.c ****     /*******************************************************************************
 442:.\Generated_Source\PSoC4/CyLFClk.c ****     * Function Name: CySysWdtUnlock
 443:.\Generated_Source\PSoC4/CyLFClk.c ****     ********************************************************************************
 444:.\Generated_Source\PSoC4/CyLFClk.c ****     *
 445:.\Generated_Source\PSoC4/CyLFClk.c ****     * Summary:
 446:.\Generated_Source\PSoC4/CyLFClk.c ****     *  Unlocks the Watchdog Timer configuration register.
 447:.\Generated_Source\PSoC4/CyLFClk.c ****     *
 448:.\Generated_Source\PSoC4/CyLFClk.c ****     * Parameters:
 449:.\Generated_Source\PSoC4/CyLFClk.c ****     *  None.
 450:.\Generated_Source\PSoC4/CyLFClk.c ****     *
 451:.\Generated_Source\PSoC4/CyLFClk.c ****     * Return:
 452:.\Generated_Source\PSoC4/CyLFClk.c ****     *  None.
 453:.\Generated_Source\PSoC4/CyLFClk.c ****     *
 454:.\Generated_Source\PSoC4/CyLFClk.c ****     *******************************************************************************/
 455:.\Generated_Source\PSoC4/CyLFClk.c ****     void CySysWdtUnlock(void)
 456:.\Generated_Source\PSoC4/CyLFClk.c ****     {
 280              		.loc 1 456 0
 281              		.cfi_startproc
 282 0000 90B5     		push	{r4, r7, lr}
 283              		.cfi_def_cfa_offset 12
ARM GAS  C:\Users\LUKASC~1\AppData\Local\Temp\ccSv4rUt.s 			page 14


 284              		.cfi_offset 4, -12
 285              		.cfi_offset 7, -8
 286              		.cfi_offset 14, -4
 287 0002 83B0     		sub	sp, sp, #12
 288              		.cfi_def_cfa_offset 24
 289 0004 00AF     		add	r7, sp, #0
 290              		.cfi_def_cfa_register 7
 457:.\Generated_Source\PSoC4/CyLFClk.c ****         uint8 interruptState;
 458:.\Generated_Source\PSoC4/CyLFClk.c ****         interruptState = CyEnterCriticalSection();
 291              		.loc 1 458 0
 292 0006 FC1D     		add	r4, r7, #7
 293 0008 FFF7FEFF 		bl	CyEnterCriticalSection
 294 000c 031C     		mov	r3, r0
 295 000e 2370     		strb	r3, [r4]
 459:.\Generated_Source\PSoC4/CyLFClk.c **** 
 460:.\Generated_Source\PSoC4/CyLFClk.c ****         /* Removing WDT lock requires two writes */
 461:.\Generated_Source\PSoC4/CyLFClk.c ****         CY_SYS_CLK_SELECT_REG = ((CY_SYS_CLK_SELECT_REG & (uint32)(~CY_SYS_WDT_CLK_LOCK_BITS_MASK))
 296              		.loc 1 461 0
 297 0010 0C4B     		ldr	r3, .L24
 298 0012 0C4A     		ldr	r2, .L24
 299 0014 1268     		ldr	r2, [r2]
 300 0016 0C49     		ldr	r1, .L24+4
 301 0018 0A40     		and	r2, r1
 302 001a 8021     		mov	r1, #128
 303 001c C901     		lsl	r1, r1, #7
 304 001e 0A43     		orr	r2, r1
 305 0020 1A60     		str	r2, [r3]
 462:.\Generated_Source\PSoC4/CyLFClk.c ****                 CY_SYS_WDT_CLK_LOCK_BIT0);
 463:.\Generated_Source\PSoC4/CyLFClk.c **** 
 464:.\Generated_Source\PSoC4/CyLFClk.c ****         CY_SYS_CLK_SELECT_REG = ((CY_SYS_CLK_SELECT_REG & (uint32)(~CY_SYS_WDT_CLK_LOCK_BITS_MASK))
 306              		.loc 1 464 0
 307 0022 084B     		ldr	r3, .L24
 308 0024 074A     		ldr	r2, .L24
 309 0026 1268     		ldr	r2, [r2]
 310 0028 0749     		ldr	r1, .L24+4
 311 002a 0A40     		and	r2, r1
 312 002c 8021     		mov	r1, #128
 313 002e 0902     		lsl	r1, r1, #8
 314 0030 0A43     		orr	r2, r1
 315 0032 1A60     		str	r2, [r3]
 465:.\Generated_Source\PSoC4/CyLFClk.c ****                 CY_SYS_WDT_CLK_LOCK_BIT1);
 466:.\Generated_Source\PSoC4/CyLFClk.c **** 
 467:.\Generated_Source\PSoC4/CyLFClk.c ****         CyExitCriticalSection(interruptState);
 316              		.loc 1 467 0
 317 0034 FB1D     		add	r3, r7, #7
 318 0036 1B78     		ldrb	r3, [r3]
 319 0038 181C     		mov	r0, r3
 320 003a FFF7FEFF 		bl	CyExitCriticalSection
 468:.\Generated_Source\PSoC4/CyLFClk.c ****     }
 321              		.loc 1 468 0
 322 003e BD46     		mov	sp, r7
 323 0040 03B0     		add	sp, sp, #12
 324              		@ sp needed
 325 0042 90BD     		pop	{r4, r7, pc}
 326              	.L25:
 327              		.align	2
 328              	.L24:
ARM GAS  C:\Users\LUKASC~1\AppData\Local\Temp\ccSv4rUt.s 			page 15


 329 0044 00010B40 		.word	1074462976
 330 0048 FF3FFFFF 		.word	-49153
 331              		.cfi_endproc
 332              	.LFE5:
 333              		.size	CySysWdtUnlock, .-CySysWdtUnlock
 334              		.section	.text.CySysWdtGetEnabledStatus,"ax",%progbits
 335              		.align	2
 336              		.global	CySysWdtGetEnabledStatus
 337              		.code	16
 338              		.thumb_func
 339              		.type	CySysWdtGetEnabledStatus, %function
 340              	CySysWdtGetEnabledStatus:
 341              	.LFB6:
 469:.\Generated_Source\PSoC4/CyLFClk.c **** 
 470:.\Generated_Source\PSoC4/CyLFClk.c **** 
 471:.\Generated_Source\PSoC4/CyLFClk.c ****     /*******************************************************************************
 472:.\Generated_Source\PSoC4/CyLFClk.c ****     * Function Name: CySysWdtGetEnabledStatus
 473:.\Generated_Source\PSoC4/CyLFClk.c ****     ********************************************************************************
 474:.\Generated_Source\PSoC4/CyLFClk.c ****     *
 475:.\Generated_Source\PSoC4/CyLFClk.c ****     * Summary:
 476:.\Generated_Source\PSoC4/CyLFClk.c ****     *  Reads the enabled status of one of the three WDT counters.
 477:.\Generated_Source\PSoC4/CyLFClk.c ****     *
 478:.\Generated_Source\PSoC4/CyLFClk.c ****     * Parameters:
 479:.\Generated_Source\PSoC4/CyLFClk.c ****     *  counterNum: Valid range [0-2].  the number of the WDT counter.
 480:.\Generated_Source\PSoC4/CyLFClk.c ****     *
 481:.\Generated_Source\PSoC4/CyLFClk.c ****     * Return:
 482:.\Generated_Source\PSoC4/CyLFClk.c ****     *  The status of the WDT counter:
 483:.\Generated_Source\PSoC4/CyLFClk.c ****     *   0 - The counter is disabled.
 484:.\Generated_Source\PSoC4/CyLFClk.c ****     *   1 - The counter is enabled.
 485:.\Generated_Source\PSoC4/CyLFClk.c ****     *
 486:.\Generated_Source\PSoC4/CyLFClk.c ****     * Side Effects:
 487:.\Generated_Source\PSoC4/CyLFClk.c ****     *  This function returns an actual WDT counter status from the status register. It may
 488:.\Generated_Source\PSoC4/CyLFClk.c ****     *  take up to 3 LFCLK cycles for the WDT status register to contain actual data
 489:.\Generated_Source\PSoC4/CyLFClk.c ****     *  after the WDT counter is enabled.
 490:.\Generated_Source\PSoC4/CyLFClk.c ****     *
 491:.\Generated_Source\PSoC4/CyLFClk.c ****     *
 492:.\Generated_Source\PSoC4/CyLFClk.c ****     *******************************************************************************/
 493:.\Generated_Source\PSoC4/CyLFClk.c ****     uint32 CySysWdtGetEnabledStatus(uint32 counterNum)
 494:.\Generated_Source\PSoC4/CyLFClk.c ****     {
 342              		.loc 1 494 0
 343              		.cfi_startproc
 344 0000 80B5     		push	{r7, lr}
 345              		.cfi_def_cfa_offset 8
 346              		.cfi_offset 7, -8
 347              		.cfi_offset 14, -4
 348 0002 82B0     		sub	sp, sp, #8
 349              		.cfi_def_cfa_offset 16
 350 0004 00AF     		add	r7, sp, #0
 351              		.cfi_def_cfa_register 7
 352 0006 7860     		str	r0, [r7, #4]
 495:.\Generated_Source\PSoC4/CyLFClk.c ****         CYASSERT(counterNum < CY_SYS_WDT_COUNTERS_MAX);
 353              		.loc 1 495 0
 354 0008 7B68     		ldr	r3, [r7, #4]
 355 000a 022B     		cmp	r3, #2
 356 000c 02D9     		bls	.L27
 357              		.loc 1 495 0 is_stmt 0 discriminator 1
 358 000e 0020     		mov	r0, #0
ARM GAS  C:\Users\LUKASC~1\AppData\Local\Temp\ccSv4rUt.s 			page 16


 359 0010 FFF7FEFF 		bl	CyHalt
 360              	.L27:
 496:.\Generated_Source\PSoC4/CyLFClk.c ****         return ((CY_SYS_WDT_CONTROL_REG >> ((CY_SYS_WDT_CNT_SHIFT * counterNum) + CY_SYS_WDT_CNT_ST
 361              		.loc 1 496 0 is_stmt 1
 362 0014 054B     		ldr	r3, .L29
 363 0016 1B68     		ldr	r3, [r3]
 364 0018 7A68     		ldr	r2, [r7, #4]
 365 001a D200     		lsl	r2, r2, #3
 366 001c 0132     		add	r2, r2, #1
 367 001e D340     		lsr	r3, r3, r2
 368 0020 0122     		mov	r2, #1
 369 0022 1340     		and	r3, r2
 497:.\Generated_Source\PSoC4/CyLFClk.c ****     }
 370              		.loc 1 497 0
 371 0024 181C     		mov	r0, r3
 372 0026 BD46     		mov	sp, r7
 373 0028 02B0     		add	sp, sp, #8
 374              		@ sp needed
 375 002a 80BD     		pop	{r7, pc}
 376              	.L30:
 377              		.align	2
 378              	.L29:
 379 002c 10020B40 		.word	1074463248
 380              		.cfi_endproc
 381              	.LFE6:
 382              		.size	CySysWdtGetEnabledStatus, .-CySysWdtGetEnabledStatus
 383              		.section	.text.CySysWdtSetMode,"ax",%progbits
 384              		.align	2
 385              		.global	CySysWdtSetMode
 386              		.code	16
 387              		.thumb_func
 388              		.type	CySysWdtSetMode, %function
 389              	CySysWdtSetMode:
 390              	.LFB7:
 498:.\Generated_Source\PSoC4/CyLFClk.c **** 
 499:.\Generated_Source\PSoC4/CyLFClk.c **** 
 500:.\Generated_Source\PSoC4/CyLFClk.c ****     /*******************************************************************************
 501:.\Generated_Source\PSoC4/CyLFClk.c ****     * Function Name: CySysWdtSetMode
 502:.\Generated_Source\PSoC4/CyLFClk.c ****     ********************************************************************************
 503:.\Generated_Source\PSoC4/CyLFClk.c ****     *
 504:.\Generated_Source\PSoC4/CyLFClk.c ****     * Summary:
 505:.\Generated_Source\PSoC4/CyLFClk.c ****     *   Writes the mode of one of the three WDT counters.
 506:.\Generated_Source\PSoC4/CyLFClk.c ****     *
 507:.\Generated_Source\PSoC4/CyLFClk.c ****     * Parameters:
 508:.\Generated_Source\PSoC4/CyLFClk.c ****     *   counterNum: Valid range [0-2].  The number of the WDT counter.
 509:.\Generated_Source\PSoC4/CyLFClk.c ****     *   mode:       Mode of operation for the counter.
 510:.\Generated_Source\PSoC4/CyLFClk.c ****     *       Define                     Mode
 511:.\Generated_Source\PSoC4/CyLFClk.c ****     *        CY_SYS_WDT_MODE_NONE       Free running
 512:.\Generated_Source\PSoC4/CyLFClk.c ****     *        CY_SYS_WDT_MODE_INT        The interrupt generated on match for counter 0
 513:.\Generated_Source\PSoC4/CyLFClk.c ****     *                                   and 1, and on bit toggle for counter 2.
 514:.\Generated_Source\PSoC4/CyLFClk.c ****     *        CY_SYS_WDT_MODE_RESET      Reset on match (valid for counter 0 and 1
 515:.\Generated_Source\PSoC4/CyLFClk.c ****     *                                   only)
 516:.\Generated_Source\PSoC4/CyLFClk.c ****     *        CY_SYS_WDT_MODE_INT_RESET  Generate an interrupt.  Generate a reset on
 517:.\Generated_Source\PSoC4/CyLFClk.c ****     *                                   the 3rd non-handled interrupt.
 518:.\Generated_Source\PSoC4/CyLFClk.c ****     *                                   (valid for counter 0 and 1 only)
 519:.\Generated_Source\PSoC4/CyLFClk.c ****     * Return:
 520:.\Generated_Source\PSoC4/CyLFClk.c ****     *   None.
ARM GAS  C:\Users\LUKASC~1\AppData\Local\Temp\ccSv4rUt.s 			page 17


 521:.\Generated_Source\PSoC4/CyLFClk.c ****     *
 522:.\Generated_Source\PSoC4/CyLFClk.c ****     * Side Effects:
 523:.\Generated_Source\PSoC4/CyLFClk.c ****     *   WDT counter counterNum should be disabled to set a mode. Otherwise, this
 524:.\Generated_Source\PSoC4/CyLFClk.c ****     *   function call has no effect. If the specified counter is enabled,
 525:.\Generated_Source\PSoC4/CyLFClk.c ****     *   call the CySysWdtDisable() function with the corresponding parameter to
 526:.\Generated_Source\PSoC4/CyLFClk.c ****     *   disable the specified counter and wait for it to stop.
 527:.\Generated_Source\PSoC4/CyLFClk.c ****     *
 528:.\Generated_Source\PSoC4/CyLFClk.c ****     *******************************************************************************/
 529:.\Generated_Source\PSoC4/CyLFClk.c ****     void CySysWdtSetMode(uint32 counterNum, uint32 mode)
 530:.\Generated_Source\PSoC4/CyLFClk.c ****     {
 391              		.loc 1 530 0
 392              		.cfi_startproc
 393 0000 80B5     		push	{r7, lr}
 394              		.cfi_def_cfa_offset 8
 395              		.cfi_offset 7, -8
 396              		.cfi_offset 14, -4
 397 0002 84B0     		sub	sp, sp, #16
 398              		.cfi_def_cfa_offset 24
 399 0004 00AF     		add	r7, sp, #0
 400              		.cfi_def_cfa_register 7
 401 0006 7860     		str	r0, [r7, #4]
 402 0008 3960     		str	r1, [r7]
 531:.\Generated_Source\PSoC4/CyLFClk.c ****         uint32 configRegValue;
 532:.\Generated_Source\PSoC4/CyLFClk.c **** 
 533:.\Generated_Source\PSoC4/CyLFClk.c ****         CYASSERT(counterNum < CY_SYS_WDT_COUNTERS_MAX);
 403              		.loc 1 533 0
 404 000a 7B68     		ldr	r3, [r7, #4]
 405 000c 022B     		cmp	r3, #2
 406 000e 02D9     		bls	.L32
 407              		.loc 1 533 0 is_stmt 0 discriminator 1
 408 0010 0020     		mov	r0, #0
 409 0012 FFF7FEFF 		bl	CyHalt
 410              	.L32:
 534:.\Generated_Source\PSoC4/CyLFClk.c **** 
 535:.\Generated_Source\PSoC4/CyLFClk.c ****         if(0u == CySysWdtGetEnabledStatus(counterNum))
 411              		.loc 1 535 0 is_stmt 1
 412 0016 7B68     		ldr	r3, [r7, #4]
 413 0018 181C     		mov	r0, r3
 414 001a FFF7FEFF 		bl	CySysWdtGetEnabledStatus
 415 001e 031E     		sub	r3, r0, #0
 416 0020 15D1     		bne	.L31
 536:.\Generated_Source\PSoC4/CyLFClk.c ****         {
 537:.\Generated_Source\PSoC4/CyLFClk.c ****             configRegValue = CY_SYS_WDT_CONFIG_REG &
 417              		.loc 1 537 0
 418 0022 0C4B     		ldr	r3, .L34
 419 0024 1B68     		ldr	r3, [r3]
 538:.\Generated_Source\PSoC4/CyLFClk.c ****                                 (uint32)~((uint32)(CY_SYS_WDT_MODE_MASK << (counterNum * CY_SYS_WDT
 420              		.loc 1 538 0
 421 0026 7A68     		ldr	r2, [r7, #4]
 422 0028 D200     		lsl	r2, r2, #3
 423 002a 111C     		mov	r1, r2
 424 002c 0322     		mov	r2, #3
 425 002e 8A40     		lsl	r2, r2, r1
 426 0030 D243     		mvn	r2, r2
 537:.\Generated_Source\PSoC4/CyLFClk.c ****                                 (uint32)~((uint32)(CY_SYS_WDT_MODE_MASK << (counterNum * CY_SYS_WDT
 427              		.loc 1 537 0
 428 0032 1340     		and	r3, r2
ARM GAS  C:\Users\LUKASC~1\AppData\Local\Temp\ccSv4rUt.s 			page 18


 429 0034 FB60     		str	r3, [r7, #12]
 539:.\Generated_Source\PSoC4/CyLFClk.c ****             configRegValue |= (uint32)((mode & CY_SYS_WDT_MODE_MASK) << (counterNum * CY_SYS_WDT_CN
 430              		.loc 1 539 0
 431 0036 3B68     		ldr	r3, [r7]
 432 0038 0322     		mov	r2, #3
 433 003a 1340     		and	r3, r2
 434 003c 7A68     		ldr	r2, [r7, #4]
 435 003e D200     		lsl	r2, r2, #3
 436 0040 9340     		lsl	r3, r3, r2
 437 0042 FA68     		ldr	r2, [r7, #12]
 438 0044 1343     		orr	r3, r2
 439 0046 FB60     		str	r3, [r7, #12]
 540:.\Generated_Source\PSoC4/CyLFClk.c ****             CY_SYS_WDT_CONFIG_REG = configRegValue;
 440              		.loc 1 540 0
 441 0048 024B     		ldr	r3, .L34
 442 004a FA68     		ldr	r2, [r7, #12]
 443 004c 1A60     		str	r2, [r3]
 444              	.L31:
 541:.\Generated_Source\PSoC4/CyLFClk.c ****         }
 542:.\Generated_Source\PSoC4/CyLFClk.c ****     }
 445              		.loc 1 542 0
 446 004e BD46     		mov	sp, r7
 447 0050 04B0     		add	sp, sp, #16
 448              		@ sp needed
 449 0052 80BD     		pop	{r7, pc}
 450              	.L35:
 451              		.align	2
 452              	.L34:
 453 0054 0C020B40 		.word	1074463244
 454              		.cfi_endproc
 455              	.LFE7:
 456              		.size	CySysWdtSetMode, .-CySysWdtSetMode
 457              		.section	.text.CySysWdtGetMode,"ax",%progbits
 458              		.align	2
 459              		.global	CySysWdtGetMode
 460              		.code	16
 461              		.thumb_func
 462              		.type	CySysWdtGetMode, %function
 463              	CySysWdtGetMode:
 464              	.LFB8:
 543:.\Generated_Source\PSoC4/CyLFClk.c **** 
 544:.\Generated_Source\PSoC4/CyLFClk.c **** 
 545:.\Generated_Source\PSoC4/CyLFClk.c ****     /*******************************************************************************
 546:.\Generated_Source\PSoC4/CyLFClk.c ****     * Function Name: CySysWdtGetMode
 547:.\Generated_Source\PSoC4/CyLFClk.c ****     ********************************************************************************
 548:.\Generated_Source\PSoC4/CyLFClk.c ****     *
 549:.\Generated_Source\PSoC4/CyLFClk.c ****     * Summary:
 550:.\Generated_Source\PSoC4/CyLFClk.c ****     *  Reads the mode of one of the three WDT counters.
 551:.\Generated_Source\PSoC4/CyLFClk.c ****     *
 552:.\Generated_Source\PSoC4/CyLFClk.c ****     * Parameters:
 553:.\Generated_Source\PSoC4/CyLFClk.c ****     *  counterNum: Valid range [0-2].  The number of the WDT counter.
 554:.\Generated_Source\PSoC4/CyLFClk.c ****     *
 555:.\Generated_Source\PSoC4/CyLFClk.c ****     * Return:
 556:.\Generated_Source\PSoC4/CyLFClk.c ****     *  The mode of the counter.  The same enumerated values as the mode parameter used in
 557:.\Generated_Source\PSoC4/CyLFClk.c ****     *  CySysWdtSetMode().
 558:.\Generated_Source\PSoC4/CyLFClk.c ****     *
 559:.\Generated_Source\PSoC4/CyLFClk.c ****     *******************************************************************************/
ARM GAS  C:\Users\LUKASC~1\AppData\Local\Temp\ccSv4rUt.s 			page 19


 560:.\Generated_Source\PSoC4/CyLFClk.c ****     uint32 CySysWdtGetMode(uint32 counterNum)
 561:.\Generated_Source\PSoC4/CyLFClk.c ****     {
 465              		.loc 1 561 0
 466              		.cfi_startproc
 467 0000 80B5     		push	{r7, lr}
 468              		.cfi_def_cfa_offset 8
 469              		.cfi_offset 7, -8
 470              		.cfi_offset 14, -4
 471 0002 82B0     		sub	sp, sp, #8
 472              		.cfi_def_cfa_offset 16
 473 0004 00AF     		add	r7, sp, #0
 474              		.cfi_def_cfa_register 7
 475 0006 7860     		str	r0, [r7, #4]
 562:.\Generated_Source\PSoC4/CyLFClk.c ****         return ((CY_SYS_WDT_CONFIG_REG >> (counterNum * CY_SYS_WDT_CNT_SHIFT)) & CY_SYS_WDT_MODE_MA
 476              		.loc 1 562 0
 477 0008 054B     		ldr	r3, .L38
 478 000a 1B68     		ldr	r3, [r3]
 479 000c 7A68     		ldr	r2, [r7, #4]
 480 000e D200     		lsl	r2, r2, #3
 481 0010 D340     		lsr	r3, r3, r2
 482 0012 0322     		mov	r2, #3
 483 0014 1340     		and	r3, r2
 563:.\Generated_Source\PSoC4/CyLFClk.c ****     }
 484              		.loc 1 563 0
 485 0016 181C     		mov	r0, r3
 486 0018 BD46     		mov	sp, r7
 487 001a 02B0     		add	sp, sp, #8
 488              		@ sp needed
 489 001c 80BD     		pop	{r7, pc}
 490              	.L39:
 491 001e C046     		.align	2
 492              	.L38:
 493 0020 0C020B40 		.word	1074463244
 494              		.cfi_endproc
 495              	.LFE8:
 496              		.size	CySysWdtGetMode, .-CySysWdtGetMode
 497              		.section	.text.CySysWdtSetClearOnMatch,"ax",%progbits
 498              		.align	2
 499              		.global	CySysWdtSetClearOnMatch
 500              		.code	16
 501              		.thumb_func
 502              		.type	CySysWdtSetClearOnMatch, %function
 503              	CySysWdtSetClearOnMatch:
 504              	.LFB9:
 564:.\Generated_Source\PSoC4/CyLFClk.c **** 
 565:.\Generated_Source\PSoC4/CyLFClk.c **** 
 566:.\Generated_Source\PSoC4/CyLFClk.c ****     /*******************************************************************************
 567:.\Generated_Source\PSoC4/CyLFClk.c ****     * Function Name: CySysWdtSetClearOnMatch
 568:.\Generated_Source\PSoC4/CyLFClk.c ****     ********************************************************************************
 569:.\Generated_Source\PSoC4/CyLFClk.c ****     *
 570:.\Generated_Source\PSoC4/CyLFClk.c ****     * Summary:
 571:.\Generated_Source\PSoC4/CyLFClk.c ****     *  Configures the WDT counter "clear on match" setting.  If configured to "clear
 572:.\Generated_Source\PSoC4/CyLFClk.c ****     *  on match", the counter counts from 0 to MatchValue giving it a
 573:.\Generated_Source\PSoC4/CyLFClk.c ****     *  period of (MatchValue + 1).
 574:.\Generated_Source\PSoC4/CyLFClk.c ****     *
 575:.\Generated_Source\PSoC4/CyLFClk.c ****     * Parameters:
 576:.\Generated_Source\PSoC4/CyLFClk.c ****     *  counterNum:
ARM GAS  C:\Users\LUKASC~1\AppData\Local\Temp\ccSv4rUt.s 			page 20


 577:.\Generated_Source\PSoC4/CyLFClk.c ****     *   Valid range [0-1].  The number of the WDT counter.  The match values are not
 578:.\Generated_Source\PSoC4/CyLFClk.c ****     *   supported by counter 2.
 579:.\Generated_Source\PSoC4/CyLFClk.c ****     *
 580:.\Generated_Source\PSoC4/CyLFClk.c ****     * enable:
 581:.\Generated_Source\PSoC4/CyLFClk.c ****     *   0 to disable, 1 to enable
 582:.\Generated_Source\PSoC4/CyLFClk.c ****     *
 583:.\Generated_Source\PSoC4/CyLFClk.c ****     * Return:
 584:.\Generated_Source\PSoC4/CyLFClk.c ****     *   None.
 585:.\Generated_Source\PSoC4/CyLFClk.c ****     *
 586:.\Generated_Source\PSoC4/CyLFClk.c ****     * Side Effects:
 587:.\Generated_Source\PSoC4/CyLFClk.c ****     *   WDT counter counterNum should be disabled. Otherwise this function call
 588:.\Generated_Source\PSoC4/CyLFClk.c ****     *   has no effect. If the specified counter is enabled, call the CySysWdtDisable()
 589:.\Generated_Source\PSoC4/CyLFClk.c ****     *   function with the corresponding parameter to disable the specified counter and
 590:.\Generated_Source\PSoC4/CyLFClk.c ****     *   wait for it to stop. This may take up to three LFCLK cycles.
 591:.\Generated_Source\PSoC4/CyLFClk.c ****     *
 592:.\Generated_Source\PSoC4/CyLFClk.c ****     *******************************************************************************/
 593:.\Generated_Source\PSoC4/CyLFClk.c ****     void CySysWdtSetClearOnMatch(uint32 counterNum, uint32 enable)
 594:.\Generated_Source\PSoC4/CyLFClk.c ****     {
 505              		.loc 1 594 0
 506              		.cfi_startproc
 507 0000 80B5     		push	{r7, lr}
 508              		.cfi_def_cfa_offset 8
 509              		.cfi_offset 7, -8
 510              		.cfi_offset 14, -4
 511 0002 84B0     		sub	sp, sp, #16
 512              		.cfi_def_cfa_offset 24
 513 0004 00AF     		add	r7, sp, #0
 514              		.cfi_def_cfa_register 7
 515 0006 7860     		str	r0, [r7, #4]
 516 0008 3960     		str	r1, [r7]
 595:.\Generated_Source\PSoC4/CyLFClk.c ****         uint32 configRegValue;
 596:.\Generated_Source\PSoC4/CyLFClk.c **** 
 597:.\Generated_Source\PSoC4/CyLFClk.c ****         CYASSERT((counterNum == CY_SYS_WDT_COUNTER0) ||
 517              		.loc 1 597 0
 518 000a 7B68     		ldr	r3, [r7, #4]
 519 000c 002B     		cmp	r3, #0
 520 000e 02D0     		beq	.L41
 521              		.loc 1 597 0 is_stmt 0 discriminator 2
 522 0010 7B68     		ldr	r3, [r7, #4]
 523 0012 012B     		cmp	r3, #1
 524 0014 01D1     		bne	.L42
 525              	.L41:
 526              		.loc 1 597 0 discriminator 3
 527 0016 0123     		mov	r3, #1
 528 0018 00E0     		b	.L43
 529              	.L42:
 530              		.loc 1 597 0 discriminator 4
 531 001a 0023     		mov	r3, #0
 532              	.L43:
 533              		.loc 1 597 0 discriminator 6
 534 001c 002B     		cmp	r3, #0
 535 001e 02D1     		bne	.L44
 536              		.loc 1 597 0 discriminator 7
 537 0020 0020     		mov	r0, #0
 538 0022 FFF7FEFF 		bl	CyHalt
 539              	.L44:
 598:.\Generated_Source\PSoC4/CyLFClk.c ****                  (counterNum == CY_SYS_WDT_COUNTER1));
ARM GAS  C:\Users\LUKASC~1\AppData\Local\Temp\ccSv4rUt.s 			page 21


 599:.\Generated_Source\PSoC4/CyLFClk.c **** 
 600:.\Generated_Source\PSoC4/CyLFClk.c ****         if(0u == CySysWdtGetEnabledStatus(counterNum))
 540              		.loc 1 600 0 is_stmt 1
 541 0026 7B68     		ldr	r3, [r7, #4]
 542 0028 181C     		mov	r0, r3
 543 002a FFF7FEFF 		bl	CySysWdtGetEnabledStatus
 544 002e 031E     		sub	r3, r0, #0
 545 0030 16D1     		bne	.L40
 601:.\Generated_Source\PSoC4/CyLFClk.c ****         {
 602:.\Generated_Source\PSoC4/CyLFClk.c ****             configRegValue = CY_SYS_WDT_CONFIG_REG &
 546              		.loc 1 602 0
 547 0032 0D4B     		ldr	r3, .L46
 548 0034 1B68     		ldr	r3, [r3]
 603:.\Generated_Source\PSoC4/CyLFClk.c ****                 (uint32)~((uint32)((uint32)1u << ((counterNum * CY_SYS_WDT_CNT_SHIFT) + CY_SYS_WDT_
 549              		.loc 1 603 0
 550 0036 7A68     		ldr	r2, [r7, #4]
 551 0038 D200     		lsl	r2, r2, #3
 552 003a 0232     		add	r2, r2, #2
 553 003c 111C     		mov	r1, r2
 554 003e 0122     		mov	r2, #1
 555 0040 8A40     		lsl	r2, r2, r1
 556 0042 D243     		mvn	r2, r2
 602:.\Generated_Source\PSoC4/CyLFClk.c ****                 (uint32)~((uint32)((uint32)1u << ((counterNum * CY_SYS_WDT_CNT_SHIFT) + CY_SYS_WDT_
 557              		.loc 1 602 0
 558 0044 1340     		and	r3, r2
 559 0046 FB60     		str	r3, [r7, #12]
 604:.\Generated_Source\PSoC4/CyLFClk.c **** 
 605:.\Generated_Source\PSoC4/CyLFClk.c ****             configRegValue
 606:.\Generated_Source\PSoC4/CyLFClk.c ****                 |= (uint32)(enable << ((counterNum * CY_SYS_WDT_CNT_SHIFT) + CY_SYS_WDT_CNT_MATCH_C
 560              		.loc 1 606 0
 561 0048 7B68     		ldr	r3, [r7, #4]
 562 004a DB00     		lsl	r3, r3, #3
 563 004c 0233     		add	r3, r3, #2
 564 004e 1A1C     		mov	r2, r3
 565 0050 3B68     		ldr	r3, [r7]
 566 0052 9340     		lsl	r3, r3, r2
 567 0054 FA68     		ldr	r2, [r7, #12]
 568 0056 1343     		orr	r3, r2
 569 0058 FB60     		str	r3, [r7, #12]
 607:.\Generated_Source\PSoC4/CyLFClk.c **** 
 608:.\Generated_Source\PSoC4/CyLFClk.c ****             CY_SYS_WDT_CONFIG_REG = configRegValue;
 570              		.loc 1 608 0
 571 005a 034B     		ldr	r3, .L46
 572 005c FA68     		ldr	r2, [r7, #12]
 573 005e 1A60     		str	r2, [r3]
 574              	.L40:
 609:.\Generated_Source\PSoC4/CyLFClk.c ****         }
 610:.\Generated_Source\PSoC4/CyLFClk.c ****     }
 575              		.loc 1 610 0
 576 0060 BD46     		mov	sp, r7
 577 0062 04B0     		add	sp, sp, #16
 578              		@ sp needed
 579 0064 80BD     		pop	{r7, pc}
 580              	.L47:
 581 0066 C046     		.align	2
 582              	.L46:
 583 0068 0C020B40 		.word	1074463244
ARM GAS  C:\Users\LUKASC~1\AppData\Local\Temp\ccSv4rUt.s 			page 22


 584              		.cfi_endproc
 585              	.LFE9:
 586              		.size	CySysWdtSetClearOnMatch, .-CySysWdtSetClearOnMatch
 587              		.section	.text.CySysWdtGetClearOnMatch,"ax",%progbits
 588              		.align	2
 589              		.global	CySysWdtGetClearOnMatch
 590              		.code	16
 591              		.thumb_func
 592              		.type	CySysWdtGetClearOnMatch, %function
 593              	CySysWdtGetClearOnMatch:
 594              	.LFB10:
 611:.\Generated_Source\PSoC4/CyLFClk.c **** 
 612:.\Generated_Source\PSoC4/CyLFClk.c **** 
 613:.\Generated_Source\PSoC4/CyLFClk.c ****     /*******************************************************************************
 614:.\Generated_Source\PSoC4/CyLFClk.c ****     * Function Name: CySysWdtGetClearOnMatch
 615:.\Generated_Source\PSoC4/CyLFClk.c ****     ********************************************************************************
 616:.\Generated_Source\PSoC4/CyLFClk.c ****     *
 617:.\Generated_Source\PSoC4/CyLFClk.c ****     * Summary:
 618:.\Generated_Source\PSoC4/CyLFClk.c ****     *  Reads the "clear on match" setting for the specified counter.
 619:.\Generated_Source\PSoC4/CyLFClk.c ****     *
 620:.\Generated_Source\PSoC4/CyLFClk.c ****     * Parameters:
 621:.\Generated_Source\PSoC4/CyLFClk.c ****     *   counterNum: Valid range [0-1].  The number of the WDT counter.  The match values are
 622:.\Generated_Source\PSoC4/CyLFClk.c ****     *               not supported by counter 2.
 623:.\Generated_Source\PSoC4/CyLFClk.c ****     *
 624:.\Generated_Source\PSoC4/CyLFClk.c ****     * Return:
 625:.\Generated_Source\PSoC4/CyLFClk.c ****     *   The "clear on match" status: 1 if enabled, 0 if disabled
 626:.\Generated_Source\PSoC4/CyLFClk.c ****     *
 627:.\Generated_Source\PSoC4/CyLFClk.c ****     *******************************************************************************/
 628:.\Generated_Source\PSoC4/CyLFClk.c ****     uint32 CySysWdtGetClearOnMatch(uint32 counterNum)
 629:.\Generated_Source\PSoC4/CyLFClk.c ****     {
 595              		.loc 1 629 0
 596              		.cfi_startproc
 597 0000 80B5     		push	{r7, lr}
 598              		.cfi_def_cfa_offset 8
 599              		.cfi_offset 7, -8
 600              		.cfi_offset 14, -4
 601 0002 82B0     		sub	sp, sp, #8
 602              		.cfi_def_cfa_offset 16
 603 0004 00AF     		add	r7, sp, #0
 604              		.cfi_def_cfa_register 7
 605 0006 7860     		str	r0, [r7, #4]
 630:.\Generated_Source\PSoC4/CyLFClk.c ****         CYASSERT((counterNum == CY_SYS_WDT_COUNTER0) ||
 606              		.loc 1 630 0
 607 0008 7B68     		ldr	r3, [r7, #4]
 608 000a 002B     		cmp	r3, #0
 609 000c 02D0     		beq	.L49
 610              		.loc 1 630 0 is_stmt 0 discriminator 2
 611 000e 7B68     		ldr	r3, [r7, #4]
 612 0010 012B     		cmp	r3, #1
 613 0012 01D1     		bne	.L50
 614              	.L49:
 615              		.loc 1 630 0 discriminator 3
 616 0014 0123     		mov	r3, #1
 617 0016 00E0     		b	.L51
 618              	.L50:
 619              		.loc 1 630 0 discriminator 4
 620 0018 0023     		mov	r3, #0
ARM GAS  C:\Users\LUKASC~1\AppData\Local\Temp\ccSv4rUt.s 			page 23


 621              	.L51:
 622              		.loc 1 630 0 discriminator 6
 623 001a 002B     		cmp	r3, #0
 624 001c 02D1     		bne	.L52
 625              		.loc 1 630 0 discriminator 7
 626 001e 0020     		mov	r0, #0
 627 0020 FFF7FEFF 		bl	CyHalt
 628              	.L52:
 631:.\Generated_Source\PSoC4/CyLFClk.c ****                  (counterNum == CY_SYS_WDT_COUNTER1));
 632:.\Generated_Source\PSoC4/CyLFClk.c **** 
 633:.\Generated_Source\PSoC4/CyLFClk.c ****         return (uint32)((CY_SYS_WDT_CONFIG_REG >>
 629              		.loc 1 633 0 is_stmt 1
 630 0024 054B     		ldr	r3, .L54
 631 0026 1B68     		ldr	r3, [r3]
 634:.\Generated_Source\PSoC4/CyLFClk.c ****                         ((counterNum * CY_SYS_WDT_CNT_SHIFT) + CY_SYS_WDT_CNT_MATCH_CLR_SHIFT)) & 0
 632              		.loc 1 634 0
 633 0028 7A68     		ldr	r2, [r7, #4]
 634 002a D200     		lsl	r2, r2, #3
 635 002c 0232     		add	r2, r2, #2
 633:.\Generated_Source\PSoC4/CyLFClk.c ****                         ((counterNum * CY_SYS_WDT_CNT_SHIFT) + CY_SYS_WDT_CNT_MATCH_CLR_SHIFT)) & 0
 636              		.loc 1 633 0
 637 002e D340     		lsr	r3, r3, r2
 638 0030 0122     		mov	r2, #1
 639 0032 1340     		and	r3, r2
 635:.\Generated_Source\PSoC4/CyLFClk.c ****     }
 640              		.loc 1 635 0
 641 0034 181C     		mov	r0, r3
 642 0036 BD46     		mov	sp, r7
 643 0038 02B0     		add	sp, sp, #8
 644              		@ sp needed
 645 003a 80BD     		pop	{r7, pc}
 646              	.L55:
 647              		.align	2
 648              	.L54:
 649 003c 0C020B40 		.word	1074463244
 650              		.cfi_endproc
 651              	.LFE10:
 652              		.size	CySysWdtGetClearOnMatch, .-CySysWdtGetClearOnMatch
 653              		.section	.text.CySysWdtEnable,"ax",%progbits
 654              		.align	2
 655              		.global	CySysWdtEnable
 656              		.code	16
 657              		.thumb_func
 658              		.type	CySysWdtEnable, %function
 659              	CySysWdtEnable:
 660              	.LFB11:
 636:.\Generated_Source\PSoC4/CyLFClk.c **** 
 637:.\Generated_Source\PSoC4/CyLFClk.c **** 
 638:.\Generated_Source\PSoC4/CyLFClk.c ****     /*******************************************************************************
 639:.\Generated_Source\PSoC4/CyLFClk.c ****     * Function Name: CySysWdtEnable
 640:.\Generated_Source\PSoC4/CyLFClk.c ****     ********************************************************************************
 641:.\Generated_Source\PSoC4/CyLFClk.c ****     *
 642:.\Generated_Source\PSoC4/CyLFClk.c ****     * Summary:
 643:.\Generated_Source\PSoC4/CyLFClk.c ****     *  Enables the specified WDT counters.  All the counters specified in the mask
 644:.\Generated_Source\PSoC4/CyLFClk.c ****     *  are enabled.
 645:.\Generated_Source\PSoC4/CyLFClk.c ****     *
 646:.\Generated_Source\PSoC4/CyLFClk.c ****     * Parameters:
ARM GAS  C:\Users\LUKASC~1\AppData\Local\Temp\ccSv4rUt.s 			page 24


 647:.\Generated_Source\PSoC4/CyLFClk.c ****     *  counterMask: The mask of all counters to enable.
 648:.\Generated_Source\PSoC4/CyLFClk.c ****     *       Define                       Counter
 649:.\Generated_Source\PSoC4/CyLFClk.c ****     *      CY_SYS_WDT_COUNTER0_MASK      0
 650:.\Generated_Source\PSoC4/CyLFClk.c ****     *      CY_SYS_WDT_COUNTER1_MASK      1
 651:.\Generated_Source\PSoC4/CyLFClk.c ****     *      CY_SYS_WDT_COUNTER2_MASK      2
 652:.\Generated_Source\PSoC4/CyLFClk.c ****     *
 653:.\Generated_Source\PSoC4/CyLFClk.c ****     * Return:
 654:.\Generated_Source\PSoC4/CyLFClk.c ****     *  None
 655:.\Generated_Source\PSoC4/CyLFClk.c ****     *
 656:.\Generated_Source\PSoC4/CyLFClk.c ****     * Side Effects:
 657:.\Generated_Source\PSoC4/CyLFClk.c ****     *  Enabling or disabling WDT requires 3 LFCLK cycles to come into effect.
 658:.\Generated_Source\PSoC4/CyLFClk.c ****     *  Therefore, the WDT enable state must not be changed more than once in
 659:.\Generated_Source\PSoC4/CyLFClk.c ****     *  that period.
 660:.\Generated_Source\PSoC4/CyLFClk.c ****     *
 661:.\Generated_Source\PSoC4/CyLFClk.c ****     *  After WDT is enabled, it is illegal to write WDT configuration (WDT_CONFIG)
 662:.\Generated_Source\PSoC4/CyLFClk.c ****     *  and control (WDT_CONTROL) registers. This means that all WDT functions that
 663:.\Generated_Source\PSoC4/CyLFClk.c ****     *  contain 'write' in the name (with the exception of CySysWdtSetMatch()
 664:.\Generated_Source\PSoC4/CyLFClk.c ****     *  function) are illegal to call once WDT enabled.
 665:.\Generated_Source\PSoC4/CyLFClk.c ****     *
 666:.\Generated_Source\PSoC4/CyLFClk.c ****     *  PSoC 4100 / PSoC 4200:
 667:.\Generated_Source\PSoC4/CyLFClk.c ****     *  This function enables ILO.
 668:.\Generated_Source\PSoC4/CyLFClk.c ****     *
 669:.\Generated_Source\PSoC4/CyLFClk.c ****     *  PSoC 4100-BL / PSoC 4200-BL and PSoC 4100M / PSoC 4200M:
 670:.\Generated_Source\PSoC4/CyLFClk.c ****     *  LFLCK should be configured before calling this function. The desired
 671:.\Generated_Source\PSoC4/CyLFClk.c ****     *  source should be enabled and configured to be the source for LFCLK.
 672:.\Generated_Source\PSoC4/CyLFClk.c ****     *
 673:.\Generated_Source\PSoC4/CyLFClk.c ****     *******************************************************************************/
 674:.\Generated_Source\PSoC4/CyLFClk.c ****     void CySysWdtEnable(uint32 counterMask)
 675:.\Generated_Source\PSoC4/CyLFClk.c ****     {
 661              		.loc 1 675 0
 662              		.cfi_startproc
 663 0000 80B5     		push	{r7, lr}
 664              		.cfi_def_cfa_offset 8
 665              		.cfi_offset 7, -8
 666              		.cfi_offset 14, -4
 667 0002 82B0     		sub	sp, sp, #8
 668              		.cfi_def_cfa_offset 16
 669 0004 00AF     		add	r7, sp, #0
 670              		.cfi_def_cfa_register 7
 671 0006 7860     		str	r0, [r7, #4]
 676:.\Generated_Source\PSoC4/CyLFClk.c ****         #if (!CY_IP_WCO)
 677:.\Generated_Source\PSoC4/CyLFClk.c ****             CySysClkIloStart();
 672              		.loc 1 677 0
 673 0008 FFF7FEFF 		bl	CySysClkIloStart
 678:.\Generated_Source\PSoC4/CyLFClk.c ****         #endif /* (!CY_IP_WCO) */
 679:.\Generated_Source\PSoC4/CyLFClk.c **** 
 680:.\Generated_Source\PSoC4/CyLFClk.c ****         CY_SYS_WDT_CONTROL_REG |= counterMask;
 674              		.loc 1 680 0
 675 000c 144B     		ldr	r3, .L63
 676 000e 144A     		ldr	r2, .L63
 677 0010 1168     		ldr	r1, [r2]
 678 0012 7A68     		ldr	r2, [r7, #4]
 679 0014 0A43     		orr	r2, r1
 680 0016 1A60     		str	r2, [r3]
 681:.\Generated_Source\PSoC4/CyLFClk.c **** 
 682:.\Generated_Source\PSoC4/CyLFClk.c ****         if(0u != (counterMask & CY_SYS_WDT_COUNTER0_MASK))
 681              		.loc 1 682 0
ARM GAS  C:\Users\LUKASC~1\AppData\Local\Temp\ccSv4rUt.s 			page 25


 682 0018 7B68     		ldr	r3, [r7, #4]
 683 001a 0122     		mov	r2, #1
 684 001c 1340     		and	r3, r2
 685 001e 05D0     		beq	.L57
 683:.\Generated_Source\PSoC4/CyLFClk.c ****         {
 684:.\Generated_Source\PSoC4/CyLFClk.c ****             while (0u == CySysWdtGetEnabledStatus(CY_SYS_WDT_COUNTER0))
 686              		.loc 1 684 0
 687 0020 C046     		mov	r8, r8
 688              	.L58:
 689              		.loc 1 684 0 is_stmt 0 discriminator 1
 690 0022 0020     		mov	r0, #0
 691 0024 FFF7FEFF 		bl	CySysWdtGetEnabledStatus
 692 0028 031E     		sub	r3, r0, #0
 693 002a FAD0     		beq	.L58
 694              	.L57:
 685:.\Generated_Source\PSoC4/CyLFClk.c ****             {
 686:.\Generated_Source\PSoC4/CyLFClk.c ****                 /* Wait for changes to come into effect */
 687:.\Generated_Source\PSoC4/CyLFClk.c ****             }
 688:.\Generated_Source\PSoC4/CyLFClk.c ****         }
 689:.\Generated_Source\PSoC4/CyLFClk.c **** 
 690:.\Generated_Source\PSoC4/CyLFClk.c ****         if(0u != (counterMask & CY_SYS_WDT_COUNTER1_MASK))
 695              		.loc 1 690 0 is_stmt 1
 696 002c 7A68     		ldr	r2, [r7, #4]
 697 002e 8023     		mov	r3, #128
 698 0030 5B00     		lsl	r3, r3, #1
 699 0032 1340     		and	r3, r2
 700 0034 05D0     		beq	.L59
 691:.\Generated_Source\PSoC4/CyLFClk.c ****         {
 692:.\Generated_Source\PSoC4/CyLFClk.c ****             while (0u == CySysWdtGetEnabledStatus(CY_SYS_WDT_COUNTER1))
 701              		.loc 1 692 0
 702 0036 C046     		mov	r8, r8
 703              	.L60:
 704              		.loc 1 692 0 is_stmt 0 discriminator 1
 705 0038 0120     		mov	r0, #1
 706 003a FFF7FEFF 		bl	CySysWdtGetEnabledStatus
 707 003e 031E     		sub	r3, r0, #0
 708 0040 FAD0     		beq	.L60
 709              	.L59:
 693:.\Generated_Source\PSoC4/CyLFClk.c ****             {
 694:.\Generated_Source\PSoC4/CyLFClk.c ****                 /* Wait for changes to come into effect */
 695:.\Generated_Source\PSoC4/CyLFClk.c ****             }
 696:.\Generated_Source\PSoC4/CyLFClk.c ****         }
 697:.\Generated_Source\PSoC4/CyLFClk.c **** 
 698:.\Generated_Source\PSoC4/CyLFClk.c ****         if(0u != (counterMask & CY_SYS_WDT_COUNTER2_MASK))
 710              		.loc 1 698 0 is_stmt 1
 711 0042 7A68     		ldr	r2, [r7, #4]
 712 0044 8023     		mov	r3, #128
 713 0046 5B02     		lsl	r3, r3, #9
 714 0048 1340     		and	r3, r2
 715 004a 05D0     		beq	.L56
 699:.\Generated_Source\PSoC4/CyLFClk.c ****         {
 700:.\Generated_Source\PSoC4/CyLFClk.c ****             while (0u == CySysWdtGetEnabledStatus(CY_SYS_WDT_COUNTER2))
 716              		.loc 1 700 0
 717 004c C046     		mov	r8, r8
 718              	.L62:
 719              		.loc 1 700 0 is_stmt 0 discriminator 1
 720 004e 0220     		mov	r0, #2
ARM GAS  C:\Users\LUKASC~1\AppData\Local\Temp\ccSv4rUt.s 			page 26


 721 0050 FFF7FEFF 		bl	CySysWdtGetEnabledStatus
 722 0054 031E     		sub	r3, r0, #0
 723 0056 FAD0     		beq	.L62
 724              	.L56:
 701:.\Generated_Source\PSoC4/CyLFClk.c ****             {
 702:.\Generated_Source\PSoC4/CyLFClk.c ****                 /* Wait for changes to come into effect */
 703:.\Generated_Source\PSoC4/CyLFClk.c ****             }
 704:.\Generated_Source\PSoC4/CyLFClk.c ****         }
 705:.\Generated_Source\PSoC4/CyLFClk.c ****     }
 725              		.loc 1 705 0 is_stmt 1
 726 0058 BD46     		mov	sp, r7
 727 005a 02B0     		add	sp, sp, #8
 728              		@ sp needed
 729 005c 80BD     		pop	{r7, pc}
 730              	.L64:
 731 005e C046     		.align	2
 732              	.L63:
 733 0060 10020B40 		.word	1074463248
 734              		.cfi_endproc
 735              	.LFE11:
 736              		.size	CySysWdtEnable, .-CySysWdtEnable
 737              		.section	.text.CySysWdtDisable,"ax",%progbits
 738              		.align	2
 739              		.global	CySysWdtDisable
 740              		.code	16
 741              		.thumb_func
 742              		.type	CySysWdtDisable, %function
 743              	CySysWdtDisable:
 744              	.LFB12:
 706:.\Generated_Source\PSoC4/CyLFClk.c **** 
 707:.\Generated_Source\PSoC4/CyLFClk.c **** 
 708:.\Generated_Source\PSoC4/CyLFClk.c ****     /*******************************************************************************
 709:.\Generated_Source\PSoC4/CyLFClk.c ****     * Function Name: CySysWdtDisable
 710:.\Generated_Source\PSoC4/CyLFClk.c ****     ********************************************************************************
 711:.\Generated_Source\PSoC4/CyLFClk.c ****     *
 712:.\Generated_Source\PSoC4/CyLFClk.c ****     * Summary:
 713:.\Generated_Source\PSoC4/CyLFClk.c ****     *  Disables the specified WDT counters. All the counters specified in the mask
 714:.\Generated_Source\PSoC4/CyLFClk.c ****     *  are disabled. The function waits for the changes to come into effect.
 715:.\Generated_Source\PSoC4/CyLFClk.c ****     *
 716:.\Generated_Source\PSoC4/CyLFClk.c ****     * Parameters:
 717:.\Generated_Source\PSoC4/CyLFClk.c ****     *  uint32 counterMask: The mask of all counters to disable
 718:.\Generated_Source\PSoC4/CyLFClk.c ****     *    Define                       Counter
 719:.\Generated_Source\PSoC4/CyLFClk.c ****     *   CY_SYS_WDT_COUNTER0_MASK      0
 720:.\Generated_Source\PSoC4/CyLFClk.c ****     *   CY_SYS_WDT_COUNTER1_MASK      1
 721:.\Generated_Source\PSoC4/CyLFClk.c ****     *   CY_SYS_WDT_COUNTER2_MASK      2
 722:.\Generated_Source\PSoC4/CyLFClk.c ****     *
 723:.\Generated_Source\PSoC4/CyLFClk.c ****     * Return:
 724:.\Generated_Source\PSoC4/CyLFClk.c ****     *   None.
 725:.\Generated_Source\PSoC4/CyLFClk.c ****     *
 726:.\Generated_Source\PSoC4/CyLFClk.c ****     *******************************************************************************/
 727:.\Generated_Source\PSoC4/CyLFClk.c ****     void CySysWdtDisable(uint32 counterMask)
 728:.\Generated_Source\PSoC4/CyLFClk.c ****     {
 745              		.loc 1 728 0
 746              		.cfi_startproc
 747 0000 80B5     		push	{r7, lr}
 748              		.cfi_def_cfa_offset 8
 749              		.cfi_offset 7, -8
ARM GAS  C:\Users\LUKASC~1\AppData\Local\Temp\ccSv4rUt.s 			page 27


 750              		.cfi_offset 14, -4
 751 0002 82B0     		sub	sp, sp, #8
 752              		.cfi_def_cfa_offset 16
 753 0004 00AF     		add	r7, sp, #0
 754              		.cfi_def_cfa_register 7
 755 0006 7860     		str	r0, [r7, #4]
 729:.\Generated_Source\PSoC4/CyLFClk.c ****         if (0uL == CySysWdtLocked())
 756              		.loc 1 729 0
 757 0008 FFF7FEFF 		bl	CySysWdtLocked
 758 000c 031E     		sub	r3, r0, #0
 759 000e 26D1     		bne	.L65
 730:.\Generated_Source\PSoC4/CyLFClk.c ****         {
 731:.\Generated_Source\PSoC4/CyLFClk.c ****             CY_SYS_WDT_CONTROL_REG &= ~counterMask;
 760              		.loc 1 731 0
 761 0010 144B     		ldr	r3, .L72
 762 0012 144A     		ldr	r2, .L72
 763 0014 1268     		ldr	r2, [r2]
 764 0016 7968     		ldr	r1, [r7, #4]
 765 0018 C943     		mvn	r1, r1
 766 001a 0A40     		and	r2, r1
 767 001c 1A60     		str	r2, [r3]
 732:.\Generated_Source\PSoC4/CyLFClk.c **** 
 733:.\Generated_Source\PSoC4/CyLFClk.c ****             if(0u != (counterMask & CY_SYS_WDT_COUNTER0_MASK))
 768              		.loc 1 733 0
 769 001e 7B68     		ldr	r3, [r7, #4]
 770 0020 0122     		mov	r2, #1
 771 0022 1340     		and	r3, r2
 772 0024 05D0     		beq	.L67
 734:.\Generated_Source\PSoC4/CyLFClk.c ****             {
 735:.\Generated_Source\PSoC4/CyLFClk.c ****                 while (0u != CySysWdtGetEnabledStatus(CY_SYS_WDT_COUNTER0))
 773              		.loc 1 735 0
 774 0026 C046     		mov	r8, r8
 775              	.L68:
 776              		.loc 1 735 0 is_stmt 0 discriminator 1
 777 0028 0020     		mov	r0, #0
 778 002a FFF7FEFF 		bl	CySysWdtGetEnabledStatus
 779 002e 031E     		sub	r3, r0, #0
 780 0030 FAD1     		bne	.L68
 781              	.L67:
 736:.\Generated_Source\PSoC4/CyLFClk.c ****                 {
 737:.\Generated_Source\PSoC4/CyLFClk.c ****                     /* Wait for changes to come into effect */
 738:.\Generated_Source\PSoC4/CyLFClk.c ****                 }
 739:.\Generated_Source\PSoC4/CyLFClk.c ****             }
 740:.\Generated_Source\PSoC4/CyLFClk.c **** 
 741:.\Generated_Source\PSoC4/CyLFClk.c ****             if(0u != (counterMask & CY_SYS_WDT_COUNTER1_MASK))
 782              		.loc 1 741 0 is_stmt 1
 783 0032 7A68     		ldr	r2, [r7, #4]
 784 0034 8023     		mov	r3, #128
 785 0036 5B00     		lsl	r3, r3, #1
 786 0038 1340     		and	r3, r2
 787 003a 05D0     		beq	.L69
 742:.\Generated_Source\PSoC4/CyLFClk.c ****             {
 743:.\Generated_Source\PSoC4/CyLFClk.c ****                 while (0u != CySysWdtGetEnabledStatus(CY_SYS_WDT_COUNTER1))
 788              		.loc 1 743 0
 789 003c C046     		mov	r8, r8
 790              	.L70:
 791              		.loc 1 743 0 is_stmt 0 discriminator 1
ARM GAS  C:\Users\LUKASC~1\AppData\Local\Temp\ccSv4rUt.s 			page 28


 792 003e 0120     		mov	r0, #1
 793 0040 FFF7FEFF 		bl	CySysWdtGetEnabledStatus
 794 0044 031E     		sub	r3, r0, #0
 795 0046 FAD1     		bne	.L70
 796              	.L69:
 744:.\Generated_Source\PSoC4/CyLFClk.c ****                 {
 745:.\Generated_Source\PSoC4/CyLFClk.c ****                     /* Wait for changes to come into effect */
 746:.\Generated_Source\PSoC4/CyLFClk.c ****                 }
 747:.\Generated_Source\PSoC4/CyLFClk.c ****             }
 748:.\Generated_Source\PSoC4/CyLFClk.c **** 
 749:.\Generated_Source\PSoC4/CyLFClk.c ****             if(0u != (counterMask & CY_SYS_WDT_COUNTER2_MASK))
 797              		.loc 1 749 0 is_stmt 1
 798 0048 7A68     		ldr	r2, [r7, #4]
 799 004a 8023     		mov	r3, #128
 800 004c 5B02     		lsl	r3, r3, #9
 801 004e 1340     		and	r3, r2
 802 0050 05D0     		beq	.L65
 750:.\Generated_Source\PSoC4/CyLFClk.c ****             {
 751:.\Generated_Source\PSoC4/CyLFClk.c ****                 while (0u != CySysWdtGetEnabledStatus(CY_SYS_WDT_COUNTER2))
 803              		.loc 1 751 0
 804 0052 C046     		mov	r8, r8
 805              	.L71:
 806              		.loc 1 751 0 is_stmt 0 discriminator 1
 807 0054 0220     		mov	r0, #2
 808 0056 FFF7FEFF 		bl	CySysWdtGetEnabledStatus
 809 005a 031E     		sub	r3, r0, #0
 810 005c FAD1     		bne	.L71
 811              	.L65:
 752:.\Generated_Source\PSoC4/CyLFClk.c ****                 {
 753:.\Generated_Source\PSoC4/CyLFClk.c ****                     /* Wait for changes to come into effect */
 754:.\Generated_Source\PSoC4/CyLFClk.c ****                 }
 755:.\Generated_Source\PSoC4/CyLFClk.c ****             }
 756:.\Generated_Source\PSoC4/CyLFClk.c ****         }
 757:.\Generated_Source\PSoC4/CyLFClk.c ****     }
 812              		.loc 1 757 0 is_stmt 1
 813 005e BD46     		mov	sp, r7
 814 0060 02B0     		add	sp, sp, #8
 815              		@ sp needed
 816 0062 80BD     		pop	{r7, pc}
 817              	.L73:
 818              		.align	2
 819              	.L72:
 820 0064 10020B40 		.word	1074463248
 821              		.cfi_endproc
 822              	.LFE12:
 823              		.size	CySysWdtDisable, .-CySysWdtDisable
 824              		.section	.text.CySysWdtSetCascade,"ax",%progbits
 825              		.align	2
 826              		.global	CySysWdtSetCascade
 827              		.code	16
 828              		.thumb_func
 829              		.type	CySysWdtSetCascade, %function
 830              	CySysWdtSetCascade:
 831              	.LFB13:
 758:.\Generated_Source\PSoC4/CyLFClk.c **** 
 759:.\Generated_Source\PSoC4/CyLFClk.c **** 
 760:.\Generated_Source\PSoC4/CyLFClk.c ****     /*******************************************************************************
ARM GAS  C:\Users\LUKASC~1\AppData\Local\Temp\ccSv4rUt.s 			page 29


 761:.\Generated_Source\PSoC4/CyLFClk.c ****     * Function Name: CySysWdtSetCascade
 762:.\Generated_Source\PSoC4/CyLFClk.c ****     ********************************************************************************
 763:.\Generated_Source\PSoC4/CyLFClk.c ****     *
 764:.\Generated_Source\PSoC4/CyLFClk.c ****     * Summary:
 765:.\Generated_Source\PSoC4/CyLFClk.c ****     *   Writes the two WDT cascade values based on the combination of mask values
 766:.\Generated_Source\PSoC4/CyLFClk.c ****     *   specified.
 767:.\Generated_Source\PSoC4/CyLFClk.c ****     *
 768:.\Generated_Source\PSoC4/CyLFClk.c ****     * Parameters:
 769:.\Generated_Source\PSoC4/CyLFClk.c ****     *   cascadeMask: The mask value used to set or clear the cascade values.
 770:.\Generated_Source\PSoC4/CyLFClk.c ****     *   Define                     Cascade
 771:.\Generated_Source\PSoC4/CyLFClk.c ****     *   CY_SYS_WDT_CASCADE_NONE    Neither
 772:.\Generated_Source\PSoC4/CyLFClk.c ****     *   CY_SYS_WDT_CASCADE_01      Cascade 01
 773:.\Generated_Source\PSoC4/CyLFClk.c ****     *   CY_SYS_WDT_CASCADE_12      Cascade 12
 774:.\Generated_Source\PSoC4/CyLFClk.c ****     *
 775:.\Generated_Source\PSoC4/CyLFClk.c ****     *   To set both cascade modes, two defines should be ORed:
 776:.\Generated_Source\PSoC4/CyLFClk.c ****     *   (CY_SYS_WDT_CASCADE_01 | CY_SYS_WDT_CASCADE_12)
 777:.\Generated_Source\PSoC4/CyLFClk.c ****     *
 778:.\Generated_Source\PSoC4/CyLFClk.c ****     * Return:
 779:.\Generated_Source\PSoC4/CyLFClk.c ****     *   None.
 780:.\Generated_Source\PSoC4/CyLFClk.c ****     *
 781:.\Generated_Source\PSoC4/CyLFClk.c ****     * Side effects:
 782:.\Generated_Source\PSoC4/CyLFClk.c ****     *   If only one cascade mask is specified, the second cascade is disabled.
 783:.\Generated_Source\PSoC4/CyLFClk.c ****     *   To set both cascade modes, two defines should be ORed:
 784:.\Generated_Source\PSoC4/CyLFClk.c ****     *    (CY_SYS_WDT_CASCADE_01 | CY_SYS_WDT_CASCADE_12).
 785:.\Generated_Source\PSoC4/CyLFClk.c ****     *
 786:.\Generated_Source\PSoC4/CyLFClk.c ****     *   WDT counters that are part of the specified cascade should be disabled.
 787:.\Generated_Source\PSoC4/CyLFClk.c ****     *   Otherwise this function call has no effect. If the specified
 788:.\Generated_Source\PSoC4/CyLFClk.c ****     *   counter is enabled, call CySysWdtDisable() function with the corresponding
 789:.\Generated_Source\PSoC4/CyLFClk.c ****     *   parameter to disable the specified counter and wait for it to stop. This may
 790:.\Generated_Source\PSoC4/CyLFClk.c ****     *   take up to 3 LFCLK cycles.
 791:.\Generated_Source\PSoC4/CyLFClk.c ****     *
 792:.\Generated_Source\PSoC4/CyLFClk.c ****     *******************************************************************************/
 793:.\Generated_Source\PSoC4/CyLFClk.c ****     void CySysWdtSetCascade(uint32 cascadeMask)
 794:.\Generated_Source\PSoC4/CyLFClk.c ****     {
 832              		.loc 1 794 0
 833              		.cfi_startproc
 834 0000 90B5     		push	{r4, r7, lr}
 835              		.cfi_def_cfa_offset 12
 836              		.cfi_offset 4, -12
 837              		.cfi_offset 7, -8
 838              		.cfi_offset 14, -4
 839 0002 85B0     		sub	sp, sp, #20
 840              		.cfi_def_cfa_offset 32
 841 0004 00AF     		add	r7, sp, #0
 842              		.cfi_def_cfa_register 7
 843 0006 7860     		str	r0, [r7, #4]
 795:.\Generated_Source\PSoC4/CyLFClk.c ****         uint32 configRegValue;
 796:.\Generated_Source\PSoC4/CyLFClk.c ****         uint32 countersEnableStatus;
 797:.\Generated_Source\PSoC4/CyLFClk.c **** 
 798:.\Generated_Source\PSoC4/CyLFClk.c ****         countersEnableStatus = CySysWdtGetEnabledStatus(CY_SYS_WDT_COUNTER0) |
 844              		.loc 1 798 0
 845 0008 0020     		mov	r0, #0
 846 000a FFF7FEFF 		bl	CySysWdtGetEnabledStatus
 847 000e 041C     		mov	r4, r0
 799:.\Generated_Source\PSoC4/CyLFClk.c ****                             CySysWdtGetEnabledStatus(CY_SYS_WDT_COUNTER1) |
 848              		.loc 1 799 0
 849 0010 0120     		mov	r0, #1
ARM GAS  C:\Users\LUKASC~1\AppData\Local\Temp\ccSv4rUt.s 			page 30


 850 0012 FFF7FEFF 		bl	CySysWdtGetEnabledStatus
 851 0016 031C     		mov	r3, r0
 798:.\Generated_Source\PSoC4/CyLFClk.c ****                             CySysWdtGetEnabledStatus(CY_SYS_WDT_COUNTER1) |
 852              		.loc 1 798 0
 853 0018 1C43     		orr	r4, r3
 800:.\Generated_Source\PSoC4/CyLFClk.c ****                             CySysWdtGetEnabledStatus(CY_SYS_WDT_COUNTER2);
 854              		.loc 1 800 0
 855 001a 0220     		mov	r0, #2
 856 001c FFF7FEFF 		bl	CySysWdtGetEnabledStatus
 857 0020 031C     		mov	r3, r0
 798:.\Generated_Source\PSoC4/CyLFClk.c ****                             CySysWdtGetEnabledStatus(CY_SYS_WDT_COUNTER1) |
 858              		.loc 1 798 0
 859 0022 2343     		orr	r3, r4
 860 0024 FB60     		str	r3, [r7, #12]
 801:.\Generated_Source\PSoC4/CyLFClk.c **** 
 802:.\Generated_Source\PSoC4/CyLFClk.c ****         if (0u == countersEnableStatus)
 861              		.loc 1 802 0
 862 0026 FB68     		ldr	r3, [r7, #12]
 863 0028 002B     		cmp	r3, #0
 864 002a 0DD1     		bne	.L74
 803:.\Generated_Source\PSoC4/CyLFClk.c ****         {
 804:.\Generated_Source\PSoC4/CyLFClk.c ****             configRegValue = CY_SYS_WDT_CONFIG_REG;
 865              		.loc 1 804 0
 866 002c 084B     		ldr	r3, .L76
 867 002e 1B68     		ldr	r3, [r3]
 868 0030 BB60     		str	r3, [r7, #8]
 805:.\Generated_Source\PSoC4/CyLFClk.c ****             configRegValue &= ((uint32)(~(CY_SYS_WDT_CASCADE_01|CY_SYS_WDT_CASCADE_12)));
 869              		.loc 1 805 0
 870 0032 BB68     		ldr	r3, [r7, #8]
 871 0034 074A     		ldr	r2, .L76+4
 872 0036 1340     		and	r3, r2
 873 0038 BB60     		str	r3, [r7, #8]
 806:.\Generated_Source\PSoC4/CyLFClk.c ****             configRegValue |= cascadeMask;
 874              		.loc 1 806 0
 875 003a BA68     		ldr	r2, [r7, #8]
 876 003c 7B68     		ldr	r3, [r7, #4]
 877 003e 1343     		orr	r3, r2
 878 0040 BB60     		str	r3, [r7, #8]
 807:.\Generated_Source\PSoC4/CyLFClk.c ****             CY_SYS_WDT_CONFIG_REG = configRegValue;
 879              		.loc 1 807 0
 880 0042 034B     		ldr	r3, .L76
 881 0044 BA68     		ldr	r2, [r7, #8]
 882 0046 1A60     		str	r2, [r3]
 883              	.L74:
 808:.\Generated_Source\PSoC4/CyLFClk.c ****         }
 809:.\Generated_Source\PSoC4/CyLFClk.c ****     }
 884              		.loc 1 809 0
 885 0048 BD46     		mov	sp, r7
 886 004a 05B0     		add	sp, sp, #20
 887              		@ sp needed
 888 004c 90BD     		pop	{r4, r7, pc}
 889              	.L77:
 890 004e C046     		.align	2
 891              	.L76:
 892 0050 0C020B40 		.word	1074463244
 893 0054 F7F7FFFF 		.word	-2057
 894              		.cfi_endproc
ARM GAS  C:\Users\LUKASC~1\AppData\Local\Temp\ccSv4rUt.s 			page 31


 895              	.LFE13:
 896              		.size	CySysWdtSetCascade, .-CySysWdtSetCascade
 897              		.section	.text.CySysWdtGetCascade,"ax",%progbits
 898              		.align	2
 899              		.global	CySysWdtGetCascade
 900              		.code	16
 901              		.thumb_func
 902              		.type	CySysWdtGetCascade, %function
 903              	CySysWdtGetCascade:
 904              	.LFB14:
 810:.\Generated_Source\PSoC4/CyLFClk.c **** 
 811:.\Generated_Source\PSoC4/CyLFClk.c **** 
 812:.\Generated_Source\PSoC4/CyLFClk.c ****     /*******************************************************************************
 813:.\Generated_Source\PSoC4/CyLFClk.c ****     * Function Name: CySysWdtGetCascade
 814:.\Generated_Source\PSoC4/CyLFClk.c ****     ********************************************************************************
 815:.\Generated_Source\PSoC4/CyLFClk.c ****     *
 816:.\Generated_Source\PSoC4/CyLFClk.c ****     * Summary:
 817:.\Generated_Source\PSoC4/CyLFClk.c ****     *   Reads the two WDT cascade values returning a mask of the bits set.
 818:.\Generated_Source\PSoC4/CyLFClk.c ****     *
 819:.\Generated_Source\PSoC4/CyLFClk.c ****     * Parameters:
 820:.\Generated_Source\PSoC4/CyLFClk.c ****     *   None.
 821:.\Generated_Source\PSoC4/CyLFClk.c ****     *
 822:.\Generated_Source\PSoC4/CyLFClk.c ****     * Return:
 823:.\Generated_Source\PSoC4/CyLFClk.c ****     *   The mask of the cascade values set.
 824:.\Generated_Source\PSoC4/CyLFClk.c ****     *   Define                     Cascade
 825:.\Generated_Source\PSoC4/CyLFClk.c ****     *   CY_SYS_WDT_CASCADE_NONE    Neither
 826:.\Generated_Source\PSoC4/CyLFClk.c ****     *   CY_SYS_WDT_CASCADE_01      Cascade 01
 827:.\Generated_Source\PSoC4/CyLFClk.c ****     *   CY_SYS_WDT_CASCADE_12      Cascade 12
 828:.\Generated_Source\PSoC4/CyLFClk.c ****     *
 829:.\Generated_Source\PSoC4/CyLFClk.c ****     *******************************************************************************/
 830:.\Generated_Source\PSoC4/CyLFClk.c ****     uint32 CySysWdtGetCascade(void)
 831:.\Generated_Source\PSoC4/CyLFClk.c ****     {
 905              		.loc 1 831 0
 906              		.cfi_startproc
 907 0000 80B5     		push	{r7, lr}
 908              		.cfi_def_cfa_offset 8
 909              		.cfi_offset 7, -8
 910              		.cfi_offset 14, -4
 911 0002 00AF     		add	r7, sp, #0
 912              		.cfi_def_cfa_register 7
 832:.\Generated_Source\PSoC4/CyLFClk.c ****         return (CY_SYS_WDT_CONFIG_REG & (CY_SYS_WDT_CASCADE_01 | CY_SYS_WDT_CASCADE_12));
 913              		.loc 1 832 0
 914 0004 034B     		ldr	r3, .L80
 915 0006 1B68     		ldr	r3, [r3]
 916 0008 034A     		ldr	r2, .L80+4
 917 000a 1340     		and	r3, r2
 833:.\Generated_Source\PSoC4/CyLFClk.c ****     }
 918              		.loc 1 833 0
 919 000c 181C     		mov	r0, r3
 920 000e BD46     		mov	sp, r7
 921              		@ sp needed
 922 0010 80BD     		pop	{r7, pc}
 923              	.L81:
 924 0012 C046     		.align	2
 925              	.L80:
 926 0014 0C020B40 		.word	1074463244
 927 0018 08080000 		.word	2056
ARM GAS  C:\Users\LUKASC~1\AppData\Local\Temp\ccSv4rUt.s 			page 32


 928              		.cfi_endproc
 929              	.LFE14:
 930              		.size	CySysWdtGetCascade, .-CySysWdtGetCascade
 931              		.section	.text.CySysWdtSetMatch,"ax",%progbits
 932              		.align	2
 933              		.global	CySysWdtSetMatch
 934              		.code	16
 935              		.thumb_func
 936              		.type	CySysWdtSetMatch, %function
 937              	CySysWdtSetMatch:
 938              	.LFB15:
 834:.\Generated_Source\PSoC4/CyLFClk.c **** 
 835:.\Generated_Source\PSoC4/CyLFClk.c **** 
 836:.\Generated_Source\PSoC4/CyLFClk.c ****     /*******************************************************************************
 837:.\Generated_Source\PSoC4/CyLFClk.c ****     * Function Name: CySysWdtSetMatch
 838:.\Generated_Source\PSoC4/CyLFClk.c ****     ********************************************************************************
 839:.\Generated_Source\PSoC4/CyLFClk.c ****     *
 840:.\Generated_Source\PSoC4/CyLFClk.c ****     * Summary:
 841:.\Generated_Source\PSoC4/CyLFClk.c ****     *  Configures the WDT counter match comparison value.
 842:.\Generated_Source\PSoC4/CyLFClk.c ****     *
 843:.\Generated_Source\PSoC4/CyLFClk.c ****     * Parameters:
 844:.\Generated_Source\PSoC4/CyLFClk.c ****     *  counterNum:
 845:.\Generated_Source\PSoC4/CyLFClk.c ****     *   Valid range [0-1]. The number of the WDT counter. The match values are not
 846:.\Generated_Source\PSoC4/CyLFClk.c ****     *   supported by counter 2.
 847:.\Generated_Source\PSoC4/CyLFClk.c ****     *
 848:.\Generated_Source\PSoC4/CyLFClk.c ****     *  match:
 849:.\Generated_Source\PSoC4/CyLFClk.c ****     *   Valid range [0-65535]. The value to be used to match against the counter.
 850:.\Generated_Source\PSoC4/CyLFClk.c ****     *
 851:.\Generated_Source\PSoC4/CyLFClk.c ****     * Return:
 852:.\Generated_Source\PSoC4/CyLFClk.c ****     *   None.
 853:.\Generated_Source\PSoC4/CyLFClk.c ****     *
 854:.\Generated_Source\PSoC4/CyLFClk.c ****     *******************************************************************************/
 855:.\Generated_Source\PSoC4/CyLFClk.c ****     void CySysWdtSetMatch(uint32 counterNum, uint32 match)
 856:.\Generated_Source\PSoC4/CyLFClk.c ****     {
 939              		.loc 1 856 0
 940              		.cfi_startproc
 941 0000 80B5     		push	{r7, lr}
 942              		.cfi_def_cfa_offset 8
 943              		.cfi_offset 7, -8
 944              		.cfi_offset 14, -4
 945 0002 84B0     		sub	sp, sp, #16
 946              		.cfi_def_cfa_offset 24
 947 0004 00AF     		add	r7, sp, #0
 948              		.cfi_def_cfa_register 7
 949 0006 7860     		str	r0, [r7, #4]
 950 0008 3960     		str	r1, [r7]
 857:.\Generated_Source\PSoC4/CyLFClk.c ****         uint32 regValue;
 858:.\Generated_Source\PSoC4/CyLFClk.c **** 
 859:.\Generated_Source\PSoC4/CyLFClk.c ****         CYASSERT((counterNum == CY_SYS_WDT_COUNTER0) ||
 951              		.loc 1 859 0
 952 000a 7B68     		ldr	r3, [r7, #4]
 953 000c 002B     		cmp	r3, #0
 954 000e 02D0     		beq	.L83
 955              		.loc 1 859 0 is_stmt 0 discriminator 2
 956 0010 7B68     		ldr	r3, [r7, #4]
 957 0012 012B     		cmp	r3, #1
 958 0014 01D1     		bne	.L84
ARM GAS  C:\Users\LUKASC~1\AppData\Local\Temp\ccSv4rUt.s 			page 33


 959              	.L83:
 960              		.loc 1 859 0 discriminator 3
 961 0016 0123     		mov	r3, #1
 962 0018 00E0     		b	.L85
 963              	.L84:
 964              		.loc 1 859 0 discriminator 4
 965 001a 0023     		mov	r3, #0
 966              	.L85:
 967              		.loc 1 859 0 discriminator 6
 968 001c 002B     		cmp	r3, #0
 969 001e 02D1     		bne	.L86
 970              		.loc 1 859 0 discriminator 7
 971 0020 0020     		mov	r0, #0
 972 0022 FFF7FEFF 		bl	CyHalt
 973              	.L86:
 860:.\Generated_Source\PSoC4/CyLFClk.c ****                  (counterNum == CY_SYS_WDT_COUNTER1));
 861:.\Generated_Source\PSoC4/CyLFClk.c **** 
 862:.\Generated_Source\PSoC4/CyLFClk.c ****         /* Wait for previous changes to come into effect */
 863:.\Generated_Source\PSoC4/CyLFClk.c ****         CyDelayUs(CY_SYS_WDT_3LFCLK_DELAY_US);
 974              		.loc 1 863 0 is_stmt 1
 975 0026 C920     		mov	r0, #201
 976 0028 FFF7FEFF 		bl	CyDelayUs
 864:.\Generated_Source\PSoC4/CyLFClk.c **** 
 865:.\Generated_Source\PSoC4/CyLFClk.c ****         regValue = CY_SYS_WDT_MATCH_REG;
 977              		.loc 1 865 0
 978 002c 0D4B     		ldr	r3, .L87
 979 002e 1B68     		ldr	r3, [r3]
 980 0030 FB60     		str	r3, [r7, #12]
 866:.\Generated_Source\PSoC4/CyLFClk.c ****         regValue &= (uint32)~((uint32)(CY_SYS_WDT_LOWER_16BITS_MASK << (counterNum * CY_SYS_WDT_CNT
 981              		.loc 1 866 0
 982 0032 7B68     		ldr	r3, [r7, #4]
 983 0034 1B01     		lsl	r3, r3, #4
 984 0036 1A1C     		mov	r2, r3
 985 0038 0B4B     		ldr	r3, .L87+4
 986 003a 9340     		lsl	r3, r3, r2
 987 003c DA43     		mvn	r2, r3
 988 003e FB68     		ldr	r3, [r7, #12]
 989 0040 1340     		and	r3, r2
 990 0042 FB60     		str	r3, [r7, #12]
 867:.\Generated_Source\PSoC4/CyLFClk.c ****         CY_SYS_WDT_MATCH_REG = (regValue | (match << (counterNum * CY_SYS_WDT_CNT_MATCH_SHIFT)));
 991              		.loc 1 867 0
 992 0044 074B     		ldr	r3, .L87
 993 0046 7A68     		ldr	r2, [r7, #4]
 994 0048 1201     		lsl	r2, r2, #4
 995 004a 111C     		mov	r1, r2
 996 004c 3A68     		ldr	r2, [r7]
 997 004e 8A40     		lsl	r2, r2, r1
 998 0050 111C     		mov	r1, r2
 999 0052 FA68     		ldr	r2, [r7, #12]
 1000 0054 0A43     		orr	r2, r1
 1001 0056 1A60     		str	r2, [r3]
 868:.\Generated_Source\PSoC4/CyLFClk.c **** 
 869:.\Generated_Source\PSoC4/CyLFClk.c ****         /* Make sure match synchronization has started */
 870:.\Generated_Source\PSoC4/CyLFClk.c ****         CyDelayUs(CY_SYS_WDT_1LFCLK_DELAY_US);
 1002              		.loc 1 870 0
 1003 0058 4320     		mov	r0, #67
 1004 005a FFF7FEFF 		bl	CyDelayUs
ARM GAS  C:\Users\LUKASC~1\AppData\Local\Temp\ccSv4rUt.s 			page 34


 871:.\Generated_Source\PSoC4/CyLFClk.c ****     }
 1005              		.loc 1 871 0
 1006 005e BD46     		mov	sp, r7
 1007 0060 04B0     		add	sp, sp, #16
 1008              		@ sp needed
 1009 0062 80BD     		pop	{r7, pc}
 1010              	.L88:
 1011              		.align	2
 1012              	.L87:
 1013 0064 08020B40 		.word	1074463240
 1014 0068 FFFF0000 		.word	65535
 1015              		.cfi_endproc
 1016              	.LFE15:
 1017              		.size	CySysWdtSetMatch, .-CySysWdtSetMatch
 1018              		.section	.text.CySysWdtSetToggleBit,"ax",%progbits
 1019              		.align	2
 1020              		.global	CySysWdtSetToggleBit
 1021              		.code	16
 1022              		.thumb_func
 1023              		.type	CySysWdtSetToggleBit, %function
 1024              	CySysWdtSetToggleBit:
 1025              	.LFB16:
 872:.\Generated_Source\PSoC4/CyLFClk.c **** 
 873:.\Generated_Source\PSoC4/CyLFClk.c **** 
 874:.\Generated_Source\PSoC4/CyLFClk.c ****     /*******************************************************************************
 875:.\Generated_Source\PSoC4/CyLFClk.c ****     * Function Name: CySysWdtSetToggleBit
 876:.\Generated_Source\PSoC4/CyLFClk.c ****     ********************************************************************************
 877:.\Generated_Source\PSoC4/CyLFClk.c ****     *
 878:.\Generated_Source\PSoC4/CyLFClk.c ****     * Summary:
 879:.\Generated_Source\PSoC4/CyLFClk.c ****     *  Configures which bit in WDT counter 2 to monitor for a toggle. When that
 880:.\Generated_Source\PSoC4/CyLFClk.c ****     *  bit toggles, an interrupt is generated if the mode for counter 2 has
 881:.\Generated_Source\PSoC4/CyLFClk.c ****     *  enabled interrupts.
 882:.\Generated_Source\PSoC4/CyLFClk.c ****     *
 883:.\Generated_Source\PSoC4/CyLFClk.c ****     * Parameters:
 884:.\Generated_Source\PSoC4/CyLFClk.c ****     *  bit:
 885:.\Generated_Source\PSoC4/CyLFClk.c ****     *   Valid range [0-31].  Counter 2 bit to monitor for a toggle.
 886:.\Generated_Source\PSoC4/CyLFClk.c ****     *
 887:.\Generated_Source\PSoC4/CyLFClk.c ****     * Return:
 888:.\Generated_Source\PSoC4/CyLFClk.c ****     *   None.
 889:.\Generated_Source\PSoC4/CyLFClk.c ****     *
 890:.\Generated_Source\PSoC4/CyLFClk.c ****     * Side effects:
 891:.\Generated_Source\PSoC4/CyLFClk.c ****     *   WDT Counter 2 should be disabled. Otherwise this function call has no
 892:.\Generated_Source\PSoC4/CyLFClk.c ****     *   effect.
 893:.\Generated_Source\PSoC4/CyLFClk.c ****     *
 894:.\Generated_Source\PSoC4/CyLFClk.c ****     *   If the specified counter is enabled, call the CySysWdtDisable() function with
 895:.\Generated_Source\PSoC4/CyLFClk.c ****     *   the corresponding parameter to disable the specified counter and wait for it to
 896:.\Generated_Source\PSoC4/CyLFClk.c ****     *   stop. This may take up to 3 LFCLK cycles.
 897:.\Generated_Source\PSoC4/CyLFClk.c ****     *
 898:.\Generated_Source\PSoC4/CyLFClk.c ****     *******************************************************************************/
 899:.\Generated_Source\PSoC4/CyLFClk.c ****     void CySysWdtSetToggleBit(uint32 bits)
 900:.\Generated_Source\PSoC4/CyLFClk.c ****     {
 1026              		.loc 1 900 0
 1027              		.cfi_startproc
 1028 0000 80B5     		push	{r7, lr}
 1029              		.cfi_def_cfa_offset 8
 1030              		.cfi_offset 7, -8
 1031              		.cfi_offset 14, -4
ARM GAS  C:\Users\LUKASC~1\AppData\Local\Temp\ccSv4rUt.s 			page 35


 1032 0002 84B0     		sub	sp, sp, #16
 1033              		.cfi_def_cfa_offset 24
 1034 0004 00AF     		add	r7, sp, #0
 1035              		.cfi_def_cfa_register 7
 1036 0006 7860     		str	r0, [r7, #4]
 901:.\Generated_Source\PSoC4/CyLFClk.c ****         uint32 configRegValue;
 902:.\Generated_Source\PSoC4/CyLFClk.c **** 
 903:.\Generated_Source\PSoC4/CyLFClk.c ****         if (0u == CySysWdtGetEnabledStatus(CY_SYS_WDT_COUNTER2))
 1037              		.loc 1 903 0
 1038 0008 0220     		mov	r0, #2
 1039 000a FFF7FEFF 		bl	CySysWdtGetEnabledStatus
 1040 000e 031E     		sub	r3, r0, #0
 1041 0010 10D1     		bne	.L89
 904:.\Generated_Source\PSoC4/CyLFClk.c ****         {
 905:.\Generated_Source\PSoC4/CyLFClk.c ****             configRegValue = CY_SYS_WDT_CONFIG_REG;
 1042              		.loc 1 905 0
 1043 0012 0A4B     		ldr	r3, .L91
 1044 0014 1B68     		ldr	r3, [r3]
 1045 0016 FB60     		str	r3, [r7, #12]
 906:.\Generated_Source\PSoC4/CyLFClk.c ****             configRegValue &= (uint32)(~((uint32)(CY_SYS_WDT_CONFIG_BITS2_MASK << CY_SYS_WDT_CONFIG
 1046              		.loc 1 906 0
 1047 0018 FB68     		ldr	r3, [r7, #12]
 1048 001a 094A     		ldr	r2, .L91+4
 1049 001c 1340     		and	r3, r2
 1050 001e FB60     		str	r3, [r7, #12]
 907:.\Generated_Source\PSoC4/CyLFClk.c ****             configRegValue |= ((bits & CY_SYS_WDT_CONFIG_BITS2_MASK) << CY_SYS_WDT_CONFIG_BITS2_POS
 1051              		.loc 1 907 0
 1052 0020 7B68     		ldr	r3, [r7, #4]
 1053 0022 1F22     		mov	r2, #31
 1054 0024 1340     		and	r3, r2
 1055 0026 1B06     		lsl	r3, r3, #24
 1056 0028 FA68     		ldr	r2, [r7, #12]
 1057 002a 1343     		orr	r3, r2
 1058 002c FB60     		str	r3, [r7, #12]
 908:.\Generated_Source\PSoC4/CyLFClk.c ****             CY_SYS_WDT_CONFIG_REG = configRegValue;
 1059              		.loc 1 908 0
 1060 002e 034B     		ldr	r3, .L91
 1061 0030 FA68     		ldr	r2, [r7, #12]
 1062 0032 1A60     		str	r2, [r3]
 1063              	.L89:
 909:.\Generated_Source\PSoC4/CyLFClk.c ****         }
 910:.\Generated_Source\PSoC4/CyLFClk.c ****     }
 1064              		.loc 1 910 0
 1065 0034 BD46     		mov	sp, r7
 1066 0036 04B0     		add	sp, sp, #16
 1067              		@ sp needed
 1068 0038 80BD     		pop	{r7, pc}
 1069              	.L92:
 1070 003a C046     		.align	2
 1071              	.L91:
 1072 003c 0C020B40 		.word	1074463244
 1073 0040 FFFFFFE0 		.word	-520093697
 1074              		.cfi_endproc
 1075              	.LFE16:
 1076              		.size	CySysWdtSetToggleBit, .-CySysWdtSetToggleBit
 1077              		.section	.text.CySysWdtGetToggleBit,"ax",%progbits
 1078              		.align	2
ARM GAS  C:\Users\LUKASC~1\AppData\Local\Temp\ccSv4rUt.s 			page 36


 1079              		.global	CySysWdtGetToggleBit
 1080              		.code	16
 1081              		.thumb_func
 1082              		.type	CySysWdtGetToggleBit, %function
 1083              	CySysWdtGetToggleBit:
 1084              	.LFB17:
 911:.\Generated_Source\PSoC4/CyLFClk.c **** 
 912:.\Generated_Source\PSoC4/CyLFClk.c **** 
 913:.\Generated_Source\PSoC4/CyLFClk.c ****     /*******************************************************************************
 914:.\Generated_Source\PSoC4/CyLFClk.c ****     * Function Name: CySysWdtGetToggleBit
 915:.\Generated_Source\PSoC4/CyLFClk.c ****     ********************************************************************************
 916:.\Generated_Source\PSoC4/CyLFClk.c ****     *
 917:.\Generated_Source\PSoC4/CyLFClk.c ****     * Summary:
 918:.\Generated_Source\PSoC4/CyLFClk.c ****     *  Reads which bit in WDT counter 2 is monitored for a toggle.
 919:.\Generated_Source\PSoC4/CyLFClk.c ****     *
 920:.\Generated_Source\PSoC4/CyLFClk.c ****     * Parameters:
 921:.\Generated_Source\PSoC4/CyLFClk.c ****     *  None.
 922:.\Generated_Source\PSoC4/CyLFClk.c ****     *
 923:.\Generated_Source\PSoC4/CyLFClk.c ****     * Return:
 924:.\Generated_Source\PSoC4/CyLFClk.c ****     *  The bit that is monitored (range of 0 to 31)
 925:.\Generated_Source\PSoC4/CyLFClk.c ****     *
 926:.\Generated_Source\PSoC4/CyLFClk.c ****     *******************************************************************************/
 927:.\Generated_Source\PSoC4/CyLFClk.c ****     uint32 CySysWdtGetToggleBit(void)
 928:.\Generated_Source\PSoC4/CyLFClk.c ****     {
 1085              		.loc 1 928 0
 1086              		.cfi_startproc
 1087 0000 80B5     		push	{r7, lr}
 1088              		.cfi_def_cfa_offset 8
 1089              		.cfi_offset 7, -8
 1090              		.cfi_offset 14, -4
 1091 0002 00AF     		add	r7, sp, #0
 1092              		.cfi_def_cfa_register 7
 929:.\Generated_Source\PSoC4/CyLFClk.c ****         return ((CY_SYS_WDT_CONFIG_REG >> CY_SYS_WDT_CONFIG_BITS2_POS) & CY_SYS_WDT_CONFIG_BITS2_MA
 1093              		.loc 1 929 0
 1094 0004 034B     		ldr	r3, .L95
 1095 0006 1B68     		ldr	r3, [r3]
 1096 0008 1B0E     		lsr	r3, r3, #24
 1097 000a 1F22     		mov	r2, #31
 1098 000c 1340     		and	r3, r2
 930:.\Generated_Source\PSoC4/CyLFClk.c ****     }
 1099              		.loc 1 930 0
 1100 000e 181C     		mov	r0, r3
 1101 0010 BD46     		mov	sp, r7
 1102              		@ sp needed
 1103 0012 80BD     		pop	{r7, pc}
 1104              	.L96:
 1105              		.align	2
 1106              	.L95:
 1107 0014 0C020B40 		.word	1074463244
 1108              		.cfi_endproc
 1109              	.LFE17:
 1110              		.size	CySysWdtGetToggleBit, .-CySysWdtGetToggleBit
 1111              		.section	.text.CySysWdtGetMatch,"ax",%progbits
 1112              		.align	2
 1113              		.global	CySysWdtGetMatch
 1114              		.code	16
 1115              		.thumb_func
ARM GAS  C:\Users\LUKASC~1\AppData\Local\Temp\ccSv4rUt.s 			page 37


 1116              		.type	CySysWdtGetMatch, %function
 1117              	CySysWdtGetMatch:
 1118              	.LFB18:
 931:.\Generated_Source\PSoC4/CyLFClk.c **** 
 932:.\Generated_Source\PSoC4/CyLFClk.c **** 
 933:.\Generated_Source\PSoC4/CyLFClk.c ****     /*******************************************************************************
 934:.\Generated_Source\PSoC4/CyLFClk.c ****     * Function Name: CySysWdtGetMatch
 935:.\Generated_Source\PSoC4/CyLFClk.c ****     ********************************************************************************
 936:.\Generated_Source\PSoC4/CyLFClk.c ****     *
 937:.\Generated_Source\PSoC4/CyLFClk.c ****     * Summary:
 938:.\Generated_Source\PSoC4/CyLFClk.c ****     *  Reads the WDT counter match comparison value.
 939:.\Generated_Source\PSoC4/CyLFClk.c ****     *
 940:.\Generated_Source\PSoC4/CyLFClk.c ****     * Parameters:
 941:.\Generated_Source\PSoC4/CyLFClk.c ****     *  counterNum: Valid range [0-1].  The number of the WDT counter.  The match values
 942:.\Generated_Source\PSoC4/CyLFClk.c ****     *               are not supported by counter 2.
 943:.\Generated_Source\PSoC4/CyLFClk.c ****     *
 944:.\Generated_Source\PSoC4/CyLFClk.c ****     * Return:
 945:.\Generated_Source\PSoC4/CyLFClk.c ****     *  A 16-bit match value.
 946:.\Generated_Source\PSoC4/CyLFClk.c ****     *
 947:.\Generated_Source\PSoC4/CyLFClk.c ****     *******************************************************************************/
 948:.\Generated_Source\PSoC4/CyLFClk.c ****     uint32 CySysWdtGetMatch(uint32 counterNum)
 949:.\Generated_Source\PSoC4/CyLFClk.c ****     {
 1119              		.loc 1 949 0
 1120              		.cfi_startproc
 1121 0000 80B5     		push	{r7, lr}
 1122              		.cfi_def_cfa_offset 8
 1123              		.cfi_offset 7, -8
 1124              		.cfi_offset 14, -4
 1125 0002 82B0     		sub	sp, sp, #8
 1126              		.cfi_def_cfa_offset 16
 1127 0004 00AF     		add	r7, sp, #0
 1128              		.cfi_def_cfa_register 7
 1129 0006 7860     		str	r0, [r7, #4]
 950:.\Generated_Source\PSoC4/CyLFClk.c ****         CYASSERT((counterNum == CY_SYS_WDT_COUNTER0) ||
 1130              		.loc 1 950 0
 1131 0008 7B68     		ldr	r3, [r7, #4]
 1132 000a 002B     		cmp	r3, #0
 1133 000c 02D0     		beq	.L98
 1134              		.loc 1 950 0 is_stmt 0 discriminator 2
 1135 000e 7B68     		ldr	r3, [r7, #4]
 1136 0010 012B     		cmp	r3, #1
 1137 0012 01D1     		bne	.L99
 1138              	.L98:
 1139              		.loc 1 950 0 discriminator 3
 1140 0014 0123     		mov	r3, #1
 1141 0016 00E0     		b	.L100
 1142              	.L99:
 1143              		.loc 1 950 0 discriminator 4
 1144 0018 0023     		mov	r3, #0
 1145              	.L100:
 1146              		.loc 1 950 0 discriminator 6
 1147 001a 002B     		cmp	r3, #0
 1148 001c 02D1     		bne	.L101
 1149              		.loc 1 950 0 discriminator 7
 1150 001e 0020     		mov	r0, #0
 1151 0020 FFF7FEFF 		bl	CyHalt
 1152              	.L101:
ARM GAS  C:\Users\LUKASC~1\AppData\Local\Temp\ccSv4rUt.s 			page 38


 951:.\Generated_Source\PSoC4/CyLFClk.c ****                  (counterNum == CY_SYS_WDT_COUNTER1));
 952:.\Generated_Source\PSoC4/CyLFClk.c **** 
 953:.\Generated_Source\PSoC4/CyLFClk.c ****         return ((uint32)(CY_SYS_WDT_MATCH_REG >> (counterNum * CY_SYS_WDT_CNT_MATCH_SHIFT)) & CY_SY
 1153              		.loc 1 953 0 is_stmt 1
 1154 0024 054B     		ldr	r3, .L103
 1155 0026 1B68     		ldr	r3, [r3]
 1156 0028 7A68     		ldr	r2, [r7, #4]
 1157 002a 1201     		lsl	r2, r2, #4
 1158 002c D340     		lsr	r3, r3, r2
 1159 002e 1B04     		lsl	r3, r3, #16
 1160 0030 1B0C     		lsr	r3, r3, #16
 954:.\Generated_Source\PSoC4/CyLFClk.c ****     }
 1161              		.loc 1 954 0
 1162 0032 181C     		mov	r0, r3
 1163 0034 BD46     		mov	sp, r7
 1164 0036 02B0     		add	sp, sp, #8
 1165              		@ sp needed
 1166 0038 80BD     		pop	{r7, pc}
 1167              	.L104:
 1168 003a C046     		.align	2
 1169              	.L103:
 1170 003c 08020B40 		.word	1074463240
 1171              		.cfi_endproc
 1172              	.LFE18:
 1173              		.size	CySysWdtGetMatch, .-CySysWdtGetMatch
 1174              		.section	.text.CySysWdtGetCount,"ax",%progbits
 1175              		.align	2
 1176              		.global	CySysWdtGetCount
 1177              		.code	16
 1178              		.thumb_func
 1179              		.type	CySysWdtGetCount, %function
 1180              	CySysWdtGetCount:
 1181              	.LFB19:
 955:.\Generated_Source\PSoC4/CyLFClk.c **** 
 956:.\Generated_Source\PSoC4/CyLFClk.c **** 
 957:.\Generated_Source\PSoC4/CyLFClk.c ****     /*******************************************************************************
 958:.\Generated_Source\PSoC4/CyLFClk.c ****     * Function Name: CySysWdtGetCount
 959:.\Generated_Source\PSoC4/CyLFClk.c ****     ********************************************************************************
 960:.\Generated_Source\PSoC4/CyLFClk.c ****     *
 961:.\Generated_Source\PSoC4/CyLFClk.c ****     * Summary:
 962:.\Generated_Source\PSoC4/CyLFClk.c ****     *  Reads the current WDT counter value.
 963:.\Generated_Source\PSoC4/CyLFClk.c ****     *
 964:.\Generated_Source\PSoC4/CyLFClk.c ****     * Parameters:
 965:.\Generated_Source\PSoC4/CyLFClk.c ****     *  counterNum: Valid range [0-2].  The number of the WDT counter.
 966:.\Generated_Source\PSoC4/CyLFClk.c ****     *
 967:.\Generated_Source\PSoC4/CyLFClk.c ****     * Return:
 968:.\Generated_Source\PSoC4/CyLFClk.c ****     *  A live counter value.  Counter 0 and 1 are 16 bit counters and counter
 969:.\Generated_Source\PSoC4/CyLFClk.c ****     *  2 is a 32 bit counter.
 970:.\Generated_Source\PSoC4/CyLFClk.c ****     *
 971:.\Generated_Source\PSoC4/CyLFClk.c ****     *******************************************************************************/
 972:.\Generated_Source\PSoC4/CyLFClk.c ****     uint32 CySysWdtGetCount(uint32 counterNum)
 973:.\Generated_Source\PSoC4/CyLFClk.c ****     {
 1182              		.loc 1 973 0
 1183              		.cfi_startproc
 1184 0000 80B5     		push	{r7, lr}
 1185              		.cfi_def_cfa_offset 8
 1186              		.cfi_offset 7, -8
ARM GAS  C:\Users\LUKASC~1\AppData\Local\Temp\ccSv4rUt.s 			page 39


 1187              		.cfi_offset 14, -4
 1188 0002 84B0     		sub	sp, sp, #16
 1189              		.cfi_def_cfa_offset 24
 1190 0004 00AF     		add	r7, sp, #0
 1191              		.cfi_def_cfa_register 7
 1192 0006 7860     		str	r0, [r7, #4]
 974:.\Generated_Source\PSoC4/CyLFClk.c ****         uint32 regValue = 0u;
 1193              		.loc 1 974 0
 1194 0008 0023     		mov	r3, #0
 1195 000a FB60     		str	r3, [r7, #12]
 975:.\Generated_Source\PSoC4/CyLFClk.c **** 
 976:.\Generated_Source\PSoC4/CyLFClk.c ****         switch(counterNum)
 1196              		.loc 1 976 0
 1197 000c 7B68     		ldr	r3, [r7, #4]
 1198 000e 012B     		cmp	r3, #1
 1199 0010 09D0     		beq	.L107
 1200 0012 02D3     		bcc	.L108
 1201 0014 022B     		cmp	r3, #2
 1202 0016 0BD0     		beq	.L109
 1203 0018 0EE0     		b	.L112
 1204              	.L108:
 977:.\Generated_Source\PSoC4/CyLFClk.c ****         {
 978:.\Generated_Source\PSoC4/CyLFClk.c ****             /* WDT Counter 0 */
 979:.\Generated_Source\PSoC4/CyLFClk.c ****             case 0u:
 980:.\Generated_Source\PSoC4/CyLFClk.c ****                 regValue = CY_SYS_WDT_CTRLOW_REG & CY_SYS_WDT_LOWER_16BITS_MASK;
 1205              		.loc 1 980 0
 1206 001a 0C4B     		ldr	r3, .L113
 1207 001c 1B68     		ldr	r3, [r3]
 1208 001e 1B04     		lsl	r3, r3, #16
 1209 0020 1B0C     		lsr	r3, r3, #16
 1210 0022 FB60     		str	r3, [r7, #12]
 981:.\Generated_Source\PSoC4/CyLFClk.c ****             break;
 1211              		.loc 1 981 0
 1212 0024 0CE0     		b	.L110
 1213              	.L107:
 982:.\Generated_Source\PSoC4/CyLFClk.c **** 
 983:.\Generated_Source\PSoC4/CyLFClk.c ****             /* WDT Counter 1 */
 984:.\Generated_Source\PSoC4/CyLFClk.c ****             case 1u:
 985:.\Generated_Source\PSoC4/CyLFClk.c ****                 regValue = (CY_SYS_WDT_CTRLOW_REG >> CY_SYS_WDT_CNT_MATCH_SHIFT) & CY_SYS_WDT_LOWER
 1214              		.loc 1 985 0
 1215 0026 094B     		ldr	r3, .L113
 1216 0028 1B68     		ldr	r3, [r3]
 1217 002a 1B0C     		lsr	r3, r3, #16
 1218 002c FB60     		str	r3, [r7, #12]
 986:.\Generated_Source\PSoC4/CyLFClk.c ****             break;
 1219              		.loc 1 986 0
 1220 002e 07E0     		b	.L110
 1221              	.L109:
 987:.\Generated_Source\PSoC4/CyLFClk.c **** 
 988:.\Generated_Source\PSoC4/CyLFClk.c ****             /* WDT Counter 2 */
 989:.\Generated_Source\PSoC4/CyLFClk.c ****             case 2u:
 990:.\Generated_Source\PSoC4/CyLFClk.c ****                 regValue = CY_SYS_WDT_CTRHIGH_REG;
 1222              		.loc 1 990 0
 1223 0030 074B     		ldr	r3, .L113+4
 1224 0032 1B68     		ldr	r3, [r3]
 1225 0034 FB60     		str	r3, [r7, #12]
 991:.\Generated_Source\PSoC4/CyLFClk.c ****             break;
ARM GAS  C:\Users\LUKASC~1\AppData\Local\Temp\ccSv4rUt.s 			page 40


 1226              		.loc 1 991 0
 1227 0036 03E0     		b	.L110
 1228              	.L112:
 992:.\Generated_Source\PSoC4/CyLFClk.c **** 
 993:.\Generated_Source\PSoC4/CyLFClk.c ****             default:
 994:.\Generated_Source\PSoC4/CyLFClk.c ****                 CYASSERT(0u != 0u);
 1229              		.loc 1 994 0
 1230 0038 0020     		mov	r0, #0
 1231 003a FFF7FEFF 		bl	CyHalt
 995:.\Generated_Source\PSoC4/CyLFClk.c ****             break;
 1232              		.loc 1 995 0
 1233 003e C046     		mov	r8, r8
 1234              	.L110:
 996:.\Generated_Source\PSoC4/CyLFClk.c ****         }
 997:.\Generated_Source\PSoC4/CyLFClk.c **** 
 998:.\Generated_Source\PSoC4/CyLFClk.c ****         return (regValue);
 1235              		.loc 1 998 0
 1236 0040 FB68     		ldr	r3, [r7, #12]
 999:.\Generated_Source\PSoC4/CyLFClk.c ****     }
 1237              		.loc 1 999 0
 1238 0042 181C     		mov	r0, r3
 1239 0044 BD46     		mov	sp, r7
 1240 0046 04B0     		add	sp, sp, #16
 1241              		@ sp needed
 1242 0048 80BD     		pop	{r7, pc}
 1243              	.L114:
 1244 004a C046     		.align	2
 1245              	.L113:
 1246 004c 00020B40 		.word	1074463232
 1247 0050 04020B40 		.word	1074463236
 1248              		.cfi_endproc
 1249              	.LFE19:
 1250              		.size	CySysWdtGetCount, .-CySysWdtGetCount
 1251              		.section	.text.CySysWdtGetInterruptSource,"ax",%progbits
 1252              		.align	2
 1253              		.global	CySysWdtGetInterruptSource
 1254              		.code	16
 1255              		.thumb_func
 1256              		.type	CySysWdtGetInterruptSource, %function
 1257              	CySysWdtGetInterruptSource:
 1258              	.LFB20:
1000:.\Generated_Source\PSoC4/CyLFClk.c **** 
1001:.\Generated_Source\PSoC4/CyLFClk.c **** 
1002:.\Generated_Source\PSoC4/CyLFClk.c ****     /*******************************************************************************
1003:.\Generated_Source\PSoC4/CyLFClk.c ****     * Function Name: CySysWdtGetInterruptSource
1004:.\Generated_Source\PSoC4/CyLFClk.c ****     ********************************************************************************
1005:.\Generated_Source\PSoC4/CyLFClk.c ****     *
1006:.\Generated_Source\PSoC4/CyLFClk.c ****     * Summary:
1007:.\Generated_Source\PSoC4/CyLFClk.c ****     *   Reads a mask containing all the WDT counters interrupts that are currently
1008:.\Generated_Source\PSoC4/CyLFClk.c ****     *   set by the hardware, if a corresponding mode is selected.
1009:.\Generated_Source\PSoC4/CyLFClk.c ****     *
1010:.\Generated_Source\PSoC4/CyLFClk.c ****     * Parameters:
1011:.\Generated_Source\PSoC4/CyLFClk.c ****     *   None.
1012:.\Generated_Source\PSoC4/CyLFClk.c ****     *
1013:.\Generated_Source\PSoC4/CyLFClk.c ****     * Return:
1014:.\Generated_Source\PSoC4/CyLFClk.c ****     *   The mask of interrupts set.
1015:.\Generated_Source\PSoC4/CyLFClk.c ****     *   Define                    Counter
ARM GAS  C:\Users\LUKASC~1\AppData\Local\Temp\ccSv4rUt.s 			page 41


1016:.\Generated_Source\PSoC4/CyLFClk.c ****     *   CY_SYS_WDT_COUNTER0_INT    0
1017:.\Generated_Source\PSoC4/CyLFClk.c ****     *   CY_SYS_WDT_COUNTER1_INT    1
1018:.\Generated_Source\PSoC4/CyLFClk.c ****     *   CY_SYS_WDT_COUNTER2_INT    2
1019:.\Generated_Source\PSoC4/CyLFClk.c ****     *
1020:.\Generated_Source\PSoC4/CyLFClk.c ****     *******************************************************************************/
1021:.\Generated_Source\PSoC4/CyLFClk.c ****     uint32 CySysWdtGetInterruptSource(void)
1022:.\Generated_Source\PSoC4/CyLFClk.c ****     {
 1259              		.loc 1 1022 0
 1260              		.cfi_startproc
 1261 0000 80B5     		push	{r7, lr}
 1262              		.cfi_def_cfa_offset 8
 1263              		.cfi_offset 7, -8
 1264              		.cfi_offset 14, -4
 1265 0002 00AF     		add	r7, sp, #0
 1266              		.cfi_def_cfa_register 7
1023:.\Generated_Source\PSoC4/CyLFClk.c ****         return (CY_SYS_WDT_CONTROL_REG & (CY_SYS_WDT_COUNTER0_INT | CY_SYS_WDT_COUNTER1_INT | CY_SY
 1267              		.loc 1 1023 0
 1268 0004 034B     		ldr	r3, .L117
 1269 0006 1B68     		ldr	r3, [r3]
 1270 0008 034A     		ldr	r2, .L117+4
 1271 000a 1340     		and	r3, r2
1024:.\Generated_Source\PSoC4/CyLFClk.c ****     }
 1272              		.loc 1 1024 0
 1273 000c 181C     		mov	r0, r3
 1274 000e BD46     		mov	sp, r7
 1275              		@ sp needed
 1276 0010 80BD     		pop	{r7, pc}
 1277              	.L118:
 1278 0012 C046     		.align	2
 1279              	.L117:
 1280 0014 10020B40 		.word	1074463248
 1281 0018 04040400 		.word	263172
 1282              		.cfi_endproc
 1283              	.LFE20:
 1284              		.size	CySysWdtGetInterruptSource, .-CySysWdtGetInterruptSource
 1285              		.section	.text.CySysWdtClearInterrupt,"ax",%progbits
 1286              		.align	2
 1287              		.global	CySysWdtClearInterrupt
 1288              		.code	16
 1289              		.thumb_func
 1290              		.type	CySysWdtClearInterrupt, %function
 1291              	CySysWdtClearInterrupt:
 1292              	.LFB21:
1025:.\Generated_Source\PSoC4/CyLFClk.c **** 
1026:.\Generated_Source\PSoC4/CyLFClk.c **** 
1027:.\Generated_Source\PSoC4/CyLFClk.c ****     /*******************************************************************************
1028:.\Generated_Source\PSoC4/CyLFClk.c ****     * Function Name: CySysWdtClearInterrupt
1029:.\Generated_Source\PSoC4/CyLFClk.c ****     ********************************************************************************
1030:.\Generated_Source\PSoC4/CyLFClk.c ****     *
1031:.\Generated_Source\PSoC4/CyLFClk.c ****     * Summary:
1032:.\Generated_Source\PSoC4/CyLFClk.c ****     *   Clears all the WDT counter interrupts set in the mask. Calling this function
1033:.\Generated_Source\PSoC4/CyLFClk.c ****     *   also prevents from Reset when the counter mode is set to generate
1034:.\Generated_Source\PSoC4/CyLFClk.c ****     *   3 interrupts and then the device resets.
1035:.\Generated_Source\PSoC4/CyLFClk.c ****     *
1036:.\Generated_Source\PSoC4/CyLFClk.c ****     *   All the WDT interrupts are to be cleared by the firmware, otherwise
1037:.\Generated_Source\PSoC4/CyLFClk.c ****     *   interrupts are generated continuously.
1038:.\Generated_Source\PSoC4/CyLFClk.c ****     *
ARM GAS  C:\Users\LUKASC~1\AppData\Local\Temp\ccSv4rUt.s 			page 42


1039:.\Generated_Source\PSoC4/CyLFClk.c ****     * Parameters:
1040:.\Generated_Source\PSoC4/CyLFClk.c ****     *   counterMask: The mask of all the counters to enable.
1041:.\Generated_Source\PSoC4/CyLFClk.c ****     *   Define                    Counter
1042:.\Generated_Source\PSoC4/CyLFClk.c ****     *   CY_SYS_WDT_COUNTER0_INT    0
1043:.\Generated_Source\PSoC4/CyLFClk.c ****     *   CY_SYS_WDT_COUNTER1_INT    1
1044:.\Generated_Source\PSoC4/CyLFClk.c ****     *   CY_SYS_WDT_COUNTER2_INT    2
1045:.\Generated_Source\PSoC4/CyLFClk.c ****     *
1046:.\Generated_Source\PSoC4/CyLFClk.c ****     * Return:
1047:.\Generated_Source\PSoC4/CyLFClk.c ****     *   None
1048:.\Generated_Source\PSoC4/CyLFClk.c ****     *
1049:.\Generated_Source\PSoC4/CyLFClk.c ****     * Side effects:
1050:.\Generated_Source\PSoC4/CyLFClk.c ****     *   This function temporary removes the watchdog lock, if it was set, and
1051:.\Generated_Source\PSoC4/CyLFClk.c ****     *   restores the lock state after cleaning the WDT interrupts that are set in
1052:.\Generated_Source\PSoC4/CyLFClk.c ****     *   a mask.
1053:.\Generated_Source\PSoC4/CyLFClk.c ****     *
1054:.\Generated_Source\PSoC4/CyLFClk.c ****     *******************************************************************************/
1055:.\Generated_Source\PSoC4/CyLFClk.c ****     void CySysWdtClearInterrupt(uint32 counterMask)
1056:.\Generated_Source\PSoC4/CyLFClk.c ****     {
 1293              		.loc 1 1056 0
 1294              		.cfi_startproc
 1295 0000 90B5     		push	{r4, r7, lr}
 1296              		.cfi_def_cfa_offset 12
 1297              		.cfi_offset 4, -12
 1298              		.cfi_offset 7, -8
 1299              		.cfi_offset 14, -4
 1300 0002 85B0     		sub	sp, sp, #20
 1301              		.cfi_def_cfa_offset 32
 1302 0004 00AF     		add	r7, sp, #0
 1303              		.cfi_def_cfa_register 7
 1304 0006 7860     		str	r0, [r7, #4]
1057:.\Generated_Source\PSoC4/CyLFClk.c ****         uint8 interruptState;
1058:.\Generated_Source\PSoC4/CyLFClk.c ****         uint32 wdtLockState;
1059:.\Generated_Source\PSoC4/CyLFClk.c **** 
1060:.\Generated_Source\PSoC4/CyLFClk.c ****         interruptState = CyEnterCriticalSection();
 1305              		.loc 1 1060 0
 1306 0008 0B23     		mov	r3, #11
 1307 000a FC18     		add	r4, r7, r3
 1308 000c FFF7FEFF 		bl	CyEnterCriticalSection
 1309 0010 031C     		mov	r3, r0
 1310 0012 2370     		strb	r3, [r4]
1061:.\Generated_Source\PSoC4/CyLFClk.c **** 
1062:.\Generated_Source\PSoC4/CyLFClk.c ****         if (0u != CySysWdtLocked())
 1311              		.loc 1 1062 0
 1312 0014 FFF7FEFF 		bl	CySysWdtLocked
 1313 0018 031E     		sub	r3, r0, #0
 1314 001a 04D0     		beq	.L120
1063:.\Generated_Source\PSoC4/CyLFClk.c ****         {
1064:.\Generated_Source\PSoC4/CyLFClk.c ****             wdtLockState = 1u;
 1315              		.loc 1 1064 0
 1316 001c 0123     		mov	r3, #1
 1317 001e FB60     		str	r3, [r7, #12]
1065:.\Generated_Source\PSoC4/CyLFClk.c ****             CySysWdtUnlock();
 1318              		.loc 1 1065 0
 1319 0020 FFF7FEFF 		bl	CySysWdtUnlock
 1320 0024 01E0     		b	.L121
 1321              	.L120:
1066:.\Generated_Source\PSoC4/CyLFClk.c ****         }
ARM GAS  C:\Users\LUKASC~1\AppData\Local\Temp\ccSv4rUt.s 			page 43


1067:.\Generated_Source\PSoC4/CyLFClk.c ****         else
1068:.\Generated_Source\PSoC4/CyLFClk.c ****         {
1069:.\Generated_Source\PSoC4/CyLFClk.c ****             wdtLockState = 0u;
 1322              		.loc 1 1069 0
 1323 0026 0023     		mov	r3, #0
 1324 0028 FB60     		str	r3, [r7, #12]
 1325              	.L121:
1070:.\Generated_Source\PSoC4/CyLFClk.c ****         }
1071:.\Generated_Source\PSoC4/CyLFClk.c **** 
1072:.\Generated_Source\PSoC4/CyLFClk.c ****         /* Set new WDT control register value */
1073:.\Generated_Source\PSoC4/CyLFClk.c ****         counterMask &= (CY_SYS_WDT_COUNTER0_INT |
 1326              		.loc 1 1073 0
 1327 002a 7B68     		ldr	r3, [r7, #4]
 1328 002c 0D4A     		ldr	r2, .L123
 1329 002e 1340     		and	r3, r2
 1330 0030 7B60     		str	r3, [r7, #4]
1074:.\Generated_Source\PSoC4/CyLFClk.c ****                         CY_SYS_WDT_COUNTER1_INT |
1075:.\Generated_Source\PSoC4/CyLFClk.c ****                         CY_SYS_WDT_COUNTER2_INT);
1076:.\Generated_Source\PSoC4/CyLFClk.c **** 
1077:.\Generated_Source\PSoC4/CyLFClk.c ****         CY_SYS_WDT_CONTROL_REG = counterMask | (CY_SYS_WDT_CONTROL_REG & ~(CY_SYS_WDT_COUNTER0_INT 
 1331              		.loc 1 1077 0
 1332 0032 0D4B     		ldr	r3, .L123+4
 1333 0034 0C4A     		ldr	r2, .L123+4
 1334 0036 1268     		ldr	r2, [r2]
 1335 0038 0C49     		ldr	r1, .L123+8
 1336 003a 1140     		and	r1, r2
 1337 003c 7A68     		ldr	r2, [r7, #4]
 1338 003e 0A43     		orr	r2, r1
 1339 0040 1A60     		str	r2, [r3]
1078:.\Generated_Source\PSoC4/CyLFClk.c ****                                                                            CY_SYS_WDT_COUNTER1_INT 
1079:.\Generated_Source\PSoC4/CyLFClk.c ****                                                                            CY_SYS_WDT_COUNTER2_INT)
1080:.\Generated_Source\PSoC4/CyLFClk.c **** 
1081:.\Generated_Source\PSoC4/CyLFClk.c ****         /* Read the CY_SYS_WDT_CONTROL_REG to clear the interrupt request.
1082:.\Generated_Source\PSoC4/CyLFClk.c ****          * Cypress ID #207093, #206231
1083:.\Generated_Source\PSoC4/CyLFClk.c ****         */
1084:.\Generated_Source\PSoC4/CyLFClk.c ****         (void)CY_SYS_WDT_CONTROL_REG;
 1340              		.loc 1 1084 0
 1341 0042 094B     		ldr	r3, .L123+4
 1342 0044 1B68     		ldr	r3, [r3]
1085:.\Generated_Source\PSoC4/CyLFClk.c **** 
1086:.\Generated_Source\PSoC4/CyLFClk.c ****         if (1u == wdtLockState)
 1343              		.loc 1 1086 0
 1344 0046 FB68     		ldr	r3, [r7, #12]
 1345 0048 012B     		cmp	r3, #1
 1346 004a 01D1     		bne	.L122
1087:.\Generated_Source\PSoC4/CyLFClk.c ****         {
1088:.\Generated_Source\PSoC4/CyLFClk.c ****             CySysWdtLock();
 1347              		.loc 1 1088 0
 1348 004c FFF7FEFF 		bl	CySysWdtLock
 1349              	.L122:
1089:.\Generated_Source\PSoC4/CyLFClk.c ****         }
1090:.\Generated_Source\PSoC4/CyLFClk.c **** 
1091:.\Generated_Source\PSoC4/CyLFClk.c ****         CyExitCriticalSection(interruptState);
 1350              		.loc 1 1091 0
 1351 0050 0B23     		mov	r3, #11
 1352 0052 FB18     		add	r3, r7, r3
 1353 0054 1B78     		ldrb	r3, [r3]
ARM GAS  C:\Users\LUKASC~1\AppData\Local\Temp\ccSv4rUt.s 			page 44


 1354 0056 181C     		mov	r0, r3
 1355 0058 FFF7FEFF 		bl	CyExitCriticalSection
1092:.\Generated_Source\PSoC4/CyLFClk.c ****     }
 1356              		.loc 1 1092 0
 1357 005c BD46     		mov	sp, r7
 1358 005e 05B0     		add	sp, sp, #20
 1359              		@ sp needed
 1360 0060 90BD     		pop	{r4, r7, pc}
 1361              	.L124:
 1362 0062 C046     		.align	2
 1363              	.L123:
 1364 0064 04040400 		.word	263172
 1365 0068 10020B40 		.word	1074463248
 1366 006c FBFBFBFF 		.word	-263173
 1367              		.cfi_endproc
 1368              	.LFE21:
 1369              		.size	CySysWdtClearInterrupt, .-CySysWdtClearInterrupt
 1370              		.section	.text.CySysWdtResetCounters,"ax",%progbits
 1371              		.align	2
 1372              		.global	CySysWdtResetCounters
 1373              		.code	16
 1374              		.thumb_func
 1375              		.type	CySysWdtResetCounters, %function
 1376              	CySysWdtResetCounters:
 1377              	.LFB22:
1093:.\Generated_Source\PSoC4/CyLFClk.c **** 
1094:.\Generated_Source\PSoC4/CyLFClk.c **** 
1095:.\Generated_Source\PSoC4/CyLFClk.c ****     /*******************************************************************************
1096:.\Generated_Source\PSoC4/CyLFClk.c ****     * Function Name: CySysWdtResetCounters
1097:.\Generated_Source\PSoC4/CyLFClk.c ****     ********************************************************************************
1098:.\Generated_Source\PSoC4/CyLFClk.c ****     *
1099:.\Generated_Source\PSoC4/CyLFClk.c ****     * Summary:
1100:.\Generated_Source\PSoC4/CyLFClk.c ****     *  Resets all the WDT counters set in the mask.
1101:.\Generated_Source\PSoC4/CyLFClk.c ****     *
1102:.\Generated_Source\PSoC4/CyLFClk.c ****     * Parameters:
1103:.\Generated_Source\PSoC4/CyLFClk.c ****     *  counterMask: The mask of all the counters to reset.
1104:.\Generated_Source\PSoC4/CyLFClk.c ****     *   Define                       Counter
1105:.\Generated_Source\PSoC4/CyLFClk.c ****     *   CY_SYS_WDT_COUNTER0_RESET    0
1106:.\Generated_Source\PSoC4/CyLFClk.c ****     *   CY_SYS_WDT_COUNTER1_RESET    1
1107:.\Generated_Source\PSoC4/CyLFClk.c ****     *   CY_SYS_WDT_COUNTER2_RESET    2
1108:.\Generated_Source\PSoC4/CyLFClk.c ****     *
1109:.\Generated_Source\PSoC4/CyLFClk.c ****     * Return:
1110:.\Generated_Source\PSoC4/CyLFClk.c ****     *   None
1111:.\Generated_Source\PSoC4/CyLFClk.c ****     *
1112:.\Generated_Source\PSoC4/CyLFClk.c ****     * Side effects:
1113:.\Generated_Source\PSoC4/CyLFClk.c ****     *   This function does not reset counter values if the Watchdog is locked.
1114:.\Generated_Source\PSoC4/CyLFClk.c ****     *   This function waits while corresponding counters will be reset. This may
1115:.\Generated_Source\PSoC4/CyLFClk.c ****     *   take up to 3 LFCLK cycles.
1116:.\Generated_Source\PSoC4/CyLFClk.c ****     *   The LFCLK source must be enabled. Otherwise, the function will never exit.
1117:.\Generated_Source\PSoC4/CyLFClk.c ****     *
1118:.\Generated_Source\PSoC4/CyLFClk.c ****     *******************************************************************************/
1119:.\Generated_Source\PSoC4/CyLFClk.c ****     void CySysWdtResetCounters(uint32 countersMask)
1120:.\Generated_Source\PSoC4/CyLFClk.c ****     {
 1378              		.loc 1 1120 0
 1379              		.cfi_startproc
 1380 0000 80B5     		push	{r7, lr}
 1381              		.cfi_def_cfa_offset 8
ARM GAS  C:\Users\LUKASC~1\AppData\Local\Temp\ccSv4rUt.s 			page 45


 1382              		.cfi_offset 7, -8
 1383              		.cfi_offset 14, -4
 1384 0002 82B0     		sub	sp, sp, #8
 1385              		.cfi_def_cfa_offset 16
 1386 0004 00AF     		add	r7, sp, #0
 1387              		.cfi_def_cfa_register 7
 1388 0006 7860     		str	r0, [r7, #4]
1121:.\Generated_Source\PSoC4/CyLFClk.c ****         /* Set new WDT reset value */
1122:.\Generated_Source\PSoC4/CyLFClk.c ****         CY_SYS_WDT_CONTROL_REG |= (countersMask & CY_SYS_WDT_COUNTERS_RESET);
 1389              		.loc 1 1122 0
 1390 0008 084B     		ldr	r3, .L127
 1391 000a 084A     		ldr	r2, .L127
 1392 000c 1168     		ldr	r1, [r2]
 1393 000e 7A68     		ldr	r2, [r7, #4]
 1394 0010 0748     		ldr	r0, .L127+4
 1395 0012 0240     		and	r2, r0
 1396 0014 0A43     		orr	r2, r1
 1397 0016 1A60     		str	r2, [r3]
1123:.\Generated_Source\PSoC4/CyLFClk.c **** 
1124:.\Generated_Source\PSoC4/CyLFClk.c ****         while (0uL != (CY_SYS_WDT_CONTROL_REG & CY_SYS_WDT_COUNTERS_RESET))
 1398              		.loc 1 1124 0
 1399 0018 C046     		mov	r8, r8
 1400              	.L126:
 1401              		.loc 1 1124 0 is_stmt 0 discriminator 1
 1402 001a 044B     		ldr	r3, .L127
 1403 001c 1B68     		ldr	r3, [r3]
 1404 001e 044A     		ldr	r2, .L127+4
 1405 0020 1340     		and	r3, r2
 1406 0022 FAD1     		bne	.L126
1125:.\Generated_Source\PSoC4/CyLFClk.c ****         {
1126:.\Generated_Source\PSoC4/CyLFClk.c ****             /* Wait for reset to come into effect */
1127:.\Generated_Source\PSoC4/CyLFClk.c ****         }
1128:.\Generated_Source\PSoC4/CyLFClk.c ****     }
 1407              		.loc 1 1128 0 is_stmt 1
 1408 0024 BD46     		mov	sp, r7
 1409 0026 02B0     		add	sp, sp, #8
 1410              		@ sp needed
 1411 0028 80BD     		pop	{r7, pc}
 1412              	.L128:
 1413 002a C046     		.align	2
 1414              	.L127:
 1415 002c 10020B40 		.word	1074463248
 1416 0030 08080800 		.word	526344
 1417              		.cfi_endproc
 1418              	.LFE22:
 1419              		.size	CySysWdtResetCounters, .-CySysWdtResetCounters
 1420              		.section	.text.CySysWdtSetInterruptCallback,"ax",%progbits
 1421              		.align	2
 1422              		.global	CySysWdtSetInterruptCallback
 1423              		.code	16
 1424              		.thumb_func
 1425              		.type	CySysWdtSetInterruptCallback, %function
 1426              	CySysWdtSetInterruptCallback:
 1427              	.LFB23:
1129:.\Generated_Source\PSoC4/CyLFClk.c **** 
1130:.\Generated_Source\PSoC4/CyLFClk.c **** 
1131:.\Generated_Source\PSoC4/CyLFClk.c ****     /*******************************************************************************
ARM GAS  C:\Users\LUKASC~1\AppData\Local\Temp\ccSv4rUt.s 			page 46


1132:.\Generated_Source\PSoC4/CyLFClk.c ****     * Function Name: CySysWdtSetInterruptCallback
1133:.\Generated_Source\PSoC4/CyLFClk.c ****     ********************************************************************************
1134:.\Generated_Source\PSoC4/CyLFClk.c ****     *
1135:.\Generated_Source\PSoC4/CyLFClk.c ****     * Summary:
1136:.\Generated_Source\PSoC4/CyLFClk.c ****     *  Sets the ISR callback function for the particular WDT counter.
1137:.\Generated_Source\PSoC4/CyLFClk.c ****     *  These functions are called on the WDT interrupt.
1138:.\Generated_Source\PSoC4/CyLFClk.c ****     *
1139:.\Generated_Source\PSoC4/CyLFClk.c ****     * Parameters:
1140:.\Generated_Source\PSoC4/CyLFClk.c ****     *  counterNum : The number of the WDT counter.
1141:.\Generated_Source\PSoC4/CyLFClk.c ****     *  function   : The pointer to the callback function.
1142:.\Generated_Source\PSoC4/CyLFClk.c ****     *
1143:.\Generated_Source\PSoC4/CyLFClk.c ****     * Return:
1144:.\Generated_Source\PSoC4/CyLFClk.c ****     *  The pointer to the previous callback function.
1145:.\Generated_Source\PSoC4/CyLFClk.c ****     *  NULL is returned if the specified address is not set.
1146:.\Generated_Source\PSoC4/CyLFClk.c ****     *
1147:.\Generated_Source\PSoC4/CyLFClk.c ****     *******************************************************************************/
1148:.\Generated_Source\PSoC4/CyLFClk.c ****     cyWdtCallback CySysWdtSetInterruptCallback(uint32 counterNum, cyWdtCallback function)
1149:.\Generated_Source\PSoC4/CyLFClk.c ****     {
 1428              		.loc 1 1149 0
 1429              		.cfi_startproc
 1430 0000 80B5     		push	{r7, lr}
 1431              		.cfi_def_cfa_offset 8
 1432              		.cfi_offset 7, -8
 1433              		.cfi_offset 14, -4
 1434 0002 84B0     		sub	sp, sp, #16
 1435              		.cfi_def_cfa_offset 24
 1436 0004 00AF     		add	r7, sp, #0
 1437              		.cfi_def_cfa_register 7
 1438 0006 7860     		str	r0, [r7, #4]
 1439 0008 3960     		str	r1, [r7]
1150:.\Generated_Source\PSoC4/CyLFClk.c ****         cyWdtCallback prevCallback = (void *)0;
 1440              		.loc 1 1150 0
 1441 000a 0023     		mov	r3, #0
 1442 000c FB60     		str	r3, [r7, #12]
1151:.\Generated_Source\PSoC4/CyLFClk.c **** 
1152:.\Generated_Source\PSoC4/CyLFClk.c ****         if(counterNum < CY_WDT_NUM_OF_WDT)
 1443              		.loc 1 1152 0
 1444 000e 7B68     		ldr	r3, [r7, #4]
 1445 0010 022B     		cmp	r3, #2
 1446 0012 0AD8     		bhi	.L130
1153:.\Generated_Source\PSoC4/CyLFClk.c ****         {
1154:.\Generated_Source\PSoC4/CyLFClk.c ****             prevCallback = cySysWdtCallback[counterNum];
 1447              		.loc 1 1154 0
 1448 0014 094B     		ldr	r3, .L133
 1449 0016 7A68     		ldr	r2, [r7, #4]
 1450 0018 9200     		lsl	r2, r2, #2
 1451 001a D358     		ldr	r3, [r2, r3]
 1452 001c FB60     		str	r3, [r7, #12]
1155:.\Generated_Source\PSoC4/CyLFClk.c ****             cySysWdtCallback[counterNum] = function;
 1453              		.loc 1 1155 0
 1454 001e 074B     		ldr	r3, .L133
 1455 0020 7A68     		ldr	r2, [r7, #4]
 1456 0022 9200     		lsl	r2, r2, #2
 1457 0024 3968     		ldr	r1, [r7]
 1458 0026 D150     		str	r1, [r2, r3]
 1459 0028 02E0     		b	.L131
 1460              	.L130:
ARM GAS  C:\Users\LUKASC~1\AppData\Local\Temp\ccSv4rUt.s 			page 47


1156:.\Generated_Source\PSoC4/CyLFClk.c ****         }
1157:.\Generated_Source\PSoC4/CyLFClk.c ****         else
1158:.\Generated_Source\PSoC4/CyLFClk.c ****         {
1159:.\Generated_Source\PSoC4/CyLFClk.c ****             CYASSERT(0u != 0u);
 1461              		.loc 1 1159 0 discriminator 1
 1462 002a 0020     		mov	r0, #0
 1463 002c FFF7FEFF 		bl	CyHalt
 1464              	.L131:
1160:.\Generated_Source\PSoC4/CyLFClk.c ****         }
1161:.\Generated_Source\PSoC4/CyLFClk.c **** 
1162:.\Generated_Source\PSoC4/CyLFClk.c ****         return((cyWdtCallback)prevCallback);
 1465              		.loc 1 1162 0
 1466 0030 FB68     		ldr	r3, [r7, #12]
1163:.\Generated_Source\PSoC4/CyLFClk.c ****     }
 1467              		.loc 1 1163 0
 1468 0032 181C     		mov	r0, r3
 1469 0034 BD46     		mov	sp, r7
 1470 0036 04B0     		add	sp, sp, #16
 1471              		@ sp needed
 1472 0038 80BD     		pop	{r7, pc}
 1473              	.L134:
 1474 003a C046     		.align	2
 1475              	.L133:
 1476 003c 0C000000 		.word	cySysWdtCallback
 1477              		.cfi_endproc
 1478              	.LFE23:
 1479              		.size	CySysWdtSetInterruptCallback, .-CySysWdtSetInterruptCallback
 1480              		.section	.text.CySysWdtGetInterruptCallback,"ax",%progbits
 1481              		.align	2
 1482              		.global	CySysWdtGetInterruptCallback
 1483              		.code	16
 1484              		.thumb_func
 1485              		.type	CySysWdtGetInterruptCallback, %function
 1486              	CySysWdtGetInterruptCallback:
 1487              	.LFB24:
1164:.\Generated_Source\PSoC4/CyLFClk.c **** 
1165:.\Generated_Source\PSoC4/CyLFClk.c **** 
1166:.\Generated_Source\PSoC4/CyLFClk.c ****     /*******************************************************************************
1167:.\Generated_Source\PSoC4/CyLFClk.c ****     * Function Name: CySysWdtGetInterruptCallback
1168:.\Generated_Source\PSoC4/CyLFClk.c ****     ********************************************************************************
1169:.\Generated_Source\PSoC4/CyLFClk.c ****     *
1170:.\Generated_Source\PSoC4/CyLFClk.c ****     * Summary:
1171:.\Generated_Source\PSoC4/CyLFClk.c ****     *  Gets the ISR callback function for the particular WDT counter.
1172:.\Generated_Source\PSoC4/CyLFClk.c ****     *
1173:.\Generated_Source\PSoC4/CyLFClk.c ****     * Parameters:
1174:.\Generated_Source\PSoC4/CyLFClk.c ****     *  counterNum : The number of the WDT counter.
1175:.\Generated_Source\PSoC4/CyLFClk.c ****     *
1176:.\Generated_Source\PSoC4/CyLFClk.c ****     * Return:
1177:.\Generated_Source\PSoC4/CyLFClk.c ****     *  The pointer to the callback function registered for a particular WDT by
1178:.\Generated_Source\PSoC4/CyLFClk.c ****     *  a particular address that are passed through arguments.
1179:.\Generated_Source\PSoC4/CyLFClk.c ****     *
1180:.\Generated_Source\PSoC4/CyLFClk.c ****     *******************************************************************************/
1181:.\Generated_Source\PSoC4/CyLFClk.c ****     cyWdtCallback CySysWdtGetInterruptCallback(uint32 counterNum)
1182:.\Generated_Source\PSoC4/CyLFClk.c ****     {
 1488              		.loc 1 1182 0
 1489              		.cfi_startproc
 1490 0000 80B5     		push	{r7, lr}
ARM GAS  C:\Users\LUKASC~1\AppData\Local\Temp\ccSv4rUt.s 			page 48


 1491              		.cfi_def_cfa_offset 8
 1492              		.cfi_offset 7, -8
 1493              		.cfi_offset 14, -4
 1494 0002 84B0     		sub	sp, sp, #16
 1495              		.cfi_def_cfa_offset 24
 1496 0004 00AF     		add	r7, sp, #0
 1497              		.cfi_def_cfa_register 7
 1498 0006 7860     		str	r0, [r7, #4]
1183:.\Generated_Source\PSoC4/CyLFClk.c ****         cyWdtCallback retCallback = (void *)0;
 1499              		.loc 1 1183 0
 1500 0008 0023     		mov	r3, #0
 1501 000a FB60     		str	r3, [r7, #12]
1184:.\Generated_Source\PSoC4/CyLFClk.c **** 
1185:.\Generated_Source\PSoC4/CyLFClk.c ****         if(counterNum < CY_WDT_NUM_OF_WDT)
 1502              		.loc 1 1185 0
 1503 000c 7B68     		ldr	r3, [r7, #4]
 1504 000e 022B     		cmp	r3, #2
 1505 0010 05D8     		bhi	.L136
1186:.\Generated_Source\PSoC4/CyLFClk.c ****         {
1187:.\Generated_Source\PSoC4/CyLFClk.c ****             retCallback = (cyWdtCallback)cySysWdtCallback[counterNum];
 1506              		.loc 1 1187 0
 1507 0012 074B     		ldr	r3, .L139
 1508 0014 7A68     		ldr	r2, [r7, #4]
 1509 0016 9200     		lsl	r2, r2, #2
 1510 0018 D358     		ldr	r3, [r2, r3]
 1511 001a FB60     		str	r3, [r7, #12]
 1512 001c 02E0     		b	.L137
 1513              	.L136:
1188:.\Generated_Source\PSoC4/CyLFClk.c ****         }
1189:.\Generated_Source\PSoC4/CyLFClk.c ****         else
1190:.\Generated_Source\PSoC4/CyLFClk.c ****         {
1191:.\Generated_Source\PSoC4/CyLFClk.c ****             CYASSERT(0u != 0u);
 1514              		.loc 1 1191 0 discriminator 1
 1515 001e 0020     		mov	r0, #0
 1516 0020 FFF7FEFF 		bl	CyHalt
 1517              	.L137:
1192:.\Generated_Source\PSoC4/CyLFClk.c ****         }
1193:.\Generated_Source\PSoC4/CyLFClk.c **** 
1194:.\Generated_Source\PSoC4/CyLFClk.c ****         return(retCallback);
 1518              		.loc 1 1194 0
 1519 0024 FB68     		ldr	r3, [r7, #12]
1195:.\Generated_Source\PSoC4/CyLFClk.c ****     }
 1520              		.loc 1 1195 0
 1521 0026 181C     		mov	r0, r3
 1522 0028 BD46     		mov	sp, r7
 1523 002a 04B0     		add	sp, sp, #16
 1524              		@ sp needed
 1525 002c 80BD     		pop	{r7, pc}
 1526              	.L140:
 1527 002e C046     		.align	2
 1528              	.L139:
 1529 0030 0C000000 		.word	cySysWdtCallback
 1530              		.cfi_endproc
 1531              	.LFE24:
 1532              		.size	CySysWdtGetInterruptCallback, .-CySysWdtGetInterruptCallback
 1533              		.section	.text.CySysWdtEnableCounterIsr,"ax",%progbits
 1534              		.align	2
ARM GAS  C:\Users\LUKASC~1\AppData\Local\Temp\ccSv4rUt.s 			page 49


 1535              		.global	CySysWdtEnableCounterIsr
 1536              		.code	16
 1537              		.thumb_func
 1538              		.type	CySysWdtEnableCounterIsr, %function
 1539              	CySysWdtEnableCounterIsr:
 1540              	.LFB25:
1196:.\Generated_Source\PSoC4/CyLFClk.c **** 
1197:.\Generated_Source\PSoC4/CyLFClk.c **** 
1198:.\Generated_Source\PSoC4/CyLFClk.c ****     /*******************************************************************************
1199:.\Generated_Source\PSoC4/CyLFClk.c ****     * Function Name: CySysWdtEnableCounterIsr
1200:.\Generated_Source\PSoC4/CyLFClk.c ****     ********************************************************************************
1201:.\Generated_Source\PSoC4/CyLFClk.c ****     *
1202:.\Generated_Source\PSoC4/CyLFClk.c ****     * Summary:
1203:.\Generated_Source\PSoC4/CyLFClk.c ****     *  Enables the ISR callback servicing for the particular WDT counter
1204:.\Generated_Source\PSoC4/CyLFClk.c ****     *
1205:.\Generated_Source\PSoC4/CyLFClk.c ****     * Parameters:
1206:.\Generated_Source\PSoC4/CyLFClk.c ****     *  counterNum: Valid range [0-2].  The number of the WDT counter.
1207:.\Generated_Source\PSoC4/CyLFClk.c ****     *
1208:.\Generated_Source\PSoC4/CyLFClk.c ****     *******************************************************************************/
1209:.\Generated_Source\PSoC4/CyLFClk.c ****     void CySysWdtEnableCounterIsr(uint32 counterNum)
1210:.\Generated_Source\PSoC4/CyLFClk.c ****     {
 1541              		.loc 1 1210 0
 1542              		.cfi_startproc
 1543 0000 80B5     		push	{r7, lr}
 1544              		.cfi_def_cfa_offset 8
 1545              		.cfi_offset 7, -8
 1546              		.cfi_offset 14, -4
 1547 0002 82B0     		sub	sp, sp, #8
 1548              		.cfi_def_cfa_offset 16
 1549 0004 00AF     		add	r7, sp, #0
 1550              		.cfi_def_cfa_register 7
 1551 0006 7860     		str	r0, [r7, #4]
1211:.\Generated_Source\PSoC4/CyLFClk.c ****         if(counterNum <= CY_SYS_WDT_COUNTER2)
 1552              		.loc 1 1211 0
 1553 0008 7B68     		ldr	r3, [r7, #4]
 1554 000a 022B     		cmp	r3, #2
 1555 000c 13D8     		bhi	.L142
1212:.\Generated_Source\PSoC4/CyLFClk.c ****         {
1213:.\Generated_Source\PSoC4/CyLFClk.c ****             disableServicedIsr &= ~counterIntMaskTbl[counterNum];
 1556              		.loc 1 1213 0
 1557 000e 0D4B     		ldr	r3, .L144
 1558 0010 7A68     		ldr	r2, [r7, #4]
 1559 0012 9200     		lsl	r2, r2, #2
 1560 0014 D358     		ldr	r3, [r2, r3]
 1561 0016 DA43     		mvn	r2, r3
 1562 0018 0B4B     		ldr	r3, .L144+4
 1563 001a 1B68     		ldr	r3, [r3]
 1564 001c 1A40     		and	r2, r3
 1565 001e 0A4B     		ldr	r3, .L144+4
 1566 0020 1A60     		str	r2, [r3]
1214:.\Generated_Source\PSoC4/CyLFClk.c ****             wdtIsrMask |= counterIntMaskTbl[counterNum];
 1567              		.loc 1 1214 0
 1568 0022 084B     		ldr	r3, .L144
 1569 0024 7A68     		ldr	r2, [r7, #4]
 1570 0026 9200     		lsl	r2, r2, #2
 1571 0028 D258     		ldr	r2, [r2, r3]
 1572 002a 084B     		ldr	r3, .L144+8
ARM GAS  C:\Users\LUKASC~1\AppData\Local\Temp\ccSv4rUt.s 			page 50


 1573 002c 1B68     		ldr	r3, [r3]
 1574 002e 1A43     		orr	r2, r3
 1575 0030 064B     		ldr	r3, .L144+8
 1576 0032 1A60     		str	r2, [r3]
 1577 0034 02E0     		b	.L141
 1578              	.L142:
1215:.\Generated_Source\PSoC4/CyLFClk.c ****         }
1216:.\Generated_Source\PSoC4/CyLFClk.c ****         else
1217:.\Generated_Source\PSoC4/CyLFClk.c ****         {
1218:.\Generated_Source\PSoC4/CyLFClk.c ****             CYASSERT(0u != 0u);
 1579              		.loc 1 1218 0 discriminator 1
 1580 0036 0020     		mov	r0, #0
 1581 0038 FFF7FEFF 		bl	CyHalt
 1582              	.L141:
1219:.\Generated_Source\PSoC4/CyLFClk.c ****         }
1220:.\Generated_Source\PSoC4/CyLFClk.c ****     }
 1583              		.loc 1 1220 0
 1584 003c BD46     		mov	sp, r7
 1585 003e 02B0     		add	sp, sp, #8
 1586              		@ sp needed
 1587 0040 80BD     		pop	{r7, pc}
 1588              	.L145:
 1589 0042 C046     		.align	2
 1590              	.L144:
 1591 0044 00000000 		.word	counterIntMaskTbl
 1592 0048 08000000 		.word	disableServicedIsr
 1593 004c 00000000 		.word	wdtIsrMask
 1594              		.cfi_endproc
 1595              	.LFE25:
 1596              		.size	CySysWdtEnableCounterIsr, .-CySysWdtEnableCounterIsr
 1597              		.section	.text.CySysWdtDisableCounterIsr,"ax",%progbits
 1598              		.align	2
 1599              		.global	CySysWdtDisableCounterIsr
 1600              		.code	16
 1601              		.thumb_func
 1602              		.type	CySysWdtDisableCounterIsr, %function
 1603              	CySysWdtDisableCounterIsr:
 1604              	.LFB26:
1221:.\Generated_Source\PSoC4/CyLFClk.c **** 
1222:.\Generated_Source\PSoC4/CyLFClk.c **** 
1223:.\Generated_Source\PSoC4/CyLFClk.c ****     /*******************************************************************************
1224:.\Generated_Source\PSoC4/CyLFClk.c ****     * Function Name: CySysWdtDisableCounterIsr
1225:.\Generated_Source\PSoC4/CyLFClk.c ****     ********************************************************************************
1226:.\Generated_Source\PSoC4/CyLFClk.c ****     *
1227:.\Generated_Source\PSoC4/CyLFClk.c ****     * Summary:
1228:.\Generated_Source\PSoC4/CyLFClk.c ****     *  Disables the ISR callback servicing for the particular WDT counter
1229:.\Generated_Source\PSoC4/CyLFClk.c ****     *
1230:.\Generated_Source\PSoC4/CyLFClk.c ****     * Parameters:
1231:.\Generated_Source\PSoC4/CyLFClk.c ****     *  counterNum: Valid range [0-2].  The number of the WDT counter.
1232:.\Generated_Source\PSoC4/CyLFClk.c ****     *
1233:.\Generated_Source\PSoC4/CyLFClk.c ****     *******************************************************************************/
1234:.\Generated_Source\PSoC4/CyLFClk.c ****     void CySysWdtDisableCounterIsr(uint32 counterNum)
1235:.\Generated_Source\PSoC4/CyLFClk.c ****     {
 1605              		.loc 1 1235 0
 1606              		.cfi_startproc
 1607 0000 80B5     		push	{r7, lr}
 1608              		.cfi_def_cfa_offset 8
ARM GAS  C:\Users\LUKASC~1\AppData\Local\Temp\ccSv4rUt.s 			page 51


 1609              		.cfi_offset 7, -8
 1610              		.cfi_offset 14, -4
 1611 0002 82B0     		sub	sp, sp, #8
 1612              		.cfi_def_cfa_offset 16
 1613 0004 00AF     		add	r7, sp, #0
 1614              		.cfi_def_cfa_register 7
 1615 0006 7860     		str	r0, [r7, #4]
1236:.\Generated_Source\PSoC4/CyLFClk.c ****         if(counterNum <= CY_SYS_WDT_COUNTER2)
 1616              		.loc 1 1236 0
 1617 0008 7B68     		ldr	r3, [r7, #4]
 1618 000a 022B     		cmp	r3, #2
 1619 000c 0AD8     		bhi	.L147
1237:.\Generated_Source\PSoC4/CyLFClk.c ****         {
1238:.\Generated_Source\PSoC4/CyLFClk.c ****             wdtIsrMask &= ~counterIntMaskTbl[counterNum];
 1620              		.loc 1 1238 0
 1621 000e 084B     		ldr	r3, .L149
 1622 0010 7A68     		ldr	r2, [r7, #4]
 1623 0012 9200     		lsl	r2, r2, #2
 1624 0014 D358     		ldr	r3, [r2, r3]
 1625 0016 DA43     		mvn	r2, r3
 1626 0018 064B     		ldr	r3, .L149+4
 1627 001a 1B68     		ldr	r3, [r3]
 1628 001c 1A40     		and	r2, r3
 1629 001e 054B     		ldr	r3, .L149+4
 1630 0020 1A60     		str	r2, [r3]
 1631 0022 02E0     		b	.L146
 1632              	.L147:
1239:.\Generated_Source\PSoC4/CyLFClk.c ****         }
1240:.\Generated_Source\PSoC4/CyLFClk.c ****         else
1241:.\Generated_Source\PSoC4/CyLFClk.c ****         {
1242:.\Generated_Source\PSoC4/CyLFClk.c ****             CYASSERT(0u != 0u);
 1633              		.loc 1 1242 0 discriminator 1
 1634 0024 0020     		mov	r0, #0
 1635 0026 FFF7FEFF 		bl	CyHalt
 1636              	.L146:
1243:.\Generated_Source\PSoC4/CyLFClk.c ****         }
1244:.\Generated_Source\PSoC4/CyLFClk.c ****     }
 1637              		.loc 1 1244 0
 1638 002a BD46     		mov	sp, r7
 1639 002c 02B0     		add	sp, sp, #8
 1640              		@ sp needed
 1641 002e 80BD     		pop	{r7, pc}
 1642              	.L150:
 1643              		.align	2
 1644              	.L149:
 1645 0030 00000000 		.word	counterIntMaskTbl
 1646 0034 00000000 		.word	wdtIsrMask
 1647              		.cfi_endproc
 1648              	.LFE26:
 1649              		.size	CySysWdtDisableCounterIsr, .-CySysWdtDisableCounterIsr
 1650              		.section	.text.CySysWdtIsr,"ax",%progbits
 1651              		.align	2
 1652              		.global	CySysWdtIsr
 1653              		.code	16
 1654              		.thumb_func
 1655              		.type	CySysWdtIsr, %function
 1656              	CySysWdtIsr:
ARM GAS  C:\Users\LUKASC~1\AppData\Local\Temp\ccSv4rUt.s 			page 52


 1657              	.LFB27:
1245:.\Generated_Source\PSoC4/CyLFClk.c **** 
1246:.\Generated_Source\PSoC4/CyLFClk.c **** 
1247:.\Generated_Source\PSoC4/CyLFClk.c ****     /*******************************************************************************
1248:.\Generated_Source\PSoC4/CyLFClk.c ****     * Function Name: CySysWdtIsr
1249:.\Generated_Source\PSoC4/CyLFClk.c ****     ********************************************************************************
1250:.\Generated_Source\PSoC4/CyLFClk.c ****     *
1251:.\Generated_Source\PSoC4/CyLFClk.c ****     * Summary:
1252:.\Generated_Source\PSoC4/CyLFClk.c ****     *  This is the handler of the WDT interrupt in CPU NVIC. The handler checks
1253:.\Generated_Source\PSoC4/CyLFClk.c ****     *  which WDT triggered in the interrupt and calls the respective callback
1254:.\Generated_Source\PSoC4/CyLFClk.c ****     *  functions configured by the user by using CySysWdtSetIsrCallback() API.
1255:.\Generated_Source\PSoC4/CyLFClk.c ****     *
1256:.\Generated_Source\PSoC4/CyLFClk.c ****     *  The order of the callback execution is incremental. Callback-0 is
1257:.\Generated_Source\PSoC4/CyLFClk.c ****     *  run as the first one and callback-2 is called as the last one.
1258:.\Generated_Source\PSoC4/CyLFClk.c ****     *
1259:.\Generated_Source\PSoC4/CyLFClk.c ****     * Parameters:
1260:.\Generated_Source\PSoC4/CyLFClk.c ****     *  None.
1261:.\Generated_Source\PSoC4/CyLFClk.c ****     *
1262:.\Generated_Source\PSoC4/CyLFClk.c ****     * Return:
1263:.\Generated_Source\PSoC4/CyLFClk.c ****     *  None.
1264:.\Generated_Source\PSoC4/CyLFClk.c ****     *
1265:.\Generated_Source\PSoC4/CyLFClk.c ****     * Side Effects:
1266:.\Generated_Source\PSoC4/CyLFClk.c ****     *  This function clears the WDT interrupt every time when it is called.
1267:.\Generated_Source\PSoC4/CyLFClk.c ****     *  Reset after the 3rd interrupt does not happen if this function is registered
1268:.\Generated_Source\PSoC4/CyLFClk.c ****     *  as the interrupt handler even if the "Watchdog with Interrupt" mode is
1269:.\Generated_Source\PSoC4/CyLFClk.c ****     *  selected on the "Low Frequency Clocks" tab.
1270:.\Generated_Source\PSoC4/CyLFClk.c ****     *
1271:.\Generated_Source\PSoC4/CyLFClk.c ****     *******************************************************************************/
1272:.\Generated_Source\PSoC4/CyLFClk.c ****     void CySysWdtIsr(void)
1273:.\Generated_Source\PSoC4/CyLFClk.c ****     {
 1658              		.loc 1 1273 0
 1659              		.cfi_startproc
 1660 0000 80B5     		push	{r7, lr}
 1661              		.cfi_def_cfa_offset 8
 1662              		.cfi_offset 7, -8
 1663              		.cfi_offset 14, -4
 1664 0002 00AF     		add	r7, sp, #0
 1665              		.cfi_def_cfa_register 7
1274:.\Generated_Source\PSoC4/CyLFClk.c ****         if(0u != (CY_SYS_WDT_COUNTER0_INT & CY_SYS_WDT_CONTROL_REG))
 1666              		.loc 1 1274 0
 1667 0004 334B     		ldr	r3, .L158
 1668 0006 1B68     		ldr	r3, [r3]
 1669 0008 0422     		mov	r2, #4
 1670 000a 1340     		and	r3, r2
 1671 000c 1FD0     		beq	.L152
1275:.\Generated_Source\PSoC4/CyLFClk.c ****         {
1276:.\Generated_Source\PSoC4/CyLFClk.c ****             if(0u != (CY_SYS_WDT_COUNTER0_INT & wdtIsrMask))
 1672              		.loc 1 1276 0
 1673 000e 324B     		ldr	r3, .L158+4
 1674 0010 1B68     		ldr	r3, [r3]
 1675 0012 0422     		mov	r2, #4
 1676 0014 1340     		and	r3, r2
 1677 0016 17D0     		beq	.L153
1277:.\Generated_Source\PSoC4/CyLFClk.c ****             {
1278:.\Generated_Source\PSoC4/CyLFClk.c ****                 wdtIsrMask &= ~(disableServicedIsr & CY_SYS_WDT_COUNTER0_INT);
 1678              		.loc 1 1278 0
 1679 0018 304B     		ldr	r3, .L158+8
ARM GAS  C:\Users\LUKASC~1\AppData\Local\Temp\ccSv4rUt.s 			page 53


 1680 001a 1B68     		ldr	r3, [r3]
 1681 001c 0422     		mov	r2, #4
 1682 001e 1340     		and	r3, r2
 1683 0020 DA43     		mvn	r2, r3
 1684 0022 2D4B     		ldr	r3, .L158+4
 1685 0024 1B68     		ldr	r3, [r3]
 1686 0026 1A40     		and	r2, r3
 1687 0028 2B4B     		ldr	r3, .L158+4
 1688 002a 1A60     		str	r2, [r3]
1279:.\Generated_Source\PSoC4/CyLFClk.c ****                 disableServicedIsr  &= ~CY_SYS_WDT_COUNTER0_INT;
 1689              		.loc 1 1279 0
 1690 002c 2B4B     		ldr	r3, .L158+8
 1691 002e 1B68     		ldr	r3, [r3]
 1692 0030 0422     		mov	r2, #4
 1693 0032 9343     		bic	r3, r2
 1694 0034 1A1C     		mov	r2, r3
 1695 0036 294B     		ldr	r3, .L158+8
 1696 0038 1A60     		str	r2, [r3]
1280:.\Generated_Source\PSoC4/CyLFClk.c ****                 if(cySysWdtCallback[CY_SYS_WDT_COUNTER0] != (void *) 0)
 1697              		.loc 1 1280 0
 1698 003a 294B     		ldr	r3, .L158+12
 1699 003c 1B68     		ldr	r3, [r3]
 1700 003e 002B     		cmp	r3, #0
 1701 0040 02D0     		beq	.L153
1281:.\Generated_Source\PSoC4/CyLFClk.c ****                 {
1282:.\Generated_Source\PSoC4/CyLFClk.c ****                     (void)(cySysWdtCallback[CY_SYS_WDT_COUNTER0])();
 1702              		.loc 1 1282 0
 1703 0042 274B     		ldr	r3, .L158+12
 1704 0044 1B68     		ldr	r3, [r3]
 1705 0046 9847     		blx	r3
 1706              	.L153:
1283:.\Generated_Source\PSoC4/CyLFClk.c ****                 }
1284:.\Generated_Source\PSoC4/CyLFClk.c ****             }
1285:.\Generated_Source\PSoC4/CyLFClk.c ****             CySysWdtClearInterrupt(CY_SYS_WDT_COUNTER0_INT);
 1707              		.loc 1 1285 0
 1708 0048 0420     		mov	r0, #4
 1709 004a FFF7FEFF 		bl	CySysWdtClearInterrupt
 1710              	.L152:
1286:.\Generated_Source\PSoC4/CyLFClk.c ****         }
1287:.\Generated_Source\PSoC4/CyLFClk.c **** 
1288:.\Generated_Source\PSoC4/CyLFClk.c ****         if(0u != (CY_SYS_WDT_COUNTER1_INT & CY_SYS_WDT_CONTROL_REG))
 1711              		.loc 1 1288 0
 1712 004e 214B     		ldr	r3, .L158
 1713 0050 1A68     		ldr	r2, [r3]
 1714 0052 8023     		mov	r3, #128
 1715 0054 DB00     		lsl	r3, r3, #3
 1716 0056 1340     		and	r3, r2
 1717 0058 22D0     		beq	.L154
1289:.\Generated_Source\PSoC4/CyLFClk.c ****         {
1290:.\Generated_Source\PSoC4/CyLFClk.c ****             if(0u != (CY_SYS_WDT_COUNTER1_INT & wdtIsrMask))
 1718              		.loc 1 1290 0
 1719 005a 1F4B     		ldr	r3, .L158+4
 1720 005c 1A68     		ldr	r2, [r3]
 1721 005e 8023     		mov	r3, #128
 1722 0060 DB00     		lsl	r3, r3, #3
 1723 0062 1340     		and	r3, r2
 1724 0064 17D0     		beq	.L155
ARM GAS  C:\Users\LUKASC~1\AppData\Local\Temp\ccSv4rUt.s 			page 54


1291:.\Generated_Source\PSoC4/CyLFClk.c ****             {
1292:.\Generated_Source\PSoC4/CyLFClk.c ****                 wdtIsrMask &= ~(disableServicedIsr & CY_SYS_WDT_COUNTER1_INT);
 1725              		.loc 1 1292 0
 1726 0066 1D4B     		ldr	r3, .L158+8
 1727 0068 1A68     		ldr	r2, [r3]
 1728 006a 8023     		mov	r3, #128
 1729 006c DB00     		lsl	r3, r3, #3
 1730 006e 1340     		and	r3, r2
 1731 0070 DA43     		mvn	r2, r3
 1732 0072 194B     		ldr	r3, .L158+4
 1733 0074 1B68     		ldr	r3, [r3]
 1734 0076 1A40     		and	r2, r3
 1735 0078 174B     		ldr	r3, .L158+4
 1736 007a 1A60     		str	r2, [r3]
1293:.\Generated_Source\PSoC4/CyLFClk.c ****                 disableServicedIsr  &= ~CY_SYS_WDT_COUNTER1_INT;
 1737              		.loc 1 1293 0
 1738 007c 174B     		ldr	r3, .L158+8
 1739 007e 1B68     		ldr	r3, [r3]
 1740 0080 184A     		ldr	r2, .L158+16
 1741 0082 1A40     		and	r2, r3
 1742 0084 154B     		ldr	r3, .L158+8
 1743 0086 1A60     		str	r2, [r3]
1294:.\Generated_Source\PSoC4/CyLFClk.c ****                 if(cySysWdtCallback[CY_SYS_WDT_COUNTER1] != (void *) 0)
 1744              		.loc 1 1294 0
 1745 0088 154B     		ldr	r3, .L158+12
 1746 008a 5B68     		ldr	r3, [r3, #4]
 1747 008c 002B     		cmp	r3, #0
 1748 008e 02D0     		beq	.L155
1295:.\Generated_Source\PSoC4/CyLFClk.c ****                 {
1296:.\Generated_Source\PSoC4/CyLFClk.c ****                     (void)(cySysWdtCallback[CY_SYS_WDT_COUNTER1])();
 1749              		.loc 1 1296 0
 1750 0090 134B     		ldr	r3, .L158+12
 1751 0092 5B68     		ldr	r3, [r3, #4]
 1752 0094 9847     		blx	r3
 1753              	.L155:
1297:.\Generated_Source\PSoC4/CyLFClk.c ****                 }
1298:.\Generated_Source\PSoC4/CyLFClk.c ****             }
1299:.\Generated_Source\PSoC4/CyLFClk.c ****             CySysWdtClearInterrupt(CY_SYS_WDT_COUNTER1_INT);
 1754              		.loc 1 1299 0
 1755 0096 8023     		mov	r3, #128
 1756 0098 DB00     		lsl	r3, r3, #3
 1757 009a 181C     		mov	r0, r3
 1758 009c FFF7FEFF 		bl	CySysWdtClearInterrupt
 1759              	.L154:
1300:.\Generated_Source\PSoC4/CyLFClk.c ****         }
1301:.\Generated_Source\PSoC4/CyLFClk.c **** 
1302:.\Generated_Source\PSoC4/CyLFClk.c ****         if(0u != (CY_SYS_WDT_COUNTER2_INT & CY_SYS_WDT_CONTROL_REG))
 1760              		.loc 1 1302 0
 1761 00a0 0C4B     		ldr	r3, .L158
 1762 00a2 1A68     		ldr	r2, [r3]
 1763 00a4 8023     		mov	r3, #128
 1764 00a6 DB02     		lsl	r3, r3, #11
 1765 00a8 1340     		and	r3, r2
 1766 00aa 11D0     		beq	.L151
1303:.\Generated_Source\PSoC4/CyLFClk.c ****         {
1304:.\Generated_Source\PSoC4/CyLFClk.c ****             if(0u != (CY_SYS_WDT_COUNTER2_INT & wdtIsrMask))
 1767              		.loc 1 1304 0
ARM GAS  C:\Users\LUKASC~1\AppData\Local\Temp\ccSv4rUt.s 			page 55


 1768 00ac 0A4B     		ldr	r3, .L158+4
 1769 00ae 1A68     		ldr	r2, [r3]
 1770 00b0 8023     		mov	r3, #128
 1771 00b2 DB02     		lsl	r3, r3, #11
 1772 00b4 1340     		and	r3, r2
 1773 00b6 06D0     		beq	.L157
1305:.\Generated_Source\PSoC4/CyLFClk.c ****             {
1306:.\Generated_Source\PSoC4/CyLFClk.c ****                 if(cySysWdtCallback[CY_SYS_WDT_COUNTER2] != (void *) 0)
 1774              		.loc 1 1306 0
 1775 00b8 094B     		ldr	r3, .L158+12
 1776 00ba 9B68     		ldr	r3, [r3, #8]
 1777 00bc 002B     		cmp	r3, #0
 1778 00be 02D0     		beq	.L157
1307:.\Generated_Source\PSoC4/CyLFClk.c ****                 {
1308:.\Generated_Source\PSoC4/CyLFClk.c ****                     (void)(cySysWdtCallback[CY_SYS_WDT_COUNTER2])();
 1779              		.loc 1 1308 0
 1780 00c0 074B     		ldr	r3, .L158+12
 1781 00c2 9B68     		ldr	r3, [r3, #8]
 1782 00c4 9847     		blx	r3
 1783              	.L157:
1309:.\Generated_Source\PSoC4/CyLFClk.c ****                 }
1310:.\Generated_Source\PSoC4/CyLFClk.c ****             }
1311:.\Generated_Source\PSoC4/CyLFClk.c ****             CySysWdtClearInterrupt(CY_SYS_WDT_COUNTER2_INT);
 1784              		.loc 1 1311 0
 1785 00c6 8023     		mov	r3, #128
 1786 00c8 DB02     		lsl	r3, r3, #11
 1787 00ca 181C     		mov	r0, r3
 1788 00cc FFF7FEFF 		bl	CySysWdtClearInterrupt
 1789              	.L151:
1312:.\Generated_Source\PSoC4/CyLFClk.c ****         }
1313:.\Generated_Source\PSoC4/CyLFClk.c ****     }
 1790              		.loc 1 1313 0
 1791 00d0 BD46     		mov	sp, r7
 1792              		@ sp needed
 1793 00d2 80BD     		pop	{r7, pc}
 1794              	.L159:
 1795              		.align	2
 1796              	.L158:
 1797 00d4 10020B40 		.word	1074463248
 1798 00d8 00000000 		.word	wdtIsrMask
 1799 00dc 08000000 		.word	disableServicedIsr
 1800 00e0 0C000000 		.word	cySysWdtCallback
 1801 00e4 FFFBFFFF 		.word	-1025
 1802              		.cfi_endproc
 1803              	.LFE27:
 1804              		.size	CySysWdtIsr, .-CySysWdtIsr
 1805              		.section	.text.CySysTimerDelay,"ax",%progbits
 1806              		.align	2
 1807              		.global	CySysTimerDelay
 1808              		.code	16
 1809              		.thumb_func
 1810              		.type	CySysTimerDelay, %function
 1811              	CySysTimerDelay:
 1812              	.LFB28:
1314:.\Generated_Source\PSoC4/CyLFClk.c **** 
1315:.\Generated_Source\PSoC4/CyLFClk.c **** 
1316:.\Generated_Source\PSoC4/CyLFClk.c ****     /*******************************************************************************
ARM GAS  C:\Users\LUKASC~1\AppData\Local\Temp\ccSv4rUt.s 			page 56


1317:.\Generated_Source\PSoC4/CyLFClk.c ****     * Function Name: CySysTimerDelay
1318:.\Generated_Source\PSoC4/CyLFClk.c ****     ********************************************************************************
1319:.\Generated_Source\PSoC4/CyLFClk.c ****     *
1320:.\Generated_Source\PSoC4/CyLFClk.c ****     * Summary:
1321:.\Generated_Source\PSoC4/CyLFClk.c ****     *  The function implements the delay specified in the LFCLK clock ticks. The
1322:.\Generated_Source\PSoC4/CyLFClk.c ****     *  specified WDT counter should be configured as described below and started.
1323:.\Generated_Source\PSoC4/CyLFClk.c ****     *
1324:.\Generated_Source\PSoC4/CyLFClk.c ****     *  This function can operate in two modes: the "WAIT" and "INTERRUPT" modes. In
1325:.\Generated_Source\PSoC4/CyLFClk.c ****     *  the "WAIT" mode, the function waits for the specified number of ticks. In the
1326:.\Generated_Source\PSoC4/CyLFClk.c ****     *  "INTERRUPT" mode, the interrupt is generated after the specified number of
1327:.\Generated_Source\PSoC4/CyLFClk.c ****     *  ticks.
1328:.\Generated_Source\PSoC4/CyLFClk.c ****     *
1329:.\Generated_Source\PSoC4/CyLFClk.c ****     *  For the correct function operation, the "Clear On Match" option should be
1330:.\Generated_Source\PSoC4/CyLFClk.c ****     *  disabled for the specified WDT counter. Use CySysWdtSetClearOnMatch()
1331:.\Generated_Source\PSoC4/CyLFClk.c ****     *  function with the "enable" parameter equal to zero for the used WDT counter.
1332:.\Generated_Source\PSoC4/CyLFClk.c ****     *
1333:.\Generated_Source\PSoC4/CyLFClk.c ****     *  The corresponding WDT counter should be configured to match the selected
1334:.\Generated_Source\PSoC4/CyLFClk.c ****     *  mode: "Free running Timer" for the "WAIT" mode, and
1335:.\Generated_Source\PSoC4/CyLFClk.c ****     *  "Periodic Timer" / "Watchdog (w/Interrupt)" for the "INTERRUPT" mode.
1336:.\Generated_Source\PSoC4/CyLFClk.c ****     *
1337:.\Generated_Source\PSoC4/CyLFClk.c ****     *  This can be configured in two ways:
1338:.\Generated_Source\PSoC4/CyLFClk.c ****     *  - Through the DWR page. Open the "Clocks" tab, click the "Edit Clocks..."
1339:.\Generated_Source\PSoC4/CyLFClk.c ****     *    button, in the "Configure System Clocks" window click on the
1340:.\Generated_Source\PSoC4/CyLFClk.c ****     *    "Low Frequency Clocks" tab and choose the appropriate option for the used
1341:.\Generated_Source\PSoC4/CyLFClk.c ****     *    WDT counter.
1342:.\Generated_Source\PSoC4/CyLFClk.c ****     *
1343:.\Generated_Source\PSoC4/CyLFClk.c ****     *  - Through the CySysWdtSetMode() function. Call it with the appropriate mode
1344:.\Generated_Source\PSoC4/CyLFClk.c ****     *    parameter for the used WDT counter.
1345:.\Generated_Source\PSoC4/CyLFClk.c ****     *
1346:.\Generated_Source\PSoC4/CyLFClk.c ****     *  For the "INTERRUPT" mode, the recommended sequence is the following:
1347:.\Generated_Source\PSoC4/CyLFClk.c ****     *  - Call the CySysWdtDisableCounterIsr() function to disable servicing
1348:.\Generated_Source\PSoC4/CyLFClk.c ****     *    interrupts of the specified WDT counter.
1349:.\Generated_Source\PSoC4/CyLFClk.c ****     *
1350:.\Generated_Source\PSoC4/CyLFClk.c ****     *  - Call the CySysWdtSetInterruptCallback() function to register the callback
1351:.\Generated_Source\PSoC4/CyLFClk.c ****     *    function for the corresponding WDT counter.
1352:.\Generated_Source\PSoC4/CyLFClk.c ****     *
1353:.\Generated_Source\PSoC4/CyLFClk.c ****     *  - Call the CySysTimerDelay() function.
1354:.\Generated_Source\PSoC4/CyLFClk.c ****     *
1355:.\Generated_Source\PSoC4/CyLFClk.c ****     * Parameters:
1356:.\Generated_Source\PSoC4/CyLFClk.c ****     *  counterNum: Valid range [0-1]. The number of the WDT counter (WDT0 or WDT1).
1357:.\Generated_Source\PSoC4/CyLFClk.c ****     *  delayType : Defines the operation mode.
1358:.\Generated_Source\PSoC4/CyLFClk.c ****     *               CY_SYS_TIMER_WAIT       "WAIT" mode.
1359:.\Generated_Source\PSoC4/CyLFClk.c ****     *               CY_SYS_TIMER_INTERRUPT  "INTERRUPT" mode.
1360:.\Generated_Source\PSoC4/CyLFClk.c ****     *  delay:  The delay value in the LFCLK ticks (allowable range - 16-bit value).
1361:.\Generated_Source\PSoC4/CyLFClk.c ****     *
1362:.\Generated_Source\PSoC4/CyLFClk.c ****     * Return:
1363:.\Generated_Source\PSoC4/CyLFClk.c ****     *  None
1364:.\Generated_Source\PSoC4/CyLFClk.c ****     *
1365:.\Generated_Source\PSoC4/CyLFClk.c ****     * Side effects:
1366:.\Generated_Source\PSoC4/CyLFClk.c ****     *  In the "INTERRUPT" mode, this function enables ISR callback servicing
1367:.\Generated_Source\PSoC4/CyLFClk.c ****     *  from the corresponding WDT counter. Servicing of this ISR callback will be
1368:.\Generated_Source\PSoC4/CyLFClk.c ****     *  disabled after the expiration of the delay time.
1369:.\Generated_Source\PSoC4/CyLFClk.c ****     *
1370:.\Generated_Source\PSoC4/CyLFClk.c ****     *******************************************************************************/
1371:.\Generated_Source\PSoC4/CyLFClk.c ****     void CySysTimerDelay(uint32 counterNum, cy_sys_timer_delaytype_enum delayType, uint32 delay)
1372:.\Generated_Source\PSoC4/CyLFClk.c ****     {
 1813              		.loc 1 1372 0
ARM GAS  C:\Users\LUKASC~1\AppData\Local\Temp\ccSv4rUt.s 			page 57


 1814              		.cfi_startproc
 1815 0000 80B5     		push	{r7, lr}
 1816              		.cfi_def_cfa_offset 8
 1817              		.cfi_offset 7, -8
 1818              		.cfi_offset 14, -4
 1819 0002 86B0     		sub	sp, sp, #24
 1820              		.cfi_def_cfa_offset 32
 1821 0004 00AF     		add	r7, sp, #0
 1822              		.cfi_def_cfa_register 7
 1823 0006 F860     		str	r0, [r7, #12]
 1824 0008 7A60     		str	r2, [r7, #4]
 1825 000a 0B23     		mov	r3, #11
 1826 000c FB18     		add	r3, r7, r3
 1827 000e 0A1C     		add	r2, r1, #0
 1828 0010 1A70     		strb	r2, [r3]
1373:.\Generated_Source\PSoC4/CyLFClk.c ****         uint32 regValue;
1374:.\Generated_Source\PSoC4/CyLFClk.c ****         uint32 matchValue;
1375:.\Generated_Source\PSoC4/CyLFClk.c **** 
1376:.\Generated_Source\PSoC4/CyLFClk.c ****         if((counterNum < CY_SYS_WDT_COUNTER2) && (0uL == CySysWdtGetClearOnMatch(counterNum)) && (d
 1829              		.loc 1 1376 0
 1830 0012 FB68     		ldr	r3, [r7, #12]
 1831 0014 012B     		cmp	r3, #1
 1832 0016 20D8     		bhi	.L161
 1833              		.loc 1 1376 0 is_stmt 0 discriminator 1
 1834 0018 FB68     		ldr	r3, [r7, #12]
 1835 001a 181C     		mov	r0, r3
 1836 001c FFF7FEFF 		bl	CySysWdtGetClearOnMatch
 1837 0020 031E     		sub	r3, r0, #0
 1838 0022 1AD1     		bne	.L161
 1839              		.loc 1 1376 0 discriminator 2
 1840 0024 7B68     		ldr	r3, [r7, #4]
 1841 0026 104A     		ldr	r2, .L163
 1842 0028 9342     		cmp	r3, r2
 1843 002a 16D8     		bhi	.L161
1377:.\Generated_Source\PSoC4/CyLFClk.c ****         {
1378:.\Generated_Source\PSoC4/CyLFClk.c ****             regValue   = CySysWdtGetCount(counterNum);
 1844              		.loc 1 1378 0 is_stmt 1
 1845 002c FB68     		ldr	r3, [r7, #12]
 1846 002e 181C     		mov	r0, r3
 1847 0030 FFF7FEFF 		bl	CySysWdtGetCount
 1848 0034 031C     		mov	r3, r0
 1849 0036 7B61     		str	r3, [r7, #20]
1379:.\Generated_Source\PSoC4/CyLFClk.c ****             matchValue = (regValue + delay) & (uint32)UINT16_MAX_VAL;
 1850              		.loc 1 1379 0
 1851 0038 7A69     		ldr	r2, [r7, #20]
 1852 003a 7B68     		ldr	r3, [r7, #4]
 1853 003c D318     		add	r3, r2, r3
 1854 003e 1B04     		lsl	r3, r3, #16
 1855 0040 1B0C     		lsr	r3, r3, #16
 1856 0042 3B61     		str	r3, [r7, #16]
1380:.\Generated_Source\PSoC4/CyLFClk.c **** 
1381:.\Generated_Source\PSoC4/CyLFClk.c ****             CySysTimerDelayUntilMatch(counterNum, delayType, matchValue);
 1857              		.loc 1 1381 0
 1858 0044 F968     		ldr	r1, [r7, #12]
 1859 0046 0B23     		mov	r3, #11
 1860 0048 FB18     		add	r3, r7, r3
 1861 004a 1A78     		ldrb	r2, [r3]
ARM GAS  C:\Users\LUKASC~1\AppData\Local\Temp\ccSv4rUt.s 			page 58


 1862 004c 3B69     		ldr	r3, [r7, #16]
 1863 004e 081C     		mov	r0, r1
 1864 0050 111C     		mov	r1, r2
 1865 0052 1A1C     		mov	r2, r3
 1866 0054 FFF7FEFF 		bl	CySysTimerDelayUntilMatch
 1867 0058 02E0     		b	.L160
 1868              	.L161:
1382:.\Generated_Source\PSoC4/CyLFClk.c ****         }
1383:.\Generated_Source\PSoC4/CyLFClk.c ****         else
1384:.\Generated_Source\PSoC4/CyLFClk.c ****         {
1385:.\Generated_Source\PSoC4/CyLFClk.c ****             CYASSERT(0u != 0u);
 1869              		.loc 1 1385 0 discriminator 1
 1870 005a 0020     		mov	r0, #0
 1871 005c FFF7FEFF 		bl	CyHalt
 1872              	.L160:
1386:.\Generated_Source\PSoC4/CyLFClk.c ****         }
1387:.\Generated_Source\PSoC4/CyLFClk.c ****     }
 1873              		.loc 1 1387 0
 1874 0060 BD46     		mov	sp, r7
 1875 0062 06B0     		add	sp, sp, #24
 1876              		@ sp needed
 1877 0064 80BD     		pop	{r7, pc}
 1878              	.L164:
 1879 0066 C046     		.align	2
 1880              	.L163:
 1881 0068 FFFF0000 		.word	65535
 1882              		.cfi_endproc
 1883              	.LFE28:
 1884              		.size	CySysTimerDelay, .-CySysTimerDelay
 1885              		.section	.text.CySysTimerDelayUntilMatch,"ax",%progbits
 1886              		.align	2
 1887              		.global	CySysTimerDelayUntilMatch
 1888              		.code	16
 1889              		.thumb_func
 1890              		.type	CySysTimerDelayUntilMatch, %function
 1891              	CySysTimerDelayUntilMatch:
 1892              	.LFB29:
1388:.\Generated_Source\PSoC4/CyLFClk.c **** 
1389:.\Generated_Source\PSoC4/CyLFClk.c **** 
1390:.\Generated_Source\PSoC4/CyLFClk.c ****     /*******************************************************************************
1391:.\Generated_Source\PSoC4/CyLFClk.c ****     * Function Name: CySysTimerDelayUntilMatch
1392:.\Generated_Source\PSoC4/CyLFClk.c ****     ********************************************************************************
1393:.\Generated_Source\PSoC4/CyLFClk.c ****     *
1394:.\Generated_Source\PSoC4/CyLFClk.c ****     * Summary:
1395:.\Generated_Source\PSoC4/CyLFClk.c ****     *  The function implements the delay specified as the number of LFCLK ticks
1396:.\Generated_Source\PSoC4/CyLFClk.c ****     *  between the specified WDT counter's current value and the "match" passed as
1397:.\Generated_Source\PSoC4/CyLFClk.c ****     *  the parameter to this function. The current WDT counter value can be obtained
1398:.\Generated_Source\PSoC4/CyLFClk.c ****     *  using the CySysWdtGetCount() function.
1399:.\Generated_Source\PSoC4/CyLFClk.c ****     *
1400:.\Generated_Source\PSoC4/CyLFClk.c ****     *  This function can operate in two modes: the "WAIT" and "INTERRUPT" mode. In
1401:.\Generated_Source\PSoC4/CyLFClk.c ****     *  the "WAIT" mode, the function waits while the used WDT counter value becomes
1402:.\Generated_Source\PSoC4/CyLFClk.c ****     *  equal to the match value. In the "INTERRUPT" mode, the interrupt is generated
1403:.\Generated_Source\PSoC4/CyLFClk.c ****     *  when the used WDT counter became equal to the "match" value.
1404:.\Generated_Source\PSoC4/CyLFClk.c ****     *
1405:.\Generated_Source\PSoC4/CyLFClk.c ****     *  For the correct function operation, the "Clear On Match" option should be
1406:.\Generated_Source\PSoC4/CyLFClk.c ****     *  disabled for the specified WDT counter. Use CySysWdtSetClearOnMatch()
1407:.\Generated_Source\PSoC4/CyLFClk.c ****     *  function with the "enable" parameter equal to zero for the used WDT counter.
ARM GAS  C:\Users\LUKASC~1\AppData\Local\Temp\ccSv4rUt.s 			page 59


1408:.\Generated_Source\PSoC4/CyLFClk.c ****     *
1409:.\Generated_Source\PSoC4/CyLFClk.c ****     *  The corresponding WDT counter should be configured to match the selected mode:
1410:.\Generated_Source\PSoC4/CyLFClk.c ****     *  "Free running Timer" for the "WAIT" mode, and "Periodic Timer" / "Watchdog
1411:.\Generated_Source\PSoC4/CyLFClk.c ****     *  (w/Interrupt)" for the "INTERRUPT" mode.
1412:.\Generated_Source\PSoC4/CyLFClk.c ****     *
1413:.\Generated_Source\PSoC4/CyLFClk.c ****     *  This can be configured in two ways:
1414:.\Generated_Source\PSoC4/CyLFClk.c ****     *  - Through the DWR page. Open the "Clocks" tab, click the "Edit Clocks..."
1415:.\Generated_Source\PSoC4/CyLFClk.c ****     *    button, in the "Configure System Clocks" window click on the
1416:.\Generated_Source\PSoC4/CyLFClk.c ****     *    "Low Frequency Clocks" tab and choose the appropriate option for the used
1417:.\Generated_Source\PSoC4/CyLFClk.c ****     *    WDT counter.
1418:.\Generated_Source\PSoC4/CyLFClk.c ****     *
1419:.\Generated_Source\PSoC4/CyLFClk.c ****     *  - Through the CySysWdtSetMode() function. Call it with the appropriate "mode"
1420:.\Generated_Source\PSoC4/CyLFClk.c ****     *    parameter for the used WDT counter.
1421:.\Generated_Source\PSoC4/CyLFClk.c ****     *
1422:.\Generated_Source\PSoC4/CyLFClk.c ****     *  For the "INTERRUPT" mode, the recommended sequence is the following:
1423:.\Generated_Source\PSoC4/CyLFClk.c ****     *  - Call the CySysWdtDisableCounterIsr() function to disable servicing
1424:.\Generated_Source\PSoC4/CyLFClk.c ****     *    interrupts of the specified WDT counter.
1425:.\Generated_Source\PSoC4/CyLFClk.c ****     *
1426:.\Generated_Source\PSoC4/CyLFClk.c ****     *  - Call the CySysWdtSetInterruptCallback() function to register the callback
1427:.\Generated_Source\PSoC4/CyLFClk.c ****     *    function for the corresponding WDT counter.
1428:.\Generated_Source\PSoC4/CyLFClk.c ****     *
1429:.\Generated_Source\PSoC4/CyLFClk.c ****     *  - Call the CySysTimerDelay() function.
1430:.\Generated_Source\PSoC4/CyLFClk.c ****     *
1431:.\Generated_Source\PSoC4/CyLFClk.c ****     * Parameters:
1432:.\Generated_Source\PSoC4/CyLFClk.c ****     *  counterNum: Valid range [0-1]. The number of the WDT counter (WDT0 or WDT1).
1433:.\Generated_Source\PSoC4/CyLFClk.c ****     *  delayType : Defines the operation mode.
1434:.\Generated_Source\PSoC4/CyLFClk.c ****     *               CY_SYS_TIMER_WAIT       "WAIT" mode.
1435:.\Generated_Source\PSoC4/CyLFClk.c ****     *               CY_SYS_TIMER_INTERRUPT  "INTERRUPT" mode.
1436:.\Generated_Source\PSoC4/CyLFClk.c ****     *  delay:  The delay value in the LFCLK ticks (allowable range - 16-bit value).
1437:.\Generated_Source\PSoC4/CyLFClk.c ****     *
1438:.\Generated_Source\PSoC4/CyLFClk.c ****     * Return:
1439:.\Generated_Source\PSoC4/CyLFClk.c ****     *  None
1440:.\Generated_Source\PSoC4/CyLFClk.c ****     *
1441:.\Generated_Source\PSoC4/CyLFClk.c ****     * Side effects:
1442:.\Generated_Source\PSoC4/CyLFClk.c ****     *  In the "INTERRUPT" mode, this function enables ISR callback servicing
1443:.\Generated_Source\PSoC4/CyLFClk.c ****     *  from the corresponding WDT counter. Servicing of this ISR callback will be
1444:.\Generated_Source\PSoC4/CyLFClk.c ****     *  disabled after the expiration of the delay time.
1445:.\Generated_Source\PSoC4/CyLFClk.c ****     *
1446:.\Generated_Source\PSoC4/CyLFClk.c ****     *******************************************************************************/
1447:.\Generated_Source\PSoC4/CyLFClk.c ****     void CySysTimerDelayUntilMatch(uint32 counterNum, cy_sys_timer_delaytype_enum delayType, uint32
1448:.\Generated_Source\PSoC4/CyLFClk.c ****     {
 1893              		.loc 1 1448 0
 1894              		.cfi_startproc
 1895 0000 80B5     		push	{r7, lr}
 1896              		.cfi_def_cfa_offset 8
 1897              		.cfi_offset 7, -8
 1898              		.cfi_offset 14, -4
 1899 0002 86B0     		sub	sp, sp, #24
 1900              		.cfi_def_cfa_offset 32
 1901 0004 00AF     		add	r7, sp, #0
 1902              		.cfi_def_cfa_register 7
 1903 0006 F860     		str	r0, [r7, #12]
 1904 0008 7A60     		str	r2, [r7, #4]
 1905 000a 0B23     		mov	r3, #11
 1906 000c FB18     		add	r3, r7, r3
 1907 000e 0A1C     		add	r2, r1, #0
 1908 0010 1A70     		strb	r2, [r3]
ARM GAS  C:\Users\LUKASC~1\AppData\Local\Temp\ccSv4rUt.s 			page 60


1449:.\Generated_Source\PSoC4/CyLFClk.c ****         uint32 tmpValue;
1450:.\Generated_Source\PSoC4/CyLFClk.c **** 
1451:.\Generated_Source\PSoC4/CyLFClk.c ****         if((counterNum < CY_SYS_WDT_COUNTER2) && (0uL == CySysWdtGetClearOnMatch(counterNum)) && (m
 1909              		.loc 1 1451 0
 1910 0012 FB68     		ldr	r3, [r7, #12]
 1911 0014 012B     		cmp	r3, #1
 1912 0016 3BD8     		bhi	.L166
 1913              		.loc 1 1451 0 is_stmt 0 discriminator 1
 1914 0018 FB68     		ldr	r3, [r7, #12]
 1915 001a 181C     		mov	r0, r3
 1916 001c FFF7FEFF 		bl	CySysWdtGetClearOnMatch
 1917 0020 031E     		sub	r3, r0, #0
 1918 0022 35D1     		bne	.L166
 1919              		.loc 1 1451 0 discriminator 2
 1920 0024 7B68     		ldr	r3, [r7, #4]
 1921 0026 1D4A     		ldr	r2, .L172
 1922 0028 9342     		cmp	r3, r2
 1923 002a 31D8     		bhi	.L166
1452:.\Generated_Source\PSoC4/CyLFClk.c ****         {
1453:.\Generated_Source\PSoC4/CyLFClk.c ****             if(delayType == CY_SYS_TIMER_WAIT)
 1924              		.loc 1 1453 0 is_stmt 1
 1925 002c 0B23     		mov	r3, #11
 1926 002e FB18     		add	r3, r7, r3
 1927 0030 1B78     		ldrb	r3, [r3]
 1928 0032 002B     		cmp	r3, #0
 1929 0034 14D1     		bne	.L167
 1930              	.L168:
1454:.\Generated_Source\PSoC4/CyLFClk.c ****             {
1455:.\Generated_Source\PSoC4/CyLFClk.c ****                 do
1456:.\Generated_Source\PSoC4/CyLFClk.c ****                 {
1457:.\Generated_Source\PSoC4/CyLFClk.c ****                     tmpValue = CySysWdtGetCount(counterNum);
 1931              		.loc 1 1457 0 discriminator 1
 1932 0036 FB68     		ldr	r3, [r7, #12]
 1933 0038 181C     		mov	r0, r3
 1934 003a FFF7FEFF 		bl	CySysWdtGetCount
 1935 003e 031C     		mov	r3, r0
 1936 0040 7B61     		str	r3, [r7, #20]
1458:.\Generated_Source\PSoC4/CyLFClk.c ****                 }while(tmpValue > match);
 1937              		.loc 1 1458 0 discriminator 1
 1938 0042 7A69     		ldr	r2, [r7, #20]
 1939 0044 7B68     		ldr	r3, [r7, #4]
 1940 0046 9A42     		cmp	r2, r3
 1941 0048 F5D8     		bhi	.L168
 1942              	.L169:
1459:.\Generated_Source\PSoC4/CyLFClk.c **** 
1460:.\Generated_Source\PSoC4/CyLFClk.c ****                 do
1461:.\Generated_Source\PSoC4/CyLFClk.c ****                 {
1462:.\Generated_Source\PSoC4/CyLFClk.c ****                     tmpValue = CySysWdtGetCount(counterNum);
 1943              		.loc 1 1462 0 discriminator 1
 1944 004a FB68     		ldr	r3, [r7, #12]
 1945 004c 181C     		mov	r0, r3
 1946 004e FFF7FEFF 		bl	CySysWdtGetCount
 1947 0052 031C     		mov	r3, r0
 1948 0054 7B61     		str	r3, [r7, #20]
1463:.\Generated_Source\PSoC4/CyLFClk.c ****                 }while(tmpValue < match);
 1949              		.loc 1 1463 0 discriminator 1
 1950 0056 7A69     		ldr	r2, [r7, #20]
ARM GAS  C:\Users\LUKASC~1\AppData\Local\Temp\ccSv4rUt.s 			page 61


 1951 0058 7B68     		ldr	r3, [r7, #4]
 1952 005a 9A42     		cmp	r2, r3
 1953 005c F5D3     		bcc	.L169
1453:.\Generated_Source\PSoC4/CyLFClk.c ****             {
 1954              		.loc 1 1453 0
 1955 005e 1AE0     		b	.L165
 1956              	.L167:
1464:.\Generated_Source\PSoC4/CyLFClk.c ****             }
1465:.\Generated_Source\PSoC4/CyLFClk.c ****             else
1466:.\Generated_Source\PSoC4/CyLFClk.c ****             {
1467:.\Generated_Source\PSoC4/CyLFClk.c ****                 tmpValue = counterIntMaskTbl[counterNum];
 1957              		.loc 1 1467 0
 1958 0060 0F4B     		ldr	r3, .L172+4
 1959 0062 FA68     		ldr	r2, [r7, #12]
 1960 0064 9200     		lsl	r2, r2, #2
 1961 0066 D358     		ldr	r3, [r2, r3]
 1962 0068 7B61     		str	r3, [r7, #20]
1468:.\Generated_Source\PSoC4/CyLFClk.c ****                 CySysWdtSetMatch(counterNum, match);
 1963              		.loc 1 1468 0
 1964 006a FA68     		ldr	r2, [r7, #12]
 1965 006c 7B68     		ldr	r3, [r7, #4]
 1966 006e 101C     		mov	r0, r2
 1967 0070 191C     		mov	r1, r3
 1968 0072 FFF7FEFF 		bl	CySysWdtSetMatch
1469:.\Generated_Source\PSoC4/CyLFClk.c **** 
1470:.\Generated_Source\PSoC4/CyLFClk.c ****                 disableServicedIsr  |= tmpValue;
 1969              		.loc 1 1470 0
 1970 0076 0B4B     		ldr	r3, .L172+8
 1971 0078 1A68     		ldr	r2, [r3]
 1972 007a 7B69     		ldr	r3, [r7, #20]
 1973 007c 1A43     		orr	r2, r3
 1974 007e 094B     		ldr	r3, .L172+8
 1975 0080 1A60     		str	r2, [r3]
1471:.\Generated_Source\PSoC4/CyLFClk.c ****                 wdtIsrMask |= tmpValue;
 1976              		.loc 1 1471 0
 1977 0082 094B     		ldr	r3, .L172+12
 1978 0084 1A68     		ldr	r2, [r3]
 1979 0086 7B69     		ldr	r3, [r7, #20]
 1980 0088 1A43     		orr	r2, r3
 1981 008a 074B     		ldr	r3, .L172+12
 1982 008c 1A60     		str	r2, [r3]
1453:.\Generated_Source\PSoC4/CyLFClk.c ****             {
 1983              		.loc 1 1453 0
 1984 008e 02E0     		b	.L165
 1985              	.L166:
1472:.\Generated_Source\PSoC4/CyLFClk.c ****             }
1473:.\Generated_Source\PSoC4/CyLFClk.c ****         }
1474:.\Generated_Source\PSoC4/CyLFClk.c ****         else
1475:.\Generated_Source\PSoC4/CyLFClk.c ****         {
1476:.\Generated_Source\PSoC4/CyLFClk.c ****             CYASSERT(0u != 0u);
 1986              		.loc 1 1476 0 discriminator 1
 1987 0090 0020     		mov	r0, #0
 1988 0092 FFF7FEFF 		bl	CyHalt
 1989              	.L165:
1477:.\Generated_Source\PSoC4/CyLFClk.c ****         }
1478:.\Generated_Source\PSoC4/CyLFClk.c ****     }
 1990              		.loc 1 1478 0
ARM GAS  C:\Users\LUKASC~1\AppData\Local\Temp\ccSv4rUt.s 			page 62


 1991 0096 BD46     		mov	sp, r7
 1992 0098 06B0     		add	sp, sp, #24
 1993              		@ sp needed
 1994 009a 80BD     		pop	{r7, pc}
 1995              	.L173:
 1996              		.align	2
 1997              	.L172:
 1998 009c FFFF0000 		.word	65535
 1999 00a0 00000000 		.word	counterIntMaskTbl
 2000 00a4 08000000 		.word	disableServicedIsr
 2001 00a8 00000000 		.word	wdtIsrMask
 2002              		.cfi_endproc
 2003              	.LFE29:
 2004              		.size	CySysTimerDelayUntilMatch, .-CySysTimerDelayUntilMatch
 2005              		.section	.text.CySysWatchdogFeed,"ax",%progbits
 2006              		.align	2
 2007              		.global	CySysWatchdogFeed
 2008              		.code	16
 2009              		.thumb_func
 2010              		.type	CySysWatchdogFeed, %function
 2011              	CySysWatchdogFeed:
 2012              	.LFB30:
1479:.\Generated_Source\PSoC4/CyLFClk.c **** 
1480:.\Generated_Source\PSoC4/CyLFClk.c **** 
1481:.\Generated_Source\PSoC4/CyLFClk.c ****     /*******************************************************************************
1482:.\Generated_Source\PSoC4/CyLFClk.c ****     * Function Name: CySysWatchdogFeed
1483:.\Generated_Source\PSoC4/CyLFClk.c ****     ********************************************************************************
1484:.\Generated_Source\PSoC4/CyLFClk.c ****     *
1485:.\Generated_Source\PSoC4/CyLFClk.c ****     * Summary:
1486:.\Generated_Source\PSoC4/CyLFClk.c ****     *  Feeds the watchdog counter before it causes the device reset. Supported only
1487:.\Generated_Source\PSoC4/CyLFClk.c ****     *  for WDT0 and WDT1 in the "Watchdog" or "Watchdog w/ Interrupts" modes.
1488:.\Generated_Source\PSoC4/CyLFClk.c ****     *
1489:.\Generated_Source\PSoC4/CyLFClk.c ****     * Parameters:
1490:.\Generated_Source\PSoC4/CyLFClk.c ****     *  counterNum:    The number of the WDT counter.
1491:.\Generated_Source\PSoC4/CyLFClk.c ****     *
1492:.\Generated_Source\PSoC4/CyLFClk.c ****     * Return:
1493:.\Generated_Source\PSoC4/CyLFClk.c ****     *  None.
1494:.\Generated_Source\PSoC4/CyLFClk.c ****     *
1495:.\Generated_Source\PSoC4/CyLFClk.c ****     * Side effects:
1496:.\Generated_Source\PSoC4/CyLFClk.c ****     *  Clears the WDT counter in the "Watchdog" mode or clears the WDT interrupt in
1497:.\Generated_Source\PSoC4/CyLFClk.c ****     *  "Watchdog w/ Interrupts" mode. Does nothing in other modes.
1498:.\Generated_Source\PSoC4/CyLFClk.c ****     *
1499:.\Generated_Source\PSoC4/CyLFClk.c ****     *******************************************************************************/
1500:.\Generated_Source\PSoC4/CyLFClk.c ****     void CySysWatchdogFeed(uint32 counterNum)
1501:.\Generated_Source\PSoC4/CyLFClk.c ****     {
 2013              		.loc 1 1501 0
 2014              		.cfi_startproc
 2015 0000 80B5     		push	{r7, lr}
 2016              		.cfi_def_cfa_offset 8
 2017              		.cfi_offset 7, -8
 2018              		.cfi_offset 14, -4
 2019 0002 82B0     		sub	sp, sp, #8
 2020              		.cfi_def_cfa_offset 16
 2021 0004 00AF     		add	r7, sp, #0
 2022              		.cfi_def_cfa_register 7
 2023 0006 7860     		str	r0, [r7, #4]
1502:.\Generated_Source\PSoC4/CyLFClk.c ****         if(counterNum == CY_SYS_WDT_COUNTER0)
ARM GAS  C:\Users\LUKASC~1\AppData\Local\Temp\ccSv4rUt.s 			page 63


 2024              		.loc 1 1502 0
 2025 0008 7B68     		ldr	r3, [r7, #4]
 2026 000a 002B     		cmp	r3, #0
 2027 000c 18D1     		bne	.L175
1503:.\Generated_Source\PSoC4/CyLFClk.c ****         {
1504:.\Generated_Source\PSoC4/CyLFClk.c ****             if(CY_SYS_WDT_MODE_INT_RESET == CySysWdtGetMode(counterNum))
 2028              		.loc 1 1504 0
 2029 000e 7B68     		ldr	r3, [r7, #4]
 2030 0010 181C     		mov	r0, r3
 2031 0012 FFF7FEFF 		bl	CySysWdtGetMode
 2032 0016 031E     		sub	r3, r0, #0
 2033 0018 032B     		cmp	r3, #3
 2034 001a 03D1     		bne	.L176
1505:.\Generated_Source\PSoC4/CyLFClk.c ****             {
1506:.\Generated_Source\PSoC4/CyLFClk.c ****                 CySysWdtClearInterrupt(CY_SYS_WDT_COUNTER0_MASK);
 2035              		.loc 1 1506 0
 2036 001c 0120     		mov	r0, #1
 2037 001e FFF7FEFF 		bl	CySysWdtClearInterrupt
 2038 0022 2EE0     		b	.L174
 2039              	.L176:
1507:.\Generated_Source\PSoC4/CyLFClk.c ****             }
1508:.\Generated_Source\PSoC4/CyLFClk.c ****             else if(CY_SYS_WDT_MODE_RESET == CySysWdtGetMode(counterNum))
 2040              		.loc 1 1508 0
 2041 0024 7B68     		ldr	r3, [r7, #4]
 2042 0026 181C     		mov	r0, r3
 2043 0028 FFF7FEFF 		bl	CySysWdtGetMode
 2044 002c 031E     		sub	r3, r0, #0
 2045 002e 022B     		cmp	r3, #2
 2046 0030 27D1     		bne	.L174
1509:.\Generated_Source\PSoC4/CyLFClk.c ****             {
1510:.\Generated_Source\PSoC4/CyLFClk.c ****                 CySysWdtResetCounters(CY_SYS_WDT_COUNTER0_RESET);
 2047              		.loc 1 1510 0
 2048 0032 0820     		mov	r0, #8
 2049 0034 FFF7FEFF 		bl	CySysWdtResetCounters
1511:.\Generated_Source\PSoC4/CyLFClk.c ****                 CySysWdtClearInterrupt(CY_SYS_WDT_COUNTER0_MASK);
 2050              		.loc 1 1511 0
 2051 0038 0120     		mov	r0, #1
 2052 003a FFF7FEFF 		bl	CySysWdtClearInterrupt
 2053 003e 20E0     		b	.L174
 2054              	.L175:
1512:.\Generated_Source\PSoC4/CyLFClk.c ****             }
1513:.\Generated_Source\PSoC4/CyLFClk.c ****             else
1514:.\Generated_Source\PSoC4/CyLFClk.c ****             {
1515:.\Generated_Source\PSoC4/CyLFClk.c ****                 /* Do nothing. */
1516:.\Generated_Source\PSoC4/CyLFClk.c ****             }
1517:.\Generated_Source\PSoC4/CyLFClk.c ****         }
1518:.\Generated_Source\PSoC4/CyLFClk.c ****         else if(counterNum == CY_SYS_WDT_COUNTER1)
 2055              		.loc 1 1518 0
 2056 0040 7B68     		ldr	r3, [r7, #4]
 2057 0042 012B     		cmp	r3, #1
 2058 0044 1DD1     		bne	.L174
1519:.\Generated_Source\PSoC4/CyLFClk.c ****         {
1520:.\Generated_Source\PSoC4/CyLFClk.c ****             if(CY_SYS_WDT_MODE_INT_RESET == CySysWdtGetMode(counterNum))
 2059              		.loc 1 1520 0
 2060 0046 7B68     		ldr	r3, [r7, #4]
 2061 0048 181C     		mov	r0, r3
 2062 004a FFF7FEFF 		bl	CySysWdtGetMode
ARM GAS  C:\Users\LUKASC~1\AppData\Local\Temp\ccSv4rUt.s 			page 64


 2063 004e 031E     		sub	r3, r0, #0
 2064 0050 032B     		cmp	r3, #3
 2065 0052 05D1     		bne	.L178
1521:.\Generated_Source\PSoC4/CyLFClk.c ****             {
1522:.\Generated_Source\PSoC4/CyLFClk.c ****                 CySysWdtClearInterrupt(CY_SYS_WDT_COUNTER1_MASK);
 2066              		.loc 1 1522 0
 2067 0054 8023     		mov	r3, #128
 2068 0056 5B00     		lsl	r3, r3, #1
 2069 0058 181C     		mov	r0, r3
 2070 005a FFF7FEFF 		bl	CySysWdtClearInterrupt
 2071 005e 10E0     		b	.L174
 2072              	.L178:
1523:.\Generated_Source\PSoC4/CyLFClk.c ****             }
1524:.\Generated_Source\PSoC4/CyLFClk.c ****             else if(CY_SYS_WDT_MODE_RESET == CySysWdtGetMode(counterNum))
 2073              		.loc 1 1524 0
 2074 0060 7B68     		ldr	r3, [r7, #4]
 2075 0062 181C     		mov	r0, r3
 2076 0064 FFF7FEFF 		bl	CySysWdtGetMode
 2077 0068 031E     		sub	r3, r0, #0
 2078 006a 022B     		cmp	r3, #2
 2079 006c 09D1     		bne	.L174
1525:.\Generated_Source\PSoC4/CyLFClk.c ****             {
1526:.\Generated_Source\PSoC4/CyLFClk.c ****                 CySysWdtResetCounters(CY_SYS_WDT_COUNTER1_RESET);
 2080              		.loc 1 1526 0
 2081 006e 8023     		mov	r3, #128
 2082 0070 1B01     		lsl	r3, r3, #4
 2083 0072 181C     		mov	r0, r3
 2084 0074 FFF7FEFF 		bl	CySysWdtResetCounters
1527:.\Generated_Source\PSoC4/CyLFClk.c ****                 CySysWdtClearInterrupt(CY_SYS_WDT_COUNTER1_MASK);
 2085              		.loc 1 1527 0
 2086 0078 8023     		mov	r3, #128
 2087 007a 5B00     		lsl	r3, r3, #1
 2088 007c 181C     		mov	r0, r3
 2089 007e FFF7FEFF 		bl	CySysWdtClearInterrupt
 2090              	.L174:
1528:.\Generated_Source\PSoC4/CyLFClk.c ****             }
1529:.\Generated_Source\PSoC4/CyLFClk.c ****             else
1530:.\Generated_Source\PSoC4/CyLFClk.c ****             {
1531:.\Generated_Source\PSoC4/CyLFClk.c ****                 /* Do nothing. */
1532:.\Generated_Source\PSoC4/CyLFClk.c ****             }
1533:.\Generated_Source\PSoC4/CyLFClk.c ****         }
1534:.\Generated_Source\PSoC4/CyLFClk.c ****         else
1535:.\Generated_Source\PSoC4/CyLFClk.c ****         {
1536:.\Generated_Source\PSoC4/CyLFClk.c ****             /* Do nothing. */
1537:.\Generated_Source\PSoC4/CyLFClk.c ****         }
1538:.\Generated_Source\PSoC4/CyLFClk.c ****     }
 2091              		.loc 1 1538 0
 2092 0082 BD46     		mov	sp, r7
 2093 0084 02B0     		add	sp, sp, #8
 2094              		@ sp needed
 2095 0086 80BD     		pop	{r7, pc}
 2096              		.cfi_endproc
 2097              	.LFE30:
 2098              		.size	CySysWatchdogFeed, .-CySysWatchdogFeed
 2099              		.section	.text.CySysClkLfclkPosedgeCatch,"ax",%progbits
 2100              		.align	2
 2101              		.code	16
ARM GAS  C:\Users\LUKASC~1\AppData\Local\Temp\ccSv4rUt.s 			page 65


 2102              		.thumb_func
 2103              		.type	CySysClkLfclkPosedgeCatch, %function
 2104              	CySysClkLfclkPosedgeCatch:
 2105              	.LFB31:
1539:.\Generated_Source\PSoC4/CyLFClk.c **** 
1540:.\Generated_Source\PSoC4/CyLFClk.c **** 
1541:.\Generated_Source\PSoC4/CyLFClk.c ****     /*******************************************************************************
1542:.\Generated_Source\PSoC4/CyLFClk.c ****     * Function Name: CySysClkLfclkPosedgeCatch
1543:.\Generated_Source\PSoC4/CyLFClk.c ****     ********************************************************************************
1544:.\Generated_Source\PSoC4/CyLFClk.c ****     *
1545:.\Generated_Source\PSoC4/CyLFClk.c ****     * Summary:
1546:.\Generated_Source\PSoC4/CyLFClk.c ****     *  Returns once the LFCLK positive edge occurred.
1547:.\Generated_Source\PSoC4/CyLFClk.c ****     *
1548:.\Generated_Source\PSoC4/CyLFClk.c ****     *  CySysClkLfclkPosedgeRestore() should be called after this function
1549:.\Generated_Source\PSoC4/CyLFClk.c ****     *  to restore the WDT configuration.
1550:.\Generated_Source\PSoC4/CyLFClk.c ****     *
1551:.\Generated_Source\PSoC4/CyLFClk.c ****     *  A pair of the CySysClkLfclkPosedgeCatch() and CySysClkLfclkPosedgeRestore()
1552:.\Generated_Source\PSoC4/CyLFClk.c ****     *  functions is expected to be called inside a critical section.
1553:.\Generated_Source\PSoC4/CyLFClk.c ****     *
1554:.\Generated_Source\PSoC4/CyLFClk.c ****     *  To ensure that the WDT counter value is read until it changes, the enabled
1555:.\Generated_Source\PSoC4/CyLFClk.c ****     *  WDT counter is used. If no counter is enabled, counter 0 is enabled.
1556:.\Generated_Source\PSoC4/CyLFClk.c ****     *  And after the LFCLK source is switched, the counter 0 configuration
1557:.\Generated_Source\PSoC4/CyLFClk.c ****     *  is restored.
1558:.\Generated_Source\PSoC4/CyLFClk.c ****     *
1559:.\Generated_Source\PSoC4/CyLFClk.c ****     *  Not applicable for the PSoC 4000 devices.
1560:.\Generated_Source\PSoC4/CyLFClk.c ****     *
1561:.\Generated_Source\PSoC4/CyLFClk.c ****     * Parameters:
1562:.\Generated_Source\PSoC4/CyLFClk.c ****     *  None.
1563:.\Generated_Source\PSoC4/CyLFClk.c ****     *
1564:.\Generated_Source\PSoC4/CyLFClk.c ****     * Return:
1565:.\Generated_Source\PSoC4/CyLFClk.c ****     *  None.
1566:.\Generated_Source\PSoC4/CyLFClk.c ****     *
1567:.\Generated_Source\PSoC4/CyLFClk.c ****     * Side Effects:
1568:.\Generated_Source\PSoC4/CyLFClk.c ****     *  This function has no effect if WDT is locked (CySysWdtLock() is
1569:.\Generated_Source\PSoC4/CyLFClk.c ****     *  called). Call CySysWdtUnlock() to unlock WDT.
1570:.\Generated_Source\PSoC4/CyLFClk.c ****     *
1571:.\Generated_Source\PSoC4/CyLFClk.c ****     *******************************************************************************/
1572:.\Generated_Source\PSoC4/CyLFClk.c ****     static void CySysClkLfclkPosedgeCatch(void)
1573:.\Generated_Source\PSoC4/CyLFClk.c ****     {
 2106              		.loc 1 1573 0
 2107              		.cfi_startproc
 2108 0000 80B5     		push	{r7, lr}
 2109              		.cfi_def_cfa_offset 8
 2110              		.cfi_offset 7, -8
 2111              		.cfi_offset 14, -4
 2112 0002 82B0     		sub	sp, sp, #8
 2113              		.cfi_def_cfa_offset 16
 2114 0004 00AF     		add	r7, sp, #0
 2115              		.cfi_def_cfa_register 7
1574:.\Generated_Source\PSoC4/CyLFClk.c ****         uint32 firstCount;
1575:.\Generated_Source\PSoC4/CyLFClk.c ****         static uint32 lfclkPosedgeEnabledWdtCounter = 0u;
1576:.\Generated_Source\PSoC4/CyLFClk.c **** 
1577:.\Generated_Source\PSoC4/CyLFClk.c ****         if (0u != CySysWdtGetEnabledStatus(CY_SYS_WDT_COUNTER0))
 2116              		.loc 1 1577 0
 2117 0006 0020     		mov	r0, #0
 2118 0008 FFF7FEFF 		bl	CySysWdtGetEnabledStatus
 2119 000c 031E     		sub	r3, r0, #0
ARM GAS  C:\Users\LUKASC~1\AppData\Local\Temp\ccSv4rUt.s 			page 66


 2120 000e 03D0     		beq	.L180
1578:.\Generated_Source\PSoC4/CyLFClk.c ****         {
1579:.\Generated_Source\PSoC4/CyLFClk.c ****             lfclkPosedgeEnabledWdtCounter = CY_SYS_WDT_COUNTER0;
 2121              		.loc 1 1579 0
 2122 0010 1E4B     		ldr	r3, .L185
 2123 0012 0022     		mov	r2, #0
 2124 0014 1A60     		str	r2, [r3]
 2125 0016 24E0     		b	.L181
 2126              	.L180:
1580:.\Generated_Source\PSoC4/CyLFClk.c ****         }
1581:.\Generated_Source\PSoC4/CyLFClk.c ****         else if (0u != CySysWdtGetEnabledStatus(CY_SYS_WDT_COUNTER1))
 2127              		.loc 1 1581 0
 2128 0018 0120     		mov	r0, #1
 2129 001a FFF7FEFF 		bl	CySysWdtGetEnabledStatus
 2130 001e 031E     		sub	r3, r0, #0
 2131 0020 03D0     		beq	.L182
1582:.\Generated_Source\PSoC4/CyLFClk.c ****         {
1583:.\Generated_Source\PSoC4/CyLFClk.c ****             lfclkPosedgeEnabledWdtCounter = CY_SYS_WDT_COUNTER1;
 2132              		.loc 1 1583 0
 2133 0022 1A4B     		ldr	r3, .L185
 2134 0024 0122     		mov	r2, #1
 2135 0026 1A60     		str	r2, [r3]
 2136 0028 1BE0     		b	.L181
 2137              	.L182:
1584:.\Generated_Source\PSoC4/CyLFClk.c ****         }
1585:.\Generated_Source\PSoC4/CyLFClk.c ****         else if (0u != CySysWdtGetEnabledStatus(CY_SYS_WDT_COUNTER2))
 2138              		.loc 1 1585 0
 2139 002a 0220     		mov	r0, #2
 2140 002c FFF7FEFF 		bl	CySysWdtGetEnabledStatus
 2141 0030 031E     		sub	r3, r0, #0
 2142 0032 03D0     		beq	.L183
1586:.\Generated_Source\PSoC4/CyLFClk.c ****         {
1587:.\Generated_Source\PSoC4/CyLFClk.c ****             lfclkPosedgeEnabledWdtCounter = CY_SYS_WDT_COUNTER2;
 2143              		.loc 1 1587 0
 2144 0034 154B     		ldr	r3, .L185
 2145 0036 0222     		mov	r2, #2
 2146 0038 1A60     		str	r2, [r3]
 2147 003a 12E0     		b	.L181
 2148              	.L183:
1588:.\Generated_Source\PSoC4/CyLFClk.c ****         }
1589:.\Generated_Source\PSoC4/CyLFClk.c ****         else /* All WDT counters are disabled */
1590:.\Generated_Source\PSoC4/CyLFClk.c ****         {
1591:.\Generated_Source\PSoC4/CyLFClk.c ****             /* Configure WDT counter # 0 */
1592:.\Generated_Source\PSoC4/CyLFClk.c ****             lfclkPosedgeWdtCounter0Enabled = 1u;
 2149              		.loc 1 1592 0
 2150 003c 144B     		ldr	r3, .L185+4
 2151 003e 0122     		mov	r2, #1
 2152 0040 1A60     		str	r2, [r3]
1593:.\Generated_Source\PSoC4/CyLFClk.c ****             lfclkPosedgeEnabledWdtCounter = CY_SYS_WDT_COUNTER0;
 2153              		.loc 1 1593 0
 2154 0042 124B     		ldr	r3, .L185
 2155 0044 0022     		mov	r2, #0
 2156 0046 1A60     		str	r2, [r3]
1594:.\Generated_Source\PSoC4/CyLFClk.c **** 
1595:.\Generated_Source\PSoC4/CyLFClk.c ****             lfclkPosedgeWdtCounter0Mode = CySysWdtGetMode(CY_SYS_WDT_COUNTER0);
 2157              		.loc 1 1595 0
 2158 0048 0020     		mov	r0, #0
ARM GAS  C:\Users\LUKASC~1\AppData\Local\Temp\ccSv4rUt.s 			page 67


 2159 004a FFF7FEFF 		bl	CySysWdtGetMode
 2160 004e 021C     		mov	r2, r0
 2161 0050 104B     		ldr	r3, .L185+8
 2162 0052 1A60     		str	r2, [r3]
1596:.\Generated_Source\PSoC4/CyLFClk.c ****             CySysWdtSetMode(CY_SYS_WDT_COUNTER0, CY_SYS_WDT_MODE_NONE);
 2163              		.loc 1 1596 0
 2164 0054 0020     		mov	r0, #0
 2165 0056 0021     		mov	r1, #0
 2166 0058 FFF7FEFF 		bl	CySysWdtSetMode
1597:.\Generated_Source\PSoC4/CyLFClk.c ****             CySysWdtEnable(CY_SYS_WDT_COUNTER0_MASK);
 2167              		.loc 1 1597 0
 2168 005c 0120     		mov	r0, #1
 2169 005e FFF7FEFF 		bl	CySysWdtEnable
 2170              	.L181:
1598:.\Generated_Source\PSoC4/CyLFClk.c ****         }
1599:.\Generated_Source\PSoC4/CyLFClk.c **** 
1600:.\Generated_Source\PSoC4/CyLFClk.c ****         firstCount = CySysWdtGetCount(lfclkPosedgeEnabledWdtCounter);
 2171              		.loc 1 1600 0
 2172 0062 0A4B     		ldr	r3, .L185
 2173 0064 1B68     		ldr	r3, [r3]
 2174 0066 181C     		mov	r0, r3
 2175 0068 FFF7FEFF 		bl	CySysWdtGetCount
 2176 006c 031C     		mov	r3, r0
 2177 006e 7B60     		str	r3, [r7, #4]
1601:.\Generated_Source\PSoC4/CyLFClk.c ****         while (CySysWdtGetCount(lfclkPosedgeEnabledWdtCounter) == firstCount)
 2178              		.loc 1 1601 0
 2179 0070 C046     		mov	r8, r8
 2180              	.L184:
 2181              		.loc 1 1601 0 is_stmt 0 discriminator 1
 2182 0072 064B     		ldr	r3, .L185
 2183 0074 1B68     		ldr	r3, [r3]
 2184 0076 181C     		mov	r0, r3
 2185 0078 FFF7FEFF 		bl	CySysWdtGetCount
 2186 007c 021E     		sub	r2, r0, #0
 2187 007e 7B68     		ldr	r3, [r7, #4]
 2188 0080 9A42     		cmp	r2, r3
 2189 0082 F6D0     		beq	.L184
1602:.\Generated_Source\PSoC4/CyLFClk.c ****         {
1603:.\Generated_Source\PSoC4/CyLFClk.c ****             /* Wait for counter to increment */
1604:.\Generated_Source\PSoC4/CyLFClk.c ****         }
1605:.\Generated_Source\PSoC4/CyLFClk.c ****     }
 2190              		.loc 1 1605 0 is_stmt 1
 2191 0084 BD46     		mov	sp, r7
 2192 0086 02B0     		add	sp, sp, #8
 2193              		@ sp needed
 2194 0088 80BD     		pop	{r7, pc}
 2195              	.L186:
 2196 008a C046     		.align	2
 2197              	.L185:
 2198 008c 18000000 		.word	lfclkPosedgeEnabledWdtCounter.4838
 2199 0090 00000000 		.word	lfclkPosedgeWdtCounter0Enabled
 2200 0094 04000000 		.word	lfclkPosedgeWdtCounter0Mode
 2201              		.cfi_endproc
 2202              	.LFE31:
 2203              		.size	CySysClkLfclkPosedgeCatch, .-CySysClkLfclkPosedgeCatch
 2204              		.section	.text.CySysClkLfclkPosedgeRestore,"ax",%progbits
 2205              		.align	2
ARM GAS  C:\Users\LUKASC~1\AppData\Local\Temp\ccSv4rUt.s 			page 68


 2206              		.code	16
 2207              		.thumb_func
 2208              		.type	CySysClkLfclkPosedgeRestore, %function
 2209              	CySysClkLfclkPosedgeRestore:
 2210              	.LFB32:
1606:.\Generated_Source\PSoC4/CyLFClk.c **** 
1607:.\Generated_Source\PSoC4/CyLFClk.c **** 
1608:.\Generated_Source\PSoC4/CyLFClk.c ****     /*******************************************************************************
1609:.\Generated_Source\PSoC4/CyLFClk.c ****     * Function Name: CySysClkLfclkPosedgeRestore
1610:.\Generated_Source\PSoC4/CyLFClk.c ****     ********************************************************************************
1611:.\Generated_Source\PSoC4/CyLFClk.c ****     *
1612:.\Generated_Source\PSoC4/CyLFClk.c ****     * Summary:
1613:.\Generated_Source\PSoC4/CyLFClk.c ****     *  Restores the WDT configuration after a CySysClkLfclkPosedgeCatch() call.
1614:.\Generated_Source\PSoC4/CyLFClk.c ****     *
1615:.\Generated_Source\PSoC4/CyLFClk.c ****     *  A pair of the CySysClkLfclkPosedgeCatch() and CySysClkLfclkPosedgeRestore()
1616:.\Generated_Source\PSoC4/CyLFClk.c ****     *  functions is expected to be called inside a critical section.
1617:.\Generated_Source\PSoC4/CyLFClk.c ****     *
1618:.\Generated_Source\PSoC4/CyLFClk.c ****     *  Not applicable for the PSoC 4000 devices.
1619:.\Generated_Source\PSoC4/CyLFClk.c ****     *
1620:.\Generated_Source\PSoC4/CyLFClk.c ****     * Parameters:
1621:.\Generated_Source\PSoC4/CyLFClk.c ****     *  None.
1622:.\Generated_Source\PSoC4/CyLFClk.c ****     *
1623:.\Generated_Source\PSoC4/CyLFClk.c ****     * Return:
1624:.\Generated_Source\PSoC4/CyLFClk.c ****     *  None.
1625:.\Generated_Source\PSoC4/CyLFClk.c ****     *
1626:.\Generated_Source\PSoC4/CyLFClk.c ****     * Side Effects:
1627:.\Generated_Source\PSoC4/CyLFClk.c ****     *  This function has no effect if WDT is locked (CySysWdtLock() is
1628:.\Generated_Source\PSoC4/CyLFClk.c ****     *  called). Call CySysWdtUnlock() to unlock WDT.
1629:.\Generated_Source\PSoC4/CyLFClk.c ****     *
1630:.\Generated_Source\PSoC4/CyLFClk.c ****     *******************************************************************************/
1631:.\Generated_Source\PSoC4/CyLFClk.c ****     static void CySysClkLfclkPosedgeRestore(void)
1632:.\Generated_Source\PSoC4/CyLFClk.c ****     {
 2211              		.loc 1 1632 0
 2212              		.cfi_startproc
 2213 0000 80B5     		push	{r7, lr}
 2214              		.cfi_def_cfa_offset 8
 2215              		.cfi_offset 7, -8
 2216              		.cfi_offset 14, -4
 2217 0002 00AF     		add	r7, sp, #0
 2218              		.cfi_def_cfa_register 7
1633:.\Generated_Source\PSoC4/CyLFClk.c ****         if (lfclkPosedgeWdtCounter0Enabled != 0u)
 2219              		.loc 1 1633 0
 2220 0004 0A4B     		ldr	r3, .L189
 2221 0006 1B68     		ldr	r3, [r3]
 2222 0008 002B     		cmp	r3, #0
 2223 000a 0ED0     		beq	.L187
1634:.\Generated_Source\PSoC4/CyLFClk.c ****         {
1635:.\Generated_Source\PSoC4/CyLFClk.c ****             /* Restore counter # 0 configuration and force its shutdown */
1636:.\Generated_Source\PSoC4/CyLFClk.c ****             CY_SYS_WDT_CONTROL_REG &= (uint32)(~CY_SYS_WDT_COUNTER0_MASK);
 2224              		.loc 1 1636 0
 2225 000c 094B     		ldr	r3, .L189+4
 2226 000e 094A     		ldr	r2, .L189+4
 2227 0010 1268     		ldr	r2, [r2]
 2228 0012 0121     		mov	r1, #1
 2229 0014 8A43     		bic	r2, r1
 2230 0016 1A60     		str	r2, [r3]
1637:.\Generated_Source\PSoC4/CyLFClk.c ****             CySysWdtSetMode(CY_SYS_WDT_COUNTER0, lfclkPosedgeWdtCounter0Mode);
ARM GAS  C:\Users\LUKASC~1\AppData\Local\Temp\ccSv4rUt.s 			page 69


 2231              		.loc 1 1637 0
 2232 0018 074B     		ldr	r3, .L189+8
 2233 001a 1B68     		ldr	r3, [r3]
 2234 001c 0020     		mov	r0, #0
 2235 001e 191C     		mov	r1, r3
 2236 0020 FFF7FEFF 		bl	CySysWdtSetMode
1638:.\Generated_Source\PSoC4/CyLFClk.c ****             lfclkPosedgeWdtCounter0Enabled = 0u;
 2237              		.loc 1 1638 0
 2238 0024 024B     		ldr	r3, .L189
 2239 0026 0022     		mov	r2, #0
 2240 0028 1A60     		str	r2, [r3]
 2241              	.L187:
1639:.\Generated_Source\PSoC4/CyLFClk.c ****         }
1640:.\Generated_Source\PSoC4/CyLFClk.c ****     }
 2242              		.loc 1 1640 0
 2243 002a BD46     		mov	sp, r7
 2244              		@ sp needed
 2245 002c 80BD     		pop	{r7, pc}
 2246              	.L190:
 2247 002e C046     		.align	2
 2248              	.L189:
 2249 0030 00000000 		.word	lfclkPosedgeWdtCounter0Enabled
 2250 0034 10020B40 		.word	1074463248
 2251 0038 04000000 		.word	lfclkPosedgeWdtCounter0Mode
 2252              		.cfi_endproc
 2253              	.LFE32:
 2254              		.size	CySysClkLfclkPosedgeRestore, .-CySysClkLfclkPosedgeRestore
 2255              		.bss
 2256              		.align	2
 2257              	lfclkPosedgeEnabledWdtCounter.4838:
 2258 0018 00000000 		.space	4
 2259              		.text
 2260              	.Letext0:
 2261              		.file 2 ".\\Generated_Source\\PSoC4\\cytypes.h"
 2262              		.file 3 ".\\Generated_Source\\PSoC4\\CyLFClk.h"