ARM GAS  C:\Users\LUKASC~1\AppData\Local\Temp\cczvYef4.s 			page 1


   1              		.cpu cortex-m0
   2              		.fpu softvfp
   3              		.eabi_attribute 20, 1
   4              		.eabi_attribute 21, 1
   5              		.eabi_attribute 23, 3
   6              		.eabi_attribute 24, 1
   7              		.eabi_attribute 25, 1
   8              		.eabi_attribute 26, 1
   9              		.eabi_attribute 30, 6
  10              		.eabi_attribute 34, 0
  11              		.eabi_attribute 18, 4
  12              		.code	16
  13              		.file	"main.c"
  14              		.text
  15              	.Ltext0:
  16              		.cfi_sections	.debug_frame
  17              		.section	.text.main,"ax",%progbits
  18              		.align	2
  19              		.global	main
  20              		.code	16
  21              		.thumb_func
  22              		.type	main, %function
  23              	main:
  24              	.LFB34:
  25              		.file 1 ".\\main.c"
   1:.\main.c      **** /*******************************************************************************
   2:.\main.c      **** * File Name: main.c
   3:.\main.c      **** *
   4:.\main.c      **** * Version: 1
   5:.\main.c      **** * Author: Lukas Creutzburg
   6:.\main.c      **** *
   7:.\main.c      **** * Description:
   8:.\main.c      **** *  Guitar PSoC Code
   9:.\main.c      **** *
  10:.\main.c      **** *******************************************************************************/
  11:.\main.c      **** 
  12:.\main.c      **** #include "project.h"
  13:.\main.c      **** #include "capsense.h"
  14:.\main.c      **** #include "uart.h"
  15:.\main.c      **** #include "i2cmaster.h"
  16:.\main.c      **** 
  17:.\main.c      **** 
  18:.\main.c      **** /*******************************************************************************
  19:.\main.c      **** * Function Name: main
  20:.\main.c      **** ********************************************************************************
  21:.\main.c      **** * Summary:
  22:.\main.c      **** *  Main function performs following functions:
  23:.\main.c      **** *   1. Enable global interrupts.
  24:.\main.c      **** *   2. Initialize CapSense, UART (Debug), I2C Interaction
  25:.\main.c      **** *   3. Process scanning results and sending them
  26:.\main.c      **** *
  27:.\main.c      **** * Parameters:
  28:.\main.c      **** *  None
  29:.\main.c      **** *
  30:.\main.c      **** * Return:
  31:.\main.c      **** *  None
  32:.\main.c      **** *
ARM GAS  C:\Users\LUKASC~1\AppData\Local\Temp\cczvYef4.s 			page 2


  33:.\main.c      **** *******************************************************************************/
  34:.\main.c      **** int main()
  35:.\main.c      **** {
  26              		.loc 1 35 0
  27              		.cfi_startproc
  28 0000 80B5     		push	{r7, lr}
  29              		.cfi_def_cfa_offset 8
  30              		.cfi_offset 7, -8
  31              		.cfi_offset 14, -4
  32 0002 82B0     		sub	sp, sp, #8
  33              		.cfi_def_cfa_offset 16
  34 0004 00AF     		add	r7, sp, #0
  35              		.cfi_def_cfa_register 7
  36:.\main.c      ****     /* Enable global interrupts */
  37:.\main.c      ****     CyGlobalIntEnable;
  36              		.loc 1 37 0
  37              	@ 37 ".\main.c" 1
  38 0006 62B6     		CPSIE   i
  39              	@ 0 "" 2
  38:.\main.c      ****     
  39:.\main.c      ****     uint8 command = CMD_SET_OFF;
  40              		.loc 1 39 0
  41              		.code	16
  42 0008 FB1D     		add	r3, r7, #7
  43 000a 0022     		mov	r2, #0
  44 000c 1A70     		strb	r2, [r3]
  40:.\main.c      ****     int32 pos = 30000;
  45              		.loc 1 40 0
  46 000e 174B     		ldr	r3, .L4
  47 0010 3B60     		str	r3, [r7]
  41:.\main.c      ****     
  42:.\main.c      ****     UARTInit();
  48              		.loc 1 42 0
  49 0012 FFF7FEFF 		bl	UARTInit
  43:.\main.c      ****     CapSenseInit();
  50              		.loc 1 43 0
  51 0016 FFF7FEFF 		bl	CapSenseInit
  44:.\main.c      ****     I2CInit();
  52              		.loc 1 44 0
  53 001a FFF7FEFF 		bl	I2CInit
  54              	.L3:
  45:.\main.c      **** 
  46:.\main.c      ****     while(1u)
  47:.\main.c      ****     {
  48:.\main.c      ****         /* Send packet with command to the slave */
  49:.\main.c      ****         if (0u == I2CWriteCommandPacket(command))
  55              		.loc 1 49 0
  56 001e FB1D     		add	r3, r7, #7
  57 0020 1B78     		ldrb	r3, [r3]
  58 0022 181C     		mov	r0, r3
  59 0024 FFF7FEFF 		bl	I2CWriteCommandPacket
  60 0028 031E     		sub	r3, r0, #0
  61 002a 14D1     		bne	.L2
  50:.\main.c      ****         {
  51:.\main.c      ****             /* Read response packet from the slave */
  52:.\main.c      ****             if (0u == I2CReadStatusPacket())
  62              		.loc 1 52 0
ARM GAS  C:\Users\LUKASC~1\AppData\Local\Temp\cczvYef4.s 			page 3


  63 002c FFF7FEFF 		bl	I2CReadStatusPacket
  64 0030 031E     		sub	r3, r0, #0
  65 0032 10D1     		bne	.L2
  53:.\main.c      ****             {
  54:.\main.c      ****                 /* Next command to be written */
  55:.\main.c      ****                 pos = CapSense_Refresh();
  66              		.loc 1 55 0
  67 0034 FFF7FEFF 		bl	CapSense_Refresh
  68 0038 031C     		mov	r3, r0
  69 003a 3B60     		str	r3, [r7]
  56:.\main.c      ****                 if(pos!=-1){
  70              		.loc 1 56 0
  71 003c 3B68     		ldr	r3, [r7]
  72 003e 0133     		add	r3, r3, #1
  73 0040 09D0     		beq	.L2
  57:.\main.c      ****                     UART_SendNumber((uint8)(((uint32)pos) >> 8));
  74              		.loc 1 57 0
  75 0042 3B68     		ldr	r3, [r7]
  76 0044 1B0A     		lsr	r3, r3, #8
  77 0046 DBB2     		uxtb	r3, r3
  78 0048 181C     		mov	r0, r3
  79 004a FFF7FEFF 		bl	UART_SendNumber
  58:.\main.c      ****                     command = (uint8)(((uint32)pos) >> 8);
  80              		.loc 1 58 0
  81 004e 3B68     		ldr	r3, [r7]
  82 0050 1A0A     		lsr	r2, r3, #8
  83 0052 FB1D     		add	r3, r7, #7
  84 0054 1A70     		strb	r2, [r3]
  85              	.L2:
  59:.\main.c      ****                 }
  60:.\main.c      ****                 
  61:.\main.c      ****             }
  62:.\main.c      ****             
  63:.\main.c      ****         }
  64:.\main.c      **** 
  65:.\main.c      ****         LED_1_Write(!LED_1_Read());
  86              		.loc 1 65 0
  87 0056 FFF7FEFF 		bl	LED_1_Read
  88 005a 031C     		mov	r3, r0
  89 005c 5A42     		neg	r2, r3
  90 005e 5341     		adc	r3, r3, r2
  91 0060 DBB2     		uxtb	r3, r3
  92 0062 181C     		mov	r0, r3
  93 0064 FFF7FEFF 		bl	LED_1_Write
  66:.\main.c      ****         //CyDelay(CMD_TO_CMD_DELAY); /* Delay between commands */
  67:.\main.c      ****     }
  94              		.loc 1 67 0
  95 0068 D9E7     		b	.L3
  96              	.L5:
  97 006a C046     		.align	2
  98              	.L4:
  99 006c 30750000 		.word	30000
 100              		.cfi_endproc
 101              	.LFE34:
 102              		.size	main, .-main
 103              		.text
 104              	.Letext0:
ARM GAS  C:\Users\LUKASC~1\AppData\Local\Temp\cczvYef4.s 			page 4


 105              		.file 2 "Generated_Source\\PSoC4/cytypes.h"