ARM GAS  C:\Users\LUKASC~1\AppData\Local\Temp\cckJfpJK.s 			page 1


   1              		.cpu cortex-m0
   2              		.fpu softvfp
   3              		.eabi_attribute 20, 1
   4              		.eabi_attribute 21, 1
   5              		.eabi_attribute 23, 3
   6              		.eabi_attribute 24, 1
   7              		.eabi_attribute 25, 1
   8              		.eabi_attribute 26, 1
   9              		.eabi_attribute 30, 6
  10              		.eabi_attribute 34, 0
  11              		.eabi_attribute 18, 4
  12              		.code	16
  13              		.file	"uart.c"
  14              		.text
  15              	.Ltext0:
  16              		.cfi_sections	.debug_frame
  17              		.section	.text.UARTInit,"ax",%progbits
  18              		.align	2
  19              		.global	UARTInit
  20              		.code	16
  21              		.thumb_func
  22              		.type	UARTInit, %function
  23              	UARTInit:
  24              	.LFB34:
  25              		.file 1 ".\\uart.c"
   1:.\uart.c      **** /* ========================================
   2:.\uart.c      **** * File Name: capsense.h
   3:.\uart.c      **** *
   4:.\uart.c      **** * Version: 0
   5:.\uart.c      **** * Author: Lukas Creutzburg
   6:.\uart.c      **** *
   7:.\uart.c      **** *  Description:
   8:.\uart.c      **** *  CapSense module
   9:.\uart.c      **** *
  10:.\uart.c      **** * =================================================================================================
  11:.\uart.c      **** */
  12:.\uart.c      **** #include "uart.h"
  13:.\uart.c      **** 
  14:.\uart.c      **** /* Variables */
  15:.\uart.c      **** 
  16:.\uart.c      **** //_________________________________
  17:.\uart.c      **** 
  18:.\uart.c      **** /*******************************************************************************
  19:.\uart.c      **** * Function Name:  UARTInit
  20:.\uart.c      **** ********************************************************************************
  21:.\uart.c      **** *
  22:.\uart.c      **** * Summary:
  23:.\uart.c      **** *   Initializes CapSense  
  24:.\uart.c      **** *
  25:.\uart.c      **** * Parameters:  
  26:.\uart.c      **** *  None
  27:.\uart.c      **** *
  28:.\uart.c      **** * Return: 
  29:.\uart.c      **** *  None 
  30:.\uart.c      **** *  
  31:.\uart.c      **** *******************************************************************************/
  32:.\uart.c      **** void UARTInit(void)
ARM GAS  C:\Users\LUKASC~1\AppData\Local\Temp\cckJfpJK.s 			page 2


  33:.\uart.c      **** {
  26              		.loc 1 33 0
  27              		.cfi_startproc
  28 0000 80B5     		push	{r7, lr}
  29              		.cfi_def_cfa_offset 8
  30              		.cfi_offset 7, -8
  31              		.cfi_offset 14, -4
  32 0002 00AF     		add	r7, sp, #0
  33              		.cfi_def_cfa_register 7
  34:.\uart.c      ****     UART_1_Start();
  34              		.loc 1 34 0
  35 0004 FFF7FEFF 		bl	UART_1_Start
  35:.\uart.c      **** }
  36              		.loc 1 35 0
  37 0008 BD46     		mov	sp, r7
  38              		@ sp needed
  39 000a 80BD     		pop	{r7, pc}
  40              		.cfi_endproc
  41              	.LFE34:
  42              		.size	UARTInit, .-UARTInit
  43              		.section	.rodata
  44              		.align	2
  45              	.LC0:
  46 0000 256C7500 		.ascii	"%lu\000"
  47              		.section	.text.UART_SendNumber,"ax",%progbits
  48              		.align	2
  49              		.global	UART_SendNumber
  50              		.code	16
  51              		.thumb_func
  52              		.type	UART_SendNumber, %function
  53              	UART_SendNumber:
  54              	.LFB35:
  36:.\uart.c      **** //_________________________________________________________________
  37:.\uart.c      **** 
  38:.\uart.c      **** 
  39:.\uart.c      **** /*******************************************************************************
  40:.\uart.c      **** * Function Name: UART_SendNumber
  41:.\uart.c      **** ********************************************************************************
  42:.\uart.c      **** *
  43:.\uart.c      **** * Summary:
  44:.\uart.c      **** *  Sends number via UART
  45:.\uart.c      **** *
  46:.\uart.c      **** * Parameters:  
  47:.\uart.c      **** *   uint32: number to send
  48:.\uart.c      **** * Return: 
  49:.\uart.c      **** *   None
  50:.\uart.c      **** *
  51:.\uart.c      **** *******************************************************************************/
  52:.\uart.c      **** void UART_SendNumber(uint32 number)
  53:.\uart.c      **** {
  55              		.loc 1 53 0
  56              		.cfi_startproc
  57 0000 80B5     		push	{r7, lr}
  58              		.cfi_def_cfa_offset 8
  59              		.cfi_offset 7, -8
  60              		.cfi_offset 14, -4
  61 0002 90B0     		sub	sp, sp, #64
ARM GAS  C:\Users\LUKASC~1\AppData\Local\Temp\cckJfpJK.s 			page 3


  62              		.cfi_def_cfa_offset 72
  63 0004 00AF     		add	r7, sp, #0
  64              		.cfi_def_cfa_register 7
  65 0006 7860     		str	r0, [r7, #4]
  54:.\uart.c      ****     int bytesWritten; 
  55:.\uart.c      ****     char myString[50]; 
  56:.\uart.c      ****     bytesWritten = sprintf(myString, "%lu", number); 
  66              		.loc 1 56 0
  67 0008 0823     		mov	r3, #8
  68 000a F918     		add	r1, r7, r3
  69 000c 154A     		ldr	r2, .L3
  70 000e 7B68     		ldr	r3, [r7, #4]
  71 0010 081C     		mov	r0, r1
  72 0012 111C     		mov	r1, r2
  73 0014 1A1C     		mov	r2, r3
  74 0016 FFF7FEFF 		bl	sprintf
  75 001a 031C     		mov	r3, r0
  76 001c FB63     		str	r3, [r7, #60]
  57:.\uart.c      ****     myString[bytesWritten]='\r';
  77              		.loc 1 57 0
  78 001e 0823     		mov	r3, #8
  79 0020 FA18     		add	r2, r7, r3
  80 0022 FB6B     		ldr	r3, [r7, #60]
  81 0024 D318     		add	r3, r2, r3
  82 0026 0D22     		mov	r2, #13
  83 0028 1A70     		strb	r2, [r3]
  58:.\uart.c      ****     myString[bytesWritten+1]='\n';
  84              		.loc 1 58 0
  85 002a FB6B     		ldr	r3, [r7, #60]
  86 002c 0133     		add	r3, r3, #1
  87 002e 0822     		mov	r2, #8
  88 0030 BA18     		add	r2, r7, r2
  89 0032 0A21     		mov	r1, #10
  90 0034 D154     		strb	r1, [r2, r3]
  59:.\uart.c      ****     myString[bytesWritten+2]='\0';
  91              		.loc 1 59 0
  92 0036 FB6B     		ldr	r3, [r7, #60]
  93 0038 0233     		add	r3, r3, #2
  94 003a 0822     		mov	r2, #8
  95 003c BA18     		add	r2, r7, r2
  96 003e 0021     		mov	r1, #0
  97 0040 D154     		strb	r1, [r2, r3]
  60:.\uart.c      ****     UART_1_UartPutString(myString);
  98              		.loc 1 60 0
  99 0042 0823     		mov	r3, #8
 100 0044 FB18     		add	r3, r7, r3
 101 0046 181C     		mov	r0, r3
 102 0048 FFF7FEFF 		bl	UART_1_UartPutString
  61:.\uart.c      ****     LED_1_Write(!LED_1_Read());
 103              		.loc 1 61 0
 104 004c FFF7FEFF 		bl	LED_1_Read
 105 0050 031C     		mov	r3, r0
 106 0052 5A42     		neg	r2, r3
 107 0054 5341     		adc	r3, r3, r2
 108 0056 DBB2     		uxtb	r3, r3
 109 0058 181C     		mov	r0, r3
 110 005a FFF7FEFF 		bl	LED_1_Write
ARM GAS  C:\Users\LUKASC~1\AppData\Local\Temp\cckJfpJK.s 			page 4


  62:.\uart.c      **** }
 111              		.loc 1 62 0
 112 005e BD46     		mov	sp, r7
 113 0060 10B0     		add	sp, sp, #64
 114              		@ sp needed
 115 0062 80BD     		pop	{r7, pc}
 116              	.L4:
 117              		.align	2
 118              	.L3:
 119 0064 00000000 		.word	.LC0
 120              		.cfi_endproc
 121              	.LFE35:
 122              		.size	UART_SendNumber, .-UART_SendNumber
 123              		.section	.text.UART_SendString,"ax",%progbits
 124              		.align	2
 125              		.global	UART_SendString
 126              		.code	16
 127              		.thumb_func
 128              		.type	UART_SendString, %function
 129              	UART_SendString:
 130              	.LFB36:
  63:.\uart.c      **** //_________________________________________________________________
  64:.\uart.c      **** 
  65:.\uart.c      **** 
  66:.\uart.c      **** /*******************************************************************************
  67:.\uart.c      **** * Function Name: UART_SendString
  68:.\uart.c      **** ********************************************************************************
  69:.\uart.c      **** *
  70:.\uart.c      **** * Summary:
  71:.\uart.c      **** *  Sends string via UART
  72:.\uart.c      **** *
  73:.\uart.c      **** * Parameters:  
  74:.\uart.c      **** *   char[]: String
  75:.\uart.c      **** * Return: 
  76:.\uart.c      **** *   None
  77:.\uart.c      **** *
  78:.\uart.c      **** *******************************************************************************/
  79:.\uart.c      **** void UART_SendString(char string[])
  80:.\uart.c      **** {
 131              		.loc 1 80 0
 132              		.cfi_startproc
 133 0000 80B5     		push	{r7, lr}
 134              		.cfi_def_cfa_offset 8
 135              		.cfi_offset 7, -8
 136              		.cfi_offset 14, -4
 137 0002 82B0     		sub	sp, sp, #8
 138              		.cfi_def_cfa_offset 16
 139 0004 00AF     		add	r7, sp, #0
 140              		.cfi_def_cfa_register 7
 141 0006 7860     		str	r0, [r7, #4]
  81:.\uart.c      ****     UART_1_UartPutString(string);
 142              		.loc 1 81 0
 143 0008 7B68     		ldr	r3, [r7, #4]
 144 000a 181C     		mov	r0, r3
 145 000c FFF7FEFF 		bl	UART_1_UartPutString
  82:.\uart.c      **** }
 146              		.loc 1 82 0
ARM GAS  C:\Users\LUKASC~1\AppData\Local\Temp\cckJfpJK.s 			page 5


 147 0010 BD46     		mov	sp, r7
 148 0012 02B0     		add	sp, sp, #8
 149              		@ sp needed
 150 0014 80BD     		pop	{r7, pc}
 151              		.cfi_endproc
 152              	.LFE36:
 153              		.size	UART_SendString, .-UART_SendString
 154 0016 C046     		.text
 155              	.Letext0:
 156              		.file 2 "Generated_Source\\PSoC4/cytypes.h"