ARM GAS  C:\Users\LUKASC~1\AppData\Local\Temp\ccd9ca13.s 			page 1


   1              		.syntax unified
   2              		.cpu cortex-m3
   3              		.fpu softvfp
   4              		.eabi_attribute 20, 1
   5              		.eabi_attribute 21, 1
   6              		.eabi_attribute 23, 3
   7              		.eabi_attribute 24, 1
   8              		.eabi_attribute 25, 1
   9              		.eabi_attribute 26, 1
  10              		.eabi_attribute 30, 6
  11              		.eabi_attribute 34, 1
  12              		.eabi_attribute 18, 4
  13              		.thumb
  14              		.file	"ADC_DelSig.c"
  15              		.text
  16              	.Ltext0:
  17              		.cfi_sections	.debug_frame
  18              		.global	ADC_DelSig_convDone
  19              		.bss
  20              		.type	ADC_DelSig_convDone, %object
  21              		.size	ADC_DelSig_convDone, 1
  22              	ADC_DelSig_convDone:
  23 0000 00       		.space	1
  24              		.global	ADC_DelSig_stopConversion
  25              		.type	ADC_DelSig_stopConversion, %object
  26              		.size	ADC_DelSig_stopConversion, 1
  27              	ADC_DelSig_stopConversion:
  28 0001 00       		.space	1
  29              		.global	ADC_DelSig_initVar
  30              		.type	ADC_DelSig_initVar, %object
  31              		.size	ADC_DelSig_initVar, 1
  32              	ADC_DelSig_initVar:
  33 0002 00       		.space	1
  34              		.global	ADC_DelSig_started
  35              		.type	ADC_DelSig_started, %object
  36              		.size	ADC_DelSig_started, 1
  37              	ADC_DelSig_started:
  38 0003 00       		.space	1
  39              		.global	ADC_DelSig_Config
  40              		.data
  41              		.type	ADC_DelSig_Config, %object
  42              		.size	ADC_DelSig_Config, 1
  43              	ADC_DelSig_Config:
  44 0000 01       		.byte	1
  45              		.comm	ADC_DelSig_Offset,4,4
  46              		.comm	ADC_DelSig_CountsPerVolt,4,4
  47              		.bss
  48              		.align	2
  49              	ADC_DelSig_gcor:
  50 0004 00000000 		.space	4
  51              		.section	.text.ADC_DelSig_Init,"ax",%progbits
  52              		.align	2
  53              		.global	ADC_DelSig_Init
  54              		.thumb
  55              		.thumb_func
  56              		.type	ADC_DelSig_Init, %function
  57              	ADC_DelSig_Init:
ARM GAS  C:\Users\LUKASC~1\AppData\Local\Temp\ccd9ca13.s 			page 2


  58              	.LFB0:
  59              		.file 1 ".\\Generated_Source\\PSoC5\\ADC_DelSig.c"
   1:.\Generated_Source\PSoC5/ADC_DelSig.c **** /*******************************************************************************
   2:.\Generated_Source\PSoC5/ADC_DelSig.c **** * File Name: ADC_DelSig.c
   3:.\Generated_Source\PSoC5/ADC_DelSig.c **** * Version 3.20
   4:.\Generated_Source\PSoC5/ADC_DelSig.c **** *
   5:.\Generated_Source\PSoC5/ADC_DelSig.c **** * Description:
   6:.\Generated_Source\PSoC5/ADC_DelSig.c **** *  This file provides the source code to the API for the Delta-Sigma ADC
   7:.\Generated_Source\PSoC5/ADC_DelSig.c **** *  Component.
   8:.\Generated_Source\PSoC5/ADC_DelSig.c **** *
   9:.\Generated_Source\PSoC5/ADC_DelSig.c **** * Note:
  10:.\Generated_Source\PSoC5/ADC_DelSig.c **** *
  11:.\Generated_Source\PSoC5/ADC_DelSig.c **** ********************************************************************************
  12:.\Generated_Source\PSoC5/ADC_DelSig.c **** * Copyright 2008-2015, Cypress Semiconductor Corporation.  All rights reserved.
  13:.\Generated_Source\PSoC5/ADC_DelSig.c **** * You may use this file only in accordance with the license, terms, conditions,
  14:.\Generated_Source\PSoC5/ADC_DelSig.c **** * disclaimers, and limitations in the end user license agreement accompanying
  15:.\Generated_Source\PSoC5/ADC_DelSig.c **** * the software package with which this file was provided.
  16:.\Generated_Source\PSoC5/ADC_DelSig.c **** *******************************************************************************/
  17:.\Generated_Source\PSoC5/ADC_DelSig.c **** 
  18:.\Generated_Source\PSoC5/ADC_DelSig.c **** #include "ADC_DelSig.h"
  19:.\Generated_Source\PSoC5/ADC_DelSig.c **** 
  20:.\Generated_Source\PSoC5/ADC_DelSig.c **** #if(ADC_DelSig_DEFAULT_INTERNAL_CLK)
  21:.\Generated_Source\PSoC5/ADC_DelSig.c ****     #include "ADC_DelSig_theACLK.h"
  22:.\Generated_Source\PSoC5/ADC_DelSig.c **** #endif /* ADC_DelSig_DEFAULT_INTERNAL_CLK */
  23:.\Generated_Source\PSoC5/ADC_DelSig.c **** 
  24:.\Generated_Source\PSoC5/ADC_DelSig.c **** #include "ADC_DelSig_Ext_CP_Clk.h"
  25:.\Generated_Source\PSoC5/ADC_DelSig.c **** 
  26:.\Generated_Source\PSoC5/ADC_DelSig.c **** #if(ADC_DelSig_DEFAULT_INPUT_MODE)
  27:.\Generated_Source\PSoC5/ADC_DelSig.c ****     #include "ADC_DelSig_AMux.h"
  28:.\Generated_Source\PSoC5/ADC_DelSig.c **** #endif /* ADC_DelSig_DEFAULT_INPUT_MODE */
  29:.\Generated_Source\PSoC5/ADC_DelSig.c **** 
  30:.\Generated_Source\PSoC5/ADC_DelSig.c **** 
  31:.\Generated_Source\PSoC5/ADC_DelSig.c **** /***************************************
  32:.\Generated_Source\PSoC5/ADC_DelSig.c **** * Global data allocation
  33:.\Generated_Source\PSoC5/ADC_DelSig.c **** ***************************************/
  34:.\Generated_Source\PSoC5/ADC_DelSig.c **** 
  35:.\Generated_Source\PSoC5/ADC_DelSig.c **** /* Software flag for checking conversion completed or not */
  36:.\Generated_Source\PSoC5/ADC_DelSig.c **** volatile uint8 ADC_DelSig_convDone = 0u;
  37:.\Generated_Source\PSoC5/ADC_DelSig.c **** 
  38:.\Generated_Source\PSoC5/ADC_DelSig.c **** /* Software flag to stop conversion for single sample conversion mode
  39:.\Generated_Source\PSoC5/ADC_DelSig.c **** *   with resolution above 16 bits 
  40:.\Generated_Source\PSoC5/ADC_DelSig.c **** */
  41:.\Generated_Source\PSoC5/ADC_DelSig.c **** volatile uint8 ADC_DelSig_stopConversion = 0u;
  42:.\Generated_Source\PSoC5/ADC_DelSig.c **** 
  43:.\Generated_Source\PSoC5/ADC_DelSig.c **** /* To run the initialization block only at the start up */
  44:.\Generated_Source\PSoC5/ADC_DelSig.c **** uint8 ADC_DelSig_initVar = 0u;
  45:.\Generated_Source\PSoC5/ADC_DelSig.c **** 
  46:.\Generated_Source\PSoC5/ADC_DelSig.c **** /* To check whether ADC started or not before switching the configuration */
  47:.\Generated_Source\PSoC5/ADC_DelSig.c **** volatile uint8 ADC_DelSig_started = 0u;
  48:.\Generated_Source\PSoC5/ADC_DelSig.c **** 
  49:.\Generated_Source\PSoC5/ADC_DelSig.c **** /* Flag to hold ADC config number. By default active config is 1. */
  50:.\Generated_Source\PSoC5/ADC_DelSig.c **** volatile uint8 ADC_DelSig_Config = 1u;
  51:.\Generated_Source\PSoC5/ADC_DelSig.c **** 
  52:.\Generated_Source\PSoC5/ADC_DelSig.c **** volatile int32 ADC_DelSig_Offset;
  53:.\Generated_Source\PSoC5/ADC_DelSig.c **** volatile int32 ADC_DelSig_CountsPerVolt;
  54:.\Generated_Source\PSoC5/ADC_DelSig.c **** 
  55:.\Generated_Source\PSoC5/ADC_DelSig.c **** 
ARM GAS  C:\Users\LUKASC~1\AppData\Local\Temp\ccd9ca13.s 			page 3


  56:.\Generated_Source\PSoC5/ADC_DelSig.c **** /***************************************
  57:.\Generated_Source\PSoC5/ADC_DelSig.c **** * Local data allocation
  58:.\Generated_Source\PSoC5/ADC_DelSig.c **** ***************************************/
  59:.\Generated_Source\PSoC5/ADC_DelSig.c **** 
  60:.\Generated_Source\PSoC5/ADC_DelSig.c **** /* The array with precalculated gain compensation coefficients */
  61:.\Generated_Source\PSoC5/ADC_DelSig.c **** static ADC_DelSig_GCOR_STRUCT ADC_DelSig_gcor[ADC_DelSig_DEFAULT_NUM_CONFIGS];
  62:.\Generated_Source\PSoC5/ADC_DelSig.c **** 
  63:.\Generated_Source\PSoC5/ADC_DelSig.c **** 
  64:.\Generated_Source\PSoC5/ADC_DelSig.c **** 
  65:.\Generated_Source\PSoC5/ADC_DelSig.c **** /***************************************
  66:.\Generated_Source\PSoC5/ADC_DelSig.c **** * Forward function references
  67:.\Generated_Source\PSoC5/ADC_DelSig.c **** ***************************************/
  68:.\Generated_Source\PSoC5/ADC_DelSig.c **** static void ADC_DelSig_InitConfig(uint8 config) ;
  69:.\Generated_Source\PSoC5/ADC_DelSig.c **** static void ADC_DelSig_GainCompensation(uint8 inputRange, uint16 idealDecGain, uint16 idealOddDecGa
  70:.\Generated_Source\PSoC5/ADC_DelSig.c ****                             uint8 resolution, uint8 config) ;
  71:.\Generated_Source\PSoC5/ADC_DelSig.c **** static void ADC_DelSig_SetDSMRef0Reg(uint8 value) ;
  72:.\Generated_Source\PSoC5/ADC_DelSig.c **** 
  73:.\Generated_Source\PSoC5/ADC_DelSig.c **** 
  74:.\Generated_Source\PSoC5/ADC_DelSig.c **** /******************************************************************************
  75:.\Generated_Source\PSoC5/ADC_DelSig.c **** * Function Name: ADC_DelSig_Init
  76:.\Generated_Source\PSoC5/ADC_DelSig.c **** *******************************************************************************
  77:.\Generated_Source\PSoC5/ADC_DelSig.c **** *
  78:.\Generated_Source\PSoC5/ADC_DelSig.c **** * Summary:
  79:.\Generated_Source\PSoC5/ADC_DelSig.c **** *  Initialize component's parameters to the parameters set by user in the
  80:.\Generated_Source\PSoC5/ADC_DelSig.c **** *  customizer of the component placed onto schematic. Usually called in
  81:.\Generated_Source\PSoC5/ADC_DelSig.c **** * ADC_DelSig_Start().
  82:.\Generated_Source\PSoC5/ADC_DelSig.c **** *
  83:.\Generated_Source\PSoC5/ADC_DelSig.c **** *
  84:.\Generated_Source\PSoC5/ADC_DelSig.c **** * Parameters:
  85:.\Generated_Source\PSoC5/ADC_DelSig.c **** *  None
  86:.\Generated_Source\PSoC5/ADC_DelSig.c **** *
  87:.\Generated_Source\PSoC5/ADC_DelSig.c **** * Return:
  88:.\Generated_Source\PSoC5/ADC_DelSig.c **** *  None
  89:.\Generated_Source\PSoC5/ADC_DelSig.c **** *
  90:.\Generated_Source\PSoC5/ADC_DelSig.c **** *******************************************************************************/
  91:.\Generated_Source\PSoC5/ADC_DelSig.c **** void ADC_DelSig_Init(void) 
  92:.\Generated_Source\PSoC5/ADC_DelSig.c **** {
  60              		.loc 1 92 0
  61              		.cfi_startproc
  62              		@ args = 0, pretend = 0, frame = 0
  63              		@ frame_needed = 1, uses_anonymous_args = 0
  64 0000 80B5     		push	{r7, lr}
  65              		.cfi_def_cfa_offset 8
  66              		.cfi_offset 7, -8
  67              		.cfi_offset 14, -4
  68 0002 82B0     		sub	sp, sp, #8
  69              		.cfi_def_cfa_offset 16
  70 0004 02AF     		add	r7, sp, #8
  71              		.cfi_def_cfa 7, 8
  93:.\Generated_Source\PSoC5/ADC_DelSig.c **** 
  94:.\Generated_Source\PSoC5/ADC_DelSig.c ****     ADC_DelSig_Config = 1u;
  72              		.loc 1 94 0
  73 0006 324B     		ldr	r3, .L2
  74 0008 0122     		movs	r2, #1
  75 000a 1A70     		strb	r2, [r3]
  95:.\Generated_Source\PSoC5/ADC_DelSig.c ****     ADC_DelSig_convDone = 0u;
  76              		.loc 1 95 0
ARM GAS  C:\Users\LUKASC~1\AppData\Local\Temp\ccd9ca13.s 			page 4


  77 000c 314B     		ldr	r3, .L2+4
  78 000e 0022     		movs	r2, #0
  79 0010 1A70     		strb	r2, [r3]
  96:.\Generated_Source\PSoC5/ADC_DelSig.c **** 
  97:.\Generated_Source\PSoC5/ADC_DelSig.c ****     ADC_DelSig_Ext_CP_Clk_SetMode(CYCLK_DUTY);
  80              		.loc 1 97 0
  81 0012 1020     		movs	r0, #16
  82 0014 FFF7FEFF 		bl	ADC_DelSig_Ext_CP_Clk_SetModeRegister
  98:.\Generated_Source\PSoC5/ADC_DelSig.c **** 
  99:.\Generated_Source\PSoC5/ADC_DelSig.c ****     /* This is only valid if there is an internal clock */
 100:.\Generated_Source\PSoC5/ADC_DelSig.c ****     #if(ADC_DelSig_DEFAULT_INTERNAL_CLK)
 101:.\Generated_Source\PSoC5/ADC_DelSig.c ****         ADC_DelSig_theACLK_SetMode(CYCLK_DUTY);
  83              		.loc 1 101 0
  84 0018 1020     		movs	r0, #16
  85 001a FFF7FEFF 		bl	ADC_DelSig_theACLK_SetModeRegister
 102:.\Generated_Source\PSoC5/ADC_DelSig.c ****     #endif /* ADC_DelSig_DEFAULT_INTERNAL_CLK */
 103:.\Generated_Source\PSoC5/ADC_DelSig.c **** 
 104:.\Generated_Source\PSoC5/ADC_DelSig.c ****     #if(ADC_DelSig_IRQ_REMOVE == 0u)
 105:.\Generated_Source\PSoC5/ADC_DelSig.c ****         /* Set interrupt priority */
 106:.\Generated_Source\PSoC5/ADC_DelSig.c ****         CyIntSetPriority(ADC_DelSig_INTC_NUMBER, ADC_DelSig_INTC_PRIOR_NUMBER);
  86              		.loc 1 106 0
  87 001e 1D20     		movs	r0, #29
  88 0020 0721     		movs	r1, #7
  89 0022 FFF7FEFF 		bl	CyIntSetPriority
 107:.\Generated_Source\PSoC5/ADC_DelSig.c ****     #endif   /* End ADC_DelSig_IRQ_REMOVE */
 108:.\Generated_Source\PSoC5/ADC_DelSig.c **** 
 109:.\Generated_Source\PSoC5/ADC_DelSig.c ****     /* Init static registers with common configuration */
 110:.\Generated_Source\PSoC5/ADC_DelSig.c ****     ADC_DelSig_DSM_DEM0_REG    = ADC_DelSig_CFG1_DSM_DEM0;
  90              		.loc 1 110 0
  91 0026 2C4B     		ldr	r3, .L2+8
  92 0028 0422     		movs	r2, #4
  93 002a 1A70     		strb	r2, [r3]
 111:.\Generated_Source\PSoC5/ADC_DelSig.c ****     ADC_DelSig_DSM_DEM1_REG    = ADC_DelSig_CFG1_DSM_DEM1;
  94              		.loc 1 111 0
  95 002c 2B4B     		ldr	r3, .L2+12
  96 002e 0022     		movs	r2, #0
  97 0030 1A70     		strb	r2, [r3]
 112:.\Generated_Source\PSoC5/ADC_DelSig.c ****     ADC_DelSig_DSM_MISC_REG    = ADC_DelSig_CFG1_DSM_MISC;
  98              		.loc 1 112 0
  99 0032 2B4B     		ldr	r3, .L2+16
 100 0034 0022     		movs	r2, #0
 101 0036 1A70     		strb	r2, [r3]
 113:.\Generated_Source\PSoC5/ADC_DelSig.c ****     ADC_DelSig_DSM_CLK_REG    |= ADC_DelSig_CFG1_DSM_CLK;
 102              		.loc 1 113 0
 103 0038 2A4A     		ldr	r2, .L2+20
 104 003a 2A4B     		ldr	r3, .L2+20
 105 003c 1B78     		ldrb	r3, [r3]
 106 003e DBB2     		uxtb	r3, r3
 107 0040 43F01803 		orr	r3, r3, #24
 108 0044 DBB2     		uxtb	r3, r3
 109 0046 1370     		strb	r3, [r2]
 114:.\Generated_Source\PSoC5/ADC_DelSig.c ****     ADC_DelSig_DSM_REF1_REG    = ADC_DelSig_CFG1_DSM_REF1;
 110              		.loc 1 114 0
 111 0048 274B     		ldr	r3, .L2+24
 112 004a 0022     		movs	r2, #0
 113 004c 1A70     		strb	r2, [r3]
 115:.\Generated_Source\PSoC5/ADC_DelSig.c **** 
ARM GAS  C:\Users\LUKASC~1\AppData\Local\Temp\ccd9ca13.s 			page 5


 116:.\Generated_Source\PSoC5/ADC_DelSig.c ****     ADC_DelSig_DSM_OUT0_REG    = ADC_DelSig_CFG1_DSM_OUT0;
 114              		.loc 1 116 0
 115 004e 274B     		ldr	r3, .L2+28
 116 0050 0022     		movs	r2, #0
 117 0052 1A70     		strb	r2, [r3]
 117:.\Generated_Source\PSoC5/ADC_DelSig.c ****     ADC_DelSig_DSM_OUT1_REG    = ADC_DelSig_CFG1_DSM_OUT1;
 118              		.loc 1 117 0
 119 0054 264B     		ldr	r3, .L2+32
 120 0056 0022     		movs	r2, #0
 121 0058 1A70     		strb	r2, [r3]
 118:.\Generated_Source\PSoC5/ADC_DelSig.c **** 
 119:.\Generated_Source\PSoC5/ADC_DelSig.c ****     ADC_DelSig_DSM_CR0_REG     = ADC_DelSig_CFG1_DSM_CR0;
 122              		.loc 1 119 0
 123 005a 264B     		ldr	r3, .L2+36
 124 005c 0A22     		movs	r2, #10
 125 005e 1A70     		strb	r2, [r3]
 120:.\Generated_Source\PSoC5/ADC_DelSig.c ****     ADC_DelSig_DSM_CR1_REG     = ADC_DelSig_CFG1_DSM_CR1;
 126              		.loc 1 120 0
 127 0060 254B     		ldr	r3, .L2+40
 128 0062 0022     		movs	r2, #0
 129 0064 1A70     		strb	r2, [r3]
 121:.\Generated_Source\PSoC5/ADC_DelSig.c **** #if(ADC_DelSig_MI_ENABLE != 0u) /* Enable Modulator Input */
 122:.\Generated_Source\PSoC5/ADC_DelSig.c ****     ADC_DelSig_DSM_CR3_REG     |= ADC_DelSig_DSM_MODBIT_EN;
 123:.\Generated_Source\PSoC5/ADC_DelSig.c **** #else
 124:.\Generated_Source\PSoC5/ADC_DelSig.c ****     ADC_DelSig_DSM_CR3_REG     = ADC_DelSig_CFG1_DSM_CR3;
 130              		.loc 1 124 0
 131 0066 254B     		ldr	r3, .L2+44
 132 0068 0022     		movs	r2, #0
 133 006a 1A70     		strb	r2, [r3]
 125:.\Generated_Source\PSoC5/ADC_DelSig.c **** #endif /* ADC_DelSig_MI_ENABLE != 0u*/    
 126:.\Generated_Source\PSoC5/ADC_DelSig.c ****     ADC_DelSig_DSM_CR8_REG     = ADC_DelSig_CFG1_DSM_CR8;
 134              		.loc 1 126 0
 135 006c 244B     		ldr	r3, .L2+48
 136 006e 5B22     		movs	r2, #91
 137 0070 1A70     		strb	r2, [r3]
 127:.\Generated_Source\PSoC5/ADC_DelSig.c ****     ADC_DelSig_DSM_CR9_REG     = ADC_DelSig_CFG1_DSM_CR9;
 138              		.loc 1 127 0
 139 0072 244B     		ldr	r3, .L2+52
 140 0074 5E22     		movs	r2, #94
 141 0076 1A70     		strb	r2, [r3]
 128:.\Generated_Source\PSoC5/ADC_DelSig.c ****     ADC_DelSig_DSM_CR13_REG    = ADC_DelSig_CFG1_DSM_CR13;
 142              		.loc 1 128 0
 143 0078 234B     		ldr	r3, .L2+56
 144 007a 0022     		movs	r2, #0
 145 007c 1A70     		strb	r2, [r3]
 129:.\Generated_Source\PSoC5/ADC_DelSig.c **** 
 130:.\Generated_Source\PSoC5/ADC_DelSig.c ****     ADC_DelSig_DEC_SR_REG      = ADC_DelSig_CFG1_DEC_SR;
 146              		.loc 1 130 0
 147 007e 234B     		ldr	r3, .L2+60
 148 0080 1422     		movs	r2, #20
 149 0082 1A70     		strb	r2, [r3]
 131:.\Generated_Source\PSoC5/ADC_DelSig.c **** 
 132:.\Generated_Source\PSoC5/ADC_DelSig.c ****     /* Calculate Gain compensation coefficients for all configurations */
 133:.\Generated_Source\PSoC5/ADC_DelSig.c ****     ADC_DelSig_GainCompensation(ADC_DelSig_CFG1_INPUT_RANGE,
 150              		.loc 1 133 0
 151 0084 0123     		movs	r3, #1
 152 0086 0093     		str	r3, [sp]
ARM GAS  C:\Users\LUKASC~1\AppData\Local\Temp\ccd9ca13.s 			page 6


 153 0088 0420     		movs	r0, #4
 154 008a 49F2DA01 		movw	r1, #37082
 155 008e 4FF40042 		mov	r2, #32768
 156 0092 1023     		movs	r3, #16
 157 0094 FFF7FEFF 		bl	ADC_DelSig_GainCompensation
 134:.\Generated_Source\PSoC5/ADC_DelSig.c ****                                       ADC_DelSig_CFG1_IDEAL_DEC_GAIN,
 135:.\Generated_Source\PSoC5/ADC_DelSig.c ****                                       ADC_DelSig_CFG1_IDEAL_ODDDEC_GAIN,
 136:.\Generated_Source\PSoC5/ADC_DelSig.c ****                                       ADC_DelSig_CFG1_RESOLUTION,
 137:.\Generated_Source\PSoC5/ADC_DelSig.c ****                                       ADC_DelSig_CFG1);
 138:.\Generated_Source\PSoC5/ADC_DelSig.c ****     #if(ADC_DelSig_DEFAULT_NUM_CONFIGS > 1)
 139:.\Generated_Source\PSoC5/ADC_DelSig.c ****         ADC_DelSig_GainCompensation(ADC_DelSig_CFG2_INPUT_RANGE,
 140:.\Generated_Source\PSoC5/ADC_DelSig.c ****                                           ADC_DelSig_CFG2_IDEAL_DEC_GAIN,
 141:.\Generated_Source\PSoC5/ADC_DelSig.c ****                                           ADC_DelSig_CFG2_IDEAL_ODDDEC_GAIN,
 142:.\Generated_Source\PSoC5/ADC_DelSig.c ****                                           ADC_DelSig_CFG2_RESOLUTION,
 143:.\Generated_Source\PSoC5/ADC_DelSig.c ****                                           ADC_DelSig_CFG2);
 144:.\Generated_Source\PSoC5/ADC_DelSig.c ****     #endif /* ADC_DelSig_DEFAULT_NUM_CONFIGS > 1 */
 145:.\Generated_Source\PSoC5/ADC_DelSig.c ****     #if(ADC_DelSig_DEFAULT_NUM_CONFIGS > 2)
 146:.\Generated_Source\PSoC5/ADC_DelSig.c ****         ADC_DelSig_GainCompensation(ADC_DelSig_CFG3_INPUT_RANGE,
 147:.\Generated_Source\PSoC5/ADC_DelSig.c ****                                           ADC_DelSig_CFG3_IDEAL_DEC_GAIN,
 148:.\Generated_Source\PSoC5/ADC_DelSig.c ****                                           ADC_DelSig_CFG3_IDEAL_ODDDEC_GAIN,
 149:.\Generated_Source\PSoC5/ADC_DelSig.c ****                                           ADC_DelSig_CFG3_RESOLUTION,
 150:.\Generated_Source\PSoC5/ADC_DelSig.c ****                                           ADC_DelSig_CFG3);
 151:.\Generated_Source\PSoC5/ADC_DelSig.c ****     #endif /* ADC_DelSig_DEFAULT_NUM_CONFIGS > 2 */
 152:.\Generated_Source\PSoC5/ADC_DelSig.c ****     #if(ADC_DelSig_DEFAULT_NUM_CONFIGS > 3)
 153:.\Generated_Source\PSoC5/ADC_DelSig.c ****         ADC_DelSig_GainCompensation(ADC_DelSig_CFG4_INPUT_RANGE,
 154:.\Generated_Source\PSoC5/ADC_DelSig.c ****                                           ADC_DelSig_CFG4_IDEAL_DEC_GAIN,
 155:.\Generated_Source\PSoC5/ADC_DelSig.c ****                                           ADC_DelSig_CFG4_IDEAL_ODDDEC_GAIN,
 156:.\Generated_Source\PSoC5/ADC_DelSig.c ****                                           ADC_DelSig_CFG4_RESOLUTION,
 157:.\Generated_Source\PSoC5/ADC_DelSig.c ****                                           ADC_DelSig_CFG4);
 158:.\Generated_Source\PSoC5/ADC_DelSig.c ****     #endif /* ADC_DelSig_DEFAULT_NUM_CONFIGS > 3 */
 159:.\Generated_Source\PSoC5/ADC_DelSig.c **** 
 160:.\Generated_Source\PSoC5/ADC_DelSig.c ****     /* Set GCOR register for config1 */
 161:.\Generated_Source\PSoC5/ADC_DelSig.c ****     ADC_DelSig_DEC_GVAL_REG = ADC_DelSig_gcor[ADC_DelSig_Config - 1u].gval;
 158              		.loc 1 161 0
 159 0098 1D4A     		ldr	r2, .L2+64
 160 009a 0D4B     		ldr	r3, .L2
 161 009c 1B78     		ldrb	r3, [r3]
 162 009e DBB2     		uxtb	r3, r3
 163 00a0 013B     		subs	r3, r3, #1
 164 00a2 1C49     		ldr	r1, .L2+68
 165 00a4 9B00     		lsls	r3, r3, #2
 166 00a6 0B44     		add	r3, r3, r1
 167 00a8 9B78     		ldrb	r3, [r3, #2]	@ zero_extendqisi2
 168 00aa 1370     		strb	r3, [r2]
 162:.\Generated_Source\PSoC5/ADC_DelSig.c ****     CY_SET_REG16(ADC_DelSig_DEC_GCOR_16B_PTR, ADC_DelSig_gcor[ADC_DelSig_Config - 1u].gcor);
 169              		.loc 1 162 0
 170 00ac 1A4A     		ldr	r2, .L2+72
 171 00ae 084B     		ldr	r3, .L2
 172 00b0 1B78     		ldrb	r3, [r3]
 173 00b2 DBB2     		uxtb	r3, r3
 174 00b4 013B     		subs	r3, r3, #1
 175 00b6 1749     		ldr	r1, .L2+68
 176 00b8 31F82330 		ldrh	r3, [r1, r3, lsl #2]
 177 00bc 1380     		strh	r3, [r2]	@ movhi
 163:.\Generated_Source\PSoC5/ADC_DelSig.c **** 
 164:.\Generated_Source\PSoC5/ADC_DelSig.c ****     /* Initialize the registers with default customizer settings for config1 */
 165:.\Generated_Source\PSoC5/ADC_DelSig.c ****     ADC_DelSig_InitConfig(ADC_DelSig_Config);
ARM GAS  C:\Users\LUKASC~1\AppData\Local\Temp\ccd9ca13.s 			page 7


 178              		.loc 1 165 0
 179 00be 044B     		ldr	r3, .L2
 180 00c0 1B78     		ldrb	r3, [r3]
 181 00c2 DBB2     		uxtb	r3, r3
 182 00c4 1846     		mov	r0, r3
 183 00c6 FFF7FEFF 		bl	ADC_DelSig_InitConfig
 166:.\Generated_Source\PSoC5/ADC_DelSig.c **** }
 184              		.loc 1 166 0
 185 00ca BD46     		mov	sp, r7
 186              		.cfi_def_cfa_register 13
 187              		@ sp needed
 188 00cc 80BD     		pop	{r7, pc}
 189              	.L3:
 190 00ce 00BF     		.align	2
 191              	.L2:
 192 00d0 00000000 		.word	ADC_DelSig_Config
 193 00d4 00000000 		.word	ADC_DelSig_convDone
 194 00d8 96580040 		.word	1073764502
 195 00dc 97580040 		.word	1073764503
 196 00e0 9E580040 		.word	1073764510
 197 00e4 075B0040 		.word	1073765127
 198 00e8 93580040 		.word	1073764499
 199 00ec 885B0040 		.word	1073765256
 200 00f0 895B0040 		.word	1073765257
 201 00f4 80580040 		.word	1073764480
 202 00f8 81580040 		.word	1073764481
 203 00fc 83580040 		.word	1073764483
 204 0100 88580040 		.word	1073764488
 205 0104 89580040 		.word	1073764489
 206 0108 8D580040 		.word	1073764493
 207 010c 014E0040 		.word	1073761793
 208 0110 0E4E0040 		.word	1073761806
 209 0114 04000000 		.word	ADC_DelSig_gcor
 210 0118 0C4E0040 		.word	1073761804
 211              		.cfi_endproc
 212              	.LFE0:
 213              		.size	ADC_DelSig_Init, .-ADC_DelSig_Init
 214              		.section	.text.ADC_DelSig_Enable,"ax",%progbits
 215              		.align	2
 216              		.global	ADC_DelSig_Enable
 217              		.thumb
 218              		.thumb_func
 219              		.type	ADC_DelSig_Enable, %function
 220              	ADC_DelSig_Enable:
 221              	.LFB1:
 167:.\Generated_Source\PSoC5/ADC_DelSig.c **** 
 168:.\Generated_Source\PSoC5/ADC_DelSig.c **** 
 169:.\Generated_Source\PSoC5/ADC_DelSig.c **** /******************************************************************************
 170:.\Generated_Source\PSoC5/ADC_DelSig.c **** * Function Name: ADC_DelSig_Enable
 171:.\Generated_Source\PSoC5/ADC_DelSig.c **** *******************************************************************************
 172:.\Generated_Source\PSoC5/ADC_DelSig.c **** *
 173:.\Generated_Source\PSoC5/ADC_DelSig.c **** * Summary:
 174:.\Generated_Source\PSoC5/ADC_DelSig.c **** *  Enables the ADC DelSig block operation.
 175:.\Generated_Source\PSoC5/ADC_DelSig.c **** *
 176:.\Generated_Source\PSoC5/ADC_DelSig.c **** *
 177:.\Generated_Source\PSoC5/ADC_DelSig.c **** * Parameters:
 178:.\Generated_Source\PSoC5/ADC_DelSig.c **** *  None
ARM GAS  C:\Users\LUKASC~1\AppData\Local\Temp\ccd9ca13.s 			page 8


 179:.\Generated_Source\PSoC5/ADC_DelSig.c **** *
 180:.\Generated_Source\PSoC5/ADC_DelSig.c **** * Return:
 181:.\Generated_Source\PSoC5/ADC_DelSig.c **** *  None
 182:.\Generated_Source\PSoC5/ADC_DelSig.c **** *
 183:.\Generated_Source\PSoC5/ADC_DelSig.c **** *******************************************************************************/
 184:.\Generated_Source\PSoC5/ADC_DelSig.c **** void ADC_DelSig_Enable(void) 
 185:.\Generated_Source\PSoC5/ADC_DelSig.c **** {
 222              		.loc 1 185 0
 223              		.cfi_startproc
 224              		@ args = 0, pretend = 0, frame = 8
 225              		@ frame_needed = 1, uses_anonymous_args = 0
 226 0000 80B5     		push	{r7, lr}
 227              		.cfi_def_cfa_offset 8
 228              		.cfi_offset 7, -8
 229              		.cfi_offset 14, -4
 230 0002 82B0     		sub	sp, sp, #8
 231              		.cfi_def_cfa_offset 16
 232 0004 00AF     		add	r7, sp, #0
 233              		.cfi_def_cfa_register 7
 186:.\Generated_Source\PSoC5/ADC_DelSig.c **** 	uint8 config;
 187:.\Generated_Source\PSoC5/ADC_DelSig.c ****     uint8 enableInterrupts;
 188:.\Generated_Source\PSoC5/ADC_DelSig.c ****     enableInterrupts = CyEnterCriticalSection();
 234              		.loc 1 188 0
 235 0006 FFF7FEFF 		bl	CyEnterCriticalSection
 236 000a 0346     		mov	r3, r0
 237 000c FB71     		strb	r3, [r7, #7]
 189:.\Generated_Source\PSoC5/ADC_DelSig.c **** 
 190:.\Generated_Source\PSoC5/ADC_DelSig.c ****     /* Read volatile variable to the local variable */
 191:.\Generated_Source\PSoC5/ADC_DelSig.c ****     config = ADC_DelSig_Config;
 238              		.loc 1 191 0
 239 000e 444B     		ldr	r3, .L5
 240 0010 1B78     		ldrb	r3, [r3]
 241 0012 BB71     		strb	r3, [r7, #6]
 192:.\Generated_Source\PSoC5/ADC_DelSig.c ****     
 193:.\Generated_Source\PSoC5/ADC_DelSig.c ****     /* Enable active mode power for ADC */
 194:.\Generated_Source\PSoC5/ADC_DelSig.c ****     ADC_DelSig_PWRMGR_DEC_REG |= ADC_DelSig_ACT_PWR_DEC_EN;
 242              		.loc 1 194 0
 243 0014 434A     		ldr	r2, .L5+4
 244 0016 434B     		ldr	r3, .L5+4
 245 0018 1B78     		ldrb	r3, [r3]
 246 001a DBB2     		uxtb	r3, r3
 247 001c 43F00103 		orr	r3, r3, #1
 248 0020 DBB2     		uxtb	r3, r3
 249 0022 1370     		strb	r3, [r2]
 195:.\Generated_Source\PSoC5/ADC_DelSig.c ****     ADC_DelSig_PWRMGR_DSM_REG |= ADC_DelSig_ACT_PWR_DSM_EN;
 250              		.loc 1 195 0
 251 0024 3F4A     		ldr	r2, .L5+4
 252 0026 3F4B     		ldr	r3, .L5+4
 253 0028 1B78     		ldrb	r3, [r3]
 254 002a DBB2     		uxtb	r3, r3
 255 002c 43F01003 		orr	r3, r3, #16
 256 0030 DBB2     		uxtb	r3, r3
 257 0032 1370     		strb	r3, [r2]
 196:.\Generated_Source\PSoC5/ADC_DelSig.c **** 
 197:.\Generated_Source\PSoC5/ADC_DelSig.c ****      /* Enable alternative active mode power for ADC */
 198:.\Generated_Source\PSoC5/ADC_DelSig.c ****     ADC_DelSig_STBY_PWRMGR_DEC_REG |= ADC_DelSig_STBY_PWR_DEC_EN;
 258              		.loc 1 198 0
ARM GAS  C:\Users\LUKASC~1\AppData\Local\Temp\ccd9ca13.s 			page 9


 259 0034 3C4A     		ldr	r2, .L5+8
 260 0036 3C4B     		ldr	r3, .L5+8
 261 0038 1B78     		ldrb	r3, [r3]
 262 003a DBB2     		uxtb	r3, r3
 263 003c 43F00103 		orr	r3, r3, #1
 264 0040 DBB2     		uxtb	r3, r3
 265 0042 1370     		strb	r3, [r2]
 199:.\Generated_Source\PSoC5/ADC_DelSig.c ****     ADC_DelSig_STBY_PWRMGR_DSM_REG |= ADC_DelSig_STBY_PWR_DSM_EN;
 266              		.loc 1 199 0
 267 0044 384A     		ldr	r2, .L5+8
 268 0046 384B     		ldr	r3, .L5+8
 269 0048 1B78     		ldrb	r3, [r3]
 270 004a DBB2     		uxtb	r3, r3
 271 004c 43F01003 		orr	r3, r3, #16
 272 0050 DBB2     		uxtb	r3, r3
 273 0052 1370     		strb	r3, [r2]
 200:.\Generated_Source\PSoC5/ADC_DelSig.c **** 
 201:.\Generated_Source\PSoC5/ADC_DelSig.c ****     /* Disable PRES, Enable power to VCMBUF0, REFBUF0 and REFBUF1, enable PRES */
 202:.\Generated_Source\PSoC5/ADC_DelSig.c ****     ADC_DelSig_RESET_CR4_REG |= ADC_DelSig_IGNORE_PRESA1;
 274              		.loc 1 202 0
 275 0054 354A     		ldr	r2, .L5+12
 276 0056 354B     		ldr	r3, .L5+12
 277 0058 1B78     		ldrb	r3, [r3]
 278 005a DBB2     		uxtb	r3, r3
 279 005c 43F00203 		orr	r3, r3, #2
 280 0060 DBB2     		uxtb	r3, r3
 281 0062 1370     		strb	r3, [r2]
 203:.\Generated_Source\PSoC5/ADC_DelSig.c ****     ADC_DelSig_RESET_CR5_REG |= ADC_DelSig_IGNORE_PRESA2;
 282              		.loc 1 203 0
 283 0064 324A     		ldr	r2, .L5+16
 284 0066 324B     		ldr	r3, .L5+16
 285 0068 1B78     		ldrb	r3, [r3]
 286 006a DBB2     		uxtb	r3, r3
 287 006c 43F00203 		orr	r3, r3, #2
 288 0070 DBB2     		uxtb	r3, r3
 289 0072 1370     		strb	r3, [r2]
 204:.\Generated_Source\PSoC5/ADC_DelSig.c **** 
 205:.\Generated_Source\PSoC5/ADC_DelSig.c ****     ADC_DelSig_DSM_CR17_REG |= (ADC_DelSig_DSM_EN_BUF_VREF | ADC_DelSig_DSM_EN_BUF_VCM);
 290              		.loc 1 205 0
 291 0074 2F4A     		ldr	r2, .L5+20
 292 0076 2F4B     		ldr	r3, .L5+20
 293 0078 1B78     		ldrb	r3, [r3]
 294 007a DBB2     		uxtb	r3, r3
 295 007c 43F00303 		orr	r3, r3, #3
 296 0080 DBB2     		uxtb	r3, r3
 297 0082 1370     		strb	r3, [r2]
 206:.\Generated_Source\PSoC5/ADC_DelSig.c **** 
 207:.\Generated_Source\PSoC5/ADC_DelSig.c ****     /* Code to disable the REFBUF0 if reference chosen is External ref */
 208:.\Generated_Source\PSoC5/ADC_DelSig.c ****     #if (((ADC_DelSig_CFG1_REFERENCE == ADC_DelSig_EXT_REF_ON_P03) || \
 209:.\Generated_Source\PSoC5/ADC_DelSig.c ****           (ADC_DelSig_CFG1_REFERENCE == ADC_DelSig_EXT_REF_ON_P32)) || \
 210:.\Generated_Source\PSoC5/ADC_DelSig.c ****          ((ADC_DelSig_DEFAULT_NUM_CONFIGS > 1) && \
 211:.\Generated_Source\PSoC5/ADC_DelSig.c ****           ((ADC_DelSig_CFG2_REFERENCE == ADC_DelSig_EXT_REF_ON_P03) ||  \
 212:.\Generated_Source\PSoC5/ADC_DelSig.c ****            (ADC_DelSig_CFG2_REFERENCE == ADC_DelSig_EXT_REF_ON_P32))) || \
 213:.\Generated_Source\PSoC5/ADC_DelSig.c ****          ((ADC_DelSig_DEFAULT_NUM_CONFIGS > 2) && \
 214:.\Generated_Source\PSoC5/ADC_DelSig.c ****           ((ADC_DelSig_CFG3_REFERENCE == ADC_DelSig_EXT_REF_ON_P03) ||  \
 215:.\Generated_Source\PSoC5/ADC_DelSig.c ****            (ADC_DelSig_CFG3_REFERENCE == ADC_DelSig_EXT_REF_ON_P32))) || \
 216:.\Generated_Source\PSoC5/ADC_DelSig.c ****          ((ADC_DelSig_DEFAULT_NUM_CONFIGS > 3) && \
ARM GAS  C:\Users\LUKASC~1\AppData\Local\Temp\ccd9ca13.s 			page 10


 217:.\Generated_Source\PSoC5/ADC_DelSig.c ****           ((ADC_DelSig_CFG4_REFERENCE == ADC_DelSig_EXT_REF_ON_P03) || \
 218:.\Generated_Source\PSoC5/ADC_DelSig.c ****            (ADC_DelSig_CFG4_REFERENCE == ADC_DelSig_EXT_REF_ON_P32))))
 219:.\Generated_Source\PSoC5/ADC_DelSig.c ****         if (((config == 1u) &&
 220:.\Generated_Source\PSoC5/ADC_DelSig.c ****             ((ADC_DelSig_CFG1_REFERENCE == ADC_DelSig_EXT_REF_ON_P03) ||
 221:.\Generated_Source\PSoC5/ADC_DelSig.c ****              (ADC_DelSig_CFG1_REFERENCE == ADC_DelSig_EXT_REF_ON_P32))) ||
 222:.\Generated_Source\PSoC5/ADC_DelSig.c ****             ((config == 2u) &&
 223:.\Generated_Source\PSoC5/ADC_DelSig.c ****             ((ADC_DelSig_CFG2_REFERENCE == ADC_DelSig_EXT_REF_ON_P03) ||
 224:.\Generated_Source\PSoC5/ADC_DelSig.c ****              (ADC_DelSig_CFG2_REFERENCE == ADC_DelSig_EXT_REF_ON_P32))) ||
 225:.\Generated_Source\PSoC5/ADC_DelSig.c ****             ((config == 3u) &&
 226:.\Generated_Source\PSoC5/ADC_DelSig.c ****             ((ADC_DelSig_CFG3_REFERENCE == ADC_DelSig_EXT_REF_ON_P03) ||
 227:.\Generated_Source\PSoC5/ADC_DelSig.c ****              (ADC_DelSig_CFG3_REFERENCE == ADC_DelSig_EXT_REF_ON_P32))) ||
 228:.\Generated_Source\PSoC5/ADC_DelSig.c ****             ((config == 4u) &&
 229:.\Generated_Source\PSoC5/ADC_DelSig.c ****             ((ADC_DelSig_CFG4_REFERENCE == ADC_DelSig_EXT_REF_ON_P03) ||
 230:.\Generated_Source\PSoC5/ADC_DelSig.c ****              (ADC_DelSig_CFG4_REFERENCE == ADC_DelSig_EXT_REF_ON_P32))))
 231:.\Generated_Source\PSoC5/ADC_DelSig.c ****         {
 232:.\Generated_Source\PSoC5/ADC_DelSig.c ****             /* Disable the REFBUF0 */
 233:.\Generated_Source\PSoC5/ADC_DelSig.c ****             ADC_DelSig_DSM_CR17_REG &= (uint8)~ADC_DelSig_DSM_EN_BUF_VREF;
 234:.\Generated_Source\PSoC5/ADC_DelSig.c ****         }
 235:.\Generated_Source\PSoC5/ADC_DelSig.c ****     #endif /* External ref */
 236:.\Generated_Source\PSoC5/ADC_DelSig.c **** 
 237:.\Generated_Source\PSoC5/ADC_DelSig.c ****     #if (((ADC_DelSig_CFG1_INPUT_RANGE == ADC_DelSig_IR_VSSA_TO_2VREF) || \
 238:.\Generated_Source\PSoC5/ADC_DelSig.c ****          ((ADC_DelSig_DEFAULT_NUM_CONFIGS > 1) && \
 239:.\Generated_Source\PSoC5/ADC_DelSig.c ****           (ADC_DelSig_CFG2_INPUT_RANGE == ADC_DelSig_IR_VSSA_TO_2VREF)) || \
 240:.\Generated_Source\PSoC5/ADC_DelSig.c ****          ((ADC_DelSig_DEFAULT_NUM_CONFIGS > 2) && \
 241:.\Generated_Source\PSoC5/ADC_DelSig.c ****           (ADC_DelSig_CFG3_INPUT_RANGE == ADC_DelSig_IR_VSSA_TO_2VREF)) || \
 242:.\Generated_Source\PSoC5/ADC_DelSig.c ****          ((ADC_DelSig_DEFAULT_NUM_CONFIGS > 3) && \
 243:.\Generated_Source\PSoC5/ADC_DelSig.c ****           (ADC_DelSig_CFG4_INPUT_RANGE == ADC_DelSig_IR_VSSA_TO_2VREF))))
 244:.\Generated_Source\PSoC5/ADC_DelSig.c ****         if(((config == 1u) &&
 245:.\Generated_Source\PSoC5/ADC_DelSig.c ****             (ADC_DelSig_CFG1_INPUT_RANGE == ADC_DelSig_IR_VSSA_TO_2VREF) &&
 246:.\Generated_Source\PSoC5/ADC_DelSig.c ****             ((ADC_DelSig_CFG1_REFERENCE != ADC_DelSig_EXT_REF_ON_P03) &&
 247:.\Generated_Source\PSoC5/ADC_DelSig.c ****              (ADC_DelSig_CFG1_REFERENCE != ADC_DelSig_EXT_REF_ON_P32))) ||
 248:.\Generated_Source\PSoC5/ADC_DelSig.c ****              ((config == 2u) &&
 249:.\Generated_Source\PSoC5/ADC_DelSig.c ****               (ADC_DelSig_CFG2_INPUT_RANGE == ADC_DelSig_IR_VSSA_TO_2VREF) &&
 250:.\Generated_Source\PSoC5/ADC_DelSig.c ****              ((ADC_DelSig_CFG2_REFERENCE != ADC_DelSig_EXT_REF_ON_P03) &&
 251:.\Generated_Source\PSoC5/ADC_DelSig.c ****              (ADC_DelSig_CFG2_REFERENCE != ADC_DelSig_EXT_REF_ON_P32))) ||
 252:.\Generated_Source\PSoC5/ADC_DelSig.c ****              ((config == 3u) &&
 253:.\Generated_Source\PSoC5/ADC_DelSig.c ****               (ADC_DelSig_CFG3_INPUT_RANGE == ADC_DelSig_IR_VSSA_TO_2VREF) &&
 254:.\Generated_Source\PSoC5/ADC_DelSig.c ****              ((ADC_DelSig_CFG3_REFERENCE != ADC_DelSig_EXT_REF_ON_P03) &&
 255:.\Generated_Source\PSoC5/ADC_DelSig.c ****              (ADC_DelSig_CFG3_REFERENCE != ADC_DelSig_EXT_REF_ON_P32))) ||
 256:.\Generated_Source\PSoC5/ADC_DelSig.c ****              ((config == 4u) &&
 257:.\Generated_Source\PSoC5/ADC_DelSig.c ****               (ADC_DelSig_CFG4_INPUT_RANGE == ADC_DelSig_IR_VSSA_TO_2VREF) &&
 258:.\Generated_Source\PSoC5/ADC_DelSig.c ****              ((ADC_DelSig_CFG4_REFERENCE != ADC_DelSig_EXT_REF_ON_P03) &&
 259:.\Generated_Source\PSoC5/ADC_DelSig.c ****              (ADC_DelSig_CFG4_REFERENCE != ADC_DelSig_EXT_REF_ON_P32))))
 260:.\Generated_Source\PSoC5/ADC_DelSig.c ****         {
 261:.\Generated_Source\PSoC5/ADC_DelSig.c ****             /* Enable the REFBUF1 */
 262:.\Generated_Source\PSoC5/ADC_DelSig.c ****             ADC_DelSig_DSM_REF0_REG |= ADC_DelSig_DSM_EN_BUF_VREF_INN;
 263:.\Generated_Source\PSoC5/ADC_DelSig.c ****         }
 264:.\Generated_Source\PSoC5/ADC_DelSig.c ****     #endif /* VSSA_TO_2VREF */
 265:.\Generated_Source\PSoC5/ADC_DelSig.c ****     if(config != 0u)
 266:.\Generated_Source\PSoC5/ADC_DelSig.c ****     {
 267:.\Generated_Source\PSoC5/ADC_DelSig.c ****         /* Suppress compiler warning */
 268:.\Generated_Source\PSoC5/ADC_DelSig.c ****     }
 269:.\Generated_Source\PSoC5/ADC_DelSig.c **** 
 270:.\Generated_Source\PSoC5/ADC_DelSig.c ****     /* Wait for 3 microseconds */
 271:.\Generated_Source\PSoC5/ADC_DelSig.c ****     CyDelayUs(ADC_DelSig_PRES_DELAY_TIME);
 298              		.loc 1 271 0
 299 0084 0320     		movs	r0, #3
ARM GAS  C:\Users\LUKASC~1\AppData\Local\Temp\ccd9ca13.s 			page 11


 300 0086 FFF7FEFF 		bl	CyDelayUs
 272:.\Generated_Source\PSoC5/ADC_DelSig.c **** 
 273:.\Generated_Source\PSoC5/ADC_DelSig.c ****     /* Enable the press circuit */
 274:.\Generated_Source\PSoC5/ADC_DelSig.c ****     ADC_DelSig_RESET_CR4_REG &= (uint8)~ADC_DelSig_IGNORE_PRESA1;
 301              		.loc 1 274 0
 302 008a 284A     		ldr	r2, .L5+12
 303 008c 274B     		ldr	r3, .L5+12
 304 008e 1B78     		ldrb	r3, [r3]
 305 0090 DBB2     		uxtb	r3, r3
 306 0092 23F00203 		bic	r3, r3, #2
 307 0096 DBB2     		uxtb	r3, r3
 308 0098 1370     		strb	r3, [r2]
 275:.\Generated_Source\PSoC5/ADC_DelSig.c ****     ADC_DelSig_RESET_CR5_REG &= (uint8)~ADC_DelSig_IGNORE_PRESA2;
 309              		.loc 1 275 0
 310 009a 254A     		ldr	r2, .L5+16
 311 009c 244B     		ldr	r3, .L5+16
 312 009e 1B78     		ldrb	r3, [r3]
 313 00a0 DBB2     		uxtb	r3, r3
 314 00a2 23F00203 		bic	r3, r3, #2
 315 00a6 DBB2     		uxtb	r3, r3
 316 00a8 1370     		strb	r3, [r2]
 276:.\Generated_Source\PSoC5/ADC_DelSig.c **** 
 277:.\Generated_Source\PSoC5/ADC_DelSig.c ****     /* Enable negative pumps for DSM  */
 278:.\Generated_Source\PSoC5/ADC_DelSig.c ****     ADC_DelSig_PUMP_CR1_REG  |= ( ADC_DelSig_PUMP_CR1_CLKSEL | ADC_DelSig_PUMP_CR1_FORCE );
 317              		.loc 1 278 0
 318 00aa 234A     		ldr	r2, .L5+24
 319 00ac 224B     		ldr	r3, .L5+24
 320 00ae 1B78     		ldrb	r3, [r3]
 321 00b0 DBB2     		uxtb	r3, r3
 322 00b2 43F00603 		orr	r3, r3, #6
 323 00b6 DBB2     		uxtb	r3, r3
 324 00b8 1370     		strb	r3, [r2]
 279:.\Generated_Source\PSoC5/ADC_DelSig.c **** 
 280:.\Generated_Source\PSoC5/ADC_DelSig.c ****     /* Enable Modulator Chopping if required */
 281:.\Generated_Source\PSoC5/ADC_DelSig.c ****     ADC_DelSig_DSM_CR2_REG = ADC_DelSig_CFG1_DSM_CR2;
 325              		.loc 1 281 0
 326 00ba 204B     		ldr	r3, .L5+28
 327 00bc 7A22     		movs	r2, #122
 328 00be 1A70     		strb	r2, [r3]
 282:.\Generated_Source\PSoC5/ADC_DelSig.c **** 
 283:.\Generated_Source\PSoC5/ADC_DelSig.c ****     /* This is only valid if there is an internal clock */
 284:.\Generated_Source\PSoC5/ADC_DelSig.c ****     #if(ADC_DelSig_DEFAULT_INTERNAL_CLK)
 285:.\Generated_Source\PSoC5/ADC_DelSig.c ****         ADC_DelSig_PWRMGR_CLK_REG |= ADC_DelSig_ACT_PWR_CLK_EN;
 329              		.loc 1 285 0
 330 00c0 1F4A     		ldr	r2, .L5+32
 331 00c2 1F4B     		ldr	r3, .L5+32
 332 00c4 1B78     		ldrb	r3, [r3]
 333 00c6 DBB2     		uxtb	r3, r3
 334 00c8 43F00103 		orr	r3, r3, #1
 335 00cc DBB2     		uxtb	r3, r3
 336 00ce 1370     		strb	r3, [r2]
 286:.\Generated_Source\PSoC5/ADC_DelSig.c ****         ADC_DelSig_STBY_PWRMGR_CLK_REG |= ADC_DelSig_STBY_PWR_CLK_EN;
 337              		.loc 1 286 0
 338 00d0 1C4A     		ldr	r2, .L5+36
 339 00d2 1C4B     		ldr	r3, .L5+36
 340 00d4 1B78     		ldrb	r3, [r3]
 341 00d6 DBB2     		uxtb	r3, r3
ARM GAS  C:\Users\LUKASC~1\AppData\Local\Temp\ccd9ca13.s 			page 12


 342 00d8 43F00103 		orr	r3, r3, #1
 343 00dc DBB2     		uxtb	r3, r3
 344 00de 1370     		strb	r3, [r2]
 287:.\Generated_Source\PSoC5/ADC_DelSig.c ****     #endif /* ADC_DelSig_DEFAULT_INTERNAL_CLK */
 288:.\Generated_Source\PSoC5/ADC_DelSig.c **** 
 289:.\Generated_Source\PSoC5/ADC_DelSig.c ****     /* Enable the active and alternate active power for charge pump clock */
 290:.\Generated_Source\PSoC5/ADC_DelSig.c ****     ADC_DelSig_PWRMGR_CHARGE_PUMP_CLK_REG |= ADC_DelSig_ACT_PWR_CHARGE_PUMP_CLK_EN;
 345              		.loc 1 290 0
 346 00e0 194A     		ldr	r2, .L5+40
 347 00e2 194B     		ldr	r3, .L5+40
 348 00e4 1B78     		ldrb	r3, [r3]
 349 00e6 DBB2     		uxtb	r3, r3
 350 00e8 43F00103 		orr	r3, r3, #1
 351 00ec DBB2     		uxtb	r3, r3
 352 00ee 1370     		strb	r3, [r2]
 291:.\Generated_Source\PSoC5/ADC_DelSig.c ****     ADC_DelSig_STBY_PWRMGR_CHARGE_PUMP_CLK_REG |= ADC_DelSig_STBY_PWR_CHARGE_PUMP_CLK_EN;
 353              		.loc 1 291 0
 354 00f0 164A     		ldr	r2, .L5+44
 355 00f2 164B     		ldr	r3, .L5+44
 356 00f4 1B78     		ldrb	r3, [r3]
 357 00f6 DBB2     		uxtb	r3, r3
 358 00f8 43F00103 		orr	r3, r3, #1
 359 00fc DBB2     		uxtb	r3, r3
 360 00fe 1370     		strb	r3, [r2]
 292:.\Generated_Source\PSoC5/ADC_DelSig.c **** 
 293:.\Generated_Source\PSoC5/ADC_DelSig.c ****     #if(ADC_DelSig_IRQ_REMOVE == 0u)
 294:.\Generated_Source\PSoC5/ADC_DelSig.c ****         /* Clear a pending interrupt */
 295:.\Generated_Source\PSoC5/ADC_DelSig.c ****         CyIntClearPending(ADC_DelSig_INTC_NUMBER);
 361              		.loc 1 295 0
 362 0100 134B     		ldr	r3, .L5+48
 363 0102 4FF00052 		mov	r2, #536870912
 364 0106 1A60     		str	r2, [r3]
 296:.\Generated_Source\PSoC5/ADC_DelSig.c ****         /* Enable interrupt */
 297:.\Generated_Source\PSoC5/ADC_DelSig.c ****         CyIntEnable(ADC_DelSig_INTC_NUMBER);
 365              		.loc 1 297 0
 366 0108 124B     		ldr	r3, .L5+52
 367 010a 4FF00052 		mov	r2, #536870912
 368 010e 1A60     		str	r2, [r3]
 298:.\Generated_Source\PSoC5/ADC_DelSig.c ****     #endif   /* End ADC_DelSig_IRQ_REMOVE */
 299:.\Generated_Source\PSoC5/ADC_DelSig.c **** 
 300:.\Generated_Source\PSoC5/ADC_DelSig.c ****     CyExitCriticalSection(enableInterrupts);
 369              		.loc 1 300 0
 370 0110 FB79     		ldrb	r3, [r7, #7]	@ zero_extendqisi2
 371 0112 1846     		mov	r0, r3
 372 0114 FFF7FEFF 		bl	CyExitCriticalSection
 301:.\Generated_Source\PSoC5/ADC_DelSig.c **** 
 302:.\Generated_Source\PSoC5/ADC_DelSig.c **** }
 373              		.loc 1 302 0
 374 0118 0837     		adds	r7, r7, #8
 375              		.cfi_def_cfa_offset 8
 376 011a BD46     		mov	sp, r7
 377              		.cfi_def_cfa_register 13
 378              		@ sp needed
 379 011c 80BD     		pop	{r7, pc}
 380              	.L6:
 381 011e 00BF     		.align	2
 382              	.L5:
ARM GAS  C:\Users\LUKASC~1\AppData\Local\Temp\ccd9ca13.s 			page 13


 383 0120 00000000 		.word	ADC_DelSig_Config
 384 0124 AA430040 		.word	1073759146
 385 0128 BA430040 		.word	1073759162
 386 012c F8460040 		.word	1073759992
 387 0130 F9460040 		.word	1073759993
 388 0134 91580040 		.word	1073764497
 389 0138 77580040 		.word	1073764471
 390 013c 82580040 		.word	1073764482
 391 0140 A1430040 		.word	1073759137
 392 0144 B1430040 		.word	1073759153
 393 0148 A2430040 		.word	1073759138
 394 014c B2430040 		.word	1073759154
 395 0150 80E200E0 		.word	-536812928
 396 0154 00E100E0 		.word	-536813312
 397              		.cfi_endproc
 398              	.LFE1:
 399              		.size	ADC_DelSig_Enable, .-ADC_DelSig_Enable
 400              		.section	.text.ADC_DelSig_Start,"ax",%progbits
 401              		.align	2
 402              		.global	ADC_DelSig_Start
 403              		.thumb
 404              		.thumb_func
 405              		.type	ADC_DelSig_Start, %function
 406              	ADC_DelSig_Start:
 407              	.LFB2:
 303:.\Generated_Source\PSoC5/ADC_DelSig.c **** 
 304:.\Generated_Source\PSoC5/ADC_DelSig.c **** 
 305:.\Generated_Source\PSoC5/ADC_DelSig.c **** /*******************************************************************************
 306:.\Generated_Source\PSoC5/ADC_DelSig.c **** * Function Name: ADC_DelSig_Start
 307:.\Generated_Source\PSoC5/ADC_DelSig.c **** ********************************************************************************
 308:.\Generated_Source\PSoC5/ADC_DelSig.c **** *
 309:.\Generated_Source\PSoC5/ADC_DelSig.c **** * Summary:
 310:.\Generated_Source\PSoC5/ADC_DelSig.c **** *  Performs all required initialization for this component and enables
 311:.\Generated_Source\PSoC5/ADC_DelSig.c **** *  the power. It configure all the register the first time it is called.
 312:.\Generated_Source\PSoC5/ADC_DelSig.c **** *  Subsequent calls of the Start function only enable the ADC and turn
 313:.\Generated_Source\PSoC5/ADC_DelSig.c **** *  on the power. If multiple configurations are selected, it will
 314:.\Generated_Source\PSoC5/ADC_DelSig.c **** *  configure the ADC for configuration 1 by default, unless the
 315:.\Generated_Source\PSoC5/ADC_DelSig.c **** *  ADC_DelSig_SelectConfiguration( ) function has been called to change
 316:.\Generated_Source\PSoC5/ADC_DelSig.c **** *  the default setting.
 317:.\Generated_Source\PSoC5/ADC_DelSig.c **** *
 318:.\Generated_Source\PSoC5/ADC_DelSig.c **** * Parameters:
 319:.\Generated_Source\PSoC5/ADC_DelSig.c **** *  None
 320:.\Generated_Source\PSoC5/ADC_DelSig.c **** *
 321:.\Generated_Source\PSoC5/ADC_DelSig.c **** * Return:
 322:.\Generated_Source\PSoC5/ADC_DelSig.c **** *  None
 323:.\Generated_Source\PSoC5/ADC_DelSig.c **** *
 324:.\Generated_Source\PSoC5/ADC_DelSig.c **** * Global variables:
 325:.\Generated_Source\PSoC5/ADC_DelSig.c **** *  ADC_DelSig_initVar:  Used to check the initial configuration,
 326:.\Generated_Source\PSoC5/ADC_DelSig.c **** *  modified when this function is called for the first time.
 327:.\Generated_Source\PSoC5/ADC_DelSig.c **** *
 328:.\Generated_Source\PSoC5/ADC_DelSig.c **** *******************************************************************************/
 329:.\Generated_Source\PSoC5/ADC_DelSig.c **** void ADC_DelSig_Start(void) 
 330:.\Generated_Source\PSoC5/ADC_DelSig.c **** {
 408              		.loc 1 330 0
 409              		.cfi_startproc
 410              		@ args = 0, pretend = 0, frame = 0
 411              		@ frame_needed = 1, uses_anonymous_args = 0
ARM GAS  C:\Users\LUKASC~1\AppData\Local\Temp\ccd9ca13.s 			page 14


 412 0000 80B5     		push	{r7, lr}
 413              		.cfi_def_cfa_offset 8
 414              		.cfi_offset 7, -8
 415              		.cfi_offset 14, -4
 416 0002 00AF     		add	r7, sp, #0
 417              		.cfi_def_cfa_register 7
 331:.\Generated_Source\PSoC5/ADC_DelSig.c ****     if(ADC_DelSig_initVar == 0u)
 418              		.loc 1 331 0
 419 0004 084B     		ldr	r3, .L10
 420 0006 1B78     		ldrb	r3, [r3]	@ zero_extendqisi2
 421 0008 002B     		cmp	r3, #0
 422 000a 09D1     		bne	.L8
 332:.\Generated_Source\PSoC5/ADC_DelSig.c ****     {
 333:.\Generated_Source\PSoC5/ADC_DelSig.c ****         if(ADC_DelSig_started == 0u)
 423              		.loc 1 333 0
 424 000c 074B     		ldr	r3, .L10+4
 425 000e 1B78     		ldrb	r3, [r3]
 426 0010 DBB2     		uxtb	r3, r3
 427 0012 002B     		cmp	r3, #0
 428 0014 01D1     		bne	.L9
 334:.\Generated_Source\PSoC5/ADC_DelSig.c ****         {
 335:.\Generated_Source\PSoC5/ADC_DelSig.c ****             ADC_DelSig_Init();
 429              		.loc 1 335 0
 430 0016 FFF7FEFF 		bl	ADC_DelSig_Init
 431              	.L9:
 336:.\Generated_Source\PSoC5/ADC_DelSig.c ****         }
 337:.\Generated_Source\PSoC5/ADC_DelSig.c ****         ADC_DelSig_initVar = 1u;
 432              		.loc 1 337 0
 433 001a 034B     		ldr	r3, .L10
 434 001c 0122     		movs	r2, #1
 435 001e 1A70     		strb	r2, [r3]
 436              	.L8:
 338:.\Generated_Source\PSoC5/ADC_DelSig.c ****     }
 339:.\Generated_Source\PSoC5/ADC_DelSig.c **** 
 340:.\Generated_Source\PSoC5/ADC_DelSig.c ****     /* Enable the ADC */
 341:.\Generated_Source\PSoC5/ADC_DelSig.c ****     ADC_DelSig_Enable();
 437              		.loc 1 341 0
 438 0020 FFF7FEFF 		bl	ADC_DelSig_Enable
 342:.\Generated_Source\PSoC5/ADC_DelSig.c **** }
 439              		.loc 1 342 0
 440 0024 80BD     		pop	{r7, pc}
 441              	.L11:
 442 0026 00BF     		.align	2
 443              	.L10:
 444 0028 00000000 		.word	ADC_DelSig_initVar
 445 002c 00000000 		.word	ADC_DelSig_started
 446              		.cfi_endproc
 447              	.LFE2:
 448              		.size	ADC_DelSig_Start, .-ADC_DelSig_Start
 449              		.section	.text.ADC_DelSig_Stop,"ax",%progbits
 450              		.align	2
 451              		.global	ADC_DelSig_Stop
 452              		.thumb
 453              		.thumb_func
 454              		.type	ADC_DelSig_Stop, %function
 455              	ADC_DelSig_Stop:
 456              	.LFB3:
ARM GAS  C:\Users\LUKASC~1\AppData\Local\Temp\ccd9ca13.s 			page 15


 343:.\Generated_Source\PSoC5/ADC_DelSig.c **** 
 344:.\Generated_Source\PSoC5/ADC_DelSig.c **** 
 345:.\Generated_Source\PSoC5/ADC_DelSig.c **** /*******************************************************************************
 346:.\Generated_Source\PSoC5/ADC_DelSig.c **** * Function Name: ADC_DelSig_Stop
 347:.\Generated_Source\PSoC5/ADC_DelSig.c **** ********************************************************************************
 348:.\Generated_Source\PSoC5/ADC_DelSig.c **** *
 349:.\Generated_Source\PSoC5/ADC_DelSig.c **** * Summary:
 350:.\Generated_Source\PSoC5/ADC_DelSig.c **** *  This function stops and powers down the ADC component and the internal
 351:.\Generated_Source\PSoC5/ADC_DelSig.c **** *  clock if the external clock is not selected. If an external clock is
 352:.\Generated_Source\PSoC5/ADC_DelSig.c **** *  used, it is up to the designer to power down the external clock it
 353:.\Generated_Source\PSoC5/ADC_DelSig.c **** *  required.
 354:.\Generated_Source\PSoC5/ADC_DelSig.c **** *
 355:.\Generated_Source\PSoC5/ADC_DelSig.c **** * Parameters:
 356:.\Generated_Source\PSoC5/ADC_DelSig.c **** *  None
 357:.\Generated_Source\PSoC5/ADC_DelSig.c **** *
 358:.\Generated_Source\PSoC5/ADC_DelSig.c **** * Return:
 359:.\Generated_Source\PSoC5/ADC_DelSig.c **** *  None
 360:.\Generated_Source\PSoC5/ADC_DelSig.c **** *
 361:.\Generated_Source\PSoC5/ADC_DelSig.c **** *******************************************************************************/
 362:.\Generated_Source\PSoC5/ADC_DelSig.c **** void ADC_DelSig_Stop(void) 
 363:.\Generated_Source\PSoC5/ADC_DelSig.c **** {
 457              		.loc 1 363 0
 458              		.cfi_startproc
 459              		@ args = 0, pretend = 0, frame = 8
 460              		@ frame_needed = 1, uses_anonymous_args = 0
 461 0000 80B5     		push	{r7, lr}
 462              		.cfi_def_cfa_offset 8
 463              		.cfi_offset 7, -8
 464              		.cfi_offset 14, -4
 465 0002 82B0     		sub	sp, sp, #8
 466              		.cfi_def_cfa_offset 16
 467 0004 00AF     		add	r7, sp, #0
 468              		.cfi_def_cfa_register 7
 364:.\Generated_Source\PSoC5/ADC_DelSig.c ****     uint8 enableInterrupts;
 365:.\Generated_Source\PSoC5/ADC_DelSig.c ****     enableInterrupts = CyEnterCriticalSection();
 469              		.loc 1 365 0
 470 0006 FFF7FEFF 		bl	CyEnterCriticalSection
 471 000a 0346     		mov	r3, r0
 472 000c FB71     		strb	r3, [r7, #7]
 366:.\Generated_Source\PSoC5/ADC_DelSig.c **** 
 367:.\Generated_Source\PSoC5/ADC_DelSig.c ****     /* Stop conversions */
 368:.\Generated_Source\PSoC5/ADC_DelSig.c ****     ADC_DelSig_DEC_CR_REG &= (uint8)~ADC_DelSig_DEC_START_CONV;
 473              		.loc 1 368 0
 474 000e 4D4A     		ldr	r2, .L13
 475 0010 4C4B     		ldr	r3, .L13
 476 0012 1B78     		ldrb	r3, [r3]
 477 0014 DBB2     		uxtb	r3, r3
 478 0016 23F00103 		bic	r3, r3, #1
 479 001a DBB2     		uxtb	r3, r3
 480 001c 1370     		strb	r3, [r2]
 369:.\Generated_Source\PSoC5/ADC_DelSig.c ****     ADC_DelSig_DEC_SR_REG |=  ADC_DelSig_DEC_INTR_CLEAR;
 481              		.loc 1 369 0
 482 001e 4A4A     		ldr	r2, .L13+4
 483 0020 494B     		ldr	r3, .L13+4
 484 0022 1B78     		ldrb	r3, [r3]
 485 0024 DBB2     		uxtb	r3, r3
 486 0026 43F00403 		orr	r3, r3, #4
ARM GAS  C:\Users\LUKASC~1\AppData\Local\Temp\ccd9ca13.s 			page 16


 487 002a DBB2     		uxtb	r3, r3
 488 002c 1370     		strb	r3, [r2]
 370:.\Generated_Source\PSoC5/ADC_DelSig.c **** 
 371:.\Generated_Source\PSoC5/ADC_DelSig.c ****     /* Disable PRES, Disable power to VCMBUF0, REFBUF0 and REFBUF1,
 372:.\Generated_Source\PSoC5/ADC_DelSig.c ****        enable PRES */
 373:.\Generated_Source\PSoC5/ADC_DelSig.c ****     ADC_DelSig_RESET_CR4_REG |= ADC_DelSig_IGNORE_PRESA1;
 489              		.loc 1 373 0
 490 002e 474A     		ldr	r2, .L13+8
 491 0030 464B     		ldr	r3, .L13+8
 492 0032 1B78     		ldrb	r3, [r3]
 493 0034 DBB2     		uxtb	r3, r3
 494 0036 43F00203 		orr	r3, r3, #2
 495 003a DBB2     		uxtb	r3, r3
 496 003c 1370     		strb	r3, [r2]
 374:.\Generated_Source\PSoC5/ADC_DelSig.c ****     ADC_DelSig_RESET_CR5_REG |= ADC_DelSig_IGNORE_PRESA2;
 497              		.loc 1 374 0
 498 003e 444A     		ldr	r2, .L13+12
 499 0040 434B     		ldr	r3, .L13+12
 500 0042 1B78     		ldrb	r3, [r3]
 501 0044 DBB2     		uxtb	r3, r3
 502 0046 43F00203 		orr	r3, r3, #2
 503 004a DBB2     		uxtb	r3, r3
 504 004c 1370     		strb	r3, [r2]
 375:.\Generated_Source\PSoC5/ADC_DelSig.c **** 
 376:.\Generated_Source\PSoC5/ADC_DelSig.c ****     ADC_DelSig_DSM_CR17_REG &= (uint8)~(ADC_DelSig_DSM_EN_BUF_VREF | ADC_DelSig_DSM_EN_BUF_VCM);
 505              		.loc 1 376 0
 506 004e 414A     		ldr	r2, .L13+16
 507 0050 404B     		ldr	r3, .L13+16
 508 0052 1B78     		ldrb	r3, [r3]
 509 0054 DBB2     		uxtb	r3, r3
 510 0056 23F00303 		bic	r3, r3, #3
 511 005a DBB2     		uxtb	r3, r3
 512 005c 1370     		strb	r3, [r2]
 377:.\Generated_Source\PSoC5/ADC_DelSig.c ****     ADC_DelSig_DSM_REF0_REG &= (uint8)~ADC_DelSig_DSM_EN_BUF_VREF_INN;
 513              		.loc 1 377 0
 514 005e 3E4A     		ldr	r2, .L13+20
 515 0060 3D4B     		ldr	r3, .L13+20
 516 0062 1B78     		ldrb	r3, [r3]
 517 0064 DBB2     		uxtb	r3, r3
 518 0066 23F00803 		bic	r3, r3, #8
 519 006a DBB2     		uxtb	r3, r3
 520 006c 1370     		strb	r3, [r2]
 378:.\Generated_Source\PSoC5/ADC_DelSig.c **** 
 379:.\Generated_Source\PSoC5/ADC_DelSig.c ****     /* Wait for 3 microseconds. */
 380:.\Generated_Source\PSoC5/ADC_DelSig.c ****     CyDelayUs(ADC_DelSig_PRES_DELAY_TIME);
 521              		.loc 1 380 0
 522 006e 0320     		movs	r0, #3
 523 0070 FFF7FEFF 		bl	CyDelayUs
 381:.\Generated_Source\PSoC5/ADC_DelSig.c **** 
 382:.\Generated_Source\PSoC5/ADC_DelSig.c ****     /* Enable the press circuit */
 383:.\Generated_Source\PSoC5/ADC_DelSig.c ****     ADC_DelSig_RESET_CR4_REG &= (uint8)~ADC_DelSig_IGNORE_PRESA1;
 524              		.loc 1 383 0
 525 0074 354A     		ldr	r2, .L13+8
 526 0076 354B     		ldr	r3, .L13+8
 527 0078 1B78     		ldrb	r3, [r3]
 528 007a DBB2     		uxtb	r3, r3
 529 007c 23F00203 		bic	r3, r3, #2
ARM GAS  C:\Users\LUKASC~1\AppData\Local\Temp\ccd9ca13.s 			page 17


 530 0080 DBB2     		uxtb	r3, r3
 531 0082 1370     		strb	r3, [r2]
 384:.\Generated_Source\PSoC5/ADC_DelSig.c ****     ADC_DelSig_RESET_CR5_REG &= (uint8)~ADC_DelSig_IGNORE_PRESA2;
 532              		.loc 1 384 0
 533 0084 324A     		ldr	r2, .L13+12
 534 0086 324B     		ldr	r3, .L13+12
 535 0088 1B78     		ldrb	r3, [r3]
 536 008a DBB2     		uxtb	r3, r3
 537 008c 23F00203 		bic	r3, r3, #2
 538 0090 DBB2     		uxtb	r3, r3
 539 0092 1370     		strb	r3, [r2]
 385:.\Generated_Source\PSoC5/ADC_DelSig.c **** 
 386:.\Generated_Source\PSoC5/ADC_DelSig.c ****     /* Disable power to the ADC */
 387:.\Generated_Source\PSoC5/ADC_DelSig.c ****     ADC_DelSig_PWRMGR_DSM_REG &= (uint8)~ADC_DelSig_ACT_PWR_DSM_EN;
 540              		.loc 1 387 0
 541 0094 314A     		ldr	r2, .L13+24
 542 0096 314B     		ldr	r3, .L13+24
 543 0098 1B78     		ldrb	r3, [r3]
 544 009a DBB2     		uxtb	r3, r3
 545 009c 23F01003 		bic	r3, r3, #16
 546 00a0 DBB2     		uxtb	r3, r3
 547 00a2 1370     		strb	r3, [r2]
 388:.\Generated_Source\PSoC5/ADC_DelSig.c **** 
 389:.\Generated_Source\PSoC5/ADC_DelSig.c ****     /* Disable power to Decimator block */
 390:.\Generated_Source\PSoC5/ADC_DelSig.c ****     ADC_DelSig_PWRMGR_DEC_REG &= (uint8)~ADC_DelSig_ACT_PWR_DEC_EN;
 548              		.loc 1 390 0
 549 00a4 2D4A     		ldr	r2, .L13+24
 550 00a6 2D4B     		ldr	r3, .L13+24
 551 00a8 1B78     		ldrb	r3, [r3]
 552 00aa DBB2     		uxtb	r3, r3
 553 00ac 23F00103 		bic	r3, r3, #1
 554 00b0 DBB2     		uxtb	r3, r3
 555 00b2 1370     		strb	r3, [r2]
 391:.\Generated_Source\PSoC5/ADC_DelSig.c **** 
 392:.\Generated_Source\PSoC5/ADC_DelSig.c ****     /* Disable alternative active power to the ADC */
 393:.\Generated_Source\PSoC5/ADC_DelSig.c ****     ADC_DelSig_STBY_PWRMGR_DEC_REG &= (uint8)~ADC_DelSig_STBY_PWR_DEC_EN;
 556              		.loc 1 393 0
 557 00b4 2A4A     		ldr	r2, .L13+28
 558 00b6 2A4B     		ldr	r3, .L13+28
 559 00b8 1B78     		ldrb	r3, [r3]
 560 00ba DBB2     		uxtb	r3, r3
 561 00bc 23F00103 		bic	r3, r3, #1
 562 00c0 DBB2     		uxtb	r3, r3
 563 00c2 1370     		strb	r3, [r2]
 394:.\Generated_Source\PSoC5/ADC_DelSig.c ****     ADC_DelSig_STBY_PWRMGR_DSM_REG &= (uint8)~ADC_DelSig_STBY_PWR_DSM_EN;
 564              		.loc 1 394 0
 565 00c4 264A     		ldr	r2, .L13+28
 566 00c6 264B     		ldr	r3, .L13+28
 567 00c8 1B78     		ldrb	r3, [r3]
 568 00ca DBB2     		uxtb	r3, r3
 569 00cc 23F01003 		bic	r3, r3, #16
 570 00d0 DBB2     		uxtb	r3, r3
 571 00d2 1370     		strb	r3, [r2]
 395:.\Generated_Source\PSoC5/ADC_DelSig.c **** 
 396:.\Generated_Source\PSoC5/ADC_DelSig.c ****    /* Disable negative pumps for DSM  */
 397:.\Generated_Source\PSoC5/ADC_DelSig.c ****     ADC_DelSig_PUMP_CR1_REG &= (uint8)~(ADC_DelSig_PUMP_CR1_CLKSEL | ADC_DelSig_PUMP_CR1_FORCE );
 572              		.loc 1 397 0
ARM GAS  C:\Users\LUKASC~1\AppData\Local\Temp\ccd9ca13.s 			page 18


 573 00d4 234A     		ldr	r2, .L13+32
 574 00d6 234B     		ldr	r3, .L13+32
 575 00d8 1B78     		ldrb	r3, [r3]
 576 00da DBB2     		uxtb	r3, r3
 577 00dc 23F00603 		bic	r3, r3, #6
 578 00e0 DBB2     		uxtb	r3, r3
 579 00e2 1370     		strb	r3, [r2]
 398:.\Generated_Source\PSoC5/ADC_DelSig.c **** 
 399:.\Generated_Source\PSoC5/ADC_DelSig.c ****     /* This is only valid if there is an internal clock */
 400:.\Generated_Source\PSoC5/ADC_DelSig.c ****     #if(ADC_DelSig_DEFAULT_INTERNAL_CLK)
 401:.\Generated_Source\PSoC5/ADC_DelSig.c ****         ADC_DelSig_PWRMGR_CLK_REG &= (uint8)~ADC_DelSig_ACT_PWR_CLK_EN;
 580              		.loc 1 401 0
 581 00e4 204A     		ldr	r2, .L13+36
 582 00e6 204B     		ldr	r3, .L13+36
 583 00e8 1B78     		ldrb	r3, [r3]
 584 00ea DBB2     		uxtb	r3, r3
 585 00ec 23F00103 		bic	r3, r3, #1
 586 00f0 DBB2     		uxtb	r3, r3
 587 00f2 1370     		strb	r3, [r2]
 402:.\Generated_Source\PSoC5/ADC_DelSig.c ****         ADC_DelSig_STBY_PWRMGR_CLK_REG &= (uint8)~ADC_DelSig_STBY_PWR_CLK_EN;
 588              		.loc 1 402 0
 589 00f4 1D4A     		ldr	r2, .L13+40
 590 00f6 1D4B     		ldr	r3, .L13+40
 591 00f8 1B78     		ldrb	r3, [r3]
 592 00fa DBB2     		uxtb	r3, r3
 593 00fc 23F00103 		bic	r3, r3, #1
 594 0100 DBB2     		uxtb	r3, r3
 595 0102 1370     		strb	r3, [r2]
 403:.\Generated_Source\PSoC5/ADC_DelSig.c ****     #endif /* ADC_DelSig_DEFAULT_INTERNAL_CLK */
 404:.\Generated_Source\PSoC5/ADC_DelSig.c **** 
 405:.\Generated_Source\PSoC5/ADC_DelSig.c ****     /* Disable Modulator Chopping */
 406:.\Generated_Source\PSoC5/ADC_DelSig.c ****     ADC_DelSig_DSM_CR2_REG &= (uint8)~ADC_DelSig_DSM_MOD_CHOP_EN;
 596              		.loc 1 406 0
 597 0104 1A4A     		ldr	r2, .L13+44
 598 0106 1A4B     		ldr	r3, .L13+44
 599 0108 1B78     		ldrb	r3, [r3]
 600 010a DBB2     		uxtb	r3, r3
 601 010c 23F00803 		bic	r3, r3, #8
 602 0110 DBB2     		uxtb	r3, r3
 603 0112 1370     		strb	r3, [r2]
 407:.\Generated_Source\PSoC5/ADC_DelSig.c ****     /* Disable power to charge pump clock */
 408:.\Generated_Source\PSoC5/ADC_DelSig.c ****     ADC_DelSig_PWRMGR_CHARGE_PUMP_CLK_REG &= (uint8)~ADC_DelSig_ACT_PWR_CHARGE_PUMP_CLK_EN;
 604              		.loc 1 408 0
 605 0114 174A     		ldr	r2, .L13+48
 606 0116 174B     		ldr	r3, .L13+48
 607 0118 1B78     		ldrb	r3, [r3]
 608 011a DBB2     		uxtb	r3, r3
 609 011c 23F00103 		bic	r3, r3, #1
 610 0120 DBB2     		uxtb	r3, r3
 611 0122 1370     		strb	r3, [r2]
 409:.\Generated_Source\PSoC5/ADC_DelSig.c ****     ADC_DelSig_STBY_PWRMGR_CHARGE_PUMP_CLK_REG &= (uint8)~ADC_DelSig_STBY_PWR_CHARGE_PUMP_CLK_EN;
 612              		.loc 1 409 0
 613 0124 144A     		ldr	r2, .L13+52
 614 0126 144B     		ldr	r3, .L13+52
 615 0128 1B78     		ldrb	r3, [r3]
 616 012a DBB2     		uxtb	r3, r3
 617 012c 23F00103 		bic	r3, r3, #1
ARM GAS  C:\Users\LUKASC~1\AppData\Local\Temp\ccd9ca13.s 			page 19


 618 0130 DBB2     		uxtb	r3, r3
 619 0132 1370     		strb	r3, [r2]
 410:.\Generated_Source\PSoC5/ADC_DelSig.c ****     
 411:.\Generated_Source\PSoC5/ADC_DelSig.c ****     CyExitCriticalSection(enableInterrupts);
 620              		.loc 1 411 0
 621 0134 FB79     		ldrb	r3, [r7, #7]	@ zero_extendqisi2
 622 0136 1846     		mov	r0, r3
 623 0138 FFF7FEFF 		bl	CyExitCriticalSection
 412:.\Generated_Source\PSoC5/ADC_DelSig.c **** }
 624              		.loc 1 412 0
 625 013c 0837     		adds	r7, r7, #8
 626              		.cfi_def_cfa_offset 8
 627 013e BD46     		mov	sp, r7
 628              		.cfi_def_cfa_register 13
 629              		@ sp needed
 630 0140 80BD     		pop	{r7, pc}
 631              	.L14:
 632 0142 00BF     		.align	2
 633              	.L13:
 634 0144 004E0040 		.word	1073761792
 635 0148 014E0040 		.word	1073761793
 636 014c F8460040 		.word	1073759992
 637 0150 F9460040 		.word	1073759993
 638 0154 91580040 		.word	1073764497
 639 0158 92580040 		.word	1073764498
 640 015c AA430040 		.word	1073759146
 641 0160 BA430040 		.word	1073759162
 642 0164 77580040 		.word	1073764471
 643 0168 A1430040 		.word	1073759137
 644 016c B1430040 		.word	1073759153
 645 0170 82580040 		.word	1073764482
 646 0174 A2430040 		.word	1073759138
 647 0178 B2430040 		.word	1073759154
 648              		.cfi_endproc
 649              	.LFE3:
 650              		.size	ADC_DelSig_Stop, .-ADC_DelSig_Stop
 651              		.section	.text.ADC_DelSig_SetBufferGain,"ax",%progbits
 652              		.align	2
 653              		.global	ADC_DelSig_SetBufferGain
 654              		.thumb
 655              		.thumb_func
 656              		.type	ADC_DelSig_SetBufferGain, %function
 657              	ADC_DelSig_SetBufferGain:
 658              	.LFB4:
 413:.\Generated_Source\PSoC5/ADC_DelSig.c **** 
 414:.\Generated_Source\PSoC5/ADC_DelSig.c **** 
 415:.\Generated_Source\PSoC5/ADC_DelSig.c **** /*******************************************************************************
 416:.\Generated_Source\PSoC5/ADC_DelSig.c **** * Function Name: ADC_DelSig_SetBufferGain
 417:.\Generated_Source\PSoC5/ADC_DelSig.c **** ********************************************************************************
 418:.\Generated_Source\PSoC5/ADC_DelSig.c **** *
 419:.\Generated_Source\PSoC5/ADC_DelSig.c **** * Summary:
 420:.\Generated_Source\PSoC5/ADC_DelSig.c **** *  Sets input buffer gain.
 421:.\Generated_Source\PSoC5/ADC_DelSig.c **** *
 422:.\Generated_Source\PSoC5/ADC_DelSig.c **** * Parameters:
 423:.\Generated_Source\PSoC5/ADC_DelSig.c **** *  gain:  Two bit value to select a gain of 1, 2, 4, or 8.
 424:.\Generated_Source\PSoC5/ADC_DelSig.c **** *
 425:.\Generated_Source\PSoC5/ADC_DelSig.c **** * Return:
ARM GAS  C:\Users\LUKASC~1\AppData\Local\Temp\ccd9ca13.s 			page 20


 426:.\Generated_Source\PSoC5/ADC_DelSig.c **** *  None
 427:.\Generated_Source\PSoC5/ADC_DelSig.c **** *
 428:.\Generated_Source\PSoC5/ADC_DelSig.c **** *******************************************************************************/
 429:.\Generated_Source\PSoC5/ADC_DelSig.c **** void ADC_DelSig_SetBufferGain(uint8 gain) 
 430:.\Generated_Source\PSoC5/ADC_DelSig.c **** {
 659              		.loc 1 430 0
 660              		.cfi_startproc
 661              		@ args = 0, pretend = 0, frame = 16
 662              		@ frame_needed = 1, uses_anonymous_args = 0
 663              		@ link register save eliminated.
 664 0000 80B4     		push	{r7}
 665              		.cfi_def_cfa_offset 4
 666              		.cfi_offset 7, -4
 667 0002 85B0     		sub	sp, sp, #20
 668              		.cfi_def_cfa_offset 24
 669 0004 00AF     		add	r7, sp, #0
 670              		.cfi_def_cfa_register 7
 671 0006 0346     		mov	r3, r0
 672 0008 FB71     		strb	r3, [r7, #7]
 431:.\Generated_Source\PSoC5/ADC_DelSig.c ****     uint8 tmpReg;
 432:.\Generated_Source\PSoC5/ADC_DelSig.c ****     tmpReg = ADC_DelSig_DSM_BUF1_REG & (uint8)~ADC_DelSig_DSM_GAIN_MASK;
 673              		.loc 1 432 0
 674 000a 0B4B     		ldr	r3, .L16
 675 000c 1B78     		ldrb	r3, [r3]
 676 000e DBB2     		uxtb	r3, r3
 677 0010 23F00C03 		bic	r3, r3, #12
 678 0014 FB73     		strb	r3, [r7, #15]
 433:.\Generated_Source\PSoC5/ADC_DelSig.c ****     tmpReg |= (uint8)(gain << ADC_DelSig_DSM_GAIN_SHIFT) & ADC_DelSig_DSM_GAIN_MASK;
 679              		.loc 1 433 0
 680 0016 FB79     		ldrb	r3, [r7, #7]
 681 0018 9B00     		lsls	r3, r3, #2
 682 001a DBB2     		uxtb	r3, r3
 683 001c 03F00C03 		and	r3, r3, #12
 684 0020 DAB2     		uxtb	r2, r3
 685 0022 FB7B     		ldrb	r3, [r7, #15]
 686 0024 1343     		orrs	r3, r3, r2
 687 0026 FB73     		strb	r3, [r7, #15]
 434:.\Generated_Source\PSoC5/ADC_DelSig.c ****     ADC_DelSig_DSM_BUF1_REG = tmpReg;
 688              		.loc 1 434 0
 689 0028 034A     		ldr	r2, .L16
 690 002a FB7B     		ldrb	r3, [r7, #15]
 691 002c 1370     		strb	r3, [r2]
 435:.\Generated_Source\PSoC5/ADC_DelSig.c **** }
 692              		.loc 1 435 0
 693 002e 1437     		adds	r7, r7, #20
 694              		.cfi_def_cfa_offset 4
 695 0030 BD46     		mov	sp, r7
 696              		.cfi_def_cfa_register 13
 697              		@ sp needed
 698 0032 5DF8047B 		ldr	r7, [sp], #4
 699              		.cfi_restore 7
 700              		.cfi_def_cfa_offset 0
 701 0036 7047     		bx	lr
 702              	.L17:
 703              		.align	2
 704              	.L16:
 705 0038 9B580040 		.word	1073764507
ARM GAS  C:\Users\LUKASC~1\AppData\Local\Temp\ccd9ca13.s 			page 21


 706              		.cfi_endproc
 707              	.LFE4:
 708              		.size	ADC_DelSig_SetBufferGain, .-ADC_DelSig_SetBufferGain
 709              		.section	.text.ADC_DelSig_SetCoherency,"ax",%progbits
 710              		.align	2
 711              		.global	ADC_DelSig_SetCoherency
 712              		.thumb
 713              		.thumb_func
 714              		.type	ADC_DelSig_SetCoherency, %function
 715              	ADC_DelSig_SetCoherency:
 716              	.LFB5:
 436:.\Generated_Source\PSoC5/ADC_DelSig.c **** 
 437:.\Generated_Source\PSoC5/ADC_DelSig.c **** 
 438:.\Generated_Source\PSoC5/ADC_DelSig.c **** /*******************************************************************************
 439:.\Generated_Source\PSoC5/ADC_DelSig.c **** * Function Name: ADC_DelSig_SetCoherency
 440:.\Generated_Source\PSoC5/ADC_DelSig.c **** ********************************************************************************
 441:.\Generated_Source\PSoC5/ADC_DelSig.c **** *
 442:.\Generated_Source\PSoC5/ADC_DelSig.c **** * Summary:
 443:.\Generated_Source\PSoC5/ADC_DelSig.c **** *  This function allows the user to change which of the ADC's 3 word
 444:.\Generated_Source\PSoC5/ADC_DelSig.c **** *  result will trigger a coherency unlock. The ADC's result will not be
 445:.\Generated_Source\PSoC5/ADC_DelSig.c **** *  updated until the set byte is read either by the ADC or DMA. 
 446:.\Generated_Source\PSoC5/ADC_DelSig.c **** *  By default the LSB is the coherency byte for right alignment data format. 
 447:.\Generated_Source\PSoC5/ADC_DelSig.c **** *  The middle or high byte is set automatically depend on left alignment 
 448:.\Generated_Source\PSoC5/ADC_DelSig.c **** *  configuration for DMA data transfer.
 449:.\Generated_Source\PSoC5/ADC_DelSig.c **** *  If DMA or if a custom API requires different byte to be read the last,
 450:.\Generated_Source\PSoC5/ADC_DelSig.c **** *  this API should be used to set the last byte of the ADC result that is read. 
 451:.\Generated_Source\PSoC5/ADC_DelSig.c **** *  If a multibyte read is performed either by DMA or the ARM processor, the
 452:.\Generated_Source\PSoC5/ADC_DelSig.c **** *  coherency can be set to any byte in the last word read.
 453:.\Generated_Source\PSoC5/ADC_DelSig.c **** *
 454:.\Generated_Source\PSoC5/ADC_DelSig.c **** * Parameters:
 455:.\Generated_Source\PSoC5/ADC_DelSig.c **** *  coherency:  Two bit value to set the coherency bit.
 456:.\Generated_Source\PSoC5/ADC_DelSig.c **** *           00-Coherency checking off
 457:.\Generated_Source\PSoC5/ADC_DelSig.c **** *           01-low byte is key byte
 458:.\Generated_Source\PSoC5/ADC_DelSig.c **** *           02-middle byte is the key byte
 459:.\Generated_Source\PSoC5/ADC_DelSig.c **** *           03-high byte is the key byte
 460:.\Generated_Source\PSoC5/ADC_DelSig.c **** *
 461:.\Generated_Source\PSoC5/ADC_DelSig.c **** * Return:
 462:.\Generated_Source\PSoC5/ADC_DelSig.c **** *  None
 463:.\Generated_Source\PSoC5/ADC_DelSig.c **** *
 464:.\Generated_Source\PSoC5/ADC_DelSig.c **** *******************************************************************************/
 465:.\Generated_Source\PSoC5/ADC_DelSig.c **** void ADC_DelSig_SetCoherency(uint8 coherency) 
 466:.\Generated_Source\PSoC5/ADC_DelSig.c **** {
 717              		.loc 1 466 0
 718              		.cfi_startproc
 719              		@ args = 0, pretend = 0, frame = 16
 720              		@ frame_needed = 1, uses_anonymous_args = 0
 721              		@ link register save eliminated.
 722 0000 80B4     		push	{r7}
 723              		.cfi_def_cfa_offset 4
 724              		.cfi_offset 7, -4
 725 0002 85B0     		sub	sp, sp, #20
 726              		.cfi_def_cfa_offset 24
 727 0004 00AF     		add	r7, sp, #0
 728              		.cfi_def_cfa_register 7
 729 0006 0346     		mov	r3, r0
 730 0008 FB71     		strb	r3, [r7, #7]
 467:.\Generated_Source\PSoC5/ADC_DelSig.c ****     uint8 tmpReg;
ARM GAS  C:\Users\LUKASC~1\AppData\Local\Temp\ccd9ca13.s 			page 22


 468:.\Generated_Source\PSoC5/ADC_DelSig.c **** 
 469:.\Generated_Source\PSoC5/ADC_DelSig.c ****     tmpReg = ADC_DelSig_DEC_COHER_REG & (uint8)~ADC_DelSig_DEC_SAMP_KEY_MASK;
 731              		.loc 1 469 0
 732 000a 0A4B     		ldr	r3, .L19
 733 000c 1B78     		ldrb	r3, [r3]
 734 000e DBB2     		uxtb	r3, r3
 735 0010 23F00303 		bic	r3, r3, #3
 736 0014 FB73     		strb	r3, [r7, #15]
 470:.\Generated_Source\PSoC5/ADC_DelSig.c ****     tmpReg |= coherency & ADC_DelSig_DEC_SAMP_KEY_MASK;
 737              		.loc 1 470 0
 738 0016 FB79     		ldrb	r3, [r7, #7]
 739 0018 03F00303 		and	r3, r3, #3
 740 001c DAB2     		uxtb	r2, r3
 741 001e FB7B     		ldrb	r3, [r7, #15]
 742 0020 1343     		orrs	r3, r3, r2
 743 0022 FB73     		strb	r3, [r7, #15]
 471:.\Generated_Source\PSoC5/ADC_DelSig.c ****     ADC_DelSig_DEC_COHER_REG = tmpReg;
 744              		.loc 1 471 0
 745 0024 034A     		ldr	r2, .L19
 746 0026 FB7B     		ldrb	r3, [r7, #15]
 747 0028 1370     		strb	r3, [r2]
 472:.\Generated_Source\PSoC5/ADC_DelSig.c **** }
 748              		.loc 1 472 0
 749 002a 1437     		adds	r7, r7, #20
 750              		.cfi_def_cfa_offset 4
 751 002c BD46     		mov	sp, r7
 752              		.cfi_def_cfa_register 13
 753              		@ sp needed
 754 002e 5DF8047B 		ldr	r7, [sp], #4
 755              		.cfi_restore 7
 756              		.cfi_def_cfa_offset 0
 757 0032 7047     		bx	lr
 758              	.L20:
 759              		.align	2
 760              	.L19:
 761 0034 144E0040 		.word	1073761812
 762              		.cfi_endproc
 763              	.LFE5:
 764              		.size	ADC_DelSig_SetCoherency, .-ADC_DelSig_SetCoherency
 765              		.global	__aeabi_ui2f
 766              		.global	__aeabi_fdiv
 767              		.global	__aeabi_fmul
 768              		.global	__aeabi_f2d
 769              		.global	__aeabi_dcmpgt
 770              		.global	__aeabi_f2uiz
 771              		.section	.text.ADC_DelSig_SetGCOR,"ax",%progbits
 772              		.align	2
 773              		.global	ADC_DelSig_SetGCOR
 774              		.thumb
 775              		.thumb_func
 776              		.type	ADC_DelSig_SetGCOR, %function
 777              	ADC_DelSig_SetGCOR:
 778              	.LFB6:
 473:.\Generated_Source\PSoC5/ADC_DelSig.c **** 
 474:.\Generated_Source\PSoC5/ADC_DelSig.c **** 
 475:.\Generated_Source\PSoC5/ADC_DelSig.c **** /*******************************************************************************
 476:.\Generated_Source\PSoC5/ADC_DelSig.c **** * Function Name: ADC_DelSig_SetGCOR
ARM GAS  C:\Users\LUKASC~1\AppData\Local\Temp\ccd9ca13.s 			page 23


 477:.\Generated_Source\PSoC5/ADC_DelSig.c **** ********************************************************************************
 478:.\Generated_Source\PSoC5/ADC_DelSig.c **** *
 479:.\Generated_Source\PSoC5/ADC_DelSig.c **** * Summary:
 480:.\Generated_Source\PSoC5/ADC_DelSig.c **** *  Calculates a new GCOR value and writes it into the GCOR register. 
 481:.\Generated_Source\PSoC5/ADC_DelSig.c **** *  The GCOR value is a 16-bit value that represents a gain of 0 to 2. 
 482:.\Generated_Source\PSoC5/ADC_DelSig.c **** *  The ADC result is multiplied by this value before it is placed in the ADC 
 483:.\Generated_Source\PSoC5/ADC_DelSig.c **** *  output registers. The numerical format for the GCOR value is:
 484:.\Generated_Source\PSoC5/ADC_DelSig.c **** *  0x0000 -> 0.000
 485:.\Generated_Source\PSoC5/ADC_DelSig.c **** *  0x8000 -> 1.000
 486:.\Generated_Source\PSoC5/ADC_DelSig.c **** *  0xFFFF -> 1.99997
 487:.\Generated_Source\PSoC5/ADC_DelSig.c **** *  When executing the function, the old GCOR value is multiplied by
 488:.\Generated_Source\PSoC5/ADC_DelSig.c **** *  gainAdjust and reloaded into the GCOR register.
 489:.\Generated_Source\PSoC5/ADC_DelSig.c **** *
 490:.\Generated_Source\PSoC5/ADC_DelSig.c **** * Parameters:
 491:.\Generated_Source\PSoC5/ADC_DelSig.c **** *  gainAdjust:  floating point value to set GCOR registers.
 492:.\Generated_Source\PSoC5/ADC_DelSig.c **** *
 493:.\Generated_Source\PSoC5/ADC_DelSig.c **** * Return:
 494:.\Generated_Source\PSoC5/ADC_DelSig.c **** *  uint8: 0 - if GCOR value is within the expected range.
 495:.\Generated_Source\PSoC5/ADC_DelSig.c **** *         1 - the correction value is outside GCOR value range of
 496:.\Generated_Source\PSoC5/ADC_DelSig.c **** *             0.00 to 1.9999.
 497:.\Generated_Source\PSoC5/ADC_DelSig.c **** *
 498:.\Generated_Source\PSoC5/ADC_DelSig.c **** * Side Effects:  The GVAL register is set to the amount of valid bits in the
 499:.\Generated_Source\PSoC5/ADC_DelSig.c **** *                GCOR  register minus one. If GVAL is 15 (0x0F), all 16 bits
 500:.\Generated_Source\PSoC5/ADC_DelSig.c **** *                of the GCOR registers will be valid. If for example GVAL is
 501:.\Generated_Source\PSoC5/ADC_DelSig.c **** *                11 (0x0B) only 12 bits will be valid. The least 4 bits will
 502:.\Generated_Source\PSoC5/ADC_DelSig.c **** *                be lost when the GCOR value is shifted 4 places to the right.
 503:.\Generated_Source\PSoC5/ADC_DelSig.c **** *
 504:.\Generated_Source\PSoC5/ADC_DelSig.c **** ******************************************************************************/
 505:.\Generated_Source\PSoC5/ADC_DelSig.c **** uint8 ADC_DelSig_SetGCOR(float32 gainAdjust) 
 506:.\Generated_Source\PSoC5/ADC_DelSig.c **** {
 779              		.loc 1 506 0
 780              		.cfi_startproc
 781              		@ args = 0, pretend = 0, frame = 16
 782              		@ frame_needed = 1, uses_anonymous_args = 0
 783 0000 80B5     		push	{r7, lr}
 784              		.cfi_def_cfa_offset 8
 785              		.cfi_offset 7, -8
 786              		.cfi_offset 14, -4
 787 0002 84B0     		sub	sp, sp, #16
 788              		.cfi_def_cfa_offset 24
 789 0004 00AF     		add	r7, sp, #0
 790              		.cfi_def_cfa_register 7
 791 0006 7860     		str	r0, [r7, #4]	@ float
 507:.\Generated_Source\PSoC5/ADC_DelSig.c ****     uint16 tmpReg;
 508:.\Generated_Source\PSoC5/ADC_DelSig.c ****     uint8 status;
 509:.\Generated_Source\PSoC5/ADC_DelSig.c ****     float32 tmpValue;
 510:.\Generated_Source\PSoC5/ADC_DelSig.c **** 
 511:.\Generated_Source\PSoC5/ADC_DelSig.c ****     tmpReg = ADC_DelSig_gcor[ADC_DelSig_Config - 1u].gcor;
 792              		.loc 1 511 0
 793 0008 274B     		ldr	r3, .L28+8
 794 000a 1B78     		ldrb	r3, [r3]
 795 000c DBB2     		uxtb	r3, r3
 796 000e 013B     		subs	r3, r3, #1
 797 0010 264A     		ldr	r2, .L28+12
 798 0012 32F82330 		ldrh	r3, [r2, r3, lsl #2]	@ movhi
 799 0016 BB81     		strh	r3, [r7, #12]	@ movhi
 512:.\Generated_Source\PSoC5/ADC_DelSig.c ****     tmpValue = ((float32)tmpReg / (float32)ADC_DelSig_IDEAL_GAIN_CONST);
ARM GAS  C:\Users\LUKASC~1\AppData\Local\Temp\ccd9ca13.s 			page 24


 800              		.loc 1 512 0
 801 0018 BB89     		ldrh	r3, [r7, #12]
 802 001a 1846     		mov	r0, r3
 803 001c FFF7FEFF 		bl	__aeabi_ui2f
 804 0020 0346     		mov	r3, r0
 805 0022 1846     		mov	r0, r3
 806 0024 4FF08E41 		mov	r1, #1191182336
 807 0028 FFF7FEFF 		bl	__aeabi_fdiv
 808 002c 0346     		mov	r3, r0
 809 002e BB60     		str	r3, [r7, #8]	@ float
 513:.\Generated_Source\PSoC5/ADC_DelSig.c ****     tmpValue = tmpValue * gainAdjust;
 810              		.loc 1 513 0
 811 0030 B868     		ldr	r0, [r7, #8]	@ float
 812 0032 7968     		ldr	r1, [r7, #4]	@ float
 813 0034 FFF7FEFF 		bl	__aeabi_fmul
 814 0038 0346     		mov	r3, r0
 815 003a BB60     		str	r3, [r7, #8]	@ float
 514:.\Generated_Source\PSoC5/ADC_DelSig.c **** 
 515:.\Generated_Source\PSoC5/ADC_DelSig.c ****     if (tmpValue > 1.9999)
 816              		.loc 1 515 0
 817 003c B868     		ldr	r0, [r7, #8]	@ float
 818 003e FFF7FEFF 		bl	__aeabi_f2d
 819 0042 0246     		mov	r2, r0
 820 0044 0B46     		mov	r3, r1
 821 0046 1046     		mov	r0, r2
 822 0048 1946     		mov	r1, r3
 823 004a 15A3     		adr	r3, .L28
 824 004c D3E90023 		ldrd	r2, [r3]
 825 0050 FFF7FEFF 		bl	__aeabi_dcmpgt
 826 0054 0346     		mov	r3, r0
 827 0056 002B     		cmp	r3, #0
 828 0058 02D0     		beq	.L27
 516:.\Generated_Source\PSoC5/ADC_DelSig.c ****     {
 517:.\Generated_Source\PSoC5/ADC_DelSig.c ****         status = 1u;
 829              		.loc 1 517 0
 830 005a 0123     		movs	r3, #1
 831 005c FB73     		strb	r3, [r7, #15]
 832 005e 18E0     		b	.L24
 833              	.L27:
 518:.\Generated_Source\PSoC5/ADC_DelSig.c ****     }
 519:.\Generated_Source\PSoC5/ADC_DelSig.c ****     else
 520:.\Generated_Source\PSoC5/ADC_DelSig.c ****     {
 521:.\Generated_Source\PSoC5/ADC_DelSig.c ****         tmpValue *= (float32)ADC_DelSig_IDEAL_GAIN_CONST;
 834              		.loc 1 521 0
 835 0060 B868     		ldr	r0, [r7, #8]	@ float
 836 0062 4FF08E41 		mov	r1, #1191182336
 837 0066 FFF7FEFF 		bl	__aeabi_fmul
 838 006a 0346     		mov	r3, r0
 839 006c BB60     		str	r3, [r7, #8]	@ float
 522:.\Generated_Source\PSoC5/ADC_DelSig.c **** 		tmpReg = (uint16)tmpValue;
 840              		.loc 1 522 0
 841 006e B868     		ldr	r0, [r7, #8]	@ float
 842 0070 FFF7FEFF 		bl	__aeabi_f2uiz
 843 0074 0346     		mov	r3, r0
 844 0076 BB81     		strh	r3, [r7, #12]	@ movhi
 523:.\Generated_Source\PSoC5/ADC_DelSig.c ****         CY_SET_REG16(ADC_DelSig_DEC_GCOR_16B_PTR, tmpReg);
 845              		.loc 1 523 0
ARM GAS  C:\Users\LUKASC~1\AppData\Local\Temp\ccd9ca13.s 			page 25


 846 0078 0D4A     		ldr	r2, .L28+16
 847 007a BB89     		ldrh	r3, [r7, #12]	@ movhi
 848 007c 1380     		strh	r3, [r2]	@ movhi
 524:.\Generated_Source\PSoC5/ADC_DelSig.c ****         /* Update gain array to be used by SelectConfiguration() API */
 525:.\Generated_Source\PSoC5/ADC_DelSig.c ****        ADC_DelSig_gcor[ADC_DelSig_Config - 1u].gcor = tmpReg;
 849              		.loc 1 525 0
 850 007e 0A4B     		ldr	r3, .L28+8
 851 0080 1B78     		ldrb	r3, [r3]
 852 0082 DBB2     		uxtb	r3, r3
 853 0084 013B     		subs	r3, r3, #1
 854 0086 0949     		ldr	r1, .L28+12
 855 0088 BA89     		ldrh	r2, [r7, #12]	@ movhi
 856 008a 21F82320 		strh	r2, [r1, r3, lsl #2]	@ movhi
 526:.\Generated_Source\PSoC5/ADC_DelSig.c **** 
 527:.\Generated_Source\PSoC5/ADC_DelSig.c ****         status = 0u;
 857              		.loc 1 527 0
 858 008e 0023     		movs	r3, #0
 859 0090 FB73     		strb	r3, [r7, #15]
 860              	.L24:
 528:.\Generated_Source\PSoC5/ADC_DelSig.c **** 
 529:.\Generated_Source\PSoC5/ADC_DelSig.c ****     }
 530:.\Generated_Source\PSoC5/ADC_DelSig.c ****     return(status);
 861              		.loc 1 530 0
 862 0092 FB7B     		ldrb	r3, [r7, #15]	@ zero_extendqisi2
 531:.\Generated_Source\PSoC5/ADC_DelSig.c **** }
 863              		.loc 1 531 0
 864 0094 1846     		mov	r0, r3
 865 0096 1037     		adds	r7, r7, #16
 866              		.cfi_def_cfa_offset 8
 867 0098 BD46     		mov	sp, r7
 868              		.cfi_def_cfa_register 13
 869              		@ sp needed
 870 009a 80BD     		pop	{r7, pc}
 871              	.L29:
 872 009c AFF30080 		.align	3
 873              	.L28:
 874 00a0 8F537424 		.word	611603343
 875 00a4 97FFFF3F 		.word	1073741719
 876 00a8 00000000 		.word	ADC_DelSig_Config
 877 00ac 04000000 		.word	ADC_DelSig_gcor
 878 00b0 0C4E0040 		.word	1073761804
 879              		.cfi_endproc
 880              	.LFE6:
 881              		.size	ADC_DelSig_SetGCOR, .-ADC_DelSig_SetGCOR
 882 00b4 AFF30080 		.section	.text.ADC_DelSig_ReadGCOR,"ax",%progbits
 883              		.align	2
 884              		.global	ADC_DelSig_ReadGCOR
 885              		.thumb
 886              		.thumb_func
 887              		.type	ADC_DelSig_ReadGCOR, %function
 888              	ADC_DelSig_ReadGCOR:
 889              	.LFB7:
 532:.\Generated_Source\PSoC5/ADC_DelSig.c **** 
 533:.\Generated_Source\PSoC5/ADC_DelSig.c **** 
 534:.\Generated_Source\PSoC5/ADC_DelSig.c **** /******************************************************************************
 535:.\Generated_Source\PSoC5/ADC_DelSig.c **** * Function Name: ADC_DelSig_ReadGCOR
 536:.\Generated_Source\PSoC5/ADC_DelSig.c **** *******************************************************************************
ARM GAS  C:\Users\LUKASC~1\AppData\Local\Temp\ccd9ca13.s 			page 26


 537:.\Generated_Source\PSoC5/ADC_DelSig.c **** *
 538:.\Generated_Source\PSoC5/ADC_DelSig.c **** * Summary:
 539:.\Generated_Source\PSoC5/ADC_DelSig.c **** *  This API returns the current GCOR register value, normalized based on the
 540:.\Generated_Source\PSoC5/ADC_DelSig.c **** *  GVAL register settings.
 541:.\Generated_Source\PSoC5/ADC_DelSig.c **** *  For example, if the GCOR value is 0x0812 and the GVAL register is set to 
 542:.\Generated_Source\PSoC5/ADC_DelSig.c **** *  11 (0x0B) then the returned value will be shifted by for bits to the left.
 543:.\Generated_Source\PSoC5/ADC_DelSig.c **** *  (Actual GCOR value = 0x0812, returned value = 0x8120)
 544:.\Generated_Source\PSoC5/ADC_DelSig.c **** *
 545:.\Generated_Source\PSoC5/ADC_DelSig.c **** * Parameters:
 546:.\Generated_Source\PSoC5/ADC_DelSig.c **** *  None
 547:.\Generated_Source\PSoC5/ADC_DelSig.c **** *
 548:.\Generated_Source\PSoC5/ADC_DelSig.c **** * Return:
 549:.\Generated_Source\PSoC5/ADC_DelSig.c **** *  uint16:  Normalized GCOR value.
 550:.\Generated_Source\PSoC5/ADC_DelSig.c **** *
 551:.\Generated_Source\PSoC5/ADC_DelSig.c **** *******************************************************************************/
 552:.\Generated_Source\PSoC5/ADC_DelSig.c **** uint16 ADC_DelSig_ReadGCOR(void) 
 553:.\Generated_Source\PSoC5/ADC_DelSig.c **** {
 890              		.loc 1 553 0
 891              		.cfi_startproc
 892              		@ args = 0, pretend = 0, frame = 8
 893              		@ frame_needed = 1, uses_anonymous_args = 0
 894              		@ link register save eliminated.
 895 0000 80B4     		push	{r7}
 896              		.cfi_def_cfa_offset 4
 897              		.cfi_offset 7, -4
 898 0002 83B0     		sub	sp, sp, #12
 899              		.cfi_def_cfa_offset 16
 900 0004 00AF     		add	r7, sp, #0
 901              		.cfi_def_cfa_register 7
 554:.\Generated_Source\PSoC5/ADC_DelSig.c ****     uint8 gValue;
 555:.\Generated_Source\PSoC5/ADC_DelSig.c ****     uint16 gcorValue;
 556:.\Generated_Source\PSoC5/ADC_DelSig.c **** 
 557:.\Generated_Source\PSoC5/ADC_DelSig.c ****     gValue = ADC_DelSig_DEC_GVAL_REG;
 902              		.loc 1 557 0
 903 0006 0B4B     		ldr	r3, .L33
 904 0008 1B78     		ldrb	r3, [r3]
 905 000a 7B71     		strb	r3, [r7, #5]
 558:.\Generated_Source\PSoC5/ADC_DelSig.c ****     gcorValue = CY_GET_REG16(ADC_DelSig_DEC_GCOR_16B_PTR);
 906              		.loc 1 558 0
 907 000c 0A4B     		ldr	r3, .L33+4
 908 000e 1B88     		ldrh	r3, [r3]	@ movhi
 909 0010 FB80     		strh	r3, [r7, #6]	@ movhi
 559:.\Generated_Source\PSoC5/ADC_DelSig.c **** 
 560:.\Generated_Source\PSoC5/ADC_DelSig.c ****     if (gValue < ADC_DelSig_MAX_GVAL)
 910              		.loc 1 560 0
 911 0012 7B79     		ldrb	r3, [r7, #5]	@ zero_extendqisi2
 912 0014 0E2B     		cmp	r3, #14
 913 0016 05D8     		bhi	.L31
 561:.\Generated_Source\PSoC5/ADC_DelSig.c ****     {
 562:.\Generated_Source\PSoC5/ADC_DelSig.c ****         gcorValue <<= ADC_DelSig_MAX_GVAL - gValue;
 914              		.loc 1 562 0
 915 0018 FB88     		ldrh	r3, [r7, #6]
 916 001a 7A79     		ldrb	r2, [r7, #5]	@ zero_extendqisi2
 917 001c C2F10F02 		rsb	r2, r2, #15
 918 0020 9340     		lsls	r3, r3, r2
 919 0022 FB80     		strh	r3, [r7, #6]	@ movhi
 920              	.L31:
ARM GAS  C:\Users\LUKASC~1\AppData\Local\Temp\ccd9ca13.s 			page 27


 563:.\Generated_Source\PSoC5/ADC_DelSig.c ****     }
 564:.\Generated_Source\PSoC5/ADC_DelSig.c **** 
 565:.\Generated_Source\PSoC5/ADC_DelSig.c ****     return gcorValue;
 921              		.loc 1 565 0
 922 0024 FB88     		ldrh	r3, [r7, #6]
 566:.\Generated_Source\PSoC5/ADC_DelSig.c **** }
 923              		.loc 1 566 0
 924 0026 1846     		mov	r0, r3
 925 0028 0C37     		adds	r7, r7, #12
 926              		.cfi_def_cfa_offset 4
 927 002a BD46     		mov	sp, r7
 928              		.cfi_def_cfa_register 13
 929              		@ sp needed
 930 002c 5DF8047B 		ldr	r7, [sp], #4
 931              		.cfi_restore 7
 932              		.cfi_def_cfa_offset 0
 933 0030 7047     		bx	lr
 934              	.L34:
 935 0032 00BF     		.align	2
 936              	.L33:
 937 0034 0E4E0040 		.word	1073761806
 938 0038 0C4E0040 		.word	1073761804
 939              		.cfi_endproc
 940              	.LFE7:
 941              		.size	ADC_DelSig_ReadGCOR, .-ADC_DelSig_ReadGCOR
 942              		.section	.text.ADC_DelSig_StartConvert,"ax",%progbits
 943              		.align	2
 944              		.global	ADC_DelSig_StartConvert
 945              		.thumb
 946              		.thumb_func
 947              		.type	ADC_DelSig_StartConvert, %function
 948              	ADC_DelSig_StartConvert:
 949              	.LFB8:
 567:.\Generated_Source\PSoC5/ADC_DelSig.c **** 
 568:.\Generated_Source\PSoC5/ADC_DelSig.c **** 
 569:.\Generated_Source\PSoC5/ADC_DelSig.c **** /*******************************************************************************
 570:.\Generated_Source\PSoC5/ADC_DelSig.c **** * Function Name: ADC_DelSig_StartConvert
 571:.\Generated_Source\PSoC5/ADC_DelSig.c **** ********************************************************************************
 572:.\Generated_Source\PSoC5/ADC_DelSig.c **** *
 573:.\Generated_Source\PSoC5/ADC_DelSig.c **** * Summary:
 574:.\Generated_Source\PSoC5/ADC_DelSig.c **** *  Forces the ADC to initiate a conversion. If in the "Single Sample"
 575:.\Generated_Source\PSoC5/ADC_DelSig.c **** *  mode, one conversion will be performed then the ADC will halt. If in
 576:.\Generated_Source\PSoC5/ADC_DelSig.c **** *  one of the other three conversion modes, the ADC will run
 577:.\Generated_Source\PSoC5/ADC_DelSig.c **** *  continuously until the ADC_Stop() or ADC_StopConvert() is called.
 578:.\Generated_Source\PSoC5/ADC_DelSig.c **** *
 579:.\Generated_Source\PSoC5/ADC_DelSig.c **** * Parameters:
 580:.\Generated_Source\PSoC5/ADC_DelSig.c **** *  None
 581:.\Generated_Source\PSoC5/ADC_DelSig.c **** *
 582:.\Generated_Source\PSoC5/ADC_DelSig.c **** * Return:
 583:.\Generated_Source\PSoC5/ADC_DelSig.c **** *  None
 584:.\Generated_Source\PSoC5/ADC_DelSig.c **** *
 585:.\Generated_Source\PSoC5/ADC_DelSig.c **** *******************************************************************************/
 586:.\Generated_Source\PSoC5/ADC_DelSig.c **** void ADC_DelSig_StartConvert(void) 
 587:.\Generated_Source\PSoC5/ADC_DelSig.c **** {
 950              		.loc 1 587 0
 951              		.cfi_startproc
 952              		@ args = 0, pretend = 0, frame = 0
ARM GAS  C:\Users\LUKASC~1\AppData\Local\Temp\ccd9ca13.s 			page 28


 953              		@ frame_needed = 1, uses_anonymous_args = 0
 954              		@ link register save eliminated.
 955 0000 80B4     		push	{r7}
 956              		.cfi_def_cfa_offset 4
 957              		.cfi_offset 7, -4
 958 0002 00AF     		add	r7, sp, #0
 959              		.cfi_def_cfa_register 7
 588:.\Generated_Source\PSoC5/ADC_DelSig.c ****     /* Start the conversion */
 589:.\Generated_Source\PSoC5/ADC_DelSig.c ****     ADC_DelSig_DEC_CR_REG |= ADC_DelSig_DEC_START_CONV;
 960              		.loc 1 589 0
 961 0004 054A     		ldr	r2, .L36
 962 0006 054B     		ldr	r3, .L36
 963 0008 1B78     		ldrb	r3, [r3]
 964 000a DBB2     		uxtb	r3, r3
 965 000c 43F00103 		orr	r3, r3, #1
 966 0010 DBB2     		uxtb	r3, r3
 967 0012 1370     		strb	r3, [r2]
 590:.\Generated_Source\PSoC5/ADC_DelSig.c **** }
 968              		.loc 1 590 0
 969 0014 BD46     		mov	sp, r7
 970              		.cfi_def_cfa_register 13
 971              		@ sp needed
 972 0016 5DF8047B 		ldr	r7, [sp], #4
 973              		.cfi_restore 7
 974              		.cfi_def_cfa_offset 0
 975 001a 7047     		bx	lr
 976              	.L37:
 977              		.align	2
 978              	.L36:
 979 001c 004E0040 		.word	1073761792
 980              		.cfi_endproc
 981              	.LFE8:
 982              		.size	ADC_DelSig_StartConvert, .-ADC_DelSig_StartConvert
 983              		.section	.text.ADC_DelSig_StopConvert,"ax",%progbits
 984              		.align	2
 985              		.global	ADC_DelSig_StopConvert
 986              		.thumb
 987              		.thumb_func
 988              		.type	ADC_DelSig_StopConvert, %function
 989              	ADC_DelSig_StopConvert:
 990              	.LFB9:
 591:.\Generated_Source\PSoC5/ADC_DelSig.c **** 
 592:.\Generated_Source\PSoC5/ADC_DelSig.c **** 
 593:.\Generated_Source\PSoC5/ADC_DelSig.c **** /*******************************************************************************
 594:.\Generated_Source\PSoC5/ADC_DelSig.c **** * Function Name: ADC_DelSig_StopConvert
 595:.\Generated_Source\PSoC5/ADC_DelSig.c **** ********************************************************************************
 596:.\Generated_Source\PSoC5/ADC_DelSig.c **** *
 597:.\Generated_Source\PSoC5/ADC_DelSig.c **** * Summary:
 598:.\Generated_Source\PSoC5/ADC_DelSig.c **** *  Forces the ADC to stop all conversions. If the ADC is in the middle of a
 599:.\Generated_Source\PSoC5/ADC_DelSig.c **** *  conversion, the ADC will be reset and not provide a result for that partial
 600:.\Generated_Source\PSoC5/ADC_DelSig.c **** *  conversion.
 601:.\Generated_Source\PSoC5/ADC_DelSig.c **** *
 602:.\Generated_Source\PSoC5/ADC_DelSig.c **** * Parameters:
 603:.\Generated_Source\PSoC5/ADC_DelSig.c **** *  None
 604:.\Generated_Source\PSoC5/ADC_DelSig.c **** *
 605:.\Generated_Source\PSoC5/ADC_DelSig.c **** * Return:
 606:.\Generated_Source\PSoC5/ADC_DelSig.c **** *  None
ARM GAS  C:\Users\LUKASC~1\AppData\Local\Temp\ccd9ca13.s 			page 29


 607:.\Generated_Source\PSoC5/ADC_DelSig.c **** *
 608:.\Generated_Source\PSoC5/ADC_DelSig.c **** *******************************************************************************/
 609:.\Generated_Source\PSoC5/ADC_DelSig.c **** void ADC_DelSig_StopConvert(void) 
 610:.\Generated_Source\PSoC5/ADC_DelSig.c **** {
 991              		.loc 1 610 0
 992              		.cfi_startproc
 993              		@ args = 0, pretend = 0, frame = 0
 994              		@ frame_needed = 1, uses_anonymous_args = 0
 995              		@ link register save eliminated.
 996 0000 80B4     		push	{r7}
 997              		.cfi_def_cfa_offset 4
 998              		.cfi_offset 7, -4
 999 0002 00AF     		add	r7, sp, #0
 1000              		.cfi_def_cfa_register 7
 611:.\Generated_Source\PSoC5/ADC_DelSig.c ****     /* Stop all conversions */
 612:.\Generated_Source\PSoC5/ADC_DelSig.c ****     ADC_DelSig_DEC_CR_REG &= (uint8)~ADC_DelSig_DEC_START_CONV;
 1001              		.loc 1 612 0
 1002 0004 054A     		ldr	r2, .L39
 1003 0006 054B     		ldr	r3, .L39
 1004 0008 1B78     		ldrb	r3, [r3]
 1005 000a DBB2     		uxtb	r3, r3
 1006 000c 23F00103 		bic	r3, r3, #1
 1007 0010 DBB2     		uxtb	r3, r3
 1008 0012 1370     		strb	r3, [r2]
 613:.\Generated_Source\PSoC5/ADC_DelSig.c **** }
 1009              		.loc 1 613 0
 1010 0014 BD46     		mov	sp, r7
 1011              		.cfi_def_cfa_register 13
 1012              		@ sp needed
 1013 0016 5DF8047B 		ldr	r7, [sp], #4
 1014              		.cfi_restore 7
 1015              		.cfi_def_cfa_offset 0
 1016 001a 7047     		bx	lr
 1017              	.L40:
 1018              		.align	2
 1019              	.L39:
 1020 001c 004E0040 		.word	1073761792
 1021              		.cfi_endproc
 1022              	.LFE9:
 1023              		.size	ADC_DelSig_StopConvert, .-ADC_DelSig_StopConvert
 1024              		.section	.text.ADC_DelSig_IsEndConversion,"ax",%progbits
 1025              		.align	2
 1026              		.global	ADC_DelSig_IsEndConversion
 1027              		.thumb
 1028              		.thumb_func
 1029              		.type	ADC_DelSig_IsEndConversion, %function
 1030              	ADC_DelSig_IsEndConversion:
 1031              	.LFB10:
 614:.\Generated_Source\PSoC5/ADC_DelSig.c **** 
 615:.\Generated_Source\PSoC5/ADC_DelSig.c **** 
 616:.\Generated_Source\PSoC5/ADC_DelSig.c **** /*******************************************************************************
 617:.\Generated_Source\PSoC5/ADC_DelSig.c **** * Function Name: ADC_DelSig_IsEndConversion
 618:.\Generated_Source\PSoC5/ADC_DelSig.c **** ********************************************************************************
 619:.\Generated_Source\PSoC5/ADC_DelSig.c **** *
 620:.\Generated_Source\PSoC5/ADC_DelSig.c **** * Summary:
 621:.\Generated_Source\PSoC5/ADC_DelSig.c **** *  Checks the status that the most recently started conversion has completed.
 622:.\Generated_Source\PSoC5/ADC_DelSig.c **** *  The status is cleared by any of ADC_GetResult8(), ADC_GetResult16() or 
ARM GAS  C:\Users\LUKASC~1\AppData\Local\Temp\ccd9ca13.s 			page 30


 623:.\Generated_Source\PSoC5/ADC_DelSig.c **** *  ADC_GetResult32() API.
 624:.\Generated_Source\PSoC5/ADC_DelSig.c **** *  This function provides the programmer with two options. In one mode this 
 625:.\Generated_Source\PSoC5/ADC_DelSig.c **** *  function immediately returns with the conversion status. In the other mode,
 626:.\Generated_Source\PSoC5/ADC_DelSig.c **** *  the function does not return (blocking) until the conversion has completed.
 627:.\Generated_Source\PSoC5/ADC_DelSig.c **** *
 628:.\Generated_Source\PSoC5/ADC_DelSig.c **** * Parameters:
 629:.\Generated_Source\PSoC5/ADC_DelSig.c **** *  retMode: Check conversion return mode. See the following table for options.
 630:.\Generated_Source\PSoC5/ADC_DelSig.c **** *   ADC_DelSig_RETURN_STATUS -   Immediately returns conversion result
 631:.\Generated_Source\PSoC5/ADC_DelSig.c **** *                                      status.
 632:.\Generated_Source\PSoC5/ADC_DelSig.c **** *   ADC_DelSig_WAIT_FOR_RESULT - Does not return until ADC conversion
 633:.\Generated_Source\PSoC5/ADC_DelSig.c **** *                                      is complete.
 634:.\Generated_Source\PSoC5/ADC_DelSig.c **** *
 635:.\Generated_Source\PSoC5/ADC_DelSig.c **** * Return:
 636:.\Generated_Source\PSoC5/ADC_DelSig.c **** *  If a nonzero value is returned, the last conversion has completed.
 637:.\Generated_Source\PSoC5/ADC_DelSig.c **** *  If the returned value is zero, the ADC is still calculating the last result.
 638:.\Generated_Source\PSoC5/ADC_DelSig.c **** *
 639:.\Generated_Source\PSoC5/ADC_DelSig.c **** * Global variables:
 640:.\Generated_Source\PSoC5/ADC_DelSig.c **** *  ADC_DelSig_convDone:  Used to check whether conversion is complete
 641:.\Generated_Source\PSoC5/ADC_DelSig.c **** *  or not for single sample mode with resolution is above 16
 642:.\Generated_Source\PSoC5/ADC_DelSig.c **** *
 643:.\Generated_Source\PSoC5/ADC_DelSig.c **** *******************************************************************************/
 644:.\Generated_Source\PSoC5/ADC_DelSig.c **** uint8 ADC_DelSig_IsEndConversion(uint8 retMode) 
 645:.\Generated_Source\PSoC5/ADC_DelSig.c **** {
 1032              		.loc 1 645 0
 1033              		.cfi_startproc
 1034              		@ args = 0, pretend = 0, frame = 16
 1035              		@ frame_needed = 1, uses_anonymous_args = 0
 1036              		@ link register save eliminated.
 1037 0000 80B4     		push	{r7}
 1038              		.cfi_def_cfa_offset 4
 1039              		.cfi_offset 7, -4
 1040 0002 85B0     		sub	sp, sp, #20
 1041              		.cfi_def_cfa_offset 24
 1042 0004 00AF     		add	r7, sp, #0
 1043              		.cfi_def_cfa_register 7
 1044 0006 0346     		mov	r3, r0
 1045 0008 FB71     		strb	r3, [r7, #7]
 1046              	.L45:
 646:.\Generated_Source\PSoC5/ADC_DelSig.c ****     uint8 status;
 647:.\Generated_Source\PSoC5/ADC_DelSig.c **** 
 648:.\Generated_Source\PSoC5/ADC_DelSig.c ****     do
 649:.\Generated_Source\PSoC5/ADC_DelSig.c ****     {
 650:.\Generated_Source\PSoC5/ADC_DelSig.c ****         /* Check for stop convert if conversion mode is Single Sample with
 651:.\Generated_Source\PSoC5/ADC_DelSig.c ****         *   resolution above 16 bit
 652:.\Generated_Source\PSoC5/ADC_DelSig.c ****         */
 653:.\Generated_Source\PSoC5/ADC_DelSig.c ****         if(ADC_DelSig_stopConversion != 0u)
 1047              		.loc 1 653 0
 1048 000a 0E4B     		ldr	r3, .L47
 1049 000c 1B78     		ldrb	r3, [r3]
 1050 000e DBB2     		uxtb	r3, r3
 1051 0010 002B     		cmp	r3, #0
 1052 0012 03D0     		beq	.L42
 654:.\Generated_Source\PSoC5/ADC_DelSig.c ****         {
 655:.\Generated_Source\PSoC5/ADC_DelSig.c ****             status = ADC_DelSig_convDone;
 1053              		.loc 1 655 0
 1054 0014 0C4B     		ldr	r3, .L47+4
 1055 0016 1B78     		ldrb	r3, [r3]
ARM GAS  C:\Users\LUKASC~1\AppData\Local\Temp\ccd9ca13.s 			page 31


 1056 0018 FB73     		strb	r3, [r7, #15]
 1057 001a 05E0     		b	.L43
 1058              	.L42:
 656:.\Generated_Source\PSoC5/ADC_DelSig.c ****         }
 657:.\Generated_Source\PSoC5/ADC_DelSig.c ****         else
 658:.\Generated_Source\PSoC5/ADC_DelSig.c ****         {
 659:.\Generated_Source\PSoC5/ADC_DelSig.c ****             status = ADC_DelSig_DEC_SR_REG & ADC_DelSig_DEC_CONV_DONE;
 1059              		.loc 1 659 0
 1060 001c 0B4B     		ldr	r3, .L47+8
 1061 001e 1B78     		ldrb	r3, [r3]
 1062 0020 DBB2     		uxtb	r3, r3
 1063 0022 03F00103 		and	r3, r3, #1
 1064 0026 FB73     		strb	r3, [r7, #15]
 1065              	.L43:
 660:.\Generated_Source\PSoC5/ADC_DelSig.c ****         }
 661:.\Generated_Source\PSoC5/ADC_DelSig.c ****     }while((status != ADC_DelSig_DEC_CONV_DONE) && (retMode == ADC_DelSig_WAIT_FOR_RESULT));
 1066              		.loc 1 661 0
 1067 0028 FB7B     		ldrb	r3, [r7, #15]	@ zero_extendqisi2
 1068 002a 012B     		cmp	r3, #1
 1069 002c 02D0     		beq	.L44
 1070              		.loc 1 661 0 is_stmt 0 discriminator 1
 1071 002e FB79     		ldrb	r3, [r7, #7]	@ zero_extendqisi2
 1072 0030 002B     		cmp	r3, #0
 1073 0032 EAD0     		beq	.L45
 1074              	.L44:
 662:.\Generated_Source\PSoC5/ADC_DelSig.c **** 
 663:.\Generated_Source\PSoC5/ADC_DelSig.c ****     return(status);
 1075              		.loc 1 663 0 is_stmt 1
 1076 0034 FB7B     		ldrb	r3, [r7, #15]	@ zero_extendqisi2
 664:.\Generated_Source\PSoC5/ADC_DelSig.c **** }
 1077              		.loc 1 664 0
 1078 0036 1846     		mov	r0, r3
 1079 0038 1437     		adds	r7, r7, #20
 1080              		.cfi_def_cfa_offset 4
 1081 003a BD46     		mov	sp, r7
 1082              		.cfi_def_cfa_register 13
 1083              		@ sp needed
 1084 003c 5DF8047B 		ldr	r7, [sp], #4
 1085              		.cfi_restore 7
 1086              		.cfi_def_cfa_offset 0
 1087 0040 7047     		bx	lr
 1088              	.L48:
 1089 0042 00BF     		.align	2
 1090              	.L47:
 1091 0044 00000000 		.word	ADC_DelSig_stopConversion
 1092 0048 00000000 		.word	ADC_DelSig_convDone
 1093 004c 014E0040 		.word	1073761793
 1094              		.cfi_endproc
 1095              	.LFE10:
 1096              		.size	ADC_DelSig_IsEndConversion, .-ADC_DelSig_IsEndConversion
 1097              		.section	.text.ADC_DelSig_GetResult8,"ax",%progbits
 1098              		.align	2
 1099              		.global	ADC_DelSig_GetResult8
 1100              		.thumb
 1101              		.thumb_func
 1102              		.type	ADC_DelSig_GetResult8, %function
 1103              	ADC_DelSig_GetResult8:
ARM GAS  C:\Users\LUKASC~1\AppData\Local\Temp\ccd9ca13.s 			page 32


 1104              	.LFB11:
 665:.\Generated_Source\PSoC5/ADC_DelSig.c **** 
 666:.\Generated_Source\PSoC5/ADC_DelSig.c **** 
 667:.\Generated_Source\PSoC5/ADC_DelSig.c **** /*******************************************************************************
 668:.\Generated_Source\PSoC5/ADC_DelSig.c **** * Function Name: ADC_DelSig_GetResult8
 669:.\Generated_Source\PSoC5/ADC_DelSig.c **** ********************************************************************************
 670:.\Generated_Source\PSoC5/ADC_DelSig.c **** *
 671:.\Generated_Source\PSoC5/ADC_DelSig.c **** * Summary:
 672:.\Generated_Source\PSoC5/ADC_DelSig.c **** *  This function returns the result of an 8-bit conversion. If the
 673:.\Generated_Source\PSoC5/ADC_DelSig.c **** *  resolution is set greater than 8-bits, the LSB of the result will be
 674:.\Generated_Source\PSoC5/ADC_DelSig.c **** *  returned. When the ADC is configured for 8-bit single ended mode,
 675:.\Generated_Source\PSoC5/ADC_DelSig.c **** *  the ADC_GetResult16() function should be used instead. This
 676:.\Generated_Source\PSoC5/ADC_DelSig.c **** *  function returns only signed 8-bit values. The maximum positive
 677:.\Generated_Source\PSoC5/ADC_DelSig.c **** *  signed 8-bit value is 127, but in singled ended 8-bit mode, the
 678:.\Generated_Source\PSoC5/ADC_DelSig.c **** *  maximum positive value is 255.
 679:.\Generated_Source\PSoC5/ADC_DelSig.c **** *
 680:.\Generated_Source\PSoC5/ADC_DelSig.c **** * Parameters:
 681:.\Generated_Source\PSoC5/ADC_DelSig.c **** *  None
 682:.\Generated_Source\PSoC5/ADC_DelSig.c **** *
 683:.\Generated_Source\PSoC5/ADC_DelSig.c **** * Return:
 684:.\Generated_Source\PSoC5/ADC_DelSig.c **** *  int8: The LSB of the last ADC conversion.
 685:.\Generated_Source\PSoC5/ADC_DelSig.c **** *
 686:.\Generated_Source\PSoC5/ADC_DelSig.c **** * Global variables:
 687:.\Generated_Source\PSoC5/ADC_DelSig.c **** *  ADC_DelSig_convDone:  Cleared in single sample mode with resolution
 688:.\Generated_Source\PSoC5/ADC_DelSig.c **** *                              above 16 bits
 689:.\Generated_Source\PSoC5/ADC_DelSig.c **** *
 690:.\Generated_Source\PSoC5/ADC_DelSig.c **** *******************************************************************************/
 691:.\Generated_Source\PSoC5/ADC_DelSig.c **** int8 ADC_DelSig_GetResult8( void ) 
 692:.\Generated_Source\PSoC5/ADC_DelSig.c **** {
 1105              		.loc 1 692 0
 1106              		.cfi_startproc
 1107              		@ args = 0, pretend = 0, frame = 8
 1108              		@ frame_needed = 1, uses_anonymous_args = 0
 1109              		@ link register save eliminated.
 1110 0000 80B4     		push	{r7}
 1111              		.cfi_def_cfa_offset 4
 1112              		.cfi_offset 7, -4
 1113 0002 83B0     		sub	sp, sp, #12
 1114              		.cfi_def_cfa_offset 16
 1115 0004 00AF     		add	r7, sp, #0
 1116              		.cfi_def_cfa_register 7
 693:.\Generated_Source\PSoC5/ADC_DelSig.c ****     int8 result;
 694:.\Generated_Source\PSoC5/ADC_DelSig.c ****     uint8 coherency;
 695:.\Generated_Source\PSoC5/ADC_DelSig.c **** 
 696:.\Generated_Source\PSoC5/ADC_DelSig.c ****     /* Read active coherency configuration */
 697:.\Generated_Source\PSoC5/ADC_DelSig.c ****     coherency = ADC_DelSig_DEC_COHER_REG & ADC_DelSig_DEC_SAMP_KEY_MASK;
 1117              		.loc 1 697 0
 1118 0006 124B     		ldr	r3, .L54
 1119 0008 1B78     		ldrb	r3, [r3]
 1120 000a DBB2     		uxtb	r3, r3
 1121 000c 03F00303 		and	r3, r3, #3
 1122 0010 FB71     		strb	r3, [r7, #7]
 698:.\Generated_Source\PSoC5/ADC_DelSig.c **** 
 699:.\Generated_Source\PSoC5/ADC_DelSig.c ****     result = (int8)ADC_DelSig_DEC_SAMP_REG;
 1123              		.loc 1 699 0
 1124 0012 104B     		ldr	r3, .L54+4
 1125 0014 1B78     		ldrb	r3, [r3]
ARM GAS  C:\Users\LUKASC~1\AppData\Local\Temp\ccd9ca13.s 			page 33


 1126 0016 DBB2     		uxtb	r3, r3
 1127 0018 BB71     		strb	r3, [r7, #6]
 700:.\Generated_Source\PSoC5/ADC_DelSig.c **** 
 701:.\Generated_Source\PSoC5/ADC_DelSig.c ****     if(coherency == ADC_DelSig_DEC_SAMP_KEY_MID)
 1128              		.loc 1 701 0
 1129 001a FB79     		ldrb	r3, [r7, #7]	@ zero_extendqisi2
 1130 001c 022B     		cmp	r3, #2
 1131 001e 02D1     		bne	.L50
 702:.\Generated_Source\PSoC5/ADC_DelSig.c ****     {   /* Dummy read of the middle byte to unlock the coherency */
 703:.\Generated_Source\PSoC5/ADC_DelSig.c ****         (void)ADC_DelSig_DEC_SAMPM_REG;
 1132              		.loc 1 703 0
 1133 0020 0D4B     		ldr	r3, .L54+8
 1134 0022 1B78     		ldrb	r3, [r3]
 1135 0024 04E0     		b	.L51
 1136              	.L50:
 704:.\Generated_Source\PSoC5/ADC_DelSig.c ****     }
 705:.\Generated_Source\PSoC5/ADC_DelSig.c ****     else  if(coherency == ADC_DelSig_DEC_SAMP_KEY_HIGH)
 1137              		.loc 1 705 0
 1138 0026 FB79     		ldrb	r3, [r7, #7]	@ zero_extendqisi2
 1139 0028 032B     		cmp	r3, #3
 1140 002a 01D1     		bne	.L51
 706:.\Generated_Source\PSoC5/ADC_DelSig.c ****     {   /* Dummy read of the MSB byte to unlock the coherency */
 707:.\Generated_Source\PSoC5/ADC_DelSig.c ****         (void)ADC_DelSig_DEC_SAMPH_REG;
 1141              		.loc 1 707 0
 1142 002c 0B4B     		ldr	r3, .L54+12
 1143 002e 1B78     		ldrb	r3, [r3]
 1144              	.L51:
 708:.\Generated_Source\PSoC5/ADC_DelSig.c ****     }
 709:.\Generated_Source\PSoC5/ADC_DelSig.c ****     else /*No action required for other coherency */
 710:.\Generated_Source\PSoC5/ADC_DelSig.c ****     {
 711:.\Generated_Source\PSoC5/ADC_DelSig.c ****     }
 712:.\Generated_Source\PSoC5/ADC_DelSig.c ****     /* Clear conversion complete status in Single Sample mode with resolution above 16 bit */
 713:.\Generated_Source\PSoC5/ADC_DelSig.c ****     if(ADC_DelSig_stopConversion != 0u)
 1145              		.loc 1 713 0
 1146 0030 0B4B     		ldr	r3, .L54+16
 1147 0032 1B78     		ldrb	r3, [r3]
 1148 0034 DBB2     		uxtb	r3, r3
 1149 0036 002B     		cmp	r3, #0
 1150 0038 02D0     		beq	.L52
 714:.\Generated_Source\PSoC5/ADC_DelSig.c ****     {
 715:.\Generated_Source\PSoC5/ADC_DelSig.c ****         ADC_DelSig_convDone = 0u;
 1151              		.loc 1 715 0
 1152 003a 0A4B     		ldr	r3, .L54+20
 1153 003c 0022     		movs	r2, #0
 1154 003e 1A70     		strb	r2, [r3]
 1155              	.L52:
 716:.\Generated_Source\PSoC5/ADC_DelSig.c ****     }
 717:.\Generated_Source\PSoC5/ADC_DelSig.c ****     return (result);
 1156              		.loc 1 717 0
 1157 0040 BB79     		ldrb	r3, [r7, #6]	@ zero_extendqisi2
 1158 0042 5BB2     		sxtb	r3, r3
 718:.\Generated_Source\PSoC5/ADC_DelSig.c **** }
 1159              		.loc 1 718 0
 1160 0044 1846     		mov	r0, r3
 1161 0046 0C37     		adds	r7, r7, #12
 1162              		.cfi_def_cfa_offset 4
 1163 0048 BD46     		mov	sp, r7
ARM GAS  C:\Users\LUKASC~1\AppData\Local\Temp\ccd9ca13.s 			page 34


 1164              		.cfi_def_cfa_register 13
 1165              		@ sp needed
 1166 004a 5DF8047B 		ldr	r7, [sp], #4
 1167              		.cfi_restore 7
 1168              		.cfi_def_cfa_offset 0
 1169 004e 7047     		bx	lr
 1170              	.L55:
 1171              		.align	2
 1172              	.L54:
 1173 0050 144E0040 		.word	1073761812
 1174 0054 104E0040 		.word	1073761808
 1175 0058 114E0040 		.word	1073761809
 1176 005c 124E0040 		.word	1073761810
 1177 0060 00000000 		.word	ADC_DelSig_stopConversion
 1178 0064 00000000 		.word	ADC_DelSig_convDone
 1179              		.cfi_endproc
 1180              	.LFE11:
 1181              		.size	ADC_DelSig_GetResult8, .-ADC_DelSig_GetResult8
 1182              		.section	.text.ADC_DelSig_GetResult16,"ax",%progbits
 1183              		.align	2
 1184              		.global	ADC_DelSig_GetResult16
 1185              		.thumb
 1186              		.thumb_func
 1187              		.type	ADC_DelSig_GetResult16, %function
 1188              	ADC_DelSig_GetResult16:
 1189              	.LFB12:
 719:.\Generated_Source\PSoC5/ADC_DelSig.c **** 
 720:.\Generated_Source\PSoC5/ADC_DelSig.c **** 
 721:.\Generated_Source\PSoC5/ADC_DelSig.c **** /*******************************************************************************
 722:.\Generated_Source\PSoC5/ADC_DelSig.c **** * Function Name: ADC_DelSig_GetResult16
 723:.\Generated_Source\PSoC5/ADC_DelSig.c **** ********************************************************************************
 724:.\Generated_Source\PSoC5/ADC_DelSig.c **** *
 725:.\Generated_Source\PSoC5/ADC_DelSig.c **** * Summary:
 726:.\Generated_Source\PSoC5/ADC_DelSig.c **** *  Returns a 16-bit result for a conversion with a result that has a
 727:.\Generated_Source\PSoC5/ADC_DelSig.c **** *  resolution of 8 to 16 bits. If the resolution is set greater than 16-bits,
 728:.\Generated_Source\PSoC5/ADC_DelSig.c **** *  it will return the 16 least significant bits of the result. When the ADC
 729:.\Generated_Source\PSoC5/ADC_DelSig.c **** *  is configured for 16-bit single ended mode, the ADC_GetResult32()
 730:.\Generated_Source\PSoC5/ADC_DelSig.c **** *  function should be used instead. This function returns only signed
 731:.\Generated_Source\PSoC5/ADC_DelSig.c **** *  16-bit result, which allows a maximum positive value of 32767, not 65535.
 732:.\Generated_Source\PSoC5/ADC_DelSig.c **** *  This function supports different coherency settings.
 733:.\Generated_Source\PSoC5/ADC_DelSig.c **** *
 734:.\Generated_Source\PSoC5/ADC_DelSig.c **** * Parameters:
 735:.\Generated_Source\PSoC5/ADC_DelSig.c **** *   void
 736:.\Generated_Source\PSoC5/ADC_DelSig.c **** *
 737:.\Generated_Source\PSoC5/ADC_DelSig.c **** * Return:
 738:.\Generated_Source\PSoC5/ADC_DelSig.c **** *  int16:  ADC result.
 739:.\Generated_Source\PSoC5/ADC_DelSig.c **** *
 740:.\Generated_Source\PSoC5/ADC_DelSig.c **** * Global variables:
 741:.\Generated_Source\PSoC5/ADC_DelSig.c **** *  ADC_DelSig_convDone:  Cleared in single sample mode with resolution
 742:.\Generated_Source\PSoC5/ADC_DelSig.c **** *                              above 16 bits
 743:.\Generated_Source\PSoC5/ADC_DelSig.c **** *
 744:.\Generated_Source\PSoC5/ADC_DelSig.c **** *******************************************************************************/
 745:.\Generated_Source\PSoC5/ADC_DelSig.c **** int16 ADC_DelSig_GetResult16(void) 
 746:.\Generated_Source\PSoC5/ADC_DelSig.c **** {
 1190              		.loc 1 746 0
 1191              		.cfi_startproc
 1192              		@ args = 0, pretend = 0, frame = 8
ARM GAS  C:\Users\LUKASC~1\AppData\Local\Temp\ccd9ca13.s 			page 35


 1193              		@ frame_needed = 1, uses_anonymous_args = 0
 1194              		@ link register save eliminated.
 1195 0000 80B4     		push	{r7}
 1196              		.cfi_def_cfa_offset 4
 1197              		.cfi_offset 7, -4
 1198 0002 83B0     		sub	sp, sp, #12
 1199              		.cfi_def_cfa_offset 16
 1200 0004 00AF     		add	r7, sp, #0
 1201              		.cfi_def_cfa_register 7
 747:.\Generated_Source\PSoC5/ADC_DelSig.c ****     uint16 result;
 748:.\Generated_Source\PSoC5/ADC_DelSig.c ****     uint8 coherency;
 749:.\Generated_Source\PSoC5/ADC_DelSig.c **** 
 750:.\Generated_Source\PSoC5/ADC_DelSig.c ****     /* Read active coherency configuration */
 751:.\Generated_Source\PSoC5/ADC_DelSig.c ****     coherency = ADC_DelSig_DEC_COHER_REG & ADC_DelSig_DEC_SAMP_KEY_MASK;
 1202              		.loc 1 751 0
 1203 0006 174B     		ldr	r3, .L61
 1204 0008 1B78     		ldrb	r3, [r3]
 1205 000a DBB2     		uxtb	r3, r3
 1206 000c 03F00303 		and	r3, r3, #3
 1207 0010 7B71     		strb	r3, [r7, #5]
 752:.\Generated_Source\PSoC5/ADC_DelSig.c **** 
 753:.\Generated_Source\PSoC5/ADC_DelSig.c ****     if(coherency <= ADC_DelSig_DEC_SAMP_KEY_LOW)
 1208              		.loc 1 753 0
 1209 0012 7B79     		ldrb	r3, [r7, #5]	@ zero_extendqisi2
 1210 0014 012B     		cmp	r3, #1
 1211 0016 03D8     		bhi	.L57
 754:.\Generated_Source\PSoC5/ADC_DelSig.c ****     {   /*  Use default method to read result registers i.e. LSB byte read at the end*/
 755:.\Generated_Source\PSoC5/ADC_DelSig.c ****         #if (CY_PSOC3)
 756:.\Generated_Source\PSoC5/ADC_DelSig.c ****             result = ADC_DelSig_DEC_SAMPM_REG;
 757:.\Generated_Source\PSoC5/ADC_DelSig.c ****             result = (result << 8u) | ADC_DelSig_DEC_SAMP_REG;
 758:.\Generated_Source\PSoC5/ADC_DelSig.c ****         #else
 759:.\Generated_Source\PSoC5/ADC_DelSig.c ****             result = (CY_GET_REG16(ADC_DelSig_DEC_SAMP_16B_PTR));
 1212              		.loc 1 759 0
 1213 0018 134B     		ldr	r3, .L61+4
 1214 001a 1B88     		ldrh	r3, [r3]	@ movhi
 1215 001c FB80     		strh	r3, [r7, #6]	@ movhi
 1216 001e 11E0     		b	.L58
 1217              	.L57:
 760:.\Generated_Source\PSoC5/ADC_DelSig.c ****         #endif /* CY_PSOC3 */
 761:.\Generated_Source\PSoC5/ADC_DelSig.c ****     }
 762:.\Generated_Source\PSoC5/ADC_DelSig.c ****     else /* MID or HIGH */
 763:.\Generated_Source\PSoC5/ADC_DelSig.c ****     {   /* Read middle byte at the end */
 764:.\Generated_Source\PSoC5/ADC_DelSig.c ****         #if (CY_PSOC3)
 765:.\Generated_Source\PSoC5/ADC_DelSig.c ****             result = (CY_GET_REG16(ADC_DelSig_DEC_SAMP_16B_PTR));
 766:.\Generated_Source\PSoC5/ADC_DelSig.c ****         #else
 767:.\Generated_Source\PSoC5/ADC_DelSig.c ****             result = ADC_DelSig_DEC_SAMP_REG;
 1218              		.loc 1 767 0
 1219 0020 114B     		ldr	r3, .L61+4
 1220 0022 1B78     		ldrb	r3, [r3]
 1221 0024 DBB2     		uxtb	r3, r3
 1222 0026 FB80     		strh	r3, [r7, #6]	@ movhi
 768:.\Generated_Source\PSoC5/ADC_DelSig.c ****             result |=  (uint16)((uint16)ADC_DelSig_DEC_SAMPM_REG << 8u);
 1223              		.loc 1 768 0
 1224 0028 104B     		ldr	r3, .L61+8
 1225 002a 1B78     		ldrb	r3, [r3]
 1226 002c DBB2     		uxtb	r3, r3
 1227 002e 9BB2     		uxth	r3, r3
ARM GAS  C:\Users\LUKASC~1\AppData\Local\Temp\ccd9ca13.s 			page 36


 1228 0030 1B02     		lsls	r3, r3, #8
 1229 0032 9AB2     		uxth	r2, r3
 1230 0034 FB88     		ldrh	r3, [r7, #6]	@ movhi
 1231 0036 1343     		orrs	r3, r3, r2
 1232 0038 FB80     		strh	r3, [r7, #6]	@ movhi
 769:.\Generated_Source\PSoC5/ADC_DelSig.c ****         #endif /* CY_PSOC3 */
 770:.\Generated_Source\PSoC5/ADC_DelSig.c ****         if(coherency == ADC_DelSig_DEC_SAMP_KEY_HIGH)
 1233              		.loc 1 770 0
 1234 003a 7B79     		ldrb	r3, [r7, #5]	@ zero_extendqisi2
 1235 003c 032B     		cmp	r3, #3
 1236 003e 01D1     		bne	.L58
 771:.\Generated_Source\PSoC5/ADC_DelSig.c ****         {   /* Dummy read of the MSB byte to unlock the coherency */
 772:.\Generated_Source\PSoC5/ADC_DelSig.c ****             (void)ADC_DelSig_DEC_SAMPH_REG;
 1237              		.loc 1 772 0
 1238 0040 0B4B     		ldr	r3, .L61+12
 1239 0042 1B78     		ldrb	r3, [r3]
 1240              	.L58:
 773:.\Generated_Source\PSoC5/ADC_DelSig.c ****         }
 774:.\Generated_Source\PSoC5/ADC_DelSig.c ****     }
 775:.\Generated_Source\PSoC5/ADC_DelSig.c ****     /* Clear conversion complete status in Single Sample mode with resolution above 16 bit */
 776:.\Generated_Source\PSoC5/ADC_DelSig.c ****     if(ADC_DelSig_stopConversion != 0u)
 1241              		.loc 1 776 0
 1242 0044 0B4B     		ldr	r3, .L61+16
 1243 0046 1B78     		ldrb	r3, [r3]
 1244 0048 DBB2     		uxtb	r3, r3
 1245 004a 002B     		cmp	r3, #0
 1246 004c 02D0     		beq	.L59
 777:.\Generated_Source\PSoC5/ADC_DelSig.c ****     {
 778:.\Generated_Source\PSoC5/ADC_DelSig.c ****         ADC_DelSig_convDone = 0u;
 1247              		.loc 1 778 0
 1248 004e 0A4B     		ldr	r3, .L61+20
 1249 0050 0022     		movs	r2, #0
 1250 0052 1A70     		strb	r2, [r3]
 1251              	.L59:
 779:.\Generated_Source\PSoC5/ADC_DelSig.c ****     }
 780:.\Generated_Source\PSoC5/ADC_DelSig.c **** 
 781:.\Generated_Source\PSoC5/ADC_DelSig.c ****     return ((int16)result);
 1252              		.loc 1 781 0
 1253 0054 FB88     		ldrh	r3, [r7, #6]
 1254 0056 1BB2     		sxth	r3, r3
 782:.\Generated_Source\PSoC5/ADC_DelSig.c **** }
 1255              		.loc 1 782 0
 1256 0058 1846     		mov	r0, r3
 1257 005a 0C37     		adds	r7, r7, #12
 1258              		.cfi_def_cfa_offset 4
 1259 005c BD46     		mov	sp, r7
 1260              		.cfi_def_cfa_register 13
 1261              		@ sp needed
 1262 005e 5DF8047B 		ldr	r7, [sp], #4
 1263              		.cfi_restore 7
 1264              		.cfi_def_cfa_offset 0
 1265 0062 7047     		bx	lr
 1266              	.L62:
 1267              		.align	2
 1268              	.L61:
 1269 0064 144E0040 		.word	1073761812
 1270 0068 104E0040 		.word	1073761808
ARM GAS  C:\Users\LUKASC~1\AppData\Local\Temp\ccd9ca13.s 			page 37


 1271 006c 114E0040 		.word	1073761809
 1272 0070 124E0040 		.word	1073761810
 1273 0074 00000000 		.word	ADC_DelSig_stopConversion
 1274 0078 00000000 		.word	ADC_DelSig_convDone
 1275              		.cfi_endproc
 1276              	.LFE12:
 1277              		.size	ADC_DelSig_GetResult16, .-ADC_DelSig_GetResult16
 1278              		.section	.text.ADC_DelSig_GetResult32,"ax",%progbits
 1279              		.align	2
 1280              		.global	ADC_DelSig_GetResult32
 1281              		.thumb
 1282              		.thumb_func
 1283              		.type	ADC_DelSig_GetResult32, %function
 1284              	ADC_DelSig_GetResult32:
 1285              	.LFB13:
 783:.\Generated_Source\PSoC5/ADC_DelSig.c **** 
 784:.\Generated_Source\PSoC5/ADC_DelSig.c **** 
 785:.\Generated_Source\PSoC5/ADC_DelSig.c **** /*******************************************************************************
 786:.\Generated_Source\PSoC5/ADC_DelSig.c **** * Function Name: ADC_DelSig_GetResult32
 787:.\Generated_Source\PSoC5/ADC_DelSig.c **** ********************************************************************************
 788:.\Generated_Source\PSoC5/ADC_DelSig.c **** *
 789:.\Generated_Source\PSoC5/ADC_DelSig.c **** * Summary:
 790:.\Generated_Source\PSoC5/ADC_DelSig.c **** *  Returns a 32-bit result for a conversion with a result that has a
 791:.\Generated_Source\PSoC5/ADC_DelSig.c **** *  resolution of 8 to 20 bits.
 792:.\Generated_Source\PSoC5/ADC_DelSig.c **** *  This function supports different coherency settings.
 793:.\Generated_Source\PSoC5/ADC_DelSig.c **** *
 794:.\Generated_Source\PSoC5/ADC_DelSig.c **** * Parameters:
 795:.\Generated_Source\PSoC5/ADC_DelSig.c **** *  None
 796:.\Generated_Source\PSoC5/ADC_DelSig.c **** *
 797:.\Generated_Source\PSoC5/ADC_DelSig.c **** * Return:
 798:.\Generated_Source\PSoC5/ADC_DelSig.c **** *  int32: Result of the last ADC conversion.
 799:.\Generated_Source\PSoC5/ADC_DelSig.c **** *
 800:.\Generated_Source\PSoC5/ADC_DelSig.c **** * Global variables:
 801:.\Generated_Source\PSoC5/ADC_DelSig.c **** *  ADC_DelSig_convDone:  Cleared in single sample mode with resolution
 802:.\Generated_Source\PSoC5/ADC_DelSig.c **** *                              above 16 bits
 803:.\Generated_Source\PSoC5/ADC_DelSig.c **** *
 804:.\Generated_Source\PSoC5/ADC_DelSig.c **** *******************************************************************************/
 805:.\Generated_Source\PSoC5/ADC_DelSig.c **** int32 ADC_DelSig_GetResult32(void) 
 806:.\Generated_Source\PSoC5/ADC_DelSig.c **** {
 1286              		.loc 1 806 0
 1287              		.cfi_startproc
 1288              		@ args = 0, pretend = 0, frame = 8
 1289              		@ frame_needed = 1, uses_anonymous_args = 0
 1290              		@ link register save eliminated.
 1291 0000 80B4     		push	{r7}
 1292              		.cfi_def_cfa_offset 4
 1293              		.cfi_offset 7, -4
 1294 0002 83B0     		sub	sp, sp, #12
 1295              		.cfi_def_cfa_offset 16
 1296 0004 00AF     		add	r7, sp, #0
 1297              		.cfi_def_cfa_register 7
 807:.\Generated_Source\PSoC5/ADC_DelSig.c ****     uint32 result;
 808:.\Generated_Source\PSoC5/ADC_DelSig.c ****     uint8 coherency;
 809:.\Generated_Source\PSoC5/ADC_DelSig.c ****     #if (CY_PSOC3)
 810:.\Generated_Source\PSoC5/ADC_DelSig.c **** 	    uint16 tmp;
 811:.\Generated_Source\PSoC5/ADC_DelSig.c ****     #endif /* CY_PSOC3 */
 812:.\Generated_Source\PSoC5/ADC_DelSig.c **** 
ARM GAS  C:\Users\LUKASC~1\AppData\Local\Temp\ccd9ca13.s 			page 38


 813:.\Generated_Source\PSoC5/ADC_DelSig.c ****     /* Read active coherency configuration */
 814:.\Generated_Source\PSoC5/ADC_DelSig.c ****     coherency = ADC_DelSig_DEC_COHER_REG & ADC_DelSig_DEC_SAMP_KEY_MASK;
 1298              		.loc 1 814 0
 1299 0006 224B     		ldr	r3, .L69
 1300 0008 1B78     		ldrb	r3, [r3]
 1301 000a DBB2     		uxtb	r3, r3
 1302 000c 03F00303 		and	r3, r3, #3
 1303 0010 FB70     		strb	r3, [r7, #3]
 815:.\Generated_Source\PSoC5/ADC_DelSig.c **** 
 816:.\Generated_Source\PSoC5/ADC_DelSig.c ****     if(coherency <= ADC_DelSig_DEC_SAMP_KEY_LOW)
 1304              		.loc 1 816 0
 1305 0012 FB78     		ldrb	r3, [r7, #3]	@ zero_extendqisi2
 1306 0014 012B     		cmp	r3, #1
 1307 0016 0BD8     		bhi	.L64
 817:.\Generated_Source\PSoC5/ADC_DelSig.c ****     {   /*  Use default method to read result registers i.e. LSB byte read at the end*/
 818:.\Generated_Source\PSoC5/ADC_DelSig.c ****         #if (CY_PSOC3)
 819:.\Generated_Source\PSoC5/ADC_DelSig.c ****             result = ADC_DelSig_DEC_SAMPH_REG;
 820:.\Generated_Source\PSoC5/ADC_DelSig.c ****             if((result & 0x80u) != 0u)
 821:.\Generated_Source\PSoC5/ADC_DelSig.c ****             {   /* Sign extend */
 822:.\Generated_Source\PSoC5/ADC_DelSig.c ****                 result |= 0xFF00u;
 823:.\Generated_Source\PSoC5/ADC_DelSig.c ****             }
 824:.\Generated_Source\PSoC5/ADC_DelSig.c ****             result = (result << 8u) | ADC_DelSig_DEC_SAMPM_REG;
 825:.\Generated_Source\PSoC5/ADC_DelSig.c ****             result = (result << 8u) | ADC_DelSig_DEC_SAMP_REG;
 826:.\Generated_Source\PSoC5/ADC_DelSig.c ****         #else
 827:.\Generated_Source\PSoC5/ADC_DelSig.c ****             result = CY_GET_REG16(ADC_DelSig_DEC_SAMPH_16B_PTR);
 1308              		.loc 1 827 0
 1309 0018 1E4B     		ldr	r3, .L69+4
 1310 001a 1B88     		ldrh	r3, [r3]	@ movhi
 1311 001c 9BB2     		uxth	r3, r3
 1312 001e 7B60     		str	r3, [r7, #4]
 828:.\Generated_Source\PSoC5/ADC_DelSig.c ****             result = (result << 16u) | (CY_GET_REG16(ADC_DelSig_DEC_SAMP_16B_PTR));
 1313              		.loc 1 828 0
 1314 0020 7B68     		ldr	r3, [r7, #4]
 1315 0022 1B04     		lsls	r3, r3, #16
 1316 0024 1C4A     		ldr	r2, .L69+8
 1317 0026 1288     		ldrh	r2, [r2]	@ movhi
 1318 0028 92B2     		uxth	r2, r2
 1319 002a 1343     		orrs	r3, r3, r2
 1320 002c 7B60     		str	r3, [r7, #4]
 1321 002e 20E0     		b	.L65
 1322              	.L64:
 829:.\Generated_Source\PSoC5/ADC_DelSig.c ****         #endif /* CY_PSOC3 */
 830:.\Generated_Source\PSoC5/ADC_DelSig.c ****     }
 831:.\Generated_Source\PSoC5/ADC_DelSig.c ****     else if(coherency == ADC_DelSig_DEC_SAMP_KEY_MID)
 1323              		.loc 1 831 0
 1324 0030 FB78     		ldrb	r3, [r7, #3]	@ zero_extendqisi2
 1325 0032 022B     		cmp	r3, #2
 1326 0034 12D1     		bne	.L66
 832:.\Generated_Source\PSoC5/ADC_DelSig.c ****     {   /* Read middle byte at the end */
 833:.\Generated_Source\PSoC5/ADC_DelSig.c ****         #if (CY_PSOC3)
 834:.\Generated_Source\PSoC5/ADC_DelSig.c ****             result = ADC_DelSig_DEC_SAMPH_REG;
 835:.\Generated_Source\PSoC5/ADC_DelSig.c ****             if((result & 0x80u) != 0u)
 836:.\Generated_Source\PSoC5/ADC_DelSig.c ****             {   /* Sign extend */
 837:.\Generated_Source\PSoC5/ADC_DelSig.c ****                 result |= 0xFF00u;
 838:.\Generated_Source\PSoC5/ADC_DelSig.c ****             }
 839:.\Generated_Source\PSoC5/ADC_DelSig.c ****             result = (result << 16u) | (CY_GET_REG16(ADC_DelSig_DEC_SAMP_16B_PTR));
 840:.\Generated_Source\PSoC5/ADC_DelSig.c ****         #else
ARM GAS  C:\Users\LUKASC~1\AppData\Local\Temp\ccd9ca13.s 			page 39


 841:.\Generated_Source\PSoC5/ADC_DelSig.c ****             result = CY_GET_REG16(ADC_DelSig_DEC_SAMPH_16B_PTR);
 1327              		.loc 1 841 0
 1328 0036 174B     		ldr	r3, .L69+4
 1329 0038 1B88     		ldrh	r3, [r3]	@ movhi
 1330 003a 9BB2     		uxth	r3, r3
 1331 003c 7B60     		str	r3, [r7, #4]
 842:.\Generated_Source\PSoC5/ADC_DelSig.c ****             result = (result << 16u) | ADC_DelSig_DEC_SAMP_REG;
 1332              		.loc 1 842 0
 1333 003e 7B68     		ldr	r3, [r7, #4]
 1334 0040 1B04     		lsls	r3, r3, #16
 1335 0042 154A     		ldr	r2, .L69+8
 1336 0044 1278     		ldrb	r2, [r2]
 1337 0046 D2B2     		uxtb	r2, r2
 1338 0048 1343     		orrs	r3, r3, r2
 1339 004a 7B60     		str	r3, [r7, #4]
 843:.\Generated_Source\PSoC5/ADC_DelSig.c ****             result |=  (uint32)((uint32)ADC_DelSig_DEC_SAMPM_REG << 8u);
 1340              		.loc 1 843 0
 1341 004c 134B     		ldr	r3, .L69+12
 1342 004e 1B78     		ldrb	r3, [r3]
 1343 0050 DBB2     		uxtb	r3, r3
 1344 0052 1B02     		lsls	r3, r3, #8
 1345 0054 7A68     		ldr	r2, [r7, #4]
 1346 0056 1343     		orrs	r3, r3, r2
 1347 0058 7B60     		str	r3, [r7, #4]
 1348 005a 0AE0     		b	.L65
 1349              	.L66:
 844:.\Generated_Source\PSoC5/ADC_DelSig.c ****         #endif /* CY_PSOC3 */
 845:.\Generated_Source\PSoC5/ADC_DelSig.c ****     }
 846:.\Generated_Source\PSoC5/ADC_DelSig.c ****     else /*ADC_DelSig_DEC_SAMP_KEY_HIGH */
 847:.\Generated_Source\PSoC5/ADC_DelSig.c ****     {
 848:.\Generated_Source\PSoC5/ADC_DelSig.c ****         /* Read MSB byte at the end */
 849:.\Generated_Source\PSoC5/ADC_DelSig.c ****         #if (CY_PSOC3)
 850:.\Generated_Source\PSoC5/ADC_DelSig.c ****             result = CY_GET_REG16(ADC_DelSig_DEC_SAMP_16B_PTR);
 851:.\Generated_Source\PSoC5/ADC_DelSig.c **** 			tmp = ADC_DelSig_DEC_SAMPH_REG;
 852:.\Generated_Source\PSoC5/ADC_DelSig.c ****             if((tmp & 0x80u) != 0u)
 853:.\Generated_Source\PSoC5/ADC_DelSig.c ****             {   /* Sign extend */
 854:.\Generated_Source\PSoC5/ADC_DelSig.c ****                 tmp |= 0xFF00u;
 855:.\Generated_Source\PSoC5/ADC_DelSig.c ****             }
 856:.\Generated_Source\PSoC5/ADC_DelSig.c ****             result |= (uint32)tmp << 16u;
 857:.\Generated_Source\PSoC5/ADC_DelSig.c ****         #else
 858:.\Generated_Source\PSoC5/ADC_DelSig.c ****             result = CY_GET_REG16(ADC_DelSig_DEC_SAMP_16B_PTR);
 1350              		.loc 1 858 0
 1351 005c 0E4B     		ldr	r3, .L69+8
 1352 005e 1B88     		ldrh	r3, [r3]	@ movhi
 1353 0060 9BB2     		uxth	r3, r3
 1354 0062 7B60     		str	r3, [r7, #4]
 859:.\Generated_Source\PSoC5/ADC_DelSig.c ****             result |= (uint32)((uint32)CY_GET_REG16(ADC_DelSig_DEC_SAMPH_16B_PTR) << 16u);
 1355              		.loc 1 859 0
 1356 0064 0B4B     		ldr	r3, .L69+4
 1357 0066 1B88     		ldrh	r3, [r3]	@ movhi
 1358 0068 9BB2     		uxth	r3, r3
 1359 006a 1B04     		lsls	r3, r3, #16
 1360 006c 7A68     		ldr	r2, [r7, #4]
 1361 006e 1343     		orrs	r3, r3, r2
 1362 0070 7B60     		str	r3, [r7, #4]
 1363              	.L65:
 860:.\Generated_Source\PSoC5/ADC_DelSig.c ****         #endif /* CY_PSOC3 */
ARM GAS  C:\Users\LUKASC~1\AppData\Local\Temp\ccd9ca13.s 			page 40


 861:.\Generated_Source\PSoC5/ADC_DelSig.c ****     }
 862:.\Generated_Source\PSoC5/ADC_DelSig.c ****     /* Clear conversion complete status in Single Sample mode with resolution above 16 bit */
 863:.\Generated_Source\PSoC5/ADC_DelSig.c ****     if(ADC_DelSig_stopConversion != 0u)
 1364              		.loc 1 863 0
 1365 0072 0B4B     		ldr	r3, .L69+16
 1366 0074 1B78     		ldrb	r3, [r3]
 1367 0076 DBB2     		uxtb	r3, r3
 1368 0078 002B     		cmp	r3, #0
 1369 007a 02D0     		beq	.L67
 864:.\Generated_Source\PSoC5/ADC_DelSig.c ****     {
 865:.\Generated_Source\PSoC5/ADC_DelSig.c ****         ADC_DelSig_convDone = 0u;
 1370              		.loc 1 865 0
 1371 007c 094B     		ldr	r3, .L69+20
 1372 007e 0022     		movs	r2, #0
 1373 0080 1A70     		strb	r2, [r3]
 1374              	.L67:
 866:.\Generated_Source\PSoC5/ADC_DelSig.c ****     }
 867:.\Generated_Source\PSoC5/ADC_DelSig.c **** 
 868:.\Generated_Source\PSoC5/ADC_DelSig.c ****     return ((int32)result);
 1375              		.loc 1 868 0
 1376 0082 7B68     		ldr	r3, [r7, #4]
 869:.\Generated_Source\PSoC5/ADC_DelSig.c **** }
 1377              		.loc 1 869 0
 1378 0084 1846     		mov	r0, r3
 1379 0086 0C37     		adds	r7, r7, #12
 1380              		.cfi_def_cfa_offset 4
 1381 0088 BD46     		mov	sp, r7
 1382              		.cfi_def_cfa_register 13
 1383              		@ sp needed
 1384 008a 5DF8047B 		ldr	r7, [sp], #4
 1385              		.cfi_restore 7
 1386              		.cfi_def_cfa_offset 0
 1387 008e 7047     		bx	lr
 1388              	.L70:
 1389              		.align	2
 1390              	.L69:
 1391 0090 144E0040 		.word	1073761812
 1392 0094 124E0040 		.word	1073761810
 1393 0098 104E0040 		.word	1073761808
 1394 009c 114E0040 		.word	1073761809
 1395 00a0 00000000 		.word	ADC_DelSig_stopConversion
 1396 00a4 00000000 		.word	ADC_DelSig_convDone
 1397              		.cfi_endproc
 1398              	.LFE13:
 1399              		.size	ADC_DelSig_GetResult32, .-ADC_DelSig_GetResult32
 1400              		.section	.text.ADC_DelSig_SetOffset,"ax",%progbits
 1401              		.align	2
 1402              		.global	ADC_DelSig_SetOffset
 1403              		.thumb
 1404              		.thumb_func
 1405              		.type	ADC_DelSig_SetOffset, %function
 1406              	ADC_DelSig_SetOffset:
 1407              	.LFB14:
 870:.\Generated_Source\PSoC5/ADC_DelSig.c **** 
 871:.\Generated_Source\PSoC5/ADC_DelSig.c **** 
 872:.\Generated_Source\PSoC5/ADC_DelSig.c **** /*******************************************************************************
 873:.\Generated_Source\PSoC5/ADC_DelSig.c **** * Function Name: ADC_DelSig_SetOffset
ARM GAS  C:\Users\LUKASC~1\AppData\Local\Temp\ccd9ca13.s 			page 41


 874:.\Generated_Source\PSoC5/ADC_DelSig.c **** ********************************************************************************
 875:.\Generated_Source\PSoC5/ADC_DelSig.c **** *
 876:.\Generated_Source\PSoC5/ADC_DelSig.c **** * Summary:
 877:.\Generated_Source\PSoC5/ADC_DelSig.c **** *  Sets the ADC offset which is used by the functions ADC_CountsTo_uVolts, 
 878:.\Generated_Source\PSoC5/ADC_DelSig.c **** *  ADC_CountsTo_mVolts, and ADC_CountsTo_Volts to subtract the offset from the 
 879:.\Generated_Source\PSoC5/ADC_DelSig.c **** *  given reading before calculating the voltage conversion.
 880:.\Generated_Source\PSoC5/ADC_DelSig.c **** *
 881:.\Generated_Source\PSoC5/ADC_DelSig.c **** * Parameters:
 882:.\Generated_Source\PSoC5/ADC_DelSig.c **** *  int32:  This value is a measured value when the inputs are shorted or 
 883:.\Generated_Source\PSoC5/ADC_DelSig.c **** *          connected to the same input voltage.
 884:.\Generated_Source\PSoC5/ADC_DelSig.c **** *
 885:.\Generated_Source\PSoC5/ADC_DelSig.c **** * Return:
 886:.\Generated_Source\PSoC5/ADC_DelSig.c **** *  None
 887:.\Generated_Source\PSoC5/ADC_DelSig.c **** *
 888:.\Generated_Source\PSoC5/ADC_DelSig.c **** * Global variables:
 889:.\Generated_Source\PSoC5/ADC_DelSig.c **** *  ADC_DelSig_Offset:  Modified to set the user provided offset. This
 890:.\Generated_Source\PSoC5/ADC_DelSig.c **** *  variable is used for offset calibration purpose.
 891:.\Generated_Source\PSoC5/ADC_DelSig.c **** *
 892:.\Generated_Source\PSoC5/ADC_DelSig.c **** * Side Effects:
 893:.\Generated_Source\PSoC5/ADC_DelSig.c **** *  Affects the ADC_DelSig_CountsTo_Volts,
 894:.\Generated_Source\PSoC5/ADC_DelSig.c **** *  ADC_DelSig_CountsTo_mVolts, ADC_DelSig_CountsTo_uVolts functions
 895:.\Generated_Source\PSoC5/ADC_DelSig.c **** *  by subtracting the given offset.
 896:.\Generated_Source\PSoC5/ADC_DelSig.c **** *
 897:.\Generated_Source\PSoC5/ADC_DelSig.c **** *******************************************************************************/
 898:.\Generated_Source\PSoC5/ADC_DelSig.c **** void ADC_DelSig_SetOffset(int32 offset) 
 899:.\Generated_Source\PSoC5/ADC_DelSig.c **** {
 1408              		.loc 1 899 0
 1409              		.cfi_startproc
 1410              		@ args = 0, pretend = 0, frame = 8
 1411              		@ frame_needed = 1, uses_anonymous_args = 0
 1412              		@ link register save eliminated.
 1413 0000 80B4     		push	{r7}
 1414              		.cfi_def_cfa_offset 4
 1415              		.cfi_offset 7, -4
 1416 0002 83B0     		sub	sp, sp, #12
 1417              		.cfi_def_cfa_offset 16
 1418 0004 00AF     		add	r7, sp, #0
 1419              		.cfi_def_cfa_register 7
 1420 0006 7860     		str	r0, [r7, #4]
 900:.\Generated_Source\PSoC5/ADC_DelSig.c **** 
 901:.\Generated_Source\PSoC5/ADC_DelSig.c ****     ADC_DelSig_Offset = offset;
 1421              		.loc 1 901 0
 1422 0008 034A     		ldr	r2, .L72
 1423 000a 7B68     		ldr	r3, [r7, #4]
 1424 000c 1360     		str	r3, [r2]
 902:.\Generated_Source\PSoC5/ADC_DelSig.c **** }
 1425              		.loc 1 902 0
 1426 000e 0C37     		adds	r7, r7, #12
 1427              		.cfi_def_cfa_offset 4
 1428 0010 BD46     		mov	sp, r7
 1429              		.cfi_def_cfa_register 13
 1430              		@ sp needed
 1431 0012 5DF8047B 		ldr	r7, [sp], #4
 1432              		.cfi_restore 7
 1433              		.cfi_def_cfa_offset 0
 1434 0016 7047     		bx	lr
 1435              	.L73:
ARM GAS  C:\Users\LUKASC~1\AppData\Local\Temp\ccd9ca13.s 			page 42


 1436              		.align	2
 1437              	.L72:
 1438 0018 00000000 		.word	ADC_DelSig_Offset
 1439              		.cfi_endproc
 1440              	.LFE14:
 1441              		.size	ADC_DelSig_SetOffset, .-ADC_DelSig_SetOffset
 1442              		.section	.text.ADC_DelSig_SetGain,"ax",%progbits
 1443              		.align	2
 1444              		.global	ADC_DelSig_SetGain
 1445              		.thumb
 1446              		.thumb_func
 1447              		.type	ADC_DelSig_SetGain, %function
 1448              	ADC_DelSig_SetGain:
 1449              	.LFB15:
 903:.\Generated_Source\PSoC5/ADC_DelSig.c **** 
 904:.\Generated_Source\PSoC5/ADC_DelSig.c **** 
 905:.\Generated_Source\PSoC5/ADC_DelSig.c **** /*******************************************************************************
 906:.\Generated_Source\PSoC5/ADC_DelSig.c **** * Function Name: ADC_DelSig_SetGain
 907:.\Generated_Source\PSoC5/ADC_DelSig.c **** ********************************************************************************
 908:.\Generated_Source\PSoC5/ADC_DelSig.c **** *
 909:.\Generated_Source\PSoC5/ADC_DelSig.c **** * Summary:
 910:.\Generated_Source\PSoC5/ADC_DelSig.c **** *  Sets the ADC gain in counts per volt for the voltage conversion
 911:.\Generated_Source\PSoC5/ADC_DelSig.c **** *  functions below. This value is set by default by the reference and
 912:.\Generated_Source\PSoC5/ADC_DelSig.c **** *  input range settings. It should only be used to further calibrate the
 913:.\Generated_Source\PSoC5/ADC_DelSig.c **** *  ADC with a known input or if an external reference is used. This
 914:.\Generated_Source\PSoC5/ADC_DelSig.c **** *  function may also be used to calibrate an entire signal chain, not
 915:.\Generated_Source\PSoC5/ADC_DelSig.c **** *  just the ADC.
 916:.\Generated_Source\PSoC5/ADC_DelSig.c **** *
 917:.\Generated_Source\PSoC5/ADC_DelSig.c **** * Parameters:
 918:.\Generated_Source\PSoC5/ADC_DelSig.c **** *  int32: ADC gain in counts per volt.
 919:.\Generated_Source\PSoC5/ADC_DelSig.c **** *
 920:.\Generated_Source\PSoC5/ADC_DelSig.c **** * Return:
 921:.\Generated_Source\PSoC5/ADC_DelSig.c **** *  None
 922:.\Generated_Source\PSoC5/ADC_DelSig.c **** *
 923:.\Generated_Source\PSoC5/ADC_DelSig.c **** * Global variables:
 924:.\Generated_Source\PSoC5/ADC_DelSig.c **** *  ADC_DelSig_CountsPerVolt:  modified to set the ADC gain in counts
 925:.\Generated_Source\PSoC5/ADC_DelSig.c **** *   per volt.
 926:.\Generated_Source\PSoC5/ADC_DelSig.c **** *
 927:.\Generated_Source\PSoC5/ADC_DelSig.c **** * Side Effects:
 928:.\Generated_Source\PSoC5/ADC_DelSig.c **** *  Affects the ADC_DelSig_CountsTo_Volts,
 929:.\Generated_Source\PSoC5/ADC_DelSig.c **** *  ADC_DelSig_CountsTo_mVolts, ADC_DelSig_CountsTo_uVolts functions
 930:.\Generated_Source\PSoC5/ADC_DelSig.c **** *  supplying the correct conversion between ADC counts and voltage.
 931:.\Generated_Source\PSoC5/ADC_DelSig.c **** *
 932:.\Generated_Source\PSoC5/ADC_DelSig.c **** *******************************************************************************/
 933:.\Generated_Source\PSoC5/ADC_DelSig.c **** void ADC_DelSig_SetGain(int32 adcGain) 
 934:.\Generated_Source\PSoC5/ADC_DelSig.c **** {
 1450              		.loc 1 934 0
 1451              		.cfi_startproc
 1452              		@ args = 0, pretend = 0, frame = 8
 1453              		@ frame_needed = 1, uses_anonymous_args = 0
 1454              		@ link register save eliminated.
 1455 0000 80B4     		push	{r7}
 1456              		.cfi_def_cfa_offset 4
 1457              		.cfi_offset 7, -4
 1458 0002 83B0     		sub	sp, sp, #12
 1459              		.cfi_def_cfa_offset 16
 1460 0004 00AF     		add	r7, sp, #0
ARM GAS  C:\Users\LUKASC~1\AppData\Local\Temp\ccd9ca13.s 			page 43


 1461              		.cfi_def_cfa_register 7
 1462 0006 7860     		str	r0, [r7, #4]
 935:.\Generated_Source\PSoC5/ADC_DelSig.c ****     ADC_DelSig_CountsPerVolt = adcGain;
 1463              		.loc 1 935 0
 1464 0008 034A     		ldr	r2, .L75
 1465 000a 7B68     		ldr	r3, [r7, #4]
 1466 000c 1360     		str	r3, [r2]
 936:.\Generated_Source\PSoC5/ADC_DelSig.c **** }
 1467              		.loc 1 936 0
 1468 000e 0C37     		adds	r7, r7, #12
 1469              		.cfi_def_cfa_offset 4
 1470 0010 BD46     		mov	sp, r7
 1471              		.cfi_def_cfa_register 13
 1472              		@ sp needed
 1473 0012 5DF8047B 		ldr	r7, [sp], #4
 1474              		.cfi_restore 7
 1475              		.cfi_def_cfa_offset 0
 1476 0016 7047     		bx	lr
 1477              	.L76:
 1478              		.align	2
 1479              	.L75:
 1480 0018 00000000 		.word	ADC_DelSig_CountsPerVolt
 1481              		.cfi_endproc
 1482              	.LFE15:
 1483              		.size	ADC_DelSig_SetGain, .-ADC_DelSig_SetGain
 1484              		.section	.text.ADC_DelSig_CountsTo_mVolts,"ax",%progbits
 1485              		.align	2
 1486              		.global	ADC_DelSig_CountsTo_mVolts
 1487              		.thumb
 1488              		.thumb_func
 1489              		.type	ADC_DelSig_CountsTo_mVolts, %function
 1490              	ADC_DelSig_CountsTo_mVolts:
 1491              	.LFB16:
 937:.\Generated_Source\PSoC5/ADC_DelSig.c **** 
 938:.\Generated_Source\PSoC5/ADC_DelSig.c **** 
 939:.\Generated_Source\PSoC5/ADC_DelSig.c **** /*******************************************************************************
 940:.\Generated_Source\PSoC5/ADC_DelSig.c **** * Function Name: ADC_DelSig_CountsTo_mVolts
 941:.\Generated_Source\PSoC5/ADC_DelSig.c **** ********************************************************************************
 942:.\Generated_Source\PSoC5/ADC_DelSig.c **** *
 943:.\Generated_Source\PSoC5/ADC_DelSig.c **** * Summary:
 944:.\Generated_Source\PSoC5/ADC_DelSig.c **** *  Converts the ADC counts output to mVolts as a 16-bit integer. For
 945:.\Generated_Source\PSoC5/ADC_DelSig.c **** *  example, if the ADC measured 0.534 volts, the return value would
 946:.\Generated_Source\PSoC5/ADC_DelSig.c **** *  be 534 mVolts.
 947:.\Generated_Source\PSoC5/ADC_DelSig.c **** *
 948:.\Generated_Source\PSoC5/ADC_DelSig.c **** * Parameters:
 949:.\Generated_Source\PSoC5/ADC_DelSig.c **** *  int32: adcCounts Result from the ADC conversion.
 950:.\Generated_Source\PSoC5/ADC_DelSig.c **** *
 951:.\Generated_Source\PSoC5/ADC_DelSig.c **** * Return:
 952:.\Generated_Source\PSoC5/ADC_DelSig.c **** *  int16:  Result in mVolts
 953:.\Generated_Source\PSoC5/ADC_DelSig.c **** *
 954:.\Generated_Source\PSoC5/ADC_DelSig.c **** * Global variables:
 955:.\Generated_Source\PSoC5/ADC_DelSig.c **** *  ADC_DelSig_CountsPerVolt:  used to convert ADC counts to mVolts.
 956:.\Generated_Source\PSoC5/ADC_DelSig.c **** *  ADC_DelSig_Offset:  Used as the offset while converting ADC counts
 957:.\Generated_Source\PSoC5/ADC_DelSig.c **** *   to mVolts.
 958:.\Generated_Source\PSoC5/ADC_DelSig.c **** *
 959:.\Generated_Source\PSoC5/ADC_DelSig.c **** *******************************************************************************/
 960:.\Generated_Source\PSoC5/ADC_DelSig.c **** int16 ADC_DelSig_CountsTo_mVolts(int32 adcCounts) 
ARM GAS  C:\Users\LUKASC~1\AppData\Local\Temp\ccd9ca13.s 			page 44


 961:.\Generated_Source\PSoC5/ADC_DelSig.c **** {
 1492              		.loc 1 961 0
 1493              		.cfi_startproc
 1494              		@ args = 0, pretend = 0, frame = 16
 1495              		@ frame_needed = 1, uses_anonymous_args = 0
 1496              		@ link register save eliminated.
 1497 0000 80B4     		push	{r7}
 1498              		.cfi_def_cfa_offset 4
 1499              		.cfi_offset 7, -4
 1500 0002 85B0     		sub	sp, sp, #20
 1501              		.cfi_def_cfa_offset 24
 1502 0004 00AF     		add	r7, sp, #0
 1503              		.cfi_def_cfa_register 7
 1504 0006 7860     		str	r0, [r7, #4]
 962:.\Generated_Source\PSoC5/ADC_DelSig.c **** 
 963:.\Generated_Source\PSoC5/ADC_DelSig.c ****     int16 mVolts;
 964:.\Generated_Source\PSoC5/ADC_DelSig.c **** 
 965:.\Generated_Source\PSoC5/ADC_DelSig.c ****     /* Convert adcCounts to the right align if left option selected */
 966:.\Generated_Source\PSoC5/ADC_DelSig.c ****     #if(ADC_DelSig_CFG1_DEC_DIV != 0)
 967:.\Generated_Source\PSoC5/ADC_DelSig.c ****         if(ADC_DelSig_Config == ADC_DelSig_CFG1)
 968:.\Generated_Source\PSoC5/ADC_DelSig.c ****         {
 969:.\Generated_Source\PSoC5/ADC_DelSig.c ****             adcCounts /= ADC_DelSig_CFG1_DEC_DIV;
 970:.\Generated_Source\PSoC5/ADC_DelSig.c ****         }
 971:.\Generated_Source\PSoC5/ADC_DelSig.c ****     #endif /* ADC_DelSig_CFG1_DEC_DIV */
 972:.\Generated_Source\PSoC5/ADC_DelSig.c ****     #if((ADC_DelSig_CFG2_DEC_DIV != 0) && (ADC_DelSig_DEFAULT_NUM_CONFIGS > 1))
 973:.\Generated_Source\PSoC5/ADC_DelSig.c ****         if(ADC_DelSig_Config == ADC_DelSig_CFG2)
 974:.\Generated_Source\PSoC5/ADC_DelSig.c ****         {
 975:.\Generated_Source\PSoC5/ADC_DelSig.c ****             adcCounts /= ADC_DelSig_CFG2_DEC_DIV;
 976:.\Generated_Source\PSoC5/ADC_DelSig.c ****         }
 977:.\Generated_Source\PSoC5/ADC_DelSig.c ****     #endif /* ADC_DelSig_CFG2_DEC_DIV */
 978:.\Generated_Source\PSoC5/ADC_DelSig.c ****     #if((ADC_DelSig_CFG3_DEC_DIV != 0) && (ADC_DelSig_DEFAULT_NUM_CONFIGS > 2))
 979:.\Generated_Source\PSoC5/ADC_DelSig.c ****         if(ADC_DelSig_Config == ADC_DelSig_CFG3)
 980:.\Generated_Source\PSoC5/ADC_DelSig.c ****         {
 981:.\Generated_Source\PSoC5/ADC_DelSig.c ****             adcCounts /= ADC_DelSig_CFG3_DEC_DIV;
 982:.\Generated_Source\PSoC5/ADC_DelSig.c ****         }
 983:.\Generated_Source\PSoC5/ADC_DelSig.c ****     #endif /* ADC_DelSig_CFG2_DEC_DIV */
 984:.\Generated_Source\PSoC5/ADC_DelSig.c ****     #if((ADC_DelSig_CFG4_DEC_DIV != 0) && (ADC_DelSig_DEFAULT_NUM_CONFIGS > 3))
 985:.\Generated_Source\PSoC5/ADC_DelSig.c ****         if(ADC_DelSig_Config == ADC_DelSig_CFG4)
 986:.\Generated_Source\PSoC5/ADC_DelSig.c ****         {
 987:.\Generated_Source\PSoC5/ADC_DelSig.c ****             adcCounts /= ADC_DelSig_CFG4_DEC_DIV;
 988:.\Generated_Source\PSoC5/ADC_DelSig.c ****         }
 989:.\Generated_Source\PSoC5/ADC_DelSig.c ****     #endif /* ADC_DelSig_CFG2_DEC_DIV */
 990:.\Generated_Source\PSoC5/ADC_DelSig.c **** 
 991:.\Generated_Source\PSoC5/ADC_DelSig.c ****     /* Subtract ADC offset */
 992:.\Generated_Source\PSoC5/ADC_DelSig.c ****     adcCounts -= ADC_DelSig_Offset;
 1505              		.loc 1 992 0
 1506 0008 0B4B     		ldr	r3, .L79
 1507 000a 1B68     		ldr	r3, [r3]
 1508 000c 7A68     		ldr	r2, [r7, #4]
 1509 000e D31A     		subs	r3, r2, r3
 1510 0010 7B60     		str	r3, [r7, #4]
 993:.\Generated_Source\PSoC5/ADC_DelSig.c **** 
 994:.\Generated_Source\PSoC5/ADC_DelSig.c ****     mVolts = (int16)(( adcCounts * ADC_DelSig_1MV_COUNTS ) / ADC_DelSig_CountsPerVolt) ;
 1511              		.loc 1 994 0
 1512 0012 7B68     		ldr	r3, [r7, #4]
 1513 0014 4FF47A72 		mov	r2, #1000
 1514 0018 02FB03F2 		mul	r2, r2, r3
ARM GAS  C:\Users\LUKASC~1\AppData\Local\Temp\ccd9ca13.s 			page 45


 1515 001c 074B     		ldr	r3, .L79+4
 1516 001e 1B68     		ldr	r3, [r3]
 1517 0020 92FBF3F3 		sdiv	r3, r2, r3
 1518 0024 FB81     		strh	r3, [r7, #14]	@ movhi
 995:.\Generated_Source\PSoC5/ADC_DelSig.c **** 
 996:.\Generated_Source\PSoC5/ADC_DelSig.c ****     return(mVolts);
 1519              		.loc 1 996 0
 1520 0026 FB89     		ldrh	r3, [r7, #14]
 1521 0028 1BB2     		sxth	r3, r3
 997:.\Generated_Source\PSoC5/ADC_DelSig.c **** }
 1522              		.loc 1 997 0
 1523 002a 1846     		mov	r0, r3
 1524 002c 1437     		adds	r7, r7, #20
 1525              		.cfi_def_cfa_offset 4
 1526 002e BD46     		mov	sp, r7
 1527              		.cfi_def_cfa_register 13
 1528              		@ sp needed
 1529 0030 5DF8047B 		ldr	r7, [sp], #4
 1530              		.cfi_restore 7
 1531              		.cfi_def_cfa_offset 0
 1532 0034 7047     		bx	lr
 1533              	.L80:
 1534 0036 00BF     		.align	2
 1535              	.L79:
 1536 0038 00000000 		.word	ADC_DelSig_Offset
 1537 003c 00000000 		.word	ADC_DelSig_CountsPerVolt
 1538              		.cfi_endproc
 1539              	.LFE16:
 1540              		.size	ADC_DelSig_CountsTo_mVolts, .-ADC_DelSig_CountsTo_mVolts
 1541              		.global	__aeabi_i2f
 1542              		.section	.text.ADC_DelSig_CountsTo_Volts,"ax",%progbits
 1543              		.align	2
 1544              		.global	ADC_DelSig_CountsTo_Volts
 1545              		.thumb
 1546              		.thumb_func
 1547              		.type	ADC_DelSig_CountsTo_Volts, %function
 1548              	ADC_DelSig_CountsTo_Volts:
 1549              	.LFB17:
 998:.\Generated_Source\PSoC5/ADC_DelSig.c **** 
 999:.\Generated_Source\PSoC5/ADC_DelSig.c **** 
1000:.\Generated_Source\PSoC5/ADC_DelSig.c **** /*******************************************************************************
1001:.\Generated_Source\PSoC5/ADC_DelSig.c **** * Function Name: ADC_DelSig_CountsTo_Volts
1002:.\Generated_Source\PSoC5/ADC_DelSig.c **** ********************************************************************************
1003:.\Generated_Source\PSoC5/ADC_DelSig.c **** *
1004:.\Generated_Source\PSoC5/ADC_DelSig.c **** * Summary:
1005:.\Generated_Source\PSoC5/ADC_DelSig.c **** *  Converts the ADC output to Volts as a floating point number. For
1006:.\Generated_Source\PSoC5/ADC_DelSig.c **** *  example, if the ADC measure a voltage of 1.2345 Volts, the
1007:.\Generated_Source\PSoC5/ADC_DelSig.c **** *  returned result would be +1.2345 Volts.
1008:.\Generated_Source\PSoC5/ADC_DelSig.c **** *
1009:.\Generated_Source\PSoC5/ADC_DelSig.c **** * Parameters:
1010:.\Generated_Source\PSoC5/ADC_DelSig.c **** *  int32 adcCounts:  Result from the ADC conversion.
1011:.\Generated_Source\PSoC5/ADC_DelSig.c **** *
1012:.\Generated_Source\PSoC5/ADC_DelSig.c **** * Return:
1013:.\Generated_Source\PSoC5/ADC_DelSig.c **** *  float32: Result in Volts
1014:.\Generated_Source\PSoC5/ADC_DelSig.c **** *
1015:.\Generated_Source\PSoC5/ADC_DelSig.c **** * Global variables:
1016:.\Generated_Source\PSoC5/ADC_DelSig.c **** *  ADC_DelSig_CountsPerVolt:  used to convert to Volts.
ARM GAS  C:\Users\LUKASC~1\AppData\Local\Temp\ccd9ca13.s 			page 46


1017:.\Generated_Source\PSoC5/ADC_DelSig.c **** *  ADC_DelSig_Offset:  Used as the offset while converting ADC counts
1018:.\Generated_Source\PSoC5/ADC_DelSig.c **** *   to Volts.
1019:.\Generated_Source\PSoC5/ADC_DelSig.c **** *
1020:.\Generated_Source\PSoC5/ADC_DelSig.c **** *******************************************************************************/
1021:.\Generated_Source\PSoC5/ADC_DelSig.c **** float32 ADC_DelSig_CountsTo_Volts(int32 adcCounts) 
1022:.\Generated_Source\PSoC5/ADC_DelSig.c **** {
 1550              		.loc 1 1022 0
 1551              		.cfi_startproc
 1552              		@ args = 0, pretend = 0, frame = 16
 1553              		@ frame_needed = 1, uses_anonymous_args = 0
 1554 0000 90B5     		push	{r4, r7, lr}
 1555              		.cfi_def_cfa_offset 12
 1556              		.cfi_offset 4, -12
 1557              		.cfi_offset 7, -8
 1558              		.cfi_offset 14, -4
 1559 0002 85B0     		sub	sp, sp, #20
 1560              		.cfi_def_cfa_offset 32
 1561 0004 00AF     		add	r7, sp, #0
 1562              		.cfi_def_cfa_register 7
 1563 0006 7860     		str	r0, [r7, #4]
1023:.\Generated_Source\PSoC5/ADC_DelSig.c **** 
1024:.\Generated_Source\PSoC5/ADC_DelSig.c ****     float32 Volts;
1025:.\Generated_Source\PSoC5/ADC_DelSig.c **** 
1026:.\Generated_Source\PSoC5/ADC_DelSig.c ****     /* Convert adcCounts to the right align if left option selected */
1027:.\Generated_Source\PSoC5/ADC_DelSig.c ****     #if(ADC_DelSig_CFG1_DEC_DIV != 0)
1028:.\Generated_Source\PSoC5/ADC_DelSig.c ****         if(ADC_DelSig_Config == ADC_DelSig_CFG1)
1029:.\Generated_Source\PSoC5/ADC_DelSig.c ****         {
1030:.\Generated_Source\PSoC5/ADC_DelSig.c ****             adcCounts /= ADC_DelSig_CFG1_DEC_DIV;
1031:.\Generated_Source\PSoC5/ADC_DelSig.c ****         }
1032:.\Generated_Source\PSoC5/ADC_DelSig.c ****     #endif /* ADC_DelSig_CFG1_DEC_DIV */
1033:.\Generated_Source\PSoC5/ADC_DelSig.c ****     #if((ADC_DelSig_CFG2_DEC_DIV != 0) && (ADC_DelSig_DEFAULT_NUM_CONFIGS > 1))
1034:.\Generated_Source\PSoC5/ADC_DelSig.c ****         if(ADC_DelSig_Config == ADC_DelSig_CFG2)
1035:.\Generated_Source\PSoC5/ADC_DelSig.c ****         {
1036:.\Generated_Source\PSoC5/ADC_DelSig.c ****             adcCounts /= ADC_DelSig_CFG2_DEC_DIV;
1037:.\Generated_Source\PSoC5/ADC_DelSig.c ****         }
1038:.\Generated_Source\PSoC5/ADC_DelSig.c ****     #endif /* ADC_DelSig_CFG2_DEC_DIV */
1039:.\Generated_Source\PSoC5/ADC_DelSig.c ****     #if((ADC_DelSig_CFG3_DEC_DIV != 0) && (ADC_DelSig_DEFAULT_NUM_CONFIGS > 2))
1040:.\Generated_Source\PSoC5/ADC_DelSig.c ****         if(ADC_DelSig_Config == ADC_DelSig_CFG3)
1041:.\Generated_Source\PSoC5/ADC_DelSig.c ****         {
1042:.\Generated_Source\PSoC5/ADC_DelSig.c ****             adcCounts /= ADC_DelSig_CFG3_DEC_DIV;
1043:.\Generated_Source\PSoC5/ADC_DelSig.c ****         }
1044:.\Generated_Source\PSoC5/ADC_DelSig.c ****     #endif /* ADC_DelSig_CFG2_DEC_DIV */
1045:.\Generated_Source\PSoC5/ADC_DelSig.c ****     #if((ADC_DelSig_CFG4_DEC_DIV != 0) && (ADC_DelSig_DEFAULT_NUM_CONFIGS > 3))
1046:.\Generated_Source\PSoC5/ADC_DelSig.c ****         if(ADC_DelSig_Config == ADC_DelSig_CFG4)
1047:.\Generated_Source\PSoC5/ADC_DelSig.c ****         {
1048:.\Generated_Source\PSoC5/ADC_DelSig.c ****             adcCounts /= ADC_DelSig_CFG4_DEC_DIV;
1049:.\Generated_Source\PSoC5/ADC_DelSig.c ****         }
1050:.\Generated_Source\PSoC5/ADC_DelSig.c ****     #endif /* ADC_DelSig_CFG2_DEC_DIV */
1051:.\Generated_Source\PSoC5/ADC_DelSig.c **** 
1052:.\Generated_Source\PSoC5/ADC_DelSig.c ****     /* Subtract ADC offset */
1053:.\Generated_Source\PSoC5/ADC_DelSig.c ****     adcCounts -= ADC_DelSig_Offset;
 1564              		.loc 1 1053 0
 1565 0008 0C4B     		ldr	r3, .L83
 1566 000a 1B68     		ldr	r3, [r3]
 1567 000c 7A68     		ldr	r2, [r7, #4]
 1568 000e D31A     		subs	r3, r2, r3
 1569 0010 7B60     		str	r3, [r7, #4]
ARM GAS  C:\Users\LUKASC~1\AppData\Local\Temp\ccd9ca13.s 			page 47


1054:.\Generated_Source\PSoC5/ADC_DelSig.c **** 
1055:.\Generated_Source\PSoC5/ADC_DelSig.c ****     Volts = (float32)adcCounts / (float32)ADC_DelSig_CountsPerVolt;
 1570              		.loc 1 1055 0
 1571 0012 7868     		ldr	r0, [r7, #4]
 1572 0014 FFF7FEFF 		bl	__aeabi_i2f
 1573 0018 0446     		mov	r4, r0
 1574 001a 094B     		ldr	r3, .L83+4
 1575 001c 1B68     		ldr	r3, [r3]
 1576 001e 1846     		mov	r0, r3
 1577 0020 FFF7FEFF 		bl	__aeabi_i2f
 1578 0024 0346     		mov	r3, r0
 1579 0026 2046     		mov	r0, r4
 1580 0028 1946     		mov	r1, r3
 1581 002a FFF7FEFF 		bl	__aeabi_fdiv
 1582 002e 0346     		mov	r3, r0
 1583 0030 FB60     		str	r3, [r7, #12]	@ float
1056:.\Generated_Source\PSoC5/ADC_DelSig.c **** 
1057:.\Generated_Source\PSoC5/ADC_DelSig.c ****     return( Volts );
 1584              		.loc 1 1057 0
 1585 0032 FB68     		ldr	r3, [r7, #12]	@ float
1058:.\Generated_Source\PSoC5/ADC_DelSig.c **** }
 1586              		.loc 1 1058 0
 1587 0034 1846     		mov	r0, r3
 1588 0036 1437     		adds	r7, r7, #20
 1589              		.cfi_def_cfa_offset 12
 1590 0038 BD46     		mov	sp, r7
 1591              		.cfi_def_cfa_register 13
 1592              		@ sp needed
 1593 003a 90BD     		pop	{r4, r7, pc}
 1594              	.L84:
 1595              		.align	2
 1596              	.L83:
 1597 003c 00000000 		.word	ADC_DelSig_Offset
 1598 0040 00000000 		.word	ADC_DelSig_CountsPerVolt
 1599              		.cfi_endproc
 1600              	.LFE17:
 1601              		.size	ADC_DelSig_CountsTo_Volts, .-ADC_DelSig_CountsTo_Volts
 1602              		.section	.text.ADC_DelSig_CountsTo_uVolts,"ax",%progbits
 1603              		.align	2
 1604              		.global	ADC_DelSig_CountsTo_uVolts
 1605              		.thumb
 1606              		.thumb_func
 1607              		.type	ADC_DelSig_CountsTo_uVolts, %function
 1608              	ADC_DelSig_CountsTo_uVolts:
 1609              	.LFB18:
1059:.\Generated_Source\PSoC5/ADC_DelSig.c **** 
1060:.\Generated_Source\PSoC5/ADC_DelSig.c **** 
1061:.\Generated_Source\PSoC5/ADC_DelSig.c **** /*******************************************************************************
1062:.\Generated_Source\PSoC5/ADC_DelSig.c **** * Function Name: ADC_DelSig_CountsTo_uVolts
1063:.\Generated_Source\PSoC5/ADC_DelSig.c **** ********************************************************************************
1064:.\Generated_Source\PSoC5/ADC_DelSig.c **** *
1065:.\Generated_Source\PSoC5/ADC_DelSig.c **** * Summary:
1066:.\Generated_Source\PSoC5/ADC_DelSig.c **** *  Converts the ADC output to uVolts as a 32-bit integer. For example,
1067:.\Generated_Source\PSoC5/ADC_DelSig.c **** *  if the ADC measured -0.02345 Volts, the return value would be -23450 uVolts.
1068:.\Generated_Source\PSoC5/ADC_DelSig.c **** *
1069:.\Generated_Source\PSoC5/ADC_DelSig.c **** * Parameters:
1070:.\Generated_Source\PSoC5/ADC_DelSig.c **** *  int32 adcCounts: Result from the ADC conversion.
ARM GAS  C:\Users\LUKASC~1\AppData\Local\Temp\ccd9ca13.s 			page 48


1071:.\Generated_Source\PSoC5/ADC_DelSig.c **** *
1072:.\Generated_Source\PSoC5/ADC_DelSig.c **** * Return:
1073:.\Generated_Source\PSoC5/ADC_DelSig.c **** *  int32:  Result in uVolts
1074:.\Generated_Source\PSoC5/ADC_DelSig.c **** *
1075:.\Generated_Source\PSoC5/ADC_DelSig.c **** * Global variables:
1076:.\Generated_Source\PSoC5/ADC_DelSig.c **** *  ADC_DelSig_CountsPerVolt:  used to convert ADC counts to mVolts.
1077:.\Generated_Source\PSoC5/ADC_DelSig.c **** *  ADC_DelSig_Offset:  Used as the offset while converting ADC counts
1078:.\Generated_Source\PSoC5/ADC_DelSig.c **** *   to mVolts.
1079:.\Generated_Source\PSoC5/ADC_DelSig.c **** *
1080:.\Generated_Source\PSoC5/ADC_DelSig.c **** * Theory:
1081:.\Generated_Source\PSoC5/ADC_DelSig.c **** *  Care must be taken to not exceed the maximum value for a 31 bit signed
1082:.\Generated_Source\PSoC5/ADC_DelSig.c **** *  number in the conversion to uVolts and at the same time not lose resolution.
1083:.\Generated_Source\PSoC5/ADC_DelSig.c **** *
1084:.\Generated_Source\PSoC5/ADC_DelSig.c **** *  uVolts = ((A * adcCounts) / ((int32)ADC_DelSig_CountsPerVolt / B));
1085:.\Generated_Source\PSoC5/ADC_DelSig.c **** *
1086:.\Generated_Source\PSoC5/ADC_DelSig.c **** *******************************************************************************/
1087:.\Generated_Source\PSoC5/ADC_DelSig.c **** int32 ADC_DelSig_CountsTo_uVolts(int32 adcCounts) 
1088:.\Generated_Source\PSoC5/ADC_DelSig.c **** {
 1610              		.loc 1 1088 0
 1611              		.cfi_startproc
 1612              		@ args = 0, pretend = 0, frame = 24
 1613              		@ frame_needed = 1, uses_anonymous_args = 0
 1614              		@ link register save eliminated.
 1615 0000 80B4     		push	{r7}
 1616              		.cfi_def_cfa_offset 4
 1617              		.cfi_offset 7, -4
 1618 0002 87B0     		sub	sp, sp, #28
 1619              		.cfi_def_cfa_offset 32
 1620 0004 00AF     		add	r7, sp, #0
 1621              		.cfi_def_cfa_register 7
 1622 0006 7860     		str	r0, [r7, #4]
1089:.\Generated_Source\PSoC5/ADC_DelSig.c **** 
1090:.\Generated_Source\PSoC5/ADC_DelSig.c ****     int32 uVolts;
1091:.\Generated_Source\PSoC5/ADC_DelSig.c ****     int32 coefA;
1092:.\Generated_Source\PSoC5/ADC_DelSig.c ****     int32 coefB;
1093:.\Generated_Source\PSoC5/ADC_DelSig.c ****     uint8 resolution;
1094:.\Generated_Source\PSoC5/ADC_DelSig.c **** 
1095:.\Generated_Source\PSoC5/ADC_DelSig.c ****     /* Set the resolution based on the configuration */
1096:.\Generated_Source\PSoC5/ADC_DelSig.c ****     /* Convert adcCounts to the right align if left option selected */
1097:.\Generated_Source\PSoC5/ADC_DelSig.c ****     if (ADC_DelSig_Config == ADC_DelSig_CFG1)
 1623              		.loc 1 1097 0
 1624 0008 224B     		ldr	r3, .L95
 1625 000a 1B78     		ldrb	r3, [r3]
 1626 000c DBB2     		uxtb	r3, r3
 1627 000e 012B     		cmp	r3, #1
 1628 0010 02D1     		bne	.L86
1098:.\Generated_Source\PSoC5/ADC_DelSig.c ****     {
1099:.\Generated_Source\PSoC5/ADC_DelSig.c ****         resolution = ADC_DelSig_CFG1_RESOLUTION;
 1629              		.loc 1 1099 0
 1630 0012 1023     		movs	r3, #16
 1631 0014 FB73     		strb	r3, [r7, #15]
 1632 0016 11E0     		b	.L87
 1633              	.L86:
1100:.\Generated_Source\PSoC5/ADC_DelSig.c ****         #if(ADC_DelSig_CFG1_DEC_DIV != 0)
1101:.\Generated_Source\PSoC5/ADC_DelSig.c ****             adcCounts /= ADC_DelSig_CFG1_DEC_DIV;
1102:.\Generated_Source\PSoC5/ADC_DelSig.c ****         #endif /* ADC_DelSig_CFG1_DEC_DIV */
1103:.\Generated_Source\PSoC5/ADC_DelSig.c ****     }
ARM GAS  C:\Users\LUKASC~1\AppData\Local\Temp\ccd9ca13.s 			page 49


1104:.\Generated_Source\PSoC5/ADC_DelSig.c ****     else if (ADC_DelSig_Config == ADC_DelSig_CFG2)
 1634              		.loc 1 1104 0
 1635 0018 1E4B     		ldr	r3, .L95
 1636 001a 1B78     		ldrb	r3, [r3]
 1637 001c DBB2     		uxtb	r3, r3
 1638 001e 022B     		cmp	r3, #2
 1639 0020 02D1     		bne	.L88
1105:.\Generated_Source\PSoC5/ADC_DelSig.c ****     {
1106:.\Generated_Source\PSoC5/ADC_DelSig.c ****         resolution = ADC_DelSig_CFG2_RESOLUTION;
 1640              		.loc 1 1106 0
 1641 0022 1023     		movs	r3, #16
 1642 0024 FB73     		strb	r3, [r7, #15]
 1643 0026 09E0     		b	.L87
 1644              	.L88:
1107:.\Generated_Source\PSoC5/ADC_DelSig.c ****         #if(ADC_DelSig_CFG2_DEC_DIV != 0)
1108:.\Generated_Source\PSoC5/ADC_DelSig.c ****             adcCounts /= ADC_DelSig_CFG2_DEC_DIV;
1109:.\Generated_Source\PSoC5/ADC_DelSig.c ****         #endif /* ADC_DelSig_CFG2_DEC_DIV */
1110:.\Generated_Source\PSoC5/ADC_DelSig.c ****     }
1111:.\Generated_Source\PSoC5/ADC_DelSig.c ****     else if (ADC_DelSig_Config == ADC_DelSig_CFG3)
 1645              		.loc 1 1111 0
 1646 0028 1A4B     		ldr	r3, .L95
 1647 002a 1B78     		ldrb	r3, [r3]
 1648 002c DBB2     		uxtb	r3, r3
 1649 002e 032B     		cmp	r3, #3
 1650 0030 02D1     		bne	.L89
1112:.\Generated_Source\PSoC5/ADC_DelSig.c ****     {
1113:.\Generated_Source\PSoC5/ADC_DelSig.c ****         resolution = ADC_DelSig_CFG3_RESOLUTION;
 1651              		.loc 1 1113 0
 1652 0032 1023     		movs	r3, #16
 1653 0034 FB73     		strb	r3, [r7, #15]
 1654 0036 01E0     		b	.L87
 1655              	.L89:
1114:.\Generated_Source\PSoC5/ADC_DelSig.c ****         #if(ADC_DelSig_CFG3_DEC_DIV != 0)
1115:.\Generated_Source\PSoC5/ADC_DelSig.c ****             adcCounts /= ADC_DelSig_CFG3_DEC_DIV;
1116:.\Generated_Source\PSoC5/ADC_DelSig.c ****         #endif /* ADC_DelSig_CFG3_DEC_DIV */
1117:.\Generated_Source\PSoC5/ADC_DelSig.c ****     }
1118:.\Generated_Source\PSoC5/ADC_DelSig.c ****     else
1119:.\Generated_Source\PSoC5/ADC_DelSig.c ****     {
1120:.\Generated_Source\PSoC5/ADC_DelSig.c ****         resolution = ADC_DelSig_CFG4_RESOLUTION;
 1656              		.loc 1 1120 0
 1657 0038 1023     		movs	r3, #16
 1658 003a FB73     		strb	r3, [r7, #15]
 1659              	.L87:
1121:.\Generated_Source\PSoC5/ADC_DelSig.c ****         #if(ADC_DelSig_CFG4_DEC_DIV != 0)
1122:.\Generated_Source\PSoC5/ADC_DelSig.c ****             adcCounts /= ADC_DelSig_CFG4_DEC_DIV;
1123:.\Generated_Source\PSoC5/ADC_DelSig.c ****         #endif /* ADC_DelSig_CFG4_DEC_DIV */
1124:.\Generated_Source\PSoC5/ADC_DelSig.c ****     }
1125:.\Generated_Source\PSoC5/ADC_DelSig.c **** 
1126:.\Generated_Source\PSoC5/ADC_DelSig.c ****     switch (resolution)
 1660              		.loc 1 1126 0
 1661 003c FB7B     		ldrb	r3, [r7, #15]	@ zero_extendqisi2
 1662 003e 102B     		cmp	r3, #16
 1663 0040 05D1     		bne	.L94
1127:.\Generated_Source\PSoC5/ADC_DelSig.c ****     {
1128:.\Generated_Source\PSoC5/ADC_DelSig.c ****         #if( (ADC_DelSig_CFG1_RESOLUTION == ADC_DelSig__BITS_12) || \
1129:.\Generated_Source\PSoC5/ADC_DelSig.c ****              (ADC_DelSig_CFG2_RESOLUTION == ADC_DelSig__BITS_12) || \
1130:.\Generated_Source\PSoC5/ADC_DelSig.c ****              (ADC_DelSig_CFG3_RESOLUTION == ADC_DelSig__BITS_12) || \
ARM GAS  C:\Users\LUKASC~1\AppData\Local\Temp\ccd9ca13.s 			page 50


1131:.\Generated_Source\PSoC5/ADC_DelSig.c ****              (ADC_DelSig_CFG4_RESOLUTION == ADC_DelSig__BITS_12) )
1132:.\Generated_Source\PSoC5/ADC_DelSig.c ****             case (uint8)ADC_DelSig__BITS_12:
1133:.\Generated_Source\PSoC5/ADC_DelSig.c ****                 coefA = ADC_DelSig_1UV_COUNTS / ADC_DelSig_DIVISOR_2;
1134:.\Generated_Source\PSoC5/ADC_DelSig.c ****                 coefB = ADC_DelSig_DIVISOR_2;
1135:.\Generated_Source\PSoC5/ADC_DelSig.c ****                 break;
1136:.\Generated_Source\PSoC5/ADC_DelSig.c ****         #endif /* ADC_DelSig__BITS_12 */    
1137:.\Generated_Source\PSoC5/ADC_DelSig.c ****         #if( (ADC_DelSig_CFG1_RESOLUTION == ADC_DelSig__BITS_13) || \
1138:.\Generated_Source\PSoC5/ADC_DelSig.c ****              (ADC_DelSig_CFG2_RESOLUTION == ADC_DelSig__BITS_13) || \
1139:.\Generated_Source\PSoC5/ADC_DelSig.c ****              (ADC_DelSig_CFG3_RESOLUTION == ADC_DelSig__BITS_13) || \
1140:.\Generated_Source\PSoC5/ADC_DelSig.c ****              (ADC_DelSig_CFG4_RESOLUTION == ADC_DelSig__BITS_13) )
1141:.\Generated_Source\PSoC5/ADC_DelSig.c ****             case (uint8)ADC_DelSig__BITS_13:
1142:.\Generated_Source\PSoC5/ADC_DelSig.c ****                 coefA = ADC_DelSig_1UV_COUNTS / ADC_DelSig_DIVISOR_4;
1143:.\Generated_Source\PSoC5/ADC_DelSig.c ****                 coefB = ADC_DelSig_DIVISOR_4;
1144:.\Generated_Source\PSoC5/ADC_DelSig.c ****                 break;
1145:.\Generated_Source\PSoC5/ADC_DelSig.c ****         #endif /* ADC_DelSig__BITS_13 */    
1146:.\Generated_Source\PSoC5/ADC_DelSig.c ****         #if( (ADC_DelSig_CFG1_RESOLUTION == ADC_DelSig__BITS_14) || \
1147:.\Generated_Source\PSoC5/ADC_DelSig.c ****              (ADC_DelSig_CFG2_RESOLUTION == ADC_DelSig__BITS_14) || \
1148:.\Generated_Source\PSoC5/ADC_DelSig.c ****              (ADC_DelSig_CFG3_RESOLUTION == ADC_DelSig__BITS_14) || \
1149:.\Generated_Source\PSoC5/ADC_DelSig.c ****              (ADC_DelSig_CFG4_RESOLUTION == ADC_DelSig__BITS_14) )
1150:.\Generated_Source\PSoC5/ADC_DelSig.c ****             case (uint8)ADC_DelSig__BITS_14:
1151:.\Generated_Source\PSoC5/ADC_DelSig.c ****                 coefA = ADC_DelSig_1UV_COUNTS / ADC_DelSig_DIVISOR_8;
1152:.\Generated_Source\PSoC5/ADC_DelSig.c ****                 coefB = ADC_DelSig_DIVISOR_8;
1153:.\Generated_Source\PSoC5/ADC_DelSig.c ****                 break;
1154:.\Generated_Source\PSoC5/ADC_DelSig.c ****         #endif /* ADC_DelSig__BITS_14 */    
1155:.\Generated_Source\PSoC5/ADC_DelSig.c ****         #if( (ADC_DelSig_CFG1_RESOLUTION == ADC_DelSig__BITS_15) || \
1156:.\Generated_Source\PSoC5/ADC_DelSig.c ****              (ADC_DelSig_CFG2_RESOLUTION == ADC_DelSig__BITS_15) || \
1157:.\Generated_Source\PSoC5/ADC_DelSig.c ****              (ADC_DelSig_CFG3_RESOLUTION == ADC_DelSig__BITS_15) || \
1158:.\Generated_Source\PSoC5/ADC_DelSig.c ****              (ADC_DelSig_CFG4_RESOLUTION == ADC_DelSig__BITS_15) )
1159:.\Generated_Source\PSoC5/ADC_DelSig.c ****             case (uint8)ADC_DelSig__BITS_15:
1160:.\Generated_Source\PSoC5/ADC_DelSig.c ****                 coefA = ADC_DelSig_1UV_COUNTS / ADC_DelSig_DIVISOR_16;
1161:.\Generated_Source\PSoC5/ADC_DelSig.c ****                 coefB = ADC_DelSig_DIVISOR_16;
1162:.\Generated_Source\PSoC5/ADC_DelSig.c ****                 break;
1163:.\Generated_Source\PSoC5/ADC_DelSig.c ****         #endif /* ADC_DelSig__BITS_15 */    
1164:.\Generated_Source\PSoC5/ADC_DelSig.c ****         #if( (ADC_DelSig_CFG1_RESOLUTION == ADC_DelSig__BITS_16) || \
1165:.\Generated_Source\PSoC5/ADC_DelSig.c ****              (ADC_DelSig_CFG2_RESOLUTION == ADC_DelSig__BITS_16) || \
1166:.\Generated_Source\PSoC5/ADC_DelSig.c ****              (ADC_DelSig_CFG3_RESOLUTION == ADC_DelSig__BITS_16) || \
1167:.\Generated_Source\PSoC5/ADC_DelSig.c ****              (ADC_DelSig_CFG4_RESOLUTION == ADC_DelSig__BITS_16) )
1168:.\Generated_Source\PSoC5/ADC_DelSig.c ****             case (uint8)ADC_DelSig__BITS_16:
1169:.\Generated_Source\PSoC5/ADC_DelSig.c ****                 coefA = ADC_DelSig_1UV_COUNTS / ADC_DelSig_DIVISOR_32;
 1664              		.loc 1 1169 0
 1665 0042 47F61223 		movw	r3, #31250
 1666 0046 7B61     		str	r3, [r7, #20]
1170:.\Generated_Source\PSoC5/ADC_DelSig.c ****                 coefB = ADC_DelSig_DIVISOR_32;
 1667              		.loc 1 1170 0
 1668 0048 2023     		movs	r3, #32
 1669 004a 3B61     		str	r3, [r7, #16]
1171:.\Generated_Source\PSoC5/ADC_DelSig.c ****                 break;
 1670              		.loc 1 1171 0
 1671 004c 04E0     		b	.L92
 1672              	.L94:
1172:.\Generated_Source\PSoC5/ADC_DelSig.c ****         #endif /* ADC_DelSig__BITS_16 */    
1173:.\Generated_Source\PSoC5/ADC_DelSig.c ****         #if( (ADC_DelSig_CFG1_RESOLUTION == ADC_DelSig__BITS_17) || \
1174:.\Generated_Source\PSoC5/ADC_DelSig.c ****              (ADC_DelSig_CFG2_RESOLUTION == ADC_DelSig__BITS_17) || \
1175:.\Generated_Source\PSoC5/ADC_DelSig.c ****              (ADC_DelSig_CFG3_RESOLUTION == ADC_DelSig__BITS_17) || \
1176:.\Generated_Source\PSoC5/ADC_DelSig.c ****              (ADC_DelSig_CFG4_RESOLUTION == ADC_DelSig__BITS_17) )
1177:.\Generated_Source\PSoC5/ADC_DelSig.c ****             case (uint8)ADC_DelSig__BITS_17:
1178:.\Generated_Source\PSoC5/ADC_DelSig.c ****                 coefA = ADC_DelSig_1UV_COUNTS / ADC_DelSig_DIVISOR_64;
ARM GAS  C:\Users\LUKASC~1\AppData\Local\Temp\ccd9ca13.s 			page 51


1179:.\Generated_Source\PSoC5/ADC_DelSig.c ****                 coefB = ADC_DelSig_DIVISOR_64;
1180:.\Generated_Source\PSoC5/ADC_DelSig.c ****                 break;
1181:.\Generated_Source\PSoC5/ADC_DelSig.c ****         #endif /* ADC_DelSig__BITS_17 */    
1182:.\Generated_Source\PSoC5/ADC_DelSig.c ****         #if( (ADC_DelSig_CFG1_RESOLUTION == ADC_DelSig__BITS_18) || \
1183:.\Generated_Source\PSoC5/ADC_DelSig.c ****              (ADC_DelSig_CFG2_RESOLUTION == ADC_DelSig__BITS_18) || \
1184:.\Generated_Source\PSoC5/ADC_DelSig.c ****              (ADC_DelSig_CFG3_RESOLUTION == ADC_DelSig__BITS_18) || \
1185:.\Generated_Source\PSoC5/ADC_DelSig.c ****              (ADC_DelSig_CFG4_RESOLUTION == ADC_DelSig__BITS_18) )
1186:.\Generated_Source\PSoC5/ADC_DelSig.c ****             case (uint8)ADC_DelSig__BITS_18:
1187:.\Generated_Source\PSoC5/ADC_DelSig.c ****                 coefA = ADC_DelSig_1UV_COUNTS / ADC_DelSig_DIVISOR_125;
1188:.\Generated_Source\PSoC5/ADC_DelSig.c ****                 coefB = ADC_DelSig_DIVISOR_125;
1189:.\Generated_Source\PSoC5/ADC_DelSig.c ****                 break;
1190:.\Generated_Source\PSoC5/ADC_DelSig.c ****         #endif /* ADC_DelSig__BITS_18 */    
1191:.\Generated_Source\PSoC5/ADC_DelSig.c ****         #if( (ADC_DelSig_CFG1_RESOLUTION == ADC_DelSig__BITS_19) || \
1192:.\Generated_Source\PSoC5/ADC_DelSig.c ****              (ADC_DelSig_CFG2_RESOLUTION == ADC_DelSig__BITS_19) || \
1193:.\Generated_Source\PSoC5/ADC_DelSig.c ****              (ADC_DelSig_CFG3_RESOLUTION == ADC_DelSig__BITS_19) || \
1194:.\Generated_Source\PSoC5/ADC_DelSig.c ****              (ADC_DelSig_CFG4_RESOLUTION == ADC_DelSig__BITS_19) )
1195:.\Generated_Source\PSoC5/ADC_DelSig.c ****             case (uint8)ADC_DelSig__BITS_19:
1196:.\Generated_Source\PSoC5/ADC_DelSig.c ****                 coefA = ADC_DelSig_1UV_COUNTS / ADC_DelSig_DIVISOR_250;
1197:.\Generated_Source\PSoC5/ADC_DelSig.c ****                 coefB = ADC_DelSig_DIVISOR_250;
1198:.\Generated_Source\PSoC5/ADC_DelSig.c ****                 break;
1199:.\Generated_Source\PSoC5/ADC_DelSig.c ****         #endif /* ADC_DelSig__BITS_19 */    
1200:.\Generated_Source\PSoC5/ADC_DelSig.c ****         #if( (ADC_DelSig_CFG1_RESOLUTION == ADC_DelSig__BITS_20) || \
1201:.\Generated_Source\PSoC5/ADC_DelSig.c ****              (ADC_DelSig_CFG2_RESOLUTION == ADC_DelSig__BITS_20) || \
1202:.\Generated_Source\PSoC5/ADC_DelSig.c ****              (ADC_DelSig_CFG3_RESOLUTION == ADC_DelSig__BITS_20) || \
1203:.\Generated_Source\PSoC5/ADC_DelSig.c ****              (ADC_DelSig_CFG4_RESOLUTION == ADC_DelSig__BITS_20) )
1204:.\Generated_Source\PSoC5/ADC_DelSig.c ****             case (uint8)ADC_DelSig__BITS_20:
1205:.\Generated_Source\PSoC5/ADC_DelSig.c ****                 coefA = ADC_DelSig_1UV_COUNTS / ADC_DelSig_DIVISOR_500;
1206:.\Generated_Source\PSoC5/ADC_DelSig.c ****                 coefB = ADC_DelSig_DIVISOR_500;
1207:.\Generated_Source\PSoC5/ADC_DelSig.c ****                 break;
1208:.\Generated_Source\PSoC5/ADC_DelSig.c ****         #endif /* ADC_DelSig__BITS_20 */    
1209:.\Generated_Source\PSoC5/ADC_DelSig.c ****         default:    /* resolution < 12 */
1210:.\Generated_Source\PSoC5/ADC_DelSig.c ****             /* 11 bits ADC + 2^20(1048576) = 31 bits */
1211:.\Generated_Source\PSoC5/ADC_DelSig.c ****             coefA = ADC_DelSig_1UV_COUNTS;
 1673              		.loc 1 1211 0
 1674 004e 124B     		ldr	r3, .L95+4
 1675 0050 7B61     		str	r3, [r7, #20]
1212:.\Generated_Source\PSoC5/ADC_DelSig.c ****             coefB = ADC_DelSig_DIVISOR_1;
 1676              		.loc 1 1212 0
 1677 0052 0123     		movs	r3, #1
 1678 0054 3B61     		str	r3, [r7, #16]
1213:.\Generated_Source\PSoC5/ADC_DelSig.c ****             break;
 1679              		.loc 1 1213 0
 1680 0056 00BF     		nop
 1681              	.L92:
1214:.\Generated_Source\PSoC5/ADC_DelSig.c ****     }
1215:.\Generated_Source\PSoC5/ADC_DelSig.c ****     coefB = ADC_DelSig_CountsPerVolt / coefB;
 1682              		.loc 1 1215 0
 1683 0058 104B     		ldr	r3, .L95+8
 1684 005a 1A68     		ldr	r2, [r3]
 1685 005c 3B69     		ldr	r3, [r7, #16]
 1686 005e 92FBF3F3 		sdiv	r3, r2, r3
 1687 0062 3B61     		str	r3, [r7, #16]
1216:.\Generated_Source\PSoC5/ADC_DelSig.c ****     uVolts = ((coefA * adcCounts) / coefB) - ((coefA * ADC_DelSig_Offset) / coefB);
 1688              		.loc 1 1216 0
 1689 0064 7B69     		ldr	r3, [r7, #20]
 1690 0066 7A68     		ldr	r2, [r7, #4]
 1691 0068 02FB03F2 		mul	r2, r2, r3
ARM GAS  C:\Users\LUKASC~1\AppData\Local\Temp\ccd9ca13.s 			page 52


 1692 006c 3B69     		ldr	r3, [r7, #16]
 1693 006e 92FBF3F2 		sdiv	r2, r2, r3
 1694 0072 0B4B     		ldr	r3, .L95+12
 1695 0074 1B68     		ldr	r3, [r3]
 1696 0076 7969     		ldr	r1, [r7, #20]
 1697 0078 01FB03F1 		mul	r1, r1, r3
 1698 007c 3B69     		ldr	r3, [r7, #16]
 1699 007e 91FBF3F3 		sdiv	r3, r1, r3
 1700 0082 D31A     		subs	r3, r2, r3
 1701 0084 BB60     		str	r3, [r7, #8]
1217:.\Generated_Source\PSoC5/ADC_DelSig.c **** 
1218:.\Generated_Source\PSoC5/ADC_DelSig.c ****     return( uVolts );
 1702              		.loc 1 1218 0
 1703 0086 BB68     		ldr	r3, [r7, #8]
1219:.\Generated_Source\PSoC5/ADC_DelSig.c **** }
 1704              		.loc 1 1219 0
 1705 0088 1846     		mov	r0, r3
 1706 008a 1C37     		adds	r7, r7, #28
 1707              		.cfi_def_cfa_offset 4
 1708 008c BD46     		mov	sp, r7
 1709              		.cfi_def_cfa_register 13
 1710              		@ sp needed
 1711 008e 5DF8047B 		ldr	r7, [sp], #4
 1712              		.cfi_restore 7
 1713              		.cfi_def_cfa_offset 0
 1714 0092 7047     		bx	lr
 1715              	.L96:
 1716              		.align	2
 1717              	.L95:
 1718 0094 00000000 		.word	ADC_DelSig_Config
 1719 0098 40420F00 		.word	1000000
 1720 009c 00000000 		.word	ADC_DelSig_CountsPerVolt
 1721 00a0 00000000 		.word	ADC_DelSig_Offset
 1722              		.cfi_endproc
 1723              	.LFE18:
 1724              		.size	ADC_DelSig_CountsTo_uVolts, .-ADC_DelSig_CountsTo_uVolts
 1725              		.section	.text.ADC_DelSig_InitConfig,"ax",%progbits
 1726              		.align	2
 1727              		.thumb
 1728              		.thumb_func
 1729              		.type	ADC_DelSig_InitConfig, %function
 1730              	ADC_DelSig_InitConfig:
 1731              	.LFB19:
1220:.\Generated_Source\PSoC5/ADC_DelSig.c **** 
1221:.\Generated_Source\PSoC5/ADC_DelSig.c **** 
1222:.\Generated_Source\PSoC5/ADC_DelSig.c **** /*******************************************************************************
1223:.\Generated_Source\PSoC5/ADC_DelSig.c **** * Function Name: ADC_DelSig_InitConfig(uint8 config)
1224:.\Generated_Source\PSoC5/ADC_DelSig.c **** ********************************************************************************
1225:.\Generated_Source\PSoC5/ADC_DelSig.c **** *
1226:.\Generated_Source\PSoC5/ADC_DelSig.c **** * Summary:
1227:.\Generated_Source\PSoC5/ADC_DelSig.c **** *  Initializes all registers based on customizer settings
1228:.\Generated_Source\PSoC5/ADC_DelSig.c **** *
1229:.\Generated_Source\PSoC5/ADC_DelSig.c **** * Parameters:
1230:.\Generated_Source\PSoC5/ADC_DelSig.c **** *   void
1231:.\Generated_Source\PSoC5/ADC_DelSig.c **** *
1232:.\Generated_Source\PSoC5/ADC_DelSig.c **** * Return:
1233:.\Generated_Source\PSoC5/ADC_DelSig.c **** *  None
ARM GAS  C:\Users\LUKASC~1\AppData\Local\Temp\ccd9ca13.s 			page 53


1234:.\Generated_Source\PSoC5/ADC_DelSig.c **** *
1235:.\Generated_Source\PSoC5/ADC_DelSig.c **** * Global variables:
1236:.\Generated_Source\PSoC5/ADC_DelSig.c **** *  ADC_DelSig_CountsPerVolt:  Used to set the default counts per volt.
1237:.\Generated_Source\PSoC5/ADC_DelSig.c **** *
1238:.\Generated_Source\PSoC5/ADC_DelSig.c **** * Side Effects: Rewrites the coherency set by ADC_DelSig_SetCoherency()
1239:.\Generated_Source\PSoC5/ADC_DelSig.c **** *   API to the default value.
1240:.\Generated_Source\PSoC5/ADC_DelSig.c **** *
1241:.\Generated_Source\PSoC5/ADC_DelSig.c **** *******************************************************************************/
1242:.\Generated_Source\PSoC5/ADC_DelSig.c **** static void ADC_DelSig_InitConfig(uint8 config) 
1243:.\Generated_Source\PSoC5/ADC_DelSig.c **** {
 1732              		.loc 1 1243 0
 1733              		.cfi_startproc
 1734              		@ args = 0, pretend = 0, frame = 8
 1735              		@ frame_needed = 1, uses_anonymous_args = 0
 1736 0000 80B5     		push	{r7, lr}
 1737              		.cfi_def_cfa_offset 8
 1738              		.cfi_offset 7, -8
 1739              		.cfi_offset 14, -4
 1740 0002 82B0     		sub	sp, sp, #8
 1741              		.cfi_def_cfa_offset 16
 1742 0004 00AF     		add	r7, sp, #0
 1743              		.cfi_def_cfa_register 7
 1744 0006 0346     		mov	r3, r0
 1745 0008 FB71     		strb	r3, [r7, #7]
1244:.\Generated_Source\PSoC5/ADC_DelSig.c ****     ADC_DelSig_stopConversion = 0u;
 1746              		.loc 1 1244 0
 1747 000a 364B     		ldr	r3, .L99
 1748 000c 0022     		movs	r2, #0
 1749 000e 1A70     		strb	r2, [r3]
1245:.\Generated_Source\PSoC5/ADC_DelSig.c **** 
1246:.\Generated_Source\PSoC5/ADC_DelSig.c ****     if (config == 1u)
 1750              		.loc 1 1246 0
 1751 0010 FB79     		ldrb	r3, [r7, #7]	@ zero_extendqisi2
 1752 0012 012B     		cmp	r3, #1
 1753 0014 63D1     		bne	.L97
1247:.\Generated_Source\PSoC5/ADC_DelSig.c ****     {
1248:.\Generated_Source\PSoC5/ADC_DelSig.c ****         /* Default Config */
1249:.\Generated_Source\PSoC5/ADC_DelSig.c ****         ADC_DelSig_DEC_CR_REG      = ADC_DelSig_CFG1_DEC_CR;
 1754              		.loc 1 1249 0
 1755 0016 344B     		ldr	r3, .L99+4
 1756 0018 3422     		movs	r2, #52
 1757 001a 1A70     		strb	r2, [r3]
1250:.\Generated_Source\PSoC5/ADC_DelSig.c ****         ADC_DelSig_DEC_SHIFT1_REG  = ADC_DelSig_CFG1_DEC_SHIFT1;
 1758              		.loc 1 1250 0
 1759 001c 334B     		ldr	r3, .L99+8
 1760 001e 0422     		movs	r2, #4
 1761 0020 1A70     		strb	r2, [r3]
1251:.\Generated_Source\PSoC5/ADC_DelSig.c ****         ADC_DelSig_DEC_SHIFT2_REG  = ADC_DelSig_CFG1_DEC_SHIFT2;
 1762              		.loc 1 1251 0
 1763 0022 334B     		ldr	r3, .L99+12
 1764 0024 0722     		movs	r2, #7
 1765 0026 1A70     		strb	r2, [r3]
1252:.\Generated_Source\PSoC5/ADC_DelSig.c ****         ADC_DelSig_DEC_DR2_REG     = ADC_DelSig_CFG1_DEC_DR2;
 1766              		.loc 1 1252 0
 1767 0028 324B     		ldr	r3, .L99+16
 1768 002a 0022     		movs	r2, #0
 1769 002c 1A70     		strb	r2, [r3]
ARM GAS  C:\Users\LUKASC~1\AppData\Local\Temp\ccd9ca13.s 			page 54


1253:.\Generated_Source\PSoC5/ADC_DelSig.c ****         ADC_DelSig_DEC_DR2H_REG    = ADC_DelSig_CFG1_DEC_DR2H;
 1770              		.loc 1 1253 0
 1771 002e 324B     		ldr	r3, .L99+20
 1772 0030 0022     		movs	r2, #0
 1773 0032 1A70     		strb	r2, [r3]
1254:.\Generated_Source\PSoC5/ADC_DelSig.c ****         ADC_DelSig_DEC_DR1_REG     = ADC_DelSig_CFG1_DEC_DR1;
 1774              		.loc 1 1254 0
 1775 0034 314B     		ldr	r3, .L99+24
 1776 0036 3F22     		movs	r2, #63
 1777 0038 1A70     		strb	r2, [r3]
1255:.\Generated_Source\PSoC5/ADC_DelSig.c ****         ADC_DelSig_DEC_OCOR_REG    = ADC_DelSig_CFG1_DEC_OCOR;
 1778              		.loc 1 1255 0
 1779 003a 314B     		ldr	r3, .L99+28
 1780 003c 0022     		movs	r2, #0
 1781 003e 1A70     		strb	r2, [r3]
1256:.\Generated_Source\PSoC5/ADC_DelSig.c ****         ADC_DelSig_DEC_OCORM_REG   = ADC_DelSig_CFG1_DEC_OCORM;
 1782              		.loc 1 1256 0
 1783 0040 304B     		ldr	r3, .L99+32
 1784 0042 0022     		movs	r2, #0
 1785 0044 1A70     		strb	r2, [r3]
1257:.\Generated_Source\PSoC5/ADC_DelSig.c ****         ADC_DelSig_DEC_OCORH_REG   = ADC_DelSig_CFG1_DEC_OCORH;
 1786              		.loc 1 1257 0
 1787 0046 304B     		ldr	r3, .L99+36
 1788 0048 0022     		movs	r2, #0
 1789 004a 1A70     		strb	r2, [r3]
1258:.\Generated_Source\PSoC5/ADC_DelSig.c ****         ADC_DelSig_DEC_COHER_REG   = ADC_DelSig_CFG1_DEC_COHER;
 1790              		.loc 1 1258 0
 1791 004c 2F4B     		ldr	r3, .L99+40
 1792 004e 0122     		movs	r2, #1
 1793 0050 1A70     		strb	r2, [r3]
1259:.\Generated_Source\PSoC5/ADC_DelSig.c **** 
1260:.\Generated_Source\PSoC5/ADC_DelSig.c ****         ADC_DelSig_DSM_CR4_REG     = ADC_DelSig_CFG1_DSM_CR4;
 1794              		.loc 1 1260 0
 1795 0052 2F4B     		ldr	r3, .L99+44
 1796 0054 5022     		movs	r2, #80
 1797 0056 1A70     		strb	r2, [r3]
1261:.\Generated_Source\PSoC5/ADC_DelSig.c ****         ADC_DelSig_DSM_CR5_REG     = ADC_DelSig_CFG1_DSM_CR5;
 1798              		.loc 1 1261 0
 1799 0058 2E4B     		ldr	r3, .L99+48
 1800 005a 2722     		movs	r2, #39
 1801 005c 1A70     		strb	r2, [r3]
1262:.\Generated_Source\PSoC5/ADC_DelSig.c ****         ADC_DelSig_DSM_CR6_REG     = ADC_DelSig_CFG1_DSM_CR6;
 1802              		.loc 1 1262 0
 1803 005e 2E4B     		ldr	r3, .L99+52
 1804 0060 2C22     		movs	r2, #44
 1805 0062 1A70     		strb	r2, [r3]
1263:.\Generated_Source\PSoC5/ADC_DelSig.c ****         ADC_DelSig_DSM_CR7_REG     = ADC_DelSig_CFG1_DSM_CR7;
 1806              		.loc 1 1263 0
 1807 0064 2D4B     		ldr	r3, .L99+56
 1808 0066 0022     		movs	r2, #0
 1809 0068 1A70     		strb	r2, [r3]
1264:.\Generated_Source\PSoC5/ADC_DelSig.c ****         ADC_DelSig_DSM_CR10_REG    = ADC_DelSig_CFG1_DSM_CR10;
 1810              		.loc 1 1264 0
 1811 006a 2D4B     		ldr	r3, .L99+60
 1812 006c 5522     		movs	r2, #85
 1813 006e 1A70     		strb	r2, [r3]
1265:.\Generated_Source\PSoC5/ADC_DelSig.c ****         ADC_DelSig_DSM_CR11_REG    = ADC_DelSig_CFG1_DSM_CR11;
ARM GAS  C:\Users\LUKASC~1\AppData\Local\Temp\ccd9ca13.s 			page 55


 1814              		.loc 1 1265 0
 1815 0070 2C4B     		ldr	r3, .L99+64
 1816 0072 5A22     		movs	r2, #90
 1817 0074 1A70     		strb	r2, [r3]
1266:.\Generated_Source\PSoC5/ADC_DelSig.c ****         ADC_DelSig_DSM_CR12_REG    = ADC_DelSig_CFG1_DSM_CR12;
 1818              		.loc 1 1266 0
 1819 0076 2C4B     		ldr	r3, .L99+68
 1820 0078 0522     		movs	r2, #5
 1821 007a 1A70     		strb	r2, [r3]
1267:.\Generated_Source\PSoC5/ADC_DelSig.c ****         ADC_DelSig_DSM_CR14_REG    = ADC_DelSig_CFG1_DSM_CR14;
 1822              		.loc 1 1267 0
 1823 007c 2B4B     		ldr	r3, .L99+72
 1824 007e 0222     		movs	r2, #2
 1825 0080 1A70     		strb	r2, [r3]
1268:.\Generated_Source\PSoC5/ADC_DelSig.c ****         ADC_DelSig_DSM_CR15_REG    = ADC_DelSig_CFG1_DSM_CR15;
 1826              		.loc 1 1268 0
 1827 0082 2B4B     		ldr	r3, .L99+76
 1828 0084 1222     		movs	r2, #18
 1829 0086 1A70     		strb	r2, [r3]
1269:.\Generated_Source\PSoC5/ADC_DelSig.c ****         ADC_DelSig_DSM_CR16_REG    = ADC_DelSig_CFG1_DSM_CR16;
 1830              		.loc 1 1269 0
 1831 0088 2A4B     		ldr	r3, .L99+80
 1832 008a 2822     		movs	r2, #40
 1833 008c 1A70     		strb	r2, [r3]
1270:.\Generated_Source\PSoC5/ADC_DelSig.c ****         ADC_DelSig_DSM_CR17_REG    = ADC_DelSig_CFG1_DSM_CR17;
 1834              		.loc 1 1270 0
 1835 008e 2A4B     		ldr	r3, .L99+84
 1836 0090 EB22     		movs	r2, #235
 1837 0092 1A70     		strb	r2, [r3]
1271:.\Generated_Source\PSoC5/ADC_DelSig.c ****         /* Set DSM_REF0_REG by disabling and enabling the PRESS circuit */
1272:.\Generated_Source\PSoC5/ADC_DelSig.c ****         ADC_DelSig_SetDSMRef0Reg(ADC_DelSig_CFG1_DSM_REF0);
 1838              		.loc 1 1272 0
 1839 0094 4420     		movs	r0, #68
 1840 0096 FFF7FEFF 		bl	ADC_DelSig_SetDSMRef0Reg
1273:.\Generated_Source\PSoC5/ADC_DelSig.c ****         ADC_DelSig_DSM_REF2_REG    = ADC_DelSig_CFG1_DSM_REF2;
 1841              		.loc 1 1273 0
 1842 009a 284B     		ldr	r3, .L99+88
 1843 009c 5822     		movs	r2, #88
 1844 009e 1A70     		strb	r2, [r3]
1274:.\Generated_Source\PSoC5/ADC_DelSig.c ****         ADC_DelSig_DSM_REF3_REG    = ADC_DelSig_CFG1_DSM_REF3;
 1845              		.loc 1 1274 0
 1846 00a0 274B     		ldr	r3, .L99+92
 1847 00a2 0022     		movs	r2, #0
 1848 00a4 1A70     		strb	r2, [r3]
1275:.\Generated_Source\PSoC5/ADC_DelSig.c **** 
1276:.\Generated_Source\PSoC5/ADC_DelSig.c ****         ADC_DelSig_DSM_BUF0_REG    = ADC_DelSig_CFG1_DSM_BUF0;
 1849              		.loc 1 1276 0
 1850 00a6 274B     		ldr	r3, .L99+96
 1851 00a8 0522     		movs	r2, #5
 1852 00aa 1A70     		strb	r2, [r3]
1277:.\Generated_Source\PSoC5/ADC_DelSig.c ****         ADC_DelSig_DSM_BUF1_REG    = ADC_DelSig_CFG1_DSM_BUF1;
 1853              		.loc 1 1277 0
 1854 00ac 264B     		ldr	r3, .L99+100
 1855 00ae 0122     		movs	r2, #1
 1856 00b0 1A70     		strb	r2, [r3]
1278:.\Generated_Source\PSoC5/ADC_DelSig.c ****         ADC_DelSig_DSM_BUF2_REG    = ADC_DelSig_CFG1_DSM_BUF2;
 1857              		.loc 1 1278 0
ARM GAS  C:\Users\LUKASC~1\AppData\Local\Temp\ccd9ca13.s 			page 56


 1858 00b2 264B     		ldr	r3, .L99+104
 1859 00b4 0022     		movs	r2, #0
 1860 00b6 1A70     		strb	r2, [r3]
1279:.\Generated_Source\PSoC5/ADC_DelSig.c ****         ADC_DelSig_DSM_BUF3_REG    = ADC_DelSig_CFG1_DSM_BUF3;
 1861              		.loc 1 1279 0
 1862 00b8 254B     		ldr	r3, .L99+108
 1863 00ba 0A22     		movs	r2, #10
 1864 00bc 1A70     		strb	r2, [r3]
1280:.\Generated_Source\PSoC5/ADC_DelSig.c **** 
1281:.\Generated_Source\PSoC5/ADC_DelSig.c ****         /* To select either Vssa or Vref to -ve input of DSM depending on
1282:.\Generated_Source\PSoC5/ADC_DelSig.c ****         *  the input  range selected.
1283:.\Generated_Source\PSoC5/ADC_DelSig.c ****         */
1284:.\Generated_Source\PSoC5/ADC_DelSig.c ****         #if(ADC_DelSig_DEFAULT_INPUT_MODE)
1285:.\Generated_Source\PSoC5/ADC_DelSig.c ****             #if (ADC_DelSig_CFG1_INPUT_RANGE == ADC_DelSig_IR_VSSA_TO_2VREF)
1286:.\Generated_Source\PSoC5/ADC_DelSig.c ****                 ADC_DelSig_AMux_Select(1u);
1287:.\Generated_Source\PSoC5/ADC_DelSig.c ****             #else
1288:.\Generated_Source\PSoC5/ADC_DelSig.c ****                 ADC_DelSig_AMux_Select(0u);
1289:.\Generated_Source\PSoC5/ADC_DelSig.c ****             #endif /* ADC_DelSig_IR_VSSA_TO_2VREF) */
1290:.\Generated_Source\PSoC5/ADC_DelSig.c ****         #endif /* ADC_DelSig_DEFAULT_INPUT_MODE */
1291:.\Generated_Source\PSoC5/ADC_DelSig.c **** 
1292:.\Generated_Source\PSoC5/ADC_DelSig.c ****         /* Set the Conversion stop if resolution is above 16 bit and conversion
1293:.\Generated_Source\PSoC5/ADC_DelSig.c ****         *   mode is Single sample
1294:.\Generated_Source\PSoC5/ADC_DelSig.c ****         */
1295:.\Generated_Source\PSoC5/ADC_DelSig.c ****         #if(ADC_DelSig_CFG1_RESOLUTION > 16 && \
1296:.\Generated_Source\PSoC5/ADC_DelSig.c ****             ADC_DelSig_CFG1_CONV_MODE == ADC_DelSig_MODE_SINGLE_SAMPLE)
1297:.\Generated_Source\PSoC5/ADC_DelSig.c ****             ADC_DelSig_stopConversion = 1u;
1298:.\Generated_Source\PSoC5/ADC_DelSig.c ****         #endif /* Single sample with resolution above 16 bits. */
1299:.\Generated_Source\PSoC5/ADC_DelSig.c **** 
1300:.\Generated_Source\PSoC5/ADC_DelSig.c ****         ADC_DelSig_CountsPerVolt = (int32)ADC_DelSig_CFG1_COUNTS_PER_VOLT;
 1865              		.loc 1 1300 0
 1866 00be 254B     		ldr	r3, .L99+112
 1867 00c0 4FF4FA42 		mov	r2, #32000
 1868 00c4 1A60     		str	r2, [r3]
1301:.\Generated_Source\PSoC5/ADC_DelSig.c **** 
1302:.\Generated_Source\PSoC5/ADC_DelSig.c ****         ADC_DelSig_Ext_CP_Clk_SetDividerRegister(ADC_DelSig_CFG1_CP_CLK_DIVIDER, 1u);
 1869              		.loc 1 1302 0
 1870 00c6 0420     		movs	r0, #4
 1871 00c8 0121     		movs	r1, #1
 1872 00ca FFF7FEFF 		bl	ADC_DelSig_Ext_CP_Clk_SetDividerRegister
1303:.\Generated_Source\PSoC5/ADC_DelSig.c **** 
1304:.\Generated_Source\PSoC5/ADC_DelSig.c ****         /* This is only valid if there is an internal clock */
1305:.\Generated_Source\PSoC5/ADC_DelSig.c ****         #if(ADC_DelSig_DEFAULT_INTERNAL_CLK)
1306:.\Generated_Source\PSoC5/ADC_DelSig.c ****             ADC_DelSig_theACLK_SetDividerRegister(ADC_DelSig_CFG1_ADC_CLK_DIVIDER, 1u);
 1873              		.loc 1 1306 0
 1874 00ce 1220     		movs	r0, #18
 1875 00d0 0121     		movs	r1, #1
 1876 00d2 FFF7FEFF 		bl	ADC_DelSig_theACLK_SetDividerRegister
1307:.\Generated_Source\PSoC5/ADC_DelSig.c ****         #endif /* ADC_DelSig_DEFAULT_INTERNAL_CLK */
1308:.\Generated_Source\PSoC5/ADC_DelSig.c **** 
1309:.\Generated_Source\PSoC5/ADC_DelSig.c ****         #if(ADC_DelSig_IRQ_REMOVE == 0u)
1310:.\Generated_Source\PSoC5/ADC_DelSig.c ****             /* Set interrupt vector */
1311:.\Generated_Source\PSoC5/ADC_DelSig.c ****             (void)CyIntSetVector(ADC_DelSig_INTC_NUMBER, &ADC_DelSig_ISR1);
 1877              		.loc 1 1311 0
 1878 00d6 1D20     		movs	r0, #29
 1879 00d8 1F49     		ldr	r1, .L99+116
 1880 00da FFF7FEFF 		bl	CyIntSetVector
 1881              	.L97:
ARM GAS  C:\Users\LUKASC~1\AppData\Local\Temp\ccd9ca13.s 			page 57


1312:.\Generated_Source\PSoC5/ADC_DelSig.c ****         #endif   /* End ADC_DelSig_IRQ_REMOVE */
1313:.\Generated_Source\PSoC5/ADC_DelSig.c ****     }
1314:.\Generated_Source\PSoC5/ADC_DelSig.c **** 
1315:.\Generated_Source\PSoC5/ADC_DelSig.c ****     #if(ADC_DelSig_DEFAULT_NUM_CONFIGS > 1)
1316:.\Generated_Source\PSoC5/ADC_DelSig.c ****         if(config == 2u)
1317:.\Generated_Source\PSoC5/ADC_DelSig.c ****         {
1318:.\Generated_Source\PSoC5/ADC_DelSig.c ****             /* Second Config */
1319:.\Generated_Source\PSoC5/ADC_DelSig.c ****             ADC_DelSig_DEC_CR_REG      = ADC_DelSig_CFG2_DEC_CR;
1320:.\Generated_Source\PSoC5/ADC_DelSig.c ****             ADC_DelSig_DEC_SHIFT1_REG  = ADC_DelSig_CFG2_DEC_SHIFT1;
1321:.\Generated_Source\PSoC5/ADC_DelSig.c ****             ADC_DelSig_DEC_SHIFT2_REG  = ADC_DelSig_CFG2_DEC_SHIFT2;
1322:.\Generated_Source\PSoC5/ADC_DelSig.c ****             ADC_DelSig_DEC_DR2_REG     = ADC_DelSig_CFG2_DEC_DR2;
1323:.\Generated_Source\PSoC5/ADC_DelSig.c ****             ADC_DelSig_DEC_DR2H_REG    = ADC_DelSig_CFG2_DEC_DR2H;
1324:.\Generated_Source\PSoC5/ADC_DelSig.c ****             ADC_DelSig_DEC_DR1_REG     = ADC_DelSig_CFG2_DEC_DR1;
1325:.\Generated_Source\PSoC5/ADC_DelSig.c ****             ADC_DelSig_DEC_OCOR_REG    = ADC_DelSig_CFG2_DEC_OCOR;
1326:.\Generated_Source\PSoC5/ADC_DelSig.c ****             ADC_DelSig_DEC_OCORM_REG   = ADC_DelSig_CFG2_DEC_OCORM;
1327:.\Generated_Source\PSoC5/ADC_DelSig.c ****             ADC_DelSig_DEC_OCORH_REG   = ADC_DelSig_CFG2_DEC_OCORH;
1328:.\Generated_Source\PSoC5/ADC_DelSig.c ****             ADC_DelSig_DEC_COHER_REG   = ADC_DelSig_CFG2_DEC_COHER;
1329:.\Generated_Source\PSoC5/ADC_DelSig.c **** 
1330:.\Generated_Source\PSoC5/ADC_DelSig.c ****             ADC_DelSig_DSM_CR4_REG     = ADC_DelSig_CFG2_DSM_CR4;
1331:.\Generated_Source\PSoC5/ADC_DelSig.c ****             ADC_DelSig_DSM_CR5_REG     = ADC_DelSig_CFG2_DSM_CR5;
1332:.\Generated_Source\PSoC5/ADC_DelSig.c ****             ADC_DelSig_DSM_CR6_REG     = ADC_DelSig_CFG2_DSM_CR6;
1333:.\Generated_Source\PSoC5/ADC_DelSig.c ****             ADC_DelSig_DSM_CR7_REG     = ADC_DelSig_CFG2_DSM_CR7;
1334:.\Generated_Source\PSoC5/ADC_DelSig.c ****             ADC_DelSig_DSM_CR10_REG    = ADC_DelSig_CFG2_DSM_CR10;
1335:.\Generated_Source\PSoC5/ADC_DelSig.c ****             ADC_DelSig_DSM_CR11_REG    = ADC_DelSig_CFG2_DSM_CR11;
1336:.\Generated_Source\PSoC5/ADC_DelSig.c ****             ADC_DelSig_DSM_CR12_REG    = ADC_DelSig_CFG2_DSM_CR12;
1337:.\Generated_Source\PSoC5/ADC_DelSig.c ****             ADC_DelSig_DSM_CR14_REG    = ADC_DelSig_CFG2_DSM_CR14;
1338:.\Generated_Source\PSoC5/ADC_DelSig.c ****             ADC_DelSig_DSM_CR15_REG    = ADC_DelSig_CFG2_DSM_CR15;
1339:.\Generated_Source\PSoC5/ADC_DelSig.c ****             ADC_DelSig_DSM_CR16_REG    = ADC_DelSig_CFG2_DSM_CR16;
1340:.\Generated_Source\PSoC5/ADC_DelSig.c ****             ADC_DelSig_DSM_CR17_REG    = ADC_DelSig_CFG2_DSM_CR17;
1341:.\Generated_Source\PSoC5/ADC_DelSig.c ****             /* Set DSM_REF0_REG by disabling and enabling the PRESS cirucit */
1342:.\Generated_Source\PSoC5/ADC_DelSig.c ****             ADC_DelSig_SetDSMRef0Reg(ADC_DelSig_CFG2_DSM_REF0);
1343:.\Generated_Source\PSoC5/ADC_DelSig.c ****             ADC_DelSig_DSM_REF2_REG    = ADC_DelSig_CFG2_DSM_REF2;
1344:.\Generated_Source\PSoC5/ADC_DelSig.c ****             ADC_DelSig_DSM_REF3_REG    = ADC_DelSig_CFG2_DSM_REF3;
1345:.\Generated_Source\PSoC5/ADC_DelSig.c **** 
1346:.\Generated_Source\PSoC5/ADC_DelSig.c ****             ADC_DelSig_DSM_BUF0_REG    = ADC_DelSig_CFG2_DSM_BUF0;
1347:.\Generated_Source\PSoC5/ADC_DelSig.c ****             ADC_DelSig_DSM_BUF1_REG    = ADC_DelSig_CFG2_DSM_BUF1;
1348:.\Generated_Source\PSoC5/ADC_DelSig.c ****             ADC_DelSig_DSM_BUF2_REG    = ADC_DelSig_CFG2_DSM_BUF2;
1349:.\Generated_Source\PSoC5/ADC_DelSig.c ****             ADC_DelSig_DSM_BUF3_REG    = ADC_DelSig_CFG2_DSM_BUF3;
1350:.\Generated_Source\PSoC5/ADC_DelSig.c **** 
1351:.\Generated_Source\PSoC5/ADC_DelSig.c ****             /* To select either Vssa or Vref to -ve input of DSM depending on
1352:.\Generated_Source\PSoC5/ADC_DelSig.c ****             *  the input range selected.
1353:.\Generated_Source\PSoC5/ADC_DelSig.c ****             */
1354:.\Generated_Source\PSoC5/ADC_DelSig.c **** 
1355:.\Generated_Source\PSoC5/ADC_DelSig.c ****             #if(ADC_DelSig_DEFAULT_INPUT_MODE)
1356:.\Generated_Source\PSoC5/ADC_DelSig.c ****                 #if (ADC_DelSig_CFG2_INPUT_RANGE == ADC_DelSig_IR_VSSA_TO_2VREF)
1357:.\Generated_Source\PSoC5/ADC_DelSig.c ****                     ADC_DelSig_AMux_Select(1u);
1358:.\Generated_Source\PSoC5/ADC_DelSig.c ****                 #else
1359:.\Generated_Source\PSoC5/ADC_DelSig.c ****                     ADC_DelSig_AMux_Select(0u);
1360:.\Generated_Source\PSoC5/ADC_DelSig.c ****                 #endif /* ADC_DelSig_IR_VSSA_TO_2VREF) */
1361:.\Generated_Source\PSoC5/ADC_DelSig.c ****             #endif /* ADC_DelSig_DEFAULT_INPUT_MODE */
1362:.\Generated_Source\PSoC5/ADC_DelSig.c **** 
1363:.\Generated_Source\PSoC5/ADC_DelSig.c ****             /* Set the Conversion stop if resolution is above 16 bit and
1364:.\Generated_Source\PSoC5/ADC_DelSig.c ****             *   conversion mode is Single sample
1365:.\Generated_Source\PSoC5/ADC_DelSig.c ****             */
1366:.\Generated_Source\PSoC5/ADC_DelSig.c ****             #if(ADC_DelSig_CFG2_RESOLUTION > 16 && \
1367:.\Generated_Source\PSoC5/ADC_DelSig.c ****                 ADC_DelSig_CFG2_CONV_MODE == ADC_DelSig_MODE_SINGLE_SAMPLE)
1368:.\Generated_Source\PSoC5/ADC_DelSig.c ****                 ADC_DelSig_stopConversion = 1u;
ARM GAS  C:\Users\LUKASC~1\AppData\Local\Temp\ccd9ca13.s 			page 58


1369:.\Generated_Source\PSoC5/ADC_DelSig.c ****             #endif /* Single sample with resolution above 16 bits. */
1370:.\Generated_Source\PSoC5/ADC_DelSig.c **** 
1371:.\Generated_Source\PSoC5/ADC_DelSig.c ****             ADC_DelSig_CountsPerVolt = (int32)ADC_DelSig_CFG2_COUNTS_PER_VOLT;
1372:.\Generated_Source\PSoC5/ADC_DelSig.c **** 
1373:.\Generated_Source\PSoC5/ADC_DelSig.c ****             ADC_DelSig_Ext_CP_Clk_SetDividerRegister(ADC_DelSig_CFG2_CP_CLK_DIVIDER, 1u);
1374:.\Generated_Source\PSoC5/ADC_DelSig.c **** 
1375:.\Generated_Source\PSoC5/ADC_DelSig.c ****             /* This is only valid if there is an internal clock */
1376:.\Generated_Source\PSoC5/ADC_DelSig.c ****             #if(ADC_DelSig_DEFAULT_INTERNAL_CLK)
1377:.\Generated_Source\PSoC5/ADC_DelSig.c ****                 ADC_DelSig_theACLK_SetDividerRegister(ADC_DelSig_CFG2_ADC_CLK_DIVIDER, 1u);
1378:.\Generated_Source\PSoC5/ADC_DelSig.c ****             #endif /* ADC_DelSig_DEFAULT_INTERNAL_CLK */
1379:.\Generated_Source\PSoC5/ADC_DelSig.c **** 
1380:.\Generated_Source\PSoC5/ADC_DelSig.c ****             #if(ADC_DelSig_IRQ_REMOVE == 0u)
1381:.\Generated_Source\PSoC5/ADC_DelSig.c ****                 /* Set interrupt vector */
1382:.\Generated_Source\PSoC5/ADC_DelSig.c ****                 (void)CyIntSetVector(ADC_DelSig_INTC_NUMBER, &ADC_DelSig_ISR2);
1383:.\Generated_Source\PSoC5/ADC_DelSig.c ****             #endif   /* End ADC_DelSig_IRQ_REMOVE */
1384:.\Generated_Source\PSoC5/ADC_DelSig.c ****         }
1385:.\Generated_Source\PSoC5/ADC_DelSig.c ****     #endif /* ADC_DelSig_DEFAULT_NUM_CONFIGS > 1 */
1386:.\Generated_Source\PSoC5/ADC_DelSig.c **** 
1387:.\Generated_Source\PSoC5/ADC_DelSig.c ****     #if(ADC_DelSig_DEFAULT_NUM_CONFIGS > 2)
1388:.\Generated_Source\PSoC5/ADC_DelSig.c ****         if(config == 3u)
1389:.\Generated_Source\PSoC5/ADC_DelSig.c ****         {
1390:.\Generated_Source\PSoC5/ADC_DelSig.c ****             /* Third Config */
1391:.\Generated_Source\PSoC5/ADC_DelSig.c ****             ADC_DelSig_DEC_CR_REG      = ADC_DelSig_CFG3_DEC_CR;
1392:.\Generated_Source\PSoC5/ADC_DelSig.c ****             ADC_DelSig_DEC_SHIFT1_REG  = ADC_DelSig_CFG3_DEC_SHIFT1;
1393:.\Generated_Source\PSoC5/ADC_DelSig.c ****             ADC_DelSig_DEC_SHIFT2_REG  = ADC_DelSig_CFG3_DEC_SHIFT2;
1394:.\Generated_Source\PSoC5/ADC_DelSig.c ****             ADC_DelSig_DEC_DR2_REG     = ADC_DelSig_CFG3_DEC_DR2;
1395:.\Generated_Source\PSoC5/ADC_DelSig.c ****             ADC_DelSig_DEC_DR2H_REG    = ADC_DelSig_CFG3_DEC_DR2H;
1396:.\Generated_Source\PSoC5/ADC_DelSig.c ****             ADC_DelSig_DEC_DR1_REG     = ADC_DelSig_CFG3_DEC_DR1;
1397:.\Generated_Source\PSoC5/ADC_DelSig.c ****             ADC_DelSig_DEC_OCOR_REG    = ADC_DelSig_CFG3_DEC_OCOR;
1398:.\Generated_Source\PSoC5/ADC_DelSig.c ****             ADC_DelSig_DEC_OCORM_REG   = ADC_DelSig_CFG3_DEC_OCORM;
1399:.\Generated_Source\PSoC5/ADC_DelSig.c ****             ADC_DelSig_DEC_OCORH_REG   = ADC_DelSig_CFG3_DEC_OCORH;
1400:.\Generated_Source\PSoC5/ADC_DelSig.c ****             ADC_DelSig_DEC_COHER_REG   = ADC_DelSig_CFG3_DEC_COHER;
1401:.\Generated_Source\PSoC5/ADC_DelSig.c **** 
1402:.\Generated_Source\PSoC5/ADC_DelSig.c ****             ADC_DelSig_DSM_CR4_REG     = ADC_DelSig_CFG3_DSM_CR4;
1403:.\Generated_Source\PSoC5/ADC_DelSig.c ****             ADC_DelSig_DSM_CR5_REG     = ADC_DelSig_CFG3_DSM_CR5;
1404:.\Generated_Source\PSoC5/ADC_DelSig.c ****             ADC_DelSig_DSM_CR6_REG     = ADC_DelSig_CFG3_DSM_CR6;
1405:.\Generated_Source\PSoC5/ADC_DelSig.c ****             ADC_DelSig_DSM_CR7_REG     = ADC_DelSig_CFG3_DSM_CR7;
1406:.\Generated_Source\PSoC5/ADC_DelSig.c ****             ADC_DelSig_DSM_CR10_REG    = ADC_DelSig_CFG3_DSM_CR10;
1407:.\Generated_Source\PSoC5/ADC_DelSig.c ****             ADC_DelSig_DSM_CR11_REG    = ADC_DelSig_CFG3_DSM_CR11;
1408:.\Generated_Source\PSoC5/ADC_DelSig.c ****             ADC_DelSig_DSM_CR12_REG    = ADC_DelSig_CFG3_DSM_CR12;
1409:.\Generated_Source\PSoC5/ADC_DelSig.c ****             ADC_DelSig_DSM_CR14_REG    = ADC_DelSig_CFG3_DSM_CR14;
1410:.\Generated_Source\PSoC5/ADC_DelSig.c ****             ADC_DelSig_DSM_CR15_REG    = ADC_DelSig_CFG3_DSM_CR15;
1411:.\Generated_Source\PSoC5/ADC_DelSig.c ****             ADC_DelSig_DSM_CR16_REG    = ADC_DelSig_CFG3_DSM_CR16;
1412:.\Generated_Source\PSoC5/ADC_DelSig.c ****             ADC_DelSig_DSM_CR17_REG    = ADC_DelSig_CFG3_DSM_CR17;
1413:.\Generated_Source\PSoC5/ADC_DelSig.c ****             /* Set DSM_REF0_REG by disabling and enabling the PRESS circuit */
1414:.\Generated_Source\PSoC5/ADC_DelSig.c ****             ADC_DelSig_SetDSMRef0Reg(ADC_DelSig_CFG3_DSM_REF0);
1415:.\Generated_Source\PSoC5/ADC_DelSig.c ****             ADC_DelSig_DSM_REF2_REG    = ADC_DelSig_CFG3_DSM_REF2;
1416:.\Generated_Source\PSoC5/ADC_DelSig.c ****             ADC_DelSig_DSM_REF3_REG    = ADC_DelSig_CFG3_DSM_REF3;
1417:.\Generated_Source\PSoC5/ADC_DelSig.c **** 
1418:.\Generated_Source\PSoC5/ADC_DelSig.c ****             ADC_DelSig_DSM_BUF0_REG    = ADC_DelSig_CFG3_DSM_BUF0;
1419:.\Generated_Source\PSoC5/ADC_DelSig.c ****             ADC_DelSig_DSM_BUF1_REG    = ADC_DelSig_CFG3_DSM_BUF1;
1420:.\Generated_Source\PSoC5/ADC_DelSig.c ****             ADC_DelSig_DSM_BUF2_REG    = ADC_DelSig_CFG3_DSM_BUF2;
1421:.\Generated_Source\PSoC5/ADC_DelSig.c ****             ADC_DelSig_DSM_BUF3_REG    = ADC_DelSig_CFG3_DSM_BUF3;
1422:.\Generated_Source\PSoC5/ADC_DelSig.c **** 
1423:.\Generated_Source\PSoC5/ADC_DelSig.c ****             /* To select either Vssa or Vref to -ve input of DSM depending on
1424:.\Generated_Source\PSoC5/ADC_DelSig.c ****             *  the input range selected.
1425:.\Generated_Source\PSoC5/ADC_DelSig.c ****             */
ARM GAS  C:\Users\LUKASC~1\AppData\Local\Temp\ccd9ca13.s 			page 59


1426:.\Generated_Source\PSoC5/ADC_DelSig.c ****             #if(ADC_DelSig_DEFAULT_INPUT_MODE)
1427:.\Generated_Source\PSoC5/ADC_DelSig.c ****                 #if (ADC_DelSig_CFG3_INPUT_RANGE == ADC_DelSig_IR_VSSA_TO_2VREF)
1428:.\Generated_Source\PSoC5/ADC_DelSig.c ****                     ADC_DelSig_AMux_Select(1u);
1429:.\Generated_Source\PSoC5/ADC_DelSig.c ****                 #else
1430:.\Generated_Source\PSoC5/ADC_DelSig.c ****                     ADC_DelSig_AMux_Select(0u);
1431:.\Generated_Source\PSoC5/ADC_DelSig.c ****                 #endif /* ADC_DelSig_IR_VSSA_TO_2VREF) */
1432:.\Generated_Source\PSoC5/ADC_DelSig.c ****             #endif /* ADC_DelSig_DEFAULT_INPUT_MODE */
1433:.\Generated_Source\PSoC5/ADC_DelSig.c **** 
1434:.\Generated_Source\PSoC5/ADC_DelSig.c ****             /* Set the Conversion stop if resolution is above 16 bit and
1435:.\Generated_Source\PSoC5/ADC_DelSig.c ****                conversion  mode is Single sample */
1436:.\Generated_Source\PSoC5/ADC_DelSig.c ****             #if(ADC_DelSig_CFG3_RESOLUTION > 16 && \
1437:.\Generated_Source\PSoC5/ADC_DelSig.c ****                 ADC_DelSig_CFG3_CONV_MODE == ADC_DelSig_MODE_SINGLE_SAMPLE)
1438:.\Generated_Source\PSoC5/ADC_DelSig.c ****                 ADC_DelSig_stopConversion = 1u;
1439:.\Generated_Source\PSoC5/ADC_DelSig.c ****             #endif /* Single sample with resolution above 16 bits */
1440:.\Generated_Source\PSoC5/ADC_DelSig.c **** 
1441:.\Generated_Source\PSoC5/ADC_DelSig.c ****             ADC_DelSig_CountsPerVolt = (int32)ADC_DelSig_CFG3_COUNTS_PER_VOLT;
1442:.\Generated_Source\PSoC5/ADC_DelSig.c **** 
1443:.\Generated_Source\PSoC5/ADC_DelSig.c ****             ADC_DelSig_Ext_CP_Clk_SetDividerRegister(ADC_DelSig_CFG3_CP_CLK_DIVIDER, 1u);
1444:.\Generated_Source\PSoC5/ADC_DelSig.c **** 
1445:.\Generated_Source\PSoC5/ADC_DelSig.c ****             /* This is only valid if there is an internal clock */
1446:.\Generated_Source\PSoC5/ADC_DelSig.c ****             #if(ADC_DelSig_DEFAULT_INTERNAL_CLK)
1447:.\Generated_Source\PSoC5/ADC_DelSig.c ****                 ADC_DelSig_theACLK_SetDividerRegister(ADC_DelSig_CFG3_ADC_CLK_DIVIDER, 1u);
1448:.\Generated_Source\PSoC5/ADC_DelSig.c ****             #endif /* ADC_DelSig_DEFAULT_INTERNAL_CLK */
1449:.\Generated_Source\PSoC5/ADC_DelSig.c **** 
1450:.\Generated_Source\PSoC5/ADC_DelSig.c ****             #if(ADC_DelSig_IRQ_REMOVE == 0u)
1451:.\Generated_Source\PSoC5/ADC_DelSig.c ****                 /* Set interrupt vector */
1452:.\Generated_Source\PSoC5/ADC_DelSig.c ****                 (void)CyIntSetVector(ADC_DelSig_INTC_NUMBER, &ADC_DelSig_ISR3);
1453:.\Generated_Source\PSoC5/ADC_DelSig.c ****             #endif   /* End ADC_DelSig_IRQ_REMOVE */
1454:.\Generated_Source\PSoC5/ADC_DelSig.c ****         }
1455:.\Generated_Source\PSoC5/ADC_DelSig.c ****     #endif /* ADC_DelSig_DEFAULT_NUM_CONFIGS > 2 */
1456:.\Generated_Source\PSoC5/ADC_DelSig.c **** 
1457:.\Generated_Source\PSoC5/ADC_DelSig.c ****     #if(ADC_DelSig_DEFAULT_NUM_CONFIGS > 3)
1458:.\Generated_Source\PSoC5/ADC_DelSig.c ****         if (config == 4u)
1459:.\Generated_Source\PSoC5/ADC_DelSig.c ****         {
1460:.\Generated_Source\PSoC5/ADC_DelSig.c ****             /* Fourth Config */
1461:.\Generated_Source\PSoC5/ADC_DelSig.c ****             ADC_DelSig_DEC_CR_REG      = ADC_DelSig_CFG4_DEC_CR;
1462:.\Generated_Source\PSoC5/ADC_DelSig.c ****             ADC_DelSig_DEC_SHIFT1_REG  = ADC_DelSig_CFG4_DEC_SHIFT1;
1463:.\Generated_Source\PSoC5/ADC_DelSig.c ****             ADC_DelSig_DEC_SHIFT2_REG  = ADC_DelSig_CFG4_DEC_SHIFT2;
1464:.\Generated_Source\PSoC5/ADC_DelSig.c ****             ADC_DelSig_DEC_DR2_REG     = ADC_DelSig_CFG4_DEC_DR2;
1465:.\Generated_Source\PSoC5/ADC_DelSig.c ****             ADC_DelSig_DEC_DR2H_REG    = ADC_DelSig_CFG4_DEC_DR2H;
1466:.\Generated_Source\PSoC5/ADC_DelSig.c ****             ADC_DelSig_DEC_DR1_REG     = ADC_DelSig_CFG4_DEC_DR1;
1467:.\Generated_Source\PSoC5/ADC_DelSig.c ****             ADC_DelSig_DEC_OCOR_REG    = ADC_DelSig_CFG4_DEC_OCOR;
1468:.\Generated_Source\PSoC5/ADC_DelSig.c ****             ADC_DelSig_DEC_OCORM_REG   = ADC_DelSig_CFG4_DEC_OCORM;
1469:.\Generated_Source\PSoC5/ADC_DelSig.c ****             ADC_DelSig_DEC_OCORH_REG   = ADC_DelSig_CFG4_DEC_OCORH;
1470:.\Generated_Source\PSoC5/ADC_DelSig.c ****             ADC_DelSig_DEC_COHER_REG   = ADC_DelSig_CFG4_DEC_COHER;
1471:.\Generated_Source\PSoC5/ADC_DelSig.c **** 
1472:.\Generated_Source\PSoC5/ADC_DelSig.c ****             ADC_DelSig_DSM_CR4_REG     = ADC_DelSig_CFG4_DSM_CR4;
1473:.\Generated_Source\PSoC5/ADC_DelSig.c ****             ADC_DelSig_DSM_CR5_REG     = ADC_DelSig_CFG4_DSM_CR5;
1474:.\Generated_Source\PSoC5/ADC_DelSig.c ****             ADC_DelSig_DSM_CR6_REG     = ADC_DelSig_CFG4_DSM_CR6;
1475:.\Generated_Source\PSoC5/ADC_DelSig.c ****             ADC_DelSig_DSM_CR7_REG     = ADC_DelSig_CFG4_DSM_CR7;
1476:.\Generated_Source\PSoC5/ADC_DelSig.c ****             ADC_DelSig_DSM_CR10_REG    = ADC_DelSig_CFG4_DSM_CR10;
1477:.\Generated_Source\PSoC5/ADC_DelSig.c ****             ADC_DelSig_DSM_CR11_REG    = ADC_DelSig_CFG4_DSM_CR11;
1478:.\Generated_Source\PSoC5/ADC_DelSig.c ****             ADC_DelSig_DSM_CR12_REG    = ADC_DelSig_CFG4_DSM_CR12;
1479:.\Generated_Source\PSoC5/ADC_DelSig.c ****             ADC_DelSig_DSM_CR14_REG    = ADC_DelSig_CFG4_DSM_CR14;
1480:.\Generated_Source\PSoC5/ADC_DelSig.c ****             ADC_DelSig_DSM_CR15_REG    = ADC_DelSig_CFG4_DSM_CR15;
1481:.\Generated_Source\PSoC5/ADC_DelSig.c ****             ADC_DelSig_DSM_CR16_REG    = ADC_DelSig_CFG4_DSM_CR16;
1482:.\Generated_Source\PSoC5/ADC_DelSig.c ****             ADC_DelSig_DSM_CR17_REG    = ADC_DelSig_CFG4_DSM_CR17;
ARM GAS  C:\Users\LUKASC~1\AppData\Local\Temp\ccd9ca13.s 			page 60


1483:.\Generated_Source\PSoC5/ADC_DelSig.c ****             /* Set DSM_REF0_REG by disabling and enabling the PRESS circuit */
1484:.\Generated_Source\PSoC5/ADC_DelSig.c ****             ADC_DelSig_SetDSMRef0Reg(ADC_DelSig_CFG4_DSM_REF0);
1485:.\Generated_Source\PSoC5/ADC_DelSig.c ****             ADC_DelSig_DSM_REF2_REG    = ADC_DelSig_CFG4_DSM_REF2;
1486:.\Generated_Source\PSoC5/ADC_DelSig.c ****             ADC_DelSig_DSM_REF3_REG    = ADC_DelSig_CFG4_DSM_REF3;
1487:.\Generated_Source\PSoC5/ADC_DelSig.c **** 
1488:.\Generated_Source\PSoC5/ADC_DelSig.c ****             ADC_DelSig_DSM_BUF0_REG    = ADC_DelSig_CFG4_DSM_BUF0;
1489:.\Generated_Source\PSoC5/ADC_DelSig.c ****             ADC_DelSig_DSM_BUF1_REG    = ADC_DelSig_CFG4_DSM_BUF1;
1490:.\Generated_Source\PSoC5/ADC_DelSig.c ****             ADC_DelSig_DSM_BUF2_REG    = ADC_DelSig_CFG4_DSM_BUF2;
1491:.\Generated_Source\PSoC5/ADC_DelSig.c ****             ADC_DelSig_DSM_BUF3_REG    = ADC_DelSig_CFG4_DSM_BUF3;
1492:.\Generated_Source\PSoC5/ADC_DelSig.c **** 
1493:.\Generated_Source\PSoC5/ADC_DelSig.c ****             /* To select either Vssa or Vref to -ve input of DSM depending on
1494:.\Generated_Source\PSoC5/ADC_DelSig.c ****             *  the input range selected.
1495:.\Generated_Source\PSoC5/ADC_DelSig.c ****             */
1496:.\Generated_Source\PSoC5/ADC_DelSig.c ****             #if(ADC_DelSig_DEFAULT_INPUT_MODE)
1497:.\Generated_Source\PSoC5/ADC_DelSig.c ****                 #if (ADC_DelSig_CFG4_INPUT_RANGE == ADC_DelSig_IR_VSSA_TO_2VREF)
1498:.\Generated_Source\PSoC5/ADC_DelSig.c ****                     ADC_DelSig_AMux_Select(1u);
1499:.\Generated_Source\PSoC5/ADC_DelSig.c ****                 #else
1500:.\Generated_Source\PSoC5/ADC_DelSig.c ****                     ADC_DelSig_AMux_Select(0u);
1501:.\Generated_Source\PSoC5/ADC_DelSig.c ****                 #endif /* ADC_DelSig_IR_VSSA_TO_2VREF) */
1502:.\Generated_Source\PSoC5/ADC_DelSig.c ****             #endif /* ADC_DelSig_DEFAULT_INPUT_MODE */
1503:.\Generated_Source\PSoC5/ADC_DelSig.c **** 
1504:.\Generated_Source\PSoC5/ADC_DelSig.c ****             /* Set the Conversion stop if resolution is above 16 bit and
1505:.\Generated_Source\PSoC5/ADC_DelSig.c ****                conversion mode is Single sample */
1506:.\Generated_Source\PSoC5/ADC_DelSig.c ****             #if(ADC_DelSig_CFG4_RESOLUTION > 16 && \
1507:.\Generated_Source\PSoC5/ADC_DelSig.c ****                 ADC_DelSig_CFG4_CONV_MODE == ADC_DelSig_MODE_SINGLE_SAMPLE)
1508:.\Generated_Source\PSoC5/ADC_DelSig.c ****                 ADC_DelSig_stopConversion = 1u;
1509:.\Generated_Source\PSoC5/ADC_DelSig.c ****             #endif /* Single sample with resolution above 16 bits */
1510:.\Generated_Source\PSoC5/ADC_DelSig.c **** 
1511:.\Generated_Source\PSoC5/ADC_DelSig.c ****             ADC_DelSig_CountsPerVolt = (int32)ADC_DelSig_CFG4_COUNTS_PER_VOLT;
1512:.\Generated_Source\PSoC5/ADC_DelSig.c **** 
1513:.\Generated_Source\PSoC5/ADC_DelSig.c ****             ADC_DelSig_Ext_CP_Clk_SetDividerRegister(ADC_DelSig_CFG4_CP_CLK_DIVIDER, 1u);
1514:.\Generated_Source\PSoC5/ADC_DelSig.c **** 
1515:.\Generated_Source\PSoC5/ADC_DelSig.c ****             /* This is only valid if there is an internal clock */
1516:.\Generated_Source\PSoC5/ADC_DelSig.c ****             #if(ADC_DelSig_DEFAULT_INTERNAL_CLK)
1517:.\Generated_Source\PSoC5/ADC_DelSig.c ****                 ADC_DelSig_theACLK_SetDividerRegister(ADC_DelSig_CFG4_ADC_CLK_DIVIDER, 1u);
1518:.\Generated_Source\PSoC5/ADC_DelSig.c ****             #endif /* ADC_DelSig_DEFAULT_INTERNAL_CLK */
1519:.\Generated_Source\PSoC5/ADC_DelSig.c **** 
1520:.\Generated_Source\PSoC5/ADC_DelSig.c ****             #if(ADC_DelSig_IRQ_REMOVE == 0u)
1521:.\Generated_Source\PSoC5/ADC_DelSig.c ****                 /* Set interrupt vector */
1522:.\Generated_Source\PSoC5/ADC_DelSig.c ****                 (void)CyIntSetVector(ADC_DelSig_INTC_NUMBER, &ADC_DelSig_ISR4);
1523:.\Generated_Source\PSoC5/ADC_DelSig.c ****             #endif   /* End ADC_DelSig_IRQ_REMOVE */
1524:.\Generated_Source\PSoC5/ADC_DelSig.c ****         }
1525:.\Generated_Source\PSoC5/ADC_DelSig.c ****     #endif /* ADC_DelSig_DEFAULT_NUM_CONFIGS > 3 */
1526:.\Generated_Source\PSoC5/ADC_DelSig.c **** }
 1882              		.loc 1 1526 0
 1883 00de 0837     		adds	r7, r7, #8
 1884              		.cfi_def_cfa_offset 8
 1885 00e0 BD46     		mov	sp, r7
 1886              		.cfi_def_cfa_register 13
 1887              		@ sp needed
 1888 00e2 80BD     		pop	{r7, pc}
 1889              	.L100:
 1890              		.align	2
 1891              	.L99:
 1892 00e4 00000000 		.word	ADC_DelSig_stopConversion
 1893 00e8 004E0040 		.word	1073761792
 1894 00ec 024E0040 		.word	1073761794
ARM GAS  C:\Users\LUKASC~1\AppData\Local\Temp\ccd9ca13.s 			page 61


 1895 00f0 034E0040 		.word	1073761795
 1896 00f4 044E0040 		.word	1073761796
 1897 00f8 054E0040 		.word	1073761797
 1898 00fc 064E0040 		.word	1073761798
 1899 0100 084E0040 		.word	1073761800
 1900 0104 094E0040 		.word	1073761801
 1901 0108 0A4E0040 		.word	1073761802
 1902 010c 144E0040 		.word	1073761812
 1903 0110 84580040 		.word	1073764484
 1904 0114 85580040 		.word	1073764485
 1905 0118 86580040 		.word	1073764486
 1906 011c 87580040 		.word	1073764487
 1907 0120 8A580040 		.word	1073764490
 1908 0124 8B580040 		.word	1073764491
 1909 0128 8C580040 		.word	1073764492
 1910 012c 8E580040 		.word	1073764494
 1911 0130 8F580040 		.word	1073764495
 1912 0134 90580040 		.word	1073764496
 1913 0138 91580040 		.word	1073764497
 1914 013c 94580040 		.word	1073764500
 1915 0140 95580040 		.word	1073764501
 1916 0144 9A580040 		.word	1073764506
 1917 0148 9B580040 		.word	1073764507
 1918 014c 9C580040 		.word	1073764508
 1919 0150 9D580040 		.word	1073764509
 1920 0154 00000000 		.word	ADC_DelSig_CountsPerVolt
 1921 0158 00000000 		.word	ADC_DelSig_ISR1
 1922              		.cfi_endproc
 1923              	.LFE19:
 1924              		.size	ADC_DelSig_InitConfig, .-ADC_DelSig_InitConfig
 1925              		.section	.text.ADC_DelSig_SelectConfiguration,"ax",%progbits
 1926              		.align	2
 1927              		.global	ADC_DelSig_SelectConfiguration
 1928              		.thumb
 1929              		.thumb_func
 1930              		.type	ADC_DelSig_SelectConfiguration, %function
 1931              	ADC_DelSig_SelectConfiguration:
 1932              	.LFB20:
1527:.\Generated_Source\PSoC5/ADC_DelSig.c **** 
1528:.\Generated_Source\PSoC5/ADC_DelSig.c **** 
1529:.\Generated_Source\PSoC5/ADC_DelSig.c **** /*******************************************************************************
1530:.\Generated_Source\PSoC5/ADC_DelSig.c **** * Function Name: ADC_DelSig_SelectCofiguration
1531:.\Generated_Source\PSoC5/ADC_DelSig.c **** ********************************************************************************
1532:.\Generated_Source\PSoC5/ADC_DelSig.c **** *
1533:.\Generated_Source\PSoC5/ADC_DelSig.c **** * Summary:
1534:.\Generated_Source\PSoC5/ADC_DelSig.c **** *  Sets one of up to four ADC configurations. Before setting the new
1535:.\Generated_Source\PSoC5/ADC_DelSig.c **** *  configuration, the ADC is stopped and powered down. After setting
1536:.\Generated_Source\PSoC5/ADC_DelSig.c **** *  the new configuration, the ADC can be powered and conversion
1537:.\Generated_Source\PSoC5/ADC_DelSig.c **** *  can be restarted depending up on the value of second parameter
1538:.\Generated_Source\PSoC5/ADC_DelSig.c **** *  restart. If the value of this parameter is 1, then ADC will be
1539:.\Generated_Source\PSoC5/ADC_DelSig.c **** *  restarted. If this value is zero, then user must call ADC_DelSig_Start
1540:.\Generated_Source\PSoC5/ADC_DelSig.c **** *  and ADC_DelSig_StartConvert() to restart the conversion.
1541:.\Generated_Source\PSoC5/ADC_DelSig.c **** *
1542:.\Generated_Source\PSoC5/ADC_DelSig.c **** * Parameters:
1543:.\Generated_Source\PSoC5/ADC_DelSig.c **** *  config:  configuration user wants to select.
1544:.\Generated_Source\PSoC5/ADC_DelSig.c **** *           Valid range: 1..4
1545:.\Generated_Source\PSoC5/ADC_DelSig.c **** *  restart:  Restart option. 1 means start the ADC and restart the conversion.
ARM GAS  C:\Users\LUKASC~1\AppData\Local\Temp\ccd9ca13.s 			page 62


1546:.\Generated_Source\PSoC5/ADC_DelSig.c **** *                            0 means do not start the ADC and conversion.
1547:.\Generated_Source\PSoC5/ADC_DelSig.c **** *
1548:.\Generated_Source\PSoC5/ADC_DelSig.c **** * Return:
1549:.\Generated_Source\PSoC5/ADC_DelSig.c **** *  None
1550:.\Generated_Source\PSoC5/ADC_DelSig.c **** *
1551:.\Generated_Source\PSoC5/ADC_DelSig.c **** *******************************************************************************/
1552:.\Generated_Source\PSoC5/ADC_DelSig.c **** void ADC_DelSig_SelectConfiguration(uint8 config, uint8 restart)
1553:.\Generated_Source\PSoC5/ADC_DelSig.c ****                                               
1554:.\Generated_Source\PSoC5/ADC_DelSig.c **** {
 1933              		.loc 1 1554 0
 1934              		.cfi_startproc
 1935              		@ args = 0, pretend = 0, frame = 8
 1936              		@ frame_needed = 1, uses_anonymous_args = 0
 1937 0000 80B5     		push	{r7, lr}
 1938              		.cfi_def_cfa_offset 8
 1939              		.cfi_offset 7, -8
 1940              		.cfi_offset 14, -4
 1941 0002 82B0     		sub	sp, sp, #8
 1942              		.cfi_def_cfa_offset 16
 1943 0004 00AF     		add	r7, sp, #0
 1944              		.cfi_def_cfa_register 7
 1945 0006 0346     		mov	r3, r0
 1946 0008 0A46     		mov	r2, r1
 1947 000a FB71     		strb	r3, [r7, #7]
 1948 000c 1346     		mov	r3, r2
 1949 000e BB71     		strb	r3, [r7, #6]
1555:.\Generated_Source\PSoC5/ADC_DelSig.c ****     /* Check whether the configuration number is valid or not */
1556:.\Generated_Source\PSoC5/ADC_DelSig.c ****     if((config > 0u) && (config <= ADC_DelSig_DEFAULT_NUM_CONFIGS))
 1950              		.loc 1 1556 0
 1951 0010 FB79     		ldrb	r3, [r7, #7]	@ zero_extendqisi2
 1952 0012 002B     		cmp	r3, #0
 1953 0014 2AD0     		beq	.L102
 1954              		.loc 1 1556 0 is_stmt 0 discriminator 1
 1955 0016 FB79     		ldrb	r3, [r7, #7]	@ zero_extendqisi2
 1956 0018 012B     		cmp	r3, #1
 1957 001a 27D8     		bhi	.L102
1557:.\Generated_Source\PSoC5/ADC_DelSig.c ****     {
1558:.\Generated_Source\PSoC5/ADC_DelSig.c ****         /* Set the flag to ensure Start() API doesn't override the 
1559:.\Generated_Source\PSoC5/ADC_DelSig.c **** 		*  selected configuration
1560:.\Generated_Source\PSoC5/ADC_DelSig.c **** 		*/
1561:.\Generated_Source\PSoC5/ADC_DelSig.c ****         if(ADC_DelSig_initVar == 0u)
 1958              		.loc 1 1561 0 is_stmt 1
 1959 001c 164B     		ldr	r3, .L106
 1960 001e 1B78     		ldrb	r3, [r3]	@ zero_extendqisi2
 1961 0020 002B     		cmp	r3, #0
 1962 0022 02D1     		bne	.L103
1562:.\Generated_Source\PSoC5/ADC_DelSig.c ****         {
1563:.\Generated_Source\PSoC5/ADC_DelSig.c ****             ADC_DelSig_started = 1u;
 1963              		.loc 1 1563 0
 1964 0024 154B     		ldr	r3, .L106+4
 1965 0026 0122     		movs	r2, #1
 1966 0028 1A70     		strb	r2, [r3]
 1967              	.L103:
1564:.\Generated_Source\PSoC5/ADC_DelSig.c ****         }
1565:.\Generated_Source\PSoC5/ADC_DelSig.c **** 
1566:.\Generated_Source\PSoC5/ADC_DelSig.c ****         /* Update the config flag */
1567:.\Generated_Source\PSoC5/ADC_DelSig.c ****         ADC_DelSig_Config = config;
ARM GAS  C:\Users\LUKASC~1\AppData\Local\Temp\ccd9ca13.s 			page 63


 1968              		.loc 1 1567 0
 1969 002a 154A     		ldr	r2, .L106+8
 1970 002c FB79     		ldrb	r3, [r7, #7]
 1971 002e 1370     		strb	r3, [r2]
1568:.\Generated_Source\PSoC5/ADC_DelSig.c **** 
1569:.\Generated_Source\PSoC5/ADC_DelSig.c ****         /* Stop the ADC  */
1570:.\Generated_Source\PSoC5/ADC_DelSig.c ****         ADC_DelSig_Stop();
 1972              		.loc 1 1570 0
 1973 0030 FFF7FEFF 		bl	ADC_DelSig_Stop
1571:.\Generated_Source\PSoC5/ADC_DelSig.c **** 
1572:.\Generated_Source\PSoC5/ADC_DelSig.c ****         /* Set the  ADC registers based on the configuration */
1573:.\Generated_Source\PSoC5/ADC_DelSig.c ****         ADC_DelSig_InitConfig(config);
 1974              		.loc 1 1573 0
 1975 0034 FB79     		ldrb	r3, [r7, #7]	@ zero_extendqisi2
 1976 0036 1846     		mov	r0, r3
 1977 0038 FFF7FEFF 		bl	ADC_DelSig_InitConfig
1574:.\Generated_Source\PSoC5/ADC_DelSig.c **** 
1575:.\Generated_Source\PSoC5/ADC_DelSig.c ****         /* Compensate the gain */
1576:.\Generated_Source\PSoC5/ADC_DelSig.c ****         ADC_DelSig_DEC_GVAL_REG = ADC_DelSig_gcor[config - 1u].gval;
 1978              		.loc 1 1576 0
 1979 003c 114A     		ldr	r2, .L106+12
 1980 003e FB79     		ldrb	r3, [r7, #7]	@ zero_extendqisi2
 1981 0040 013B     		subs	r3, r3, #1
 1982 0042 1149     		ldr	r1, .L106+16
 1983 0044 9B00     		lsls	r3, r3, #2
 1984 0046 0B44     		add	r3, r3, r1
 1985 0048 9B78     		ldrb	r3, [r3, #2]	@ zero_extendqisi2
 1986 004a 1370     		strb	r3, [r2]
1577:.\Generated_Source\PSoC5/ADC_DelSig.c ****         CY_SET_REG16(ADC_DelSig_DEC_GCOR_16B_PTR, ADC_DelSig_gcor[config - 1u].gcor);
 1987              		.loc 1 1577 0
 1988 004c 0F4A     		ldr	r2, .L106+20
 1989 004e FB79     		ldrb	r3, [r7, #7]	@ zero_extendqisi2
 1990 0050 013B     		subs	r3, r3, #1
 1991 0052 0D49     		ldr	r1, .L106+16
 1992 0054 31F82330 		ldrh	r3, [r1, r3, lsl #2]
 1993 0058 1380     		strh	r3, [r2]	@ movhi
1578:.\Generated_Source\PSoC5/ADC_DelSig.c **** 
1579:.\Generated_Source\PSoC5/ADC_DelSig.c ****         if(restart == 1u)
 1994              		.loc 1 1579 0
 1995 005a BB79     		ldrb	r3, [r7, #6]	@ zero_extendqisi2
 1996 005c 012B     		cmp	r3, #1
 1997 005e 04D1     		bne	.L104
1580:.\Generated_Source\PSoC5/ADC_DelSig.c ****         {
1581:.\Generated_Source\PSoC5/ADC_DelSig.c ****             /* Restart the ADC */
1582:.\Generated_Source\PSoC5/ADC_DelSig.c ****             ADC_DelSig_Start();
 1998              		.loc 1 1582 0
 1999 0060 FFF7FEFF 		bl	ADC_DelSig_Start
1583:.\Generated_Source\PSoC5/ADC_DelSig.c **** 
1584:.\Generated_Source\PSoC5/ADC_DelSig.c ****             /* Restart the ADC conversion */
1585:.\Generated_Source\PSoC5/ADC_DelSig.c ****             ADC_DelSig_StartConvert();
 2000              		.loc 1 1585 0
 2001 0064 FFF7FEFF 		bl	ADC_DelSig_StartConvert
1579:.\Generated_Source\PSoC5/ADC_DelSig.c ****         {
 2002              		.loc 1 1579 0
 2003 0068 03E0     		b	.L101
 2004              	.L104:
 2005 006a 02E0     		b	.L101
ARM GAS  C:\Users\LUKASC~1\AppData\Local\Temp\ccd9ca13.s 			page 64


 2006              	.L102:
1586:.\Generated_Source\PSoC5/ADC_DelSig.c ****         }
1587:.\Generated_Source\PSoC5/ADC_DelSig.c ****     }
1588:.\Generated_Source\PSoC5/ADC_DelSig.c ****     else
1589:.\Generated_Source\PSoC5/ADC_DelSig.c ****     {
1590:.\Generated_Source\PSoC5/ADC_DelSig.c ****         /* Halt CPU in debug mode if config is out of valid range */
1591:.\Generated_Source\PSoC5/ADC_DelSig.c ****         CYASSERT(0u != 0u);
 2007              		.loc 1 1591 0 discriminator 1
 2008 006c 0020     		movs	r0, #0
 2009 006e FFF7FEFF 		bl	CyHalt
 2010              	.L101:
1592:.\Generated_Source\PSoC5/ADC_DelSig.c ****     }
1593:.\Generated_Source\PSoC5/ADC_DelSig.c **** }
 2011              		.loc 1 1593 0
 2012 0072 0837     		adds	r7, r7, #8
 2013              		.cfi_def_cfa_offset 8
 2014 0074 BD46     		mov	sp, r7
 2015              		.cfi_def_cfa_register 13
 2016              		@ sp needed
 2017 0076 80BD     		pop	{r7, pc}
 2018              	.L107:
 2019              		.align	2
 2020              	.L106:
 2021 0078 00000000 		.word	ADC_DelSig_initVar
 2022 007c 00000000 		.word	ADC_DelSig_started
 2023 0080 00000000 		.word	ADC_DelSig_Config
 2024 0084 0E4E0040 		.word	1073761806
 2025 0088 04000000 		.word	ADC_DelSig_gcor
 2026 008c 0C4E0040 		.word	1073761804
 2027              		.cfi_endproc
 2028              	.LFE20:
 2029              		.size	ADC_DelSig_SelectConfiguration, .-ADC_DelSig_SelectConfiguration
 2030              		.section	.text.ADC_DelSig_GainCompensation,"ax",%progbits
 2031              		.align	2
 2032              		.thumb
 2033              		.thumb_func
 2034              		.type	ADC_DelSig_GainCompensation, %function
 2035              	ADC_DelSig_GainCompensation:
 2036              	.LFB21:
1594:.\Generated_Source\PSoC5/ADC_DelSig.c **** 
1595:.\Generated_Source\PSoC5/ADC_DelSig.c **** 
1596:.\Generated_Source\PSoC5/ADC_DelSig.c **** /*******************************************************************************
1597:.\Generated_Source\PSoC5/ADC_DelSig.c **** * Function Name: ADC_DelSig_GainCompensation
1598:.\Generated_Source\PSoC5/ADC_DelSig.c **** ********************************************************************************
1599:.\Generated_Source\PSoC5/ADC_DelSig.c **** *
1600:.\Generated_Source\PSoC5/ADC_DelSig.c **** * Summary:
1601:.\Generated_Source\PSoC5/ADC_DelSig.c **** *  This API calculates the trim value and then store this to gcor structure.
1602:.\Generated_Source\PSoC5/ADC_DelSig.c **** *
1603:.\Generated_Source\PSoC5/ADC_DelSig.c **** * Parameters:
1604:.\Generated_Source\PSoC5/ADC_DelSig.c **** *  inputRange:  input range for which trim value is to be calculated.
1605:.\Generated_Source\PSoC5/ADC_DelSig.c **** *  IdealDecGain:  Ideal Decimator gain for the selected resolution and
1606:.\Generated_Source\PSoC5/ADC_DelSig.c **** *                 conversion  mode.
1607:.\Generated_Source\PSoC5/ADC_DelSig.c **** *  IdealOddDecGain:  Ideal odd decimation gain for the selected resolution and
1608:.\Generated_Source\PSoC5/ADC_DelSig.c ****                      conversion mode.
1609:.\Generated_Source\PSoC5/ADC_DelSig.c **** *  resolution:  Resolution to select the proper flash location for trim value.
1610:.\Generated_Source\PSoC5/ADC_DelSig.c **** *  config:      Specifies the configuration number
1611:.\Generated_Source\PSoC5/ADC_DelSig.c **** *               Valid range: 1..4
ARM GAS  C:\Users\LUKASC~1\AppData\Local\Temp\ccd9ca13.s 			page 65


1612:.\Generated_Source\PSoC5/ADC_DelSig.c **** *
1613:.\Generated_Source\PSoC5/ADC_DelSig.c **** * Return:
1614:.\Generated_Source\PSoC5/ADC_DelSig.c **** *  None
1615:.\Generated_Source\PSoC5/ADC_DelSig.c **** *
1616:.\Generated_Source\PSoC5/ADC_DelSig.c **** *******************************************************************************/
1617:.\Generated_Source\PSoC5/ADC_DelSig.c **** static void ADC_DelSig_GainCompensation(uint8 inputRange, uint16 idealDecGain, uint16 idealOddDecGa
1618:.\Generated_Source\PSoC5/ADC_DelSig.c ****                               uint8 resolution, uint8 config) 
1619:.\Generated_Source\PSoC5/ADC_DelSig.c **** {
 2037              		.loc 1 1619 0
 2038              		.cfi_startproc
 2039              		@ args = 4, pretend = 0, frame = 24
 2040              		@ frame_needed = 1, uses_anonymous_args = 0
 2041 0000 90B5     		push	{r4, r7, lr}
 2042              		.cfi_def_cfa_offset 12
 2043              		.cfi_offset 4, -12
 2044              		.cfi_offset 7, -8
 2045              		.cfi_offset 14, -4
 2046 0002 87B0     		sub	sp, sp, #28
 2047              		.cfi_def_cfa_offset 40
 2048 0004 00AF     		add	r7, sp, #0
 2049              		.cfi_def_cfa_register 7
 2050 0006 0446     		mov	r4, r0
 2051 0008 0846     		mov	r0, r1
 2052 000a 1146     		mov	r1, r2
 2053 000c 1A46     		mov	r2, r3
 2054 000e 2346     		mov	r3, r4
 2055 0010 FB71     		strb	r3, [r7, #7]
 2056 0012 0346     		mov	r3, r0	@ movhi
 2057 0014 BB80     		strh	r3, [r7, #4]	@ movhi
 2058 0016 0B46     		mov	r3, r1	@ movhi
 2059 0018 7B80     		strh	r3, [r7, #2]	@ movhi
 2060 001a 1346     		mov	r3, r2
 2061 001c BB71     		strb	r3, [r7, #6]
1620:.\Generated_Source\PSoC5/ADC_DelSig.c ****     int8 flash;
1621:.\Generated_Source\PSoC5/ADC_DelSig.c **** 	int32 normalised;
1622:.\Generated_Source\PSoC5/ADC_DelSig.c **** 	uint16 gcorValue;
1623:.\Generated_Source\PSoC5/ADC_DelSig.c ****     uint32 gcorTmp;
1624:.\Generated_Source\PSoC5/ADC_DelSig.c **** 
1625:.\Generated_Source\PSoC5/ADC_DelSig.c ****     if((config > 0u) && (config <= ADC_DelSig_DEFAULT_NUM_CONFIGS))
 2062              		.loc 1 1625 0
 2063 001e 97F82830 		ldrb	r3, [r7, #40]	@ zero_extendqisi2
 2064 0022 002B     		cmp	r3, #0
 2065 0024 00F08A80 		beq	.L109
 2066              		.loc 1 1625 0 is_stmt 0 discriminator 1
 2067 0028 97F82830 		ldrb	r3, [r7, #40]	@ zero_extendqisi2
 2068 002c 012B     		cmp	r3, #1
 2069 002e 00F28580 		bhi	.L109
1626:.\Generated_Source\PSoC5/ADC_DelSig.c ****     {
1627:.\Generated_Source\PSoC5/ADC_DelSig.c ****         switch(inputRange)
 2070              		.loc 1 1627 0 is_stmt 1
 2071 0032 FB79     		ldrb	r3, [r7, #7]	@ zero_extendqisi2
 2072 0034 013B     		subs	r3, r3, #1
 2073 0036 092B     		cmp	r3, #9
 2074 0038 4AD8     		bhi	.L110
 2075 003a 01A2     		adr	r2, .L112
 2076 003c 52F823F0 		ldr	pc, [r2, r3, lsl #2]
 2077              		.p2align 2
ARM GAS  C:\Users\LUKASC~1\AppData\Local\Temp\ccd9ca13.s 			page 66


 2078              	.L112:
 2079 0040 69000000 		.word	.L111+1
 2080 0044 D1000000 		.word	.L110+1
 2081 0048 D1000000 		.word	.L110+1
 2082 004c 69000000 		.word	.L111+1
 2083 0050 D1000000 		.word	.L110+1
 2084 0054 D1000000 		.word	.L110+1
 2085 0058 83000000 		.word	.L113+1
 2086 005c 9D000000 		.word	.L114+1
 2087 0060 D1000000 		.word	.L110+1
 2088 0064 B7000000 		.word	.L115+1
 2089              		.p2align 1
 2090              	.L111:
1628:.\Generated_Source\PSoC5/ADC_DelSig.c ****         {
1629:.\Generated_Source\PSoC5/ADC_DelSig.c ****             case ADC_DelSig_IR_VNEG_VREF_DIFF:
1630:.\Generated_Source\PSoC5/ADC_DelSig.c ****             case ADC_DelSig_IR_VSSA_TO_2VREF:
1631:.\Generated_Source\PSoC5/ADC_DelSig.c ****                 /* Normalize the flash Value */
1632:.\Generated_Source\PSoC5/ADC_DelSig.c ****                 if(resolution > 15u)
 2091              		.loc 1 1632 0
 2092 0068 BB79     		ldrb	r3, [r7, #6]	@ zero_extendqisi2
 2093 006a 0F2B     		cmp	r3, #15
 2094 006c 04D9     		bls	.L116
1633:.\Generated_Source\PSoC5/ADC_DelSig.c ****                 {
1634:.\Generated_Source\PSoC5/ADC_DelSig.c ****                     flash = ADC_DelSig_DEC_TRIM_VREF_DIFF_16_20;
 2095              		.loc 1 1634 0
 2096 006e 364B     		ldr	r3, .L128
 2097 0070 1B78     		ldrb	r3, [r3]
 2098 0072 DBB2     		uxtb	r3, r3
 2099 0074 FB75     		strb	r3, [r7, #23]
1635:.\Generated_Source\PSoC5/ADC_DelSig.c ****                 }
1636:.\Generated_Source\PSoC5/ADC_DelSig.c ****                 else
1637:.\Generated_Source\PSoC5/ADC_DelSig.c ****                 {
1638:.\Generated_Source\PSoC5/ADC_DelSig.c ****                     flash = ADC_DelSig_DEC_TRIM_VREF_DIFF_8_15;
1639:.\Generated_Source\PSoC5/ADC_DelSig.c ****                 }
1640:.\Generated_Source\PSoC5/ADC_DelSig.c ****                 break;
 2100              		.loc 1 1640 0
 2101 0076 2EE0     		b	.L118
 2102              	.L116:
1638:.\Generated_Source\PSoC5/ADC_DelSig.c ****                 }
 2103              		.loc 1 1638 0
 2104 0078 344B     		ldr	r3, .L128+4
 2105 007a 1B78     		ldrb	r3, [r3]
 2106 007c DBB2     		uxtb	r3, r3
 2107 007e FB75     		strb	r3, [r7, #23]
 2108              		.loc 1 1640 0
 2109 0080 29E0     		b	.L118
 2110              	.L113:
1641:.\Generated_Source\PSoC5/ADC_DelSig.c **** 
1642:.\Generated_Source\PSoC5/ADC_DelSig.c ****             case ADC_DelSig_IR_VNEG_VREF_2_DIFF:
1643:.\Generated_Source\PSoC5/ADC_DelSig.c ****                 /* Normalize the flash Value */
1644:.\Generated_Source\PSoC5/ADC_DelSig.c ****                 if(resolution > 15u)
 2111              		.loc 1 1644 0
 2112 0082 BB79     		ldrb	r3, [r7, #6]	@ zero_extendqisi2
 2113 0084 0F2B     		cmp	r3, #15
 2114 0086 04D9     		bls	.L119
1645:.\Generated_Source\PSoC5/ADC_DelSig.c ****                 {
1646:.\Generated_Source\PSoC5/ADC_DelSig.c ****                     flash = ADC_DelSig_DEC_TRIM_VREF_2_DIFF_16_20;
ARM GAS  C:\Users\LUKASC~1\AppData\Local\Temp\ccd9ca13.s 			page 67


 2115              		.loc 1 1646 0
 2116 0088 314B     		ldr	r3, .L128+8
 2117 008a 1B78     		ldrb	r3, [r3]
 2118 008c DBB2     		uxtb	r3, r3
 2119 008e FB75     		strb	r3, [r7, #23]
1647:.\Generated_Source\PSoC5/ADC_DelSig.c ****                 }
1648:.\Generated_Source\PSoC5/ADC_DelSig.c ****                 else
1649:.\Generated_Source\PSoC5/ADC_DelSig.c ****                 {
1650:.\Generated_Source\PSoC5/ADC_DelSig.c ****                     flash = ADC_DelSig_DEC_TRIM_VREF_2_DIFF_8_15;
1651:.\Generated_Source\PSoC5/ADC_DelSig.c ****                 }
1652:.\Generated_Source\PSoC5/ADC_DelSig.c ****                 break;
 2120              		.loc 1 1652 0
 2121 0090 21E0     		b	.L118
 2122              	.L119:
1650:.\Generated_Source\PSoC5/ADC_DelSig.c ****                 }
 2123              		.loc 1 1650 0
 2124 0092 304B     		ldr	r3, .L128+12
 2125 0094 1B78     		ldrb	r3, [r3]
 2126 0096 DBB2     		uxtb	r3, r3
 2127 0098 FB75     		strb	r3, [r7, #23]
 2128              		.loc 1 1652 0
 2129 009a 1CE0     		b	.L118
 2130              	.L114:
1653:.\Generated_Source\PSoC5/ADC_DelSig.c **** 
1654:.\Generated_Source\PSoC5/ADC_DelSig.c ****             case ADC_DelSig_IR_VNEG_VREF_4_DIFF:
1655:.\Generated_Source\PSoC5/ADC_DelSig.c ****                 /* Normalize the flash Value */
1656:.\Generated_Source\PSoC5/ADC_DelSig.c ****                 if(resolution > 15u)
 2131              		.loc 1 1656 0
 2132 009c BB79     		ldrb	r3, [r7, #6]	@ zero_extendqisi2
 2133 009e 0F2B     		cmp	r3, #15
 2134 00a0 04D9     		bls	.L121
1657:.\Generated_Source\PSoC5/ADC_DelSig.c ****                 {
1658:.\Generated_Source\PSoC5/ADC_DelSig.c ****                     flash = ADC_DelSig_DEC_TRIM_VREF_4_DIFF_16_20;
 2135              		.loc 1 1658 0
 2136 00a2 2D4B     		ldr	r3, .L128+16
 2137 00a4 1B78     		ldrb	r3, [r3]
 2138 00a6 DBB2     		uxtb	r3, r3
 2139 00a8 FB75     		strb	r3, [r7, #23]
1659:.\Generated_Source\PSoC5/ADC_DelSig.c ****                 }
1660:.\Generated_Source\PSoC5/ADC_DelSig.c ****                 else
1661:.\Generated_Source\PSoC5/ADC_DelSig.c ****                 {
1662:.\Generated_Source\PSoC5/ADC_DelSig.c ****                     flash = ADC_DelSig_DEC_TRIM_VREF_4_DIFF_8_15;
1663:.\Generated_Source\PSoC5/ADC_DelSig.c ****                 }
1664:.\Generated_Source\PSoC5/ADC_DelSig.c ****                 break;
 2140              		.loc 1 1664 0
 2141 00aa 14E0     		b	.L118
 2142              	.L121:
1662:.\Generated_Source\PSoC5/ADC_DelSig.c ****                 }
 2143              		.loc 1 1662 0
 2144 00ac 2B4B     		ldr	r3, .L128+20
 2145 00ae 1B78     		ldrb	r3, [r3]
 2146 00b0 DBB2     		uxtb	r3, r3
 2147 00b2 FB75     		strb	r3, [r7, #23]
 2148              		.loc 1 1664 0
 2149 00b4 0FE0     		b	.L118
 2150              	.L115:
1665:.\Generated_Source\PSoC5/ADC_DelSig.c **** 
ARM GAS  C:\Users\LUKASC~1\AppData\Local\Temp\ccd9ca13.s 			page 68


1666:.\Generated_Source\PSoC5/ADC_DelSig.c ****             case ADC_DelSig_IR_VNEG_VREF_16_DIFF:
1667:.\Generated_Source\PSoC5/ADC_DelSig.c ****                 /* Normalize the flash Value */
1668:.\Generated_Source\PSoC5/ADC_DelSig.c ****                 if(resolution > 15u)
 2151              		.loc 1 1668 0
 2152 00b6 BB79     		ldrb	r3, [r7, #6]	@ zero_extendqisi2
 2153 00b8 0F2B     		cmp	r3, #15
 2154 00ba 04D9     		bls	.L123
1669:.\Generated_Source\PSoC5/ADC_DelSig.c ****                 {
1670:.\Generated_Source\PSoC5/ADC_DelSig.c ****                     flash = ADC_DelSig_DEC_TRIM_VREF_16_DIFF_16_20;
 2155              		.loc 1 1670 0
 2156 00bc 284B     		ldr	r3, .L128+24
 2157 00be 1B78     		ldrb	r3, [r3]
 2158 00c0 DBB2     		uxtb	r3, r3
 2159 00c2 FB75     		strb	r3, [r7, #23]
1671:.\Generated_Source\PSoC5/ADC_DelSig.c ****                 }
1672:.\Generated_Source\PSoC5/ADC_DelSig.c ****                 else
1673:.\Generated_Source\PSoC5/ADC_DelSig.c ****                 {
1674:.\Generated_Source\PSoC5/ADC_DelSig.c ****                     flash = ADC_DelSig_DEC_TRIM_VREF_16_DIFF_8_15;
1675:.\Generated_Source\PSoC5/ADC_DelSig.c ****                 }
1676:.\Generated_Source\PSoC5/ADC_DelSig.c ****                 break;
 2160              		.loc 1 1676 0
 2161 00c4 07E0     		b	.L118
 2162              	.L123:
1674:.\Generated_Source\PSoC5/ADC_DelSig.c ****                 }
 2163              		.loc 1 1674 0
 2164 00c6 274B     		ldr	r3, .L128+28
 2165 00c8 1B78     		ldrb	r3, [r3]
 2166 00ca DBB2     		uxtb	r3, r3
 2167 00cc FB75     		strb	r3, [r7, #23]
 2168              		.loc 1 1676 0
 2169 00ce 02E0     		b	.L118
 2170              	.L110:
1677:.\Generated_Source\PSoC5/ADC_DelSig.c **** 
1678:.\Generated_Source\PSoC5/ADC_DelSig.c ****             default:
1679:.\Generated_Source\PSoC5/ADC_DelSig.c ****                 flash = 0;
 2171              		.loc 1 1679 0
 2172 00d0 0023     		movs	r3, #0
 2173 00d2 FB75     		strb	r3, [r7, #23]
1680:.\Generated_Source\PSoC5/ADC_DelSig.c ****                 break;
 2174              		.loc 1 1680 0
 2175 00d4 00BF     		nop
 2176              	.L118:
1681:.\Generated_Source\PSoC5/ADC_DelSig.c ****         }
1682:.\Generated_Source\PSoC5/ADC_DelSig.c **** 
1683:.\Generated_Source\PSoC5/ADC_DelSig.c ****         /* Add two values */
1684:.\Generated_Source\PSoC5/ADC_DelSig.c **** 		normalised = (int32)idealDecGain + ((int32)flash * 32);
 2177              		.loc 1 1684 0
 2178 00d6 BA88     		ldrh	r2, [r7, #4]
 2179 00d8 97F91730 		ldrsb	r3, [r7, #23]
 2180 00dc 5B01     		lsls	r3, r3, #5
 2181 00de 1344     		add	r3, r3, r2
 2182 00e0 3B61     		str	r3, [r7, #16]
1685:.\Generated_Source\PSoC5/ADC_DelSig.c ****         gcorTmp = (uint32)normalised * (uint32)idealOddDecGain;
 2183              		.loc 1 1685 0
 2184 00e2 7B88     		ldrh	r3, [r7, #2]
 2185 00e4 3A69     		ldr	r2, [r7, #16]
 2186 00e6 02FB03F3 		mul	r3, r2, r3
ARM GAS  C:\Users\LUKASC~1\AppData\Local\Temp\ccd9ca13.s 			page 69


 2187 00ea FB60     		str	r3, [r7, #12]
1686:.\Generated_Source\PSoC5/ADC_DelSig.c ****         gcorValue = (uint16)(gcorTmp / ADC_DelSig_IDEAL_GAIN_CONST);
 2188              		.loc 1 1686 0
 2189 00ec FB68     		ldr	r3, [r7, #12]
 2190 00ee DB0B     		lsrs	r3, r3, #15
 2191 00f0 BB82     		strh	r3, [r7, #20]	@ movhi
1687:.\Generated_Source\PSoC5/ADC_DelSig.c **** 
1688:.\Generated_Source\PSoC5/ADC_DelSig.c ****         if (resolution < (ADC_DelSig_MAX_GVAL - 1u))
 2192              		.loc 1 1688 0
 2193 00f2 BB79     		ldrb	r3, [r7, #6]	@ zero_extendqisi2
 2194 00f4 0D2B     		cmp	r3, #13
 2195 00f6 11D8     		bhi	.L125
1689:.\Generated_Source\PSoC5/ADC_DelSig.c ****         {
1690:.\Generated_Source\PSoC5/ADC_DelSig.c ****             gcorValue = (gcorValue >> (ADC_DelSig_MAX_GVAL - (resolution + 1u)));
 2196              		.loc 1 1690 0
 2197 00f8 BB8A     		ldrh	r3, [r7, #20]
 2198 00fa BA79     		ldrb	r2, [r7, #6]	@ zero_extendqisi2
 2199 00fc C2F10E02 		rsb	r2, r2, #14
 2200 0100 1341     		asrs	r3, r3, r2
 2201 0102 BB82     		strh	r3, [r7, #20]	@ movhi
1691:.\Generated_Source\PSoC5/ADC_DelSig.c ****             ADC_DelSig_gcor[config - 1u].gval = (resolution + 1u);
 2202              		.loc 1 1691 0
 2203 0104 97F82830 		ldrb	r3, [r7, #40]	@ zero_extendqisi2
 2204 0108 013B     		subs	r3, r3, #1
 2205 010a BA79     		ldrb	r2, [r7, #6]
 2206 010c 0132     		adds	r2, r2, #1
 2207 010e D1B2     		uxtb	r1, r2
 2208 0110 154A     		ldr	r2, .L128+32
 2209 0112 9B00     		lsls	r3, r3, #2
 2210 0114 1344     		add	r3, r3, r2
 2211 0116 0A46     		mov	r2, r1
 2212 0118 9A70     		strb	r2, [r3, #2]
 2213 011a 07E0     		b	.L126
 2214              	.L125:
1692:.\Generated_Source\PSoC5/ADC_DelSig.c ****         }
1693:.\Generated_Source\PSoC5/ADC_DelSig.c ****         else
1694:.\Generated_Source\PSoC5/ADC_DelSig.c ****         {
1695:.\Generated_Source\PSoC5/ADC_DelSig.c ****             /* Use all 16 bits */
1696:.\Generated_Source\PSoC5/ADC_DelSig.c ****             ADC_DelSig_gcor[config - 1u].gval = ADC_DelSig_MAX_GVAL;
 2215              		.loc 1 1696 0
 2216 011c 97F82830 		ldrb	r3, [r7, #40]	@ zero_extendqisi2
 2217 0120 013B     		subs	r3, r3, #1
 2218 0122 114A     		ldr	r2, .L128+32
 2219 0124 9B00     		lsls	r3, r3, #2
 2220 0126 1344     		add	r3, r3, r2
 2221 0128 0F22     		movs	r2, #15
 2222 012a 9A70     		strb	r2, [r3, #2]
 2223              	.L126:
1697:.\Generated_Source\PSoC5/ADC_DelSig.c ****         }
1698:.\Generated_Source\PSoC5/ADC_DelSig.c **** 
1699:.\Generated_Source\PSoC5/ADC_DelSig.c ****         /* Save the gain correction register value */
1700:.\Generated_Source\PSoC5/ADC_DelSig.c ****         ADC_DelSig_gcor[config - 1u].gcor = gcorValue;
 2224              		.loc 1 1700 0
 2225 012c 97F82830 		ldrb	r3, [r7, #40]	@ zero_extendqisi2
 2226 0130 013B     		subs	r3, r3, #1
 2227 0132 0D49     		ldr	r1, .L128+32
 2228 0134 BA8A     		ldrh	r2, [r7, #20]	@ movhi
ARM GAS  C:\Users\LUKASC~1\AppData\Local\Temp\ccd9ca13.s 			page 70


 2229 0136 21F82320 		strh	r2, [r1, r3, lsl #2]	@ movhi
 2230 013a 02E0     		b	.L108
 2231              	.L109:
1701:.\Generated_Source\PSoC5/ADC_DelSig.c ****     }
1702:.\Generated_Source\PSoC5/ADC_DelSig.c ****     else
1703:.\Generated_Source\PSoC5/ADC_DelSig.c ****     {
1704:.\Generated_Source\PSoC5/ADC_DelSig.c ****         /* Halt CPU in debug mode if config is out of valid range */
1705:.\Generated_Source\PSoC5/ADC_DelSig.c ****         CYASSERT(0u != 0u);
 2232              		.loc 1 1705 0 discriminator 1
 2233 013c 0020     		movs	r0, #0
 2234 013e FFF7FEFF 		bl	CyHalt
 2235              	.L108:
1706:.\Generated_Source\PSoC5/ADC_DelSig.c ****     }
1707:.\Generated_Source\PSoC5/ADC_DelSig.c **** }
 2236              		.loc 1 1707 0
 2237 0142 1C37     		adds	r7, r7, #28
 2238              		.cfi_def_cfa_offset 12
 2239 0144 BD46     		mov	sp, r7
 2240              		.cfi_def_cfa_register 13
 2241              		@ sp needed
 2242 0146 90BD     		pop	{r4, r7, pc}
 2243              	.L129:
 2244              		.align	2
 2245              	.L128:
 2246 0148 18010049 		.word	1224737048
 2247 014c 1C010049 		.word	1224737052
 2248 0150 19010049 		.word	1224737049
 2249 0154 1D010049 		.word	1224737053
 2250 0158 1A010049 		.word	1224737050
 2251 015c 1E010049 		.word	1224737054
 2252 0160 1B010049 		.word	1224737051
 2253 0164 1F010049 		.word	1224737055
 2254 0168 04000000 		.word	ADC_DelSig_gcor
 2255              		.cfi_endproc
 2256              	.LFE21:
 2257              		.size	ADC_DelSig_GainCompensation, .-ADC_DelSig_GainCompensation
 2258              		.section	.text.ADC_DelSig_SetDSMRef0Reg,"ax",%progbits
 2259              		.align	2
 2260              		.thumb
 2261              		.thumb_func
 2262              		.type	ADC_DelSig_SetDSMRef0Reg, %function
 2263              	ADC_DelSig_SetDSMRef0Reg:
 2264              	.LFB22:
1708:.\Generated_Source\PSoC5/ADC_DelSig.c **** 
1709:.\Generated_Source\PSoC5/ADC_DelSig.c **** 
1710:.\Generated_Source\PSoC5/ADC_DelSig.c **** /******************************************************************************
1711:.\Generated_Source\PSoC5/ADC_DelSig.c **** * Function Name: ADC_DelSig_SetDSMRef0Reg(uint8)
1712:.\Generated_Source\PSoC5/ADC_DelSig.c **** ******************************************************************************
1713:.\Generated_Source\PSoC5/ADC_DelSig.c **** *
1714:.\Generated_Source\PSoC5/ADC_DelSig.c **** * Summary:
1715:.\Generated_Source\PSoC5/ADC_DelSig.c **** *  This API sets the DSM_REF0 register. This is written for internal use.
1716:.\Generated_Source\PSoC5/ADC_DelSig.c **** *
1717:.\Generated_Source\PSoC5/ADC_DelSig.c **** * Parameters:
1718:.\Generated_Source\PSoC5/ADC_DelSig.c **** *  value:  Value to be written to DSM_REF0 register.
1719:.\Generated_Source\PSoC5/ADC_DelSig.c **** *
1720:.\Generated_Source\PSoC5/ADC_DelSig.c **** * Return:
1721:.\Generated_Source\PSoC5/ADC_DelSig.c **** *  None
ARM GAS  C:\Users\LUKASC~1\AppData\Local\Temp\ccd9ca13.s 			page 71


1722:.\Generated_Source\PSoC5/ADC_DelSig.c **** *
1723:.\Generated_Source\PSoC5/ADC_DelSig.c **** ******************************************************************************/
1724:.\Generated_Source\PSoC5/ADC_DelSig.c **** static void ADC_DelSig_SetDSMRef0Reg(uint8 value) 
1725:.\Generated_Source\PSoC5/ADC_DelSig.c **** {
 2265              		.loc 1 1725 0
 2266              		.cfi_startproc
 2267              		@ args = 0, pretend = 0, frame = 16
 2268              		@ frame_needed = 1, uses_anonymous_args = 0
 2269 0000 80B5     		push	{r7, lr}
 2270              		.cfi_def_cfa_offset 8
 2271              		.cfi_offset 7, -8
 2272              		.cfi_offset 14, -4
 2273 0002 84B0     		sub	sp, sp, #16
 2274              		.cfi_def_cfa_offset 24
 2275 0004 00AF     		add	r7, sp, #0
 2276              		.cfi_def_cfa_register 7
 2277 0006 0346     		mov	r3, r0
 2278 0008 FB71     		strb	r3, [r7, #7]
1726:.\Generated_Source\PSoC5/ADC_DelSig.c ****     uint8 enableInterrupts;
1727:.\Generated_Source\PSoC5/ADC_DelSig.c ****     enableInterrupts = CyEnterCriticalSection();
 2279              		.loc 1 1727 0
 2280 000a FFF7FEFF 		bl	CyEnterCriticalSection
 2281 000e 0346     		mov	r3, r0
 2282 0010 FB73     		strb	r3, [r7, #15]
1728:.\Generated_Source\PSoC5/ADC_DelSig.c **** 
1729:.\Generated_Source\PSoC5/ADC_DelSig.c ****     /* Disable PRES, Enable power to VCMBUF0, REFBUF0 and REFBUF1, enable PRES */
1730:.\Generated_Source\PSoC5/ADC_DelSig.c ****     ADC_DelSig_RESET_CR4_REG |= (ADC_DelSig_IGNORE_PRESA1 | ADC_DelSig_IGNORE_PRESD1);
 2283              		.loc 1 1730 0
 2284 0012 164A     		ldr	r2, .L131
 2285 0014 154B     		ldr	r3, .L131
 2286 0016 1B78     		ldrb	r3, [r3]
 2287 0018 DBB2     		uxtb	r3, r3
 2288 001a 43F00303 		orr	r3, r3, #3
 2289 001e DBB2     		uxtb	r3, r3
 2290 0020 1370     		strb	r3, [r2]
1731:.\Generated_Source\PSoC5/ADC_DelSig.c ****     ADC_DelSig_RESET_CR5_REG |= (ADC_DelSig_IGNORE_PRESA2 | ADC_DelSig_IGNORE_PRESD2);
 2291              		.loc 1 1731 0
 2292 0022 134A     		ldr	r2, .L131+4
 2293 0024 124B     		ldr	r3, .L131+4
 2294 0026 1B78     		ldrb	r3, [r3]
 2295 0028 DBB2     		uxtb	r3, r3
 2296 002a 43F00303 		orr	r3, r3, #3
 2297 002e DBB2     		uxtb	r3, r3
 2298 0030 1370     		strb	r3, [r2]
1732:.\Generated_Source\PSoC5/ADC_DelSig.c ****     ADC_DelSig_DSM_REF0_REG = value;
 2299              		.loc 1 1732 0
 2300 0032 104A     		ldr	r2, .L131+8
 2301 0034 FB79     		ldrb	r3, [r7, #7]
 2302 0036 1370     		strb	r3, [r2]
1733:.\Generated_Source\PSoC5/ADC_DelSig.c **** 
1734:.\Generated_Source\PSoC5/ADC_DelSig.c ****     /* Wait for 3 microseconds */
1735:.\Generated_Source\PSoC5/ADC_DelSig.c ****     CyDelayUs(ADC_DelSig_PRES_DELAY_TIME);
 2303              		.loc 1 1735 0
 2304 0038 0320     		movs	r0, #3
 2305 003a FFF7FEFF 		bl	CyDelayUs
1736:.\Generated_Source\PSoC5/ADC_DelSig.c ****     /* Enable the press circuit */
1737:.\Generated_Source\PSoC5/ADC_DelSig.c ****     ADC_DelSig_RESET_CR4_REG &= (uint8)~(ADC_DelSig_IGNORE_PRESA1 | ADC_DelSig_IGNORE_PRESD1);
ARM GAS  C:\Users\LUKASC~1\AppData\Local\Temp\ccd9ca13.s 			page 72


 2306              		.loc 1 1737 0
 2307 003e 0B4A     		ldr	r2, .L131
 2308 0040 0A4B     		ldr	r3, .L131
 2309 0042 1B78     		ldrb	r3, [r3]
 2310 0044 DBB2     		uxtb	r3, r3
 2311 0046 23F00303 		bic	r3, r3, #3
 2312 004a DBB2     		uxtb	r3, r3
 2313 004c 1370     		strb	r3, [r2]
1738:.\Generated_Source\PSoC5/ADC_DelSig.c ****     ADC_DelSig_RESET_CR5_REG &= (uint8)~(ADC_DelSig_IGNORE_PRESA2 | ADC_DelSig_IGNORE_PRESD2);
 2314              		.loc 1 1738 0
 2315 004e 084A     		ldr	r2, .L131+4
 2316 0050 074B     		ldr	r3, .L131+4
 2317 0052 1B78     		ldrb	r3, [r3]
 2318 0054 DBB2     		uxtb	r3, r3
 2319 0056 23F00303 		bic	r3, r3, #3
 2320 005a DBB2     		uxtb	r3, r3
 2321 005c 1370     		strb	r3, [r2]
1739:.\Generated_Source\PSoC5/ADC_DelSig.c **** 
1740:.\Generated_Source\PSoC5/ADC_DelSig.c ****     CyExitCriticalSection(enableInterrupts);
 2322              		.loc 1 1740 0
 2323 005e FB7B     		ldrb	r3, [r7, #15]	@ zero_extendqisi2
 2324 0060 1846     		mov	r0, r3
 2325 0062 FFF7FEFF 		bl	CyExitCriticalSection
1741:.\Generated_Source\PSoC5/ADC_DelSig.c **** }
 2326              		.loc 1 1741 0
 2327 0066 1037     		adds	r7, r7, #16
 2328              		.cfi_def_cfa_offset 8
 2329 0068 BD46     		mov	sp, r7
 2330              		.cfi_def_cfa_register 13
 2331              		@ sp needed
 2332 006a 80BD     		pop	{r7, pc}
 2333              	.L132:
 2334              		.align	2
 2335              	.L131:
 2336 006c F8460040 		.word	1073759992
 2337 0070 F9460040 		.word	1073759993
 2338 0074 92580040 		.word	1073764498
 2339              		.cfi_endproc
 2340              	.LFE22:
 2341              		.size	ADC_DelSig_SetDSMRef0Reg, .-ADC_DelSig_SetDSMRef0Reg
 2342              		.section	.text.ADC_DelSig_Read8,"ax",%progbits
 2343              		.align	2
 2344              		.global	ADC_DelSig_Read8
 2345              		.thumb
 2346              		.thumb_func
 2347              		.type	ADC_DelSig_Read8, %function
 2348              	ADC_DelSig_Read8:
 2349              	.LFB23:
1742:.\Generated_Source\PSoC5/ADC_DelSig.c **** 
1743:.\Generated_Source\PSoC5/ADC_DelSig.c **** 
1744:.\Generated_Source\PSoC5/ADC_DelSig.c **** /*******************************************************************************
1745:.\Generated_Source\PSoC5/ADC_DelSig.c **** * Function Name: ADC_DelSig_Read8
1746:.\Generated_Source\PSoC5/ADC_DelSig.c **** ********************************************************************************
1747:.\Generated_Source\PSoC5/ADC_DelSig.c **** *
1748:.\Generated_Source\PSoC5/ADC_DelSig.c **** * Summary:
1749:.\Generated_Source\PSoC5/ADC_DelSig.c **** *  This function simplifies getting results from the ADC when only a
1750:.\Generated_Source\PSoC5/ADC_DelSig.c **** *  single reading is required. When called, it will start ADC
ARM GAS  C:\Users\LUKASC~1\AppData\Local\Temp\ccd9ca13.s 			page 73


1751:.\Generated_Source\PSoC5/ADC_DelSig.c **** *  conversions, wait for the conversion to be complete, stop ADC
1752:.\Generated_Source\PSoC5/ADC_DelSig.c **** *  conversion and return the result. This is a blocking function and will
1753:.\Generated_Source\PSoC5/ADC_DelSig.c **** *  not return until the result is ready.
1754:.\Generated_Source\PSoC5/ADC_DelSig.c **** *
1755:.\Generated_Source\PSoC5/ADC_DelSig.c **** * Parameters:
1756:.\Generated_Source\PSoC5/ADC_DelSig.c **** *  None
1757:.\Generated_Source\PSoC5/ADC_DelSig.c **** *
1758:.\Generated_Source\PSoC5/ADC_DelSig.c **** * Return:
1759:.\Generated_Source\PSoC5/ADC_DelSig.c **** *  int8:  ADC result.
1760:.\Generated_Source\PSoC5/ADC_DelSig.c **** *
1761:.\Generated_Source\PSoC5/ADC_DelSig.c **** *******************************************************************************/
1762:.\Generated_Source\PSoC5/ADC_DelSig.c **** int8 ADC_DelSig_Read8(void) 
1763:.\Generated_Source\PSoC5/ADC_DelSig.c **** {
 2350              		.loc 1 1763 0
 2351              		.cfi_startproc
 2352              		@ args = 0, pretend = 0, frame = 8
 2353              		@ frame_needed = 1, uses_anonymous_args = 0
 2354 0000 80B5     		push	{r7, lr}
 2355              		.cfi_def_cfa_offset 8
 2356              		.cfi_offset 7, -8
 2357              		.cfi_offset 14, -4
 2358 0002 82B0     		sub	sp, sp, #8
 2359              		.cfi_def_cfa_offset 16
 2360 0004 00AF     		add	r7, sp, #0
 2361              		.cfi_def_cfa_register 7
1764:.\Generated_Source\PSoC5/ADC_DelSig.c ****     int8 result;
1765:.\Generated_Source\PSoC5/ADC_DelSig.c **** 
1766:.\Generated_Source\PSoC5/ADC_DelSig.c ****     /* Clear pending conversion done status */
1767:.\Generated_Source\PSoC5/ADC_DelSig.c ****     ADC_DelSig_DEC_SR_REG |= ADC_DelSig_DEC_INTR_CLEAR;
 2362              		.loc 1 1767 0
 2363 0006 0C4A     		ldr	r2, .L135
 2364 0008 0B4B     		ldr	r3, .L135
 2365 000a 1B78     		ldrb	r3, [r3]
 2366 000c DBB2     		uxtb	r3, r3
 2367 000e 43F00403 		orr	r3, r3, #4
 2368 0012 DBB2     		uxtb	r3, r3
 2369 0014 1370     		strb	r3, [r2]
1768:.\Generated_Source\PSoC5/ADC_DelSig.c ****     ADC_DelSig_StartConvert();
 2370              		.loc 1 1768 0
 2371 0016 FFF7FEFF 		bl	ADC_DelSig_StartConvert
1769:.\Generated_Source\PSoC5/ADC_DelSig.c ****     (void)ADC_DelSig_IsEndConversion(ADC_DelSig_WAIT_FOR_RESULT);
 2372              		.loc 1 1769 0
 2373 001a 0020     		movs	r0, #0
 2374 001c FFF7FEFF 		bl	ADC_DelSig_IsEndConversion
1770:.\Generated_Source\PSoC5/ADC_DelSig.c ****      result = ADC_DelSig_GetResult8();
 2375              		.loc 1 1770 0
 2376 0020 FFF7FEFF 		bl	ADC_DelSig_GetResult8
 2377 0024 0346     		mov	r3, r0
 2378 0026 FB71     		strb	r3, [r7, #7]
1771:.\Generated_Source\PSoC5/ADC_DelSig.c ****     ADC_DelSig_StopConvert();
 2379              		.loc 1 1771 0
 2380 0028 FFF7FEFF 		bl	ADC_DelSig_StopConvert
1772:.\Generated_Source\PSoC5/ADC_DelSig.c ****     
1773:.\Generated_Source\PSoC5/ADC_DelSig.c ****      return(result);
 2381              		.loc 1 1773 0
 2382 002c FB79     		ldrb	r3, [r7, #7]	@ zero_extendqisi2
 2383 002e 5BB2     		sxtb	r3, r3
ARM GAS  C:\Users\LUKASC~1\AppData\Local\Temp\ccd9ca13.s 			page 74


1774:.\Generated_Source\PSoC5/ADC_DelSig.c **** }
 2384              		.loc 1 1774 0
 2385 0030 1846     		mov	r0, r3
 2386 0032 0837     		adds	r7, r7, #8
 2387              		.cfi_def_cfa_offset 8
 2388 0034 BD46     		mov	sp, r7
