ARM GAS  C:\Users\LUKASC~1\AppData\Local\Temp\cc26X3wa.s 			page 1


   1              		.syntax unified
   2              		.cpu cortex-m3
   3              		.fpu softvfp
   4              		.eabi_attribute 20, 1
   5              		.eabi_attribute 21, 1
   6              		.eabi_attribute 23, 3
   7              		.eabi_attribute 24, 1
   8              		.eabi_attribute 25, 1
   9              		.eabi_attribute 26, 1
  10              		.eabi_attribute 30, 6
  11              		.eabi_attribute 34, 1
  12              		.eabi_attribute 18, 4
  13              		.thumb
  14              		.file	"ADC_DelSig_PM.c"
  15              		.text
  16              	.Ltext0:
  17              		.cfi_sections	.debug_frame
  18              		.data
  19              		.align	2
  20              		.type	ADC_DelSig_backup, %object
  21              		.size	ADC_DelSig_backup, 2
  22              	ADC_DelSig_backup:
  23 0000 00       		.byte	0
  24 0001 34       		.byte	52
  25 0002 0000     		.section	.text.ADC_DelSig_SaveConfig,"ax",%progbits
  26              		.align	2
  27              		.global	ADC_DelSig_SaveConfig
  28              		.thumb
  29              		.thumb_func
  30              		.type	ADC_DelSig_SaveConfig, %function
  31              	ADC_DelSig_SaveConfig:
  32              	.LFB0:
  33              		.file 1 ".\\Generated_Source\\PSoC5\\ADC_DelSig_PM.c"
   1:.\Generated_Source\PSoC5/ADC_DelSig_PM.c **** /*******************************************************************************
   2:.\Generated_Source\PSoC5/ADC_DelSig_PM.c **** * File Name: ADC_DelSig_PM.c
   3:.\Generated_Source\PSoC5/ADC_DelSig_PM.c **** * Version 3.20
   4:.\Generated_Source\PSoC5/ADC_DelSig_PM.c **** *
   5:.\Generated_Source\PSoC5/ADC_DelSig_PM.c **** * Description:
   6:.\Generated_Source\PSoC5/ADC_DelSig_PM.c **** *  This file provides the power manager source code to the API for the
   7:.\Generated_Source\PSoC5/ADC_DelSig_PM.c **** *  Delta-Sigma ADC Component.
   8:.\Generated_Source\PSoC5/ADC_DelSig_PM.c **** *
   9:.\Generated_Source\PSoC5/ADC_DelSig_PM.c **** * Note:
  10:.\Generated_Source\PSoC5/ADC_DelSig_PM.c **** *
  11:.\Generated_Source\PSoC5/ADC_DelSig_PM.c **** ********************************************************************************
  12:.\Generated_Source\PSoC5/ADC_DelSig_PM.c **** * Copyright 2008-2015, Cypress Semiconductor Corporation.  All rights reserved.
  13:.\Generated_Source\PSoC5/ADC_DelSig_PM.c **** * You may use this file only in accordance with the license, terms, conditions,
  14:.\Generated_Source\PSoC5/ADC_DelSig_PM.c **** * disclaimers, and limitations in the end user license agreement accompanying
  15:.\Generated_Source\PSoC5/ADC_DelSig_PM.c **** * the software package with which this file was provided.
  16:.\Generated_Source\PSoC5/ADC_DelSig_PM.c **** *******************************************************************************/
  17:.\Generated_Source\PSoC5/ADC_DelSig_PM.c **** 
  18:.\Generated_Source\PSoC5/ADC_DelSig_PM.c **** #include "ADC_DelSig.h"
  19:.\Generated_Source\PSoC5/ADC_DelSig_PM.c **** 
  20:.\Generated_Source\PSoC5/ADC_DelSig_PM.c **** static ADC_DelSig_BACKUP_STRUCT ADC_DelSig_backup =
  21:.\Generated_Source\PSoC5/ADC_DelSig_PM.c **** {
  22:.\Generated_Source\PSoC5/ADC_DelSig_PM.c ****     ADC_DelSig_DISABLED,
  23:.\Generated_Source\PSoC5/ADC_DelSig_PM.c ****     ADC_DelSig_CFG1_DEC_CR
  24:.\Generated_Source\PSoC5/ADC_DelSig_PM.c **** };
ARM GAS  C:\Users\LUKASC~1\AppData\Local\Temp\cc26X3wa.s 			page 2


  25:.\Generated_Source\PSoC5/ADC_DelSig_PM.c **** 
  26:.\Generated_Source\PSoC5/ADC_DelSig_PM.c **** 
  27:.\Generated_Source\PSoC5/ADC_DelSig_PM.c **** /*******************************************************************************
  28:.\Generated_Source\PSoC5/ADC_DelSig_PM.c **** * Function Name: ADC_DelSig_SaveConfig
  29:.\Generated_Source\PSoC5/ADC_DelSig_PM.c **** ********************************************************************************
  30:.\Generated_Source\PSoC5/ADC_DelSig_PM.c **** *
  31:.\Generated_Source\PSoC5/ADC_DelSig_PM.c **** * Summary:
  32:.\Generated_Source\PSoC5/ADC_DelSig_PM.c **** *  Save the register configuration which are not retention.
  33:.\Generated_Source\PSoC5/ADC_DelSig_PM.c **** *
  34:.\Generated_Source\PSoC5/ADC_DelSig_PM.c **** * Parameters:
  35:.\Generated_Source\PSoC5/ADC_DelSig_PM.c **** *  None
  36:.\Generated_Source\PSoC5/ADC_DelSig_PM.c **** *
  37:.\Generated_Source\PSoC5/ADC_DelSig_PM.c **** * Return:
  38:.\Generated_Source\PSoC5/ADC_DelSig_PM.c **** *  None
  39:.\Generated_Source\PSoC5/ADC_DelSig_PM.c **** *
  40:.\Generated_Source\PSoC5/ADC_DelSig_PM.c **** * Global variables:
  41:.\Generated_Source\PSoC5/ADC_DelSig_PM.c **** *  ADC_DelSig_backup:  This global structure variable is used to store
  42:.\Generated_Source\PSoC5/ADC_DelSig_PM.c **** *  configuration registers which are non retention whenever user wants to go
  43:.\Generated_Source\PSoC5/ADC_DelSig_PM.c **** *  sleep mode by calling Sleep() API.
  44:.\Generated_Source\PSoC5/ADC_DelSig_PM.c **** *
  45:.\Generated_Source\PSoC5/ADC_DelSig_PM.c **** *******************************************************************************/
  46:.\Generated_Source\PSoC5/ADC_DelSig_PM.c **** void ADC_DelSig_SaveConfig(void) 
  47:.\Generated_Source\PSoC5/ADC_DelSig_PM.c **** {
  34              		.loc 1 47 0
  35              		.cfi_startproc
  36              		@ args = 0, pretend = 0, frame = 0
  37              		@ frame_needed = 1, uses_anonymous_args = 0
  38              		@ link register save eliminated.
  39 0000 80B4     		push	{r7}
  40              		.cfi_def_cfa_offset 4
  41              		.cfi_offset 7, -4
  42 0002 00AF     		add	r7, sp, #0
  43              		.cfi_def_cfa_register 7
  48:.\Generated_Source\PSoC5/ADC_DelSig_PM.c ****     ADC_DelSig_backup.deccr = ADC_DelSig_DEC_CR_REG;
  44              		.loc 1 48 0
  45 0004 044B     		ldr	r3, .L2
  46 0006 1B78     		ldrb	r3, [r3]
  47 0008 DAB2     		uxtb	r2, r3
  48 000a 044B     		ldr	r3, .L2+4
  49 000c 5A70     		strb	r2, [r3, #1]
  49:.\Generated_Source\PSoC5/ADC_DelSig_PM.c **** }
  50              		.loc 1 49 0
  51 000e BD46     		mov	sp, r7
  52              		.cfi_def_cfa_register 13
  53              		@ sp needed
  54 0010 5DF8047B 		ldr	r7, [sp], #4
  55              		.cfi_restore 7
  56              		.cfi_def_cfa_offset 0
  57 0014 7047     		bx	lr
  58              	.L3:
  59 0016 00BF     		.align	2
  60              	.L2:
  61 0018 004E0040 		.word	1073761792
  62 001c 00000000 		.word	ADC_DelSig_backup
  63              		.cfi_endproc
  64              	.LFE0:
  65              		.size	ADC_DelSig_SaveConfig, .-ADC_DelSig_SaveConfig
ARM GAS  C:\Users\LUKASC~1\AppData\Local\Temp\cc26X3wa.s 			page 3


  66              		.section	.text.ADC_DelSig_RestoreConfig,"ax",%progbits
  67              		.align	2
  68              		.global	ADC_DelSig_RestoreConfig
  69              		.thumb
  70              		.thumb_func
  71              		.type	ADC_DelSig_RestoreConfig, %function
  72              	ADC_DelSig_RestoreConfig:
  73              	.LFB1:
  50:.\Generated_Source\PSoC5/ADC_DelSig_PM.c **** 
  51:.\Generated_Source\PSoC5/ADC_DelSig_PM.c **** 
  52:.\Generated_Source\PSoC5/ADC_DelSig_PM.c **** /*******************************************************************************
  53:.\Generated_Source\PSoC5/ADC_DelSig_PM.c **** * Function Name: ADC_DelSig_RestoreConfig
  54:.\Generated_Source\PSoC5/ADC_DelSig_PM.c **** ********************************************************************************
  55:.\Generated_Source\PSoC5/ADC_DelSig_PM.c **** *
  56:.\Generated_Source\PSoC5/ADC_DelSig_PM.c **** * Summary:
  57:.\Generated_Source\PSoC5/ADC_DelSig_PM.c **** *  Restore the register configurations which are not retention.
  58:.\Generated_Source\PSoC5/ADC_DelSig_PM.c **** *
  59:.\Generated_Source\PSoC5/ADC_DelSig_PM.c **** * Parameters:
  60:.\Generated_Source\PSoC5/ADC_DelSig_PM.c **** *  None
  61:.\Generated_Source\PSoC5/ADC_DelSig_PM.c **** *
  62:.\Generated_Source\PSoC5/ADC_DelSig_PM.c **** * Return:
  63:.\Generated_Source\PSoC5/ADC_DelSig_PM.c **** *  None
  64:.\Generated_Source\PSoC5/ADC_DelSig_PM.c **** *
  65:.\Generated_Source\PSoC5/ADC_DelSig_PM.c **** * Global variables:
  66:.\Generated_Source\PSoC5/ADC_DelSig_PM.c **** *  ADC_DelSig_backup:  This global structure variable is used to restore
  67:.\Generated_Source\PSoC5/ADC_DelSig_PM.c **** *  configuration registers which are non retention whenever user wants to switch
  68:.\Generated_Source\PSoC5/ADC_DelSig_PM.c **** *  to active power mode by calling Wakeup() API.
  69:.\Generated_Source\PSoC5/ADC_DelSig_PM.c **** *
  70:.\Generated_Source\PSoC5/ADC_DelSig_PM.c **** *******************************************************************************/
  71:.\Generated_Source\PSoC5/ADC_DelSig_PM.c **** void ADC_DelSig_RestoreConfig(void) 
  72:.\Generated_Source\PSoC5/ADC_DelSig_PM.c **** {
  74              		.loc 1 72 0
  75              		.cfi_startproc
  76              		@ args = 0, pretend = 0, frame = 0
  77              		@ frame_needed = 1, uses_anonymous_args = 0
  78              		@ link register save eliminated.
  79 0000 80B4     		push	{r7}
  80              		.cfi_def_cfa_offset 4
  81              		.cfi_offset 7, -4
  82 0002 00AF     		add	r7, sp, #0
  83              		.cfi_def_cfa_register 7
  73:.\Generated_Source\PSoC5/ADC_DelSig_PM.c ****     ADC_DelSig_DEC_CR_REG = ADC_DelSig_backup.deccr;
  84              		.loc 1 73 0
  85 0004 034B     		ldr	r3, .L5
  86 0006 044A     		ldr	r2, .L5+4
  87 0008 5278     		ldrb	r2, [r2, #1]	@ zero_extendqisi2
  88 000a 1A70     		strb	r2, [r3]
  74:.\Generated_Source\PSoC5/ADC_DelSig_PM.c **** }
  89              		.loc 1 74 0
  90 000c BD46     		mov	sp, r7
  91              		.cfi_def_cfa_register 13
  92              		@ sp needed
  93 000e 5DF8047B 		ldr	r7, [sp], #4
  94              		.cfi_restore 7
  95              		.cfi_def_cfa_offset 0
  96 0012 7047     		bx	lr
  97              	.L6:
ARM GAS  C:\Users\LUKASC~1\AppData\Local\Temp\cc26X3wa.s 			page 4


  98              		.align	2
  99              	.L5:
 100 0014 004E0040 		.word	1073761792
 101 0018 00000000 		.word	ADC_DelSig_backup
 102              		.cfi_endproc
 103              	.LFE1:
 104              		.size	ADC_DelSig_RestoreConfig, .-ADC_DelSig_RestoreConfig
 105              		.section	.text.ADC_DelSig_Sleep,"ax",%progbits
 106              		.align	2
 107              		.global	ADC_DelSig_Sleep
 108              		.thumb
 109              		.thumb_func
 110              		.type	ADC_DelSig_Sleep, %function
 111              	ADC_DelSig_Sleep:
 112              	.LFB2:
  75:.\Generated_Source\PSoC5/ADC_DelSig_PM.c **** 
  76:.\Generated_Source\PSoC5/ADC_DelSig_PM.c **** 
  77:.\Generated_Source\PSoC5/ADC_DelSig_PM.c **** /*******************************************************************************
  78:.\Generated_Source\PSoC5/ADC_DelSig_PM.c **** * Function Name: ADC_DelSig_Sleep
  79:.\Generated_Source\PSoC5/ADC_DelSig_PM.c **** ********************************************************************************
  80:.\Generated_Source\PSoC5/ADC_DelSig_PM.c **** *
  81:.\Generated_Source\PSoC5/ADC_DelSig_PM.c **** * Summary:
  82:.\Generated_Source\PSoC5/ADC_DelSig_PM.c **** *  Stops the operation of the block and saves the user configuration.
  83:.\Generated_Source\PSoC5/ADC_DelSig_PM.c **** *
  84:.\Generated_Source\PSoC5/ADC_DelSig_PM.c **** * Parameters:
  85:.\Generated_Source\PSoC5/ADC_DelSig_PM.c **** *  None
  86:.\Generated_Source\PSoC5/ADC_DelSig_PM.c **** *
  87:.\Generated_Source\PSoC5/ADC_DelSig_PM.c **** * Return:
  88:.\Generated_Source\PSoC5/ADC_DelSig_PM.c **** *  None
  89:.\Generated_Source\PSoC5/ADC_DelSig_PM.c **** *
  90:.\Generated_Source\PSoC5/ADC_DelSig_PM.c **** * Global variables:
  91:.\Generated_Source\PSoC5/ADC_DelSig_PM.c **** *  ADC_DelSig_backup:  The structure field 'enableState' is modified
  92:.\Generated_Source\PSoC5/ADC_DelSig_PM.c **** *  depending on the enable state of the block before entering to sleep mode.
  93:.\Generated_Source\PSoC5/ADC_DelSig_PM.c **** *
  94:.\Generated_Source\PSoC5/ADC_DelSig_PM.c **** *******************************************************************************/
  95:.\Generated_Source\PSoC5/ADC_DelSig_PM.c **** void ADC_DelSig_Sleep(void) 
  96:.\Generated_Source\PSoC5/ADC_DelSig_PM.c **** {
 113              		.loc 1 96 0
 114              		.cfi_startproc
 115              		@ args = 0, pretend = 0, frame = 0
 116              		@ frame_needed = 1, uses_anonymous_args = 0
 117 0000 80B5     		push	{r7, lr}
 118              		.cfi_def_cfa_offset 8
 119              		.cfi_offset 7, -8
 120              		.cfi_offset 14, -4
 121 0002 00AF     		add	r7, sp, #0
 122              		.cfi_def_cfa_register 7
  97:.\Generated_Source\PSoC5/ADC_DelSig_PM.c ****     /* Save ADC enable state */
  98:.\Generated_Source\PSoC5/ADC_DelSig_PM.c ****     if((ADC_DelSig_ACT_PWR_DEC_EN == (ADC_DelSig_PWRMGR_DEC_REG & ADC_DelSig_ACT_PWR_DEC_EN)) &&
 123              		.loc 1 98 0
 124 0004 134B     		ldr	r3, .L11
 125 0006 1B78     		ldrb	r3, [r3]
 126 0008 DBB2     		uxtb	r3, r3
 127 000a 03F00103 		and	r3, r3, #1
 128 000e 002B     		cmp	r3, #0
 129 0010 1AD0     		beq	.L8
  99:.\Generated_Source\PSoC5/ADC_DelSig_PM.c ****        (ADC_DelSig_ACT_PWR_DSM_EN == (ADC_DelSig_PWRMGR_DSM_REG & ADC_DelSig_ACT_PWR_DSM_EN)))
ARM GAS  C:\Users\LUKASC~1\AppData\Local\Temp\cc26X3wa.s 			page 5


 130              		.loc 1 99 0 discriminator 1
 131 0012 104B     		ldr	r3, .L11
 132 0014 1B78     		ldrb	r3, [r3]
 133 0016 DBB2     		uxtb	r3, r3
 134 0018 03F01003 		and	r3, r3, #16
  98:.\Generated_Source\PSoC5/ADC_DelSig_PM.c ****        (ADC_DelSig_ACT_PWR_DSM_EN == (ADC_DelSig_PWRMGR_DSM_REG & ADC_DelSig_ACT_PWR_DSM_EN)))
 135              		.loc 1 98 0 discriminator 1
 136 001c 002B     		cmp	r3, #0
 137 001e 13D0     		beq	.L8
 100:.\Generated_Source\PSoC5/ADC_DelSig_PM.c ****     {
 101:.\Generated_Source\PSoC5/ADC_DelSig_PM.c ****         /* Component is enabled */
 102:.\Generated_Source\PSoC5/ADC_DelSig_PM.c ****         ADC_DelSig_backup.enableState = ADC_DelSig_ENABLED;
 138              		.loc 1 102 0
 139 0020 0D4B     		ldr	r3, .L11+4
 140 0022 0122     		movs	r2, #1
 141 0024 1A70     		strb	r2, [r3]
 103:.\Generated_Source\PSoC5/ADC_DelSig_PM.c ****         if((ADC_DelSig_DEC_CR_REG & ADC_DelSig_DEC_START_CONV) != 0u)
 142              		.loc 1 103 0
 143 0026 0D4B     		ldr	r3, .L11+8
 144 0028 1B78     		ldrb	r3, [r3]
 145 002a DBB2     		uxtb	r3, r3
 146 002c 03F00103 		and	r3, r3, #1
 147 0030 002B     		cmp	r3, #0
 148 0032 06D0     		beq	.L9
 104:.\Generated_Source\PSoC5/ADC_DelSig_PM.c ****         {   
 105:.\Generated_Source\PSoC5/ADC_DelSig_PM.c ****             /* Conversion is started */
 106:.\Generated_Source\PSoC5/ADC_DelSig_PM.c ****             ADC_DelSig_backup.enableState |= ADC_DelSig_STARTED;
 149              		.loc 1 106 0
 150 0034 084B     		ldr	r3, .L11+4
 151 0036 1B78     		ldrb	r3, [r3]	@ zero_extendqisi2
 152 0038 43F00203 		orr	r3, r3, #2
 153 003c DAB2     		uxtb	r2, r3
 154 003e 064B     		ldr	r3, .L11+4
 155 0040 1A70     		strb	r2, [r3]
 156              	.L9:
 107:.\Generated_Source\PSoC5/ADC_DelSig_PM.c ****         }
 108:.\Generated_Source\PSoC5/ADC_DelSig_PM.c **** 		
 109:.\Generated_Source\PSoC5/ADC_DelSig_PM.c ****         /* Stop the configuration */
 110:.\Generated_Source\PSoC5/ADC_DelSig_PM.c ****         ADC_DelSig_Stop();
 157              		.loc 1 110 0
 158 0042 FFF7FEFF 		bl	ADC_DelSig_Stop
 159 0046 02E0     		b	.L10
 160              	.L8:
 111:.\Generated_Source\PSoC5/ADC_DelSig_PM.c ****     }
 112:.\Generated_Source\PSoC5/ADC_DelSig_PM.c ****     else
 113:.\Generated_Source\PSoC5/ADC_DelSig_PM.c ****     {
 114:.\Generated_Source\PSoC5/ADC_DelSig_PM.c ****         /* Component is disabled */
 115:.\Generated_Source\PSoC5/ADC_DelSig_PM.c ****         ADC_DelSig_backup.enableState = ADC_DelSig_DISABLED;
 161              		.loc 1 115 0
 162 0048 034B     		ldr	r3, .L11+4
 163 004a 0022     		movs	r2, #0
 164 004c 1A70     		strb	r2, [r3]
 165              	.L10:
 116:.\Generated_Source\PSoC5/ADC_DelSig_PM.c ****     }
 117:.\Generated_Source\PSoC5/ADC_DelSig_PM.c **** 
 118:.\Generated_Source\PSoC5/ADC_DelSig_PM.c ****     /* Save the user configuration */
 119:.\Generated_Source\PSoC5/ADC_DelSig_PM.c ****     ADC_DelSig_SaveConfig();
ARM GAS  C:\Users\LUKASC~1\AppData\Local\Temp\cc26X3wa.s 			page 6


 166              		.loc 1 119 0
 167 004e FFF7FEFF 		bl	ADC_DelSig_SaveConfig
 120:.\Generated_Source\PSoC5/ADC_DelSig_PM.c **** }
 168              		.loc 1 120 0
 169 0052 80BD     		pop	{r7, pc}
 170              	.L12:
 171              		.align	2
 172              	.L11:
 173 0054 AA430040 		.word	1073759146
 174 0058 00000000 		.word	ADC_DelSig_backup
 175 005c 004E0040 		.word	1073761792
 176              		.cfi_endproc
 177              	.LFE2:
 178              		.size	ADC_DelSig_Sleep, .-ADC_DelSig_Sleep
 179              		.section	.text.ADC_DelSig_Wakeup,"ax",%progbits
 180              		.align	2
 181              		.global	ADC_DelSig_Wakeup
 182              		.thumb
 183              		.thumb_func
 184              		.type	ADC_DelSig_Wakeup, %function
 185              	ADC_DelSig_Wakeup:
 186              	.LFB3:
 121:.\Generated_Source\PSoC5/ADC_DelSig_PM.c **** 
 122:.\Generated_Source\PSoC5/ADC_DelSig_PM.c **** 
 123:.\Generated_Source\PSoC5/ADC_DelSig_PM.c **** /*******************************************************************************
 124:.\Generated_Source\PSoC5/ADC_DelSig_PM.c **** * Function Name: ADC_DelSig_Wakeup
 125:.\Generated_Source\PSoC5/ADC_DelSig_PM.c **** ********************************************************************************
 126:.\Generated_Source\PSoC5/ADC_DelSig_PM.c **** *
 127:.\Generated_Source\PSoC5/ADC_DelSig_PM.c **** * Summary:
 128:.\Generated_Source\PSoC5/ADC_DelSig_PM.c **** *  Restores the user configuration and enables the power to the block.
 129:.\Generated_Source\PSoC5/ADC_DelSig_PM.c **** *
 130:.\Generated_Source\PSoC5/ADC_DelSig_PM.c **** * Parameters:
 131:.\Generated_Source\PSoC5/ADC_DelSig_PM.c **** *  None
 132:.\Generated_Source\PSoC5/ADC_DelSig_PM.c **** *
 133:.\Generated_Source\PSoC5/ADC_DelSig_PM.c **** * Return:
 134:.\Generated_Source\PSoC5/ADC_DelSig_PM.c **** *  None
 135:.\Generated_Source\PSoC5/ADC_DelSig_PM.c **** *
 136:.\Generated_Source\PSoC5/ADC_DelSig_PM.c **** * Global variables:
 137:.\Generated_Source\PSoC5/ADC_DelSig_PM.c **** *  ADC_DelSig_backup:  The structure field 'enableState' is used to
 138:.\Generated_Source\PSoC5/ADC_DelSig_PM.c **** *  restore the enable state of block after wakeup from sleep mode.
 139:.\Generated_Source\PSoC5/ADC_DelSig_PM.c **** *
 140:.\Generated_Source\PSoC5/ADC_DelSig_PM.c **** *******************************************************************************/
 141:.\Generated_Source\PSoC5/ADC_DelSig_PM.c **** void ADC_DelSig_Wakeup(void) 
 142:.\Generated_Source\PSoC5/ADC_DelSig_PM.c **** {
 187              		.loc 1 142 0
 188              		.cfi_startproc
 189              		@ args = 0, pretend = 0, frame = 0
 190              		@ frame_needed = 1, uses_anonymous_args = 0
 191 0000 80B5     		push	{r7, lr}
 192              		.cfi_def_cfa_offset 8
 193              		.cfi_offset 7, -8
 194              		.cfi_offset 14, -4
 195 0002 00AF     		add	r7, sp, #0
 196              		.cfi_def_cfa_register 7
 143:.\Generated_Source\PSoC5/ADC_DelSig_PM.c ****     /* Restore the configuration */
 144:.\Generated_Source\PSoC5/ADC_DelSig_PM.c ****     ADC_DelSig_RestoreConfig();
 197              		.loc 1 144 0
ARM GAS  C:\Users\LUKASC~1\AppData\Local\Temp\cc26X3wa.s 			page 7


 198 0004 FFF7FEFF 		bl	ADC_DelSig_RestoreConfig
 145:.\Generated_Source\PSoC5/ADC_DelSig_PM.c **** 
 146:.\Generated_Source\PSoC5/ADC_DelSig_PM.c ****     /* Enables the component operation */
 147:.\Generated_Source\PSoC5/ADC_DelSig_PM.c ****     if(ADC_DelSig_backup.enableState != ADC_DelSig_DISABLED)
 199              		.loc 1 147 0
 200 0008 074B     		ldr	r3, .L15
 201 000a 1B78     		ldrb	r3, [r3]	@ zero_extendqisi2
 202 000c 002B     		cmp	r3, #0
 203 000e 09D0     		beq	.L13
 148:.\Generated_Source\PSoC5/ADC_DelSig_PM.c ****     {
 149:.\Generated_Source\PSoC5/ADC_DelSig_PM.c ****         ADC_DelSig_Enable();
 204              		.loc 1 149 0
 205 0010 FFF7FEFF 		bl	ADC_DelSig_Enable
 150:.\Generated_Source\PSoC5/ADC_DelSig_PM.c ****         if((ADC_DelSig_backup.enableState & ADC_DelSig_STARTED) != 0u)
 206              		.loc 1 150 0
 207 0014 044B     		ldr	r3, .L15
 208 0016 1B78     		ldrb	r3, [r3]	@ zero_extendqisi2
 209 0018 03F00203 		and	r3, r3, #2
 210 001c 002B     		cmp	r3, #0
 211 001e 01D0     		beq	.L13
 151:.\Generated_Source\PSoC5/ADC_DelSig_PM.c ****         {
 152:.\Generated_Source\PSoC5/ADC_DelSig_PM.c ****             ADC_DelSig_StartConvert();
 212              		.loc 1 152 0
 213 0020 FFF7FEFF 		bl	ADC_DelSig_StartConvert
 214              	.L13:
 153:.\Generated_Source\PSoC5/ADC_DelSig_PM.c ****         }
 154:.\Generated_Source\PSoC5/ADC_DelSig_PM.c ****     } /* Do nothing if component was disable before */
 155:.\Generated_Source\PSoC5/ADC_DelSig_PM.c **** }
 215              		.loc 1 155 0
 216 0024 80BD     		pop	{r7, pc}
 217              	.L16:
 218 0026 00BF     		.align	2
 219              	.L15:
 220 0028 00000000 		.word	ADC_DelSig_backup
 221              		.cfi_endproc
 222              	.LFE3:
 223              		.size	ADC_DelSig_Wakeup, .-ADC_DelSig_Wakeup
 224              		.text
 225              	.Letext0:
 226              		.file 2 ".\\Generated_Source\\PSoC5\\cytypes.h"
 227              		.file 3 ".\\Generated_Source\\PSoC5\\ADC_DelSig.h"