ARM GAS  C:\Users\LUKASC~1\AppData\Local\Temp\ccIYV4Tj.s 			page 1


   1              		.syntax unified
   2              		.cpu cortex-m3
   3              		.fpu softvfp
   4              		.eabi_attribute 20, 1
   5              		.eabi_attribute 21, 1
   6              		.eabi_attribute 23, 3
   7              		.eabi_attribute 24, 1
   8              		.eabi_attribute 25, 1
   9              		.eabi_attribute 26, 1
  10              		.eabi_attribute 30, 6
  11              		.eabi_attribute 34, 1
  12              		.eabi_attribute 18, 4
  13              		.thumb
  14              		.file	"ADC_DelSig_INT.c"
  15              		.text
  16              	.Ltext0:
  17              		.cfi_sections	.debug_frame
  18              		.section	.text.ADC_DelSig_ISR1,"ax",%progbits
  19              		.align	2
  20              		.global	ADC_DelSig_ISR1
  21              		.thumb
  22              		.thumb_func
  23              		.type	ADC_DelSig_ISR1, %function
  24              	ADC_DelSig_ISR1:
  25              	.LFB0:
  26              		.file 1 ".\\Generated_Source\\PSoC5\\ADC_DelSig_INT.c"
   1:.\Generated_Source\PSoC5/ADC_DelSig_INT.c **** /*******************************************************************************
   2:.\Generated_Source\PSoC5/ADC_DelSig_INT.c **** * File Name: ADC_DelSig_INT.c
   3:.\Generated_Source\PSoC5/ADC_DelSig_INT.c **** * Version 3.20
   4:.\Generated_Source\PSoC5/ADC_DelSig_INT.c **** *
   5:.\Generated_Source\PSoC5/ADC_DelSig_INT.c **** * Description:
   6:.\Generated_Source\PSoC5/ADC_DelSig_INT.c **** *  This file contains the code that operates during the ADC_DelSig interrupt
   7:.\Generated_Source\PSoC5/ADC_DelSig_INT.c **** *  service routine.
   8:.\Generated_Source\PSoC5/ADC_DelSig_INT.c **** *
   9:.\Generated_Source\PSoC5/ADC_DelSig_INT.c **** * Note:
  10:.\Generated_Source\PSoC5/ADC_DelSig_INT.c **** *
  11:.\Generated_Source\PSoC5/ADC_DelSig_INT.c **** ********************************************************************************
  12:.\Generated_Source\PSoC5/ADC_DelSig_INT.c **** * Copyright 2008-2015, Cypress Semiconductor Corporation.  All rights reserved.
  13:.\Generated_Source\PSoC5/ADC_DelSig_INT.c **** * You may use this file only in accordance with the license, terms, conditions,
  14:.\Generated_Source\PSoC5/ADC_DelSig_INT.c **** * disclaimers, and limitations in the end user license agreement accompanying
  15:.\Generated_Source\PSoC5/ADC_DelSig_INT.c **** * the software package with which this file was provided.
  16:.\Generated_Source\PSoC5/ADC_DelSig_INT.c **** *******************************************************************************/
  17:.\Generated_Source\PSoC5/ADC_DelSig_INT.c **** 
  18:.\Generated_Source\PSoC5/ADC_DelSig_INT.c **** #include "ADC_DelSig.h"
  19:.\Generated_Source\PSoC5/ADC_DelSig_INT.c **** #include "cyapicallbacks.h"
  20:.\Generated_Source\PSoC5/ADC_DelSig_INT.c **** 
  21:.\Generated_Source\PSoC5/ADC_DelSig_INT.c **** 
  22:.\Generated_Source\PSoC5/ADC_DelSig_INT.c **** /*******************************************************************************
  23:.\Generated_Source\PSoC5/ADC_DelSig_INT.c **** * Custom Declarations and Variables
  24:.\Generated_Source\PSoC5/ADC_DelSig_INT.c **** * - add user include files, prototypes and variables between the following
  25:.\Generated_Source\PSoC5/ADC_DelSig_INT.c **** *   #START and #END tags
  26:.\Generated_Source\PSoC5/ADC_DelSig_INT.c **** *******************************************************************************/
  27:.\Generated_Source\PSoC5/ADC_DelSig_INT.c **** /* `#START ADC_SYS_VAR`  */
  28:.\Generated_Source\PSoC5/ADC_DelSig_INT.c **** 
  29:.\Generated_Source\PSoC5/ADC_DelSig_INT.c **** /* `#END`  */
  30:.\Generated_Source\PSoC5/ADC_DelSig_INT.c **** 
  31:.\Generated_Source\PSoC5/ADC_DelSig_INT.c **** #if(ADC_DelSig_IRQ_REMOVE == 0u)
ARM GAS  C:\Users\LUKASC~1\AppData\Local\Temp\ccIYV4Tj.s 			page 2


  32:.\Generated_Source\PSoC5/ADC_DelSig_INT.c **** 
  33:.\Generated_Source\PSoC5/ADC_DelSig_INT.c **** 
  34:.\Generated_Source\PSoC5/ADC_DelSig_INT.c ****     /*****************************************************************************
  35:.\Generated_Source\PSoC5/ADC_DelSig_INT.c ****     * Function Name: ADC_DelSig_ISR1
  36:.\Generated_Source\PSoC5/ADC_DelSig_INT.c ****     ******************************************************************************
  37:.\Generated_Source\PSoC5/ADC_DelSig_INT.c ****     *
  38:.\Generated_Source\PSoC5/ADC_DelSig_INT.c ****     * Summary:
  39:.\Generated_Source\PSoC5/ADC_DelSig_INT.c ****     *  Handle Interrupt Service Routine.
  40:.\Generated_Source\PSoC5/ADC_DelSig_INT.c ****     *
  41:.\Generated_Source\PSoC5/ADC_DelSig_INT.c ****     * Parameters:
  42:.\Generated_Source\PSoC5/ADC_DelSig_INT.c ****     *  None
  43:.\Generated_Source\PSoC5/ADC_DelSig_INT.c ****     *
  44:.\Generated_Source\PSoC5/ADC_DelSig_INT.c ****     * Return:
  45:.\Generated_Source\PSoC5/ADC_DelSig_INT.c ****     *  None
  46:.\Generated_Source\PSoC5/ADC_DelSig_INT.c ****     *
  47:.\Generated_Source\PSoC5/ADC_DelSig_INT.c ****     * Reentrant:
  48:.\Generated_Source\PSoC5/ADC_DelSig_INT.c ****     *  No
  49:.\Generated_Source\PSoC5/ADC_DelSig_INT.c ****     *
  50:.\Generated_Source\PSoC5/ADC_DelSig_INT.c ****     *****************************************************************************/
  51:.\Generated_Source\PSoC5/ADC_DelSig_INT.c ****     CY_ISR( ADC_DelSig_ISR1)
  52:.\Generated_Source\PSoC5/ADC_DelSig_INT.c ****     {
  27              		.loc 1 52 0
  28              		.cfi_startproc
  29              		@ args = 0, pretend = 0, frame = 0
  30              		@ frame_needed = 1, uses_anonymous_args = 0
  31              		@ link register save eliminated.
  32 0000 80B4     		push	{r7}
  33              		.cfi_def_cfa_offset 4
  34              		.cfi_offset 7, -4
  35 0002 00AF     		add	r7, sp, #0
  36              		.cfi_def_cfa_register 7
  53:.\Generated_Source\PSoC5/ADC_DelSig_INT.c ****         #ifdef ADC_DelSig_ISR1_ENTRY_CALLBACK
  54:.\Generated_Source\PSoC5/ADC_DelSig_INT.c ****             ADC_DelSig_ISR1_EntryCallback();
  55:.\Generated_Source\PSoC5/ADC_DelSig_INT.c ****         #endif /* ADC_DelSig_ISR1_ENTRY_CALLBACK */
  56:.\Generated_Source\PSoC5/ADC_DelSig_INT.c ****         
  57:.\Generated_Source\PSoC5/ADC_DelSig_INT.c **** 
  58:.\Generated_Source\PSoC5/ADC_DelSig_INT.c ****         /**************************************************************************
  59:.\Generated_Source\PSoC5/ADC_DelSig_INT.c ****         *  Custom Code
  60:.\Generated_Source\PSoC5/ADC_DelSig_INT.c ****         *  - add user ISR code between the following #START and #END tags
  61:.\Generated_Source\PSoC5/ADC_DelSig_INT.c ****         **************************************************************************/
  62:.\Generated_Source\PSoC5/ADC_DelSig_INT.c ****         /* `#START MAIN_ADC_ISR1`  */
  63:.\Generated_Source\PSoC5/ADC_DelSig_INT.c **** 
  64:.\Generated_Source\PSoC5/ADC_DelSig_INT.c ****         /* `#END`  */
  65:.\Generated_Source\PSoC5/ADC_DelSig_INT.c ****         
  66:.\Generated_Source\PSoC5/ADC_DelSig_INT.c ****         /* Stop the conversion if conversion mode is single sample and resolution
  67:.\Generated_Source\PSoC5/ADC_DelSig_INT.c ****         *  is above 16 bits.
  68:.\Generated_Source\PSoC5/ADC_DelSig_INT.c ****         */
  69:.\Generated_Source\PSoC5/ADC_DelSig_INT.c ****         #if(ADC_DelSig_CFG1_RESOLUTION > 16 && \
  70:.\Generated_Source\PSoC5/ADC_DelSig_INT.c ****             ADC_DelSig_CFG1_CONV_MODE == ADC_DelSig_MODE_SINGLE_SAMPLE)
  71:.\Generated_Source\PSoC5/ADC_DelSig_INT.c ****             ADC_DelSig_StopConvert();
  72:.\Generated_Source\PSoC5/ADC_DelSig_INT.c ****             /* Software flag for checking conversion complete or not. Will be used when
  73:.\Generated_Source\PSoC5/ADC_DelSig_INT.c ****             *  resolution is above 16 bits and conversion mode is single sample 
  74:.\Generated_Source\PSoC5/ADC_DelSig_INT.c **** 			*/
  75:.\Generated_Source\PSoC5/ADC_DelSig_INT.c ****             ADC_DelSig_convDone = ADC_DelSig_DEC_CONV_DONE;
  76:.\Generated_Source\PSoC5/ADC_DelSig_INT.c ****         #endif /* Single sample conversion mode with resolution above 16 bits */
  77:.\Generated_Source\PSoC5/ADC_DelSig_INT.c **** 
  78:.\Generated_Source\PSoC5/ADC_DelSig_INT.c ****         #ifdef ADC_DelSig_ISR1_EXIT_CALLBACK
ARM GAS  C:\Users\LUKASC~1\AppData\Local\Temp\ccIYV4Tj.s 			page 3


  79:.\Generated_Source\PSoC5/ADC_DelSig_INT.c ****             ADC_DelSig_ISR1_ExitCallback();
  80:.\Generated_Source\PSoC5/ADC_DelSig_INT.c ****         #endif /* ADC_DelSig_ISR1_EXIT_CALLBACK */
  81:.\Generated_Source\PSoC5/ADC_DelSig_INT.c ****     }
  37              		.loc 1 81 0
  38 0004 BD46     		mov	sp, r7
  39              		.cfi_def_cfa_register 13
  40              		@ sp needed
  41 0006 5DF8047B 		ldr	r7, [sp], #4
  42              		.cfi_restore 7
  43              		.cfi_def_cfa_offset 0
  44 000a 7047     		bx	lr
  45              		.cfi_endproc
  46              	.LFE0:
  47              		.size	ADC_DelSig_ISR1, .-ADC_DelSig_ISR1
  48              		.section	.text.ADC_DelSig_ISR2,"ax",%progbits
  49              		.align	2
  50              		.global	ADC_DelSig_ISR2
  51              		.thumb
  52              		.thumb_func
  53              		.type	ADC_DelSig_ISR2, %function
  54              	ADC_DelSig_ISR2:
  55              	.LFB1:
  82:.\Generated_Source\PSoC5/ADC_DelSig_INT.c **** 
  83:.\Generated_Source\PSoC5/ADC_DelSig_INT.c **** 
  84:.\Generated_Source\PSoC5/ADC_DelSig_INT.c ****     /*****************************************************************************
  85:.\Generated_Source\PSoC5/ADC_DelSig_INT.c ****     * Function Name: ADC_DelSig_ISR2
  86:.\Generated_Source\PSoC5/ADC_DelSig_INT.c ****     ******************************************************************************
  87:.\Generated_Source\PSoC5/ADC_DelSig_INT.c ****     *
  88:.\Generated_Source\PSoC5/ADC_DelSig_INT.c ****     * Summary:
  89:.\Generated_Source\PSoC5/ADC_DelSig_INT.c ****     *  Handle Interrupt Service Routine.
  90:.\Generated_Source\PSoC5/ADC_DelSig_INT.c ****     *
  91:.\Generated_Source\PSoC5/ADC_DelSig_INT.c ****     * Parameters:
  92:.\Generated_Source\PSoC5/ADC_DelSig_INT.c ****     *  None
  93:.\Generated_Source\PSoC5/ADC_DelSig_INT.c ****     *
  94:.\Generated_Source\PSoC5/ADC_DelSig_INT.c ****     * Return:
  95:.\Generated_Source\PSoC5/ADC_DelSig_INT.c ****     *  None
  96:.\Generated_Source\PSoC5/ADC_DelSig_INT.c ****     *
  97:.\Generated_Source\PSoC5/ADC_DelSig_INT.c ****     * Reentrant:
  98:.\Generated_Source\PSoC5/ADC_DelSig_INT.c ****     *  No
  99:.\Generated_Source\PSoC5/ADC_DelSig_INT.c ****     *
 100:.\Generated_Source\PSoC5/ADC_DelSig_INT.c ****     *****************************************************************************/
 101:.\Generated_Source\PSoC5/ADC_DelSig_INT.c ****     CY_ISR( ADC_DelSig_ISR2)
 102:.\Generated_Source\PSoC5/ADC_DelSig_INT.c ****     {
  56              		.loc 1 102 0
  57              		.cfi_startproc
  58              		@ args = 0, pretend = 0, frame = 0
  59              		@ frame_needed = 1, uses_anonymous_args = 0
  60              		@ link register save eliminated.
  61 0000 80B4     		push	{r7}
  62              		.cfi_def_cfa_offset 4
  63              		.cfi_offset 7, -4
  64 0002 00AF     		add	r7, sp, #0
  65              		.cfi_def_cfa_register 7
 103:.\Generated_Source\PSoC5/ADC_DelSig_INT.c ****         #ifdef ADC_DelSig_ISR2_ENTRY_CALLBACK
 104:.\Generated_Source\PSoC5/ADC_DelSig_INT.c ****             ADC_DelSig_ISR2_EntryCallback();
 105:.\Generated_Source\PSoC5/ADC_DelSig_INT.c ****         #endif /* ADC_DelSig_ISR2_ENTRY_CALLBACK */
 106:.\Generated_Source\PSoC5/ADC_DelSig_INT.c ****         
ARM GAS  C:\Users\LUKASC~1\AppData\Local\Temp\ccIYV4Tj.s 			page 4


 107:.\Generated_Source\PSoC5/ADC_DelSig_INT.c ****         
 108:.\Generated_Source\PSoC5/ADC_DelSig_INT.c ****         /***************************************************************************
 109:.\Generated_Source\PSoC5/ADC_DelSig_INT.c ****         *  Custom Code
 110:.\Generated_Source\PSoC5/ADC_DelSig_INT.c ****         *  - add user ISR code between the following #START and #END tags
 111:.\Generated_Source\PSoC5/ADC_DelSig_INT.c ****         **************************************************************************/
 112:.\Generated_Source\PSoC5/ADC_DelSig_INT.c ****         /* `#START MAIN_ADC_ISR2`  */
 113:.\Generated_Source\PSoC5/ADC_DelSig_INT.c **** 
 114:.\Generated_Source\PSoC5/ADC_DelSig_INT.c ****         /* `#END`  */
 115:.\Generated_Source\PSoC5/ADC_DelSig_INT.c **** 
 116:.\Generated_Source\PSoC5/ADC_DelSig_INT.c ****         /* Stop the conversion conversion mode is single sample and resolution
 117:.\Generated_Source\PSoC5/ADC_DelSig_INT.c ****         *  is above 16 bits.
 118:.\Generated_Source\PSoC5/ADC_DelSig_INT.c ****         */
 119:.\Generated_Source\PSoC5/ADC_DelSig_INT.c ****         #if(ADC_DelSig_CFG2_RESOLUTION > 16 && \
 120:.\Generated_Source\PSoC5/ADC_DelSig_INT.c ****             ADC_DelSig_CFG2_CONVMODE == ADC_DelSig_MODE_SINGLE_SAMPLE)
 121:.\Generated_Source\PSoC5/ADC_DelSig_INT.c ****             ADC_DelSig_StopConvert();
 122:.\Generated_Source\PSoC5/ADC_DelSig_INT.c ****             /* Software flag for checking conversion complete or not. Will be used when
 123:.\Generated_Source\PSoC5/ADC_DelSig_INT.c ****             *   resolution is above 16 bits and conversion mode is single sample 
 124:.\Generated_Source\PSoC5/ADC_DelSig_INT.c **** 			*/
 125:.\Generated_Source\PSoC5/ADC_DelSig_INT.c ****             ADC_DelSig_convDone = ADC_DelSig_DEC_CONV_DONE;
 126:.\Generated_Source\PSoC5/ADC_DelSig_INT.c ****         #endif /* Single sample conversion mode with resolution above 16 bits */
 127:.\Generated_Source\PSoC5/ADC_DelSig_INT.c **** 
 128:.\Generated_Source\PSoC5/ADC_DelSig_INT.c ****         #ifdef ADC_DelSig_ISR2_EXIT_CALLBACK
 129:.\Generated_Source\PSoC5/ADC_DelSig_INT.c ****             ADC_DelSig_ISR2_ExitCallback();
 130:.\Generated_Source\PSoC5/ADC_DelSig_INT.c ****         #endif /* ADC_DelSig_ISR2_EXIT_CALLBACK */
 131:.\Generated_Source\PSoC5/ADC_DelSig_INT.c ****     }
  66              		.loc 1 131 0
  67 0004 BD46     		mov	sp, r7
  68              		.cfi_def_cfa_register 13
  69              		@ sp needed
  70 0006 5DF8047B 		ldr	r7, [sp], #4
  71              		.cfi_restore 7
  72              		.cfi_def_cfa_offset 0
  73 000a 7047     		bx	lr
  74              		.cfi_endproc
  75              	.LFE1:
  76              		.size	ADC_DelSig_ISR2, .-ADC_DelSig_ISR2
  77              		.section	.text.ADC_DelSig_ISR3,"ax",%progbits
  78              		.align	2
  79              		.global	ADC_DelSig_ISR3
  80              		.thumb
  81              		.thumb_func
  82              		.type	ADC_DelSig_ISR3, %function
  83              	ADC_DelSig_ISR3:
  84              	.LFB2:
 132:.\Generated_Source\PSoC5/ADC_DelSig_INT.c **** 
 133:.\Generated_Source\PSoC5/ADC_DelSig_INT.c **** 
 134:.\Generated_Source\PSoC5/ADC_DelSig_INT.c ****     /*****************************************************************************
 135:.\Generated_Source\PSoC5/ADC_DelSig_INT.c ****     * Function Name: ADC_DelSig_ISR3
 136:.\Generated_Source\PSoC5/ADC_DelSig_INT.c ****     ******************************************************************************
 137:.\Generated_Source\PSoC5/ADC_DelSig_INT.c ****     *
 138:.\Generated_Source\PSoC5/ADC_DelSig_INT.c ****     * Summary:
 139:.\Generated_Source\PSoC5/ADC_DelSig_INT.c ****     *  Handle Interrupt Service Routine.
 140:.\Generated_Source\PSoC5/ADC_DelSig_INT.c ****     *
 141:.\Generated_Source\PSoC5/ADC_DelSig_INT.c ****     * Parameters:
 142:.\Generated_Source\PSoC5/ADC_DelSig_INT.c ****     *  None
 143:.\Generated_Source\PSoC5/ADC_DelSig_INT.c ****     *
 144:.\Generated_Source\PSoC5/ADC_DelSig_INT.c ****     * Return:
ARM GAS  C:\Users\LUKASC~1\AppData\Local\Temp\ccIYV4Tj.s 			page 5


 145:.\Generated_Source\PSoC5/ADC_DelSig_INT.c ****     *  None
 146:.\Generated_Source\PSoC5/ADC_DelSig_INT.c ****     *
 147:.\Generated_Source\PSoC5/ADC_DelSig_INT.c ****     * Reentrant:
 148:.\Generated_Source\PSoC5/ADC_DelSig_INT.c ****     *  No
 149:.\Generated_Source\PSoC5/ADC_DelSig_INT.c ****     *
 150:.\Generated_Source\PSoC5/ADC_DelSig_INT.c ****     *****************************************************************************/
 151:.\Generated_Source\PSoC5/ADC_DelSig_INT.c ****     CY_ISR( ADC_DelSig_ISR3)
 152:.\Generated_Source\PSoC5/ADC_DelSig_INT.c ****     {
  85              		.loc 1 152 0
  86              		.cfi_startproc
  87              		@ args = 0, pretend = 0, frame = 0
  88              		@ frame_needed = 1, uses_anonymous_args = 0
  89              		@ link register save eliminated.
  90 0000 80B4     		push	{r7}
  91              		.cfi_def_cfa_offset 4
  92              		.cfi_offset 7, -4
  93 0002 00AF     		add	r7, sp, #0
  94              		.cfi_def_cfa_register 7
 153:.\Generated_Source\PSoC5/ADC_DelSig_INT.c ****         #ifdef ADC_DelSig_ISR3_ENTRY_CALLBACK
 154:.\Generated_Source\PSoC5/ADC_DelSig_INT.c ****             ADC_DelSig_ISR3_EntryCallback();
 155:.\Generated_Source\PSoC5/ADC_DelSig_INT.c ****         #endif /* ADC_DelSig_ISR3_ENTRY_CALLBACK */        
 156:.\Generated_Source\PSoC5/ADC_DelSig_INT.c **** 
 157:.\Generated_Source\PSoC5/ADC_DelSig_INT.c ****         
 158:.\Generated_Source\PSoC5/ADC_DelSig_INT.c ****         /***************************************************************************
 159:.\Generated_Source\PSoC5/ADC_DelSig_INT.c ****         *  Custom Code
 160:.\Generated_Source\PSoC5/ADC_DelSig_INT.c ****         *  - add user ISR code between the following #START and #END tags
 161:.\Generated_Source\PSoC5/ADC_DelSig_INT.c ****         **************************************************************************/
 162:.\Generated_Source\PSoC5/ADC_DelSig_INT.c ****         /* `#START MAIN_ADC_ISR3`  */
 163:.\Generated_Source\PSoC5/ADC_DelSig_INT.c **** 
 164:.\Generated_Source\PSoC5/ADC_DelSig_INT.c ****         /* `#END`  */
 165:.\Generated_Source\PSoC5/ADC_DelSig_INT.c ****         
 166:.\Generated_Source\PSoC5/ADC_DelSig_INT.c ****         /* Stop the conversion if conversion mode is set to single sample and
 167:.\Generated_Source\PSoC5/ADC_DelSig_INT.c ****         *  resolution is above 16 bits.
 168:.\Generated_Source\PSoC5/ADC_DelSig_INT.c ****         */
 169:.\Generated_Source\PSoC5/ADC_DelSig_INT.c ****         #if(ADC_DelSig_CFG3_RESOLUTION > 16 && \
 170:.\Generated_Source\PSoC5/ADC_DelSig_INT.c ****             ADC_DelSig_CFG3_CONVMODE == ADC_DelSig_MODE_SINGLE_SAMPLE)
 171:.\Generated_Source\PSoC5/ADC_DelSig_INT.c ****             ADC_DelSig_StopConvert();
 172:.\Generated_Source\PSoC5/ADC_DelSig_INT.c ****             /* Software flag for checking conversion complete or not. Will be used when
 173:.\Generated_Source\PSoC5/ADC_DelSig_INT.c ****             *  resolution is above 16 bits and conversion mode is single sample 
 174:.\Generated_Source\PSoC5/ADC_DelSig_INT.c **** 			*/
 175:.\Generated_Source\PSoC5/ADC_DelSig_INT.c ****             ADC_DelSig_convDone = ADC_DelSig_DEC_CONV_DONE;
 176:.\Generated_Source\PSoC5/ADC_DelSig_INT.c ****         #endif /* Single sample conversion mode with resolution above 16 bits */
 177:.\Generated_Source\PSoC5/ADC_DelSig_INT.c **** 
 178:.\Generated_Source\PSoC5/ADC_DelSig_INT.c ****         #ifdef ADC_DelSig_ISR3_EXIT_CALLBACK
 179:.\Generated_Source\PSoC5/ADC_DelSig_INT.c ****             ADC_DelSig_ISR3_ExitCallback();
 180:.\Generated_Source\PSoC5/ADC_DelSig_INT.c ****         #endif /* ADC_DelSig_ISR3_EXIT_CALLBACK */        
 181:.\Generated_Source\PSoC5/ADC_DelSig_INT.c ****     }
  95              		.loc 1 181 0
  96 0004 BD46     		mov	sp, r7
  97              		.cfi_def_cfa_register 13
  98              		@ sp needed
  99 0006 5DF8047B 		ldr	r7, [sp], #4
 100              		.cfi_restore 7
 101              		.cfi_def_cfa_offset 0
 102 000a 7047     		bx	lr
 103              		.cfi_endproc
 104              	.LFE2:
ARM GAS  C:\Users\LUKASC~1\AppData\Local\Temp\ccIYV4Tj.s 			page 6


 105              		.size	ADC_DelSig_ISR3, .-ADC_DelSig_ISR3
 106              		.section	.text.ADC_DelSig_ISR4,"ax",%progbits
 107              		.align	2
 108              		.global	ADC_DelSig_ISR4
 109              		.thumb
 110              		.thumb_func
 111              		.type	ADC_DelSig_ISR4, %function
 112              	ADC_DelSig_ISR4:
 113              	.LFB3:
 182:.\Generated_Source\PSoC5/ADC_DelSig_INT.c **** 
 183:.\Generated_Source\PSoC5/ADC_DelSig_INT.c **** 
 184:.\Generated_Source\PSoC5/ADC_DelSig_INT.c ****     /*****************************************************************************
 185:.\Generated_Source\PSoC5/ADC_DelSig_INT.c ****     * Function Name: ADC_DelSig_ISR4
 186:.\Generated_Source\PSoC5/ADC_DelSig_INT.c ****     ******************************************************************************
 187:.\Generated_Source\PSoC5/ADC_DelSig_INT.c ****     *
 188:.\Generated_Source\PSoC5/ADC_DelSig_INT.c ****     * Summary:
 189:.\Generated_Source\PSoC5/ADC_DelSig_INT.c ****     *  Handle Interrupt Service Routine.
 190:.\Generated_Source\PSoC5/ADC_DelSig_INT.c ****     *
 191:.\Generated_Source\PSoC5/ADC_DelSig_INT.c ****     * Parameters:
 192:.\Generated_Source\PSoC5/ADC_DelSig_INT.c ****     *  None
 193:.\Generated_Source\PSoC5/ADC_DelSig_INT.c ****     *
 194:.\Generated_Source\PSoC5/ADC_DelSig_INT.c ****     * Return:
 195:.\Generated_Source\PSoC5/ADC_DelSig_INT.c ****     *  None
 196:.\Generated_Source\PSoC5/ADC_DelSig_INT.c ****     *
 197:.\Generated_Source\PSoC5/ADC_DelSig_INT.c ****     * Reentrant:
 198:.\Generated_Source\PSoC5/ADC_DelSig_INT.c ****     *  No
 199:.\Generated_Source\PSoC5/ADC_DelSig_INT.c ****     *
 200:.\Generated_Source\PSoC5/ADC_DelSig_INT.c ****     *****************************************************************************/
 201:.\Generated_Source\PSoC5/ADC_DelSig_INT.c ****     CY_ISR( ADC_DelSig_ISR4)
 202:.\Generated_Source\PSoC5/ADC_DelSig_INT.c ****     {
 114              		.loc 1 202 0
 115              		.cfi_startproc
 116              		@ args = 0, pretend = 0, frame = 0
 117              		@ frame_needed = 1, uses_anonymous_args = 0
 118              		@ link register save eliminated.
 119 0000 80B4     		push	{r7}
 120              		.cfi_def_cfa_offset 4
 121              		.cfi_offset 7, -4
 122 0002 00AF     		add	r7, sp, #0
 123              		.cfi_def_cfa_register 7
 203:.\Generated_Source\PSoC5/ADC_DelSig_INT.c ****         #ifdef ADC_DelSig_ISR4_ENTRY_CALLBACK
 204:.\Generated_Source\PSoC5/ADC_DelSig_INT.c ****             ADC_DelSig_ISR4_EntryCallback();
 205:.\Generated_Source\PSoC5/ADC_DelSig_INT.c ****         #endif /* ADC_DelSig_ISR4_ENTRY_CALLBACK */            
 206:.\Generated_Source\PSoC5/ADC_DelSig_INT.c **** 
 207:.\Generated_Source\PSoC5/ADC_DelSig_INT.c ****         
 208:.\Generated_Source\PSoC5/ADC_DelSig_INT.c ****         /***************************************************************************
 209:.\Generated_Source\PSoC5/ADC_DelSig_INT.c ****         *  Custom Code
 210:.\Generated_Source\PSoC5/ADC_DelSig_INT.c ****         *  - add user ISR code between the following #START and #END tags
 211:.\Generated_Source\PSoC5/ADC_DelSig_INT.c ****         **************************************************************************/
 212:.\Generated_Source\PSoC5/ADC_DelSig_INT.c ****         /* `#START MAIN_ADC_ISR4`  */
 213:.\Generated_Source\PSoC5/ADC_DelSig_INT.c **** 
 214:.\Generated_Source\PSoC5/ADC_DelSig_INT.c ****         /* `#END`  */
 215:.\Generated_Source\PSoC5/ADC_DelSig_INT.c **** 
 216:.\Generated_Source\PSoC5/ADC_DelSig_INT.c ****         /* Stop the conversion if conversion mode is set to single sample and
 217:.\Generated_Source\PSoC5/ADC_DelSig_INT.c ****         *  resolution is above 16 bits.
 218:.\Generated_Source\PSoC5/ADC_DelSig_INT.c ****         */
 219:.\Generated_Source\PSoC5/ADC_DelSig_INT.c ****         #if(ADC_DelSig_CFG4_RESOLUTION > 16 && \
ARM GAS  C:\Users\LUKASC~1\AppData\Local\Temp\ccIYV4Tj.s 			page 7


 220:.\Generated_Source\PSoC5/ADC_DelSig_INT.c ****             ADC_DelSig_CFG4_CONVMODE == ADC_DelSig_MODE_SINGLE_SAMPLE)
 221:.\Generated_Source\PSoC5/ADC_DelSig_INT.c ****             ADC_DelSig_StopConvert();
 222:.\Generated_Source\PSoC5/ADC_DelSig_INT.c ****             /* Software flag for checking conversion complete or not. Will be used when
 223:.\Generated_Source\PSoC5/ADC_DelSig_INT.c ****             *  resolution is above 16 bits and conversion mode is single sample 
 224:.\Generated_Source\PSoC5/ADC_DelSig_INT.c **** 			*/
 225:.\Generated_Source\PSoC5/ADC_DelSig_INT.c ****             ADC_DelSig_convDone = ADC_DelSig_DEC_CONV_DONE;
 226:.\Generated_Source\PSoC5/ADC_DelSig_INT.c ****         #endif /* Single sample conversion mode with resolution above 16 bits */
 227:.\Generated_Source\PSoC5/ADC_DelSig_INT.c ****         
 228:.\Generated_Source\PSoC5/ADC_DelSig_INT.c ****         #ifdef ADC_DelSig_ISR4_EXIT_CALLBACK
 229:.\Generated_Source\PSoC5/ADC_DelSig_INT.c ****             ADC_DelSig_ISR4_ExitCallback();
 230:.\Generated_Source\PSoC5/ADC_DelSig_INT.c ****         #endif /* ADC_DelSig_ISR4_EXIT_CALLBACK */            
 231:.\Generated_Source\PSoC5/ADC_DelSig_INT.c ****     }
 124              		.loc 1 231 0
 125 0004 BD46     		mov	sp, r7
 126              		.cfi_def_cfa_register 13
 127              		@ sp needed
 128 0006 5DF8047B 		ldr	r7, [sp], #4
 129              		.cfi_restore 7
 130              		.cfi_def_cfa_offset 0
 131 000a 7047     		bx	lr
 132              		.cfi_endproc
 133              	.LFE3:
 134              		.size	ADC_DelSig_ISR4, .-ADC_DelSig_ISR4
 135              		.text
 136              	.Letext0: