ARM GAS  C:\Users\LUKASC~1\AppData\Local\Temp\cckkPwlx.s 			page 1


   1              		.syntax unified
   2              		.cpu cortex-m3
   3              		.fpu softvfp
   4              		.eabi_attribute 20, 1
   5              		.eabi_attribute 21, 1
   6              		.eabi_attribute 23, 3
   7              		.eabi_attribute 24, 1
   8              		.eabi_attribute 25, 1
   9              		.eabi_attribute 26, 1
  10              		.eabi_attribute 30, 6
  11              		.eabi_attribute 34, 1
  12              		.eabi_attribute 18, 4
  13              		.thumb
  14              		.file	"AMuxSeq.c"
  15              		.text
  16              	.Ltext0:
  17              		.cfi_sections	.debug_frame
  18              		.global	AMuxSeq_initVar
  19              		.bss
  20              		.type	AMuxSeq_initVar, %object
  21              		.size	AMuxSeq_initVar, 1
  22              	AMuxSeq_initVar:
  23 0000 00       		.space	1
  24              		.section	.text.AMuxSeq_Start,"ax",%progbits
  25              		.align	2
  26              		.global	AMuxSeq_Start
  27              		.thumb
  28              		.thumb_func
  29              		.type	AMuxSeq_Start, %function
  30              	AMuxSeq_Start:
  31              	.LFB0:
  32              		.file 1 ".\\Generated_Source\\PSoC5\\AMuxSeq.c"
   1:.\Generated_Source\PSoC5/AMuxSeq.c **** /*******************************************************************************
   2:.\Generated_Source\PSoC5/AMuxSeq.c **** * File Name: AMuxSeq.c
   3:.\Generated_Source\PSoC5/AMuxSeq.c **** * Version 1.80
   4:.\Generated_Source\PSoC5/AMuxSeq.c **** *
   5:.\Generated_Source\PSoC5/AMuxSeq.c **** *  Description:
   6:.\Generated_Source\PSoC5/AMuxSeq.c **** *    This file contains functions for the AMuxSeq.
   7:.\Generated_Source\PSoC5/AMuxSeq.c **** *
   8:.\Generated_Source\PSoC5/AMuxSeq.c **** *   Note:
   9:.\Generated_Source\PSoC5/AMuxSeq.c **** *
  10:.\Generated_Source\PSoC5/AMuxSeq.c **** *******************************************************************************
  11:.\Generated_Source\PSoC5/AMuxSeq.c **** * Copyright 2008-2010, Cypress Semiconductor Corporation.  All rights reserved.
  12:.\Generated_Source\PSoC5/AMuxSeq.c **** * You may use this file only in accordance with the license, terms, conditions, 
  13:.\Generated_Source\PSoC5/AMuxSeq.c **** * disclaimers, and limitations in the end user license agreement accompanying 
  14:.\Generated_Source\PSoC5/AMuxSeq.c **** * the software package with which this file was provided.
  15:.\Generated_Source\PSoC5/AMuxSeq.c **** ********************************************************************************/
  16:.\Generated_Source\PSoC5/AMuxSeq.c **** 
  17:.\Generated_Source\PSoC5/AMuxSeq.c **** #include "AMuxSeq.h"
  18:.\Generated_Source\PSoC5/AMuxSeq.c **** 
  19:.\Generated_Source\PSoC5/AMuxSeq.c **** uint8 AMuxSeq_initVar = 0u;
  20:.\Generated_Source\PSoC5/AMuxSeq.c **** 
  21:.\Generated_Source\PSoC5/AMuxSeq.c **** 
  22:.\Generated_Source\PSoC5/AMuxSeq.c **** /*******************************************************************************
  23:.\Generated_Source\PSoC5/AMuxSeq.c **** * Function Name: AMuxSeq_Start
  24:.\Generated_Source\PSoC5/AMuxSeq.c **** ********************************************************************************
  25:.\Generated_Source\PSoC5/AMuxSeq.c **** * Summary:
ARM GAS  C:\Users\LUKASC~1\AppData\Local\Temp\cckkPwlx.s 			page 2


  26:.\Generated_Source\PSoC5/AMuxSeq.c **** *  Disconnect all channels. The next time Next is called, channel 0 will be
  27:.\Generated_Source\PSoC5/AMuxSeq.c **** *  connected.
  28:.\Generated_Source\PSoC5/AMuxSeq.c **** *
  29:.\Generated_Source\PSoC5/AMuxSeq.c **** * Parameters:
  30:.\Generated_Source\PSoC5/AMuxSeq.c **** *  void
  31:.\Generated_Source\PSoC5/AMuxSeq.c **** *
  32:.\Generated_Source\PSoC5/AMuxSeq.c **** * Return:
  33:.\Generated_Source\PSoC5/AMuxSeq.c **** *  void
  34:.\Generated_Source\PSoC5/AMuxSeq.c **** *
  35:.\Generated_Source\PSoC5/AMuxSeq.c **** *******************************************************************************/
  36:.\Generated_Source\PSoC5/AMuxSeq.c **** void AMuxSeq_Start(void)
  37:.\Generated_Source\PSoC5/AMuxSeq.c **** {
  33              		.loc 1 37 0
  34              		.cfi_startproc
  35              		@ args = 0, pretend = 0, frame = 0
  36              		@ frame_needed = 1, uses_anonymous_args = 0
  37 0000 80B5     		push	{r7, lr}
  38              		.cfi_def_cfa_offset 8
  39              		.cfi_offset 7, -8
  40              		.cfi_offset 14, -4
  41 0002 00AF     		add	r7, sp, #0
  42              		.cfi_def_cfa_register 7
  38:.\Generated_Source\PSoC5/AMuxSeq.c ****     AMuxSeq_DisconnectAll();
  43              		.loc 1 38 0
  44 0004 FFF7FEFF 		bl	AMuxSeq_DisconnectAll
  39:.\Generated_Source\PSoC5/AMuxSeq.c ****     AMuxSeq_initVar = 1u;
  45              		.loc 1 39 0
  46 0008 014B     		ldr	r3, .L2
  47 000a 0122     		movs	r2, #1
  48 000c 1A70     		strb	r2, [r3]
  40:.\Generated_Source\PSoC5/AMuxSeq.c **** }
  49              		.loc 1 40 0
  50 000e 80BD     		pop	{r7, pc}
  51              	.L3:
  52              		.align	2
  53              	.L2:
  54 0010 00000000 		.word	AMuxSeq_initVar
  55              		.cfi_endproc
  56              	.LFE0:
  57              		.size	AMuxSeq_Start, .-AMuxSeq_Start
  58              		.section	.text.AMuxSeq_Init,"ax",%progbits
  59              		.align	2
  60              		.global	AMuxSeq_Init
  61              		.thumb
  62              		.thumb_func
  63              		.type	AMuxSeq_Init, %function
  64              	AMuxSeq_Init:
  65              	.LFB1:
  41:.\Generated_Source\PSoC5/AMuxSeq.c **** 
  42:.\Generated_Source\PSoC5/AMuxSeq.c **** 
  43:.\Generated_Source\PSoC5/AMuxSeq.c **** /*******************************************************************************
  44:.\Generated_Source\PSoC5/AMuxSeq.c **** * Function Name: AMuxSeq_Init
  45:.\Generated_Source\PSoC5/AMuxSeq.c **** ********************************************************************************
  46:.\Generated_Source\PSoC5/AMuxSeq.c **** * Summary:
  47:.\Generated_Source\PSoC5/AMuxSeq.c **** *  Disconnect all channels. The next time Next is called, channel 0 will be
  48:.\Generated_Source\PSoC5/AMuxSeq.c **** *  connected.
  49:.\Generated_Source\PSoC5/AMuxSeq.c **** *
ARM GAS  C:\Users\LUKASC~1\AppData\Local\Temp\cckkPwlx.s 			page 3


  50:.\Generated_Source\PSoC5/AMuxSeq.c **** * Parameters:
  51:.\Generated_Source\PSoC5/AMuxSeq.c **** *  void
  52:.\Generated_Source\PSoC5/AMuxSeq.c **** *
  53:.\Generated_Source\PSoC5/AMuxSeq.c **** * Return:
  54:.\Generated_Source\PSoC5/AMuxSeq.c **** *  void
  55:.\Generated_Source\PSoC5/AMuxSeq.c **** *
  56:.\Generated_Source\PSoC5/AMuxSeq.c **** *******************************************************************************/
  57:.\Generated_Source\PSoC5/AMuxSeq.c **** void AMuxSeq_Init(void)
  58:.\Generated_Source\PSoC5/AMuxSeq.c **** {
  66              		.loc 1 58 0
  67              		.cfi_startproc
  68              		@ args = 0, pretend = 0, frame = 0
  69              		@ frame_needed = 1, uses_anonymous_args = 0
  70 0000 80B5     		push	{r7, lr}
  71              		.cfi_def_cfa_offset 8
  72              		.cfi_offset 7, -8
  73              		.cfi_offset 14, -4
  74 0002 00AF     		add	r7, sp, #0
  75              		.cfi_def_cfa_register 7
  59:.\Generated_Source\PSoC5/AMuxSeq.c ****     AMuxSeq_DisconnectAll();
  76              		.loc 1 59 0
  77 0004 FFF7FEFF 		bl	AMuxSeq_DisconnectAll
  60:.\Generated_Source\PSoC5/AMuxSeq.c **** }
  78              		.loc 1 60 0
  79 0008 80BD     		pop	{r7, pc}
  80              		.cfi_endproc
  81              	.LFE1:
  82              		.size	AMuxSeq_Init, .-AMuxSeq_Init
  83 000a 00BF     		.section	.text.AMuxSeq_Stop,"ax",%progbits
  84              		.align	2
  85              		.global	AMuxSeq_Stop
  86              		.thumb
  87              		.thumb_func
  88              		.type	AMuxSeq_Stop, %function
  89              	AMuxSeq_Stop:
  90              	.LFB2:
  61:.\Generated_Source\PSoC5/AMuxSeq.c **** 
  62:.\Generated_Source\PSoC5/AMuxSeq.c **** 
  63:.\Generated_Source\PSoC5/AMuxSeq.c **** /*******************************************************************************
  64:.\Generated_Source\PSoC5/AMuxSeq.c **** * Function Name: AMuxSeq_Stop
  65:.\Generated_Source\PSoC5/AMuxSeq.c **** ********************************************************************************
  66:.\Generated_Source\PSoC5/AMuxSeq.c **** * Summary:
  67:.\Generated_Source\PSoC5/AMuxSeq.c **** *  Disconnect all channels. The next time Next is called, channel 0 will be
  68:.\Generated_Source\PSoC5/AMuxSeq.c **** *  connected.
  69:.\Generated_Source\PSoC5/AMuxSeq.c **** *
  70:.\Generated_Source\PSoC5/AMuxSeq.c **** * Parameters:
  71:.\Generated_Source\PSoC5/AMuxSeq.c **** *  void
  72:.\Generated_Source\PSoC5/AMuxSeq.c **** *
  73:.\Generated_Source\PSoC5/AMuxSeq.c **** * Return:
  74:.\Generated_Source\PSoC5/AMuxSeq.c **** *  void
  75:.\Generated_Source\PSoC5/AMuxSeq.c **** *
  76:.\Generated_Source\PSoC5/AMuxSeq.c **** *******************************************************************************/
  77:.\Generated_Source\PSoC5/AMuxSeq.c **** void AMuxSeq_Stop(void)
  78:.\Generated_Source\PSoC5/AMuxSeq.c **** {
  91              		.loc 1 78 0
  92              		.cfi_startproc
  93              		@ args = 0, pretend = 0, frame = 0
ARM GAS  C:\Users\LUKASC~1\AppData\Local\Temp\cckkPwlx.s 			page 4


  94              		@ frame_needed = 1, uses_anonymous_args = 0
  95 0000 80B5     		push	{r7, lr}
  96              		.cfi_def_cfa_offset 8
  97              		.cfi_offset 7, -8
  98              		.cfi_offset 14, -4
  99 0002 00AF     		add	r7, sp, #0
 100              		.cfi_def_cfa_register 7
  79:.\Generated_Source\PSoC5/AMuxSeq.c ****     AMuxSeq_DisconnectAll();
 101              		.loc 1 79 0
 102 0004 FFF7FEFF 		bl	AMuxSeq_DisconnectAll
  80:.\Generated_Source\PSoC5/AMuxSeq.c **** }
 103              		.loc 1 80 0
 104 0008 80BD     		pop	{r7, pc}
 105              		.cfi_endproc
 106              	.LFE2:
 107              		.size	AMuxSeq_Stop, .-AMuxSeq_Stop
 108 000a 00BF     		.section	.text.AMuxSeq_Next,"ax",%progbits
 109              		.align	2
 110              		.global	AMuxSeq_Next
 111              		.thumb
 112              		.thumb_func
 113              		.type	AMuxSeq_Next, %function
 114              	AMuxSeq_Next:
 115              	.LFB3:
  81:.\Generated_Source\PSoC5/AMuxSeq.c **** 
  82:.\Generated_Source\PSoC5/AMuxSeq.c **** #if (AMuxSeq_MUXTYPE == AMuxSeq_MUX_DIFF)
  83:.\Generated_Source\PSoC5/AMuxSeq.c **** 
  84:.\Generated_Source\PSoC5/AMuxSeq.c **** /*******************************************************************************
  85:.\Generated_Source\PSoC5/AMuxSeq.c **** * Function Name: AMuxSeq_Next
  86:.\Generated_Source\PSoC5/AMuxSeq.c **** ********************************************************************************
  87:.\Generated_Source\PSoC5/AMuxSeq.c **** * Summary:
  88:.\Generated_Source\PSoC5/AMuxSeq.c **** *  Disconnects the previous channel and connects the next one in the sequence.
  89:.\Generated_Source\PSoC5/AMuxSeq.c **** *  When Next is called for the first time after Init, Start, Enable, Stop, or
  90:.\Generated_Source\PSoC5/AMuxSeq.c **** *  DisconnectAll, it connects channel 0.
  91:.\Generated_Source\PSoC5/AMuxSeq.c **** *
  92:.\Generated_Source\PSoC5/AMuxSeq.c **** * Parameters:
  93:.\Generated_Source\PSoC5/AMuxSeq.c **** *  void
  94:.\Generated_Source\PSoC5/AMuxSeq.c **** *
  95:.\Generated_Source\PSoC5/AMuxSeq.c **** * Return:
  96:.\Generated_Source\PSoC5/AMuxSeq.c **** *  void
  97:.\Generated_Source\PSoC5/AMuxSeq.c **** *
  98:.\Generated_Source\PSoC5/AMuxSeq.c **** *******************************************************************************/
  99:.\Generated_Source\PSoC5/AMuxSeq.c **** void AMuxSeq_Next(void)
 100:.\Generated_Source\PSoC5/AMuxSeq.c **** {
 116              		.loc 1 100 0
 117              		.cfi_startproc
 118              		@ args = 0, pretend = 0, frame = 0
 119              		@ frame_needed = 1, uses_anonymous_args = 0
 120 0000 80B5     		push	{r7, lr}
 121              		.cfi_def_cfa_offset 8
 122              		.cfi_offset 7, -8
 123              		.cfi_offset 14, -4
 124 0002 00AF     		add	r7, sp, #0
 125              		.cfi_def_cfa_register 7
 101:.\Generated_Source\PSoC5/AMuxSeq.c ****     AMuxSeq_CYAMUXSIDE_A_Next();
 126              		.loc 1 101 0
 127 0004 FFF7FEFF 		bl	AMuxSeq_CYAMUXSIDE_A_Next
ARM GAS  C:\Users\LUKASC~1\AppData\Local\Temp\cckkPwlx.s 			page 5


 102:.\Generated_Source\PSoC5/AMuxSeq.c ****     AMuxSeq_CYAMUXSIDE_B_Next();
 128              		.loc 1 102 0
 129 0008 FFF7FEFF 		bl	AMuxSeq_CYAMUXSIDE_B_Next
 103:.\Generated_Source\PSoC5/AMuxSeq.c **** }
 130              		.loc 1 103 0
 131 000c 80BD     		pop	{r7, pc}
 132              		.cfi_endproc
 133              	.LFE3:
 134              		.size	AMuxSeq_Next, .-AMuxSeq_Next
 135 000e 00BF     		.section	.text.AMuxSeq_DisconnectAll,"ax",%progbits
 136              		.align	2
 137              		.global	AMuxSeq_DisconnectAll
 138              		.thumb
 139              		.thumb_func
 140              		.type	AMuxSeq_DisconnectAll, %function
 141              	AMuxSeq_DisconnectAll:
 142              	.LFB4:
 104:.\Generated_Source\PSoC5/AMuxSeq.c **** 
 105:.\Generated_Source\PSoC5/AMuxSeq.c **** 
 106:.\Generated_Source\PSoC5/AMuxSeq.c **** /*******************************************************************************
 107:.\Generated_Source\PSoC5/AMuxSeq.c **** * Function Name: AMuxSeq_DisconnectAll
 108:.\Generated_Source\PSoC5/AMuxSeq.c **** ********************************************************************************
 109:.\Generated_Source\PSoC5/AMuxSeq.c **** * Summary:
 110:.\Generated_Source\PSoC5/AMuxSeq.c **** *  This function disconnects all channels. The next time Next is called, channel
 111:.\Generated_Source\PSoC5/AMuxSeq.c **** *  0 will be connected.
 112:.\Generated_Source\PSoC5/AMuxSeq.c **** *
 113:.\Generated_Source\PSoC5/AMuxSeq.c **** * Parameters:
 114:.\Generated_Source\PSoC5/AMuxSeq.c **** *  void
 115:.\Generated_Source\PSoC5/AMuxSeq.c **** *
 116:.\Generated_Source\PSoC5/AMuxSeq.c **** * Return:
 117:.\Generated_Source\PSoC5/AMuxSeq.c **** *  void
 118:.\Generated_Source\PSoC5/AMuxSeq.c **** *
 119:.\Generated_Source\PSoC5/AMuxSeq.c **** *******************************************************************************/
 120:.\Generated_Source\PSoC5/AMuxSeq.c **** void AMuxSeq_DisconnectAll(void)
 121:.\Generated_Source\PSoC5/AMuxSeq.c **** {
 143              		.loc 1 121 0
 144              		.cfi_startproc
 145              		@ args = 0, pretend = 0, frame = 0
 146              		@ frame_needed = 1, uses_anonymous_args = 0
 147 0000 80B5     		push	{r7, lr}
 148              		.cfi_def_cfa_offset 8
 149              		.cfi_offset 7, -8
 150              		.cfi_offset 14, -4
 151 0002 00AF     		add	r7, sp, #0
 152              		.cfi_def_cfa_register 7
 122:.\Generated_Source\PSoC5/AMuxSeq.c ****     AMuxSeq_CYAMUXSIDE_A_DisconnectAll();
 153              		.loc 1 122 0
 154 0004 FFF7FEFF 		bl	AMuxSeq_CYAMUXSIDE_A_DisconnectAll
 123:.\Generated_Source\PSoC5/AMuxSeq.c ****     AMuxSeq_CYAMUXSIDE_B_DisconnectAll();
 155              		.loc 1 123 0
 156 0008 FFF7FEFF 		bl	AMuxSeq_CYAMUXSIDE_B_DisconnectAll
 124:.\Generated_Source\PSoC5/AMuxSeq.c **** }
 157              		.loc 1 124 0
 158 000c 80BD     		pop	{r7, pc}
 159              		.cfi_endproc
 160              	.LFE4:
 161              		.size	AMuxSeq_DisconnectAll, .-AMuxSeq_DisconnectAll
ARM GAS  C:\Users\LUKASC~1\AppData\Local\Temp\cckkPwlx.s 			page 6


 162 000e 00BF     		.section	.text.AMuxSeq_GetChannel,"ax",%progbits
 163              		.align	2
 164              		.global	AMuxSeq_GetChannel
 165              		.thumb
 166              		.thumb_func
 167              		.type	AMuxSeq_GetChannel, %function
 168              	AMuxSeq_GetChannel:
 169              	.LFB5:
 125:.\Generated_Source\PSoC5/AMuxSeq.c **** 
 126:.\Generated_Source\PSoC5/AMuxSeq.c **** 
 127:.\Generated_Source\PSoC5/AMuxSeq.c **** /*******************************************************************************
 128:.\Generated_Source\PSoC5/AMuxSeq.c **** * Function Name: AMuxSeq_GetChannel
 129:.\Generated_Source\PSoC5/AMuxSeq.c **** ********************************************************************************
 130:.\Generated_Source\PSoC5/AMuxSeq.c **** * Summary:
 131:.\Generated_Source\PSoC5/AMuxSeq.c **** *  The currently connected channel is retuned. If no channel is connected
 132:.\Generated_Source\PSoC5/AMuxSeq.c **** *  returns -1.
 133:.\Generated_Source\PSoC5/AMuxSeq.c **** *
 134:.\Generated_Source\PSoC5/AMuxSeq.c **** * Parameters:
 135:.\Generated_Source\PSoC5/AMuxSeq.c **** *  void
 136:.\Generated_Source\PSoC5/AMuxSeq.c **** *
 137:.\Generated_Source\PSoC5/AMuxSeq.c **** * Return:
 138:.\Generated_Source\PSoC5/AMuxSeq.c **** *  The current channel or -1.
 139:.\Generated_Source\PSoC5/AMuxSeq.c **** *
 140:.\Generated_Source\PSoC5/AMuxSeq.c **** *******************************************************************************/
 141:.\Generated_Source\PSoC5/AMuxSeq.c **** int8 AMuxSeq_GetChannel(void)
 142:.\Generated_Source\PSoC5/AMuxSeq.c **** {
 170              		.loc 1 142 0
 171              		.cfi_startproc
 172              		@ args = 0, pretend = 0, frame = 0
 173              		@ frame_needed = 1, uses_anonymous_args = 0
 174              		@ link register save eliminated.
 175 0000 80B4     		push	{r7}
 176              		.cfi_def_cfa_offset 4
 177              		.cfi_offset 7, -4
 178 0002 00AF     		add	r7, sp, #0
 179              		.cfi_def_cfa_register 7
 143:.\Generated_Source\PSoC5/AMuxSeq.c ****     return AMuxSeq_CYAMUXSIDE_A_curChannel;
 180              		.loc 1 143 0
 181 0004 034B     		ldr	r3, .L10
 182 0006 1B78     		ldrb	r3, [r3]	@ zero_extendqisi2
 183 0008 5BB2     		sxtb	r3, r3
 144:.\Generated_Source\PSoC5/AMuxSeq.c **** }
 184              		.loc 1 144 0
 185 000a 1846     		mov	r0, r3
 186 000c BD46     		mov	sp, r7
 187              		.cfi_def_cfa_register 13
 188              		@ sp needed
 189 000e 5DF8047B 		ldr	r7, [sp], #4
 190              		.cfi_restore 7
 191              		.cfi_def_cfa_offset 0
 192 0012 7047     		bx	lr
 193              	.L11:
 194              		.align	2
 195              	.L10:
 196 0014 00000000 		.word	AMuxSeq_CYAMUXSIDE_A_curChannel
 197              		.cfi_endproc
 198              	.LFE5:
ARM GAS  C:\Users\LUKASC~1\AppData\Local\Temp\cckkPwlx.s 			page 7


 199              		.size	AMuxSeq_GetChannel, .-AMuxSeq_GetChannel
 200              		.text
 201              	.Letext0:
 202              		.file 2 ".\\Generated_Source\\PSoC5\\cytypes.h"
 203              		.file 3 ".\\Generated_Source\\PSoC5\\cyfitter_cfg.h"