ARM GAS  C:\Users\LUKASC~1\AppData\Local\Temp\ccF3pS9x.s 			page 1


   1              		.syntax unified
   2              		.cpu cortex-m3
   3              		.fpu softvfp
   4              		.eabi_attribute 20, 1
   5              		.eabi_attribute 21, 1
   6              		.eabi_attribute 23, 3
   7              		.eabi_attribute 24, 1
   8              		.eabi_attribute 25, 1
   9              		.eabi_attribute 26, 1
  10              		.eabi_attribute 30, 6
  11              		.eabi_attribute 34, 1
  12              		.eabi_attribute 18, 4
  13              		.thumb
  14              		.file	"main.c"
  15              		.text
  16              	.Ltext0:
  17              		.cfi_sections	.debug_frame
  18              		.section	.rodata
  19              		.align	2
  20              	.LC0:
  21 0000 307800   		.ascii	"0x\000"
  22 0003 00       		.align	2
  23              	.LC1:
  24 0004 49324320 		.ascii	"I2C Error!\000"
  24      4572726F 
  24      722100
  25 000f 00       		.section	.text.main,"ax",%progbits
  26              		.align	2
  27              		.global	main
  28              		.thumb
  29              		.thumb_func
  30              		.type	main, %function
  31              	main:
  32              	.LFB63:
  33              		.file 1 ".\\main.c"
   1:.\main.c      **** /*******************************************************************************
   2:.\main.c      **** * File Name: main.c
   3:.\main.c      **** *
   4:.\main.c      **** * Version: 1.0
   5:.\main.c      **** *
   6:.\main.c      **** * Description:
   7:.\main.c      **** *  This is source code for the 8-ch DelSig ADC and I2C Slave Example Project.
   8:.\main.c      **** *
   9:.\main.c      **** * Parameters used:
  10:.\main.c      **** *  I2C Slave
  11:.\main.c      **** *   Implementation        Fixed function
  12:.\main.c      **** *   Data rate            100kbps
  13:.\main.c      **** *   SDA SCL config         Open drain, drives low
  14:.\main.c      **** *   Pull-up resistors    2.67k each
  15:.\main.c      **** *    Address                8
  16:.\main.c      **** *    Address decode        Hardware
  17:.\main.c      **** *
  18:.\main.c      **** *  Delta Sigma ADC
  19:.\main.c      **** *      Conversion mode     1-Multi Sample
  20:.\main.c      **** *    Resolution            16 bits
  21:.\main.c      **** *    Conversion Rate        5000 SPS
  22:.\main.c      **** *    Input mode            Differential
ARM GAS  C:\Users\LUKASC~1\AppData\Local\Temp\ccF3pS9x.s 			page 2


  23:.\main.c      **** *
  24:.\main.c      **** *  IDAC
  25:.\main.c      **** *    Polarity            Positive
  26:.\main.c      **** *    Range                0-31.875 uA
  27:.\main.c      **** *    Speed                Slow
  28:.\main.c      **** *    Output Current        10uA
  29:.\main.c      **** *
  30:.\main.c      **** *  Sequencing Max
  31:.\main.c      **** *    Mux type            Differential
  32:.\main.c      **** *    Channels            8
  33:.\main.c      **** *
  34:.\main.c      **** * In this project, data converted by the 8-channel, sequenced ADC is sent via
  35:.\main.c      **** * I2C. The main project containing an I2C slave is tested with a separate
  36:.\main.c      **** * project containing an I2C master. The data output by the ADC is made
  37:.\main.c      **** * visible on an Character LCD. This can be used to verify the data
  38:.\main.c      **** * received by the I2C master which is also displayed on an LCD screen.
  39:.\main.c      **** *
  40:.\main.c      **** * The communication flow is as follows:
  41:.\main.c      **** * When the device is reset, all components are started and an initial ADC
  42:.\main.c      **** * reading is taken. This is stored in the read buffer of the I2C slave and
  43:.\main.c      **** * the ADC is stopped. Then the infinite 'for' loop begins. Only if the correct
  44:.\main.c      **** * number of bytes of the read buffer are read by the I2C master, a new reading
  45:.\main.c      **** * is taken from the ADC and the loop continues.
  46:.\main.c      **** *
  47:.\main.c      **** ********************************************************************************
  48:.\main.c      **** * Copyright 2012, Cypress Semiconductor Corporation. All rights reserved.
  49:.\main.c      **** * This software is owned by Cypress Semiconductor Corporation and is protected
  50:.\main.c      **** * by and subject to worldwide patent and copyright laws and treaties.
  51:.\main.c      **** * Therefore, you may use this software only as provided in the license agreement
  52:.\main.c      **** * accompanying the software package from which you obtained this software.
  53:.\main.c      **** * CYPRESS AND ITS SUPPLIERS MAKE NO WARRANTY OF ANY KIND, EXPRESS OR IMPLIED,
  54:.\main.c      **** * WITH REGARD TO THIS SOFTWARE, INCLUDING, BUT NOT LIMITED TO, NONINFRINGEMENT,
  55:.\main.c      **** * IMPLIED WARRANTIES OF MERCHANTABILITY AND FITNESS FOR A PARTICULAR PURPOSE.
  56:.\main.c      **** *******************************************************************************/
  57:.\main.c      **** #include <device.h>
  58:.\main.c      **** 
  59:.\main.c      **** /* Set the write buffer length to be 16 bites or 2 bytes */
  60:.\main.c      **** #define RD_BUFFER_SIZE        (2u)
  61:.\main.c      **** 
  62:.\main.c      **** 
  63:.\main.c      **** /*******************************************************************************
  64:.\main.c      **** * Function Name: main
  65:.\main.c      **** ********************************************************************************
  66:.\main.c      **** *
  67:.\main.c      **** * Summary:
  68:.\main.c      **** *  main function performs following functions:
  69:.\main.c      **** *   1. Starts all used components.
  70:.\main.c      **** *   2. Controls sequencing of ADC inputs.
  71:.\main.c      **** *   3. Reads ADC converted data, puts this in a read buffer to be read by the
  72:.\main.c      **** *       I2C Master.
  73:.\main.c      **** *   4. Displays ADC converted data on Character LCD.
  74:.\main.c      **** *
  75:.\main.c      **** * Parameters:
  76:.\main.c      **** *  None.
  77:.\main.c      **** *
  78:.\main.c      **** * Return:
  79:.\main.c      **** *  None.
ARM GAS  C:\Users\LUKASC~1\AppData\Local\Temp\ccF3pS9x.s 			page 3


  80:.\main.c      **** *
  81:.\main.c      **** *******************************************************************************/
  82:.\main.c      **** int main()
  83:.\main.c      **** {
  34              		.loc 1 83 0
  35              		.cfi_startproc
  36              		@ args = 0, pretend = 0, frame = 8
  37              		@ frame_needed = 1, uses_anonymous_args = 0
  38 0000 80B5     		push	{r7, lr}
  39              		.cfi_def_cfa_offset 8
  40              		.cfi_offset 7, -8
  41              		.cfi_offset 14, -4
  42 0002 82B0     		sub	sp, sp, #8
  43              		.cfi_def_cfa_offset 16
  44 0004 00AF     		add	r7, sp, #0
  45              		.cfi_def_cfa_register 7
  84:.\main.c      ****     /* To conserve memory space, set up temporary variable for storing ADC
  85:.\main.c      ****      * converted values and the write buffer as a union.
  86:.\main.c      ****      */
  87:.\main.c      **** 
  88:.\main.c      ****     uint8 byteCount = 0u;
  46              		.loc 1 88 0
  47 0006 0023     		movs	r3, #0
  48 0008 7B71     		strb	r3, [r7, #5]
  89:.\main.c      ****     uint8 sample_segment[RD_BUFFER_SIZE];
  90:.\main.c      ****     uint16 sample_full = 0u;
  49              		.loc 1 90 0
  50 000a 0023     		movs	r3, #0
  51 000c FB80     		strh	r3, [r7, #6]	@ movhi
  91:.\main.c      **** 
  92:.\main.c      ****     /* Set up slave read data buffer */
  93:.\main.c      ****     I2CS_SlaveInitReadBuf((uint8 *) sample_segment, RD_BUFFER_SIZE);
  52              		.loc 1 93 0
  53 000e 3B46     		mov	r3, r7
  54 0010 1846     		mov	r0, r3
  55 0012 0221     		movs	r1, #2
  56 0014 FFF7FEFF 		bl	I2CS_SlaveInitReadBuf
  94:.\main.c      **** 
  95:.\main.c      ****     I2CS_Start();
  57              		.loc 1 95 0
  58 0018 FFF7FEFF 		bl	I2CS_Start
  96:.\main.c      ****     IDAC8_Start();
  59              		.loc 1 96 0
  60 001c FFF7FEFF 		bl	IDAC8_Start
  97:.\main.c      **** 
  98:.\main.c      ****     /* The Start API for Mux sets it up, but disconnects all the channels.
  99:.\main.c      ****      * To connect the first channel, call the 'AMuxSeq_Next' function
 100:.\main.c      ****      */
 101:.\main.c      ****     AMuxSeq_Start();
  61              		.loc 1 101 0
  62 0020 FFF7FEFF 		bl	AMuxSeq_Start
 102:.\main.c      ****     AMuxSeq_Next();
  63              		.loc 1 102 0
  64 0024 FFF7FEFF 		bl	AMuxSeq_Next
 103:.\main.c      **** 
 104:.\main.c      ****     LCD_Char_Start();
  65              		.loc 1 104 0
ARM GAS  C:\Users\LUKASC~1\AppData\Local\Temp\ccF3pS9x.s 			page 4


  66 0028 FFF7FEFF 		bl	LCD_Char_Start
 105:.\main.c      ****     ADC_DelSig_Start();
  67              		.loc 1 105 0
  68 002c FFF7FEFF 		bl	ADC_DelSig_Start
 106:.\main.c      ****     ADC_DelSig_StartConvert();
  69              		.loc 1 106 0
  70 0030 FFF7FEFF 		bl	ADC_DelSig_StartConvert
 107:.\main.c      **** 
 108:.\main.c      ****     /* Enable global interrupts - needed for I2C operation */
 109:.\main.c      ****     CyGlobalIntEnable;
  71              		.loc 1 109 0
  72              	@ 109 ".\main.c" 1
  73 0034 62B6     		CPSIE   i
  74              	@ 0 "" 2
  75              		.thumb
  76              	.L4:
 110:.\main.c      **** 
 111:.\main.c      ****     for(;;)
 112:.\main.c      ****     {
 113:.\main.c      ****         /* Check if the slave buffer has been read */
 114:.\main.c      ****         if(I2CS_SlaveStatus() & I2CS_SSTAT_RD_CMPLT)
  77              		.loc 1 114 0
  78 0036 FFF7FEFF 		bl	I2CS_SlaveStatus
  79 003a 0346     		mov	r3, r0
  80 003c 03F00103 		and	r3, r3, #1
  81 0040 002B     		cmp	r3, #0
  82 0042 32D0     		beq	.L2
 115:.\main.c      ****         {
 116:.\main.c      ****             ADC_DelSig_StartConvert();
  83              		.loc 1 116 0
  84 0044 FFF7FEFF 		bl	ADC_DelSig_StartConvert
 117:.\main.c      ****             ADC_DelSig_IsEndConversion(ADC_DelSig_WAIT_FOR_RESULT);
  85              		.loc 1 117 0
  86 0048 0020     		movs	r0, #0
  87 004a FFF7FEFF 		bl	ADC_DelSig_IsEndConversion
 118:.\main.c      ****             ADC_DelSig_StopConvert();
  88              		.loc 1 118 0
  89 004e FFF7FEFF 		bl	ADC_DelSig_StopConvert
 119:.\main.c      ****             AMuxSeq_Next();
  90              		.loc 1 119 0
  91 0052 FFF7FEFF 		bl	AMuxSeq_Next
 120:.\main.c      ****         
 121:.\main.c      ****             byteCount = I2CS_SlaveGetReadBufSize();
  92              		.loc 1 121 0
  93 0056 FFF7FEFF 		bl	I2CS_SlaveGetReadBufSize
  94 005a 0346     		mov	r3, r0
  95 005c 7B71     		strb	r3, [r7, #5]
 122:.\main.c      ****             I2CS_SlaveClearReadStatus();
  96              		.loc 1 122 0
  97 005e FFF7FEFF 		bl	I2CS_SlaveClearReadStatus
 123:.\main.c      ****             I2CS_SlaveClearReadBuf();
  98              		.loc 1 123 0
  99 0062 FFF7FEFF 		bl	I2CS_SlaveClearReadBuf
 124:.\main.c      **** 
 125:.\main.c      ****             /* If both bytes of the read buffer have been read */
 126:.\main.c      ****             if(byteCount == RD_BUFFER_SIZE)
 100              		.loc 1 126 0
ARM GAS  C:\Users\LUKASC~1\AppData\Local\Temp\ccF3pS9x.s 			page 5


 101 0066 7B79     		ldrb	r3, [r7, #5]	@ zero_extendqisi2
 102 0068 022B     		cmp	r3, #2
 103 006a 18D1     		bne	.L3
 127:.\main.c      ****             {
 128:.\main.c      ****                 /* Display data that was placed in the buffer on the LCD and verify
 129:.\main.c      ****                  * this is same as that received by master */
 130:.\main.c      ****                 LCD_Char_ClearDisplay();
 104              		.loc 1 130 0
 105 006c 0120     		movs	r0, #1
 106 006e FFF7FEFF 		bl	LCD_Char_WriteControl
 131:.\main.c      ****                 LCD_Char_PrintString("0x");
 107              		.loc 1 131 0
 108 0072 0E48     		ldr	r0, .L5
 109 0074 FFF7FEFF 		bl	LCD_Char_PrintString
 132:.\main.c      ****                 LCD_Char_PrintInt16(sample_full);
 110              		.loc 1 132 0
 111 0078 FB88     		ldrh	r3, [r7, #6]
 112 007a 1846     		mov	r0, r3
 113 007c FFF7FEFF 		bl	LCD_Char_PrintInt16
 133:.\main.c      **** 
 134:.\main.c      ****                 /* Disable the interrupts when writing to the Read buffer
 135:.\main.c      ****                  * so that the Master cannot read the slave buffer during the act of writing
 136:.\main.c      ****                  * to the buffer.
 137:.\main.c      ****                  */
 138:.\main.c      ****                 CyGlobalIntDisable;
 114              		.loc 1 138 0
 115              	@ 138 ".\main.c" 1
 116 0080 72B6     		CPSID   i
 117              	@ 0 "" 2
 139:.\main.c      ****                 sample_full = ADC_DelSig_GetResult16();
 118              		.loc 1 139 0
 119              		.thumb
 120 0082 FFF7FEFF 		bl	ADC_DelSig_GetResult16
 121 0086 0346     		mov	r3, r0
 122 0088 FB80     		strh	r3, [r7, #6]	@ movhi
 140:.\main.c      ****                 sample_segment[0] = sample_full >> 8u & 0x00FF;
 123              		.loc 1 140 0
 124 008a FB88     		ldrh	r3, [r7, #6]
 125 008c 1B0A     		lsrs	r3, r3, #8
 126 008e 9BB2     		uxth	r3, r3
 127 0090 DBB2     		uxtb	r3, r3
 128 0092 3B70     		strb	r3, [r7]
 141:.\main.c      ****                 sample_segment[1] = sample_full & 0x00FF;
 129              		.loc 1 141 0
 130 0094 FB88     		ldrh	r3, [r7, #6]	@ movhi
 131 0096 DBB2     		uxtb	r3, r3
 132 0098 7B70     		strb	r3, [r7, #1]
 142:.\main.c      ****                 CyGlobalIntEnable;
 133              		.loc 1 142 0
 134              	@ 142 ".\main.c" 1
 135 009a 62B6     		CPSIE   i
 136              	@ 0 "" 2
 137              		.thumb
 138 009c 05E0     		b	.L2
 139              	.L3:
 143:.\main.c      ****             }
 144:.\main.c      **** 
ARM GAS  C:\Users\LUKASC~1\AppData\Local\Temp\ccF3pS9x.s 			page 6


 145:.\main.c      ****             else /* Wrong number of bytes read - place error handling code here */
 146:.\main.c      ****             {
 147:.\main.c      ****                 LCD_Char_ClearDisplay();
 140              		.loc 1 147 0
 141 009e 0120     		movs	r0, #1
 142 00a0 FFF7FEFF 		bl	LCD_Char_WriteControl
 148:.\main.c      ****                 LCD_Char_PrintString("I2C Error!");
 143              		.loc 1 148 0
 144 00a4 0248     		ldr	r0, .L5+4
 145 00a6 FFF7FEFF 		bl	LCD_Char_PrintString
 146              	.L2:
 149:.\main.c      ****             }
 150:.\main.c      ****         }
 151:.\main.c      ****     } /* End of forever loop */
 147              		.loc 1 151 0
 148 00aa C4E7     		b	.L4
 149              	.L6:
 150              		.align	2
 151              	.L5:
 152 00ac 00000000 		.word	.LC0
 153 00b0 04000000 		.word	.LC1
 154              		.cfi_endproc
 155              	.LFE63:
 156              		.size	main, .-main
 157              		.text
 158              	.Letext0:
 159              		.file 2 "c:\\program files (x86)\\cypress\\psoc creator\\3.3\\psoc creator\\import\\gnu\\arm\\4.9.
 160              		.file 3 "c:\\program files (x86)\\cypress\\psoc creator\\3.3\\psoc creator\\import\\gnu\\arm\\4.9.
 161              		.file 4 "Generated_Source\\PSoC5/cytypes.h"
 162              		.file 5 "Generated_Source\\PSoC5/core_cm3.h"