ARM GAS  C:\Users\LUKASC~1\AppData\Local\Temp\ccg6ewFT.s 			page 1


   1              		.syntax unified
   2              		.cpu cortex-m3
   3              		.fpu softvfp
   4              		.eabi_attribute 20, 1
   5              		.eabi_attribute 21, 1
   6              		.eabi_attribute 23, 3
   7              		.eabi_attribute 24, 1
   8              		.eabi_attribute 25, 1
   9              		.eabi_attribute 26, 1
  10              		.eabi_attribute 30, 6
  11              		.eabi_attribute 34, 1
  12              		.eabi_attribute 18, 4
  13              		.thumb
  14              		.file	"cyfitter_cfg.c"
  15              		.text
  16              	.Ltext0:
  17              		.cfi_sections	.debug_frame
  18              		.section	.text.CYMEMZERO,"ax",%progbits
  19              		.align	2
  20              		.thumb
  21              		.thumb_func
  22              		.type	CYMEMZERO, %function
  23              	CYMEMZERO:
  24              	.LFB0:
  25              		.file 1 ".\\Generated_Source\\PSoC5\\cyfitter_cfg.c"
   1:.\Generated_Source\PSoC5/cyfitter_cfg.c **** /*******************************************************************************
   2:.\Generated_Source\PSoC5/cyfitter_cfg.c **** * File Name: cyfitter_cfg.c
   3:.\Generated_Source\PSoC5/cyfitter_cfg.c **** * 
   4:.\Generated_Source\PSoC5/cyfitter_cfg.c **** * PSoC Creator  3.3 SP2
   5:.\Generated_Source\PSoC5/cyfitter_cfg.c **** *
   6:.\Generated_Source\PSoC5/cyfitter_cfg.c **** * Description:
   7:.\Generated_Source\PSoC5/cyfitter_cfg.c **** * This file contains device initialization code.
   8:.\Generated_Source\PSoC5/cyfitter_cfg.c **** * Except for the user defined sections in CyClockStartupError(), this file should not be modified.
   9:.\Generated_Source\PSoC5/cyfitter_cfg.c **** * This file is automatically generated by PSoC Creator.
  10:.\Generated_Source\PSoC5/cyfitter_cfg.c **** *
  11:.\Generated_Source\PSoC5/cyfitter_cfg.c **** ********************************************************************************
  12:.\Generated_Source\PSoC5/cyfitter_cfg.c **** * Copyright (c) 2007-2016 Cypress Semiconductor.  All rights reserved.
  13:.\Generated_Source\PSoC5/cyfitter_cfg.c **** * You may use this file only in accordance with the license, terms, conditions, 
  14:.\Generated_Source\PSoC5/cyfitter_cfg.c **** * disclaimers, and limitations in the end user license agreement accompanying 
  15:.\Generated_Source\PSoC5/cyfitter_cfg.c **** * the software package with which this file was provided.
  16:.\Generated_Source\PSoC5/cyfitter_cfg.c **** ********************************************************************************/
  17:.\Generated_Source\PSoC5/cyfitter_cfg.c **** 
  18:.\Generated_Source\PSoC5/cyfitter_cfg.c **** #include <string.h>
  19:.\Generated_Source\PSoC5/cyfitter_cfg.c **** #include "cytypes.h"
  20:.\Generated_Source\PSoC5/cyfitter_cfg.c **** #include "cydevice_trm.h"
  21:.\Generated_Source\PSoC5/cyfitter_cfg.c **** #include "cyfitter.h"
  22:.\Generated_Source\PSoC5/cyfitter_cfg.c **** #include "CyLib.h"
  23:.\Generated_Source\PSoC5/cyfitter_cfg.c **** #include "cyfitter_cfg.h"
  24:.\Generated_Source\PSoC5/cyfitter_cfg.c **** 
  25:.\Generated_Source\PSoC5/cyfitter_cfg.c **** #define CY_NEED_CYCLOCKSTARTUPERROR 1
  26:.\Generated_Source\PSoC5/cyfitter_cfg.c **** 
  27:.\Generated_Source\PSoC5/cyfitter_cfg.c **** 
  28:.\Generated_Source\PSoC5/cyfitter_cfg.c **** #if defined(__GNUC__) || defined(__ARMCC_VERSION)
  29:.\Generated_Source\PSoC5/cyfitter_cfg.c ****     #define CYPACKED 
  30:.\Generated_Source\PSoC5/cyfitter_cfg.c ****     #define CYPACKED_ATTR __attribute__ ((packed))
  31:.\Generated_Source\PSoC5/cyfitter_cfg.c ****     #define CYALIGNED __attribute__ ((aligned))
  32:.\Generated_Source\PSoC5/cyfitter_cfg.c ****     #define CY_CFG_UNUSED __attribute__ ((unused))
ARM GAS  C:\Users\LUKASC~1\AppData\Local\Temp\ccg6ewFT.s 			page 2


  33:.\Generated_Source\PSoC5/cyfitter_cfg.c ****     #ifndef CY_CFG_SECTION
  34:.\Generated_Source\PSoC5/cyfitter_cfg.c ****         #define CY_CFG_SECTION __attribute__ ((section(".psocinit")))
  35:.\Generated_Source\PSoC5/cyfitter_cfg.c ****     #endif
  36:.\Generated_Source\PSoC5/cyfitter_cfg.c ****     
  37:.\Generated_Source\PSoC5/cyfitter_cfg.c ****     #if CYDEV_CONFIGURATION_DMA
  38:.\Generated_Source\PSoC5/cyfitter_cfg.c ****         #if (defined(__ARMCC_VERSION) || defined(__GNUC__))
  39:.\Generated_Source\PSoC5/cyfitter_cfg.c ****             #ifndef DMAINITSEC
  40:.\Generated_Source\PSoC5/cyfitter_cfg.c ****                 #define DMAINITSEC __attribute__ ((section(".dma_init")))
  41:.\Generated_Source\PSoC5/cyfitter_cfg.c ****             #endif
  42:.\Generated_Source\PSoC5/cyfitter_cfg.c ****         #elif defined(__ICCARM__)
  43:.\Generated_Source\PSoC5/cyfitter_cfg.c ****             #define DMAINITSEC _Pragma("location=\".dma_init\"")
  44:.\Generated_Source\PSoC5/cyfitter_cfg.c ****         #endif
  45:.\Generated_Source\PSoC5/cyfitter_cfg.c ****     #else
  46:.\Generated_Source\PSoC5/cyfitter_cfg.c ****         #define DMAINITSEC
  47:.\Generated_Source\PSoC5/cyfitter_cfg.c ****     #endif
  48:.\Generated_Source\PSoC5/cyfitter_cfg.c **** 
  49:.\Generated_Source\PSoC5/cyfitter_cfg.c ****     #if defined(__ARMCC_VERSION)
  50:.\Generated_Source\PSoC5/cyfitter_cfg.c ****         #define CY_CFG_MEMORY_BARRIER() __memory_changed()
  51:.\Generated_Source\PSoC5/cyfitter_cfg.c ****     #else
  52:.\Generated_Source\PSoC5/cyfitter_cfg.c ****         #define CY_CFG_MEMORY_BARRIER() __sync_synchronize()
  53:.\Generated_Source\PSoC5/cyfitter_cfg.c ****     #endif
  54:.\Generated_Source\PSoC5/cyfitter_cfg.c ****     
  55:.\Generated_Source\PSoC5/cyfitter_cfg.c **** #elif defined(__ICCARM__)
  56:.\Generated_Source\PSoC5/cyfitter_cfg.c ****     #include <intrinsics.h>
  57:.\Generated_Source\PSoC5/cyfitter_cfg.c **** 
  58:.\Generated_Source\PSoC5/cyfitter_cfg.c ****     #define CYPACKED __packed
  59:.\Generated_Source\PSoC5/cyfitter_cfg.c ****     #define CYPACKED_ATTR 
  60:.\Generated_Source\PSoC5/cyfitter_cfg.c ****     #define CYALIGNED _Pragma("data_alignment=4")
  61:.\Generated_Source\PSoC5/cyfitter_cfg.c ****     #define CY_CFG_UNUSED _Pragma("diag_suppress=Pe177")
  62:.\Generated_Source\PSoC5/cyfitter_cfg.c ****     #define CY_CFG_SECTION _Pragma("location=\".psocinit\"")
  63:.\Generated_Source\PSoC5/cyfitter_cfg.c ****     
  64:.\Generated_Source\PSoC5/cyfitter_cfg.c ****     #if CYDEV_CONFIGURATION_DMA
  65:.\Generated_Source\PSoC5/cyfitter_cfg.c ****         #if (defined(__ARMCC_VERSION) || defined(__GNUC__))
  66:.\Generated_Source\PSoC5/cyfitter_cfg.c ****             #ifndef DMAINITSEC
  67:.\Generated_Source\PSoC5/cyfitter_cfg.c ****                 #define DMAINITSEC __attribute__ ((section(".dma_init")))
  68:.\Generated_Source\PSoC5/cyfitter_cfg.c ****             #endif
  69:.\Generated_Source\PSoC5/cyfitter_cfg.c ****         #elif defined(__ICCARM__)
  70:.\Generated_Source\PSoC5/cyfitter_cfg.c ****             #define DMAINITSEC _Pragma("location=\".dma_init\"")
  71:.\Generated_Source\PSoC5/cyfitter_cfg.c ****         #endif
  72:.\Generated_Source\PSoC5/cyfitter_cfg.c ****     #else
  73:.\Generated_Source\PSoC5/cyfitter_cfg.c ****         #define DMAINITSEC
  74:.\Generated_Source\PSoC5/cyfitter_cfg.c ****     #endif
  75:.\Generated_Source\PSoC5/cyfitter_cfg.c **** 
  76:.\Generated_Source\PSoC5/cyfitter_cfg.c ****     #define CY_CFG_MEMORY_BARRIER() __DMB()
  77:.\Generated_Source\PSoC5/cyfitter_cfg.c ****     
  78:.\Generated_Source\PSoC5/cyfitter_cfg.c **** #else
  79:.\Generated_Source\PSoC5/cyfitter_cfg.c ****     #error Unsupported toolchain
  80:.\Generated_Source\PSoC5/cyfitter_cfg.c **** #endif
  81:.\Generated_Source\PSoC5/cyfitter_cfg.c **** 
  82:.\Generated_Source\PSoC5/cyfitter_cfg.c **** 
  83:.\Generated_Source\PSoC5/cyfitter_cfg.c **** CY_CFG_UNUSED
  84:.\Generated_Source\PSoC5/cyfitter_cfg.c **** static void CYMEMZERO(void *s, size_t n);
  85:.\Generated_Source\PSoC5/cyfitter_cfg.c **** CY_CFG_UNUSED
  86:.\Generated_Source\PSoC5/cyfitter_cfg.c **** static void CYMEMZERO(void *s, size_t n)
  87:.\Generated_Source\PSoC5/cyfitter_cfg.c **** {
  26              		.loc 1 87 0
  27              		.cfi_startproc
ARM GAS  C:\Users\LUKASC~1\AppData\Local\Temp\ccg6ewFT.s 			page 3


  28              		@ args = 0, pretend = 0, frame = 8
  29              		@ frame_needed = 1, uses_anonymous_args = 0
  30 0000 80B5     		push	{r7, lr}
  31              		.cfi_def_cfa_offset 8
  32              		.cfi_offset 7, -8
  33              		.cfi_offset 14, -4
  34 0002 82B0     		sub	sp, sp, #8
  35              		.cfi_def_cfa_offset 16
  36 0004 00AF     		add	r7, sp, #0
  37              		.cfi_def_cfa_register 7
  38 0006 7860     		str	r0, [r7, #4]
  39 0008 3960     		str	r1, [r7]
  88:.\Generated_Source\PSoC5/cyfitter_cfg.c **** 	(void)memset(s, 0, n);
  40              		.loc 1 88 0
  41 000a 7868     		ldr	r0, [r7, #4]
  42 000c 0021     		movs	r1, #0
  43 000e 3A68     		ldr	r2, [r7]
  44 0010 FFF7FEFF 		bl	memset
  89:.\Generated_Source\PSoC5/cyfitter_cfg.c **** }
  45              		.loc 1 89 0
  46 0014 0837     		adds	r7, r7, #8
  47              		.cfi_def_cfa_offset 8
  48 0016 BD46     		mov	sp, r7
  49              		.cfi_def_cfa_register 13
  50              		@ sp needed
  51 0018 80BD     		pop	{r7, pc}
  52              		.cfi_endproc
  53              	.LFE0:
  54              		.size	CYMEMZERO, .-CYMEMZERO
  55 001a 00BF     		.section	.text.CYCONFIGCPY,"ax",%progbits
  56              		.align	2
  57              		.thumb
  58              		.thumb_func
  59              		.type	CYCONFIGCPY, %function
  60              	CYCONFIGCPY:
  61              	.LFB1:
  90:.\Generated_Source\PSoC5/cyfitter_cfg.c **** CY_CFG_UNUSED
  91:.\Generated_Source\PSoC5/cyfitter_cfg.c **** static void CYCONFIGCPY(void *dest, const void *src, size_t n);
  92:.\Generated_Source\PSoC5/cyfitter_cfg.c **** CY_CFG_UNUSED
  93:.\Generated_Source\PSoC5/cyfitter_cfg.c **** static void CYCONFIGCPY(void *dest, const void *src, size_t n)
  94:.\Generated_Source\PSoC5/cyfitter_cfg.c **** {
  62              		.loc 1 94 0
  63              		.cfi_startproc
  64              		@ args = 0, pretend = 0, frame = 16
  65              		@ frame_needed = 1, uses_anonymous_args = 0
  66 0000 80B5     		push	{r7, lr}
  67              		.cfi_def_cfa_offset 8
  68              		.cfi_offset 7, -8
  69              		.cfi_offset 14, -4
  70 0002 84B0     		sub	sp, sp, #16
  71              		.cfi_def_cfa_offset 24
  72 0004 00AF     		add	r7, sp, #0
  73              		.cfi_def_cfa_register 7
  74 0006 F860     		str	r0, [r7, #12]
  75 0008 B960     		str	r1, [r7, #8]
  76 000a 7A60     		str	r2, [r7, #4]
  95:.\Generated_Source\PSoC5/cyfitter_cfg.c **** 	(void)memcpy(dest, src, n);
ARM GAS  C:\Users\LUKASC~1\AppData\Local\Temp\ccg6ewFT.s 			page 4


  77              		.loc 1 95 0
  78 000c F868     		ldr	r0, [r7, #12]
  79 000e B968     		ldr	r1, [r7, #8]
  80 0010 7A68     		ldr	r2, [r7, #4]
  81 0012 FFF7FEFF 		bl	memcpy
  96:.\Generated_Source\PSoC5/cyfitter_cfg.c **** }
  82              		.loc 1 96 0
  83 0016 1037     		adds	r7, r7, #16
  84              		.cfi_def_cfa_offset 8
  85 0018 BD46     		mov	sp, r7
  86              		.cfi_def_cfa_register 13
  87              		@ sp needed
  88 001a 80BD     		pop	{r7, pc}
  89              		.cfi_endproc
  90              	.LFE1:
  91              		.size	CYCONFIGCPY, .-CYCONFIGCPY
  92              		.section	.text.CYCONFIGCPYCODE,"ax",%progbits
  93              		.align	2
  94              		.thumb
  95              		.thumb_func
  96              		.type	CYCONFIGCPYCODE, %function
  97              	CYCONFIGCPYCODE:
  98              	.LFB2:
  97:.\Generated_Source\PSoC5/cyfitter_cfg.c **** CY_CFG_UNUSED
  98:.\Generated_Source\PSoC5/cyfitter_cfg.c **** static void CYCONFIGCPYCODE(void *dest, const void *src, size_t n);
  99:.\Generated_Source\PSoC5/cyfitter_cfg.c **** CY_CFG_UNUSED
 100:.\Generated_Source\PSoC5/cyfitter_cfg.c **** static void CYCONFIGCPYCODE(void *dest, const void *src, size_t n)
 101:.\Generated_Source\PSoC5/cyfitter_cfg.c **** {
  99              		.loc 1 101 0
 100              		.cfi_startproc
 101              		@ args = 0, pretend = 0, frame = 16
 102              		@ frame_needed = 1, uses_anonymous_args = 0
 103 0000 80B5     		push	{r7, lr}
 104              		.cfi_def_cfa_offset 8
 105              		.cfi_offset 7, -8
 106              		.cfi_offset 14, -4
 107 0002 84B0     		sub	sp, sp, #16
 108              		.cfi_def_cfa_offset 24
 109 0004 00AF     		add	r7, sp, #0
 110              		.cfi_def_cfa_register 7
 111 0006 F860     		str	r0, [r7, #12]
 112 0008 B960     		str	r1, [r7, #8]
 113 000a 7A60     		str	r2, [r7, #4]
 102:.\Generated_Source\PSoC5/cyfitter_cfg.c **** 	(void)memcpy(dest, src, n);
 114              		.loc 1 102 0
 115 000c F868     		ldr	r0, [r7, #12]
 116 000e B968     		ldr	r1, [r7, #8]
 117 0010 7A68     		ldr	r2, [r7, #4]
 118 0012 FFF7FEFF 		bl	memcpy
 103:.\Generated_Source\PSoC5/cyfitter_cfg.c **** }
 119              		.loc 1 103 0
 120 0016 1037     		adds	r7, r7, #16
 121              		.cfi_def_cfa_offset 8
 122 0018 BD46     		mov	sp, r7
 123              		.cfi_def_cfa_register 13
 124              		@ sp needed
 125 001a 80BD     		pop	{r7, pc}
ARM GAS  C:\Users\LUKASC~1\AppData\Local\Temp\ccg6ewFT.s 			page 5


 126              		.cfi_endproc
 127              	.LFE2:
 128              		.size	CYCONFIGCPYCODE, .-CYCONFIGCPYCODE
 129              		.section	.text.CyClockStartupError,"ax",%progbits
 130              		.align	2
 131              		.thumb
 132              		.thumb_func
 133              		.type	CyClockStartupError, %function
 134              	CyClockStartupError:
 135              	.LFB3:
 104:.\Generated_Source\PSoC5/cyfitter_cfg.c **** 
 105:.\Generated_Source\PSoC5/cyfitter_cfg.c **** 
 106:.\Generated_Source\PSoC5/cyfitter_cfg.c **** 
 107:.\Generated_Source\PSoC5/cyfitter_cfg.c **** /* Clock startup error codes                                                   */
 108:.\Generated_Source\PSoC5/cyfitter_cfg.c **** #define CYCLOCKSTART_NO_ERROR    0u
 109:.\Generated_Source\PSoC5/cyfitter_cfg.c **** #define CYCLOCKSTART_XTAL_ERROR  1u
 110:.\Generated_Source\PSoC5/cyfitter_cfg.c **** #define CYCLOCKSTART_32KHZ_ERROR 2u
 111:.\Generated_Source\PSoC5/cyfitter_cfg.c **** #define CYCLOCKSTART_PLL_ERROR   3u
 112:.\Generated_Source\PSoC5/cyfitter_cfg.c **** 
 113:.\Generated_Source\PSoC5/cyfitter_cfg.c **** #ifdef CY_NEED_CYCLOCKSTARTUPERROR
 114:.\Generated_Source\PSoC5/cyfitter_cfg.c **** /*******************************************************************************
 115:.\Generated_Source\PSoC5/cyfitter_cfg.c **** * Function Name: CyClockStartupError
 116:.\Generated_Source\PSoC5/cyfitter_cfg.c **** ********************************************************************************
 117:.\Generated_Source\PSoC5/cyfitter_cfg.c **** * Summary:
 118:.\Generated_Source\PSoC5/cyfitter_cfg.c **** *  If an error is encountered during clock configuration (crystal startup error,
 119:.\Generated_Source\PSoC5/cyfitter_cfg.c **** *  PLL lock error, etc.), the system will end up here.  Unless reimplemented by
 120:.\Generated_Source\PSoC5/cyfitter_cfg.c **** *  the customer, this function will stop in an infinite loop.
 121:.\Generated_Source\PSoC5/cyfitter_cfg.c **** *
 122:.\Generated_Source\PSoC5/cyfitter_cfg.c **** * Parameters:
 123:.\Generated_Source\PSoC5/cyfitter_cfg.c **** *   void
 124:.\Generated_Source\PSoC5/cyfitter_cfg.c **** *
 125:.\Generated_Source\PSoC5/cyfitter_cfg.c **** * Return:
 126:.\Generated_Source\PSoC5/cyfitter_cfg.c **** *   void
 127:.\Generated_Source\PSoC5/cyfitter_cfg.c **** *
 128:.\Generated_Source\PSoC5/cyfitter_cfg.c **** *******************************************************************************/
 129:.\Generated_Source\PSoC5/cyfitter_cfg.c **** CY_CFG_UNUSED
 130:.\Generated_Source\PSoC5/cyfitter_cfg.c **** static void CyClockStartupError(uint8 errorCode);
 131:.\Generated_Source\PSoC5/cyfitter_cfg.c **** CY_CFG_UNUSED
 132:.\Generated_Source\PSoC5/cyfitter_cfg.c **** static void CyClockStartupError(uint8 errorCode)
 133:.\Generated_Source\PSoC5/cyfitter_cfg.c **** {
 136              		.loc 1 133 0
 137              		.cfi_startproc
 138              		@ args = 0, pretend = 0, frame = 8
 139              		@ frame_needed = 1, uses_anonymous_args = 0
 140              		@ link register save eliminated.
 141 0000 80B4     		push	{r7}
 142              		.cfi_def_cfa_offset 4
 143              		.cfi_offset 7, -4
 144 0002 83B0     		sub	sp, sp, #12
 145              		.cfi_def_cfa_offset 16
 146 0004 00AF     		add	r7, sp, #0
 147              		.cfi_def_cfa_register 7
 148 0006 0346     		mov	r3, r0
 149 0008 FB71     		strb	r3, [r7, #7]
 150              	.L5:
 134:.\Generated_Source\PSoC5/cyfitter_cfg.c ****     /* To remove the compiler warning if errorCode not used.                */
 135:.\Generated_Source\PSoC5/cyfitter_cfg.c ****     errorCode = errorCode;
ARM GAS  C:\Users\LUKASC~1\AppData\Local\Temp\ccg6ewFT.s 			page 6


 136:.\Generated_Source\PSoC5/cyfitter_cfg.c **** 
 137:.\Generated_Source\PSoC5/cyfitter_cfg.c ****     /* `#START CyClockStartupError` */
 138:.\Generated_Source\PSoC5/cyfitter_cfg.c **** 
 139:.\Generated_Source\PSoC5/cyfitter_cfg.c ****     /* If we have a clock startup error (bad MHz crystal, PLL lock, etc.),  */
 140:.\Generated_Source\PSoC5/cyfitter_cfg.c ****     /* we will end up here to allow the customer to implement something to  */
 141:.\Generated_Source\PSoC5/cyfitter_cfg.c ****     /* deal with the clock condition.                                       */
 142:.\Generated_Source\PSoC5/cyfitter_cfg.c **** 
 143:.\Generated_Source\PSoC5/cyfitter_cfg.c ****     /* `#END` */
 144:.\Generated_Source\PSoC5/cyfitter_cfg.c **** 
 145:.\Generated_Source\PSoC5/cyfitter_cfg.c ****     /* If nothing else, stop here since the clocks have not started         */
 146:.\Generated_Source\PSoC5/cyfitter_cfg.c ****     /* correctly.                                                           */
 147:.\Generated_Source\PSoC5/cyfitter_cfg.c ****     while(1) {}
 151              		.loc 1 147 0 discriminator 1
 152 000a FEE7     		b	.L5
 153              		.cfi_endproc
 154              	.LFE3:
 155              		.size	CyClockStartupError, .-CyClockStartupError
 156              		.section	.text.cfg_dma_init,"ax",%progbits
 157              		.align	2
 158              		.thumb
 159              		.thumb_func
 160              		.type	cfg_dma_init, %function
 161              	cfg_dma_init:
 162              	.LFB4:
 148:.\Generated_Source\PSoC5/cyfitter_cfg.c **** }
 149:.\Generated_Source\PSoC5/cyfitter_cfg.c **** #endif
 150:.\Generated_Source\PSoC5/cyfitter_cfg.c **** 
 151:.\Generated_Source\PSoC5/cyfitter_cfg.c **** /* IDMUX Address: CYREG_IDMUX_DRQ_CTL0 Size (bytes): 6 */
 152:.\Generated_Source\PSoC5/cyfitter_cfg.c **** #define BS_IDMUX_VAL ((const uint8 CYFAR *)0x48000000u)
 153:.\Generated_Source\PSoC5/cyfitter_cfg.c **** 
 154:.\Generated_Source\PSoC5/cyfitter_cfg.c **** /* IOPORT_0 Address: CYDEV_PRTDSI_PRT0_BASE Size (bytes): 7 */
 155:.\Generated_Source\PSoC5/cyfitter_cfg.c **** #define BS_IOPORT_0_VAL ((const uint8 CYFAR *)0x48000008u)
 156:.\Generated_Source\PSoC5/cyfitter_cfg.c **** 
 157:.\Generated_Source\PSoC5/cyfitter_cfg.c **** /* IOPORT_2 Address: CYDEV_PRTDSI_PRT2_BASE Size (bytes): 7 */
 158:.\Generated_Source\PSoC5/cyfitter_cfg.c **** #define BS_IOPORT_2_VAL ((const uint8 CYFAR *)0x48000010u)
 159:.\Generated_Source\PSoC5/cyfitter_cfg.c **** 
 160:.\Generated_Source\PSoC5/cyfitter_cfg.c **** /* IOPORT_3 Address: CYDEV_PRTDSI_PRT3_BASE Size (bytes): 7 */
 161:.\Generated_Source\PSoC5/cyfitter_cfg.c **** #define BS_IOPORT_3_VAL ((const uint8 CYFAR *)0x48000018u)
 162:.\Generated_Source\PSoC5/cyfitter_cfg.c **** 
 163:.\Generated_Source\PSoC5/cyfitter_cfg.c **** /* IOPORT_8 Address: CYDEV_PRTDSI_PRT15_BASE Size (bytes): 7 */
 164:.\Generated_Source\PSoC5/cyfitter_cfg.c **** #define BS_IOPORT_8_VAL ((const uint8 CYFAR *)0x48000020u)
 165:.\Generated_Source\PSoC5/cyfitter_cfg.c **** 
 166:.\Generated_Source\PSoC5/cyfitter_cfg.c **** /* PICU_8 Address: CYDEV_PICU_INTTYPE_PICU15_BASE Size (bytes): 8 */
 167:.\Generated_Source\PSoC5/cyfitter_cfg.c **** #define BS_PICU_8_VAL ((const uint8 CYFAR *)0x48000028u)
 168:.\Generated_Source\PSoC5/cyfitter_cfg.c **** 
 169:.\Generated_Source\PSoC5/cyfitter_cfg.c **** /* IDMUX_IRQ Address: CYREG_IDMUX_IRQ_CTL0 Size (bytes): 8 */
 170:.\Generated_Source\PSoC5/cyfitter_cfg.c **** #define BS_IDMUX_IRQ_VAL ((const uint8 CYFAR *)0x48000030u)
 171:.\Generated_Source\PSoC5/cyfitter_cfg.c **** 
 172:.\Generated_Source\PSoC5/cyfitter_cfg.c **** /* UDB_1_5_0_CONFIG Address: CYDEV_UCFG_B0_P0_U0_BASE Size (bytes): 128 */
 173:.\Generated_Source\PSoC5/cyfitter_cfg.c **** #define BS_UDB_1_5_0_CONFIG_VAL ((const uint8 CYFAR *)0x48000038u)
 174:.\Generated_Source\PSoC5/cyfitter_cfg.c **** 
 175:.\Generated_Source\PSoC5/cyfitter_cfg.c **** /* UDB_1_5_1_CONFIG Address: CYDEV_UCFG_B0_P0_U1_BASE Size (bytes): 128 */
 176:.\Generated_Source\PSoC5/cyfitter_cfg.c **** #define BS_UDB_1_5_1_CONFIG_VAL ((const uint8 CYFAR *)0x480000B8u)
 177:.\Generated_Source\PSoC5/cyfitter_cfg.c **** 
 178:.\Generated_Source\PSoC5/cyfitter_cfg.c **** /* UDB_1_4_1_CONFIG Address: CYDEV_UCFG_B0_P1_U0_BASE Size (bytes): 128 */
 179:.\Generated_Source\PSoC5/cyfitter_cfg.c **** #define BS_UDB_1_4_1_CONFIG_VAL ((const uint8 CYFAR *)0x48000138u)
 180:.\Generated_Source\PSoC5/cyfitter_cfg.c **** 
ARM GAS  C:\Users\LUKASC~1\AppData\Local\Temp\ccg6ewFT.s 			page 7


 181:.\Generated_Source\PSoC5/cyfitter_cfg.c **** /* UDB_1_4_0_CONFIG Address: CYDEV_UCFG_B0_P1_U1_BASE Size (bytes): 128 */
 182:.\Generated_Source\PSoC5/cyfitter_cfg.c **** #define BS_UDB_1_4_0_CONFIG_VAL ((const uint8 CYFAR *)0x480001B8u)
 183:.\Generated_Source\PSoC5/cyfitter_cfg.c **** 
 184:.\Generated_Source\PSoC5/cyfitter_cfg.c **** /* UDB_1_3_0_CONFIG Address: CYDEV_UCFG_B0_P2_U0_BASE Size (bytes): 128 */
 185:.\Generated_Source\PSoC5/cyfitter_cfg.c **** #define BS_UDB_1_3_0_CONFIG_VAL ((const uint8 CYFAR *)0x48000238u)
 186:.\Generated_Source\PSoC5/cyfitter_cfg.c **** 
 187:.\Generated_Source\PSoC5/cyfitter_cfg.c **** /* UDB_1_3_1_CONFIG Address: CYDEV_UCFG_B0_P2_U1_BASE Size (bytes): 128 */
 188:.\Generated_Source\PSoC5/cyfitter_cfg.c **** #define BS_UDB_1_3_1_CONFIG_VAL ((const uint8 CYFAR *)0x480002B8u)
 189:.\Generated_Source\PSoC5/cyfitter_cfg.c **** 
 190:.\Generated_Source\PSoC5/cyfitter_cfg.c **** /* UDB_1_2_1_CONFIG Address: CYDEV_UCFG_B0_P3_U0_BASE Size (bytes): 128 */
 191:.\Generated_Source\PSoC5/cyfitter_cfg.c **** #define BS_UDB_1_2_1_CONFIG_VAL ((const uint8 CYFAR *)0x48000338u)
 192:.\Generated_Source\PSoC5/cyfitter_cfg.c **** 
 193:.\Generated_Source\PSoC5/cyfitter_cfg.c **** /* UDB_1_2_0_CONFIG Address: CYDEV_UCFG_B0_P3_U1_BASE Size (bytes): 128 */
 194:.\Generated_Source\PSoC5/cyfitter_cfg.c **** #define BS_UDB_1_2_0_CONFIG_VAL ((const uint8 CYFAR *)0x480003B8u)
 195:.\Generated_Source\PSoC5/cyfitter_cfg.c **** 
 196:.\Generated_Source\PSoC5/cyfitter_cfg.c **** /* UDB_1_0_0_CONFIG Address: CYDEV_UCFG_B1_P2_U0_BASE Size (bytes): 128 */
 197:.\Generated_Source\PSoC5/cyfitter_cfg.c **** #define BS_UDB_1_0_0_CONFIG_VAL ((const uint8 CYFAR *)0x48000438u)
 198:.\Generated_Source\PSoC5/cyfitter_cfg.c **** 
 199:.\Generated_Source\PSoC5/cyfitter_cfg.c **** /* UDB_1_0_1_CONFIG Address: CYDEV_UCFG_B1_P2_U1_BASE Size (bytes): 128 */
 200:.\Generated_Source\PSoC5/cyfitter_cfg.c **** #define BS_UDB_1_0_1_CONFIG_VAL ((const uint8 CYFAR *)0x480004B8u)
 201:.\Generated_Source\PSoC5/cyfitter_cfg.c **** 
 202:.\Generated_Source\PSoC5/cyfitter_cfg.c **** /* UDB_1_1_1_CONFIG Address: CYDEV_UCFG_B1_P3_U0_BASE Size (bytes): 128 */
 203:.\Generated_Source\PSoC5/cyfitter_cfg.c **** #define BS_UDB_1_1_1_CONFIG_VAL ((const uint8 CYFAR *)0x48000538u)
 204:.\Generated_Source\PSoC5/cyfitter_cfg.c **** 
 205:.\Generated_Source\PSoC5/cyfitter_cfg.c **** /* UDB_1_1_0_CONFIG Address: CYDEV_UCFG_B1_P3_U1_BASE Size (bytes): 128 */
 206:.\Generated_Source\PSoC5/cyfitter_cfg.c **** #define BS_UDB_1_1_0_CONFIG_VAL ((const uint8 CYFAR *)0x480005B8u)
 207:.\Generated_Source\PSoC5/cyfitter_cfg.c **** 
 208:.\Generated_Source\PSoC5/cyfitter_cfg.c **** /* UWRK_B0_WRK_STATCTL_BITS Address: CYDEV_UWRK_UWRK8_B0_BASE + 0x00000070u Size (bytes): 32 */
 209:.\Generated_Source\PSoC5/cyfitter_cfg.c **** #define BS_UWRK_B0_WRK_STATCTL_BITS_VAL ((const uint8 CYFAR *)0x48000638u)
 210:.\Generated_Source\PSoC5/cyfitter_cfg.c **** 
 211:.\Generated_Source\PSoC5/cyfitter_cfg.c **** /* UWRK_B1_WRK_STATCTL_BITS Address: CYDEV_UWRK_UWRK8_B1_BASE + 0x00000070u Size (bytes): 32 */
 212:.\Generated_Source\PSoC5/cyfitter_cfg.c **** #define BS_UWRK_B1_WRK_STATCTL_BITS_VAL ((const uint8 CYFAR *)0x48000658u)
 213:.\Generated_Source\PSoC5/cyfitter_cfg.c **** 
 214:.\Generated_Source\PSoC5/cyfitter_cfg.c **** /* UCFG_BCTL1 Address: CYREG_BCTL1_MDCLK_EN Size (bytes): 16 */
 215:.\Generated_Source\PSoC5/cyfitter_cfg.c **** #define BS_UCFG_BCTL1_VAL ((const uint8 CYFAR *)0x48000678u)
 216:.\Generated_Source\PSoC5/cyfitter_cfg.c **** 
 217:.\Generated_Source\PSoC5/cyfitter_cfg.c **** /* UCFG_BCTL0 Address: CYREG_BCTL0_MDCLK_EN Size (bytes): 16 */
 218:.\Generated_Source\PSoC5/cyfitter_cfg.c **** #define BS_UCFG_BCTL0_VAL ((const uint8 CYFAR *)0x48000688u)
 219:.\Generated_Source\PSoC5/cyfitter_cfg.c **** 
 220:.\Generated_Source\PSoC5/cyfitter_cfg.c **** /* DSI0_0_HV_ROUTING Address: CYDEV_UCFG_DSI13_BASE + 0x00000080u Size (bytes): 128 */
 221:.\Generated_Source\PSoC5/cyfitter_cfg.c **** #define BS_DSI0_0_HV_ROUTING_VAL ((const uint8 CYFAR *)0x48000698u)
 222:.\Generated_Source\PSoC5/cyfitter_cfg.c **** 
 223:.\Generated_Source\PSoC5/cyfitter_cfg.c **** /* DSISWITCH_0_1 Address: CYDEV_UCFG_DSI12_BASE Size (bytes): 128 */
 224:.\Generated_Source\PSoC5/cyfitter_cfg.c **** #define BS_DSISWITCH_0_1_VAL ((const uint8 CYFAR *)0x48000718u)
 225:.\Generated_Source\PSoC5/cyfitter_cfg.c **** 
 226:.\Generated_Source\PSoC5/cyfitter_cfg.c **** /* DSI0_1_HV_ROUTING Address: CYDEV_UCFG_DSI12_BASE + 0x00000080u Size (bytes): 128 */
 227:.\Generated_Source\PSoC5/cyfitter_cfg.c **** #define BS_DSI0_1_HV_ROUTING_VAL ((const uint8 CYFAR *)0x48000798u)
 228:.\Generated_Source\PSoC5/cyfitter_cfg.c **** 
 229:.\Generated_Source\PSoC5/cyfitter_cfg.c **** /* DSISWITCH_0_2 Address: CYDEV_UCFG_DSI7_BASE Size (bytes): 128 */
 230:.\Generated_Source\PSoC5/cyfitter_cfg.c **** #define BS_DSISWITCH_0_2_VAL ((const uint8 CYFAR *)0x48000818u)
 231:.\Generated_Source\PSoC5/cyfitter_cfg.c **** 
 232:.\Generated_Source\PSoC5/cyfitter_cfg.c **** /* DSI0_2_HV_ROUTING Address: CYDEV_UCFG_DSI7_BASE + 0x00000080u Size (bytes): 128 */
 233:.\Generated_Source\PSoC5/cyfitter_cfg.c **** #define BS_DSI0_2_HV_ROUTING_VAL ((const uint8 CYFAR *)0x48000898u)
 234:.\Generated_Source\PSoC5/cyfitter_cfg.c **** 
 235:.\Generated_Source\PSoC5/cyfitter_cfg.c **** /* DSI0_3_HV_ROUTING Address: CYDEV_UCFG_DSI6_BASE + 0x00000080u Size (bytes): 128 */
 236:.\Generated_Source\PSoC5/cyfitter_cfg.c **** #define BS_DSI0_3_HV_ROUTING_VAL ((const uint8 CYFAR *)0x48000918u)
 237:.\Generated_Source\PSoC5/cyfitter_cfg.c **** 
ARM GAS  C:\Users\LUKASC~1\AppData\Local\Temp\ccg6ewFT.s 			page 8


 238:.\Generated_Source\PSoC5/cyfitter_cfg.c **** /* DSISWITCH_0_4 Address: CYDEV_UCFG_DSI5_BASE Size (bytes): 128 */
 239:.\Generated_Source\PSoC5/cyfitter_cfg.c **** #define BS_DSISWITCH_0_4_VAL ((const uint8 CYFAR *)0x48000998u)
 240:.\Generated_Source\PSoC5/cyfitter_cfg.c **** 
 241:.\Generated_Source\PSoC5/cyfitter_cfg.c **** /* DSI0_4_HV_ROUTING Address: CYDEV_UCFG_DSI5_BASE + 0x00000080u Size (bytes): 128 */
 242:.\Generated_Source\PSoC5/cyfitter_cfg.c **** #define BS_DSI0_4_HV_ROUTING_VAL ((const uint8 CYFAR *)0x48000A18u)
 243:.\Generated_Source\PSoC5/cyfitter_cfg.c **** 
 244:.\Generated_Source\PSoC5/cyfitter_cfg.c **** /* DSI0_5_HV_ROUTING Address: CYDEV_UCFG_DSI4_BASE + 0x00000080u Size (bytes): 128 */
 245:.\Generated_Source\PSoC5/cyfitter_cfg.c **** #define BS_DSI0_5_HV_ROUTING_VAL ((const uint8 CYFAR *)0x48000A98u)
 246:.\Generated_Source\PSoC5/cyfitter_cfg.c **** 
 247:.\Generated_Source\PSoC5/cyfitter_cfg.c **** /* UDB_1_0_HV_ROUTING Address: CYDEV_UCFG_B1_P5_ROUTE_BASE + 0x00000080u Size (bytes): 128 */
 248:.\Generated_Source\PSoC5/cyfitter_cfg.c **** #define BS_UDB_1_0_HV_ROUTING_VAL ((const uint8 CYFAR *)0x48000B18u)
 249:.\Generated_Source\PSoC5/cyfitter_cfg.c **** 
 250:.\Generated_Source\PSoC5/cyfitter_cfg.c **** /* UDBSWITCH_1_0 Address: CYDEV_UCFG_B1_P2_ROUTE_BASE Size (bytes): 128 */
 251:.\Generated_Source\PSoC5/cyfitter_cfg.c **** #define BS_UDBSWITCH_1_0_VAL ((const uint8 CYFAR *)0x48000B98u)
 252:.\Generated_Source\PSoC5/cyfitter_cfg.c **** 
 253:.\Generated_Source\PSoC5/cyfitter_cfg.c **** /* UDB_2_0_HV_ROUTING Address: CYDEV_UCFG_B1_P2_ROUTE_BASE + 0x00000080u Size (bytes): 128 */
 254:.\Generated_Source\PSoC5/cyfitter_cfg.c **** #define BS_UDB_2_0_HV_ROUTING_VAL ((const uint8 CYFAR *)0x48000C18u)
 255:.\Generated_Source\PSoC5/cyfitter_cfg.c **** 
 256:.\Generated_Source\PSoC5/cyfitter_cfg.c **** /* UDB_1_1_HV_ROUTING Address: CYDEV_UCFG_B1_P4_ROUTE_BASE + 0x00000080u Size (bytes): 128 */
 257:.\Generated_Source\PSoC5/cyfitter_cfg.c **** #define BS_UDB_1_1_HV_ROUTING_VAL ((const uint8 CYFAR *)0x48000C98u)
 258:.\Generated_Source\PSoC5/cyfitter_cfg.c **** 
 259:.\Generated_Source\PSoC5/cyfitter_cfg.c **** /* UDBSWITCH_1_1 Address: CYDEV_UCFG_B1_P3_ROUTE_BASE Size (bytes): 128 */
 260:.\Generated_Source\PSoC5/cyfitter_cfg.c **** #define BS_UDBSWITCH_1_1_VAL ((const uint8 CYFAR *)0x48000D18u)
 261:.\Generated_Source\PSoC5/cyfitter_cfg.c **** 
 262:.\Generated_Source\PSoC5/cyfitter_cfg.c **** /* UDB_2_1_HV_ROUTING Address: CYDEV_UCFG_B1_P3_ROUTE_BASE + 0x00000080u Size (bytes): 128 */
 263:.\Generated_Source\PSoC5/cyfitter_cfg.c **** #define BS_UDB_2_1_HV_ROUTING_VAL ((const uint8 CYFAR *)0x48000D98u)
 264:.\Generated_Source\PSoC5/cyfitter_cfg.c **** 
 265:.\Generated_Source\PSoC5/cyfitter_cfg.c **** /* UDBSWITCH_1_2 Address: CYDEV_UCFG_B0_P3_ROUTE_BASE Size (bytes): 128 */
 266:.\Generated_Source\PSoC5/cyfitter_cfg.c **** #define BS_UDBSWITCH_1_2_VAL ((const uint8 CYFAR *)0x48000E18u)
 267:.\Generated_Source\PSoC5/cyfitter_cfg.c **** 
 268:.\Generated_Source\PSoC5/cyfitter_cfg.c **** /* UDB_2_2_HV_ROUTING Address: CYDEV_UCFG_B0_P3_ROUTE_BASE + 0x00000080u Size (bytes): 128 */
 269:.\Generated_Source\PSoC5/cyfitter_cfg.c **** #define BS_UDB_2_2_HV_ROUTING_VAL ((const uint8 CYFAR *)0x48000E98u)
 270:.\Generated_Source\PSoC5/cyfitter_cfg.c **** 
 271:.\Generated_Source\PSoC5/cyfitter_cfg.c **** /* UDB_1_3_HV_ROUTING Address: CYDEV_UCFG_B0_P5_ROUTE_BASE + 0x00000080u Size (bytes): 128 */
 272:.\Generated_Source\PSoC5/cyfitter_cfg.c **** #define BS_UDB_1_3_HV_ROUTING_VAL ((const uint8 CYFAR *)0x48000F18u)
 273:.\Generated_Source\PSoC5/cyfitter_cfg.c **** 
 274:.\Generated_Source\PSoC5/cyfitter_cfg.c **** /* UDBSWITCH_1_3 Address: CYDEV_UCFG_B0_P2_ROUTE_BASE Size (bytes): 128 */
 275:.\Generated_Source\PSoC5/cyfitter_cfg.c **** #define BS_UDBSWITCH_1_3_VAL ((const uint8 CYFAR *)0x48000F98u)
 276:.\Generated_Source\PSoC5/cyfitter_cfg.c **** 
 277:.\Generated_Source\PSoC5/cyfitter_cfg.c **** /* UDB_2_3_HV_ROUTING Address: CYDEV_UCFG_B0_P2_ROUTE_BASE + 0x00000080u Size (bytes): 128 */
 278:.\Generated_Source\PSoC5/cyfitter_cfg.c **** #define BS_UDB_2_3_HV_ROUTING_VAL ((const uint8 CYFAR *)0x48001018u)
 279:.\Generated_Source\PSoC5/cyfitter_cfg.c **** 
 280:.\Generated_Source\PSoC5/cyfitter_cfg.c **** /* UDBSWITCH_1_4 Address: CYDEV_UCFG_B0_P1_ROUTE_BASE Size (bytes): 128 */
 281:.\Generated_Source\PSoC5/cyfitter_cfg.c **** #define BS_UDBSWITCH_1_4_VAL ((const uint8 CYFAR *)0x48001098u)
 282:.\Generated_Source\PSoC5/cyfitter_cfg.c **** 
 283:.\Generated_Source\PSoC5/cyfitter_cfg.c **** /* UDB_2_4_HV_ROUTING Address: CYDEV_UCFG_B0_P1_ROUTE_BASE + 0x00000080u Size (bytes): 128 */
 284:.\Generated_Source\PSoC5/cyfitter_cfg.c **** #define BS_UDB_2_4_HV_ROUTING_VAL ((const uint8 CYFAR *)0x48001118u)
 285:.\Generated_Source\PSoC5/cyfitter_cfg.c **** 
 286:.\Generated_Source\PSoC5/cyfitter_cfg.c **** /* UDB_1_5_HV_ROUTING Address: CYDEV_UCFG_B0_P7_ROUTE_BASE + 0x00000080u Size (bytes): 128 */
 287:.\Generated_Source\PSoC5/cyfitter_cfg.c **** #define BS_UDB_1_5_HV_ROUTING_VAL ((const uint8 CYFAR *)0x48001198u)
 288:.\Generated_Source\PSoC5/cyfitter_cfg.c **** 
 289:.\Generated_Source\PSoC5/cyfitter_cfg.c **** /* UDBSWITCH_1_5 Address: CYDEV_UCFG_B0_P0_ROUTE_BASE Size (bytes): 128 */
 290:.\Generated_Source\PSoC5/cyfitter_cfg.c **** #define BS_UDBSWITCH_1_5_VAL ((const uint8 CYFAR *)0x48001218u)
 291:.\Generated_Source\PSoC5/cyfitter_cfg.c **** 
 292:.\Generated_Source\PSoC5/cyfitter_cfg.c **** /* UDB_2_5_HV_ROUTING Address: CYDEV_UCFG_B0_P0_ROUTE_BASE + 0x00000080u Size (bytes): 128 */
 293:.\Generated_Source\PSoC5/cyfitter_cfg.c **** #define BS_UDB_2_5_HV_ROUTING_VAL ((const uint8 CYFAR *)0x48001298u)
 294:.\Generated_Source\PSoC5/cyfitter_cfg.c **** 
ARM GAS  C:\Users\LUKASC~1\AppData\Local\Temp\ccg6ewFT.s 			page 9


 295:.\Generated_Source\PSoC5/cyfitter_cfg.c **** /* DSISWITCH_1_0 Address: CYDEV_UCFG_DSI9_BASE Size (bytes): 128 */
 296:.\Generated_Source\PSoC5/cyfitter_cfg.c **** #define BS_DSISWITCH_1_0_VAL ((const uint8 CYFAR *)0x48001318u)
 297:.\Generated_Source\PSoC5/cyfitter_cfg.c **** 
 298:.\Generated_Source\PSoC5/cyfitter_cfg.c **** /* DSI3_0_HV_ROUTING Address: CYDEV_UCFG_DSI9_BASE + 0x00000080u Size (bytes): 128 */
 299:.\Generated_Source\PSoC5/cyfitter_cfg.c **** #define BS_DSI3_0_HV_ROUTING_VAL ((const uint8 CYFAR *)0x48001398u)
 300:.\Generated_Source\PSoC5/cyfitter_cfg.c **** 
 301:.\Generated_Source\PSoC5/cyfitter_cfg.c **** /* DSI3_1_HV_ROUTING Address: CYDEV_UCFG_DSI8_BASE + 0x00000080u Size (bytes): 128 */
 302:.\Generated_Source\PSoC5/cyfitter_cfg.c **** #define BS_DSI3_1_HV_ROUTING_VAL ((const uint8 CYFAR *)0x48001418u)
 303:.\Generated_Source\PSoC5/cyfitter_cfg.c **** 
 304:.\Generated_Source\PSoC5/cyfitter_cfg.c **** /* DSI3_2_HV_ROUTING Address: CYDEV_UCFG_DSI3_BASE + 0x00000080u Size (bytes): 128 */
 305:.\Generated_Source\PSoC5/cyfitter_cfg.c **** #define BS_DSI3_2_HV_ROUTING_VAL ((const uint8 CYFAR *)0x48001498u)
 306:.\Generated_Source\PSoC5/cyfitter_cfg.c **** 
 307:.\Generated_Source\PSoC5/cyfitter_cfg.c **** /* DSI3_3_HV_ROUTING Address: CYDEV_UCFG_DSI2_BASE + 0x00000080u Size (bytes): 128 */
 308:.\Generated_Source\PSoC5/cyfitter_cfg.c **** #define BS_DSI3_3_HV_ROUTING_VAL ((const uint8 CYFAR *)0x48001518u)
 309:.\Generated_Source\PSoC5/cyfitter_cfg.c **** 
 310:.\Generated_Source\PSoC5/cyfitter_cfg.c **** /* DSISWITCH_1_4 Address: CYDEV_UCFG_DSI1_BASE Size (bytes): 128 */
 311:.\Generated_Source\PSoC5/cyfitter_cfg.c **** #define BS_DSISWITCH_1_4_VAL ((const uint8 CYFAR *)0x48001598u)
 312:.\Generated_Source\PSoC5/cyfitter_cfg.c **** 
 313:.\Generated_Source\PSoC5/cyfitter_cfg.c **** /* DSI3_4_HV_ROUTING Address: CYDEV_UCFG_DSI1_BASE + 0x00000080u Size (bytes): 128 */
 314:.\Generated_Source\PSoC5/cyfitter_cfg.c **** #define BS_DSI3_4_HV_ROUTING_VAL ((const uint8 CYFAR *)0x48001618u)
 315:.\Generated_Source\PSoC5/cyfitter_cfg.c **** 
 316:.\Generated_Source\PSoC5/cyfitter_cfg.c **** /* DSISWITCH_1_5 Address: CYDEV_UCFG_DSI0_BASE Size (bytes): 128 */
 317:.\Generated_Source\PSoC5/cyfitter_cfg.c **** #define BS_DSISWITCH_1_5_VAL ((const uint8 CYFAR *)0x48001698u)
 318:.\Generated_Source\PSoC5/cyfitter_cfg.c **** 
 319:.\Generated_Source\PSoC5/cyfitter_cfg.c **** /* DSI3_5_HV_ROUTING Address: CYDEV_UCFG_DSI0_BASE + 0x00000080u Size (bytes): 128 */
 320:.\Generated_Source\PSoC5/cyfitter_cfg.c **** #define BS_DSI3_5_HV_ROUTING_VAL ((const uint8 CYFAR *)0x48001718u)
 321:.\Generated_Source\PSoC5/cyfitter_cfg.c **** 
 322:.\Generated_Source\PSoC5/cyfitter_cfg.c **** /* IOPINS0_0 Address: CYREG_PRT0_DM0 Size (bytes): 8 */
 323:.\Generated_Source\PSoC5/cyfitter_cfg.c **** #define BS_IOPINS0_0_VAL ((const uint8 CYFAR *)0x48001798u)
 324:.\Generated_Source\PSoC5/cyfitter_cfg.c **** 
 325:.\Generated_Source\PSoC5/cyfitter_cfg.c **** /* IOPINS0_8 Address: CYREG_PRT15_DR Size (bytes): 10 */
 326:.\Generated_Source\PSoC5/cyfitter_cfg.c **** #define BS_IOPINS0_8_VAL ((const uint8 CYFAR *)0x480017A0u)
 327:.\Generated_Source\PSoC5/cyfitter_cfg.c **** 
 328:.\Generated_Source\PSoC5/cyfitter_cfg.c **** /* IOPINS0_1 Address: CYREG_PRT1_DM0 Size (bytes): 8 */
 329:.\Generated_Source\PSoC5/cyfitter_cfg.c **** #define BS_IOPINS0_1_VAL ((const uint8 CYFAR *)0x480017ACu)
 330:.\Generated_Source\PSoC5/cyfitter_cfg.c **** 
 331:.\Generated_Source\PSoC5/cyfitter_cfg.c **** /* IOPINS0_2 Address: CYREG_PRT2_DM0 Size (bytes): 8 */
 332:.\Generated_Source\PSoC5/cyfitter_cfg.c **** #define BS_IOPINS0_2_VAL ((const uint8 CYFAR *)0x480017B4u)
 333:.\Generated_Source\PSoC5/cyfitter_cfg.c **** 
 334:.\Generated_Source\PSoC5/cyfitter_cfg.c **** /* IOPINS0_3 Address: CYREG_PRT3_DM0 Size (bytes): 8 */
 335:.\Generated_Source\PSoC5/cyfitter_cfg.c **** #define BS_IOPINS0_3_VAL ((const uint8 CYFAR *)0x480017BCu)
 336:.\Generated_Source\PSoC5/cyfitter_cfg.c **** 
 337:.\Generated_Source\PSoC5/cyfitter_cfg.c **** 
 338:.\Generated_Source\PSoC5/cyfitter_cfg.c **** /*******************************************************************************
 339:.\Generated_Source\PSoC5/cyfitter_cfg.c **** * Function Name: cfg_dma_init
 340:.\Generated_Source\PSoC5/cyfitter_cfg.c **** ********************************************************************************
 341:.\Generated_Source\PSoC5/cyfitter_cfg.c **** * Summary:
 342:.\Generated_Source\PSoC5/cyfitter_cfg.c **** *  This function is used to copy device configuration data from constant values
 343:.\Generated_Source\PSoC5/cyfitter_cfg.c **** *  stored in memory into the proper chip configuration registers using DMA.  It
 344:.\Generated_Source\PSoC5/cyfitter_cfg.c **** *  pulls data out of the CFG_TD_LISTs to know exactly how/what to configure.
 345:.\Generated_Source\PSoC5/cyfitter_cfg.c **** *
 346:.\Generated_Source\PSoC5/cyfitter_cfg.c **** * Parameters:  
 347:.\Generated_Source\PSoC5/cyfitter_cfg.c **** *   void
 348:.\Generated_Source\PSoC5/cyfitter_cfg.c **** *
 349:.\Generated_Source\PSoC5/cyfitter_cfg.c **** * Return:
 350:.\Generated_Source\PSoC5/cyfitter_cfg.c **** *   void
 351:.\Generated_Source\PSoC5/cyfitter_cfg.c **** *
ARM GAS  C:\Users\LUKASC~1\AppData\Local\Temp\ccg6ewFT.s 			page 10


 352:.\Generated_Source\PSoC5/cyfitter_cfg.c **** *******************************************************************************/
 353:.\Generated_Source\PSoC5/cyfitter_cfg.c **** static void cfg_dma_init(void);
 354:.\Generated_Source\PSoC5/cyfitter_cfg.c **** static void cfg_dma_init(void)
 355:.\Generated_Source\PSoC5/cyfitter_cfg.c **** {
 163              		.loc 1 355 0
 164              		.cfi_startproc
 165              		@ args = 0, pretend = 0, frame = 8
 166              		@ frame_needed = 1, uses_anonymous_args = 0
 167 0000 80B5     		push	{r7, lr}
 168              		.cfi_def_cfa_offset 8
 169              		.cfi_offset 7, -8
 170              		.cfi_offset 14, -4
 171 0002 82B0     		sub	sp, sp, #8
 172              		.cfi_def_cfa_offset 16
 173 0004 00AF     		add	r7, sp, #0
 174              		.cfi_def_cfa_register 7
 356:.\Generated_Source\PSoC5/cyfitter_cfg.c **** 	/* TD structure for little-endian systems. Does not require endian swap */
 357:.\Generated_Source\PSoC5/cyfitter_cfg.c **** 	CYPACKED struct td_t {
 358:.\Generated_Source\PSoC5/cyfitter_cfg.c **** 		uint16 size;
 359:.\Generated_Source\PSoC5/cyfitter_cfg.c **** 		uint8 next_td_ptr;
 360:.\Generated_Source\PSoC5/cyfitter_cfg.c **** 		uint8 flags;
 361:.\Generated_Source\PSoC5/cyfitter_cfg.c **** 		uint16 src;
 362:.\Generated_Source\PSoC5/cyfitter_cfg.c **** 		uint16 dest;
 363:.\Generated_Source\PSoC5/cyfitter_cfg.c **** 	} CYPACKED_ATTR;
 364:.\Generated_Source\PSoC5/cyfitter_cfg.c **** 
 365:.\Generated_Source\PSoC5/cyfitter_cfg.c **** 	/* PHUB_CH1_CFGMEM_CFG0/1 initialization data */
 366:.\Generated_Source\PSoC5/cyfitter_cfg.c **** 	DMAINITSEC static const uint8 CYCODE CH1_ADDR_DATA0[] = { 0x01u, 0x00u, 0x00u, 0x00u, 0x00u, 0x20u
 367:.\Generated_Source\PSoC5/cyfitter_cfg.c **** 
 368:.\Generated_Source\PSoC5/cyfitter_cfg.c **** 	/* PHUB_CH2_CFGMEM_CFG0/1 initialization data */
 369:.\Generated_Source\PSoC5/cyfitter_cfg.c **** 	DMAINITSEC static const uint8 CYCODE CH2_ADDR_DATA0[] = { 0x01u, 0x00u, 0x00u, 0x00u, 0x00u, 0x20u
 370:.\Generated_Source\PSoC5/cyfitter_cfg.c **** 
 371:.\Generated_Source\PSoC5/cyfitter_cfg.c **** 	/* PHUB_CH5_CFGMEM_CFG0/1 initialization data */
 372:.\Generated_Source\PSoC5/cyfitter_cfg.c **** 	DMAINITSEC static const uint8 CYCODE CH5_ADDR_DATA0[] = { 0x01u, 0x00u, 0x00u, 0x00u, 0x00u, 0x48u
 373:.\Generated_Source\PSoC5/cyfitter_cfg.c **** 
 374:.\Generated_Source\PSoC5/cyfitter_cfg.c **** 	/* PHUB_CH6_CFGMEM_CFG0/1 initialization data */
 375:.\Generated_Source\PSoC5/cyfitter_cfg.c **** 	DMAINITSEC static const uint8 CYCODE CH6_ADDR_DATA0[] = { 0x01u, 0x00u, 0x00u, 0x00u, 0x00u, 0x48u
 376:.\Generated_Source\PSoC5/cyfitter_cfg.c **** 
 377:.\Generated_Source\PSoC5/cyfitter_cfg.c **** 	/* Initialization data for each DMA channel's TD registers */
 378:.\Generated_Source\PSoC5/cyfitter_cfg.c **** 	DMAINITSEC static const uint8 CYCODE DMA_TD_START_CMD[] = { 0x01u, 0x00u, 0x00u, 0x00u, 0x01u };
 379:.\Generated_Source\PSoC5/cyfitter_cfg.c **** 
 380:.\Generated_Source\PSoC5/cyfitter_cfg.c **** 	CYALIGNED static uint32 CYXDATA DMA_ZERO_VAL;
 381:.\Generated_Source\PSoC5/cyfitter_cfg.c **** 
 382:.\Generated_Source\PSoC5/cyfitter_cfg.c **** 	/* This table holds all of the initialization data necessary for the DMA
 383:.\Generated_Source\PSoC5/cyfitter_cfg.c **** 	   process to transfer data from the source location to the destination. */
 384:.\Generated_Source\PSoC5/cyfitter_cfg.c **** 	/* Source addresses can be relocated, but only when in 32bit addresses.
 385:.\Generated_Source\PSoC5/cyfitter_cfg.c **** 	   Because the standard TD table only has 16bit addresses, we generate a
 386:.\Generated_Source\PSoC5/cyfitter_cfg.c **** 	   separate CFG_TD_ADDR table for the source addresses that supports 32bit
 387:.\Generated_Source\PSoC5/cyfitter_cfg.c **** 	   addresses. */
 388:.\Generated_Source\PSoC5/cyfitter_cfg.c **** 	DMAINITSEC static const struct td_t CYCODE CFG_TD_LIST0[] = {
 389:.\Generated_Source\PSoC5/cyfitter_cfg.c **** 		/* Size, Next, Flags, Source, Destination */
 390:.\Generated_Source\PSoC5/cyfitter_cfg.c **** 		{ 8u, 0x02u, 0x23u, (uint16)(uint32)(0u), (uint16)(CYREG_PHUB_CFGMEM1_CFG0) },	/* TD 1 */
 391:.\Generated_Source\PSoC5/cyfitter_cfg.c **** 		{ 8u, 0x03u, 0x23u, (uint16)(uint32)(0u), (uint16)(CYREG_PHUB_CFGMEM2_CFG0) },	/* TD 2 */
 392:.\Generated_Source\PSoC5/cyfitter_cfg.c **** 		{ 8u, 0x04u, 0x23u, (uint16)(uint32)(0u), (uint16)(CYREG_PHUB_CFGMEM5_CFG0) },	/* TD 3 */
 393:.\Generated_Source\PSoC5/cyfitter_cfg.c **** 		{ 8u, 0x05u, 0x23u, (uint16)(uint32)(0u), (uint16)(CYREG_PHUB_CFGMEM6_CFG0) },	/* TD 4 */
 394:.\Generated_Source\PSoC5/cyfitter_cfg.c **** 		{ 5u, 0x06u, 0x23u, (uint16)(uint32)(0u), (uint16)(CYREG_PHUB_CH1_BASIC_CFG) },	/* TD 5 */
 395:.\Generated_Source\PSoC5/cyfitter_cfg.c **** 		{ 5u, 0x07u, 0x23u, (uint16)(uint32)(0u), (uint16)(CYREG_PHUB_CH2_BASIC_CFG) },	/* TD 6 */
 396:.\Generated_Source\PSoC5/cyfitter_cfg.c **** 		{ 5u, 0x08u, 0x23u, (uint16)(uint32)(0u), (uint16)(CYREG_PHUB_CH5_BASIC_CFG) },	/* TD 7 */
ARM GAS  C:\Users\LUKASC~1\AppData\Local\Temp\ccg6ewFT.s 			page 11


 397:.\Generated_Source\PSoC5/cyfitter_cfg.c **** 		{ 5u, 0xFEu, 0x23u, (uint16)(uint32)(0u), (uint16)(CYREG_PHUB_CH6_BASIC_CFG) },	/* TD 8 */
 398:.\Generated_Source\PSoC5/cyfitter_cfg.c **** 		{ 48u, 0x0Au, 0x22u, (uint16)(uint32)(0u), (uint16)(CYREG_PRT4_DR) },	/* TD 9 */
 399:.\Generated_Source\PSoC5/cyfitter_cfg.c **** 		{ 16u, 0xFEu, 0x22u, (uint16)(uint32)(0u), (uint16)(CYREG_PRT12_DR) },	/* TD 10 */
 400:.\Generated_Source\PSoC5/cyfitter_cfg.c **** 		{ 896u, 0x0Cu, 0x22u, (uint16)(uint32)(0u), (uint16)(CYDEV_UCFG_B0_P4_U0_BASE) },	/* TD 11 */
 401:.\Generated_Source\PSoC5/cyfitter_cfg.c **** 		{ 896u, 0x0Du, 0x22u, (uint16)(uint32)(0u), (uint16)(CYDEV_UCFG_B0_P6_U0_BASE) },	/* TD 12 */
 402:.\Generated_Source\PSoC5/cyfitter_cfg.c **** 		{ 384u, 0x0Eu, 0x22u, (uint16)(uint32)(0u), (uint16)(CYDEV_UCFG_B1_P4_U0_BASE) },	/* TD 13 */
 403:.\Generated_Source\PSoC5/cyfitter_cfg.c **** 		{ 384u, 0x0Fu, 0x22u, (uint16)(uint32)(0u), (uint16)(CYDEV_UCFG_B1_P5_U0_BASE) },	/* TD 14 */
 404:.\Generated_Source\PSoC5/cyfitter_cfg.c **** 		{ 128u, 0x10u, 0x22u, (uint16)(uint32)(0u), (uint16)(CYDEV_UCFG_DSI2_BASE) },	/* TD 15 */
 405:.\Generated_Source\PSoC5/cyfitter_cfg.c **** 		{ 128u, 0x11u, 0x22u, (uint16)(uint32)(0u), (uint16)(CYDEV_UCFG_DSI3_BASE) },	/* TD 16 */
 406:.\Generated_Source\PSoC5/cyfitter_cfg.c **** 		{ 128u, 0x12u, 0x22u, (uint16)(uint32)(0u), (uint16)(CYDEV_UCFG_DSI4_BASE) },	/* TD 17 */
 407:.\Generated_Source\PSoC5/cyfitter_cfg.c **** 		{ 128u, 0x13u, 0x22u, (uint16)(uint32)(0u), (uint16)(CYDEV_UCFG_DSI6_BASE) },	/* TD 18 */
 408:.\Generated_Source\PSoC5/cyfitter_cfg.c **** 		{ 128u, 0x14u, 0x22u, (uint16)(uint32)(0u), (uint16)(CYDEV_UCFG_DSI8_BASE) },	/* TD 19 */
 409:.\Generated_Source\PSoC5/cyfitter_cfg.c **** 		{ 128u, 0xFEu, 0x22u, (uint16)(uint32)(0u), (uint16)(CYDEV_UCFG_DSI13_BASE) },	/* TD 20 */
 410:.\Generated_Source\PSoC5/cyfitter_cfg.c **** 		{ 7u, 0x16u, 0x23u, (uint16)(uint32)(0u), (uint16)(CYDEV_PRTDSI_PRT0_BASE) },	/* TD 21 */
 411:.\Generated_Source\PSoC5/cyfitter_cfg.c **** 		{ 7u, 0x17u, 0x23u, (uint16)(uint32)(0u), (uint16)(CYDEV_PRTDSI_PRT2_BASE) },	/* TD 22 */
 412:.\Generated_Source\PSoC5/cyfitter_cfg.c **** 		{ 7u, 0x18u, 0x23u, (uint16)(uint32)(0u), (uint16)(CYDEV_PRTDSI_PRT3_BASE) },	/* TD 23 */
 413:.\Generated_Source\PSoC5/cyfitter_cfg.c **** 		{ 7u, 0x19u, 0x23u, (uint16)(uint32)(0u), (uint16)(CYDEV_PRTDSI_PRT15_BASE) },	/* TD 24 */
 414:.\Generated_Source\PSoC5/cyfitter_cfg.c **** 		{ 8u, 0x1Au, 0x23u, (uint16)(uint32)(0u), (uint16)(CYDEV_PICU_INTTYPE_PICU15_BASE) },	/* TD 25 */
 415:.\Generated_Source\PSoC5/cyfitter_cfg.c **** 		{ 32u, 0x1Bu, 0x23u, (uint16)(uint32)(0u), (uint16)(CYDEV_UWRK_UWRK8_B0_BASE + 0x00000070u) },	/*
 416:.\Generated_Source\PSoC5/cyfitter_cfg.c **** 		{ 32u, 0xFEu, 0x23u, (uint16)(uint32)(0u), (uint16)(CYDEV_UWRK_UWRK8_B1_BASE + 0x00000070u) },	/*
 417:.\Generated_Source\PSoC5/cyfitter_cfg.c **** 		{ 8u, 0x1Du, 0x23u, (uint16)(uint32)(0u), (uint16)(CYREG_IDMUX_IRQ_CTL0) },	/* TD 28 */
 418:.\Generated_Source\PSoC5/cyfitter_cfg.c **** 		{ 128u, 0x1Eu, 0x23u, (uint16)(uint32)(0u), (uint16)(CYDEV_UCFG_B0_P0_U0_BASE) },	/* TD 29 */
 419:.\Generated_Source\PSoC5/cyfitter_cfg.c **** 		{ 128u, 0x1Fu, 0x23u, (uint16)(uint32)(0u), (uint16)(CYDEV_UCFG_B0_P0_U1_BASE) },	/* TD 30 */
 420:.\Generated_Source\PSoC5/cyfitter_cfg.c **** 		{ 128u, 0x20u, 0x23u, (uint16)(uint32)(0u), (uint16)(CYDEV_UCFG_B0_P1_U0_BASE) },	/* TD 31 */
 421:.\Generated_Source\PSoC5/cyfitter_cfg.c **** 		{ 128u, 0x21u, 0x23u, (uint16)(uint32)(0u), (uint16)(CYDEV_UCFG_B0_P1_U1_BASE) },	/* TD 32 */
 422:.\Generated_Source\PSoC5/cyfitter_cfg.c **** 		{ 128u, 0x22u, 0x23u, (uint16)(uint32)(0u), (uint16)(CYDEV_UCFG_B0_P2_U0_BASE) },	/* TD 33 */
 423:.\Generated_Source\PSoC5/cyfitter_cfg.c **** 		{ 128u, 0x23u, 0x23u, (uint16)(uint32)(0u), (uint16)(CYDEV_UCFG_B0_P2_U1_BASE) },	/* TD 34 */
 424:.\Generated_Source\PSoC5/cyfitter_cfg.c **** 		{ 128u, 0x24u, 0x23u, (uint16)(uint32)(0u), (uint16)(CYDEV_UCFG_B0_P3_U0_BASE) },	/* TD 35 */
 425:.\Generated_Source\PSoC5/cyfitter_cfg.c **** 		{ 128u, 0x25u, 0x23u, (uint16)(uint32)(0u), (uint16)(CYDEV_UCFG_B0_P3_U1_BASE) },	/* TD 36 */
 426:.\Generated_Source\PSoC5/cyfitter_cfg.c **** 		{ 128u, 0x26u, 0x23u, (uint16)(uint32)(0u), (uint16)(CYDEV_UCFG_B1_P2_U0_BASE) },	/* TD 37 */
 427:.\Generated_Source\PSoC5/cyfitter_cfg.c **** 		{ 128u, 0x27u, 0x23u, (uint16)(uint32)(0u), (uint16)(CYDEV_UCFG_B1_P2_U1_BASE) },	/* TD 38 */
 428:.\Generated_Source\PSoC5/cyfitter_cfg.c **** 		{ 128u, 0x28u, 0x23u, (uint16)(uint32)(0u), (uint16)(CYDEV_UCFG_B1_P3_U0_BASE) },	/* TD 39 */
 429:.\Generated_Source\PSoC5/cyfitter_cfg.c **** 		{ 128u, 0x29u, 0x23u, (uint16)(uint32)(0u), (uint16)(CYDEV_UCFG_B1_P3_U1_BASE) },	/* TD 40 */
 430:.\Generated_Source\PSoC5/cyfitter_cfg.c **** 		{ 16u, 0x2Au, 0x23u, (uint16)(uint32)(0u), (uint16)(CYREG_BCTL1_MDCLK_EN) },	/* TD 41 */
 431:.\Generated_Source\PSoC5/cyfitter_cfg.c **** 		{ 16u, 0x2Bu, 0x23u, (uint16)(uint32)(0u), (uint16)(CYREG_BCTL0_MDCLK_EN) },	/* TD 42 */
 432:.\Generated_Source\PSoC5/cyfitter_cfg.c **** 		{ 128u, 0x2Cu, 0x23u, (uint16)(uint32)(0u), (uint16)(CYDEV_UCFG_DSI13_BASE + 0x00000080u) },	/* T
 433:.\Generated_Source\PSoC5/cyfitter_cfg.c **** 		{ 128u, 0x2Du, 0x23u, (uint16)(uint32)(0u), (uint16)(CYDEV_UCFG_DSI12_BASE) },	/* TD 44 */
 434:.\Generated_Source\PSoC5/cyfitter_cfg.c **** 		{ 128u, 0x2Eu, 0x23u, (uint16)(uint32)(0u), (uint16)(CYDEV_UCFG_DSI12_BASE + 0x00000080u) },	/* T
 435:.\Generated_Source\PSoC5/cyfitter_cfg.c **** 		{ 128u, 0x2Fu, 0x23u, (uint16)(uint32)(0u), (uint16)(CYDEV_UCFG_DSI7_BASE) },	/* TD 46 */
 436:.\Generated_Source\PSoC5/cyfitter_cfg.c **** 		{ 128u, 0x30u, 0x23u, (uint16)(uint32)(0u), (uint16)(CYDEV_UCFG_DSI7_BASE + 0x00000080u) },	/* TD
 437:.\Generated_Source\PSoC5/cyfitter_cfg.c **** 		{ 128u, 0x31u, 0x23u, (uint16)(uint32)(0u), (uint16)(CYDEV_UCFG_DSI6_BASE + 0x00000080u) },	/* TD
 438:.\Generated_Source\PSoC5/cyfitter_cfg.c **** 		{ 128u, 0x32u, 0x23u, (uint16)(uint32)(0u), (uint16)(CYDEV_UCFG_DSI5_BASE) },	/* TD 49 */
 439:.\Generated_Source\PSoC5/cyfitter_cfg.c **** 		{ 128u, 0x33u, 0x23u, (uint16)(uint32)(0u), (uint16)(CYDEV_UCFG_DSI5_BASE + 0x00000080u) },	/* TD
 440:.\Generated_Source\PSoC5/cyfitter_cfg.c **** 		{ 128u, 0x34u, 0x23u, (uint16)(uint32)(0u), (uint16)(CYDEV_UCFG_DSI4_BASE + 0x00000080u) },	/* TD
 441:.\Generated_Source\PSoC5/cyfitter_cfg.c **** 		{ 128u, 0x35u, 0x23u, (uint16)(uint32)(0u), (uint16)(CYDEV_UCFG_B1_P5_ROUTE_BASE + 0x00000080u) }
 442:.\Generated_Source\PSoC5/cyfitter_cfg.c **** 		{ 128u, 0x36u, 0x23u, (uint16)(uint32)(0u), (uint16)(CYDEV_UCFG_B1_P2_ROUTE_BASE) },	/* TD 53 */
 443:.\Generated_Source\PSoC5/cyfitter_cfg.c **** 		{ 128u, 0x37u, 0x23u, (uint16)(uint32)(0u), (uint16)(CYDEV_UCFG_B1_P2_ROUTE_BASE + 0x00000080u) }
 444:.\Generated_Source\PSoC5/cyfitter_cfg.c **** 		{ 128u, 0x38u, 0x23u, (uint16)(uint32)(0u), (uint16)(CYDEV_UCFG_B1_P4_ROUTE_BASE + 0x00000080u) }
 445:.\Generated_Source\PSoC5/cyfitter_cfg.c **** 		{ 128u, 0x39u, 0x23u, (uint16)(uint32)(0u), (uint16)(CYDEV_UCFG_B1_P3_ROUTE_BASE) },	/* TD 56 */
 446:.\Generated_Source\PSoC5/cyfitter_cfg.c **** 		{ 128u, 0x3Au, 0x23u, (uint16)(uint32)(0u), (uint16)(CYDEV_UCFG_B1_P3_ROUTE_BASE + 0x00000080u) }
 447:.\Generated_Source\PSoC5/cyfitter_cfg.c **** 		{ 128u, 0x3Bu, 0x23u, (uint16)(uint32)(0u), (uint16)(CYDEV_UCFG_B0_P3_ROUTE_BASE) },	/* TD 58 */
 448:.\Generated_Source\PSoC5/cyfitter_cfg.c **** 		{ 128u, 0x3Cu, 0x23u, (uint16)(uint32)(0u), (uint16)(CYDEV_UCFG_B0_P3_ROUTE_BASE + 0x00000080u) }
 449:.\Generated_Source\PSoC5/cyfitter_cfg.c **** 		{ 128u, 0x3Du, 0x23u, (uint16)(uint32)(0u), (uint16)(CYDEV_UCFG_B0_P5_ROUTE_BASE + 0x00000080u) }
 450:.\Generated_Source\PSoC5/cyfitter_cfg.c **** 		{ 128u, 0x3Eu, 0x23u, (uint16)(uint32)(0u), (uint16)(CYDEV_UCFG_B0_P2_ROUTE_BASE) },	/* TD 61 */
 451:.\Generated_Source\PSoC5/cyfitter_cfg.c **** 		{ 128u, 0x3Fu, 0x23u, (uint16)(uint32)(0u), (uint16)(CYDEV_UCFG_B0_P2_ROUTE_BASE + 0x00000080u) }
 452:.\Generated_Source\PSoC5/cyfitter_cfg.c **** 		{ 128u, 0x40u, 0x23u, (uint16)(uint32)(0u), (uint16)(CYDEV_UCFG_B0_P1_ROUTE_BASE) },	/* TD 63 */
 453:.\Generated_Source\PSoC5/cyfitter_cfg.c **** 		{ 128u, 0x41u, 0x23u, (uint16)(uint32)(0u), (uint16)(CYDEV_UCFG_B0_P1_ROUTE_BASE + 0x00000080u) }
ARM GAS  C:\Users\LUKASC~1\AppData\Local\Temp\ccg6ewFT.s 			page 12


 454:.\Generated_Source\PSoC5/cyfitter_cfg.c **** 		{ 128u, 0x42u, 0x23u, (uint16)(uint32)(0u), (uint16)(CYDEV_UCFG_B0_P7_ROUTE_BASE + 0x00000080u) }
 455:.\Generated_Source\PSoC5/cyfitter_cfg.c **** 		{ 128u, 0x43u, 0x23u, (uint16)(uint32)(0u), (uint16)(CYDEV_UCFG_B0_P0_ROUTE_BASE) },	/* TD 66 */
 456:.\Generated_Source\PSoC5/cyfitter_cfg.c **** 		{ 128u, 0x44u, 0x23u, (uint16)(uint32)(0u), (uint16)(CYDEV_UCFG_B0_P0_ROUTE_BASE + 0x00000080u) }
 457:.\Generated_Source\PSoC5/cyfitter_cfg.c **** 		{ 128u, 0x45u, 0x23u, (uint16)(uint32)(0u), (uint16)(CYDEV_UCFG_DSI9_BASE) },	/* TD 68 */
 458:.\Generated_Source\PSoC5/cyfitter_cfg.c **** 		{ 128u, 0x46u, 0x23u, (uint16)(uint32)(0u), (uint16)(CYDEV_UCFG_DSI9_BASE + 0x00000080u) },	/* TD
 459:.\Generated_Source\PSoC5/cyfitter_cfg.c **** 		{ 128u, 0x47u, 0x23u, (uint16)(uint32)(0u), (uint16)(CYDEV_UCFG_DSI8_BASE + 0x00000080u) },	/* TD
 460:.\Generated_Source\PSoC5/cyfitter_cfg.c **** 		{ 128u, 0x48u, 0x23u, (uint16)(uint32)(0u), (uint16)(CYDEV_UCFG_DSI3_BASE + 0x00000080u) },	/* TD
 461:.\Generated_Source\PSoC5/cyfitter_cfg.c **** 		{ 128u, 0x49u, 0x23u, (uint16)(uint32)(0u), (uint16)(CYDEV_UCFG_DSI2_BASE + 0x00000080u) },	/* TD
 462:.\Generated_Source\PSoC5/cyfitter_cfg.c **** 		{ 128u, 0x4Au, 0x23u, (uint16)(uint32)(0u), (uint16)(CYDEV_UCFG_DSI1_BASE) },	/* TD 73 */
 463:.\Generated_Source\PSoC5/cyfitter_cfg.c **** 		{ 128u, 0x4Bu, 0x23u, (uint16)(uint32)(0u), (uint16)(CYDEV_UCFG_DSI1_BASE + 0x00000080u) },	/* TD
 464:.\Generated_Source\PSoC5/cyfitter_cfg.c **** 		{ 128u, 0x4Cu, 0x23u, (uint16)(uint32)(0u), (uint16)(CYDEV_UCFG_DSI0_BASE) },	/* TD 75 */
 465:.\Generated_Source\PSoC5/cyfitter_cfg.c **** 		{ 128u, 0xFEu, 0x23u, (uint16)(uint32)(0u), (uint16)(CYDEV_UCFG_DSI0_BASE + 0x00000080u) },	/* TD
 466:.\Generated_Source\PSoC5/cyfitter_cfg.c **** 	};
 467:.\Generated_Source\PSoC5/cyfitter_cfg.c **** 
 468:.\Generated_Source\PSoC5/cyfitter_cfg.c **** 	/* Source addresses can be relocated, but only when in 32bit addresses.
 469:.\Generated_Source\PSoC5/cyfitter_cfg.c **** 	   Because the standard TD table only has 16bit addresses, we generate a
 470:.\Generated_Source\PSoC5/cyfitter_cfg.c **** 	   separate table for the source addresses that does use 32bit addresses. This
 471:.\Generated_Source\PSoC5/cyfitter_cfg.c **** 	   table will be re-merged with the corresponding CFG_TD_LIST table during
 472:.\Generated_Source\PSoC5/cyfitter_cfg.c **** 	   initialization. */
 473:.\Generated_Source\PSoC5/cyfitter_cfg.c **** 	static const void * const CFG_TD_ADDR0[] = {
 474:.\Generated_Source\PSoC5/cyfitter_cfg.c **** 		(const void *)(CH1_ADDR_DATA0),	/* TD 1 */
 475:.\Generated_Source\PSoC5/cyfitter_cfg.c **** 		(const void *)(CH2_ADDR_DATA0),	/* TD 2 */
 476:.\Generated_Source\PSoC5/cyfitter_cfg.c **** 		(const void *)(CH5_ADDR_DATA0),	/* TD 3 */
 477:.\Generated_Source\PSoC5/cyfitter_cfg.c **** 		(const void *)(CH6_ADDR_DATA0),	/* TD 4 */
 478:.\Generated_Source\PSoC5/cyfitter_cfg.c **** 		(const void *)(DMA_TD_START_CMD),	/* TD 5 */
 479:.\Generated_Source\PSoC5/cyfitter_cfg.c **** 		(const void *)(DMA_TD_START_CMD),	/* TD 6 */
 480:.\Generated_Source\PSoC5/cyfitter_cfg.c **** 		(const void *)(DMA_TD_START_CMD),	/* TD 7 */
 481:.\Generated_Source\PSoC5/cyfitter_cfg.c **** 		(const void *)(DMA_TD_START_CMD),	/* TD 8 */
 482:.\Generated_Source\PSoC5/cyfitter_cfg.c **** 		(const void *)(&DMA_ZERO_VAL),	/* TD 9 */
 483:.\Generated_Source\PSoC5/cyfitter_cfg.c **** 		(const void *)(&DMA_ZERO_VAL),	/* TD 10 */
 484:.\Generated_Source\PSoC5/cyfitter_cfg.c **** 		(const void *)(&DMA_ZERO_VAL),	/* TD 11 */
 485:.\Generated_Source\PSoC5/cyfitter_cfg.c **** 		(const void *)(&DMA_ZERO_VAL),	/* TD 12 */
 486:.\Generated_Source\PSoC5/cyfitter_cfg.c **** 		(const void *)(&DMA_ZERO_VAL),	/* TD 13 */
 487:.\Generated_Source\PSoC5/cyfitter_cfg.c **** 		(const void *)(&DMA_ZERO_VAL),	/* TD 14 */
 488:.\Generated_Source\PSoC5/cyfitter_cfg.c **** 		(const void *)(&DMA_ZERO_VAL),	/* TD 15 */
 489:.\Generated_Source\PSoC5/cyfitter_cfg.c **** 		(const void *)(&DMA_ZERO_VAL),	/* TD 16 */
 490:.\Generated_Source\PSoC5/cyfitter_cfg.c **** 		(const void *)(&DMA_ZERO_VAL),	/* TD 17 */
 491:.\Generated_Source\PSoC5/cyfitter_cfg.c **** 		(const void *)(&DMA_ZERO_VAL),	/* TD 18 */
 492:.\Generated_Source\PSoC5/cyfitter_cfg.c **** 		(const void *)(&DMA_ZERO_VAL),	/* TD 19 */
 493:.\Generated_Source\PSoC5/cyfitter_cfg.c **** 		(const void *)(&DMA_ZERO_VAL),	/* TD 20 */
 494:.\Generated_Source\PSoC5/cyfitter_cfg.c **** 		(const void *)(BS_IOPORT_0_VAL),	/* TD 21 */
 495:.\Generated_Source\PSoC5/cyfitter_cfg.c **** 		(const void *)(BS_IOPORT_2_VAL),	/* TD 22 */
 496:.\Generated_Source\PSoC5/cyfitter_cfg.c **** 		(const void *)(BS_IOPORT_3_VAL),	/* TD 23 */
 497:.\Generated_Source\PSoC5/cyfitter_cfg.c **** 		(const void *)(BS_IOPORT_8_VAL),	/* TD 24 */
 498:.\Generated_Source\PSoC5/cyfitter_cfg.c **** 		(const void *)(BS_PICU_8_VAL),	/* TD 25 */
 499:.\Generated_Source\PSoC5/cyfitter_cfg.c **** 		(const void *)(BS_UWRK_B0_WRK_STATCTL_BITS_VAL),	/* TD 26 */
 500:.\Generated_Source\PSoC5/cyfitter_cfg.c **** 		(const void *)(BS_UWRK_B1_WRK_STATCTL_BITS_VAL),	/* TD 27 */
 501:.\Generated_Source\PSoC5/cyfitter_cfg.c **** 		(const void *)(BS_IDMUX_IRQ_VAL),	/* TD 28 */
 502:.\Generated_Source\PSoC5/cyfitter_cfg.c **** 		(const void *)(BS_UDB_1_5_0_CONFIG_VAL),	/* TD 29 */
 503:.\Generated_Source\PSoC5/cyfitter_cfg.c **** 		(const void *)(BS_UDB_1_5_1_CONFIG_VAL),	/* TD 30 */
 504:.\Generated_Source\PSoC5/cyfitter_cfg.c **** 		(const void *)(BS_UDB_1_4_1_CONFIG_VAL),	/* TD 31 */
 505:.\Generated_Source\PSoC5/cyfitter_cfg.c **** 		(const void *)(BS_UDB_1_4_0_CONFIG_VAL),	/* TD 32 */
 506:.\Generated_Source\PSoC5/cyfitter_cfg.c **** 		(const void *)(BS_UDB_1_3_0_CONFIG_VAL),	/* TD 33 */
 507:.\Generated_Source\PSoC5/cyfitter_cfg.c **** 		(const void *)(BS_UDB_1_3_1_CONFIG_VAL),	/* TD 34 */
 508:.\Generated_Source\PSoC5/cyfitter_cfg.c **** 		(const void *)(BS_UDB_1_2_1_CONFIG_VAL),	/* TD 35 */
 509:.\Generated_Source\PSoC5/cyfitter_cfg.c **** 		(const void *)(BS_UDB_1_2_0_CONFIG_VAL),	/* TD 36 */
 510:.\Generated_Source\PSoC5/cyfitter_cfg.c **** 		(const void *)(BS_UDB_1_0_0_CONFIG_VAL),	/* TD 37 */
ARM GAS  C:\Users\LUKASC~1\AppData\Local\Temp\ccg6ewFT.s 			page 13


 511:.\Generated_Source\PSoC5/cyfitter_cfg.c **** 		(const void *)(BS_UDB_1_0_1_CONFIG_VAL),	/* TD 38 */
 512:.\Generated_Source\PSoC5/cyfitter_cfg.c **** 		(const void *)(BS_UDB_1_1_1_CONFIG_VAL),	/* TD 39 */
 513:.\Generated_Source\PSoC5/cyfitter_cfg.c **** 		(const void *)(BS_UDB_1_1_0_CONFIG_VAL),	/* TD 40 */
 514:.\Generated_Source\PSoC5/cyfitter_cfg.c **** 		(const void *)(BS_UCFG_BCTL1_VAL),	/* TD 41 */
 515:.\Generated_Source\PSoC5/cyfitter_cfg.c **** 		(const void *)(BS_UCFG_BCTL0_VAL),	/* TD 42 */
 516:.\Generated_Source\PSoC5/cyfitter_cfg.c **** 		(const void *)(BS_DSI0_0_HV_ROUTING_VAL),	/* TD 43 */
 517:.\Generated_Source\PSoC5/cyfitter_cfg.c **** 		(const void *)(BS_DSISWITCH_0_1_VAL),	/* TD 44 */
 518:.\Generated_Source\PSoC5/cyfitter_cfg.c **** 		(const void *)(BS_DSI0_1_HV_ROUTING_VAL),	/* TD 45 */
 519:.\Generated_Source\PSoC5/cyfitter_cfg.c **** 		(const void *)(BS_DSISWITCH_0_2_VAL),	/* TD 46 */
 520:.\Generated_Source\PSoC5/cyfitter_cfg.c **** 		(const void *)(BS_DSI0_2_HV_ROUTING_VAL),	/* TD 47 */
 521:.\Generated_Source\PSoC5/cyfitter_cfg.c **** 		(const void *)(BS_DSI0_3_HV_ROUTING_VAL),	/* TD 48 */
 522:.\Generated_Source\PSoC5/cyfitter_cfg.c **** 		(const void *)(BS_DSISWITCH_0_4_VAL),	/* TD 49 */
 523:.\Generated_Source\PSoC5/cyfitter_cfg.c **** 		(const void *)(BS_DSI0_4_HV_ROUTING_VAL),	/* TD 50 */
 524:.\Generated_Source\PSoC5/cyfitter_cfg.c **** 		(const void *)(BS_DSI0_5_HV_ROUTING_VAL),	/* TD 51 */
 525:.\Generated_Source\PSoC5/cyfitter_cfg.c **** 		(const void *)(BS_UDB_1_0_HV_ROUTING_VAL),	/* TD 52 */
 526:.\Generated_Source\PSoC5/cyfitter_cfg.c **** 		(const void *)(BS_UDBSWITCH_1_0_VAL),	/* TD 53 */
 527:.\Generated_Source\PSoC5/cyfitter_cfg.c **** 		(const void *)(BS_UDB_2_0_HV_ROUTING_VAL),	/* TD 54 */
 528:.\Generated_Source\PSoC5/cyfitter_cfg.c **** 		(const void *)(BS_UDB_1_1_HV_ROUTING_VAL),	/* TD 55 */
 529:.\Generated_Source\PSoC5/cyfitter_cfg.c **** 		(const void *)(BS_UDBSWITCH_1_1_VAL),	/* TD 56 */
 530:.\Generated_Source\PSoC5/cyfitter_cfg.c **** 		(const void *)(BS_UDB_2_1_HV_ROUTING_VAL),	/* TD 57 */
 531:.\Generated_Source\PSoC5/cyfitter_cfg.c **** 		(const void *)(BS_UDBSWITCH_1_2_VAL),	/* TD 58 */
 532:.\Generated_Source\PSoC5/cyfitter_cfg.c **** 		(const void *)(BS_UDB_2_2_HV_ROUTING_VAL),	/* TD 59 */
 533:.\Generated_Source\PSoC5/cyfitter_cfg.c **** 		(const void *)(BS_UDB_1_3_HV_ROUTING_VAL),	/* TD 60 */
 534:.\Generated_Source\PSoC5/cyfitter_cfg.c **** 		(const void *)(BS_UDBSWITCH_1_3_VAL),	/* TD 61 */
 535:.\Generated_Source\PSoC5/cyfitter_cfg.c **** 		(const void *)(BS_UDB_2_3_HV_ROUTING_VAL),	/* TD 62 */
 536:.\Generated_Source\PSoC5/cyfitter_cfg.c **** 		(const void *)(BS_UDBSWITCH_1_4_VAL),	/* TD 63 */
 537:.\Generated_Source\PSoC5/cyfitter_cfg.c **** 		(const void *)(BS_UDB_2_4_HV_ROUTING_VAL),	/* TD 64 */
 538:.\Generated_Source\PSoC5/cyfitter_cfg.c **** 		(const void *)(BS_UDB_1_5_HV_ROUTING_VAL),	/* TD 65 */
 539:.\Generated_Source\PSoC5/cyfitter_cfg.c **** 		(const void *)(BS_UDBSWITCH_1_5_VAL),	/* TD 66 */
 540:.\Generated_Source\PSoC5/cyfitter_cfg.c **** 		(const void *)(BS_UDB_2_5_HV_ROUTING_VAL),	/* TD 67 */
 541:.\Generated_Source\PSoC5/cyfitter_cfg.c **** 		(const void *)(BS_DSISWITCH_1_0_VAL),	/* TD 68 */
 542:.\Generated_Source\PSoC5/cyfitter_cfg.c **** 		(const void *)(BS_DSI3_0_HV_ROUTING_VAL),	/* TD 69 */
 543:.\Generated_Source\PSoC5/cyfitter_cfg.c **** 		(const void *)(BS_DSI3_1_HV_ROUTING_VAL),	/* TD 70 */
 544:.\Generated_Source\PSoC5/cyfitter_cfg.c **** 		(const void *)(BS_DSI3_2_HV_ROUTING_VAL),	/* TD 71 */
 545:.\Generated_Source\PSoC5/cyfitter_cfg.c **** 		(const void *)(BS_DSI3_3_HV_ROUTING_VAL),	/* TD 72 */
 546:.\Generated_Source\PSoC5/cyfitter_cfg.c **** 		(const void *)(BS_DSISWITCH_1_4_VAL),	/* TD 73 */
 547:.\Generated_Source\PSoC5/cyfitter_cfg.c **** 		(const void *)(BS_DSI3_4_HV_ROUTING_VAL),	/* TD 74 */
 548:.\Generated_Source\PSoC5/cyfitter_cfg.c **** 		(const void *)(BS_DSISWITCH_1_5_VAL),	/* TD 75 */
 549:.\Generated_Source\PSoC5/cyfitter_cfg.c **** 		(const void *)(BS_DSI3_5_HV_ROUTING_VAL),	/* TD 76 */
 550:.\Generated_Source\PSoC5/cyfitter_cfg.c **** 	};
 551:.\Generated_Source\PSoC5/cyfitter_cfg.c **** 
 552:.\Generated_Source\PSoC5/cyfitter_cfg.c **** 
 553:.\Generated_Source\PSoC5/cyfitter_cfg.c **** 	uint32 i;
 554:.\Generated_Source\PSoC5/cyfitter_cfg.c **** 
 555:.\Generated_Source\PSoC5/cyfitter_cfg.c **** 	DMA_ZERO_VAL = 0u;
 175              		.loc 1 555 0
 176 0006 454B     		ldr	r3, .L15
 177 0008 0022     		movs	r2, #0
 178 000a 1A60     		str	r2, [r3]
 556:.\Generated_Source\PSoC5/cyfitter_cfg.c **** 	CY_SET_REG8((void CYXDATA *)CYREG_PHUB_CFGMEM0_CFG0, 0x10u);	/* set burstcnt */
 179              		.loc 1 556 0
 180 000c 444B     		ldr	r3, .L15+4
 181 000e 1022     		movs	r2, #16
 182 0010 1A70     		strb	r2, [r3]
 557:.\Generated_Source\PSoC5/cyfitter_cfg.c **** 	CY_SET_REG8((void CYXDATA *)CYREG_PHUB_CH0_BASIC_CFG, 0x01u);	/* enable ch0 */
 183              		.loc 1 557 0
 184 0012 444B     		ldr	r3, .L15+8
ARM GAS  C:\Users\LUKASC~1\AppData\Local\Temp\ccg6ewFT.s 			page 14


 185 0014 0122     		movs	r2, #1
 186 0016 1A70     		strb	r2, [r3]
 558:.\Generated_Source\PSoC5/cyfitter_cfg.c **** 	CY_SET_REG8((void CYXDATA *)(CYREG_PHUB_CH0_BASIC_STATUS+1u), 0x00u);	/* set first TD to 0 */
 187              		.loc 1 558 0
 188 0018 434B     		ldr	r3, .L15+12
 189 001a 0022     		movs	r2, #0
 190 001c 1A70     		strb	r2, [r3]
 559:.\Generated_Source\PSoC5/cyfitter_cfg.c **** 	CY_SET_REG16((void CYXDATA *)CYREG_PHUB_TDMEM0_ORIG_TD0, 76u*8u);	/* transfer size */
 191              		.loc 1 559 0
 192 001e 434B     		ldr	r3, .L15+16
 193 0020 4FF41872 		mov	r2, #608
 194 0024 1A80     		strh	r2, [r3]	@ movhi
 560:.\Generated_Source\PSoC5/cyfitter_cfg.c **** 	CY_SET_REG8((void CYXDATA *)(CYREG_PHUB_TDMEM0_ORIG_TD0+2u), 0x01u);	/* set next TD to 1 */
 195              		.loc 1 560 0
 196 0026 424B     		ldr	r3, .L15+20
 197 0028 0122     		movs	r2, #1
 198 002a 1A70     		strb	r2, [r3]
 561:.\Generated_Source\PSoC5/cyfitter_cfg.c **** 	CY_SET_REG8((void CYXDATA *)(CYREG_PHUB_TDMEM0_ORIG_TD0+3u), 0x03u);	/* set TD flags */
 199              		.loc 1 561 0
 200 002c 414B     		ldr	r3, .L15+24
 201 002e 0322     		movs	r2, #3
 202 0030 1A70     		strb	r2, [r3]
 562:.\Generated_Source\PSoC5/cyfitter_cfg.c **** 	CY_SET_REG16((void CYXDATA *)CYREG_PHUB_TDMEM0_ORIG_TD1, (uint16)((uint32)CFG_TD_LIST0 & 0x0000FFF
 203              		.loc 1 562 0
 204 0032 414B     		ldr	r3, .L15+28
 205 0034 414A     		ldr	r2, .L15+32
 206 0036 92B2     		uxth	r2, r2
 207 0038 1A80     		strh	r2, [r3]	@ movhi
 563:.\Generated_Source\PSoC5/cyfitter_cfg.c **** 	CY_SET_REG16((void CYXDATA *)(CYREG_PHUB_TDMEM0_ORIG_TD1+2u), CYDEV_PHUB_TDMEM1_BASE);	/* set td0'
 208              		.loc 1 563 0
 209 003a 414B     		ldr	r3, .L15+36
 210 003c 47F60802 		movw	r2, #30728
 211 0040 1A80     		strh	r2, [r3]	@ movhi
 564:.\Generated_Source\PSoC5/cyfitter_cfg.c **** 	CY_SET_REG16((void CYXDATA *)CYREG_PHUB_CFGMEM0_CFG1, (uint16)(CYDEV_FLASH_BASE >> 16));	/* set ch
 212              		.loc 1 564 0
 213 0042 404B     		ldr	r3, .L15+40
 214 0044 0022     		movs	r2, #0
 215 0046 1A80     		strh	r2, [r3]	@ movhi
 565:.\Generated_Source\PSoC5/cyfitter_cfg.c **** 	CY_SET_REG16((void CYXDATA *)(CYREG_PHUB_CFGMEM0_CFG1+2u), (uint16)(CYDEV_PHUB_TDMEM1_BASE >> 16))
 216              		.loc 1 565 0
 217 0048 3F4B     		ldr	r3, .L15+44
 218 004a 4FF48042 		mov	r2, #16384
 219 004e 1A80     		strh	r2, [r3]	@ movhi
 566:.\Generated_Source\PSoC5/cyfitter_cfg.c **** 	CY_SET_REG8((void CYXDATA *)(CYREG_PHUB_CH1_BASIC_STATUS+1u), 0x09u);	/* ch1 first TD: 9 */
 220              		.loc 1 566 0
 221 0050 3E4B     		ldr	r3, .L15+48
 222 0052 0922     		movs	r2, #9
 223 0054 1A70     		strb	r2, [r3]
 567:.\Generated_Source\PSoC5/cyfitter_cfg.c **** 	CY_SET_REG8((void CYXDATA *)(CYREG_PHUB_CH2_BASIC_STATUS+1u), 0x0Bu);	/* ch2 first TD: 11 */
 224              		.loc 1 567 0
 225 0056 3E4B     		ldr	r3, .L15+52
 226 0058 0B22     		movs	r2, #11
 227 005a 1A70     		strb	r2, [r3]
 568:.\Generated_Source\PSoC5/cyfitter_cfg.c **** 	CY_SET_REG8((void CYXDATA *)(CYREG_PHUB_CH5_BASIC_STATUS+1u), 0x15u);	/* ch5 first TD: 21 */
 228              		.loc 1 568 0
 229 005c 3D4B     		ldr	r3, .L15+56
 230 005e 1522     		movs	r2, #21
ARM GAS  C:\Users\LUKASC~1\AppData\Local\Temp\ccg6ewFT.s 			page 15


 231 0060 1A70     		strb	r2, [r3]
 569:.\Generated_Source\PSoC5/cyfitter_cfg.c **** 	CY_SET_REG8((void CYXDATA *)(CYREG_PHUB_CH6_BASIC_STATUS+1u), 0x1Cu);	/* ch6 first TD: 28 */
 232              		.loc 1 569 0
 233 0062 3D4B     		ldr	r3, .L15+60
 234 0064 1C22     		movs	r2, #28
 235 0066 1A70     		strb	r2, [r3]
 570:.\Generated_Source\PSoC5/cyfitter_cfg.c **** 
 571:.\Generated_Source\PSoC5/cyfitter_cfg.c **** 	CY_CFG_MEMORY_BARRIER();
 236              		.loc 1 571 0
 237 0068 BFF35F8F 		dmb	sy
 572:.\Generated_Source\PSoC5/cyfitter_cfg.c **** 	CY_SET_REG8((void CYXDATA *)CYREG_PHUB_CH0_ACTION, 0x01u); /* cpu_req */
 238              		.loc 1 572 0
 239 006c 3B4B     		ldr	r3, .L15+64
 240 006e 0122     		movs	r2, #1
 241 0070 1A70     		strb	r2, [r3]
 573:.\Generated_Source\PSoC5/cyfitter_cfg.c **** 	CY_CFG_MEMORY_BARRIER();
 242              		.loc 1 573 0
 243 0072 BFF35F8F 		dmb	sy
 574:.\Generated_Source\PSoC5/cyfitter_cfg.c **** 
 575:.\Generated_Source\PSoC5/cyfitter_cfg.c **** 	/* Wait for TDs to be copied into TDMEM */
 576:.\Generated_Source\PSoC5/cyfitter_cfg.c **** 	while (CY_GET_REG16((void CYXDATA *)CYREG_PHUB_TDMEM0_ORIG_TD0) != 0u) { }
 244              		.loc 1 576 0
 245 0076 00BF     		nop
 246              	.L7:
 247              		.loc 1 576 0 is_stmt 0 discriminator 1
 248 0078 2C4B     		ldr	r3, .L15+16
 249 007a 1B88     		ldrh	r3, [r3]	@ movhi
 250 007c 9BB2     		uxth	r3, r3
 251 007e 002B     		cmp	r3, #0
 252 0080 FAD1     		bne	.L7
 577:.\Generated_Source\PSoC5/cyfitter_cfg.c **** 
 578:.\Generated_Source\PSoC5/cyfitter_cfg.c **** 	/* Recombine TD source table (CFG_TD_ADDR0) with full TD table (CFG_TD_LIST0) */
 579:.\Generated_Source\PSoC5/cyfitter_cfg.c **** 	for (i = 0u; i < 76u; i++)
 253              		.loc 1 579 0 is_stmt 1
 254 0082 0023     		movs	r3, #0
 255 0084 7B60     		str	r3, [r7, #4]
 256 0086 0DE0     		b	.L8
 257              	.L9:
 580:.\Generated_Source\PSoC5/cyfitter_cfg.c **** 	{
 581:.\Generated_Source\PSoC5/cyfitter_cfg.c **** 		CY_SET_REG16((void CYXDATA *)(CYREG_PHUB_TDMEM1_ORIG_TD1 + (sizeof(struct td_t)*i)), (uint16)(uin
 258              		.loc 1 581 0 discriminator 3
 259 0088 7B68     		ldr	r3, [r7, #4]
 260 008a DA00     		lsls	r2, r3, #3
 261 008c 344B     		ldr	r3, .L15+68
 262 008e 1344     		add	r3, r3, r2
 263 0090 1946     		mov	r1, r3
 264 0092 344A     		ldr	r2, .L15+72
 265 0094 7B68     		ldr	r3, [r7, #4]
 266 0096 52F82330 		ldr	r3, [r2, r3, lsl #2]
 267 009a 9BB2     		uxth	r3, r3
 268 009c 0B80     		strh	r3, [r1]	@ movhi
 579:.\Generated_Source\PSoC5/cyfitter_cfg.c **** 	{
 269              		.loc 1 579 0 discriminator 3
 270 009e 7B68     		ldr	r3, [r7, #4]
 271 00a0 0133     		adds	r3, r3, #1
 272 00a2 7B60     		str	r3, [r7, #4]
 273              	.L8:
ARM GAS  C:\Users\LUKASC~1\AppData\Local\Temp\ccg6ewFT.s 			page 16


 579:.\Generated_Source\PSoC5/cyfitter_cfg.c **** 	{
 274              		.loc 1 579 0 is_stmt 0 discriminator 1
 275 00a4 7B68     		ldr	r3, [r7, #4]
 276 00a6 4B2B     		cmp	r3, #75
 277 00a8 EED9     		bls	.L9
 582:.\Generated_Source\PSoC5/cyfitter_cfg.c **** 	}
 583:.\Generated_Source\PSoC5/cyfitter_cfg.c **** 
 584:.\Generated_Source\PSoC5/cyfitter_cfg.c **** 	CY_CFG_MEMORY_BARRIER();
 278              		.loc 1 584 0 is_stmt 1
 279 00aa BFF35F8F 		dmb	sy
 585:.\Generated_Source\PSoC5/cyfitter_cfg.c **** 	CY_SET_REG8((void CYXDATA *)CYREG_PHUB_CH0_ACTION, 0x01u); /* cpu_req */
 280              		.loc 1 585 0
 281 00ae 2B4B     		ldr	r3, .L15+64
 282 00b0 0122     		movs	r2, #1
 283 00b2 1A70     		strb	r2, [r3]
 586:.\Generated_Source\PSoC5/cyfitter_cfg.c **** 	CY_CFG_MEMORY_BARRIER();
 284              		.loc 1 586 0
 285 00b4 BFF35F8F 		dmb	sy
 587:.\Generated_Source\PSoC5/cyfitter_cfg.c **** 
 588:.\Generated_Source\PSoC5/cyfitter_cfg.c **** 	/* Wait for all DMA transfers to complete */
 589:.\Generated_Source\PSoC5/cyfitter_cfg.c **** 	while(0u != (CY_GET_REG8((void CYXDATA *)CYREG_PHUB_CH0_BASIC_STATUS) & 0x01u)){}
 286              		.loc 1 589 0
 287 00b8 00BF     		nop
 288              	.L10:
 289              		.loc 1 589 0 is_stmt 0 discriminator 1
 290 00ba 2B4B     		ldr	r3, .L15+76
 291 00bc 1B78     		ldrb	r3, [r3]
 292 00be DBB2     		uxtb	r3, r3
 293 00c0 03F00103 		and	r3, r3, #1
 294 00c4 002B     		cmp	r3, #0
 295 00c6 F8D1     		bne	.L10
 590:.\Generated_Source\PSoC5/cyfitter_cfg.c **** 	while(0u != (CY_GET_REG8((void CYXDATA *)CYREG_PHUB_CH1_BASIC_STATUS) & 0x01u)){}
 296              		.loc 1 590 0 is_stmt 1
 297 00c8 00BF     		nop
 298              	.L11:
 299              		.loc 1 590 0 is_stmt 0 discriminator 1
 300 00ca 284B     		ldr	r3, .L15+80
 301 00cc 1B78     		ldrb	r3, [r3]
 302 00ce DBB2     		uxtb	r3, r3
 303 00d0 03F00103 		and	r3, r3, #1
 304 00d4 002B     		cmp	r3, #0
 305 00d6 F8D1     		bne	.L11
 591:.\Generated_Source\PSoC5/cyfitter_cfg.c **** 	while(0u != (CY_GET_REG8((void CYXDATA *)CYREG_PHUB_CH2_BASIC_STATUS) & 0x01u)){}
 306              		.loc 1 591 0 is_stmt 1
 307 00d8 00BF     		nop
 308              	.L12:
 309              		.loc 1 591 0 is_stmt 0 discriminator 1
 310 00da 254B     		ldr	r3, .L15+84
 311 00dc 1B78     		ldrb	r3, [r3]
 312 00de DBB2     		uxtb	r3, r3
 313 00e0 03F00103 		and	r3, r3, #1
 314 00e4 002B     		cmp	r3, #0
 315 00e6 F8D1     		bne	.L12
 592:.\Generated_Source\PSoC5/cyfitter_cfg.c **** 	while(0u != (CY_GET_REG8((void CYXDATA *)CYREG_PHUB_CH5_BASIC_STATUS) & 0x01u)){}
 316              		.loc 1 592 0 is_stmt 1
 317 00e8 00BF     		nop
 318              	.L13:
ARM GAS  C:\Users\LUKASC~1\AppData\Local\Temp\ccg6ewFT.s 			page 17


 319              		.loc 1 592 0 is_stmt 0 discriminator 1
 320 00ea 224B     		ldr	r3, .L15+88
 321 00ec 1B78     		ldrb	r3, [r3]
 322 00ee DBB2     		uxtb	r3, r3
 323 00f0 03F00103 		and	r3, r3, #1
 324 00f4 002B     		cmp	r3, #0
 325 00f6 F8D1     		bne	.L13
 593:.\Generated_Source\PSoC5/cyfitter_cfg.c **** 	while(0u != (CY_GET_REG8((void CYXDATA *)CYREG_PHUB_CH6_BASIC_STATUS) & 0x01u)){}
 326              		.loc 1 593 0 is_stmt 1
 327 00f8 00BF     		nop
 328              	.L14:
 329              		.loc 1 593 0 is_stmt 0 discriminator 1
 330 00fa 1F4B     		ldr	r3, .L15+92
 331 00fc 1B78     		ldrb	r3, [r3]
 332 00fe DBB2     		uxtb	r3, r3
 333 0100 03F00103 		and	r3, r3, #1
 334 0104 002B     		cmp	r3, #0
 335 0106 F8D1     		bne	.L14
 594:.\Generated_Source\PSoC5/cyfitter_cfg.c **** 
 595:.\Generated_Source\PSoC5/cyfitter_cfg.c **** 
 596:.\Generated_Source\PSoC5/cyfitter_cfg.c **** 	CYCONFIGCPY((void CYFAR *)(CYREG_IDMUX_DRQ_CTL0), (const void CYFAR *)(BS_IDMUX_VAL), 6u);
 336              		.loc 1 596 0 is_stmt 1
 337 0108 1C48     		ldr	r0, .L15+96
 338 010a 4FF09041 		mov	r1, #1207959552
 339 010e 0622     		movs	r2, #6
 340 0110 FFF7FEFF 		bl	CYCONFIGCPY
 597:.\Generated_Source\PSoC5/cyfitter_cfg.c **** 
 598:.\Generated_Source\PSoC5/cyfitter_cfg.c **** }
 341              		.loc 1 598 0
 342 0114 0837     		adds	r7, r7, #8
 343              		.cfi_def_cfa_offset 8
 344 0116 BD46     		mov	sp, r7
 345              		.cfi_def_cfa_register 13
 346              		@ sp needed
 347 0118 80BD     		pop	{r7, pc}
 348              	.L16:
 349 011a 00BF     		.align	2
 350              	.L15:
 351 011c 00000000 		.word	DMA_ZERO_VAL.4848
 352 0120 00760040 		.word	1073772032
 353 0124 10700040 		.word	1073770512
 354 0128 19700040 		.word	1073770521
 355 012c 00780040 		.word	1073772544
 356 0130 02780040 		.word	1073772546
 357 0134 03780040 		.word	1073772547
 358 0138 04780040 		.word	1073772548
 359 013c 00000000 		.word	CFG_TD_LIST0.4849
 360 0140 06780040 		.word	1073772550
 361 0144 04760040 		.word	1073772036
 362 0148 06760040 		.word	1073772038
 363 014c 29700040 		.word	1073770537
 364 0150 39700040 		.word	1073770553
 365 0154 69700040 		.word	1073770601
 366 0158 79700040 		.word	1073770617
 367 015c 14700040 		.word	1073770516
 368 0160 0C780040 		.word	1073772556
 369 0164 00000000 		.word	CFG_TD_ADDR0.4850
ARM GAS  C:\Users\LUKASC~1\AppData\Local\Temp\ccg6ewFT.s 			page 18


 370 0168 18700040 		.word	1073770520
 371 016c 28700040 		.word	1073770536
 372 0170 38700040 		.word	1073770552
 373 0174 68700040 		.word	1073770600
 374 0178 78700040 		.word	1073770616
 375 017c 10510140 		.word	1073828112
 376              		.cfi_endproc
 377              	.LFE4:
 378              		.size	cfg_dma_init, .-cfg_dma_init
 379              		.section	.text.ClockSetup,"ax",%progbits
 380              		.align	2
 381              		.thumb
 382              		.thumb_func
 383              		.type	ClockSetup, %function
 384              	ClockSetup:
 385              	.LFB5:
 599:.\Generated_Source\PSoC5/cyfitter_cfg.c **** /*******************************************************************************
 600:.\Generated_Source\PSoC5/cyfitter_cfg.c **** * Function Name: ClockSetup
 601:.\Generated_Source\PSoC5/cyfitter_cfg.c **** ********************************************************************************
 602:.\Generated_Source\PSoC5/cyfitter_cfg.c **** *
 603:.\Generated_Source\PSoC5/cyfitter_cfg.c **** * Summary:
 604:.\Generated_Source\PSoC5/cyfitter_cfg.c **** *  Performs the initialization of all of the clocks in the device based on the
 605:.\Generated_Source\PSoC5/cyfitter_cfg.c **** *  settings in the Clock tab of the DWR.  This includes enabling the requested
 606:.\Generated_Source\PSoC5/cyfitter_cfg.c **** *  clocks and setting the necessary dividers to produce the desired frequency. 
 607:.\Generated_Source\PSoC5/cyfitter_cfg.c **** *
 608:.\Generated_Source\PSoC5/cyfitter_cfg.c **** * Parameters:
 609:.\Generated_Source\PSoC5/cyfitter_cfg.c **** *  void
 610:.\Generated_Source\PSoC5/cyfitter_cfg.c **** *
 611:.\Generated_Source\PSoC5/cyfitter_cfg.c **** * Return:
 612:.\Generated_Source\PSoC5/cyfitter_cfg.c **** *  void
 613:.\Generated_Source\PSoC5/cyfitter_cfg.c **** *
 614:.\Generated_Source\PSoC5/cyfitter_cfg.c **** *******************************************************************************/
 615:.\Generated_Source\PSoC5/cyfitter_cfg.c **** static void ClockSetup(void);
 616:.\Generated_Source\PSoC5/cyfitter_cfg.c **** static void ClockSetup(void)
 617:.\Generated_Source\PSoC5/cyfitter_cfg.c **** {
 386              		.loc 1 617 0
 387              		.cfi_startproc
 388              		@ args = 0, pretend = 0, frame = 8
 389              		@ frame_needed = 1, uses_anonymous_args = 0
 390 0000 80B5     		push	{r7, lr}
 391              		.cfi_def_cfa_offset 8
 392              		.cfi_offset 7, -8
 393              		.cfi_offset 14, -4
 394 0002 82B0     		sub	sp, sp, #8
 395              		.cfi_def_cfa_offset 16
 396 0004 00AF     		add	r7, sp, #0
 397              		.cfi_def_cfa_register 7
 618:.\Generated_Source\PSoC5/cyfitter_cfg.c **** 	uint32 timeout;
 619:.\Generated_Source\PSoC5/cyfitter_cfg.c **** 	uint8 pllLock;
 620:.\Generated_Source\PSoC5/cyfitter_cfg.c **** 
 621:.\Generated_Source\PSoC5/cyfitter_cfg.c **** 
 622:.\Generated_Source\PSoC5/cyfitter_cfg.c **** 	/* Configure Digital Clocks based on settings from Clock DWR */
 623:.\Generated_Source\PSoC5/cyfitter_cfg.c **** 	CY_SET_XTND_REG16((void CYFAR *)(CYREG_CLKDIST_DCFG0_CFG0), 0x0004u);
 398              		.loc 1 623 0
 399 0006 394B     		ldr	r3, .L22
 400 0008 0422     		movs	r2, #4
 401 000a 1A80     		strh	r2, [r3]	@ movhi
ARM GAS  C:\Users\LUKASC~1\AppData\Local\Temp\ccg6ewFT.s 			page 19


 624:.\Generated_Source\PSoC5/cyfitter_cfg.c **** 	CY_SET_XTND_REG8((void CYFAR *)(CYREG_CLKDIST_DCFG0_CFG0 + 0x2u), 0x1Cu);
 402              		.loc 1 624 0
 403 000c 384B     		ldr	r3, .L22+4
 404 000e 1C22     		movs	r2, #28
 405 0010 1A70     		strb	r2, [r3]
 625:.\Generated_Source\PSoC5/cyfitter_cfg.c **** 	CY_SET_XTND_REG16((void CYFAR *)(CYREG_CLKDIST_DCFG1_CFG0), 0x0020u);
 406              		.loc 1 625 0
 407 0012 384B     		ldr	r3, .L22+8
 408 0014 2022     		movs	r2, #32
 409 0016 1A80     		strh	r2, [r3]	@ movhi
 626:.\Generated_Source\PSoC5/cyfitter_cfg.c **** 	CY_SET_XTND_REG8((void CYFAR *)(CYREG_CLKDIST_DCFG1_CFG0 + 0x2u), 0x19u);
 410              		.loc 1 626 0
 411 0018 374B     		ldr	r3, .L22+12
 412 001a 1922     		movs	r2, #25
 413 001c 1A70     		strb	r2, [r3]
 627:.\Generated_Source\PSoC5/cyfitter_cfg.c **** 	CY_SET_XTND_REG16((void CYFAR *)(CYREG_CLKDIST_DCFG2_CFG0), 0x0041u);
 414              		.loc 1 627 0
 415 001e 374B     		ldr	r3, .L22+16
 416 0020 4122     		movs	r2, #65
 417 0022 1A80     		strh	r2, [r3]	@ movhi
 628:.\Generated_Source\PSoC5/cyfitter_cfg.c **** 	CY_SET_XTND_REG8((void CYFAR *)(CYREG_CLKDIST_DCFG2_CFG0 + 0x2u), 0x18u);
 418              		.loc 1 628 0
 419 0024 364B     		ldr	r3, .L22+20
 420 0026 1822     		movs	r2, #24
 421 0028 1A70     		strb	r2, [r3]
 629:.\Generated_Source\PSoC5/cyfitter_cfg.c **** 	CY_SET_XTND_REG16((void CYFAR *)(CYREG_CLKDIST_DCFG3_CFG0), 0xBB7Fu);
 422              		.loc 1 629 0
 423 002a 364B     		ldr	r3, .L22+24
 424 002c 4BF67F32 		movw	r2, #47999
 425 0030 1A80     		strh	r2, [r3]	@ movhi
 630:.\Generated_Source\PSoC5/cyfitter_cfg.c **** 	CY_SET_XTND_REG8((void CYFAR *)(CYREG_CLKDIST_DCFG3_CFG0 + 0x2u), 0x19u);
 426              		.loc 1 630 0
 427 0032 354B     		ldr	r3, .L22+28
 428 0034 1922     		movs	r2, #25
 429 0036 1A70     		strb	r2, [r3]
 631:.\Generated_Source\PSoC5/cyfitter_cfg.c **** 
 632:.\Generated_Source\PSoC5/cyfitter_cfg.c **** 	/* Configure ILO based on settings from Clock DWR */
 633:.\Generated_Source\PSoC5/cyfitter_cfg.c **** 	CY_SET_XTND_REG8((void CYFAR *)(CYREG_SLOWCLK_ILO_CR0), 0x06u);
 430              		.loc 1 633 0
 431 0038 344B     		ldr	r3, .L22+32
 432 003a 0622     		movs	r2, #6
 433 003c 1A70     		strb	r2, [r3]
 634:.\Generated_Source\PSoC5/cyfitter_cfg.c **** 
 635:.\Generated_Source\PSoC5/cyfitter_cfg.c **** 	/* Configure IMO based on settings from Clock DWR */
 636:.\Generated_Source\PSoC5/cyfitter_cfg.c **** 	CY_SET_XTND_REG8((void CYFAR *)(CYREG_FASTCLK_IMO_CR), 0x52u);
 434              		.loc 1 636 0
 435 003e 344B     		ldr	r3, .L22+36
 436 0040 5222     		movs	r2, #82
 437 0042 1A70     		strb	r2, [r3]
 637:.\Generated_Source\PSoC5/cyfitter_cfg.c **** 	CY_SET_XTND_REG8((void CYFAR *)(CYREG_IMO_TR1), (CY_GET_XTND_REG8((void CYFAR *)CYREG_FLSHID_CUST_
 438              		.loc 1 637 0
 439 0044 334B     		ldr	r3, .L22+40
 440 0046 344A     		ldr	r2, .L22+44
 441 0048 1278     		ldrb	r2, [r2]
 442 004a D2B2     		uxtb	r2, r2
 443 004c 1A70     		strb	r2, [r3]
 638:.\Generated_Source\PSoC5/cyfitter_cfg.c **** 
ARM GAS  C:\Users\LUKASC~1\AppData\Local\Temp\ccg6ewFT.s 			page 20


 639:.\Generated_Source\PSoC5/cyfitter_cfg.c **** 	/* Configure PLL based on settings from Clock DWR */
 640:.\Generated_Source\PSoC5/cyfitter_cfg.c **** 	CY_SET_XTND_REG16((void CYFAR *)(CYREG_FASTCLK_PLL_P), 0x070Bu);
 444              		.loc 1 640 0
 445 004e 334B     		ldr	r3, .L22+48
 446 0050 40F20B72 		movw	r2, #1803
 447 0054 1A80     		strh	r2, [r3]	@ movhi
 641:.\Generated_Source\PSoC5/cyfitter_cfg.c **** 	CY_SET_XTND_REG16((void CYFAR *)(CYREG_FASTCLK_PLL_CFG0), 0x1251u);
 448              		.loc 1 641 0
 449 0056 324B     		ldr	r3, .L22+52
 450 0058 41F25122 		movw	r2, #4689
 451 005c 1A80     		strh	r2, [r3]	@ movhi
 642:.\Generated_Source\PSoC5/cyfitter_cfg.c **** 	/* Wait up to 250us for the PLL to lock */
 643:.\Generated_Source\PSoC5/cyfitter_cfg.c **** 	pllLock = 0u;
 452              		.loc 1 643 0
 453 005e 0023     		movs	r3, #0
 454 0060 FB70     		strb	r3, [r7, #3]
 644:.\Generated_Source\PSoC5/cyfitter_cfg.c **** 	for (timeout = 250u / 10u; (timeout > 0u) && (pllLock != 0x03u); timeout--)
 455              		.loc 1 644 0
 456 0062 1923     		movs	r3, #25
 457 0064 7B60     		str	r3, [r7, #4]
 458 0066 14E0     		b	.L18
 459              	.L20:
 645:.\Generated_Source\PSoC5/cyfitter_cfg.c **** 	{ 
 646:.\Generated_Source\PSoC5/cyfitter_cfg.c **** 		pllLock = 0x03u & ((uint8)((uint8)pllLock << 1) | ((CY_GET_XTND_REG8((void CYFAR *)CYREG_FASTCLK_
 460              		.loc 1 646 0 discriminator 4
 461 0068 FB78     		ldrb	r3, [r7, #3]
 462 006a 5B00     		lsls	r3, r3, #1
 463 006c DAB2     		uxtb	r2, r3
 464 006e 2D4B     		ldr	r3, .L22+56
 465 0070 1B78     		ldrb	r3, [r3]
 466 0072 DBB2     		uxtb	r3, r3
 467 0074 03F00103 		and	r3, r3, #1
 468 0078 DBB2     		uxtb	r3, r3
 469 007a 1343     		orrs	r3, r3, r2
 470 007c DBB2     		uxtb	r3, r3
 471 007e 03F00303 		and	r3, r3, #3
 472 0082 FB70     		strb	r3, [r7, #3]
 647:.\Generated_Source\PSoC5/cyfitter_cfg.c **** 		CyDelayCycles(10u * 48u); /* Delay 10us based on 48MHz clock */
 473              		.loc 1 647 0 discriminator 4
 474 0084 4FF4F070 		mov	r0, #480
 475 0088 FFF7FEFF 		bl	CyDelayCycles
 644:.\Generated_Source\PSoC5/cyfitter_cfg.c **** 	for (timeout = 250u / 10u; (timeout > 0u) && (pllLock != 0x03u); timeout--)
 476              		.loc 1 644 0 discriminator 4
 477 008c 7B68     		ldr	r3, [r7, #4]
 478 008e 013B     		subs	r3, r3, #1
 479 0090 7B60     		str	r3, [r7, #4]
 480              	.L18:
 644:.\Generated_Source\PSoC5/cyfitter_cfg.c **** 	for (timeout = 250u / 10u; (timeout > 0u) && (pllLock != 0x03u); timeout--)
 481              		.loc 1 644 0 is_stmt 0 discriminator 1
 482 0092 7B68     		ldr	r3, [r7, #4]
 483 0094 002B     		cmp	r3, #0
 484 0096 02D0     		beq	.L19
 644:.\Generated_Source\PSoC5/cyfitter_cfg.c **** 	for (timeout = 250u / 10u; (timeout > 0u) && (pllLock != 0x03u); timeout--)
 485              		.loc 1 644 0 discriminator 3
 486 0098 FB78     		ldrb	r3, [r7, #3]	@ zero_extendqisi2
 487 009a 032B     		cmp	r3, #3
 488 009c E4D1     		bne	.L20
ARM GAS  C:\Users\LUKASC~1\AppData\Local\Temp\ccg6ewFT.s 			page 21


 489              	.L19:
 648:.\Generated_Source\PSoC5/cyfitter_cfg.c **** 	}
 649:.\Generated_Source\PSoC5/cyfitter_cfg.c **** 	/* If we ran out of time the PLL didn't lock so go to the error function */
 650:.\Generated_Source\PSoC5/cyfitter_cfg.c **** 	if (timeout == 0u)
 490              		.loc 1 650 0 is_stmt 1
 491 009e 7B68     		ldr	r3, [r7, #4]
 492 00a0 002B     		cmp	r3, #0
 493 00a2 02D1     		bne	.L21
 651:.\Generated_Source\PSoC5/cyfitter_cfg.c **** 	{
 652:.\Generated_Source\PSoC5/cyfitter_cfg.c **** 		CyClockStartupError(CYCLOCKSTART_PLL_ERROR);
 494              		.loc 1 652 0
 495 00a4 0320     		movs	r0, #3
 496 00a6 FFF7FEFF 		bl	CyClockStartupError
 497              	.L21:
 653:.\Generated_Source\PSoC5/cyfitter_cfg.c **** 	}
 654:.\Generated_Source\PSoC5/cyfitter_cfg.c **** 
 655:.\Generated_Source\PSoC5/cyfitter_cfg.c **** 	/* Configure Bus/Master Clock based on settings from Clock DWR */
 656:.\Generated_Source\PSoC5/cyfitter_cfg.c **** 	CY_SET_XTND_REG16((void CYFAR *)(CYREG_CLKDIST_MSTR0), 0x0100u);
 498              		.loc 1 656 0
 499 00aa 1F4B     		ldr	r3, .L22+60
 500 00ac 4FF48072 		mov	r2, #256
 501 00b0 1A80     		strh	r2, [r3]	@ movhi
 657:.\Generated_Source\PSoC5/cyfitter_cfg.c **** 	CY_SET_XTND_REG8((void CYFAR *)(CYREG_CLKDIST_MSTR0), 0x07u);
 502              		.loc 1 657 0
 503 00b2 1D4B     		ldr	r3, .L22+60
 504 00b4 0722     		movs	r2, #7
 505 00b6 1A70     		strb	r2, [r3]
 658:.\Generated_Source\PSoC5/cyfitter_cfg.c **** 	CY_SET_XTND_REG8((void CYFAR *)(CYREG_CLKDIST_BCFG0), 0x00u);
 506              		.loc 1 658 0
 507 00b8 1C4B     		ldr	r3, .L22+64
 508 00ba 0022     		movs	r2, #0
 509 00bc 1A70     		strb	r2, [r3]
 659:.\Generated_Source\PSoC5/cyfitter_cfg.c **** 	CY_SET_XTND_REG8((void CYFAR *)(CYREG_CLKDIST_BCFG2), 0x48u);
 510              		.loc 1 659 0
 511 00be 1C4B     		ldr	r3, .L22+68
 512 00c0 4822     		movs	r2, #72
 513 00c2 1A70     		strb	r2, [r3]
 660:.\Generated_Source\PSoC5/cyfitter_cfg.c **** 	CY_SET_XTND_REG8((void CYFAR *)(CYREG_CLKDIST_MSTR0), 0x00u);
 514              		.loc 1 660 0
 515 00c4 184B     		ldr	r3, .L22+60
 516 00c6 0022     		movs	r2, #0
 517 00c8 1A70     		strb	r2, [r3]
 661:.\Generated_Source\PSoC5/cyfitter_cfg.c **** 
 662:.\Generated_Source\PSoC5/cyfitter_cfg.c **** 	/* Configure USB Clock based on settings from Clock DWR */
 663:.\Generated_Source\PSoC5/cyfitter_cfg.c **** 	CY_SET_XTND_REG8((void CYFAR *)(CYREG_CLKDIST_UCFG), 0x00u);
 518              		.loc 1 663 0
 519 00ca 1A4B     		ldr	r3, .L22+72
 520 00cc 0022     		movs	r2, #0
 521 00ce 1A70     		strb	r2, [r3]
 664:.\Generated_Source\PSoC5/cyfitter_cfg.c **** 	CY_SET_XTND_REG8((void CYFAR *)(CYREG_CLKDIST_LD), 0x02u);
 522              		.loc 1 664 0
 523 00d0 194B     		ldr	r3, .L22+76
 524 00d2 0222     		movs	r2, #2
 525 00d4 1A70     		strb	r2, [r3]
 665:.\Generated_Source\PSoC5/cyfitter_cfg.c **** 
 666:.\Generated_Source\PSoC5/cyfitter_cfg.c **** 	CY_SET_XTND_REG8((void CYFAR *)(CYREG_PM_ACT_CFG2), ((CY_GET_XTND_REG8((void CYFAR *)CYREG_PM_ACT_
 526              		.loc 1 666 0
ARM GAS  C:\Users\LUKASC~1\AppData\Local\Temp\ccg6ewFT.s 			page 22


 527 00d6 194A     		ldr	r2, .L22+80
 528 00d8 184B     		ldr	r3, .L22+80
 529 00da 1B78     		ldrb	r3, [r3]
 530 00dc DBB2     		uxtb	r3, r3
 531 00de 43F00F03 		orr	r3, r3, #15
 532 00e2 DBB2     		uxtb	r3, r3
 533 00e4 1370     		strb	r3, [r2]
 667:.\Generated_Source\PSoC5/cyfitter_cfg.c **** }
 534              		.loc 1 667 0
 535 00e6 0837     		adds	r7, r7, #8
 536              		.cfi_def_cfa_offset 8
 537 00e8 BD46     		mov	sp, r7
 538              		.cfi_def_cfa_register 13
 539              		@ sp needed
 540 00ea 80BD     		pop	{r7, pc}
 541              	.L23:
 542              		.align	2
 543              	.L22:
 544 00ec 80400040 		.word	1073758336
 545 00f0 82400040 		.word	1073758338
 546 00f4 84400040 		.word	1073758340
 547 00f8 86400040 		.word	1073758342
 548 00fc 88400040 		.word	1073758344
 549 0100 8A400040 		.word	1073758346
 550 0104 8C400040 		.word	1073758348
 551 0108 8E400040 		.word	1073758350
 552 010c 00430040 		.word	1073758976
 553 0110 00420040 		.word	1073758720
 554 0114 A1460040 		.word	1073759905
 555 0118 0F010049 		.word	1224737039
 556 011c 22420040 		.word	1073758754
 557 0120 20420040 		.word	1073758752
 558 0124 25420040 		.word	1073758757
 559 0128 04400040 		.word	1073758212
 560 012c 06400040 		.word	1073758214
 561 0130 08400040 		.word	1073758216
 562 0134 09400040 		.word	1073758217
 563 0138 01400040 		.word	1073758209
 564 013c A2430040 		.word	1073759138
 565              		.cfi_endproc
 566              	.LFE5:
 567              		.size	ClockSetup, .-ClockSetup
 568              		.section	.text.AnalogSetDefault,"ax",%progbits
 569              		.align	2
 570              		.thumb
 571              		.thumb_func
 572              		.type	AnalogSetDefault, %function
 573              	AnalogSetDefault:
 574              	.LFB6:
 668:.\Generated_Source\PSoC5/cyfitter_cfg.c **** 
 669:.\Generated_Source\PSoC5/cyfitter_cfg.c **** 
 670:.\Generated_Source\PSoC5/cyfitter_cfg.c **** /* Analog API Functions */
 671:.\Generated_Source\PSoC5/cyfitter_cfg.c **** 
 672:.\Generated_Source\PSoC5/cyfitter_cfg.c **** 
 673:.\Generated_Source\PSoC5/cyfitter_cfg.c **** /*******************************************************************************
 674:.\Generated_Source\PSoC5/cyfitter_cfg.c **** * Function Name: AnalogSetDefault
 675:.\Generated_Source\PSoC5/cyfitter_cfg.c **** ********************************************************************************
ARM GAS  C:\Users\LUKASC~1\AppData\Local\Temp\ccg6ewFT.s 			page 23


 676:.\Generated_Source\PSoC5/cyfitter_cfg.c **** *
 677:.\Generated_Source\PSoC5/cyfitter_cfg.c **** * Summary:
 678:.\Generated_Source\PSoC5/cyfitter_cfg.c **** *  Sets up the analog portions of the chip to default values based on chip
 679:.\Generated_Source\PSoC5/cyfitter_cfg.c **** *  configuration options from the project.
 680:.\Generated_Source\PSoC5/cyfitter_cfg.c **** *
 681:.\Generated_Source\PSoC5/cyfitter_cfg.c **** * Parameters:
 682:.\Generated_Source\PSoC5/cyfitter_cfg.c **** *  void
 683:.\Generated_Source\PSoC5/cyfitter_cfg.c **** *
 684:.\Generated_Source\PSoC5/cyfitter_cfg.c **** * Return:
 685:.\Generated_Source\PSoC5/cyfitter_cfg.c **** *  void
 686:.\Generated_Source\PSoC5/cyfitter_cfg.c **** *
 687:.\Generated_Source\PSoC5/cyfitter_cfg.c **** *******************************************************************************/
 688:.\Generated_Source\PSoC5/cyfitter_cfg.c **** static void AnalogSetDefault(void);
 689:.\Generated_Source\PSoC5/cyfitter_cfg.c **** static void AnalogSetDefault(void)
 690:.\Generated_Source\PSoC5/cyfitter_cfg.c **** {
 575              		.loc 1 690 0
 576              		.cfi_startproc
 577              		@ args = 0, pretend = 0, frame = 8
 578              		@ frame_needed = 1, uses_anonymous_args = 0
 579              		@ link register save eliminated.
 580 0000 80B4     		push	{r7}
 581              		.cfi_def_cfa_offset 4
 582              		.cfi_offset 7, -4
 583 0002 83B0     		sub	sp, sp, #12
 584              		.cfi_def_cfa_offset 16
 585 0004 00AF     		add	r7, sp, #0
 586              		.cfi_def_cfa_register 7
 691:.\Generated_Source\PSoC5/cyfitter_cfg.c **** 	uint8 bg_xover_inl_trim = CY_GET_XTND_REG8((void CYFAR *)(CYREG_FLSHID_MFG_CFG_BG_XOVER_INL_TRIM +
 587              		.loc 1 691 0
 588 0006 0B4B     		ldr	r3, .L25
 589 0008 1B78     		ldrb	r3, [r3]
 590 000a FB71     		strb	r3, [r7, #7]
 692:.\Generated_Source\PSoC5/cyfitter_cfg.c **** 	CY_SET_XTND_REG8((void CYFAR *)(CYREG_BG_DFT0), (bg_xover_inl_trim & 0x07u));
 591              		.loc 1 692 0
 592 000c 0A4A     		ldr	r2, .L25+4
 593 000e FB79     		ldrb	r3, [r7, #7]
 594 0010 03F00703 		and	r3, r3, #7
 595 0014 DBB2     		uxtb	r3, r3
 596 0016 1370     		strb	r3, [r2]
 693:.\Generated_Source\PSoC5/cyfitter_cfg.c **** 	CY_SET_XTND_REG8((void CYFAR *)(CYREG_BG_DFT1), ((bg_xover_inl_trim >> 4) & 0x0Fu));
 597              		.loc 1 693 0
 598 0018 084A     		ldr	r2, .L25+8
 599 001a FB79     		ldrb	r3, [r7, #7]	@ zero_extendqisi2
 600 001c 1B09     		lsrs	r3, r3, #4
 601 001e DBB2     		uxtb	r3, r3
 602 0020 1370     		strb	r3, [r2]
 694:.\Generated_Source\PSoC5/cyfitter_cfg.c **** 	CY_SET_XTND_REG8((void CYFAR *)CYREG_PUMP_CR0, 0x44u);
 603              		.loc 1 694 0
 604 0022 074B     		ldr	r3, .L25+12
 605 0024 4422     		movs	r2, #68
 606 0026 1A70     		strb	r2, [r3]
 695:.\Generated_Source\PSoC5/cyfitter_cfg.c **** }
 607              		.loc 1 695 0
 608 0028 0C37     		adds	r7, r7, #12
 609              		.cfi_def_cfa_offset 4
 610 002a BD46     		mov	sp, r7
 611              		.cfi_def_cfa_register 13
ARM GAS  C:\Users\LUKASC~1\AppData\Local\Temp\ccg6ewFT.s 			page 24


 612              		@ sp needed
 613 002c 5DF8047B 		ldr	r7, [sp], #4
 614              		.cfi_restore 7
 615              		.cfi_def_cfa_offset 0
 616 0030 7047     		bx	lr
 617              	.L26:
 618 0032 00BF     		.align	2
 619              	.L25:
 620 0034 CF010049 		.word	1224737231
 621 0038 6E580040 		.word	1073764462
 622 003c 6F580040 		.word	1073764463
 623 0040 76580040 		.word	1073764470
 624              		.cfi_endproc
 625              	.LFE6:
 626              		.size	AnalogSetDefault, .-AnalogSetDefault
 627              		.section	.text.SetAnalogRoutingPumps,"ax",%progbits
 628              		.align	2
 629              		.global	SetAnalogRoutingPumps
 630              		.thumb
 631              		.thumb_func
 632              		.type	SetAnalogRoutingPumps, %function
 633              	SetAnalogRoutingPumps:
 634              	.LFB7:
 696:.\Generated_Source\PSoC5/cyfitter_cfg.c **** 
 697:.\Generated_Source\PSoC5/cyfitter_cfg.c **** 
 698:.\Generated_Source\PSoC5/cyfitter_cfg.c **** /*******************************************************************************
 699:.\Generated_Source\PSoC5/cyfitter_cfg.c **** * Function Name: SetAnalogRoutingPumps
 700:.\Generated_Source\PSoC5/cyfitter_cfg.c **** ********************************************************************************
 701:.\Generated_Source\PSoC5/cyfitter_cfg.c **** *
 702:.\Generated_Source\PSoC5/cyfitter_cfg.c **** * Summary:
 703:.\Generated_Source\PSoC5/cyfitter_cfg.c **** * Enables or disables the analog pumps feeding analog routing switches.
 704:.\Generated_Source\PSoC5/cyfitter_cfg.c **** * Intended to be called at startup, based on the Vdda system configuration;
 705:.\Generated_Source\PSoC5/cyfitter_cfg.c **** * may be called during operation when the user informs us that the Vdda voltage
 706:.\Generated_Source\PSoC5/cyfitter_cfg.c **** * crossed the pump threshold.
 707:.\Generated_Source\PSoC5/cyfitter_cfg.c **** *
 708:.\Generated_Source\PSoC5/cyfitter_cfg.c **** * Parameters:
 709:.\Generated_Source\PSoC5/cyfitter_cfg.c **** *  enabled - 1 to enable the pumps, 0 to disable the pumps
 710:.\Generated_Source\PSoC5/cyfitter_cfg.c **** *
 711:.\Generated_Source\PSoC5/cyfitter_cfg.c **** * Return:
 712:.\Generated_Source\PSoC5/cyfitter_cfg.c **** *  void
 713:.\Generated_Source\PSoC5/cyfitter_cfg.c **** *
 714:.\Generated_Source\PSoC5/cyfitter_cfg.c **** *******************************************************************************/
 715:.\Generated_Source\PSoC5/cyfitter_cfg.c **** void SetAnalogRoutingPumps(uint8 enabled)
 716:.\Generated_Source\PSoC5/cyfitter_cfg.c **** {
 635              		.loc 1 716 0
 636              		.cfi_startproc
 637              		@ args = 0, pretend = 0, frame = 16
 638              		@ frame_needed = 1, uses_anonymous_args = 0
 639              		@ link register save eliminated.
 640 0000 80B4     		push	{r7}
 641              		.cfi_def_cfa_offset 4
 642              		.cfi_offset 7, -4
 643 0002 85B0     		sub	sp, sp, #20
 644              		.cfi_def_cfa_offset 24
 645 0004 00AF     		add	r7, sp, #0
 646              		.cfi_def_cfa_register 7
 647 0006 0346     		mov	r3, r0
ARM GAS  C:\Users\LUKASC~1\AppData\Local\Temp\ccg6ewFT.s 			page 25


 648 0008 FB71     		strb	r3, [r7, #7]
 717:.\Generated_Source\PSoC5/cyfitter_cfg.c **** 	uint8 regValue = CY_GET_XTND_REG8((void CYFAR *)CYREG_PUMP_CR0);
 649              		.loc 1 717 0
 650 000a 064B     		ldr	r3, .L30
 651 000c 1B78     		ldrb	r3, [r3]
 652 000e FB73     		strb	r3, [r7, #15]
 718:.\Generated_Source\PSoC5/cyfitter_cfg.c **** 	if (enabled != 0u)
 653              		.loc 1 718 0
 654 0010 FB79     		ldrb	r3, [r7, #7]	@ zero_extendqisi2
 655 0012 002B     		cmp	r3, #0
 719:.\Generated_Source\PSoC5/cyfitter_cfg.c **** 	{
 720:.\Generated_Source\PSoC5/cyfitter_cfg.c **** 		regValue |= 0x00u;
 721:.\Generated_Source\PSoC5/cyfitter_cfg.c **** 	}
 722:.\Generated_Source\PSoC5/cyfitter_cfg.c **** 	else
 723:.\Generated_Source\PSoC5/cyfitter_cfg.c **** 	{
 724:.\Generated_Source\PSoC5/cyfitter_cfg.c **** 		regValue &= (uint8)~0x00u;
 725:.\Generated_Source\PSoC5/cyfitter_cfg.c **** 	}
 726:.\Generated_Source\PSoC5/cyfitter_cfg.c **** 	CY_SET_XTND_REG8((void CYFAR *)CYREG_PUMP_CR0, regValue);
 656              		.loc 1 726 0
 657 0014 034A     		ldr	r2, .L30
 658 0016 FB7B     		ldrb	r3, [r7, #15]
 659 0018 1370     		strb	r3, [r2]
 727:.\Generated_Source\PSoC5/cyfitter_cfg.c **** }
 660              		.loc 1 727 0
 661 001a 1437     		adds	r7, r7, #20
 662              		.cfi_def_cfa_offset 4
 663 001c BD46     		mov	sp, r7
 664              		.cfi_def_cfa_register 13
 665              		@ sp needed
 666 001e 5DF8047B 		ldr	r7, [sp], #4
 667              		.cfi_restore 7
 668              		.cfi_def_cfa_offset 0
 669 0022 7047     		bx	lr
 670              	.L31:
 671              		.align	2
 672              	.L30:
 673 0024 76580040 		.word	1073764470
 674              		.cfi_endproc
 675              	.LFE7:
 676              		.size	SetAnalogRoutingPumps, .-SetAnalogRoutingPumps
 677              		.section	.text.cyfitter_cfg,"ax",%progbits
 678              		.align	2
 679              		.global	cyfitter_cfg
 680              		.thumb
 681              		.thumb_func
 682              		.type	cyfitter_cfg, %function
 683              	cyfitter_cfg:
 684              	.LFB8:
 728:.\Generated_Source\PSoC5/cyfitter_cfg.c **** 
 729:.\Generated_Source\PSoC5/cyfitter_cfg.c **** #define CY_AMUX_UNUSED CYREG_BOOST_SR
 730:.\Generated_Source\PSoC5/cyfitter_cfg.c **** 
 731:.\Generated_Source\PSoC5/cyfitter_cfg.c **** 
 732:.\Generated_Source\PSoC5/cyfitter_cfg.c **** /*******************************************************************************
 733:.\Generated_Source\PSoC5/cyfitter_cfg.c **** * Function Name: cyfitter_cfg
 734:.\Generated_Source\PSoC5/cyfitter_cfg.c **** ********************************************************************************
 735:.\Generated_Source\PSoC5/cyfitter_cfg.c **** * Summary:
 736:.\Generated_Source\PSoC5/cyfitter_cfg.c **** *  This function is called by the start-up code for the selected device. It
ARM GAS  C:\Users\LUKASC~1\AppData\Local\Temp\ccg6ewFT.s 			page 26


 737:.\Generated_Source\PSoC5/cyfitter_cfg.c **** *  performs all of the necessary device configuration based on the design
 738:.\Generated_Source\PSoC5/cyfitter_cfg.c **** *  settings.  This includes settings from the Design Wide Resources (DWR) such
 739:.\Generated_Source\PSoC5/cyfitter_cfg.c **** *  as Clocks and Pins as well as any component configuration that is necessary.
 740:.\Generated_Source\PSoC5/cyfitter_cfg.c **** *
 741:.\Generated_Source\PSoC5/cyfitter_cfg.c **** * Parameters:  
 742:.\Generated_Source\PSoC5/cyfitter_cfg.c **** *   void
 743:.\Generated_Source\PSoC5/cyfitter_cfg.c **** *
 744:.\Generated_Source\PSoC5/cyfitter_cfg.c **** * Return:
 745:.\Generated_Source\PSoC5/cyfitter_cfg.c **** *   void
 746:.\Generated_Source\PSoC5/cyfitter_cfg.c **** *
 747:.\Generated_Source\PSoC5/cyfitter_cfg.c **** *******************************************************************************/
 748:.\Generated_Source\PSoC5/cyfitter_cfg.c **** 
 749:.\Generated_Source\PSoC5/cyfitter_cfg.c **** void cyfitter_cfg(void)
 750:.\Generated_Source\PSoC5/cyfitter_cfg.c **** {
 685              		.loc 1 750 0
 686              		.cfi_startproc
 687              		@ args = 0, pretend = 0, frame = 0
 688              		@ frame_needed = 1, uses_anonymous_args = 0
 689 0000 80B5     		push	{r7, lr}
 690              		.cfi_def_cfa_offset 8
 691              		.cfi_offset 7, -8
 692              		.cfi_offset 14, -4
 693 0002 00AF     		add	r7, sp, #0
 694              		.cfi_def_cfa_register 7
 751:.\Generated_Source\PSoC5/cyfitter_cfg.c **** #ifdef CYGlobalIntDisable
 752:.\Generated_Source\PSoC5/cyfitter_cfg.c **** 	/* Disable interrupts by default. Let user enable if/when they want. */
 753:.\Generated_Source\PSoC5/cyfitter_cfg.c **** 	CYGlobalIntDisable
 695              		.loc 1 753 0
 696              	@ 753 ".\Generated_Source\PSoC5\cyfitter_cfg.c" 1
 697 0004 72B6     		CPSID   i
 698              	@ 0 "" 2
 754:.\Generated_Source\PSoC5/cyfitter_cfg.c **** #endif
 755:.\Generated_Source\PSoC5/cyfitter_cfg.c **** 
 756:.\Generated_Source\PSoC5/cyfitter_cfg.c **** 	/* Enable/Disable Debug functionality based on settings from System DWR */
 757:.\Generated_Source\PSoC5/cyfitter_cfg.c **** 	CY_SET_XTND_REG8((void CYFAR *)CYREG_MLOGIC_DEBUG, (CY_GET_XTND_REG8((void CYFAR *)CYREG_MLOGIC_DE
 699              		.loc 1 757 0
 700              		.thumb
 701 0006 2F4A     		ldr	r2, .L33
 702 0008 2E4B     		ldr	r3, .L33
 703 000a 1B78     		ldrb	r3, [r3]
 704 000c DBB2     		uxtb	r3, r3
 705 000e 43F00403 		orr	r3, r3, #4
 706 0012 DBB2     		uxtb	r3, r3
 707 0014 1370     		strb	r3, [r2]
 758:.\Generated_Source\PSoC5/cyfitter_cfg.c **** 
 759:.\Generated_Source\PSoC5/cyfitter_cfg.c **** 	{
 760:.\Generated_Source\PSoC5/cyfitter_cfg.c **** 		cfg_dma_init();
 708              		.loc 1 760 0
 709 0016 FFF7FEFF 		bl	cfg_dma_init
 761:.\Generated_Source\PSoC5/cyfitter_cfg.c **** 
 762:.\Generated_Source\PSoC5/cyfitter_cfg.c **** 		/* Perform normal device configuration. Order is not critical for these items. */
 763:.\Generated_Source\PSoC5/cyfitter_cfg.c **** 		CYMEMZERO((void CYFAR *)(CYREG_PHUB_CFGMEM0_CFG0), 4u);
 710              		.loc 1 763 0
 711 001a 2B48     		ldr	r0, .L33+4
 712 001c 0421     		movs	r1, #4
 713 001e FFF7FEFF 		bl	CYMEMZERO
 764:.\Generated_Source\PSoC5/cyfitter_cfg.c **** 
ARM GAS  C:\Users\LUKASC~1\AppData\Local\Temp\ccg6ewFT.s 			page 27


 765:.\Generated_Source\PSoC5/cyfitter_cfg.c **** 		/* Enable digital routing */
 766:.\Generated_Source\PSoC5/cyfitter_cfg.c **** 		CY_SET_XTND_REG8((void CYFAR *)CYREG_BCTL0_BANK_CTL, CY_GET_XTND_REG8((void CYFAR *)CYREG_BCTL0_B
 714              		.loc 1 766 0
 715 0022 2A4A     		ldr	r2, .L33+8
 716 0024 294B     		ldr	r3, .L33+8
 717 0026 1B78     		ldrb	r3, [r3]
 718 0028 DBB2     		uxtb	r3, r3
 719 002a 43F00203 		orr	r3, r3, #2
 720 002e DBB2     		uxtb	r3, r3
 721 0030 1370     		strb	r3, [r2]
 767:.\Generated_Source\PSoC5/cyfitter_cfg.c **** 		CY_SET_XTND_REG8((void CYFAR *)CYREG_BCTL1_BANK_CTL, CY_GET_XTND_REG8((void CYFAR *)CYREG_BCTL1_B
 722              		.loc 1 767 0
 723 0032 274A     		ldr	r2, .L33+12
 724 0034 264B     		ldr	r3, .L33+12
 725 0036 1B78     		ldrb	r3, [r3]
 726 0038 DBB2     		uxtb	r3, r3
 727 003a 43F00203 		orr	r3, r3, #2
 728 003e DBB2     		uxtb	r3, r3
 729 0040 1370     		strb	r3, [r2]
 768:.\Generated_Source\PSoC5/cyfitter_cfg.c **** 
 769:.\Generated_Source\PSoC5/cyfitter_cfg.c **** 		/* Enable UDB array */
 770:.\Generated_Source\PSoC5/cyfitter_cfg.c **** 		CY_SET_XTND_REG8((void CYFAR *)CYREG_PM_ACT_CFG0, CY_GET_XTND_REG8((void CYFAR *)CYREG_PM_ACT_CFG
 730              		.loc 1 770 0
 731 0042 244A     		ldr	r2, .L33+16
 732 0044 234B     		ldr	r3, .L33+16
 733 0046 1B78     		ldrb	r3, [r3]
 734 0048 DBB2     		uxtb	r3, r3
 735 004a 43F04003 		orr	r3, r3, #64
 736 004e DBB2     		uxtb	r3, r3
 737 0050 1370     		strb	r3, [r2]
 771:.\Generated_Source\PSoC5/cyfitter_cfg.c **** 		CY_SET_XTND_REG8((void CYFAR *)CYREG_PM_AVAIL_CR2, CY_GET_XTND_REG8((void CYFAR *)CYREG_PM_AVAIL_
 738              		.loc 1 771 0
 739 0052 214A     		ldr	r2, .L33+20
 740 0054 204B     		ldr	r3, .L33+20
 741 0056 1B78     		ldrb	r3, [r3]
 742 0058 DBB2     		uxtb	r3, r3
 743 005a 43F01003 		orr	r3, r3, #16
 744 005e DBB2     		uxtb	r3, r3
 745 0060 1370     		strb	r3, [r2]
 772:.\Generated_Source\PSoC5/cyfitter_cfg.c **** 	}
 773:.\Generated_Source\PSoC5/cyfitter_cfg.c **** 
 774:.\Generated_Source\PSoC5/cyfitter_cfg.c **** 
 775:.\Generated_Source\PSoC5/cyfitter_cfg.c **** 	/* Perform second pass device configuration. These items must be configured in specific order afte
 776:.\Generated_Source\PSoC5/cyfitter_cfg.c **** 	CYCONFIGCPY((void CYFAR *)(CYREG_PRT0_DM0), (const void CYFAR *)(BS_IOPINS0_0_VAL), 8u);
 746              		.loc 1 776 0
 747 0062 1E48     		ldr	r0, .L33+24
 748 0064 1E49     		ldr	r1, .L33+28
 749 0066 0822     		movs	r2, #8
 750 0068 FFF7FEFF 		bl	CYCONFIGCPY
 777:.\Generated_Source\PSoC5/cyfitter_cfg.c **** 	CYCONFIGCPY((void CYFAR *)(CYREG_PRT15_DR), (const void CYFAR *)(BS_IOPINS0_8_VAL), 10u);
 751              		.loc 1 777 0
 752 006c 1D48     		ldr	r0, .L33+32
 753 006e 1E49     		ldr	r1, .L33+36
 754 0070 0A22     		movs	r2, #10
 755 0072 FFF7FEFF 		bl	CYCONFIGCPY
 778:.\Generated_Source\PSoC5/cyfitter_cfg.c **** 	CYCONFIGCPY((void CYFAR *)(CYREG_PRT1_DM0), (const void CYFAR *)(BS_IOPINS0_1_VAL), 8u);
 756              		.loc 1 778 0
ARM GAS  C:\Users\LUKASC~1\AppData\Local\Temp\ccg6ewFT.s 			page 28


 757 0076 1D48     		ldr	r0, .L33+40
 758 0078 1D49     		ldr	r1, .L33+44
 759 007a 0822     		movs	r2, #8
 760 007c FFF7FEFF 		bl	CYCONFIGCPY
 779:.\Generated_Source\PSoC5/cyfitter_cfg.c **** 	CYCONFIGCPY((void CYFAR *)(CYREG_PRT2_DM0), (const void CYFAR *)(BS_IOPINS0_2_VAL), 8u);
 761              		.loc 1 779 0
 762 0080 1C48     		ldr	r0, .L33+48
 763 0082 1D49     		ldr	r1, .L33+52
 764 0084 0822     		movs	r2, #8
 765 0086 FFF7FEFF 		bl	CYCONFIGCPY
 780:.\Generated_Source\PSoC5/cyfitter_cfg.c **** 	CYCONFIGCPY((void CYFAR *)(CYREG_PRT3_DM0), (const void CYFAR *)(BS_IOPINS0_3_VAL), 8u);
 766              		.loc 1 780 0
 767 008a 1C48     		ldr	r0, .L33+56
 768 008c 1C49     		ldr	r1, .L33+60
 769 008e 0822     		movs	r2, #8
 770 0090 FFF7FEFF 		bl	CYCONFIGCPY
 781:.\Generated_Source\PSoC5/cyfitter_cfg.c **** 	/* Switch Boost to the precision bandgap reference from its internal reference */
 782:.\Generated_Source\PSoC5/cyfitter_cfg.c **** 	CY_SET_REG8((void CYXDATA *)CYREG_BOOST_CR2, (CY_GET_REG8((void CYXDATA *)CYREG_BOOST_CR2) | 0x08u
 771              		.loc 1 782 0
 772 0094 1B4A     		ldr	r2, .L33+64
 773 0096 1B4B     		ldr	r3, .L33+64
 774 0098 1B78     		ldrb	r3, [r3]
 775 009a DBB2     		uxtb	r3, r3
 776 009c 43F00803 		orr	r3, r3, #8
 777 00a0 DBB2     		uxtb	r3, r3
 778 00a2 1370     		strb	r3, [r2]
 783:.\Generated_Source\PSoC5/cyfitter_cfg.c **** 
 784:.\Generated_Source\PSoC5/cyfitter_cfg.c **** 	/* Set Flash Cycles based on max possible frequency in case a glitch occurs during ClockSetup(). *
 785:.\Generated_Source\PSoC5/cyfitter_cfg.c **** 	CY_SET_XTND_REG8((void CYFAR *)(CYREG_CACHE_CC_CTL), (((CYDEV_INSTRUCT_CACHE_ENABLED) != 0) ? 0x61
 779              		.loc 1 785 0
 780 00a4 184B     		ldr	r3, .L33+68
 781 00a6 6122     		movs	r2, #97
 782 00a8 1A70     		strb	r2, [r3]
 786:.\Generated_Source\PSoC5/cyfitter_cfg.c **** 	/* Setup clocks based on selections from Clock DWR */
 787:.\Generated_Source\PSoC5/cyfitter_cfg.c **** 	ClockSetup();
 783              		.loc 1 787 0
 784 00aa FFF7FEFF 		bl	ClockSetup
 788:.\Generated_Source\PSoC5/cyfitter_cfg.c **** 	/* Set Flash Cycles based on newly configured 33.00MHz Bus Clock. */
 789:.\Generated_Source\PSoC5/cyfitter_cfg.c **** 	CY_SET_XTND_REG8((void CYFAR *)(CYREG_CACHE_CC_CTL), (((CYDEV_INSTRUCT_CACHE_ENABLED) != 0) ? 0x81
 785              		.loc 1 789 0
 786 00ae 164B     		ldr	r3, .L33+68
 787 00b0 8122     		movs	r2, #129
 788 00b2 1A70     		strb	r2, [r3]
 790:.\Generated_Source\PSoC5/cyfitter_cfg.c **** 
 791:.\Generated_Source\PSoC5/cyfitter_cfg.c **** 	/* Perform basic analog initialization to defaults */
 792:.\Generated_Source\PSoC5/cyfitter_cfg.c **** 	AnalogSetDefault();
 789              		.loc 1 792 0
 790 00b4 FFF7FEFF 		bl	AnalogSetDefault
 793:.\Generated_Source\PSoC5/cyfitter_cfg.c **** 
 794:.\Generated_Source\PSoC5/cyfitter_cfg.c **** 	/* Configure alternate active mode */
 795:.\Generated_Source\PSoC5/cyfitter_cfg.c **** 	CYCONFIGCPY((void CYFAR *)CYDEV_PM_STBY_BASE, (const void CYFAR *)CYDEV_PM_ACT_BASE, 14u);
 791              		.loc 1 795 0
 792 00b8 1448     		ldr	r0, .L33+72
 793 00ba 0649     		ldr	r1, .L33+16
 794 00bc 0E22     		movs	r2, #14
 795 00be FFF7FEFF 		bl	CYCONFIGCPY
 796:.\Generated_Source\PSoC5/cyfitter_cfg.c **** }
ARM GAS  C:\Users\LUKASC~1\AppData\Local\Temp\ccg6ewFT.s 			page 29


 796              		.loc 1 796 0
 797 00c2 80BD     		pop	{r7, pc}
 798              	.L34:
 799              		.align	2
 800              	.L33:
 801 00c4 E8460040 		.word	1073759976
 802 00c8 00760040 		.word	1073772032
 803 00cc 03500140 		.word	1073827843
 804 00d0 13500140 		.word	1073827859
 805 00d4 A0430040 		.word	1073759136
 806 00d8 C2430040 		.word	1073759170
 807 00dc 02510040 		.word	1073762562
 808 00e0 98170048 		.word	1207965592
 809 00e4 F0510040 		.word	1073762800
 810 00e8 A0170048 		.word	1207965600
 811 00ec 12510040 		.word	1073762578
 812 00f0 AC170048 		.word	1207965612
 813 00f4 22510040 		.word	1073762594
 814 00f8 B4170048 		.word	1207965620
 815 00fc 32510040 		.word	1073762610
 816 0100 BC170048 		.word	1207965628
 817 0104 22430040 		.word	1073759010
 818 0108 00480040 		.word	1073760256
 819 010c B0430040 		.word	1073759152
 820              		.cfi_endproc
 821              	.LFE8:
 822              		.size	cyfitter_cfg, .-cyfitter_cfg
 823              		.bss
 824              		.align	3
 825              	DMA_ZERO_VAL.4848:
 826 0000 00000000 		.space	4
 827 0004 00000000 		.section	.dma_init,"a",%progbits
 828              		.align	2
 829              		.type	CFG_TD_LIST0.4849, %object
 830              		.size	CFG_TD_LIST0.4849, 608
 831              	CFG_TD_LIST0.4849:
 832 0000 0800     		.short	8
 833 0002 02       		.byte	2
 834 0003 23       		.byte	35
 835 0004 0000     		.short	0
 836 0006 0876     		.short	30216
 837 0008 0800     		.short	8
 838 000a 03       		.byte	3
 839 000b 23       		.byte	35
 840 000c 0000     		.short	0
 841 000e 1076     		.short	30224
 842 0010 0800     		.short	8
 843 0012 04       		.byte	4
 844 0013 23       		.byte	35
 845 0014 0000     		.short	0
 846 0016 2876     		.short	30248
 847 0018 0800     		.short	8
 848 001a 05       		.byte	5
 849 001b 23       		.byte	35
 850 001c 0000     		.short	0
 851 001e 3076     		.short	30256
 852 0020 0500     		.short	5
ARM GAS  C:\Users\LUKASC~1\AppData\Local\Temp\ccg6ewFT.s 			page 30


 853 0022 06       		.byte	6
 854 0023 23       		.byte	35
 855 0024 0000     		.short	0
 856 0026 2070     		.short	28704
 857 0028 0500     		.short	5
 858 002a 07       		.byte	7
 859 002b 23       		.byte	35
 860 002c 0000     		.short	0
 861 002e 3070     		.short	28720
 862 0030 0500     		.short	5
 863 0032 08       		.byte	8
 864 0033 23       		.byte	35
 865 0034 0000     		.short	0
 866 0036 6070     		.short	28768
 867 0038 0500     		.short	5
 868 003a FE       		.byte	-2
 869 003b 23       		.byte	35
 870 003c 0000     		.short	0
 871 003e 7070     		.short	28784
 872 0040 3000     		.short	48
 873 0042 0A       		.byte	10
 874 0043 22       		.byte	34
 875 0044 0000     		.short	0
 876 0046 4051     		.short	20800
 877 0048 1000     		.short	16
 878 004a FE       		.byte	-2
 879 004b 22       		.byte	34
 880 004c 0000     		.short	0
 881 004e C051     		.short	20928
 882 0050 8003     		.short	896
 883 0052 0C       		.byte	12
 884 0053 22       		.byte	34
 885 0054 0000     		.short	0
 886 0056 0008     		.short	2048
 887 0058 8003     		.short	896
 888 005a 0D       		.byte	13
 889 005b 22       		.byte	34
 890 005c 0000     		.short	0
 891 005e 000C     		.short	3072
 892 0060 8001     		.short	384
 893 0062 0E       		.byte	14
 894 0063 22       		.byte	34
 895 0064 0000     		.short	0
 896 0066 0018     		.short	6144
 897 0068 8001     		.short	384
 898 006a 0F       		.byte	15
 899 006b 22       		.byte	34
 900 006c 0000     		.short	0
 901 006e 001A     		.short	6656
 902 0070 8000     		.short	128
 903 0072 10       		.byte	16
 904 0073 22       		.byte	34
 905 0074 0000     		.short	0
 906 0076 0042     		.short	16896
 907 0078 8000     		.short	128
 908 007a 11       		.byte	17
 909 007b 22       		.byte	34
ARM GAS  C:\Users\LUKASC~1\AppData\Local\Temp\ccg6ewFT.s 			page 31


 910 007c 0000     		.short	0
 911 007e 0043     		.short	17152
 912 0080 8000     		.short	128
 913 0082 12       		.byte	18
 914 0083 22       		.byte	34
 915 0084 0000     		.short	0
 916 0086 0044     		.short	17408
 917 0088 8000     		.short	128
 918 008a 13       		.byte	19
 919 008b 22       		.byte	34
 920 008c 0000     		.short	0
 921 008e 0046     		.short	17920
 922 0090 8000     		.short	128
 923 0092 14       		.byte	20
 924 0093 22       		.byte	34
 925 0094 0000     		.short	0
 926 0096 0048     		.short	18432
 927 0098 8000     		.short	128
 928 009a FE       		.byte	-2
 929 009b 22       		.byte	34
 930 009c 0000     		.short	0
 931 009e 004D     		.short	19712
 932 00a0 0700     		.short	7
 933 00a2 16       		.byte	22
 934 00a3 23       		.byte	35
 935 00a4 0000     		.short	0
 936 00a6 0052     		.short	20992
 937 00a8 0700     		.short	7
 938 00aa 17       		.byte	23
 939 00ab 23       		.byte	35
 940 00ac 0000     		.short	0
 941 00ae 1052     		.short	21008
 942 00b0 0700     		.short	7
 943 00b2 18       		.byte	24
 944 00b3 23       		.byte	35
 945 00b4 0000     		.short	0
 946 00b6 1852     		.short	21016
 947 00b8 0700     		.short	7
 948 00ba 19       		.byte	25
 949 00bb 23       		.byte	35
 950 00bc 0000     		.short	0
 951 00be 7852     		.short	21112
 952 00c0 0800     		.short	8
 953 00c2 1A       		.byte	26
 954 00c3 23       		.byte	35
 955 00c4 0000     		.short	0
 956 00c6 7845     		.short	17784
 957 00c8 2000     		.short	32
 958 00ca 1B       		.byte	27
 959 00cb 23       		.byte	35
 960 00cc 0000     		.short	0
 961 00ce 7064     		.short	25712
 962 00d0 2000     		.short	32
 963 00d2 FE       		.byte	-2
 964 00d3 23       		.byte	35
 965 00d4 0000     		.short	0
 966 00d6 7065     		.short	25968
ARM GAS  C:\Users\LUKASC~1\AppData\Local\Temp\ccg6ewFT.s 			page 32


 967 00d8 0800     		.short	8
 968 00da 1D       		.byte	29
 969 00db 23       		.byte	35
 970 00dc 0000     		.short	0
 971 00de 0051     		.short	20736
 972 00e0 8000     		.short	128
 973 00e2 1E       		.byte	30
 974 00e3 23       		.byte	35
 975 00e4 0000     		.short	0
 976 00e6 0000     		.short	0
 977 00e8 8000     		.short	128
 978 00ea 1F       		.byte	31
 979 00eb 23       		.byte	35
 980 00ec 0000     		.short	0
 981 00ee 8000     		.short	128
 982 00f0 8000     		.short	128
 983 00f2 20       		.byte	32
 984 00f3 23       		.byte	35
 985 00f4 0000     		.short	0
 986 00f6 0002     		.short	512
 987 00f8 8000     		.short	128
 988 00fa 21       		.byte	33
 989 00fb 23       		.byte	35
 990 00fc 0000     		.short	0
 991 00fe 8002     		.short	640
 992 0100 8000     		.short	128
 993 0102 22       		.byte	34
 994 0103 23       		.byte	35
 995 0104 0000     		.short	0
 996 0106 0004     		.short	1024
 997 0108 8000     		.short	128
 998 010a 23       		.byte	35
 999 010b 23       		.byte	35
 1000 010c 0000     		.short	0
 1001 010e 8004     		.short	1152
 1002 0110 8000     		.short	128
 1003 0112 24       		.byte	36
 1004 0113 23       		.byte	35
 1005 0114 0000     		.short	0
 1006 0116 0006     		.short	1536
 1007 0118 8000     		.short	128
 1008 011a 25       		.byte	37
 1009 011b 23       		.byte	35
 1010 011c 0000     		.short	0
 1011 011e 8006     		.short	1664
 1012 0120 8000     		.short	128
 1013 0122 26       		.byte	38
 1014 0123 23       		.byte	35
 1015 0124 0000     		.short	0
 1016 0126 0014     		.short	5120
 1017 0128 8000     		.short	128
 1018 012a 27       		.byte	39
 1019 012b 23       		.byte	35
 1020 012c 0000     		.short	0
 1021 012e 8014     		.short	5248
 1022 0130 8000     		.short	128
 1023 0132 28       		.byte	40
ARM GAS  C:\Users\LUKASC~1\AppData\Local\Temp\ccg6ewFT.s 			page 33


 1024 0133 23       		.byte	35
 1025 0134 0000     		.short	0
 1026 0136 0016     		.short	5632
 1027 0138 8000     		.short	128
 1028 013a 29       		.byte	41
 1029 013b 23       		.byte	35
 1030 013c 0000     		.short	0
 1031 013e 8016     		.short	5760
 1032 0140 1000     		.short	16
 1033 0142 2A       		.byte	42
 1034 0143 23       		.byte	35
 1035 0144 0000     		.short	0
 1036 0146 1050     		.short	20496
 1037 0148 1000     		.short	16
 1038 014a 2B       		.byte	43
 1039 014b 23       		.byte	35
 1040 014c 0000     		.short	0
 1041 014e 0050     		.short	20480
 1042 0150 8000     		.short	128
 1043 0152 2C       		.byte	44
 1044 0153 23       		.byte	35
 1045 0154 0000     		.short	0
 1046 0156 804D     		.short	19840
 1047 0158 8000     		.short	128
 1048 015a 2D       		.byte	45
 1049 015b 23       		.byte	35
 1050 015c 0000     		.short	0
 1051 015e 004C     		.short	19456
 1052 0160 8000     		.short	128
 1053 0162 2E       		.byte	46
 1054 0163 23       		.byte	35
 1055 0164 0000     		.short	0
 1056 0166 804C     		.short	19584
 1057 0168 8000     		.short	128
 1058 016a 2F       		.byte	47
 1059 016b 23       		.byte	35
 1060 016c 0000     		.short	0
 1061 016e 0047     		.short	18176
 1062 0170 8000     		.short	128
 1063 0172 30       		.byte	48
 1064 0173 23       		.byte	35
 1065 0174 0000     		.short	0
 1066 0176 8047     		.short	18304
 1067 0178 8000     		.short	128
 1068 017a 31       		.byte	49
 1069 017b 23       		.byte	35
 1070 017c 0000     		.short	0
 1071 017e 8046     		.short	18048
 1072 0180 8000     		.short	128
 1073 0182 32       		.byte	50
 1074 0183 23       		.byte	35
 1075 0184 0000     		.short	0
 1076 0186 0045     		.short	17664
 1077 0188 8000     		.short	128
 1078 018a 33       		.byte	51
 1079 018b 23       		.byte	35
 1080 018c 0000     		.short	0
ARM GAS  C:\Users\LUKASC~1\AppData\Local\Temp\ccg6ewFT.s 			page 34


 1081 018e 8045     		.short	17792
 1082 0190 8000     		.short	128
 1083 0192 34       		.byte	52
 1084 0193 23       		.byte	35
 1085 0194 0000     		.short	0
 1086 0196 8044     		.short	17536
 1087 0198 8000     		.short	128
 1088 019a 35       		.byte	53
 1089 019b 23       		.byte	35
 1090 019c 0000     		.short	0
 1091 019e 801B     		.short	7040
 1092 01a0 8000     		.short	128
 1093 01a2 36       		.byte	54
 1094 01a3 23       		.byte	35
 1095 01a4 0000     		.short	0
 1096 01a6 0015     		.short	5376
 1097 01a8 8000     		.short	128
 1098 01aa 37       		.byte	55
 1099 01ab 23       		.byte	35
 1100 01ac 0000     		.short	0
 1101 01ae 8015     		.short	5504
 1102 01b0 8000     		.short	128
 1103 01b2 38       		.byte	56
 1104 01b3 23       		.byte	35
 1105 01b4 0000     		.short	0
 1106 01b6 8019     		.short	6528
 1107 01b8 8000     		.short	128
 1108 01ba 39       		.byte	57
 1109 01bb 23       		.byte	35
 1110 01bc 0000     		.short	0
 1111 01be 0017     		.short	5888
 1112 01c0 8000     		.short	128
 1113 01c2 3A       		.byte	58
 1114 01c3 23       		.byte	35
 1115 01c4 0000     		.short	0
 1116 01c6 8017     		.short	6016
 1117 01c8 8000     		.short	128
 1118 01ca 3B       		.byte	59
 1119 01cb 23       		.byte	35
 1120 01cc 0000     		.short	0
 1121 01ce 0007     		.short	1792
 1122 01d0 8000     		.short	128
 1123 01d2 3C       		.byte	60
 1124 01d3 23       		.byte	35
 1125 01d4 0000     		.short	0
 1126 01d6 8007     		.short	1920
 1127 01d8 8000     		.short	128
 1128 01da 3D       		.byte	61
 1129 01db 23       		.byte	35
 1130 01dc 0000     		.short	0
 1131 01de 800B     		.short	2944
 1132 01e0 8000     		.short	128
 1133 01e2 3E       		.byte	62
 1134 01e3 23       		.byte	35
 1135 01e4 0000     		.short	0
 1136 01e6 0005     		.short	1280
 1137 01e8 8000     		.short	128
ARM GAS  C:\Users\LUKASC~1\AppData\Local\Temp\ccg6ewFT.s 			page 35


 1138 01ea 3F       		.byte	63
 1139 01eb 23       		.byte	35
 1140 01ec 0000     		.short	0
 1141 01ee 8005     		.short	1408
 1142 01f0 8000     		.short	128
 1143 01f2 40       		.byte	64
 1144 01f3 23       		.byte	35
 1145 01f4 0000     		.short	0
 1146 01f6 0003     		.short	768
 1147 01f8 8000     		.short	128
 1148 01fa 41       		.byte	65
 1149 01fb 23       		.byte	35
 1150 01fc 0000     		.short	0
 1151 01fe 8003     		.short	896
 1152 0200 8000     		.short	128
 1153 0202 42       		.byte	66
 1154 0203 23       		.byte	35
 1155 0204 0000     		.short	0
 1156 0206 800F     		.short	3968
 1157 0208 8000     		.short	128
 1158 020a 43       		.byte	67
 1159 020b 23       		.byte	35
 1160 020c 0000     		.short	0
 1161 020e 0001     		.short	256
 1162 0210 8000     		.short	128
 1163 0212 44       		.byte	68
 1164 0213 23       		.byte	35
 1165 0214 0000     		.short	0
 1166 0216 8001     		.short	384
 1167 0218 8000     		.short	128
 1168 021a 45       		.byte	69
 1169 021b 23       		.byte	35
 1170 021c 0000     		.short	0
 1171 021e 0049     		.short	18688
 1172 0220 8000     		.short	128
 1173 0222 46       		.byte	70
 1174 0223 23       		.byte	35
 1175 0224 0000     		.short	0
 1176 0226 8049     		.short	18816
 1177 0228 8000     		.short	128
 1178 022a 47       		.byte	71
 1179 022b 23       		.byte	35
 1180 022c 0000     		.short	0
 1181 022e 8048     		.short	18560
 1182 0230 8000     		.short	128
 1183 0232 48       		.byte	72
 1184 0233 23       		.byte	35
 1185 0234 0000     		.short	0
 1186 0236 8043     		.short	17280
 1187 0238 8000     		.short	128
 1188 023a 49       		.byte	73
 1189 023b 23       		.byte	35
 1190 023c 0000     		.short	0
 1191 023e 8042     		.short	17024
 1192 0240 8000     		.short	128
 1193 0242 4A       		.byte	74
 1194 0243 23       		.byte	35
ARM GAS  C:\Users\LUKASC~1\AppData\Local\Temp\ccg6ewFT.s 			page 36


 1195 0244 0000     		.short	0
 1196 0246 0041     		.short	16640
 1197 0248 8000     		.short	128
 1198 024a 4B       		.byte	75
 1199 024b 23       		.byte	35
 1200 024c 0000     		.short	0
 1201 024e 8041     		.short	16768
 1202 0250 8000     		.short	128
 1203 0252 4C       		.byte	76
 1204 0253 23       		.byte	35
 1205 0254 0000     		.short	0
 1206 0256 0040     		.short	16384
 1207 0258 8000     		.short	128
 1208 025a FE       		.byte	-2
 1209 025b 23       		.byte	35
 1210 025c 0000     		.short	0
 1211 025e 8040     		.short	16512
 1212              		.section	.rodata
 1213              		.align	2
 1214              		.type	CFG_TD_ADDR0.4850, %object
 1215              		.size	CFG_TD_ADDR0.4850, 304
 1216              	CFG_TD_ADDR0.4850:
 1217 0000 80020000 		.word	CH1_ADDR_DATA0.4843
 1218 0004 78020000 		.word	CH2_ADDR_DATA0.4844
 1219 0008 70020000 		.word	CH5_ADDR_DATA0.4845
 1220 000c 68020000 		.word	CH6_ADDR_DATA0.4846
 1221 0010 60020000 		.word	DMA_TD_START_CMD.4847
 1222 0014 60020000 		.word	DMA_TD_START_CMD.4847
 1223 0018 60020000 		.word	DMA_TD_START_CMD.4847
 1224 001c 60020000 		.word	DMA_TD_START_CMD.4847
 1225 0020 00000000 		.word	DMA_ZERO_VAL.4848
 1226 0024 00000000 		.word	DMA_ZERO_VAL.4848
 1227 0028 00000000 		.word	DMA_ZERO_VAL.4848
 1228 002c 00000000 		.word	DMA_ZERO_VAL.4848
 1229 0030 00000000 		.word	DMA_ZERO_VAL.4848
 1230 0034 00000000 		.word	DMA_ZERO_VAL.4848
 1231 0038 00000000 		.word	DMA_ZERO_VAL.4848
 1232 003c 00000000 		.word	DMA_ZERO_VAL.4848
 1233 0040 00000000 		.word	DMA_ZERO_VAL.4848
 1234 0044 00000000 		.word	DMA_ZERO_VAL.4848
 1235 0048 00000000 		.word	DMA_ZERO_VAL.4848
 1236 004c 00000000 		.word	DMA_ZERO_VAL.4848
 1237 0050 08000048 		.word	1207959560
 1238 0054 10000048 		.word	1207959568
 1239 0058 18000048 		.word	1207959576
 1240 005c 20000048 		.word	1207959584
 1241 0060 28000048 		.word	1207959592
 1242 0064 38060048 		.word	1207961144
 1243 0068 58060048 		.word	1207961176
 1244 006c 30000048 		.word	1207959600
 1245 0070 38000048 		.word	1207959608
 1246 0074 B8000048 		.word	1207959736
 1247 0078 38010048 		.word	1207959864
 1248 007c B8010048 		.word	1207959992
 1249 0080 38020048 		.word	1207960120
 1250 0084 B8020048 		.word	1207960248
 1251 0088 38030048 		.word	1207960376
ARM GAS  C:\Users\LUKASC~1\AppData\Local\Temp\ccg6ewFT.s 			page 37


 1252 008c B8030048 		.word	1207960504
 1253 0090 38040048 		.word	1207960632
 1254 0094 B8040048 		.word	1207960760
 1255 0098 38050048 		.word	1207960888
 1256 009c B8050048 		.word	1207961016
 1257 00a0 78060048 		.word	1207961208
 1258 00a4 88060048 		.word	1207961224
 1259 00a8 98060048 		.word	1207961240
 1260 00ac 18070048 		.word	1207961368
 1261 00b0 98070048 		.word	1207961496
 1262 00b4 18080048 		.word	1207961624
 1263 00b8 98080048 		.word	1207961752
 1264 00bc 18090048 		.word	1207961880
 1265 00c0 98090048 		.word	1207962008
 1266 00c4 180A0048 		.word	1207962136
 1267 00c8 980A0048 		.word	1207962264
 1268 00cc 180B0048 		.word	1207962392
 1269 00d0 980B0048 		.word	1207962520
 1270 00d4 180C0048 		.word	1207962648
 1271 00d8 980C0048 		.word	1207962776
 1272 00dc 180D0048 		.word	1207962904
 1273 00e0 980D0048 		.word	1207963032
 1274 00e4 180E0048 		.word	1207963160
 1275 00e8 980E0048 		.word	1207963288
 1276 00ec 180F0048 		.word	1207963416
 1277 00f0 980F0048 		.word	1207963544
 1278 00f4 18100048 		.word	1207963672
 1279 00f8 98100048 		.word	1207963800
 1280 00fc 18110048 		.word	1207963928
 1281 0100 98110048 		.word	1207964056
 1282 0104 18120048 		.word	1207964184
 1283 0108 98120048 		.word	1207964312
 1284 010c 18130048 		.word	1207964440
 1285 0110 98130048 		.word	1207964568
 1286 0114 18140048 		.word	1207964696
 1287 0118 98140048 		.word	1207964824
 1288 011c 18150048 		.word	1207964952
 1289 0120 98150048 		.word	1207965080
 1290 0124 18160048 		.word	1207965208
 1291 0128 98160048 		.word	1207965336
 1292 012c 18170048 		.word	1207965464
 1293              		.section	.dma_init
 1294              		.align	2
 1295              		.type	DMA_TD_START_CMD.4847, %object
 1296              		.size	DMA_TD_START_CMD.4847, 5
 1297              	DMA_TD_START_CMD.4847:
 1298 0260 01       		.byte	1
 1299 0261 00       		.byte	0
 1300 0262 00       		.byte	0
 1301 0263 00       		.byte	0
 1302 0264 01       		.byte	1
 1303 0265 000000   		.align	2
 1304              		.type	CH6_ADDR_DATA0.4846, %object
 1305              		.size	CH6_ADDR_DATA0.4846, 8
 1306              	CH6_ADDR_DATA0.4846:
 1307 0268 01       		.byte	1
 1308 0269 00       		.byte	0
ARM GAS  C:\Users\LUKASC~1\AppData\Local\Temp\ccg6ewFT.s 			page 38


 1309 026a 00       		.byte	0
 1310 026b 00       		.byte	0
 1311 026c 00       		.byte	0
 1312 026d 48       		.byte	72
 1313 026e 01       		.byte	1
 1314 026f 40       		.byte	64
 1315              		.align	2
 1316              		.type	CH5_ADDR_DATA0.4845, %object
 1317              		.size	CH5_ADDR_DATA0.4845, 8
 1318              	CH5_ADDR_DATA0.4845:
 1319 0270 01       		.byte	1
 1320 0271 00       		.byte	0
 1321 0272 00       		.byte	0
 1322 0273 00       		.byte	0
 1323 0274 00       		.byte	0
 1324 0275 48       		.byte	72
 1325 0276 00       		.byte	0
 1326 0277 40       		.byte	64
 1327              		.align	2
 1328              		.type	CH2_ADDR_DATA0.4844, %object
 1329              		.size	CH2_ADDR_DATA0.4844, 8
 1330              	CH2_ADDR_DATA0.4844:
 1331 0278 01       		.byte	1
 1332 0279 00       		.byte	0
 1333 027a 00       		.byte	0
 1334 027b 00       		.byte	0
 1335 027c 00       		.byte	0
 1336 027d 20       		.byte	32
 1337 027e 01       		.byte	1
 1338 027f 40       		.byte	64
 1339              		.align	2
 1340              		.type	CH1_ADDR_DATA0.4843, %object
 1341              		.size	CH1_ADDR_DATA0.4843, 8
 1342              	CH1_ADDR_DATA0.4843:
 1343 0280 01       		.byte	1
 1344 0281 00       		.byte	0
 1345 0282 00       		.byte	0
 1346 0283 00       		.byte	0
 1347 0284 00       		.byte	0
 1348 0285 20       		.byte	32
 1349 0286 00       		.byte	0
 1350 0287 40       		.byte	64
 1351              		.text
 1352              	.Letext0:
 1353              		.file 2 "c:\\program files (x86)\\cypress\\psoc creator\\3.3\\psoc creator\\import\\gnu\\arm\\4.9.
 1354              		.file 3 ".\\Generated_Source\\PSoC5\\cytypes.h"