ARM GAS  C:\Users\LUKASC~1\AppData\Local\Temp\ccKPnYen.s 			page 1


   1              		.syntax unified
   2              		.cpu cortex-m3
   3              		.fpu softvfp
   4              		.eabi_attribute 20, 1
   5              		.eabi_attribute 21, 1
   6              		.eabi_attribute 23, 3
   7              		.eabi_attribute 24, 1
   8              		.eabi_attribute 25, 1
   9              		.eabi_attribute 26, 1
  10              		.eabi_attribute 30, 6
  11              		.eabi_attribute 34, 1
  12              		.eabi_attribute 18, 4
  13              		.thumb
  14              		.file	"dsp.c"
  15              		.text
  16              	.Ltext0:
  17              		.cfi_sections	.debug_frame
  18              		.global _printf_float
  19              		.thumb
  20              		.comm	wrBuffer,64,4
  21              		.comm	temp,1,1
  22              		.global _printf_float
  23              		.thumb
  24              		.global	program_ram
  25              		.data
  26              		.align	2
  27              		.type	program_ram, %object
  28              		.size	program_ram, 480
  29              	program_ram:
  30 0000 00       		.byte	0
  31 0001 00       		.byte	0
  32 0002 00       		.byte	0
  33 0003 02       		.byte	2
  34 0004 0C       		.byte	12
  35 0005 00       		.byte	0
  36 0006 DC       		.byte	-36
  37 0007 DC       		.byte	-36
  38 0008 0D       		.byte	13
  39 0009 00       		.byte	0
  40 000a FF       		.byte	-1
  41 000b D2       		.byte	-46
  42 000c 0D       		.byte	13
  43 000d 00       		.byte	0
  44 000e FF       		.byte	-1
  45 000f D0       		.byte	-48
  46 0010 0D       		.byte	13
  47 0011 00       		.byte	0
  48 0012 F4       		.byte	-12
  49 0013 50       		.byte	80
  50 0014 0D       		.byte	13
  51 0015 00       		.byte	0
  52 0016 F4       		.byte	-12
  53 0017 00       		.byte	0
  54 0018 C0       		.byte	-64
  55 0019 00       		.byte	0
  56 001a 23       		.byte	35
  57 001b 80       		.byte	-128
ARM GAS  C:\Users\LUKASC~1\AppData\Local\Temp\ccKPnYen.s 			page 2


  58 001c 80       		.byte	-128
  59 001d 00       		.byte	0
  60 001e 00       		.byte	0
  61 001f 00       		.byte	0
  62 0020 C0       		.byte	-64
  63 0021 00       		.byte	0
  64 0022 23       		.byte	35
  65 0023 00       		.byte	0
  66 0024 80       		.byte	-128
  67 0025 00       		.byte	0
  68 0026 00       		.byte	0
  69 0027 00       		.byte	0
  70 0028 C0       		.byte	-64
  71 0029 00       		.byte	0
  72 002a 23       		.byte	35
  73 002b C0       		.byte	-64
  74 002c 80       		.byte	-128
  75 002d 00       		.byte	0
  76 002e 00       		.byte	0
  77 002f 10       		.byte	16
  78 0030 C0       		.byte	-64
  79 0031 00       		.byte	0
  80 0032 22       		.byte	34
  81 0033 00       		.byte	0
  82 0034 80       		.byte	-128
  83 0035 00       		.byte	0
  84 0036 00       		.byte	0
  85 0037 00       		.byte	0
  86 0038 08       		.byte	8
  87 0039 80       		.byte	-128
  88 003a DC       		.byte	-36
  89 003b E0       		.byte	-32
  90 003c 0C       		.byte	12
  91 003d 00       		.byte	0
  92 003e DC       		.byte	-36
  93 003f DC       		.byte	-36
  94 0040 C0       		.byte	-64
  95 0041 00       		.byte	0
  96 0042 28       		.byte	40
  97 0043 30       		.byte	48
  98 0044 80       		.byte	-128
  99 0045 00       		.byte	0
 100 0046 00       		.byte	0
 101 0047 04       		.byte	4
 102 0048 C0       		.byte	-64
 103 0049 00       		.byte	0
 104 004a 30       		.byte	48
 105 004b 00       		.byte	0
 106 004c 80       		.byte	-128
 107 004d 00       		.byte	0
 108 004e 00       		.byte	0
 109 004f 00       		.byte	0
 110 0050 01       		.byte	1
 111 0051 00       		.byte	0
 112 0052 00       		.byte	0
 113 0053 16       		.byte	22
 114 0054 06       		.byte	6
ARM GAS  C:\Users\LUKASC~1\AppData\Local\Temp\ccKPnYen.s 			page 3


 115 0055 40       		.byte	64
 116 0056 50       		.byte	80
 117 0057 10       		.byte	16
 118 0058 C0       		.byte	-64
 119 0059 00       		.byte	0
 120 005a 20       		.byte	32
 121 005b 00       		.byte	0
 122 005c 80       		.byte	-128
 123 005d 00       		.byte	0
 124 005e 00       		.byte	0
 125 005f 29       		.byte	41
 126 0060 0D       		.byte	13
 127 0061 00       		.byte	0
 128 0062 FF       		.byte	-1
 129 0063 C1       		.byte	-63
 130 0064 C0       		.byte	-64
 131 0065 00       		.byte	0
 132 0066 20       		.byte	32
 133 0067 00       		.byte	0
 134 0068 80       		.byte	-128
 135 0069 00       		.byte	0
 136 006a 00       		.byte	0
 137 006b 01       		.byte	1
 138 006c 0D       		.byte	13
 139 006d 00       		.byte	0
 140 006e F4       		.byte	-12
 141 006f 62       		.byte	98
 142 0070 C0       		.byte	-64
 143 0071 00       		.byte	0
 144 0072 20       		.byte	32
 145 0073 00       		.byte	0
 146 0074 80       		.byte	-128
 147 0075 00       		.byte	0
 148 0076 00       		.byte	0
 149 0077 00       		.byte	0
 150 0078 0D       		.byte	13
 151 0079 00       		.byte	0
 152 007a F4       		.byte	-12
 153 007b 62       		.byte	98
 154 007c C0       		.byte	-64
 155 007d 00       		.byte	0
 156 007e 20       		.byte	32
 157 007f 00       		.byte	0
 158 0080 80       		.byte	-128
 159 0081 00       		.byte	0
 160 0082 00       		.byte	0
 161 0083 02       		.byte	2
 162 0084 0D       		.byte	13
 163 0085 00       		.byte	0
 164 0086 FF       		.byte	-1
 165 0087 D1       		.byte	-47
 166 0088 00       		.byte	0
 167 0089 00       		.byte	0
 168 008a 00       		.byte	0
 169 008b 03       		.byte	3
 170 008c 0D       		.byte	13
 171 008d 00       		.byte	0
ARM GAS  C:\Users\LUKASC~1\AppData\Local\Temp\ccKPnYen.s 			page 4


 172 008e FF       		.byte	-1
 173 008f D2       		.byte	-46
 174 0090 00       		.byte	0
 175 0091 00       		.byte	0
 176 0092 00       		.byte	0
 177 0093 05       		.byte	5
 178 0094 00       		.byte	0
 179 0095 00       		.byte	0
 180 0096 00       		.byte	0
 181 0097 00       		.byte	0
 182 0098 00       		.byte	0
 183 0099 00       		.byte	0
 184 009a 00       		.byte	0
 185 009b 00       		.byte	0
 186 009c 02       		.byte	2
 187 009d 01       		.byte	1
 188 009e 00       		.byte	0
 189 009f 24       		.byte	36
 190 00a0 00       		.byte	0
 191 00a1 00       		.byte	0
 192 00a2 00       		.byte	0
 193 00a3 00       		.byte	0
 194 00a4 00       		.byte	0
 195 00a5 00       		.byte	0
 196 00a6 00       		.byte	0
 197 00a7 00       		.byte	0
 198 00a8 08       		.byte	8
 199 00a9 9E       		.byte	-98
 200 00aa DC       		.byte	-36
 201 00ab E0       		.byte	-32
 202 00ac 08       		.byte	8
 203 00ad 9C       		.byte	-100
 204 00ae 00       		.byte	0
 205 00af 10       		.byte	16
 206 00b0 00       		.byte	0
 207 00b1 00       		.byte	0
 208 00b2 00       		.byte	0
 209 00b3 00       		.byte	0
 210 00b4 C0       		.byte	-64
 211 00b5 00       		.byte	0
 212 00b6 00       		.byte	0
 213 00b7 00       		.byte	0
 214 00b8 82       		.byte	-126
 215 00b9 4F       		.byte	79
 216 00ba 00       		.byte	0
 217 00bb 14       		.byte	20
 218 00bc 08       		.byte	8
 219 00bd 8A       		.byte	-118
 220 00be DC       		.byte	-36
 221 00bf E0       		.byte	-32
 222 00c0 0A       		.byte	10
 223 00c1 21       		.byte	33
 224 00c2 00       		.byte	0
 225 00c3 1A       		.byte	26
 226 00c4 00       		.byte	0
 227 00c5 8C       		.byte	-116
 228 00c6 20       		.byte	32
ARM GAS  C:\Users\LUKASC~1\AppData\Local\Temp\ccKPnYen.s 			page 5


 229 00c7 00       		.byte	0
 230 00c8 0A       		.byte	10
 231 00c9 A5       		.byte	-91
 232 00ca 00       		.byte	0
 233 00cb 19       		.byte	25
 234 00cc 02       		.byte	2
 235 00cd 09       		.byte	9
 236 00ce 00       		.byte	0
 237 00cf 40       		.byte	64
 238 00d0 C0       		.byte	-64
 239 00d1 00       		.byte	0
 240 00d2 28       		.byte	40
 241 00d3 70       		.byte	112
 242 00d4 80       		.byte	-128
 243 00d5 00       		.byte	0
 244 00d6 60       		.byte	96
 245 00d7 00       		.byte	0
 246 00d8 00       		.byte	0
 247 00d9 8C       		.byte	-116
 248 00da 11       		.byte	17
 249 00db 91       		.byte	-111
 250 00dc 00       		.byte	0
 251 00dd 00       		.byte	0
 252 00de 00       		.byte	0
 253 00df 23       		.byte	35
 254 00e0 00       		.byte	0
 255 00e1 00       		.byte	0
 256 00e2 00       		.byte	0
 257 00e3 00       		.byte	0
 258 00e4 30       		.byte	48
 259 00e5 00       		.byte	0
 260 00e6 BC       		.byte	-68
 261 00e7 E9       		.byte	-23
 262 00e8 00       		.byte	0
 263 00e9 00       		.byte	0
 264 00ea C2       		.byte	-62
 265 00eb F1       		.byte	-15
 266 00ec 01       		.byte	1
 267 00ed 00       		.byte	0
 268 00ee 00       		.byte	0
 269 00ef 3F       		.byte	63
 270 00f0 06       		.byte	6
 271 00f1 00       		.byte	0
 272 00f2 40       		.byte	64
 273 00f3 14       		.byte	20
 274 00f4 36       		.byte	54
 275 00f5 40       		.byte	64
 276 00f6 50       		.byte	80
 277 00f7 15       		.byte	21
 278 00f8 26       		.byte	38
 279 00f9 40       		.byte	64
 280 00fa 40       		.byte	64
 281 00fb 15       		.byte	21
 282 00fc 09       		.byte	9
 283 00fd 2A       		.byte	42
 284 00fe 00       		.byte	0
 285 00ff 1A       		.byte	26
ARM GAS  C:\Users\LUKASC~1\AppData\Local\Temp\ccKPnYen.s 			page 6


 286 0100 00       		.byte	0
 287 0101 00       		.byte	0
 288 0102 00       		.byte	0
 289 0103 00       		.byte	0
 290 0104 08       		.byte	8
 291 0105 90       		.byte	-112
 292 0106 00       		.byte	0
 293 0107 22       		.byte	34
 294 0108 0C       		.byte	12
 295 0109 70       		.byte	112
 296 010a 00       		.byte	0
 297 010b 1B       		.byte	27
 298 010c 0E       		.byte	14
 299 010d 3D       		.byte	61
 300 010e 00       		.byte	0
 301 010f 1E       		.byte	30
 302 0110 00       		.byte	0
 303 0111 F4       		.byte	-12
 304 0112 AE       		.byte	-82
 305 0113 0F       		.byte	15
 306 0114 0A       		.byte	10
 307 0115 25       		.byte	37
 308 0116 DC       		.byte	-36
 309 0117 DC       		.byte	-36
 310 0118 0A       		.byte	10
 311 0119 E1       		.byte	-31
 312 011a 00       		.byte	0
 313 011b 1C       		.byte	28
 314 011c 00       		.byte	0
 315 011d 00       		.byte	0
 316 011e DC       		.byte	-36
 317 011f 70       		.byte	112
 318 0120 00       		.byte	0
 319 0121 00       		.byte	0
 320 0122 A4       		.byte	-92
 321 0123 D8       		.byte	-40
 322 0124 00       		.byte	0
 323 0125 D6       		.byte	-42
 324 0126 21       		.byte	33
 325 0127 01       		.byte	1
 326 0128 00       		.byte	0
 327 0129 00       		.byte	0
 328 012a E0       		.byte	-32
 329 012b 29       		.byte	41
 330 012c 07       		.byte	7
 331 012d 05       		.byte	5
 332 012e 88       		.byte	-120
 333 012f 08       		.byte	8
 334 0130 00       		.byte	0
 335 0131 84       		.byte	-124
 336 0132 19       		.byte	25
 337 0133 B3       		.byte	-77
 338 0134 00       		.byte	0
 339 0135 04       		.byte	4
 340 0136 45       		.byte	69
 341 0137 90       		.byte	-112
 342 0138 00       		.byte	0
ARM GAS  C:\Users\LUKASC~1\AppData\Local\Temp\ccKPnYen.s 			page 7


 343 0139 44       		.byte	68
 344 013a 2C       		.byte	44
 345 013b 30       		.byte	48
 346 013c 00       		.byte	0
 347 013d 04       		.byte	4
 348 013e 49       		.byte	73
 349 013f 28       		.byte	40
 350 0140 00       		.byte	0
 351 0141 94       		.byte	-108
 352 0142 08       		.byte	8
 353 0143 87       		.byte	-121
 354 0144 0B       		.byte	11
 355 0145 E1       		.byte	-31
 356 0146 00       		.byte	0
 357 0147 1C       		.byte	28
 358 0148 05       		.byte	5
 359 0149 4D       		.byte	77
 360 014a 10       		.byte	16
 361 014b 0E       		.byte	14
 362 014c C0       		.byte	-64
 363 014d 00       		.byte	0
 364 014e 08       		.byte	8
 365 014f 0F       		.byte	15
 366 0150 8D       		.byte	-115
 367 0151 80       		.byte	-128
 368 0152 00       		.byte	0
 369 0153 27       		.byte	39
 370 0154 C0       		.byte	-64
 371 0155 00       		.byte	0
 372 0156 08       		.byte	8
 373 0157 0F       		.byte	15
 374 0158 8D       		.byte	-115
 375 0159 84       		.byte	-124
 376 015a 00       		.byte	0
 377 015b 26       		.byte	38
 378 015c C0       		.byte	-64
 379 015d 00       		.byte	0
 380 015e 08       		.byte	8
 381 015f 0F       		.byte	15
 382 0160 8D       		.byte	-115
 383 0161 94       		.byte	-108
 384 0162 00       		.byte	0
 385 0163 25       		.byte	37
 386 0164 06       		.byte	6
 387 0165 10       		.byte	16
 388 0166 10       		.byte	16
 389 0167 0E       		.byte	14
 390 0168 0C       		.byte	12
 391 0169 01       		.byte	1
 392 016a FD       		.byte	-3
 393 016b A0       		.byte	-96
 394 016c 00       		.byte	0
 395 016d 04       		.byte	4
 396 016e 00       		.byte	0
 397 016f 08       		.byte	8
 398 0170 0D       		.byte	13
 399 0171 00       		.byte	0
ARM GAS  C:\Users\LUKASC~1\AppData\Local\Temp\ccKPnYen.s 			page 8


 400 0172 00       		.byte	0
 401 0173 25       		.byte	37
 402 0174 05       		.byte	5
 403 0175 4C       		.byte	76
 404 0176 10       		.byte	16
 405 0177 1E       		.byte	30
 406 0178 06       		.byte	6
 407 0179 00       		.byte	0
 408 017a 10       		.byte	16
 409 017b 1E       		.byte	30
 410 017c 0D       		.byte	13
 411 017d 00       		.byte	0
 412 017e FC       		.byte	-4
 413 017f EE       		.byte	-18
 414 0180 06       		.byte	6
 415 0181 00       		.byte	0
 416 0182 10       		.byte	16
 417 0183 1E       		.byte	30
 418 0184 0D       		.byte	13
 419 0185 00       		.byte	0
 420 0186 FC       		.byte	-4
 421 0187 EF       		.byte	-17
 422 0188 06       		.byte	6
 423 0189 00       		.byte	0
 424 018a 10       		.byte	16
 425 018b 1E       		.byte	30
 426 018c 0D       		.byte	13
 427 018d 00       		.byte	0
 428 018e FC       		.byte	-4
 429 018f ED       		.byte	-19
 430 0190 06       		.byte	6
 431 0191 00       		.byte	0
 432 0192 10       		.byte	16
 433 0193 1E       		.byte	30
 434 0194 0D       		.byte	13
 435 0195 00       		.byte	0
 436 0196 FC       		.byte	-4
 437 0197 EC       		.byte	-20
 438 0198 06       		.byte	6
 439 0199 00       		.byte	0
 440 019a 10       		.byte	16
 441 019b 1E       		.byte	30
 442 019c 0D       		.byte	13
 443 019d 00       		.byte	0
 444 019e FC       		.byte	-4
 445 019f EB       		.byte	-21
 446 01a0 06       		.byte	6
 447 01a1 00       		.byte	0
 448 01a2 10       		.byte	16
 449 01a3 1E       		.byte	30
 450 01a4 0D       		.byte	13
 451 01a5 00       		.byte	0
 452 01a6 FC       		.byte	-4
 453 01a7 EA       		.byte	-22
 454 01a8 06       		.byte	6
 455 01a9 00       		.byte	0
 456 01aa 10       		.byte	16
ARM GAS  C:\Users\LUKASC~1\AppData\Local\Temp\ccKPnYen.s 			page 9


 457 01ab 1E       		.byte	30
 458 01ac 0D       		.byte	13
 459 01ad 00       		.byte	0
 460 01ae FC       		.byte	-4
 461 01af E8       		.byte	-24
 462 01b0 06       		.byte	6
 463 01b1 00       		.byte	0
 464 01b2 10       		.byte	16
 465 01b3 1E       		.byte	30
 466 01b4 0D       		.byte	13
 467 01b5 00       		.byte	0
 468 01b6 FC       		.byte	-4
 469 01b7 E9       		.byte	-23
 470 01b8 08       		.byte	8
 471 01b9 9C       		.byte	-100
 472 01ba 00       		.byte	0
 473 01bb 10       		.byte	16
 474 01bc 00       		.byte	0
 475 01bd 00       		.byte	0
 476 01be 00       		.byte	0
 477 01bf 00       		.byte	0
 478 01c0 00       		.byte	0
 479 01c1 00       		.byte	0
 480 01c2 2E       		.byte	46
 481 01c3 01       		.byte	1
 482 01c4 00       		.byte	0
 483 01c5 00       		.byte	0
 484 01c6 00       		.byte	0
 485 01c7 00       		.byte	0
 486 01c8 09       		.byte	9
 487 01c9 9C       		.byte	-100
 488 01ca 00       		.byte	0
 489 01cb 10       		.byte	16
 490 01cc 00       		.byte	0
 491 01cd 00       		.byte	0
 492 01ce 00       		.byte	0
 493 01cf 02       		.byte	2
 494 01d0 0C       		.byte	12
 495 01d1 10       		.byte	16
 496 01d2 F4       		.byte	-12
 497 01d3 60       		.byte	96
 498 01d4 02       		.byte	2
 499 01d5 C2       		.byte	-62
 500 01d6 00       		.byte	0
 501 01d7 00       		.byte	0
 502 01d8 00       		.byte	0
 503 01d9 00       		.byte	0
 504 01da 00       		.byte	0
 505 01db 00       		.byte	0
 506 01dc 00       		.byte	0
 507 01dd 00       		.byte	0
 508 01de 00       		.byte	0
 509 01df 00       		.byte	0
 510              		.global	dm0_ram
 511              		.align	2
 512              		.type	dm0_ram, %object
 513              		.size	dm0_ram, 176
ARM GAS  C:\Users\LUKASC~1\AppData\Local\Temp\ccKPnYen.s 			page 10


 514              	dm0_ram:
 515 01e0 00       		.byte	0
 516 01e1 00       		.byte	0
 517 01e2 00       		.byte	0
 518 01e3 00       		.byte	0
 519 01e4 00       		.byte	0
 520 01e5 00       		.byte	0
 521 01e6 00       		.byte	0
 522 01e7 00       		.byte	0
 523 01e8 00       		.byte	0
 524 01e9 00       		.byte	0
 525 01ea 00       		.byte	0
 526 01eb 00       		.byte	0
 527 01ec 00       		.byte	0
 528 01ed 00       		.byte	0
 529 01ee 00       		.byte	0
 530 01ef 00       		.byte	0
 531 01f0 00       		.byte	0
 532 01f1 00       		.byte	0
 533 01f2 00       		.byte	0
 534 01f3 00       		.byte	0
 535 01f4 00       		.byte	0
 536 01f5 00       		.byte	0
 537 01f6 00       		.byte	0
 538 01f7 00       		.byte	0
 539 01f8 00       		.byte	0
 540 01f9 00       		.byte	0
 541 01fa 00       		.byte	0
 542 01fb 00       		.byte	0
 543 01fc 00       		.byte	0
 544 01fd 00       		.byte	0
 545 01fe 00       		.byte	0
 546 01ff 00       		.byte	0
 547 0200 00       		.byte	0
 548 0201 00       		.byte	0
 549 0202 00       		.byte	0
 550 0203 00       		.byte	0
 551 0204 00       		.byte	0
 552 0205 00       		.byte	0
 553 0206 00       		.byte	0
 554 0207 00       		.byte	0
 555 0208 00       		.byte	0
 556 0209 00       		.byte	0
 557 020a 00       		.byte	0
 558 020b 00       		.byte	0
 559 020c 00       		.byte	0
 560 020d 00       		.byte	0
 561 020e 00       		.byte	0
 562 020f 00       		.byte	0
 563 0210 00       		.byte	0
 564 0211 00       		.byte	0
 565 0212 00       		.byte	0
 566 0213 00       		.byte	0
 567 0214 00       		.byte	0
 568 0215 00       		.byte	0
 569 0216 00       		.byte	0
 570 0217 00       		.byte	0
ARM GAS  C:\Users\LUKASC~1\AppData\Local\Temp\ccKPnYen.s 			page 11


 571 0218 00       		.byte	0
 572 0219 00       		.byte	0
 573 021a 00       		.byte	0
 574 021b 00       		.byte	0
 575 021c 00       		.byte	0
 576 021d 00       		.byte	0
 577 021e 00       		.byte	0
 578 021f 00       		.byte	0
 579 0220 00       		.byte	0
 580 0221 00       		.byte	0
 581 0222 00       		.byte	0
 582 0223 00       		.byte	0
 583 0224 00       		.byte	0
 584 0225 00       		.byte	0
 585 0226 00       		.byte	0
 586 0227 00       		.byte	0
 587 0228 00       		.byte	0
 588 0229 00       		.byte	0
 589 022a 00       		.byte	0
 590 022b 04       		.byte	4
 591 022c 00       		.byte	0
 592 022d 00       		.byte	0
 593 022e 00       		.byte	0
 594 022f 00       		.byte	0
 595 0230 00       		.byte	0
 596 0231 00       		.byte	0
 597 0232 00       		.byte	0
 598 0233 00       		.byte	0
 599 0234 00       		.byte	0
 600 0235 00       		.byte	0
 601 0236 00       		.byte	0
 602 0237 00       		.byte	0
 603 0238 00       		.byte	0
 604 0239 00       		.byte	0
 605 023a 00       		.byte	0
 606 023b 00       		.byte	0
 607 023c 00       		.byte	0
 608 023d 00       		.byte	0
 609 023e 00       		.byte	0
 610 023f 00       		.byte	0
 611 0240 00       		.byte	0
 612 0241 00       		.byte	0
 613 0242 00       		.byte	0
 614 0243 00       		.byte	0
 615 0244 00       		.byte	0
 616 0245 00       		.byte	0
 617 0246 00       		.byte	0
 618 0247 00       		.byte	0
 619 0248 00       		.byte	0
 620 0249 00       		.byte	0
 621 024a 00       		.byte	0
 622 024b 00       		.byte	0
 623 024c 01       		.byte	1
 624 024d 00       		.byte	0
 625 024e 00       		.byte	0
 626 024f 00       		.byte	0
 627 0250 00       		.byte	0
ARM GAS  C:\Users\LUKASC~1\AppData\Local\Temp\ccKPnYen.s 			page 12


 628 0251 00       		.byte	0
 629 0252 00       		.byte	0
 630 0253 00       		.byte	0
 631 0254 00       		.byte	0
 632 0255 00       		.byte	0
 633 0256 00       		.byte	0
 634 0257 00       		.byte	0
 635 0258 00       		.byte	0
 636 0259 00       		.byte	0
 637 025a 07       		.byte	7
 638 025b FF       		.byte	-1
 639 025c FF       		.byte	-1
 640 025d FF       		.byte	-1
 641 025e FF       		.byte	-1
 642 025f FF       		.byte	-1
 643 0260 00       		.byte	0
 644 0261 11       		.byte	17
 645 0262 99       		.byte	-103
 646 0263 9A       		.byte	-102
 647 0264 00       		.byte	0
 648 0265 00       		.byte	0
 649 0266 00       		.byte	0
 650 0267 00       		.byte	0
 651 0268 00       		.byte	0
 652 0269 00       		.byte	0
 653 026a C0       		.byte	-64
 654 026b 00       		.byte	0
 655 026c 00       		.byte	0
 656 026d 00       		.byte	0
 657 026e C0       		.byte	-64
 658 026f 00       		.byte	0
 659 0270 00       		.byte	0
 660 0271 00       		.byte	0
 661 0272 08       		.byte	8
 662 0273 00       		.byte	0
 663 0274 00       		.byte	0
 664 0275 00       		.byte	0
 665 0276 00       		.byte	0
 666 0277 00       		.byte	0
 667 0278 01       		.byte	1
 668 0279 00       		.byte	0
 669 027a 00       		.byte	0
 670 027b 00       		.byte	0
 671 027c 00       		.byte	0
 672 027d 00       		.byte	0
 673 027e 20       		.byte	32
 674 027f 8A       		.byte	-118
 675 0280 00       		.byte	0
 676 0281 00       		.byte	0
 677 0282 00       		.byte	0
 678 0283 00       		.byte	0
 679 0284 00       		.byte	0
 680 0285 00       		.byte	0
 681 0286 00       		.byte	0
 682 0287 00       		.byte	0
 683 0288 00       		.byte	0
 684 0289 00       		.byte	0
ARM GAS  C:\Users\LUKASC~1\AppData\Local\Temp\ccKPnYen.s 			page 13


 685 028a 00       		.byte	0
 686 028b 00       		.byte	0
 687 028c 00       		.byte	0
 688 028d 00       		.byte	0
 689 028e 00       		.byte	0
 690 028f 00       		.byte	0
 691              		.global	dm1_ram
 692              		.bss
 693              		.align	2
 694              		.type	dm1_ram, %object
 695              		.size	dm1_ram, 16
 696              	dm1_ram:
 697 0000 00000000 		.space	16
 697      00000000 
 697      00000000 
 697      00000000 
 698              		.section	.text.DSPinit,"ax",%progbits
 699              		.align	2
 700              		.global	DSPinit
 701              		.thumb
 702              		.thumb_func
 703              		.type	DSPinit, %function
 704              	DSPinit:
 705              	.LFB63:
 706              		.file 1 ".\\dsp.c"
   1:.\dsp.c       **** /*******************************************************************************
   2:.\dsp.c       **** * File Name: dsp.c
   3:.\dsp.c       **** *
   4:.\dsp.c       **** * Version: 1.1 Author: Lukas Creutzburg
   5:.\dsp.c       **** *
   6:.\dsp.c       **** * Description:
   7:.\dsp.c       **** *   Component sends data via SPI as Master
   8:.\dsp.c       **** *   Can send arrays
   9:.\dsp.c       **** *
  10:.\dsp.c       **** * Changes:
  11:.\dsp.c       **** *   - Changed Wordsize to 32bit
  12:.\dsp.c       **** *
  13:.\dsp.c       **** *******************************************************************************/
  14:.\dsp.c       **** 
  15:.\dsp.c       **** #include "dsp.h"
  16:.\dsp.c       **** 
  17:.\dsp.c       **** /* RAM and Control values from Sigma Studio */
  18:.\dsp.c       **** uint8 program_ram[PROGRAM_RAM_SIZE] =
  19:.\dsp.c       **** {
  20:.\dsp.c       **** #include "DSP_program.h"
  21:.\dsp.c       **** };
  22:.\dsp.c       **** uint8 dm0_ram[DM0_RAM_SIZE] = 
  23:.\dsp.c       **** {
  24:.\dsp.c       **** #include "DSP_dm0.h"
  25:.\dsp.c       **** };
  26:.\dsp.c       **** uint8 dm1_ram[DM1_RAM_SIZE] = 
  27:.\dsp.c       **** {
  28:.\dsp.c       **** #include "DSP_dm1.h"
  29:.\dsp.c       **** };
  30:.\dsp.c       **** 
  31:.\dsp.c       **** void DSPinit()
  32:.\dsp.c       **** {
ARM GAS  C:\Users\LUKASC~1\AppData\Local\Temp\ccKPnYen.s 			page 14


 707              		.loc 1 32 0
 708              		.cfi_startproc
 709              		@ args = 0, pretend = 0, frame = 8
 710              		@ frame_needed = 1, uses_anonymous_args = 0
 711 0000 80B5     		push	{r7, lr}
 712              		.cfi_def_cfa_offset 8
 713              		.cfi_offset 7, -8
 714              		.cfi_offset 14, -4
 715 0002 82B0     		sub	sp, sp, #8
 716              		.cfi_def_cfa_offset 16
 717 0004 00AF     		add	r7, sp, #0
 718              		.cfi_def_cfa_register 7
  33:.\dsp.c       ****     DSP_reset_Write(1u);
 719              		.loc 1 33 0
 720 0006 0120     		movs	r0, #1
 721 0008 FFF7FEFF 		bl	DSP_reset_Write
  34:.\dsp.c       ****     /* SPI intialisieren */
  35:.\dsp.c       ****     SPIinit();
 722              		.loc 1 35 0
 723 000c FFF7FEFF 		bl	SPIinit
  36:.\dsp.c       ****     /* Hard reset after full PSoC start */
  37:.\dsp.c       ****     DSP_reset_Write(0u);
 724              		.loc 1 37 0
 725 0010 0020     		movs	r0, #0
 726 0012 FFF7FEFF 		bl	DSP_reset_Write
  38:.\dsp.c       ****     CyDelay(20);
 727              		.loc 1 38 0
 728 0016 1420     		movs	r0, #20
 729 0018 FFF7FEFF 		bl	CyDelay
  39:.\dsp.c       ****     DSP_reset_Write(1u);
 730              		.loc 1 39 0
 731 001c 0120     		movs	r0, #1
 732 001e FFF7FEFF 		bl	DSP_reset_Write
  40:.\dsp.c       ****     
  41:.\dsp.c       ****     /* DSP Initialisierungssequenz nach Datenblatt */
  42:.\dsp.c       ****     /* Umschalten des DSP von I2C auf SPI (3 mal dummy senden) */
  43:.\dsp.c       ****     CyDelay(260);
 733              		.loc 1 43 0
 734 0022 4FF48270 		mov	r0, #260
 735 0026 FFF7FEFF 		bl	CyDelay
  44:.\dsp.c       ****     DSPwriteWord32(0x4FFF,0x00000000);
 736              		.loc 1 44 0
 737 002a 44F6FF70 		movw	r0, #20479
 738 002e 0021     		movs	r1, #0
 739 0030 FFF7FEFF 		bl	DSPwriteWord32
  45:.\dsp.c       ****     CyDelay(260);
 740              		.loc 1 45 0
 741 0034 4FF48270 		mov	r0, #260
 742 0038 FFF7FEFF 		bl	CyDelay
  46:.\dsp.c       ****     DSPwriteWord32(0x4FFF,0x00000000);
 743              		.loc 1 46 0
 744 003c 44F6FF70 		movw	r0, #20479
 745 0040 0021     		movs	r1, #0
 746 0042 FFF7FEFF 		bl	DSPwriteWord32
  47:.\dsp.c       ****     CyDelay(260);
 747              		.loc 1 47 0
 748 0046 4FF48270 		mov	r0, #260
ARM GAS  C:\Users\LUKASC~1\AppData\Local\Temp\ccKPnYen.s 			page 15


 749 004a FFF7FEFF 		bl	CyDelay
  48:.\dsp.c       ****     DSPwriteWord32(0x4FFF,0x00000000);
 750              		.loc 1 48 0
 751 004e 44F6FF70 		movw	r0, #20479
 752 0052 0021     		movs	r1, #0
 753 0054 FFF7FEFF 		bl	DSPwriteWord32
  49:.\dsp.c       ****     CyDelay(260);
 754              		.loc 1 49 0
 755 0058 4FF48270 		mov	r0, #260
 756 005c FFF7FEFF 		bl	CyDelay
  50:.\dsp.c       ****     /* Enter SOFT_RESET*/
  51:.\dsp.c       ****     DSPwriteWord16(SOFT_RESET,0x0000);  
 757              		.loc 1 51 0
 758 0060 4FF69000 		movw	r0, #63632
 759 0064 0021     		movs	r1, #0
 760 0066 FFF7FEFF 		bl	DSPwriteWord16
  52:.\dsp.c       ****     CyDelay(1);
 761              		.loc 1 52 0
 762 006a 0120     		movs	r0, #1
 763 006c FFF7FEFF 		bl	CyDelay
  53:.\dsp.c       ****     /* Exit SOFT_RESET*/
  54:.\dsp.c       ****     DSPwriteWord16(SOFT_RESET,0x0001);
 764              		.loc 1 54 0
 765 0070 4FF69000 		movw	r0, #63632
 766 0074 0121     		movs	r1, #1
 767 0076 FFF7FEFF 		bl	DSPwriteWord16
  55:.\dsp.c       ****     CyDelay(260);
 768              		.loc 1 55 0
 769 007a 4FF48270 		mov	r0, #260
 770 007e FFF7FEFF 		bl	CyDelay
  56:.\dsp.c       ****     /* Exit Hypernate*/
  57:.\dsp.c       ****     DSPwriteWord16(HYPERNATE,0x0000); 
 771              		.loc 1 57 0
 772 0082 4FF47440 		mov	r0, #62464
 773 0086 0021     		movs	r1, #0
 774 0088 FFF7FEFF 		bl	DSPwriteWord16
  58:.\dsp.c       ****     CyDelay(1);
 775              		.loc 1 58 0
 776 008c 0120     		movs	r0, #1
 777 008e FFF7FEFF 		bl	CyDelay
  59:.\dsp.c       ****     /* Enter Hypernate*/
  60:.\dsp.c       ****     DSPwriteWord16(HYPERNATE,0x0001);
 778              		.loc 1 60 0
 779 0092 4FF47440 		mov	r0, #62464
 780 0096 0121     		movs	r1, #1
 781 0098 FFF7FEFF 		bl	DSPwriteWord16
  61:.\dsp.c       ****     CyDelay(260);
 782              		.loc 1 61 0
 783 009c 4FF48270 		mov	r0, #260
 784 00a0 FFF7FEFF 		bl	CyDelay
  62:.\dsp.c       ****     /* Exit Kill Core*/
  63:.\dsp.c       ****     DSPwriteWord16(KILL_CORE,0x0000);
 785              		.loc 1 63 0
 786 00a4 4FF20340 		movw	r0, #62467
 787 00a8 0021     		movs	r1, #0
 788 00aa FFF7FEFF 		bl	DSPwriteWord16
  64:.\dsp.c       ****     CyDelay(1);
ARM GAS  C:\Users\LUKASC~1\AppData\Local\Temp\ccKPnYen.s 			page 16


 789              		.loc 1 64 0
 790 00ae 0120     		movs	r0, #1
 791 00b0 FFF7FEFF 		bl	CyDelay
  65:.\dsp.c       ****     /* Kill Core*/
  66:.\dsp.c       ****     DSPwriteWord16(KILL_CORE,0x0001);
 792              		.loc 1 66 0
 793 00b4 4FF20340 		movw	r0, #62467
 794 00b8 0121     		movs	r1, #1
 795 00ba FFF7FEFF 		bl	DSPwriteWord16
  67:.\dsp.c       ****     CyDelay(1);
 796              		.loc 1 67 0
 797 00be 0120     		movs	r0, #1
 798 00c0 FFF7FEFF 		bl	CyDelay
  68:.\dsp.c       ****     /* Exit Kill Core*/
  69:.\dsp.c       ****     DSPwriteWord16(KILL_CORE,0x0000);
 799              		.loc 1 69 0
 800 00c4 4FF20340 		movw	r0, #62467
 801 00c8 0021     		movs	r1, #0
 802 00ca FFF7FEFF 		bl	DSPwriteWord16
  70:.\dsp.c       ****     CyDelay(1);
 803              		.loc 1 70 0
 804 00ce 0120     		movs	r0, #1
 805 00d0 FFF7FEFF 		bl	CyDelay
  71:.\dsp.c       ****     /* Set PLL input clock divider to 4 */
  72:.\dsp.c       ****     DSPwriteWord16(PLL_CTRL_1,0x0002);
 806              		.loc 1 72 0
 807 00d4 4FF20100 		movw	r0, #61441
 808 00d8 0221     		movs	r1, #2
 809 00da FFF7FEFF 		bl	DSPwriteWord16
  73:.\dsp.c       ****     CyDelay(1);
 810              		.loc 1 73 0
 811 00de 0120     		movs	r0, #1
 812 00e0 FFF7FEFF 		bl	CyDelay
  74:.\dsp.c       ****     /* Set clock source to PLL clock */
  75:.\dsp.c       ****     DSPwriteWord16(PLL_CLK_SRC,0x0001);
 813              		.loc 1 75 0
 814 00e4 4FF20200 		movw	r0, #61442
 815 00e8 0121     		movs	r1, #1
 816 00ea FFF7FEFF 		bl	DSPwriteWord16
  76:.\dsp.c       ****     CyDelay(1);
 817              		.loc 1 76 0
 818 00ee 0120     		movs	r0, #1
 819 00f0 FFF7FEFF 		bl	CyDelay
  77:.\dsp.c       ****     /* Enable MCLK output (12.288 MHz) */
  78:.\dsp.c       ****     DSPwriteWord16(MCLK_OUT,0x0005);
 820              		.loc 1 78 0
 821 00f4 4FF20500 		movw	r0, #61445
 822 00f8 0521     		movs	r1, #5
 823 00fa FFF7FEFF 		bl	DSPwriteWord16
  79:.\dsp.c       ****     CyDelay(1);
 824              		.loc 1 79 0
 825 00fe 0120     		movs	r0, #1
 826 0100 FFF7FEFF 		bl	CyDelay
  80:.\dsp.c       ****     /* Enable PLL */
  81:.\dsp.c       ****     DSPwriteWord16(PLL_ENABLE,0x0001);
 827              		.loc 1 81 0
 828 0104 4FF20300 		movw	r0, #61443
ARM GAS  C:\Users\LUKASC~1\AppData\Local\Temp\ccKPnYen.s 			page 17


 829 0108 0121     		movs	r1, #1
 830 010a FFF7FEFF 		bl	DSPwriteWord16
  82:.\dsp.c       ****     /* Wait for PLL lock */
  83:.\dsp.c       ****     CyDelay(260);
 831              		.loc 1 83 0
 832 010e 4FF48270 		mov	r0, #260
 833 0112 FFF7FEFF 		bl	CyDelay
  84:.\dsp.c       ****     /* Enable Power for all major systems except clock generator 3 */
  85:.\dsp.c       ****     DSPwriteWord16(POWER_ENABLE0,0x1FFF);
 834              		.loc 1 85 0
 835 0116 4FF25000 		movw	r0, #61520
 836 011a 41F6FF71 		movw	r1, #8191
 837 011e FFF7FEFF 		bl	DSPwriteWord16
  86:.\dsp.c       ****     CyDelay(1);
 838              		.loc 1 86 0
 839 0122 0120     		movs	r0, #1
 840 0124 FFF7FEFF 		bl	CyDelay
  87:.\dsp.c       ****     /* Disable Power for subsystems like PDM microphones, S/PDIF, ADC */
  88:.\dsp.c       ****     DSPwriteWord16(POWER_ENABLE1,0x001F);
 841              		.loc 1 88 0
 842 0128 4FF25100 		movw	r0, #61521
 843 012c 1F21     		movs	r1, #31
 844 012e FFF7FEFF 		bl	DSPwriteWord16
  89:.\dsp.c       ****     CyDelay(1);
 845              		.loc 1 89 0
 846 0132 0120     		movs	r0, #1
 847 0134 FFF7FEFF 		bl	CyDelay
  90:.\dsp.c       ****     /* Serial Output Port */
  91:.\dsp.c       ****     int i;
  92:.\dsp.c       ****     for(i=SERIAL_OUTPUT;i<=SERIAL_OUTPUT_END;i++)
 848              		.loc 1 92 0
 849 0138 4FF28013 		movw	r3, #61824
 850 013c 7B60     		str	r3, [r7, #4]
 851 013e 0BE0     		b	.L2
 852              	.L3:
  93:.\dsp.c       ****     {
  94:.\dsp.c       ****         DSPwriteWord16(i,0x0002);
 853              		.loc 1 94 0 discriminator 3
 854 0140 7B68     		ldr	r3, [r7, #4]
 855 0142 9BB2     		uxth	r3, r3
 856 0144 1846     		mov	r0, r3
 857 0146 0221     		movs	r1, #2
 858 0148 FFF7FEFF 		bl	DSPwriteWord16
  95:.\dsp.c       ****         CyDelay(1);
 859              		.loc 1 95 0 discriminator 3
 860 014c 0120     		movs	r0, #1
 861 014e FFF7FEFF 		bl	CyDelay
  92:.\dsp.c       ****     {
 862              		.loc 1 92 0 discriminator 3
 863 0152 7B68     		ldr	r3, [r7, #4]
 864 0154 0133     		adds	r3, r3, #1
 865 0156 7B60     		str	r3, [r7, #4]
 866              	.L2:
  92:.\dsp.c       ****     {
 867              		.loc 1 92 0 is_stmt 0 discriminator 1
 868 0158 7B68     		ldr	r3, [r7, #4]
 869 015a 4FF29712 		movw	r2, #61847
ARM GAS  C:\Users\LUKASC~1\AppData\Local\Temp\ccKPnYen.s 			page 18


 870 015e 9342     		cmp	r3, r2
 871 0160 EEDD     		ble	.L3
  96:.\dsp.c       ****     }
  97:.\dsp.c       ****     
  98:.\dsp.c       ****     /* Serial Port Control */
  99:.\dsp.c       ****     DSPwriteWord16(0xF200,0x0102);
 872              		.loc 1 99 0 is_stmt 1
 873 0162 4FF47240 		mov	r0, #61952
 874 0166 4FF48171 		mov	r1, #258
 875 016a FFF7FEFF 		bl	DSPwriteWord16
 100:.\dsp.c       ****     CyDelay(1);
 876              		.loc 1 100 0
 877 016e 0120     		movs	r0, #1
 878 0170 FFF7FEFF 		bl	CyDelay
 101:.\dsp.c       ****     DSPwriteWord16(0xF204,0x2102);
 879              		.loc 1 101 0
 880 0174 4FF20420 		movw	r0, #61956
 881 0178 42F20211 		movw	r1, #8450
 882 017c FFF7FEFF 		bl	DSPwriteWord16
 102:.\dsp.c       ****     CyDelay(1);
 883              		.loc 1 102 0
 884 0180 0120     		movs	r0, #1
 885 0182 FFF7FEFF 		bl	CyDelay
 103:.\dsp.c       ****     DSPwriteWord16(0xF208,0x0102);
 886              		.loc 1 103 0
 887 0186 4FF20820 		movw	r0, #61960
 888 018a 4FF48171 		mov	r1, #258
 889 018e FFF7FEFF 		bl	DSPwriteWord16
 104:.\dsp.c       ****     CyDelay(1);
 890              		.loc 1 104 0
 891 0192 0120     		movs	r0, #1
 892 0194 FFF7FEFF 		bl	CyDelay
 105:.\dsp.c       ****     DSPwriteWord16(0xF20C,0x9102);
 893              		.loc 1 105 0
 894 0198 4FF20C20 		movw	r0, #61964
 895 019c 49F20211 		movw	r1, #37122
 896 01a0 FFF7FEFF 		bl	DSPwriteWord16
 106:.\dsp.c       ****     CyDelay(1);
 897              		.loc 1 106 0
 898 01a4 0120     		movs	r0, #1
 899 01a6 FFF7FEFF 		bl	CyDelay
 107:.\dsp.c       ****     DSPwriteWord16(0xF210,0x9102);
 900              		.loc 1 107 0
 901 01aa 4FF21020 		movw	r0, #61968
 902 01ae 49F20211 		movw	r1, #37122
 903 01b2 FFF7FEFF 		bl	DSPwriteWord16
 108:.\dsp.c       ****     CyDelay(1);
 904              		.loc 1 108 0
 905 01b6 0120     		movs	r0, #1
 906 01b8 FFF7FEFF 		bl	CyDelay
 109:.\dsp.c       ****     DSPwriteWord16(0xF214,0x9103);
 907              		.loc 1 109 0
 908 01bc 4FF21420 		movw	r0, #61972
 909 01c0 49F20311 		movw	r1, #37123
 910 01c4 FFF7FEFF 		bl	DSPwriteWord16
 110:.\dsp.c       ****     CyDelay(1);
 911              		.loc 1 110 0
ARM GAS  C:\Users\LUKASC~1\AppData\Local\Temp\ccKPnYen.s 			page 19


 912 01c8 0120     		movs	r0, #1
 913 01ca FFF7FEFF 		bl	CyDelay
 111:.\dsp.c       ****     DSPwriteWord16(0xF218,0x9102);
 914              		.loc 1 111 0
 915 01ce 4FF21820 		movw	r0, #61976
 916 01d2 49F20211 		movw	r1, #37122
 917 01d6 FFF7FEFF 		bl	DSPwriteWord16
 112:.\dsp.c       ****     CyDelay(1);
 918              		.loc 1 112 0
 919 01da 0120     		movs	r0, #1
 920 01dc FFF7FEFF 		bl	CyDelay
 113:.\dsp.c       ****     DSPwriteWord16(0xF21C,0x9102);
 921              		.loc 1 113 0
 922 01e0 4FF21C20 		movw	r0, #61980
 923 01e4 49F20211 		movw	r1, #37122
 924 01e8 FFF7FEFF 		bl	DSPwriteWord16
 114:.\dsp.c       ****     CyDelay(1);
 925              		.loc 1 114 0
 926 01ec 0120     		movs	r0, #1
 927 01ee FFF7FEFF 		bl	CyDelay
 115:.\dsp.c       ****     
 116:.\dsp.c       ****     /* Sigma Studio Program Data goes HERE! */
 117:.\dsp.c       ****     DSPwrite(PROGRAM_RAM_DATA,&program_ram[0],PROGRAM_RAM_SIZE);
 928              		.loc 1 117 0
 929 01f2 4FF44040 		mov	r0, #49152
 930 01f6 2649     		ldr	r1, .L4
 931 01f8 4FF4F072 		mov	r2, #480
 932 01fc FFF7FEFF 		bl	DSPwrite
 118:.\dsp.c       ****     CyDelay(1);
 933              		.loc 1 118 0
 934 0200 0120     		movs	r0, #1
 935 0202 FFF7FEFF 		bl	CyDelay
 119:.\dsp.c       ****     DSPwrite(DM0_RAM_DATA,&dm0_ram[0],DM0_RAM_SIZE);
 936              		.loc 1 119 0
 937 0206 0020     		movs	r0, #0
 938 0208 2249     		ldr	r1, .L4+4
 939 020a B022     		movs	r2, #176
 940 020c FFF7FEFF 		bl	DSPwrite
 120:.\dsp.c       ****     CyDelay(1);
 941              		.loc 1 120 0
 942 0210 0120     		movs	r0, #1
 943 0212 FFF7FEFF 		bl	CyDelay
 121:.\dsp.c       ****     DSPwrite(DM1_RAM_DATA,&dm1_ram[0],DM1_RAM_SIZE);
 944              		.loc 1 121 0
 945 0216 46F20400 		movw	r0, #24580
 946 021a 1F49     		ldr	r1, .L4+8
 947 021c 1022     		movs	r2, #16
 948 021e FFF7FEFF 		bl	DSPwrite
 122:.\dsp.c       ****     CyDelay(1);
 949              		.loc 1 122 0
 950 0222 0120     		movs	r0, #1
 951 0224 FFF7FEFF 		bl	CyDelay
 123:.\dsp.c       ****     
 124:.\dsp.c       ****     /* Exit Kill Core*/
 125:.\dsp.c       ****     DSPwriteWord16(KILL_CORE,0x0000);
 952              		.loc 1 125 0
 953 0228 4FF20340 		movw	r0, #62467
ARM GAS  C:\Users\LUKASC~1\AppData\Local\Temp\ccKPnYen.s 			page 20


 954 022c 0021     		movs	r1, #0
 955 022e FFF7FEFF 		bl	DSPwriteWord16
 126:.\dsp.c       ****     CyDelay(1);
 956              		.loc 1 126 0
 957 0232 0120     		movs	r0, #1
 958 0234 FFF7FEFF 		bl	CyDelay
 127:.\dsp.c       ****     /* Set program start address as defined by the Sigma Studio compiler */
 128:.\dsp.c       ****     DSPwriteWord16(START_ADDRESS,0x0000);
 959              		.loc 1 128 0
 960 0238 4FF20440 		movw	r0, #62468
 961 023c 0021     		movs	r1, #0
 962 023e FFF7FEFF 		bl	DSPwriteWord16
 129:.\dsp.c       ****     CyDelay(1);
 963              		.loc 1 129 0
 964 0242 0120     		movs	r0, #1
 965 0244 FFF7FEFF 		bl	CyDelay
 130:.\dsp.c       ****     /* Set DSP core start pulse to internally gernerated pulse */
 131:.\dsp.c       ****     DSPwriteWord16(START_PULSE,0x0002);  
 966              		.loc 1 131 0
 967 0248 4FF20140 		movw	r0, #62465
 968 024c 0221     		movs	r1, #2
 969 024e FFF7FEFF 		bl	DSPwriteWord16
 132:.\dsp.c       ****     CyDelay(1);
 970              		.loc 1 132 0
 971 0252 0120     		movs	r0, #1
 972 0254 FFF7FEFF 		bl	CyDelay
 133:.\dsp.c       ****     /* Stop the core */
 134:.\dsp.c       ****     DSPwriteWord16(START_CORE,0x0000);
 973              		.loc 1 134 0
 974 0258 4FF20240 		movw	r0, #62466
 975 025c 0021     		movs	r1, #0
 976 025e FFF7FEFF 		bl	DSPwriteWord16
 135:.\dsp.c       ****     CyDelay(1);
 977              		.loc 1 135 0
 978 0262 0120     		movs	r0, #1
 979 0264 FFF7FEFF 		bl	CyDelay
 136:.\dsp.c       ****     /* Start the core */
 137:.\dsp.c       ****     DSPwriteWord16(START_CORE,0x0001);
 980              		.loc 1 137 0
 981 0268 4FF20240 		movw	r0, #62466
 982 026c 0121     		movs	r1, #1
 983 026e FFF7FEFF 		bl	DSPwriteWord16
 138:.\dsp.c       ****     CyDelay(3);
 984              		.loc 1 138 0
 985 0272 0320     		movs	r0, #3
 986 0274 FFF7FEFF 		bl	CyDelay
 139:.\dsp.c       ****     /* Exit Hypernate*/
 140:.\dsp.c       ****     DSPwriteWord16(HYPERNATE,0x0000);
 987              		.loc 1 140 0
 988 0278 4FF47440 		mov	r0, #62464
 989 027c 0021     		movs	r1, #0
 990 027e FFF7FEFF 		bl	DSPwriteWord16
 141:.\dsp.c       ****     /* Wait for initialization program to execute */
 142:.\dsp.c       ****     CyDelay(260);
 991              		.loc 1 142 0
 992 0282 4FF48270 		mov	r0, #260
 993 0286 FFF7FEFF 		bl	CyDelay
ARM GAS  C:\Users\LUKASC~1\AppData\Local\Temp\ccKPnYen.s 			page 21


 143:.\dsp.c       ****     
 144:.\dsp.c       ****     /* Initialisation completed */
 145:.\dsp.c       ****     
 146:.\dsp.c       **** 
 147:.\dsp.c       **** 
 148:.\dsp.c       **** }
 994              		.loc 1 148 0
 995 028a 0837     		adds	r7, r7, #8
 996              		.cfi_def_cfa_offset 8
 997 028c BD46     		mov	sp, r7
 998              		.cfi_def_cfa_register 13
 999              		@ sp needed
 1000 028e 80BD     		pop	{r7, pc}
 1001              	.L5:
 1002              		.align	2
 1003              	.L4:
 1004 0290 00000000 		.word	program_ram
 1005 0294 00000000 		.word	dm0_ram
 1006 0298 00000000 		.word	dm1_ram
 1007              		.cfi_endproc
 1008              	.LFE63:
 1009              		.size	DSPinit, .-DSPinit
 1010              		.section	.text.DSPisReady,"ax",%progbits
 1011              		.align	2
 1012              		.global	DSPisReady
 1013              		.thumb
 1014              		.thumb_func
 1015              		.type	DSPisReady, %function
 1016              	DSPisReady:
 1017              	.LFB64:
 149:.\dsp.c       **** 
 150:.\dsp.c       **** uint8 DSPisReady()
 151:.\dsp.c       **** {
 1018              		.loc 1 151 0
 1019              		.cfi_startproc
 1020              		@ args = 0, pretend = 0, frame = 8
 1021              		@ frame_needed = 1, uses_anonymous_args = 0
 1022              		@ link register save eliminated.
 1023 0000 80B4     		push	{r7}
 1024              		.cfi_def_cfa_offset 4
 1025              		.cfi_offset 7, -4
 1026 0002 83B0     		sub	sp, sp, #12
 1027              		.cfi_def_cfa_offset 16
 1028 0004 00AF     		add	r7, sp, #0
 1029              		.cfi_def_cfa_register 7
 152:.\dsp.c       ****     uint8 connected=0;
 1030              		.loc 1 152 0
 1031 0006 0023     		movs	r3, #0
 1032 0008 FB71     		strb	r3, [r7, #7]
 153:.\dsp.c       ****     
 154:.\dsp.c       ****     //TODO Lesen eines Registers, dass testet, ob der DSP angelaufen ist
 155:.\dsp.c       ****     
 156:.\dsp.c       ****     return connected;
 1033              		.loc 1 156 0
 1034 000a FB79     		ldrb	r3, [r7, #7]	@ zero_extendqisi2
 157:.\dsp.c       **** }
 1035              		.loc 1 157 0
ARM GAS  C:\Users\LUKASC~1\AppData\Local\Temp\ccKPnYen.s 			page 22


 1036 000c 1846     		mov	r0, r3
 1037 000e 0C37     		adds	r7, r7, #12
 1038              		.cfi_def_cfa_offset 4
 1039 0010 BD46     		mov	sp, r7
 1040              		.cfi_def_cfa_register 13
 1041              		@ sp needed
 1042 0012 5DF8047B 		ldr	r7, [sp], #4
 1043              		.cfi_restore 7
 1044              		.cfi_def_cfa_offset 0
 1045 0016 7047     		bx	lr
 1046              		.cfi_endproc
 1047              	.LFE64:
 1048              		.size	DSPisReady, .-DSPisReady
 1049              		.section	.text.DSPwrite,"ax",%progbits
 1050              		.align	2
 1051              		.global	DSPwrite
 1052              		.thumb
 1053              		.thumb_func
 1054              		.type	DSPwrite, %function
 1055              	DSPwrite:
 1056              	.LFB65:
 158:.\dsp.c       **** 
 159:.\dsp.c       **** void DSPwrite(uint16 address,uint8* data,uint16 datasize)
 160:.\dsp.c       **** {
 1057              		.loc 1 160 0
 1058              		.cfi_startproc
 1059              		@ args = 0, pretend = 0, frame = 24
 1060              		@ frame_needed = 1, uses_anonymous_args = 0
 1061 0000 2DE9F043 		push	{r4, r5, r6, r7, r8, r9, lr}
 1062              		.cfi_def_cfa_offset 28
 1063              		.cfi_offset 4, -28
 1064              		.cfi_offset 5, -24
 1065              		.cfi_offset 6, -20
 1066              		.cfi_offset 7, -16
 1067              		.cfi_offset 8, -12
 1068              		.cfi_offset 9, -8
 1069              		.cfi_offset 14, -4
 1070 0004 87B0     		sub	sp, sp, #28
 1071              		.cfi_def_cfa_offset 56
 1072 0006 00AF     		add	r7, sp, #0
 1073              		.cfi_def_cfa_register 7
 1074 0008 0346     		mov	r3, r0
 1075 000a 3960     		str	r1, [r7]
 1076 000c FB80     		strh	r3, [r7, #6]	@ movhi
 1077 000e 1346     		mov	r3, r2	@ movhi
 1078 0010 BB80     		strh	r3, [r7, #4]	@ movhi
 1079 0012 6B46     		mov	r3, sp
 1080 0014 1E46     		mov	r6, r3
 161:.\dsp.c       ****     uint8 toSend[datasize+3];
 1081              		.loc 1 161 0
 1082 0016 BB88     		ldrh	r3, [r7, #4]
 1083 0018 D91C     		adds	r1, r3, #3
 1084 001a 4B1E     		subs	r3, r1, #1
 1085 001c 3B61     		str	r3, [r7, #16]
 1086 001e 0B46     		mov	r3, r1
 1087 0020 1A46     		mov	r2, r3
 1088 0022 4FF00003 		mov	r3, #0
ARM GAS  C:\Users\LUKASC~1\AppData\Local\Temp\ccKPnYen.s 			page 23


 1089 0026 4FEAC309 		lsl	r9, r3, #3
 1090 002a 49EA5279 		orr	r9, r9, r2, lsr #29
 1091 002e 4FEAC208 		lsl	r8, r2, #3
 1092 0032 0B46     		mov	r3, r1
 1093 0034 1A46     		mov	r2, r3
 1094 0036 4FF00003 		mov	r3, #0
 1095 003a DD00     		lsls	r5, r3, #3
 1096 003c 45EA5275 		orr	r5, r5, r2, lsr #29
 1097 0040 D400     		lsls	r4, r2, #3
 1098 0042 0B46     		mov	r3, r1
 1099 0044 0733     		adds	r3, r3, #7
 1100 0046 DB08     		lsrs	r3, r3, #3
 1101 0048 DB00     		lsls	r3, r3, #3
 1102 004a ADEB030D 		sub	sp, sp, r3
 1103 004e 6B46     		mov	r3, sp
 1104 0050 0033     		adds	r3, r3, #0
 1105 0052 FB60     		str	r3, [r7, #12]
 162:.\dsp.c       ****     toSend[0] = (uint8)((CHIPADDRESS << 1) | (WRITE_DSP));
 1106              		.loc 1 162 0
 1107 0054 FB68     		ldr	r3, [r7, #12]
 1108 0056 0022     		movs	r2, #0
 1109 0058 1A70     		strb	r2, [r3]
 163:.\dsp.c       ****     toSend[1] = (uint8)(address >> 8);
 1110              		.loc 1 163 0
 1111 005a FB88     		ldrh	r3, [r7, #6]
 1112 005c 1B0A     		lsrs	r3, r3, #8
 1113 005e 9BB2     		uxth	r3, r3
 1114 0060 DAB2     		uxtb	r2, r3
 1115 0062 FB68     		ldr	r3, [r7, #12]
 1116 0064 5A70     		strb	r2, [r3, #1]
 164:.\dsp.c       ****     toSend[2] = (uint8)(address);
 1117              		.loc 1 164 0
 1118 0066 FB88     		ldrh	r3, [r7, #6]	@ movhi
 1119 0068 DAB2     		uxtb	r2, r3
 1120 006a FB68     		ldr	r3, [r7, #12]
 1121 006c 9A70     		strb	r2, [r3, #2]
 165:.\dsp.c       ****     uint16 i;
 166:.\dsp.c       ****     for(i=0;i<datasize;i++)
 1122              		.loc 1 166 0
 1123 006e 0023     		movs	r3, #0
 1124 0070 FB82     		strh	r3, [r7, #22]	@ movhi
 1125 0072 0AE0     		b	.L9
 1126              	.L10:
 167:.\dsp.c       ****     {
 168:.\dsp.c       ****         toSend[i+3] = data[i];
 1127              		.loc 1 168 0 discriminator 3
 1128 0074 FB8A     		ldrh	r3, [r7, #22]
 1129 0076 0333     		adds	r3, r3, #3
 1130 0078 FA8A     		ldrh	r2, [r7, #22]
 1131 007a 3968     		ldr	r1, [r7]
 1132 007c 0A44     		add	r2, r2, r1
 1133 007e 1178     		ldrb	r1, [r2]	@ zero_extendqisi2
 1134 0080 FA68     		ldr	r2, [r7, #12]
 1135 0082 D154     		strb	r1, [r2, r3]
 166:.\dsp.c       ****     {
 1136              		.loc 1 166 0 discriminator 3
 1137 0084 FB8A     		ldrh	r3, [r7, #22]
ARM GAS  C:\Users\LUKASC~1\AppData\Local\Temp\ccKPnYen.s 			page 24


 1138 0086 0133     		adds	r3, r3, #1
 1139 0088 FB82     		strh	r3, [r7, #22]	@ movhi
 1140              	.L9:
 166:.\dsp.c       ****     {
 1141              		.loc 1 166 0 is_stmt 0 discriminator 1
 1142 008a FA8A     		ldrh	r2, [r7, #22]
 1143 008c BB88     		ldrh	r3, [r7, #4]
 1144 008e 9A42     		cmp	r2, r3
 1145 0090 F0D3     		bcc	.L10
 169:.\dsp.c       ****     }
 170:.\dsp.c       ****     SPIsendArray(&toSend[0],datasize+3);
 1146              		.loc 1 170 0 is_stmt 1
 1147 0092 FA68     		ldr	r2, [r7, #12]
 1148 0094 BB88     		ldrh	r3, [r7, #4]	@ movhi
 1149 0096 0333     		adds	r3, r3, #3
 1150 0098 9BB2     		uxth	r3, r3
 1151 009a 1046     		mov	r0, r2
 1152 009c 1946     		mov	r1, r3
 1153 009e FFF7FEFF 		bl	SPIsendArray
 1154 00a2 B546     		mov	sp, r6
 171:.\dsp.c       **** }
 1155              		.loc 1 171 0
 1156 00a4 1C37     		adds	r7, r7, #28
 1157              		.cfi_def_cfa_offset 28
 1158 00a6 BD46     		mov	sp, r7
 1159              		.cfi_def_cfa_register 13
 1160              		@ sp needed
 1161 00a8 BDE8F083 		pop	{r4, r5, r6, r7, r8, r9, pc}
 1162              		.cfi_endproc
 1163              	.LFE65:
 1164              		.size	DSPwrite, .-DSPwrite
 1165              		.section	.text.DSPwriteWord32,"ax",%progbits
 1166              		.align	2
 1167              		.global	DSPwriteWord32
 1168              		.thumb
 1169              		.thumb_func
 1170              		.type	DSPwriteWord32, %function
 1171              	DSPwriteWord32:
 1172              	.LFB66:
 172:.\dsp.c       **** 
 173:.\dsp.c       **** void DSPwriteWord32(uint16 address,uint32 data)
 174:.\dsp.c       **** {
 1173              		.loc 1 174 0
 1174              		.cfi_startproc
 1175              		@ args = 0, pretend = 0, frame = 16
 1176              		@ frame_needed = 1, uses_anonymous_args = 0
 1177 0000 80B5     		push	{r7, lr}
 1178              		.cfi_def_cfa_offset 8
 1179              		.cfi_offset 7, -8
 1180              		.cfi_offset 14, -4
 1181 0002 84B0     		sub	sp, sp, #16
 1182              		.cfi_def_cfa_offset 24
 1183 0004 00AF     		add	r7, sp, #0
 1184              		.cfi_def_cfa_register 7
 1185 0006 0346     		mov	r3, r0
 1186 0008 3960     		str	r1, [r7]
 1187 000a FB80     		strh	r3, [r7, #6]	@ movhi
ARM GAS  C:\Users\LUKASC~1\AppData\Local\Temp\ccKPnYen.s 			page 25


 175:.\dsp.c       ****     uint8 toSend[7];
 176:.\dsp.c       ****     toSend[0] = (uint8)((CHIPADDRESS << 1) | (WRITE_DSP));
 1188              		.loc 1 176 0
 1189 000c 0023     		movs	r3, #0
 1190 000e 3B72     		strb	r3, [r7, #8]
 177:.\dsp.c       ****     toSend[1] = (uint8)(address >> 8);
 1191              		.loc 1 177 0
 1192 0010 FB88     		ldrh	r3, [r7, #6]
 1193 0012 1B0A     		lsrs	r3, r3, #8
 1194 0014 9BB2     		uxth	r3, r3
 1195 0016 DBB2     		uxtb	r3, r3
 1196 0018 7B72     		strb	r3, [r7, #9]
 178:.\dsp.c       ****     toSend[2] = (uint8)(address);
 1197              		.loc 1 178 0
 1198 001a FB88     		ldrh	r3, [r7, #6]	@ movhi
 1199 001c DBB2     		uxtb	r3, r3
 1200 001e BB72     		strb	r3, [r7, #10]
 179:.\dsp.c       ****     toSend[3] = (uint8)(data >> 24);
 1201              		.loc 1 179 0
 1202 0020 3B68     		ldr	r3, [r7]
 1203 0022 1B0E     		lsrs	r3, r3, #24
 1204 0024 DBB2     		uxtb	r3, r3
 1205 0026 FB72     		strb	r3, [r7, #11]
 180:.\dsp.c       ****     toSend[4] = (uint8)(data >> 16);
 1206              		.loc 1 180 0
 1207 0028 3B68     		ldr	r3, [r7]
 1208 002a 1B0C     		lsrs	r3, r3, #16
 1209 002c DBB2     		uxtb	r3, r3
 1210 002e 3B73     		strb	r3, [r7, #12]
 181:.\dsp.c       ****     toSend[5] = (uint8)(data >> 8);
 1211              		.loc 1 181 0
 1212 0030 3B68     		ldr	r3, [r7]
 1213 0032 1B0A     		lsrs	r3, r3, #8
 1214 0034 DBB2     		uxtb	r3, r3
 1215 0036 7B73     		strb	r3, [r7, #13]
 182:.\dsp.c       ****     toSend[6] = (uint8)(data);
 1216              		.loc 1 182 0
 1217 0038 3B68     		ldr	r3, [r7]
 1218 003a DBB2     		uxtb	r3, r3
 1219 003c BB73     		strb	r3, [r7, #14]
 183:.\dsp.c       ****     
 184:.\dsp.c       ****     SPIsendArray(&toSend[0],7);
 1220              		.loc 1 184 0
 1221 003e 07F10803 		add	r3, r7, #8
 1222 0042 1846     		mov	r0, r3
 1223 0044 0721     		movs	r1, #7
 1224 0046 FFF7FEFF 		bl	SPIsendArray
 185:.\dsp.c       **** 
 186:.\dsp.c       **** }
 1225              		.loc 1 186 0
 1226 004a 1037     		adds	r7, r7, #16
 1227              		.cfi_def_cfa_offset 8
 1228 004c BD46     		mov	sp, r7
 1229              		.cfi_def_cfa_register 13
 1230              		@ sp needed
 1231 004e 80BD     		pop	{r7, pc}
 1232              		.cfi_endproc
ARM GAS  C:\Users\LUKASC~1\AppData\Local\Temp\ccKPnYen.s 			page 26


 1233              	.LFE66:
 1234              		.size	DSPwriteWord32, .-DSPwriteWord32
 1235              		.section	.text.DSPwriteWord16,"ax",%progbits
 1236              		.align	2
 1237              		.global	DSPwriteWord16
 1238              		.thumb
 1239              		.thumb_func
 1240              		.type	DSPwriteWord16, %function
 1241              	DSPwriteWord16:
 1242              	.LFB67:
 187:.\dsp.c       **** 
 188:.\dsp.c       **** void DSPwriteWord16(uint16 address,uint16 data)
 189:.\dsp.c       **** {
 1243              		.loc 1 189 0
 1244              		.cfi_startproc
 1245              		@ args = 0, pretend = 0, frame = 16
 1246              		@ frame_needed = 1, uses_anonymous_args = 0
 1247 0000 80B5     		push	{r7, lr}
 1248              		.cfi_def_cfa_offset 8
 1249              		.cfi_offset 7, -8
 1250              		.cfi_offset 14, -4
 1251 0002 84B0     		sub	sp, sp, #16
 1252              		.cfi_def_cfa_offset 24
 1253 0004 00AF     		add	r7, sp, #0
 1254              		.cfi_def_cfa_register 7
 1255 0006 0346     		mov	r3, r0
 1256 0008 0A46     		mov	r2, r1
 1257 000a FB80     		strh	r3, [r7, #6]	@ movhi
 1258 000c 1346     		mov	r3, r2	@ movhi
 1259 000e BB80     		strh	r3, [r7, #4]	@ movhi
 190:.\dsp.c       ****     uint8 toSend[5];
 191:.\dsp.c       ****     toSend[0] = (uint8)((CHIPADDRESS << 1) | (WRITE_DSP));
 1260              		.loc 1 191 0
 1261 0010 0023     		movs	r3, #0
 1262 0012 3B72     		strb	r3, [r7, #8]
 192:.\dsp.c       ****     toSend[1] = (uint8)(address >> 8);
 1263              		.loc 1 192 0
 1264 0014 FB88     		ldrh	r3, [r7, #6]
 1265 0016 1B0A     		lsrs	r3, r3, #8
 1266 0018 9BB2     		uxth	r3, r3
 1267 001a DBB2     		uxtb	r3, r3
 1268 001c 7B72     		strb	r3, [r7, #9]
 193:.\dsp.c       ****     toSend[2] = (uint8)(address);
 1269              		.loc 1 193 0
 1270 001e FB88     		ldrh	r3, [r7, #6]	@ movhi
 1271 0020 DBB2     		uxtb	r3, r3
 1272 0022 BB72     		strb	r3, [r7, #10]
 194:.\dsp.c       ****     toSend[3] = (uint8)(data >> 8);
 1273              		.loc 1 194 0
 1274 0024 BB88     		ldrh	r3, [r7, #4]
 1275 0026 1B0A     		lsrs	r3, r3, #8
 1276 0028 9BB2     		uxth	r3, r3
 1277 002a DBB2     		uxtb	r3, r3
 1278 002c FB72     		strb	r3, [r7, #11]
 195:.\dsp.c       ****     toSend[4] = (uint8)(data);
 1279              		.loc 1 195 0
 1280 002e BB88     		ldrh	r3, [r7, #4]	@ movhi
ARM GAS  C:\Users\LUKASC~1\AppData\Local\Temp\ccKPnYen.s 			page 27


 1281 0030 DBB2     		uxtb	r3, r3
 1282 0032 3B73     		strb	r3, [r7, #12]
 196:.\dsp.c       ****     
 197:.\dsp.c       ****     SPIsendArray(&toSend[0],5);
 1283              		.loc 1 197 0
 1284 0034 07F10803 		add	r3, r7, #8
 1285 0038 1846     		mov	r0, r3
 1286 003a 0521     		movs	r1, #5
 1287 003c FFF7FEFF 		bl	SPIsendArray
 198:.\dsp.c       **** 
 199:.\dsp.c       **** }
 1288              		.loc 1 199 0
 1289 0040 1037     		adds	r7, r7, #16
 1290              		.cfi_def_cfa_offset 8
 1291 0042 BD46     		mov	sp, r7
 1292              		.cfi_def_cfa_register 13
 1293              		@ sp needed
 1294 0044 80BD     		pop	{r7, pc}
 1295              		.cfi_endproc
 1296              	.LFE67:
 1297              		.size	DSPwriteWord16, .-DSPwriteWord16
 1298 0046 00BF     		.section	.text.DSPsafeLoad,"ax",%progbits
 1299              		.align	2
 1300              		.global	DSPsafeLoad
 1301              		.thumb
 1302              		.thumb_func
 1303              		.type	DSPsafeLoad, %function
 1304              	DSPsafeLoad:
 1305              	.LFB68:
 200:.\dsp.c       **** 
 201:.\dsp.c       **** void DSPsafeLoad(uint16 address,uint32 data)
 202:.\dsp.c       **** {
 1306              		.loc 1 202 0
 1307              		.cfi_startproc
 1308              		@ args = 0, pretend = 0, frame = 8
 1309              		@ frame_needed = 1, uses_anonymous_args = 0
 1310 0000 80B5     		push	{r7, lr}
 1311              		.cfi_def_cfa_offset 8
 1312              		.cfi_offset 7, -8
 1313              		.cfi_offset 14, -4
 1314 0002 82B0     		sub	sp, sp, #8
 1315              		.cfi_def_cfa_offset 16
 1316 0004 00AF     		add	r7, sp, #0
 1317              		.cfi_def_cfa_register 7
 1318 0006 0346     		mov	r3, r0
 1319 0008 3960     		str	r1, [r7]
 1320 000a FB80     		strh	r3, [r7, #6]	@ movhi
 203:.\dsp.c       ****     //Block Write Slew Mode
 204:.\dsp.c       ****     DSPwriteWord32(0x0027,0x0000208A);
 1321              		.loc 1 204 0
 1322 000c 2720     		movs	r0, #39
 1323 000e 42F28A01 		movw	r1, #8330
 1324 0012 FFF7FEFF 		bl	DSPwriteWord32
 205:.\dsp.c       ****     CyDelay(26);
 1325              		.loc 1 205 0
 1326 0016 1A20     		movs	r0, #26
 1327 0018 FFF7FEFF 		bl	CyDelay
ARM GAS  C:\Users\LUKASC~1\AppData\Local\Temp\ccKPnYen.s 			page 28


 206:.\dsp.c       ****     //Safeload
 207:.\dsp.c       ****     //Data to Register 0x0014
 208:.\dsp.c       ****     DSPwriteWord32(0x0014,data);
 1328              		.loc 1 208 0
 1329 001c 1420     		movs	r0, #20
 1330 001e 3968     		ldr	r1, [r7]
 1331 0020 FFF7FEFF 		bl	DSPwriteWord32
 209:.\dsp.c       ****     CyDelay(1);
 1332              		.loc 1 209 0
 1333 0024 0120     		movs	r0, #1
 1334 0026 FFF7FEFF 		bl	CyDelay
 210:.\dsp.c       ****     
 211:.\dsp.c       ****     //Register to write into to Register 0x0019
 212:.\dsp.c       ****     DSPwriteWord32(0x0019,address);
 1335              		.loc 1 212 0
 1336 002a FB88     		ldrh	r3, [r7, #6]
 1337 002c 1920     		movs	r0, #25
 1338 002e 1946     		mov	r1, r3
 1339 0030 FFF7FEFF 		bl	DSPwriteWord32
 213:.\dsp.c       ****     CyDelay(1);
 1340              		.loc 1 213 0
 1341 0034 0120     		movs	r0, #1
 1342 0036 FFF7FEFF 		bl	CyDelay
 214:.\dsp.c       ****     //Safeload trigger / number of words to write to Register 0x001A
 215:.\dsp.c       ****     DSPwriteWord32(0x001A,0x00000001);
 1343              		.loc 1 215 0
 1344 003a 1A20     		movs	r0, #26
 1345 003c 0121     		movs	r1, #1
 1346 003e FFF7FEFF 		bl	DSPwriteWord32
 216:.\dsp.c       ****     CyDelay(60);
 1347              		.loc 1 216 0
 1348 0042 3C20     		movs	r0, #60
 1349 0044 FFF7FEFF 		bl	CyDelay
 217:.\dsp.c       **** }
 1350              		.loc 1 217 0
 1351 0048 0837     		adds	r7, r7, #8
 1352              		.cfi_def_cfa_offset 8
 1353 004a BD46     		mov	sp, r7
 1354              		.cfi_def_cfa_register 13
 1355              		@ sp needed
 1356 004c 80BD     		pop	{r7, pc}
 1357              		.cfi_endproc
 1358              	.LFE68:
 1359              		.size	DSPsafeLoad, .-DSPsafeLoad
 1360 004e 00BF     		.section	.text.DSPread32,"ax",%progbits
 1361              		.align	2
 1362              		.global	DSPread32
 1363              		.thumb
 1364              		.thumb_func
 1365              		.type	DSPread32, %function
 1366              	DSPread32:
 1367              	.LFB69:
 218:.\dsp.c       **** 
 219:.\dsp.c       **** void DSPread32(uint16 address, uint8* datatarget, uint16 datasize)
 220:.\dsp.c       **** {
 1368              		.loc 1 220 0
 1369              		.cfi_startproc
ARM GAS  C:\Users\LUKASC~1\AppData\Local\Temp\ccKPnYen.s 			page 29


 1370              		@ args = 0, pretend = 0, frame = 24
 1371              		@ frame_needed = 1, uses_anonymous_args = 0
 1372 0000 90B5     		push	{r4, r7, lr}
 1373              		.cfi_def_cfa_offset 12
 1374              		.cfi_offset 4, -12
 1375              		.cfi_offset 7, -8
 1376              		.cfi_offset 14, -4
 1377 0002 87B0     		sub	sp, sp, #28
 1378              		.cfi_def_cfa_offset 40
 1379 0004 00AF     		add	r7, sp, #0
 1380              		.cfi_def_cfa_register 7
 1381 0006 0346     		mov	r3, r0
 1382 0008 3960     		str	r1, [r7]
 1383 000a FB80     		strh	r3, [r7, #6]	@ movhi
 1384 000c 1346     		mov	r3, r2	@ movhi
 1385 000e BB80     		strh	r3, [r7, #4]	@ movhi
 221:.\dsp.c       ****     /* Senden des Lesebefehls */
 222:.\dsp.c       ****     uint8 toSend[7];
 223:.\dsp.c       ****     toSend[0] = (uint8)((CHIPADDRESS << 1) | (READ_DSP));
 1386              		.loc 1 223 0
 1387 0010 0123     		movs	r3, #1
 1388 0012 3B73     		strb	r3, [r7, #12]
 224:.\dsp.c       ****     toSend[1] = (uint8)(address >> 8);
 1389              		.loc 1 224 0
 1390 0014 FB88     		ldrh	r3, [r7, #6]
 1391 0016 1B0A     		lsrs	r3, r3, #8
 1392 0018 9BB2     		uxth	r3, r3
 1393 001a DBB2     		uxtb	r3, r3
 1394 001c 7B73     		strb	r3, [r7, #13]
 225:.\dsp.c       ****     toSend[2] = (uint8)(address);
 1395              		.loc 1 225 0
 1396 001e FB88     		ldrh	r3, [r7, #6]	@ movhi
 1397 0020 DBB2     		uxtb	r3, r3
 1398 0022 BB73     		strb	r3, [r7, #14]
 226:.\dsp.c       ****     toSend[3] = 0u;
 1399              		.loc 1 226 0
 1400 0024 0023     		movs	r3, #0
 1401 0026 FB73     		strb	r3, [r7, #15]
 227:.\dsp.c       ****     toSend[4] = 0u;
 1402              		.loc 1 227 0
 1403 0028 0023     		movs	r3, #0
 1404 002a 3B74     		strb	r3, [r7, #16]
 228:.\dsp.c       ****     toSend[3] = 0u;
 1405              		.loc 1 228 0
 1406 002c 0023     		movs	r3, #0
 1407 002e FB73     		strb	r3, [r7, #15]
 229:.\dsp.c       ****     toSend[4] = 0u;
 1408              		.loc 1 229 0
 1409 0030 0023     		movs	r3, #0
 1410 0032 3B74     		strb	r3, [r7, #16]
 230:.\dsp.c       ****     SPIM_ClearRxBuffer();
 1411              		.loc 1 230 0
 1412 0034 FFF7FEFF 		bl	SPIM_ClearRxBuffer
 231:.\dsp.c       ****     SPIsendArray(&toSend[0],7);
 1413              		.loc 1 231 0
 1414 0038 07F10C03 		add	r3, r7, #12
 1415 003c 1846     		mov	r0, r3
ARM GAS  C:\Users\LUKASC~1\AppData\Local\Temp\ccKPnYen.s 			page 30


 1416 003e 0721     		movs	r1, #7
 1417 0040 FFF7FEFF 		bl	SPIsendArray
 232:.\dsp.c       ****     
 233:.\dsp.c       ****     /* Lesen */
 234:.\dsp.c       ****     uint16 i=0;
 1418              		.loc 1 234 0
 1419 0044 0023     		movs	r3, #0
 1420 0046 FB82     		strh	r3, [r7, #22]	@ movhi
 235:.\dsp.c       ****     while(i<datasize)
 1421              		.loc 1 235 0
 1422 0048 09E0     		b	.L15
 1423              	.L16:
 236:.\dsp.c       ****     {
 237:.\dsp.c       ****         datatarget[i] = SPIreadNumber();
 1424              		.loc 1 237 0
 1425 004a FB8A     		ldrh	r3, [r7, #22]
 1426 004c 3A68     		ldr	r2, [r7]
 1427 004e D418     		adds	r4, r2, r3
 1428 0050 FFF7FEFF 		bl	SPIreadNumber
 1429 0054 0346     		mov	r3, r0
 1430 0056 2370     		strb	r3, [r4]
 238:.\dsp.c       ****         i++;
 1431              		.loc 1 238 0
 1432 0058 FB8A     		ldrh	r3, [r7, #22]
 1433 005a 0133     		adds	r3, r3, #1
 1434 005c FB82     		strh	r3, [r7, #22]	@ movhi
 1435              	.L15:
 235:.\dsp.c       ****     while(i<datasize)
 1436              		.loc 1 235 0
 1437 005e FA8A     		ldrh	r2, [r7, #22]
 1438 0060 BB88     		ldrh	r3, [r7, #4]
 1439 0062 9A42     		cmp	r2, r3
 1440 0064 F1D3     		bcc	.L16
 239:.\dsp.c       ****     }
 240:.\dsp.c       ****     
 241:.\dsp.c       **** }
 1441              		.loc 1 241 0
 1442 0066 1C37     		adds	r7, r7, #28
 1443              		.cfi_def_cfa_offset 12
 1444 0068 BD46     		mov	sp, r7
 1445              		.cfi_def_cfa_register 13
 1446              		@ sp needed
 1447 006a 90BD     		pop	{r4, r7, pc}
 1448              		.cfi_endproc
 1449              	.LFE69:
 1450              		.size	DSPread32, .-DSPread32
 1451              		.section	.text.DSPi2sInput,"ax",%progbits
 1452              		.align	2
 1453              		.global	DSPi2sInput
 1454              		.thumb
 1455              		.thumb_func
 1456              		.type	DSPi2sInput, %function
 1457              	DSPi2sInput:
 1458              	.LFB70:
 242:.\dsp.c       **** 
 243:.\dsp.c       **** void DSPi2sInput(uint8 active)
 244:.\dsp.c       **** {
ARM GAS  C:\Users\LUKASC~1\AppData\Local\Temp\ccKPnYen.s 			page 31


 1459              		.loc 1 244 0
 1460              		.cfi_startproc
 1461              		@ args = 0, pretend = 0, frame = 8
 1462              		@ frame_needed = 1, uses_anonymous_args = 0
 1463 0000 80B5     		push	{r7, lr}
 1464              		.cfi_def_cfa_offset 8
 1465              		.cfi_offset 7, -8
 1466              		.cfi_offset 14, -4
 1467 0002 82B0     		sub	sp, sp, #8
 1468              		.cfi_def_cfa_offset 16
 1469 0004 00AF     		add	r7, sp, #0
 1470              		.cfi_def_cfa_register 7
 1471 0006 0346     		mov	r3, r0
 1472 0008 FB71     		strb	r3, [r7, #7]
 245:.\dsp.c       ****     /* generated input */
 246:.\dsp.c       ****     if(active==0)
 1473              		.loc 1 246 0
 1474 000a FB79     		ldrb	r3, [r7, #7]	@ zero_extendqisi2
 1475 000c 002B     		cmp	r3, #0
 1476 000e 0ED1     		bne	.L18
 247:.\dsp.c       ****     {
 248:.\dsp.c       ****         /* i2s mute */
 249:.\dsp.c       ****         DSPwriteWord32(0x0000,0x00000000);
 1477              		.loc 1 249 0
 1478 0010 0020     		movs	r0, #0
 1479 0012 0021     		movs	r1, #0
 1480 0014 FFF7FEFF 		bl	DSPwriteWord32
 250:.\dsp.c       ****         /* unmute generator */
 251:.\dsp.c       ****         DSPwriteWord32(0x0000,0x01000000); //data
 1481              		.loc 1 251 0
 1482 0018 0020     		movs	r0, #0
 1483 001a 4FF08071 		mov	r1, #16777216
 1484 001e FFF7FEFF 		bl	DSPwriteWord32
 252:.\dsp.c       ****         DSPwriteWord32(0x0000,0x0000208A); //slew mode
 1485              		.loc 1 252 0
 1486 0022 0020     		movs	r0, #0
 1487 0024 42F28A01 		movw	r1, #8330
 1488 0028 FFF7FEFF 		bl	DSPwriteWord32
 1489 002c 0CE0     		b	.L17
 1490              	.L18:
 253:.\dsp.c       ****     }
 254:.\dsp.c       ****     else
 255:.\dsp.c       ****     {
 256:.\dsp.c       ****         /* mute generator */
 257:.\dsp.c       ****         DSPwriteWord32(0x0000,0x00000000); //data
 1491              		.loc 1 257 0
 1492 002e 0020     		movs	r0, #0
 1493 0030 0021     		movs	r1, #0
 1494 0032 FFF7FEFF 		bl	DSPwriteWord32
 258:.\dsp.c       ****         DSPwriteWord32(0x0000,0x0000208A); //slew mode
 1495              		.loc 1 258 0
 1496 0036 0020     		movs	r0, #0
 1497 0038 42F28A01 		movw	r1, #8330
 1498 003c FFF7FEFF 		bl	DSPwriteWord32
 259:.\dsp.c       ****         /* i2s mute */
 260:.\dsp.c       ****         DSPwriteWord32(0x0000,0x00000001);
 1499              		.loc 1 260 0
ARM GAS  C:\Users\LUKASC~1\AppData\Local\Temp\ccKPnYen.s 			page 32


 1500 0040 0020     		movs	r0, #0
 1501 0042 0121     		movs	r1, #1
 1502 0044 FFF7FEFF 		bl	DSPwriteWord32
 1503              	.L17:
 261:.\dsp.c       ****     }
 262:.\dsp.c       **** }
 1504              		.loc 1 262 0
 1505 0048 0837     		adds	r7, r7, #8
 1506              		.cfi_def_cfa_offset 8
 1507 004a BD46     		mov	sp, r7
 1508              		.cfi_def_cfa_register 13
 1509              		@ sp needed
 1510 004c 80BD     		pop	{r7, pc}
 1511              		.cfi_endproc
 1512              	.LFE70:
 1513              		.size	DSPi2sInput, .-DSPi2sInput
 1514 004e 00BF     		.section	.text.DSPpitch,"ax",%progbits
 1515              		.align	2
 1516              		.global	DSPpitch
 1517              		.thumb
 1518              		.thumb_func
 1519              		.type	DSPpitch, %function
 1520              	DSPpitch:
 1521              	.LFB71:
 263:.\dsp.c       **** 
 264:.\dsp.c       **** void DSPpitch(int32 pitch)
 265:.\dsp.c       **** {
 1522              		.loc 1 265 0
 1523              		.cfi_startproc
 1524              		@ args = 0, pretend = 0, frame = 8
 1525              		@ frame_needed = 1, uses_anonymous_args = 0
 1526 0000 80B5     		push	{r7, lr}
 1527              		.cfi_def_cfa_offset 8
 1528              		.cfi_offset 7, -8
 1529              		.cfi_offset 14, -4
 1530 0002 82B0     		sub	sp, sp, #8
 1531              		.cfi_def_cfa_offset 16
 1532 0004 00AF     		add	r7, sp, #0
 1533              		.cfi_def_cfa_register 7
 1534 0006 7860     		str	r0, [r7, #4]
 266:.\dsp.c       ****     /* Wert zwischen 0x00008889 und 0xFFFF7777 */
 267:.\dsp.c       ****     DSPwriteWord32(0x0000,pitch);
 1535              		.loc 1 267 0
 1536 0008 7B68     		ldr	r3, [r7, #4]
 1537 000a 0020     		movs	r0, #0
 1538 000c 1946     		mov	r1, r3
 1539 000e FFF7FEFF 		bl	DSPwriteWord32
 268:.\dsp.c       **** }
 1540              		.loc 1 268 0
 1541 0012 0837     		adds	r7, r7, #8
 1542              		.cfi_def_cfa_offset 8
 1543 0014 BD46     		mov	sp, r7
 1544              		.cfi_def_cfa_register 13
 1545              		@ sp needed
 1546 0016 80BD     		pop	{r7, pc}
 1547              		.cfi_endproc
 1548              	.LFE71:
ARM GAS  C:\Users\LUKASC~1\AppData\Local\Temp\ccKPnYen.s 			page 33


 1549              		.size	DSPpitch, .-DSPpitch
 1550              		.text
 1551              	.Letext0:
 1552              		.file 2 "c:\\program files (x86)\\cypress\\psoc creator\\3.3\\psoc creator\\import\\gnu\\arm\\4.9.
 1553              		.file 3 "c:\\program files (x86)\\cypress\\psoc creator\\3.3\\psoc creator\\import\\gnu\\arm\\4.9.
 1554              		.file 4 "Generated_Source\\PSoC5/cytypes.h"
 1555              		.file 5 "Generated_Source\\PSoC5/core_cm3.h"
 1556              		.file 6 ".\\spimaster.h"