ARM GAS  C:\Users\LUKASC~1\AppData\Local\Temp\cc2Dmphf.s 			page 1


   1              		.syntax unified
   2              		.cpu cortex-m3
   3              		.fpu softvfp
   4              		.eabi_attribute 20, 1
   5              		.eabi_attribute 21, 1
   6              		.eabi_attribute 23, 3
   7              		.eabi_attribute 24, 1
   8              		.eabi_attribute 25, 1
   9              		.eabi_attribute 26, 1
  10              		.eabi_attribute 30, 6
  11              		.eabi_attribute 34, 1
  12              		.eabi_attribute 18, 4
  13              		.thumb
  14              		.file	"funk.c"
  15              		.text
  16              	.Ltext0:
  17              		.cfi_sections	.debug_frame
  18              		.global _printf_float
  19              		.thumb
  20              		.comm	temp,1,1
  21              		.global	q
  22              		.bss
  23              		.type	q, %object
  24              		.size	q, 1
  25              	q:
  26 0000 00       		.space	1
  27              		.comm	data_array,4,4
  28              		.global	tx_address
  29              		.data
  30              		.align	2
  31              		.type	tx_address, %object
  32              		.size	tx_address, 5
  33              	tx_address:
  34 0000 E7       		.byte	-25
  35 0001 E7       		.byte	-25
  36 0002 E7       		.byte	-25
  37 0003 E7       		.byte	-25
  38 0004 E7       		.byte	-25
  39              		.global	rx_address
  40 0005 000000   		.align	2
  41              		.type	rx_address, %object
  42              		.size	rx_address, 5
  43              	rx_address:
  44 0008 D7       		.byte	-41
  45 0009 D7       		.byte	-41
  46 000a D7       		.byte	-41
  47 000b D7       		.byte	-41
  48 000c D7       		.byte	-41
  49 000d 000000   		.section	.rodata
  50              		.align	2
  51              	.LC0:
  52 0000 54582069 		.ascii	"TX init\000"
  52      6E697400 
  53              		.align	2
  54              	.LC1:
  55 0008 3E205472 		.ascii	"> Tranmission went OK\015\012\000"
  55      616E6D69 
ARM GAS  C:\Users\LUKASC~1\AppData\Local\Temp\cc2Dmphf.s 			page 2


  55      7373696F 
  55      6E207765 
  55      6E74204F 
  56              		.align	2
  57              	.LC2:
  58 0020 3E204D65 		.ascii	"> Message is lost ...\015\012\000"
  58      73736167 
  58      65206973 
  58      206C6F73 
  58      74202E2E 
  59              		.align	2
  60              	.LC3:
  61 0038 3E205265 		.ascii	"> Retranmission count: \000"
  61      7472616E 
  61      6D697373 
  61      696F6E20 
  61      636F756E 
  62              		.section	.text.funkTxTest,"ax",%progbits
  63              		.align	2
  64              		.global	funkTxTest
  65              		.thumb
  66              		.thumb_func
  67              		.type	funkTxTest, %function
  68              	funkTxTest:
  69              	.LFB63:
  70              		.file 1 ".\\funk.c"
   1:.\funk.c      **** /*
   2:.\funk.c      **** * funk.c 
   3:.\funk.c      **** * Author: Lukas Creutzburg
   4:.\funk.c      **** * Based on:
   5:.\funk.c      **** * ----------------------------------------------------------------------------
   6:.\funk.c      **** * THE COFFEEWARE LICENSE (Revision 1):
   7:.\funk.c      **** * <ihsan@kehribar.me> wrote this file. As long as you retain this notice you
   8:.\funk.c      **** * can do whatever you want with this stuff. If we meet some day, and you think
   9:.\funk.c      **** * this stuff is worth it, you can buy me a coffee in return.
  10:.\funk.c      **** * -----------------------------------------------------------------------------
  11:.\funk.c      **** *
  12:.\funk.c      **** * Version: 0.1
  13:.\funk.c      **** */
  14:.\funk.c      **** 
  15:.\funk.c      **** #include "funk.h"
  16:.\funk.c      **** 
  17:.\funk.c      **** 
  18:.\funk.c      **** /* ------------------------------------------------------------------------- */
  19:.\funk.c      **** uint8 temp;
  20:.\funk.c      **** uint8 q = 0;
  21:.\funk.c      **** uint8 data_array[4];
  22:.\funk.c      **** uint8 tx_address[5] = {0xE7,0xE7,0xE7,0xE7,0xE7};
  23:.\funk.c      **** uint8 rx_address[5] = {0xD7,0xD7,0xD7,0xD7,0xD7};
  24:.\funk.c      **** /* ------------------------------------------------------------------------- */
  25:.\funk.c      **** int funkTxTest()
  26:.\funk.c      **** {
  71              		.loc 1 26 0
  72              		.cfi_startproc
  73              		@ args = 0, pretend = 0, frame = 0
  74              		@ frame_needed = 1, uses_anonymous_args = 0
  75 0000 80B5     		push	{r7, lr}
ARM GAS  C:\Users\LUKASC~1\AppData\Local\Temp\cc2Dmphf.s 			page 3


  76              		.cfi_def_cfa_offset 8
  77              		.cfi_offset 7, -8
  78              		.cfi_offset 14, -4
  79 0002 00AF     		add	r7, sp, #0
  80              		.cfi_def_cfa_register 7
  27:.\funk.c      ****     UARTsendString("TX init");
  81              		.loc 1 27 0
  82 0004 2E48     		ldr	r0, .L6
  83 0006 FFF7FEFF 		bl	UARTsendString
  28:.\funk.c      ****     
  29:.\funk.c      ****     /* init hardware pins */
  30:.\funk.c      ****     nrf24_init();
  84              		.loc 1 30 0
  85 000a FFF7FEFF 		bl	nrf24_init
  31:.\funk.c      ****     
  32:.\funk.c      ****     /* Channel #2 , payload length: 4 */
  33:.\funk.c      ****     nrf24_config(2,4);
  86              		.loc 1 33 0
  87 000e 0220     		movs	r0, #2
  88 0010 0421     		movs	r1, #4
  89 0012 FFF7FEFF 		bl	nrf24_config
  34:.\funk.c      **** 
  35:.\funk.c      ****     /* Set the device addresses */
  36:.\funk.c      ****     nrf24_tx_address(tx_address);
  90              		.loc 1 36 0
  91 0016 2B48     		ldr	r0, .L6+4
  92 0018 FFF7FEFF 		bl	nrf24_tx_address
  37:.\funk.c      ****     nrf24_rx_address(rx_address);    
  93              		.loc 1 37 0
  94 001c 2A48     		ldr	r0, .L6+8
  95 001e FFF7FEFF 		bl	nrf24_rx_address
  96              	.L5:
  38:.\funk.c      **** 
  39:.\funk.c      ****     while(1)
  40:.\funk.c      ****     {                
  41:.\funk.c      ****         /* Fill the data buffer */
  42:.\funk.c      ****         data_array[0] = 0x00;
  97              		.loc 1 42 0
  98 0022 2A4B     		ldr	r3, .L6+12
  99 0024 0022     		movs	r2, #0
 100 0026 1A70     		strb	r2, [r3]
  43:.\funk.c      ****         data_array[1] = 0xAA;
 101              		.loc 1 43 0
 102 0028 284B     		ldr	r3, .L6+12
 103 002a AA22     		movs	r2, #170
 104 002c 5A70     		strb	r2, [r3, #1]
  44:.\funk.c      ****         data_array[2] = 0x55;
 105              		.loc 1 44 0
 106 002e 274B     		ldr	r3, .L6+12
 107 0030 5522     		movs	r2, #85
 108 0032 9A70     		strb	r2, [r3, #2]
  45:.\funk.c      ****         data_array[3] = q++;                                    
 109              		.loc 1 45 0
 110 0034 264B     		ldr	r3, .L6+16
 111 0036 1B78     		ldrb	r3, [r3]	@ zero_extendqisi2
 112 0038 5A1C     		adds	r2, r3, #1
 113 003a D1B2     		uxtb	r1, r2
ARM GAS  C:\Users\LUKASC~1\AppData\Local\Temp\cc2Dmphf.s 			page 4


 114 003c 244A     		ldr	r2, .L6+16
 115 003e 1170     		strb	r1, [r2]
 116 0040 224A     		ldr	r2, .L6+12
 117 0042 D370     		strb	r3, [r2, #3]
  46:.\funk.c      **** 
  47:.\funk.c      ****         /* Automatically goes to TX mode */
  48:.\funk.c      ****         nrf24_send(data_array);        
 118              		.loc 1 48 0
 119 0044 2148     		ldr	r0, .L6+12
 120 0046 FFF7FEFF 		bl	nrf24_send
  49:.\funk.c      ****         
  50:.\funk.c      ****         /* Wait for transmission to end */
  51:.\funk.c      ****         while(nrf24_isSending());
 121              		.loc 1 51 0
 122 004a 00BF     		nop
 123              	.L2:
 124              		.loc 1 51 0 is_stmt 0 discriminator 1
 125 004c FFF7FEFF 		bl	nrf24_isSending
 126 0050 0346     		mov	r3, r0
 127 0052 002B     		cmp	r3, #0
 128 0054 FAD1     		bne	.L2
  52:.\funk.c      **** 
  53:.\funk.c      ****         /* Make analysis on last tranmission attempt */
  54:.\funk.c      ****         temp = nrf24_lastMessageStatus();
 129              		.loc 1 54 0 is_stmt 1
 130 0056 FFF7FEFF 		bl	nrf24_lastMessageStatus
 131 005a 0346     		mov	r3, r0
 132 005c 1A46     		mov	r2, r3
 133 005e 1D4B     		ldr	r3, .L6+20
 134 0060 1A70     		strb	r2, [r3]
  55:.\funk.c      **** 
  56:.\funk.c      ****         if(temp == NRF24_TRANSMISSON_OK)
 135              		.loc 1 56 0
 136 0062 1C4B     		ldr	r3, .L6+20
 137 0064 1B78     		ldrb	r3, [r3]	@ zero_extendqisi2
 138 0066 002B     		cmp	r3, #0
 139 0068 0ED1     		bne	.L3
  57:.\funk.c      ****         {                    
  58:.\funk.c      ****             UARTsendString("> Tranmission went OK\r\n");
 140              		.loc 1 58 0
 141 006a 1B48     		ldr	r0, .L6+24
 142 006c FFF7FEFF 		bl	UARTsendString
  59:.\funk.c      ****             LED_Write(!LED_Read());
 143              		.loc 1 59 0
 144 0070 FFF7FEFF 		bl	LED_Read
 145 0074 0346     		mov	r3, r0
 146 0076 002B     		cmp	r3, #0
 147 0078 0CBF     		ite	eq
 148 007a 0123     		moveq	r3, #1
 149 007c 0023     		movne	r3, #0
 150 007e DBB2     		uxtb	r3, r3
 151 0080 1846     		mov	r0, r3
 152 0082 FFF7FEFF 		bl	LED_Write
 153 0086 06E0     		b	.L4
 154              	.L3:
  60:.\funk.c      ****         }
  61:.\funk.c      ****         else if(temp == NRF24_MESSAGE_LOST)
ARM GAS  C:\Users\LUKASC~1\AppData\Local\Temp\cc2Dmphf.s 			page 5


 155              		.loc 1 61 0
 156 0088 124B     		ldr	r3, .L6+20
 157 008a 1B78     		ldrb	r3, [r3]	@ zero_extendqisi2
 158 008c 012B     		cmp	r3, #1
 159 008e 02D1     		bne	.L4
  62:.\funk.c      ****         {                    
  63:.\funk.c      ****             UARTsendString("> Message is lost ...\r\n");    
 160              		.loc 1 63 0
 161 0090 1248     		ldr	r0, .L6+28
 162 0092 FFF7FEFF 		bl	UARTsendString
 163              	.L4:
  64:.\funk.c      ****         }
  65:.\funk.c      ****         
  66:.\funk.c      **** 		/* Retranmission count indicates the tranmission quality */
  67:.\funk.c      **** 		temp = nrf24_retransmissionCount();
 164              		.loc 1 67 0
 165 0096 FFF7FEFF 		bl	nrf24_retransmissionCount
 166 009a 0346     		mov	r3, r0
 167 009c 1A46     		mov	r2, r3
 168 009e 0D4B     		ldr	r3, .L6+20
 169 00a0 1A70     		strb	r2, [r3]
  68:.\funk.c      **** 		UARTsendString("> Retranmission count: ");
 170              		.loc 1 68 0
 171 00a2 0F48     		ldr	r0, .L6+32
 172 00a4 FFF7FEFF 		bl	UARTsendString
  69:.\funk.c      ****         UARTsendNumber(temp);
 173              		.loc 1 69 0
 174 00a8 0A4B     		ldr	r3, .L6+20
 175 00aa 1B78     		ldrb	r3, [r3]	@ zero_extendqisi2
 176 00ac 1846     		mov	r0, r3
 177 00ae FFF7FEFF 		bl	UARTsendNumber
  70:.\funk.c      **** 
  71:.\funk.c      **** 		/* Optionally, go back to RX mode ... */
  72:.\funk.c      **** 		nrf24_powerUpRx();
 178              		.loc 1 72 0
 179 00b2 FFF7FEFF 		bl	nrf24_powerUpRx
  73:.\funk.c      **** 
  74:.\funk.c      **** 		/* Or you might want to power down after TX */
  75:.\funk.c      **** 		// nrf24_powerDown();            
  76:.\funk.c      **** 
  77:.\funk.c      **** 		/* Wait a little ... */
  78:.\funk.c      **** 		CyDelay(10);
 180              		.loc 1 78 0
 181 00b6 0A20     		movs	r0, #10
 182 00b8 FFF7FEFF 		bl	CyDelay
  79:.\funk.c      ****     }
 183              		.loc 1 79 0
 184 00bc B1E7     		b	.L5
 185              	.L7:
 186 00be 00BF     		.align	2
 187              	.L6:
 188 00c0 00000000 		.word	.LC0
 189 00c4 00000000 		.word	tx_address
 190 00c8 00000000 		.word	rx_address
 191 00cc 00000000 		.word	data_array
 192 00d0 00000000 		.word	q
 193 00d4 00000000 		.word	temp
ARM GAS  C:\Users\LUKASC~1\AppData\Local\Temp\cc2Dmphf.s 			page 6


 194 00d8 08000000 		.word	.LC1
 195 00dc 20000000 		.word	.LC2
 196 00e0 38000000 		.word	.LC3
 197              		.cfi_endproc
 198              	.LFE63:
 199              		.size	funkTxTest, .-funkTxTest
 200              		.section	.rodata
 201              		.align	2
 202              	.LC4:
 203 0050 52582069 		.ascii	"RX init...\000"
 203      6E69742E 
 203      2E2E00
 204 005b 00       		.align	2
 205              	.LC5:
 206 005c 3E2000   		.ascii	"> \000"
 207 005f 00       		.section	.text.funkRxTest,"ax",%progbits
 208              		.align	2
 209              		.global	funkRxTest
 210              		.thumb
 211              		.thumb_func
 212              		.type	funkRxTest, %function
 213              	funkRxTest:
 214              	.LFB64:
  80:.\funk.c      **** }
  81:.\funk.c      **** 
  82:.\funk.c      **** int funkRxTest()
  83:.\funk.c      **** {
 215              		.loc 1 83 0
 216              		.cfi_startproc
 217              		@ args = 0, pretend = 0, frame = 0
 218              		@ frame_needed = 1, uses_anonymous_args = 0
 219 0000 80B5     		push	{r7, lr}
 220              		.cfi_def_cfa_offset 8
 221              		.cfi_offset 7, -8
 222              		.cfi_offset 14, -4
 223 0002 00AF     		add	r7, sp, #0
 224              		.cfi_def_cfa_register 7
  84:.\funk.c      ****     UARTsendString("RX init...");
 225              		.loc 1 84 0
 226 0004 1748     		ldr	r0, .L11
 227 0006 FFF7FEFF 		bl	UARTsendString
  85:.\funk.c      ****     /* init hardware pins */
  86:.\funk.c      ****     nrf24_init();
 228              		.loc 1 86 0
 229 000a FFF7FEFF 		bl	nrf24_init
  87:.\funk.c      ****     
  88:.\funk.c      ****     /* Channel #2 , payload length: 4 */
  89:.\funk.c      ****     nrf24_config(2,4);
 230              		.loc 1 89 0
 231 000e 0220     		movs	r0, #2
 232 0010 0421     		movs	r1, #4
 233 0012 FFF7FEFF 		bl	nrf24_config
  90:.\funk.c      ****  
  91:.\funk.c      ****     /* Set the device addresses */
  92:.\funk.c      ****     nrf24_tx_address(tx_address);
 234              		.loc 1 92 0
 235 0016 1448     		ldr	r0, .L11+4
ARM GAS  C:\Users\LUKASC~1\AppData\Local\Temp\cc2Dmphf.s 			page 7


 236 0018 FFF7FEFF 		bl	nrf24_tx_address
  93:.\funk.c      ****     nrf24_rx_address(rx_address);
 237              		.loc 1 93 0
 238 001c 1348     		ldr	r0, .L11+8
 239 001e FFF7FEFF 		bl	nrf24_rx_address
 240              	.L10:
  94:.\funk.c      **** 
  95:.\funk.c      ****     while(1)
  96:.\funk.c      ****     {    
  97:.\funk.c      ****         if(nrf24_dataReady())
 241              		.loc 1 97 0
 242 0022 FFF7FEFF 		bl	nrf24_dataReady
 243 0026 0346     		mov	r3, r0
 244 0028 002B     		cmp	r3, #0
 245 002a 19D0     		beq	.L9
  98:.\funk.c      ****         {
  99:.\funk.c      ****             nrf24_getData(data_array);        
 246              		.loc 1 99 0
 247 002c 1048     		ldr	r0, .L11+12
 248 002e FFF7FEFF 		bl	nrf24_getData
 100:.\funk.c      ****             UARTsendString("> ");
 249              		.loc 1 100 0
 250 0032 1048     		ldr	r0, .L11+16
 251 0034 FFF7FEFF 		bl	UARTsendString
 101:.\funk.c      ****             UARTsendNumber(data_array[0]);
 252              		.loc 1 101 0
 253 0038 0D4B     		ldr	r3, .L11+12
 254 003a 1B78     		ldrb	r3, [r3]	@ zero_extendqisi2
 255 003c 1846     		mov	r0, r3
 256 003e FFF7FEFF 		bl	UARTsendNumber
 102:.\funk.c      ****             UARTsendNumber(data_array[1]);
 257              		.loc 1 102 0
 258 0042 0B4B     		ldr	r3, .L11+12
 259 0044 5B78     		ldrb	r3, [r3, #1]	@ zero_extendqisi2
 260 0046 1846     		mov	r0, r3
 261 0048 FFF7FEFF 		bl	UARTsendNumber
 103:.\funk.c      ****             UARTsendNumber(data_array[2]);
 262              		.loc 1 103 0
 263 004c 084B     		ldr	r3, .L11+12
 264 004e 9B78     		ldrb	r3, [r3, #2]	@ zero_extendqisi2
 265 0050 1846     		mov	r0, r3
 266 0052 FFF7FEFF 		bl	UARTsendNumber
 104:.\funk.c      ****             UARTsendNumber(data_array[3]);
 267              		.loc 1 104 0
 268 0056 064B     		ldr	r3, .L11+12
 269 0058 DB78     		ldrb	r3, [r3, #3]	@ zero_extendqisi2
 270 005a 1846     		mov	r0, r3
 271 005c FFF7FEFF 		bl	UARTsendNumber
 272              	.L9:
 105:.\funk.c      ****         }
 106:.\funk.c      ****     }
 273              		.loc 1 106 0
 274 0060 DFE7     		b	.L10
 275              	.L12:
 276 0062 00BF     		.align	2
 277              	.L11:
 278 0064 50000000 		.word	.LC4
ARM GAS  C:\Users\LUKASC~1\AppData\Local\Temp\cc2Dmphf.s 			page 8


 279 0068 00000000 		.word	tx_address
 280 006c 00000000 		.word	rx_address
 281 0070 00000000 		.word	data_array
 282 0074 5C000000 		.word	.LC5
 283              		.cfi_endproc
 284              	.LFE64:
 285              		.size	funkRxTest, .-funkRxTest
 286              		.text
 287              	.Letext0:
 288              		.file 2 "c:\\program files (x86)\\cypress\\psoc creator\\3.3\\psoc creator\\import\\gnu\\arm\\4.9.
 289              		.file 3 "c:\\program files (x86)\\cypress\\psoc creator\\3.3\\psoc creator\\import\\gnu\\arm\\4.9.
 290              		.file 4 "Generated_Source\\PSoC5/cytypes.h"
 291              		.file 5 "Generated_Source\\PSoC5/core_cm3.h"