ARM GAS  C:\Users\LUKASC~1\AppData\Local\Temp\ccanWeFd.s 			page 1


   1              		.syntax unified
   2              		.cpu cortex-m3
   3              		.fpu softvfp
   4              		.eabi_attribute 20, 1
   5              		.eabi_attribute 21, 1
   6              		.eabi_attribute 23, 3
   7              		.eabi_attribute 24, 1
   8              		.eabi_attribute 25, 1
   9              		.eabi_attribute 26, 1
  10              		.eabi_attribute 30, 6
  11              		.eabi_attribute 34, 1
  12              		.eabi_attribute 18, 4
  13              		.thumb
  14              		.file	"i2s.c"
  15              		.text
  16              	.Ltext0:
  17              		.cfi_sections	.debug_frame
  18              		.global _printf_float
  19              		.thumb
  20              		.comm	wrBuffer,64,4
  21              		.comm	temp,1,1
  22              		.global _printf_float
  23              		.global _printf_float
  24              		.thumb
  25              		.comm	txBuff,1984,4
  26              		.comm	txDmaChan,4,4
  27              		.comm	txDmaTd,4,4
  28              		.section	.text.I2Sinit,"ax",%progbits
  29              		.align	2
  30              		.global	I2Sinit
  31              		.thumb
  32              		.thumb_func
  33              		.type	I2Sinit, %function
  34              	I2Sinit:
  35              	.LFB63:
  36              		.file 1 ".\\i2s.c"
   1:.\i2s.c       **** /*******************************************************************************
   2:.\i2s.c       **** * File Name: i2s.c
   3:.\i2s.c       **** *
   4:.\i2s.c       **** * Version: 0.0 
   5:.\i2s.c       **** * Author: Lukas Creutzburg
   6:.\i2s.c       **** *
   7:.\i2s.c       **** * Description:
   8:.\i2s.c       **** *   Interaction with DSP via I2S
   9:.\i2s.c       **** *
  10:.\i2s.c       **** *
  11:.\i2s.c       **** *******************************************************************************/
  12:.\i2s.c       **** 
  13:.\i2s.c       **** #include "i2s.h"
  14:.\i2s.c       **** 
  15:.\i2s.c       **** /* Data to be transmitted by Tx */
  16:.\i2s.c       **** uint32 txBuff[BUFFER_SIZE];
  17:.\i2s.c       **** 
  18:.\i2s.c       **** /* Variable declarations for TxDMA */
  19:.\i2s.c       **** uint32 txDmaChan;
  20:.\i2s.c       **** uint32 txDmaTd[1u];
  21:.\i2s.c       **** 
ARM GAS  C:\Users\LUKASC~1\AppData\Local\Temp\ccanWeFd.s 			page 2


  22:.\i2s.c       **** 
  23:.\i2s.c       **** void I2Sinit()
  24:.\i2s.c       **** {
  37              		.loc 1 24 0
  38              		.cfi_startproc
  39              		@ args = 0, pretend = 0, frame = 8
  40              		@ frame_needed = 1, uses_anonymous_args = 0
  41 0000 80B5     		push	{r7, lr}
  42              		.cfi_def_cfa_offset 8
  43              		.cfi_offset 7, -8
  44              		.cfi_offset 14, -4
  45 0002 82B0     		sub	sp, sp, #8
  46              		.cfi_def_cfa_offset 16
  47 0004 00AF     		add	r7, sp, #0
  48              		.cfi_def_cfa_register 7
  25:.\i2s.c       ****     int i;
  26:.\i2s.c       ****     for(i=0;i<255;i++){
  49              		.loc 1 26 0
  50 0006 0023     		movs	r3, #0
  51 0008 7B60     		str	r3, [r7, #4]
  52 000a 08E0     		b	.L2
  53              	.L3:
  27:.\i2s.c       ****         txBuff[i]=(uint32)(0xFFFFFFFF);
  54              		.loc 1 27 0 discriminator 3
  55 000c 184A     		ldr	r2, .L7
  56 000e 7B68     		ldr	r3, [r7, #4]
  57 0010 4FF0FF31 		mov	r1, #-1
  58 0014 42F82310 		str	r1, [r2, r3, lsl #2]
  26:.\i2s.c       ****         txBuff[i]=(uint32)(0xFFFFFFFF);
  59              		.loc 1 26 0 discriminator 3
  60 0018 7B68     		ldr	r3, [r7, #4]
  61 001a 0133     		adds	r3, r3, #1
  62 001c 7B60     		str	r3, [r7, #4]
  63              	.L2:
  26:.\i2s.c       ****         txBuff[i]=(uint32)(0xFFFFFFFF);
  64              		.loc 1 26 0 is_stmt 0 discriminator 1
  65 001e 7B68     		ldr	r3, [r7, #4]
  66 0020 FE2B     		cmp	r3, #254
  67 0022 F3DD     		ble	.L3
  28:.\i2s.c       ****     }
  29:.\i2s.c       ****     for(i=255;i<496;i++){
  68              		.loc 1 29 0 is_stmt 1
  69 0024 FF23     		movs	r3, #255
  70 0026 7B60     		str	r3, [r7, #4]
  71 0028 07E0     		b	.L4
  72              	.L5:
  30:.\i2s.c       ****         txBuff[i]=(uint32)(0x00000000);
  73              		.loc 1 30 0 discriminator 3
  74 002a 114A     		ldr	r2, .L7
  75 002c 7B68     		ldr	r3, [r7, #4]
  76 002e 0021     		movs	r1, #0
  77 0030 42F82310 		str	r1, [r2, r3, lsl #2]
  29:.\i2s.c       ****         txBuff[i]=(uint32)(0x00000000);
  78              		.loc 1 29 0 discriminator 3
  79 0034 7B68     		ldr	r3, [r7, #4]
  80 0036 0133     		adds	r3, r3, #1
  81 0038 7B60     		str	r3, [r7, #4]
ARM GAS  C:\Users\LUKASC~1\AppData\Local\Temp\ccanWeFd.s 			page 3


  82              	.L4:
  29:.\i2s.c       ****         txBuff[i]=(uint32)(0x00000000);
  83              		.loc 1 29 0 is_stmt 0 discriminator 1
  84 003a 7B68     		ldr	r3, [r7, #4]
  85 003c B3F5F87F 		cmp	r3, #496
  86 0040 F3DB     		blt	.L5
  31:.\i2s.c       ****     }
  32:.\i2s.c       ****     I2S_1_Start();
  87              		.loc 1 32 0 is_stmt 1
  88 0042 FFF7FEFF 		bl	I2S_1_Start
  33:.\i2s.c       ****     I2S_1_EnableTx();
  89              		.loc 1 33 0
  90 0046 FFF7FEFF 		bl	I2S_1_EnableTx
  34:.\i2s.c       ****     
  35:.\i2s.c       ****     /* Configure DMA */ 
  36:.\i2s.c       ****     DmaTxConfiguration();
  91              		.loc 1 36 0
  92 004a FFF7FEFF 		bl	DmaTxConfiguration
  37:.\i2s.c       ****     
  38:.\i2s.c       ****     while(0u != (I2S_1_ReadTxStatus() & I2S_1_TX_FIFO_0_NOT_FULL))
  93              		.loc 1 38 0
  94 004e 00BF     		nop
  95              	.L6:
  96              		.loc 1 38 0 is_stmt 0 discriminator 1
  97 0050 084B     		ldr	r3, .L7+4
  98 0052 1B78     		ldrb	r3, [r3]
  99 0054 DBB2     		uxtb	r3, r3
 100 0056 03F00203 		and	r3, r3, #2
 101 005a 002B     		cmp	r3, #0
 102 005c F8D1     		bne	.L6
  39:.\i2s.c       ****     {
  40:.\i2s.c       ****         /* Wait for TxDMA to fill Tx FIFO */
  41:.\i2s.c       ****     }
  42:.\i2s.c       ****     CyDelayUs(1);
 103              		.loc 1 42 0 is_stmt 1
 104 005e 0120     		movs	r0, #1
 105 0060 FFF7FEFF 		bl	CyDelayUs
  43:.\i2s.c       ****     I2S_1_EnableTx();   /* Enable Tx direction */
 106              		.loc 1 43 0
 107 0064 FFF7FEFF 		bl	I2S_1_EnableTx
  44:.\i2s.c       **** }
 108              		.loc 1 44 0
 109 0068 0837     		adds	r7, r7, #8
 110              		.cfi_def_cfa_offset 8
 111 006a BD46     		mov	sp, r7
 112              		.cfi_def_cfa_register 13
 113              		@ sp needed
 114 006c 80BD     		pop	{r7, pc}
 115              	.L8:
 116 006e 00BF     		.align	2
 117              	.L7:
 118 0070 00000000 		.word	txBuff
 119 0074 66650040 		.word	1073767782
 120              		.cfi_endproc
 121              	.LFE63:
 122              		.size	I2Sinit, .-I2Sinit
 123              		.section	.text.I2Stest,"ax",%progbits
ARM GAS  C:\Users\LUKASC~1\AppData\Local\Temp\ccanWeFd.s 			page 4


 124              		.align	2
 125              		.global	I2Stest
 126              		.thumb
 127              		.thumb_func
 128              		.type	I2Stest, %function
 129              	I2Stest:
 130              	.LFB64:
  45:.\i2s.c       **** 
  46:.\i2s.c       **** void I2Stest()
  47:.\i2s.c       **** {
 131              		.loc 1 47 0
 132              		.cfi_startproc
 133              		@ args = 0, pretend = 0, frame = 0
 134              		@ frame_needed = 1, uses_anonymous_args = 0
 135 0000 80B5     		push	{r7, lr}
 136              		.cfi_def_cfa_offset 8
 137              		.cfi_offset 7, -8
 138              		.cfi_offset 14, -4
 139 0002 00AF     		add	r7, sp, #0
 140              		.cfi_def_cfa_register 7
  48:.\i2s.c       ****     //CyDelay(500);
  49:.\i2s.c       ****     //DSPi2sInput(0);
  50:.\i2s.c       ****     CyDelay(500);
 141              		.loc 1 50 0
 142 0004 4FF4FA70 		mov	r0, #500
 143 0008 FFF7FEFF 		bl	CyDelay
  51:.\i2s.c       ****     //DSPi2sInput(1);
  52:.\i2s.c       **** }
 144              		.loc 1 52 0
 145 000c 80BD     		pop	{r7, pc}
 146              		.cfi_endproc
 147              	.LFE64:
 148              		.size	I2Stest, .-I2Stest
 149 000e 00BF     		.section	.text.DmaTxConfiguration,"ax",%progbits
 150              		.align	2
 151              		.global	DmaTxConfiguration
 152              		.thumb
 153              		.thumb_func
 154              		.type	DmaTxConfiguration, %function
 155              	DmaTxConfiguration:
 156              	.LFB65:
  53:.\i2s.c       **** 
  54:.\i2s.c       **** 
  55:.\i2s.c       **** void DmaTxConfiguration(void)
  56:.\i2s.c       **** {
 157              		.loc 1 56 0
 158              		.cfi_startproc
 159              		@ args = 0, pretend = 0, frame = 0
 160              		@ frame_needed = 1, uses_anonymous_args = 0
 161 0000 80B5     		push	{r7, lr}
 162              		.cfi_def_cfa_offset 8
 163              		.cfi_offset 7, -8
 164              		.cfi_offset 14, -4
 165 0002 00AF     		add	r7, sp, #0
 166              		.cfi_def_cfa_register 7
  57:.\i2s.c       ****     /* Tx DMA Config
  58:.\i2s.c       ****     * Init DMA, 1 byte bursts, each burst requires a request
ARM GAS  C:\Users\LUKASC~1\AppData\Local\Temp\ccanWeFd.s 			page 5


  59:.\i2s.c       ****     */ 
  60:.\i2s.c       ****     txDmaChan = TxDMA_DmaInitialize(TxDMA_BYTES_PER_BURST, TxDMA_REQUEST_PER_BURST, 
 167              		.loc 1 60 0
 168 0004 0120     		movs	r0, #1
 169 0006 0121     		movs	r1, #1
 170 0008 41F6FF72 		movw	r2, #8191
 171 000c 4FF48043 		mov	r3, #16384
 172 0010 FFF7FEFF 		bl	TxDMA_DmaInitialize
 173 0014 0346     		mov	r3, r0
 174 0016 1A46     		mov	r2, r3
 175 0018 184B     		ldr	r3, .L11
 176 001a 1A60     		str	r2, [r3]
  61:.\i2s.c       ****                                     HI16(TxDMA_SRC_BASE), HI16(TxDMA_DST_BASE));
  62:.\i2s.c       **** 
  63:.\i2s.c       ****     txDmaTd[0u] = CyDmaTdAllocate();
 177              		.loc 1 63 0
 178 001c FFF7FEFF 		bl	CyDmaTdAllocate
 179 0020 0346     		mov	r3, r0
 180 0022 1A46     		mov	r2, r3
 181 0024 164B     		ldr	r3, .L11+4
 182 0026 1A60     		str	r2, [r3]
  64:.\i2s.c       **** 
  65:.\i2s.c       ****     /* Configure this Td chain as follows:
  66:.\i2s.c       ****     *  - The TD is looping on itself
  67:.\i2s.c       ****     *  - Increment the source address, but not the destination address   
  68:.\i2s.c       ****     */
  69:.\i2s.c       ****     CyDmaTdSetConfiguration(txDmaTd[0u], BUFFER_SIZE, txDmaTd[0u], TD_INC_SRC_ADR);
 183              		.loc 1 69 0
 184 0028 154B     		ldr	r3, .L11+4
 185 002a 1B68     		ldr	r3, [r3]
 186 002c DAB2     		uxtb	r2, r3
 187 002e 144B     		ldr	r3, .L11+4
 188 0030 1B68     		ldr	r3, [r3]
 189 0032 DBB2     		uxtb	r3, r3
 190 0034 1046     		mov	r0, r2
 191 0036 4FF4F871 		mov	r1, #496
 192 003a 1A46     		mov	r2, r3
 193 003c 0123     		movs	r3, #1
 194 003e FFF7FEFF 		bl	CyDmaTdSetConfiguration
  70:.\i2s.c       ****     
  71:.\i2s.c       ****     /* From the memory to the I2S */
  72:.\i2s.c       ****     CyDmaTdSetAddress(txDmaTd[0u], LO16((uint32)txBuff), LO16((uint32)I2S_1_TX_CH0_F0_PTR));
 195              		.loc 1 72 0
 196 0042 0F4B     		ldr	r3, .L11+4
 197 0044 1B68     		ldr	r3, [r3]
 198 0046 DAB2     		uxtb	r2, r3
 199 0048 0E4B     		ldr	r3, .L11+8
 200 004a 9BB2     		uxth	r3, r3
 201 004c 1046     		mov	r0, r2
 202 004e 1946     		mov	r1, r3
 203 0050 46F24652 		movw	r2, #25926
 204 0054 FFF7FEFF 		bl	CyDmaTdSetAddress
  73:.\i2s.c       **** 
  74:.\i2s.c       ****     /* Associate the TD with the channel */
  75:.\i2s.c       ****     CyDmaChSetInitialTd(txDmaChan, txDmaTd[0u]);
 205              		.loc 1 75 0
 206 0058 084B     		ldr	r3, .L11
ARM GAS  C:\Users\LUKASC~1\AppData\Local\Temp\ccanWeFd.s 			page 6


 207 005a 1B68     		ldr	r3, [r3]
 208 005c DAB2     		uxtb	r2, r3
 209 005e 084B     		ldr	r3, .L11+4
 210 0060 1B68     		ldr	r3, [r3]
 211 0062 DBB2     		uxtb	r3, r3
 212 0064 1046     		mov	r0, r2
 213 0066 1946     		mov	r1, r3
 214 0068 FFF7FEFF 		bl	CyDmaChSetInitialTd
  76:.\i2s.c       **** 
  77:.\i2s.c       ****     /* Enable the channel */
  78:.\i2s.c       ****     CyDmaChEnable(txDmaChan, 1u);
 215              		.loc 1 78 0
 216 006c 034B     		ldr	r3, .L11
 217 006e 1B68     		ldr	r3, [r3]
 218 0070 DBB2     		uxtb	r3, r3
 219 0072 1846     		mov	r0, r3
 220 0074 0121     		movs	r1, #1
 221 0076 FFF7FEFF 		bl	CyDmaChEnable
  79:.\i2s.c       **** }
 222              		.loc 1 79 0
 223 007a 80BD     		pop	{r7, pc}
 224              	.L12:
 225              		.align	2
 226              	.L11:
 227 007c 00000000 		.word	txDmaChan
 228 0080 00000000 		.word	txDmaTd
 229 0084 00000000 		.word	txBuff
 230              		.cfi_endproc
 231              	.LFE65:
 232              		.size	DmaTxConfiguration, .-DmaTxConfiguration
 233              		.text
 234              	.Letext0:
 235              		.file 2 "c:\\program files (x86)\\cypress\\psoc creator\\3.3\\psoc creator\\import\\gnu\\arm\\4.9.
 236              		.file 3 "c:\\program files (x86)\\cypress\\psoc creator\\3.3\\psoc creator\\import\\gnu\\arm\\4.9.
 237              		.file 4 "Generated_Source\\PSoC5/cytypes.h"
 238              		.file 5 "Generated_Source\\PSoC5/core_cm3.h"
 239              		.file 6 ".\\spimaster.h"