ARM GAS  C:\Users\LUKASC~1\AppData\Local\Temp\ccJ3cWMY.s 			page 1


   1              		.syntax unified
   2              		.cpu cortex-m3
   3              		.fpu softvfp
   4              		.eabi_attribute 20, 1
   5              		.eabi_attribute 21, 1
   6              		.eabi_attribute 23, 3
   7              		.eabi_attribute 24, 1
   8              		.eabi_attribute 25, 1
   9              		.eabi_attribute 26, 1
  10              		.eabi_attribute 30, 6
  11              		.eabi_attribute 34, 1
  12              		.eabi_attribute 18, 4
  13              		.thumb
  14              		.file	"i2s.c"
  15              		.text
  16              	.Ltext0:
  17              		.cfi_sections	.debug_frame
  18              		.global _printf_float
  19              		.thumb
  20              		.comm	wrBuffer,64,4
  21              		.comm	temp,1,1
  22              		.global _printf_float
  23              		.global _printf_float
  24              		.thumb
  25              		.comm	soundBuffer,480,4
  26              		.global	outIndex
  27              		.bss
  28              		.align	1
  29              		.type	outIndex, %object
  30              		.size	outIndex, 2
  31              	outIndex:
  32 0000 0000     		.space	2
  33              		.global	inIndex
  34              		.align	1
  35              		.type	inIndex, %object
  36              		.size	inIndex, 2
  37              	inIndex:
  38 0002 0000     		.space	2
  39              		.global	syncDma
  40              		.type	syncDma, %object
  41              		.size	syncDma, 1
  42              	syncDma:
  43 0004 00       		.space	1
  44              		.global	syncDmaCounter
  45              		.type	syncDmaCounter, %object
  46              		.size	syncDmaCounter, 1
  47              	syncDmaCounter:
  48 0005 00       		.space	1
  49              		.comm	TxOutDmaCh,1,1
  50              		.comm	TxOutDmaTd,10,4
  51              		.section	.text.TxDmaDone,"ax",%progbits
  52              		.align	2
  53              		.global	TxDmaDone
  54              		.thumb
  55              		.thumb_func
  56              		.type	TxDmaDone, %function
  57              	TxDmaDone:
ARM GAS  C:\Users\LUKASC~1\AppData\Local\Temp\ccJ3cWMY.s 			page 2


  58              	.LFB63:
  59              		.file 1 ".\\i2s.c"
   1:.\i2s.c       **** /*******************************************************************************
   2:.\i2s.c       **** * File Name: i2s.c
   3:.\i2s.c       **** *
   4:.\i2s.c       **** * Version: 0.0 
   5:.\i2s.c       **** * Author: Lukas Creutzburg
   6:.\i2s.c       **** *
   7:.\i2s.c       **** * Description:
   8:.\i2s.c       **** *   Interaction with DSP via I2S
   9:.\i2s.c       **** *
  10:.\i2s.c       **** *
  11:.\i2s.c       **** *******************************************************************************/
  12:.\i2s.c       **** 
  13:.\i2s.c       **** #include "i2s.h"
  14:.\i2s.c       **** 
  15:.\i2s.c       **** /* Circular buffer for audio stream. */
  16:.\i2s.c       **** uint8 soundBuffer[BUFFER_SIZE];
  17:.\i2s.c       **** volatile uint16 outIndex = 0u;
  18:.\i2s.c       **** volatile uint16 inIndex  = 0u;
  19:.\i2s.c       **** 
  20:.\i2s.c       **** /* Variables used to manage DMA. */
  21:.\i2s.c       **** volatile uint8 syncDma = 0u;
  22:.\i2s.c       **** volatile uint8 syncDmaCounter = 0u;
  23:.\i2s.c       **** 
  24:.\i2s.c       **** /* Variable declarations for TxoutDMA. */
  25:.\i2s.c       **** uint8 TxOutDmaCh;
  26:.\i2s.c       **** uint8 TxOutDmaTd[NUM_OF_BUFFERS];
  27:.\i2s.c       **** 
  28:.\i2s.c       **** CY_ISR(TxDmaDone)
  29:.\i2s.c       **** {
  60              		.loc 1 29 0
  61              		.cfi_startproc
  62              		@ args = 0, pretend = 0, frame = 0
  63              		@ frame_needed = 1, uses_anonymous_args = 0
  64 0000 80B5     		push	{r7, lr}
  65              		.cfi_def_cfa_offset 8
  66              		.cfi_offset 7, -8
  67              		.cfi_offset 14, -4
  68 0002 00AF     		add	r7, sp, #0
  69              		.cfi_def_cfa_register 7
  30:.\i2s.c       ****     /* Move to next buffer location and adjust to be within buffer size. */
  31:.\i2s.c       ****     ++outIndex;
  70              		.loc 1 31 0
  71 0004 134B     		ldr	r3, .L5
  72 0006 1B88     		ldrh	r3, [r3]	@ movhi
  73 0008 9BB2     		uxth	r3, r3
  74 000a 0133     		adds	r3, r3, #1
  75 000c 9AB2     		uxth	r2, r3
  76 000e 114B     		ldr	r3, .L5
  77 0010 1A80     		strh	r2, [r3]	@ movhi
  32:.\i2s.c       ****     outIndex = (outIndex >= NUM_OF_BUFFERS) ? 0u : outIndex;
  78              		.loc 1 32 0
  79 0012 104B     		ldr	r3, .L5
  80 0014 1B88     		ldrh	r3, [r3]	@ movhi
  81 0016 9BB2     		uxth	r3, r3
  82 0018 092B     		cmp	r3, #9
ARM GAS  C:\Users\LUKASC~1\AppData\Local\Temp\ccJ3cWMY.s 			page 3


  83 001a 03D8     		bhi	.L2
  84              		.loc 1 32 0 is_stmt 0 discriminator 1
  85 001c 0D4B     		ldr	r3, .L5
  86 001e 1B88     		ldrh	r3, [r3]	@ movhi
  87 0020 9BB2     		uxth	r3, r3
  88 0022 00E0     		b	.L3
  89              	.L2:
  90              		.loc 1 32 0 discriminator 2
  91 0024 0023     		movs	r3, #0
  92              	.L3:
  93              		.loc 1 32 0 discriminator 4
  94 0026 0B4A     		ldr	r2, .L5
  95 0028 1380     		strh	r3, [r2]	@ movhi
  33:.\i2s.c       **** 
  34:.\i2s.c       ****     if (outIndex == inIndex)
  96              		.loc 1 34 0 is_stmt 1 discriminator 4
  97 002a 0A4B     		ldr	r3, .L5
  98 002c 1B88     		ldrh	r3, [r3]	@ movhi
  99 002e 9AB2     		uxth	r2, r3
 100 0030 094B     		ldr	r3, .L5+4
 101 0032 1B88     		ldrh	r3, [r3]	@ movhi
 102 0034 9BB2     		uxth	r3, r3
 103 0036 9A42     		cmp	r2, r3
 104 0038 0AD1     		bne	.L1
  35:.\i2s.c       ****     {
  36:.\i2s.c       ****         /* Stop DMA operation. */
  37:.\i2s.c       ****         CyDmaChDisable(TxOutDmaCh);
 105              		.loc 1 37 0
 106 003a 084B     		ldr	r3, .L5+8
 107 003c 1B78     		ldrb	r3, [r3]	@ zero_extendqisi2
 108 003e 1846     		mov	r0, r3
 109 0040 FFF7FEFF 		bl	CyDmaChDisable
  38:.\i2s.c       **** 
  39:.\i2s.c       ****         /* Enable underflow delayed start. */
  40:.\i2s.c       ****         syncDma = 0u;
 110              		.loc 1 40 0
 111 0044 064B     		ldr	r3, .L5+12
 112 0046 0022     		movs	r2, #0
 113 0048 1A70     		strb	r2, [r3]
  41:.\i2s.c       ****         syncDmaCounter = 0u;
 114              		.loc 1 41 0
 115 004a 064B     		ldr	r3, .L5+16
 116 004c 0022     		movs	r2, #0
 117 004e 1A70     		strb	r2, [r3]
 118              	.L1:
  42:.\i2s.c       ****     }
  43:.\i2s.c       **** }
 119              		.loc 1 43 0
 120 0050 80BD     		pop	{r7, pc}
 121              	.L6:
 122 0052 00BF     		.align	2
 123              	.L5:
 124 0054 00000000 		.word	outIndex
 125 0058 00000000 		.word	inIndex
 126 005c 00000000 		.word	TxOutDmaCh
 127 0060 00000000 		.word	syncDma
 128 0064 00000000 		.word	syncDmaCounter
ARM GAS  C:\Users\LUKASC~1\AppData\Local\Temp\ccJ3cWMY.s 			page 4


 129              		.cfi_endproc
 130              	.LFE63:
 131              		.size	TxDmaDone, .-TxDmaDone
 132              		.section	.text.I2Sinit,"ax",%progbits
 133              		.align	2
 134              		.global	I2Sinit
 135              		.thumb
 136              		.thumb_func
 137              		.type	I2Sinit, %function
 138              	I2Sinit:
 139              	.LFB64:
  44:.\i2s.c       **** 
  45:.\i2s.c       **** void I2Sinit()
  46:.\i2s.c       **** {
 140              		.loc 1 46 0
 141              		.cfi_startproc
 142              		@ args = 0, pretend = 0, frame = 0
 143              		@ frame_needed = 1, uses_anonymous_args = 0
 144 0000 80B5     		push	{r7, lr}
 145              		.cfi_def_cfa_offset 8
 146              		.cfi_offset 7, -8
 147              		.cfi_offset 14, -4
 148 0002 00AF     		add	r7, sp, #0
 149              		.cfi_def_cfa_register 7
  47:.\i2s.c       ****     I2S_1_Start();
 150              		.loc 1 47 0
 151 0004 FFF7FEFF 		bl	I2S_1_Start
  48:.\i2s.c       **** 
  49:.\i2s.c       ****     
  50:.\i2s.c       ****     /* Configure DMA */ 
  51:.\i2s.c       ****     DmaTxConfiguration();
 152              		.loc 1 51 0
 153 0008 FFF7FEFF 		bl	DmaTxConfiguration
  52:.\i2s.c       ****     I2S_1_EnableTx();
 154              		.loc 1 52 0
 155 000c FFF7FEFF 		bl	I2S_1_EnableTx
  53:.\i2s.c       **** }
 156              		.loc 1 53 0
 157 0010 80BD     		pop	{r7, pc}
 158              		.cfi_endproc
 159              	.LFE64:
 160              		.size	I2Sinit, .-I2Sinit
 161 0012 00BF     		.section	.text.I2Stest,"ax",%progbits
 162              		.align	2
 163              		.global	I2Stest
 164              		.thumb
 165              		.thumb_func
 166              		.type	I2Stest, %function
 167              	I2Stest:
 168              	.LFB65:
  54:.\i2s.c       **** 
  55:.\i2s.c       **** void I2Stest()
  56:.\i2s.c       **** {
 169              		.loc 1 56 0
 170              		.cfi_startproc
 171              		@ args = 0, pretend = 0, frame = 0
 172              		@ frame_needed = 1, uses_anonymous_args = 0
ARM GAS  C:\Users\LUKASC~1\AppData\Local\Temp\ccJ3cWMY.s 			page 5


 173              		@ link register save eliminated.
 174 0000 80B4     		push	{r7}
 175              		.cfi_def_cfa_offset 4
 176              		.cfi_offset 7, -4
 177 0002 00AF     		add	r7, sp, #0
 178              		.cfi_def_cfa_register 7
  57:.\i2s.c       **** //not yet implemented!
  58:.\i2s.c       **** }
 179              		.loc 1 58 0
 180 0004 BD46     		mov	sp, r7
 181              		.cfi_def_cfa_register 13
 182              		@ sp needed
 183 0006 5DF8047B 		ldr	r7, [sp], #4
 184              		.cfi_restore 7
 185              		.cfi_def_cfa_offset 0
 186 000a 7047     		bx	lr
 187              		.cfi_endproc
 188              	.LFE65:
 189              		.size	I2Stest, .-I2Stest
 190              		.section	.text.DmaTxConfiguration,"ax",%progbits
 191              		.align	2
 192              		.global	DmaTxConfiguration
 193              		.thumb
 194              		.thumb_func
 195              		.type	DmaTxConfiguration, %function
 196              	DmaTxConfiguration:
 197              	.LFB66:
  59:.\i2s.c       **** 
  60:.\i2s.c       **** 
  61:.\i2s.c       **** void DmaTxConfiguration(void)
  62:.\i2s.c       **** {
 198              		.loc 1 62 0
 199              		.cfi_startproc
 200              		@ args = 0, pretend = 0, frame = 8
 201              		@ frame_needed = 1, uses_anonymous_args = 0
 202 0000 90B5     		push	{r4, r7, lr}
 203              		.cfi_def_cfa_offset 12
 204              		.cfi_offset 4, -12
 205              		.cfi_offset 7, -8
 206              		.cfi_offset 14, -4
 207 0002 83B0     		sub	sp, sp, #12
 208              		.cfi_def_cfa_offset 24
 209 0004 00AF     		add	r7, sp, #0
 210              		.cfi_def_cfa_register 7
  63:.\i2s.c       ****     uint8 i;
  64:.\i2s.c       ****     /* Initialize DMA channel. */
  65:.\i2s.c       ****     TxOutDmaCh = TxDma_DmaInitialize(TX_DMA_BYTES_PER_BURST, TX_DMA_REQUEST_PER_BURST,
  66:.\i2s.c       ****                                             HI16(TX_DMA_SRC_BASE), HI16(TX_DMA_DST_BASE));
 211              		.loc 1 66 0
 212 0006 324B     		ldr	r3, .L16
 213 0008 1B0C     		lsrs	r3, r3, #16
  65:.\i2s.c       ****                                             HI16(TX_DMA_SRC_BASE), HI16(TX_DMA_DST_BASE));
 214              		.loc 1 65 0
 215 000a 9BB2     		uxth	r3, r3
 216 000c 0120     		movs	r0, #1
 217 000e 0121     		movs	r1, #1
 218 0010 1A46     		mov	r2, r3
ARM GAS  C:\Users\LUKASC~1\AppData\Local\Temp\ccJ3cWMY.s 			page 6


 219 0012 4FF48043 		mov	r3, #16384
 220 0016 FFF7FEFF 		bl	TxDma_DmaInitialize
 221 001a 0346     		mov	r3, r0
 222 001c 1A46     		mov	r2, r3
 223 001e 2D4B     		ldr	r3, .L16+4
 224 0020 1A70     		strb	r2, [r3]
  67:.\i2s.c       **** 
  68:.\i2s.c       ****     /* Allocate transfer descriptors for each buffer chunk. */
  69:.\i2s.c       ****     for (i = 0u; i < NUM_OF_BUFFERS; ++i)
 225              		.loc 1 69 0
 226 0022 0023     		movs	r3, #0
 227 0024 FB71     		strb	r3, [r7, #7]
 228 0026 09E0     		b	.L10
 229              	.L11:
  70:.\i2s.c       ****     {
  71:.\i2s.c       ****         TxOutDmaTd[i] = CyDmaTdAllocate();
 230              		.loc 1 71 0 discriminator 3
 231 0028 FC79     		ldrb	r4, [r7, #7]	@ zero_extendqisi2
 232 002a FFF7FEFF 		bl	CyDmaTdAllocate
 233 002e 0346     		mov	r3, r0
 234 0030 1A46     		mov	r2, r3
 235 0032 294B     		ldr	r3, .L16+8
 236 0034 1A55     		strb	r2, [r3, r4]
  69:.\i2s.c       ****     {
 237              		.loc 1 69 0 discriminator 3
 238 0036 FB79     		ldrb	r3, [r7, #7]
 239 0038 0133     		adds	r3, r3, #1
 240 003a FB71     		strb	r3, [r7, #7]
 241              	.L10:
  69:.\i2s.c       ****     {
 242              		.loc 1 69 0 is_stmt 0 discriminator 1
 243 003c FB79     		ldrb	r3, [r7, #7]	@ zero_extendqisi2
 244 003e 092B     		cmp	r3, #9
 245 0040 F2D9     		bls	.L11
  72:.\i2s.c       ****     }
  73:.\i2s.c       **** 
  74:.\i2s.c       ****     /* Configure DMA transfer descriptors. */
  75:.\i2s.c       ****     for (i = 0u; i < (NUM_OF_BUFFERS - 1u); ++i)
 246              		.loc 1 75 0 is_stmt 1
 247 0042 0023     		movs	r3, #0
 248 0044 FB71     		strb	r3, [r7, #7]
 249 0046 0FE0     		b	.L12
 250              	.L13:
  76:.\i2s.c       ****     {
  77:.\i2s.c       ****         /* Chain current and next DMA transfer descriptors to be in row. */
  78:.\i2s.c       ****         CyDmaTdSetConfiguration(TxOutDmaTd[i], TRANSFER_SIZE, TxOutDmaTd[i + 1u],
 251              		.loc 1 78 0 discriminator 3
 252 0048 FB79     		ldrb	r3, [r7, #7]	@ zero_extendqisi2
 253 004a 234A     		ldr	r2, .L16+8
 254 004c D15C     		ldrb	r1, [r2, r3]	@ zero_extendqisi2
 255 004e FB79     		ldrb	r3, [r7, #7]	@ zero_extendqisi2
 256 0050 0133     		adds	r3, r3, #1
 257 0052 214A     		ldr	r2, .L16+8
 258 0054 D35C     		ldrb	r3, [r2, r3]	@ zero_extendqisi2
 259 0056 0846     		mov	r0, r1
 260 0058 3021     		movs	r1, #48
 261 005a 1A46     		mov	r2, r3
ARM GAS  C:\Users\LUKASC~1\AppData\Local\Temp\ccJ3cWMY.s 			page 7


 262 005c 0123     		movs	r3, #1
 263 005e FFF7FEFF 		bl	CyDmaTdSetConfiguration
  75:.\i2s.c       ****     {
 264              		.loc 1 75 0 discriminator 3
 265 0062 FB79     		ldrb	r3, [r7, #7]
 266 0064 0133     		adds	r3, r3, #1
 267 0066 FB71     		strb	r3, [r7, #7]
 268              	.L12:
  75:.\i2s.c       ****     {
 269              		.loc 1 75 0 is_stmt 0 discriminator 1
 270 0068 FB79     		ldrb	r3, [r7, #7]	@ zero_extendqisi2
 271 006a 082B     		cmp	r3, #8
 272 006c ECD9     		bls	.L13
  79:.\i2s.c       ****                                 TD_INC_SRC_ADR);
  80:.\i2s.c       ****     }
  81:.\i2s.c       ****     /* Chain last and 1st DMA transfer descriptors to make cyclic buffer. */
  82:.\i2s.c       ****     CyDmaTdSetConfiguration(TxOutDmaTd[NUM_OF_BUFFERS - 1u], TRANSFER_SIZE, TxOutDmaTd[0u],
 273              		.loc 1 82 0 is_stmt 1
 274 006e 1A4B     		ldr	r3, .L16+8
 275 0070 5A7A     		ldrb	r2, [r3, #9]	@ zero_extendqisi2
 276 0072 194B     		ldr	r3, .L16+8
 277 0074 1B78     		ldrb	r3, [r3]	@ zero_extendqisi2
 278 0076 1046     		mov	r0, r2
 279 0078 3021     		movs	r1, #48
 280 007a 1A46     		mov	r2, r3
 281 007c 0123     		movs	r3, #1
 282 007e FFF7FEFF 		bl	CyDmaTdSetConfiguration
  83:.\i2s.c       ****                                 TD_INC_SRC_ADR);
  84:.\i2s.c       **** 
  85:.\i2s.c       **** 
  86:.\i2s.c       ****     for (i = 0u; i < NUM_OF_BUFFERS; i++)
 283              		.loc 1 86 0
 284 0082 0023     		movs	r3, #0
 285 0084 FB71     		strb	r3, [r7, #7]
 286 0086 14E0     		b	.L14
 287              	.L15:
  87:.\i2s.c       ****     {
  88:.\i2s.c       ****         /* Set source and destination addresses. */
  89:.\i2s.c       ****         CyDmaTdSetAddress(TxOutDmaTd[i], LO16((uint32) &soundBuffer[i * TRANSFER_SIZE]),
 288              		.loc 1 89 0 discriminator 3
 289 0088 FB79     		ldrb	r3, [r7, #7]	@ zero_extendqisi2
 290 008a 134A     		ldr	r2, .L16+8
 291 008c D15C     		ldrb	r1, [r2, r3]	@ zero_extendqisi2
 292 008e FA79     		ldrb	r2, [r7, #7]	@ zero_extendqisi2
 293 0090 1346     		mov	r3, r2
 294 0092 5B00     		lsls	r3, r3, #1
 295 0094 1344     		add	r3, r3, r2
 296 0096 1B01     		lsls	r3, r3, #4
 297 0098 1A46     		mov	r2, r3
 298 009a 0D4B     		ldr	r3, .L16
 299 009c 1344     		add	r3, r3, r2
 300 009e 9BB2     		uxth	r3, r3
 301 00a0 0846     		mov	r0, r1
 302 00a2 1946     		mov	r1, r3
 303 00a4 46F24752 		movw	r2, #25927
 304 00a8 FFF7FEFF 		bl	CyDmaTdSetAddress
  86:.\i2s.c       ****     {
ARM GAS  C:\Users\LUKASC~1\AppData\Local\Temp\ccJ3cWMY.s 			page 8


 305              		.loc 1 86 0 discriminator 3
 306 00ac FB79     		ldrb	r3, [r7, #7]	@ zero_extendqisi2
 307 00ae 0133     		adds	r3, r3, #1
 308 00b0 FB71     		strb	r3, [r7, #7]
 309              	.L14:
  86:.\i2s.c       ****     {
 310              		.loc 1 86 0 is_stmt 0 discriminator 1
 311 00b2 FB79     		ldrb	r3, [r7, #7]	@ zero_extendqisi2
 312 00b4 092B     		cmp	r3, #9
 313 00b6 E7D9     		bls	.L15
  90:.\i2s.c       ****                                            LO16((uint32) I2S_1_TX_CH0_F0_PTR));
  91:.\i2s.c       ****     }
  92:.\i2s.c       **** 
  93:.\i2s.c       ****     /* Set 1st transfer descriptor to execute. */
  94:.\i2s.c       ****     CyDmaChSetInitialTd(TxOutDmaCh, TxOutDmaTd[0u]);
 314              		.loc 1 94 0 is_stmt 1
 315 00b8 064B     		ldr	r3, .L16+4
 316 00ba 1A78     		ldrb	r2, [r3]	@ zero_extendqisi2
 317 00bc 064B     		ldr	r3, .L16+8
 318 00be 1B78     		ldrb	r3, [r3]	@ zero_extendqisi2
 319 00c0 1046     		mov	r0, r2
 320 00c2 1946     		mov	r1, r3
 321 00c4 FFF7FEFF 		bl	CyDmaChSetInitialTd
  95:.\i2s.c       **** }
 322              		.loc 1 95 0
 323 00c8 0C37     		adds	r7, r7, #12
 324              		.cfi_def_cfa_offset 12
 325 00ca BD46     		mov	sp, r7
 326              		.cfi_def_cfa_register 13
 327              		@ sp needed
 328 00cc 90BD     		pop	{r4, r7, pc}
 329              	.L17:
 330 00ce 00BF     		.align	2
 331              	.L16:
 332 00d0 00000000 		.word	soundBuffer
 333 00d4 00000000 		.word	TxOutDmaCh
 334 00d8 00000000 		.word	TxOutDmaTd
 335              		.cfi_endproc
 336              	.LFE66:
 337              		.size	DmaTxConfiguration, .-DmaTxConfiguration
 338              		.section	.text.USBrefresh,"ax",%progbits
 339              		.align	2
 340              		.global	USBrefresh
 341              		.thumb
 342              		.thumb_func
 343              		.type	USBrefresh, %function
 344              	USBrefresh:
 345              	.LFB67:
  96:.\i2s.c       **** 
  97:.\i2s.c       **** void USBrefresh()
  98:.\i2s.c       **** {
 346              		.loc 1 98 0
 347              		.cfi_startproc
 348              		@ args = 0, pretend = 0, frame = 8
 349              		@ frame_needed = 1, uses_anonymous_args = 0
 350 0000 80B5     		push	{r7, lr}
 351              		.cfi_def_cfa_offset 8
ARM GAS  C:\Users\LUKASC~1\AppData\Local\Temp\ccJ3cWMY.s 			page 9


 352              		.cfi_offset 7, -8
 353              		.cfi_offset 14, -4
 354 0002 82B0     		sub	sp, sp, #8
 355              		.cfi_def_cfa_offset 16
 356 0004 00AF     		add	r7, sp, #0
 357              		.cfi_def_cfa_register 7
  99:.\i2s.c       ****     uint8 skipNextOut = 0u;
 358              		.loc 1 99 0
 359 0006 0023     		movs	r3, #0
 360 0008 FB71     		strb	r3, [r7, #7]
 100:.\i2s.c       ****     /* Check if configuration or interface settings are changed. */
 101:.\i2s.c       ****     if (0u != USBFS_IsConfigurationChanged())
 361              		.loc 1 101 0
 362 000a FFF7FEFF 		bl	USBFS_IsConfigurationChanged
 363 000e 0346     		mov	r3, r0
 364 0010 002B     		cmp	r3, #0
 365 0012 7FD0     		beq	.L18
 102:.\i2s.c       ****     {
 103:.\i2s.c       ****         /* Check active alternate setting. */
 104:.\i2s.c       ****         if ((0u != USBFS_GetConfiguration()) &&
 366              		.loc 1 104 0
 367 0014 FFF7FEFF 		bl	USBFS_GetConfiguration
 368 0018 0346     		mov	r3, r0
 369 001a 002B     		cmp	r3, #0
 370 001c 16D0     		beq	.L20
 105:.\i2s.c       ****             (0u != USBFS_GetInterfaceSetting(AUDIO_INTERFACE)))
 371              		.loc 1 105 0 discriminator 1
 372 001e 0120     		movs	r0, #1
 373 0020 FFF7FEFF 		bl	USBFS_GetInterfaceSetting
 374 0024 0346     		mov	r3, r0
 104:.\i2s.c       ****             (0u != USBFS_GetInterfaceSetting(AUDIO_INTERFACE)))
 375              		.loc 1 104 0 discriminator 1
 376 0026 002B     		cmp	r3, #0
 377 0028 10D0     		beq	.L20
 106:.\i2s.c       ****         {
 107:.\i2s.c       ****             /* Alternate settings 1: Audio is streaming. */
 108:.\i2s.c       **** 
 109:.\i2s.c       ****             /* Reset variables. */
 110:.\i2s.c       ****             inIndex  = 0u;
 378              		.loc 1 110 0
 379 002a 3C4B     		ldr	r3, .L27
 380 002c 0022     		movs	r2, #0
 381 002e 1A80     		strh	r2, [r3]	@ movhi
 111:.\i2s.c       ****             outIndex = 0u;
 382              		.loc 1 111 0
 383 0030 3B4B     		ldr	r3, .L27+4
 384 0032 0022     		movs	r2, #0
 385 0034 1A80     		strh	r2, [r3]	@ movhi
 112:.\i2s.c       ****             syncDma  = 0u;
 386              		.loc 1 112 0
 387 0036 3B4B     		ldr	r3, .L27+8
 388 0038 0022     		movs	r2, #0
 389 003a 1A70     		strb	r2, [r3]
 113:.\i2s.c       ****             skipNextOut = 0u;
 390              		.loc 1 113 0
 391 003c 0023     		movs	r3, #0
 392 003e FB71     		strb	r3, [r7, #7]
ARM GAS  C:\Users\LUKASC~1\AppData\Local\Temp\ccJ3cWMY.s 			page 10


 114:.\i2s.c       ****             syncDmaCounter = 0u;
 393              		.loc 1 114 0
 394 0040 394B     		ldr	r3, .L27+12
 395 0042 0022     		movs	r2, #0
 396 0044 1A70     		strb	r2, [r3]
 115:.\i2s.c       **** 
 116:.\i2s.c       ****             /* Enable OUT endpoint to receive audio stream. */
 117:.\i2s.c       ****             USBFS_EnableOutEP(OUT_EP_NUM);
 397              		.loc 1 117 0
 398 0046 0220     		movs	r0, #2
 399 0048 FFF7FEFF 		bl	USBFS_EnableOutEP
 400              	.L20:
 118:.\i2s.c       ****     }
 119:.\i2s.c       **** 
 120:.\i2s.c       ****     if (USBFS_OUT_BUFFER_FULL == USBFS_GetEPState(OUT_EP_NUM))
 401              		.loc 1 120 0
 402 004c 0220     		movs	r0, #2
 403 004e FFF7FEFF 		bl	USBFS_GetEPState
 404 0052 0346     		mov	r3, r0
 405 0054 012B     		cmp	r3, #1
 406 0056 4AD1     		bne	.L21
 121:.\i2s.c       ****     {
 122:.\i2s.c       ****         if (0u == skipNextOut)
 407              		.loc 1 122 0
 408 0058 FB79     		ldrb	r3, [r7, #7]	@ zero_extendqisi2
 409 005a 002B     		cmp	r3, #0
 410 005c 38D1     		bne	.L22
 123:.\i2s.c       ****         {
 124:.\i2s.c       ****             /* Trigger DMA to copy data from OUT endpoint buffer. */
 125:.\i2s.c       ****             USBFS_ReadOutEP(OUT_EP_NUM, &soundBuffer[inIndex * TRANSFER_SIZE],
 411              		.loc 1 125 0
 412 005e 2F4B     		ldr	r3, .L27
 413 0060 1B88     		ldrh	r3, [r3]	@ movhi
 414 0062 9BB2     		uxth	r3, r3
 415 0064 1A46     		mov	r2, r3
 416 0066 1346     		mov	r3, r2
 417 0068 5B00     		lsls	r3, r3, #1
 418 006a 1344     		add	r3, r3, r2
 419 006c 1B01     		lsls	r3, r3, #4
 420 006e 1A46     		mov	r2, r3
 421 0070 2E4B     		ldr	r3, .L27+16
 422 0072 1344     		add	r3, r3, r2
 423 0074 0220     		movs	r0, #2
 424 0076 1946     		mov	r1, r3
 425 0078 3022     		movs	r2, #48
 426 007a FFF7FEFF 		bl	USBFS_ReadOutEP
 126:.\i2s.c       ****                                         TRANSFER_SIZE);
 127:.\i2s.c       **** 
 128:.\i2s.c       ****             /* Wait until DMA completes copying data from OUT endpoint buffer. */
 129:.\i2s.c       ****             while (USBFS_OUT_BUFFER_FULL == USBFS_GetEPState(OUT_EP_NUM))
 427              		.loc 1 129 0
 428 007e 00BF     		nop
 429              	.L23:
 430              		.loc 1 129 0 is_stmt 0 discriminator 1
 431 0080 0220     		movs	r0, #2
 432 0082 FFF7FEFF 		bl	USBFS_GetEPState
 433 0086 0346     		mov	r3, r0
ARM GAS  C:\Users\LUKASC~1\AppData\Local\Temp\ccJ3cWMY.s 			page 11


 434 0088 012B     		cmp	r3, #1
 435 008a F9D0     		beq	.L23
 130:.\i2s.c       ****             {
 131:.\i2s.c       ****             }
 132:.\i2s.c       **** 
 133:.\i2s.c       ****             /* Move to the next buffer location and adjust to be within
 134:.\i2s.c       ****             * buffer size. Lock from DmaDone interruption.
 135:.\i2s.c       ****             */
 136:.\i2s.c       ****             DmaDone_Disable();
 436              		.loc 1 136 0 is_stmt 1
 437 008c FFF7FEFF 		bl	DmaDone_Disable
 137:.\i2s.c       ****             ++inIndex;
 438              		.loc 1 137 0
 439 0090 224B     		ldr	r3, .L27
 440 0092 1B88     		ldrh	r3, [r3]	@ movhi
 441 0094 9BB2     		uxth	r3, r3
 442 0096 0133     		adds	r3, r3, #1
 443 0098 9AB2     		uxth	r2, r3
 444 009a 204B     		ldr	r3, .L27
 445 009c 1A80     		strh	r2, [r3]	@ movhi
 138:.\i2s.c       ****             inIndex = (inIndex >= NUM_OF_BUFFERS) ? 0u : inIndex;
 446              		.loc 1 138 0
 447 009e 1F4B     		ldr	r3, .L27
 448 00a0 1B88     		ldrh	r3, [r3]	@ movhi
 449 00a2 9BB2     		uxth	r3, r3
 450 00a4 092B     		cmp	r3, #9
 451 00a6 03D8     		bhi	.L24
 452              		.loc 1 138 0 is_stmt 0 discriminator 1
 453 00a8 1C4B     		ldr	r3, .L27
 454 00aa 1B88     		ldrh	r3, [r3]	@ movhi
 455 00ac 9BB2     		uxth	r3, r3
 456 00ae 00E0     		b	.L25
 457              	.L24:
 458              		.loc 1 138 0 discriminator 2
 459 00b0 0023     		movs	r3, #0
 460              	.L25:
 461              		.loc 1 138 0 discriminator 4
 462 00b2 1A4A     		ldr	r2, .L27
 463 00b4 1380     		strh	r3, [r2]	@ movhi
 139:.\i2s.c       ****             DmaDone_Enable();
 464              		.loc 1 139 0 is_stmt 1 discriminator 4
 465 00b6 FFF7FEFF 		bl	DmaDone_Enable
 140:.\i2s.c       ****             ++syncDmaCounter;
 466              		.loc 1 140 0 discriminator 4
 467 00ba 1B4B     		ldr	r3, .L27+12
 468 00bc 1B78     		ldrb	r3, [r3]
 469 00be DBB2     		uxtb	r3, r3
 470 00c0 0133     		adds	r3, r3, #1
 471 00c2 DAB2     		uxtb	r2, r3
 472 00c4 184B     		ldr	r3, .L27+12
 473 00c6 1A70     		strb	r2, [r3]
 141:.\i2s.c       **** 
 142:.\i2s.c       ****             /* Enable OUT endpoint to receive data from host. */
 143:.\i2s.c       ****             USBFS_EnableOutEP(OUT_EP_NUM);
 474              		.loc 1 143 0 discriminator 4
 475 00c8 0220     		movs	r0, #2
 476 00ca FFF7FEFF 		bl	USBFS_EnableOutEP
ARM GAS  C:\Users\LUKASC~1\AppData\Local\Temp\ccJ3cWMY.s 			page 12


 477 00ce 04E0     		b	.L26
 478              	.L22:
 144:.\i2s.c       ****         }
 145:.\i2s.c       ****         else
 146:.\i2s.c       ****         {
 147:.\i2s.c       ****             /* Ignore received data from host and arm OUT endpoint
 148:.\i2s.c       ****             * without reading if overflow is detected.
 149:.\i2s.c       ****             */
 150:.\i2s.c       ****             USBFS_EnableOutEP(OUT_EP_NUM);
 479              		.loc 1 150 0
 480 00d0 0220     		movs	r0, #2
 481 00d2 FFF7FEFF 		bl	USBFS_EnableOutEP
 151:.\i2s.c       ****             skipNextOut = 0u;
 482              		.loc 1 151 0
 483 00d6 0023     		movs	r3, #0
 484 00d8 FB71     		strb	r3, [r7, #7]
 485              	.L26:
 152:.\i2s.c       ****         }
 153:.\i2s.c       **** 
 154:.\i2s.c       ****         /* When internal 32-kHz clock is slower, compare to PC traffic
 155:.\i2s.c       ****         * then skip next transfer from PC.
 156:.\i2s.c       ****         */
 157:.\i2s.c       ****         if (outIndex == inIndex)
 486              		.loc 1 157 0
 487 00da 114B     		ldr	r3, .L27+4
 488 00dc 1B88     		ldrh	r3, [r3]	@ movhi
 489 00de 9AB2     		uxth	r2, r3
 490 00e0 0E4B     		ldr	r3, .L27
 491 00e2 1B88     		ldrh	r3, [r3]	@ movhi
 492 00e4 9BB2     		uxth	r3, r3
 493 00e6 9A42     		cmp	r2, r3
 494 00e8 01D1     		bne	.L21
 158:.\i2s.c       ****         {
 159:.\i2s.c       ****             skipNextOut = 1u;
 495              		.loc 1 159 0
 496 00ea 0123     		movs	r3, #1
 497 00ec FB71     		strb	r3, [r7, #7]
 498              	.L21:
 160:.\i2s.c       ****         }
 161:.\i2s.c       ****     }
 162:.\i2s.c       **** 
 163:.\i2s.c       ****     /* Enable DMA transfers when sound buffer is half-full. */
 164:.\i2s.c       ****     if ((0u == syncDma) && (syncDmaCounter == (NUM_OF_BUFFERS / 2u)))
 499              		.loc 1 164 0
 500 00ee 0D4B     		ldr	r3, .L27+8
 501 00f0 1B78     		ldrb	r3, [r3]
 502 00f2 DBB2     		uxtb	r3, r3
 503 00f4 002B     		cmp	r3, #0
 504 00f6 0DD1     		bne	.L18
 505              		.loc 1 164 0 is_stmt 0 discriminator 1
 506 00f8 0B4B     		ldr	r3, .L27+12
 507 00fa 1B78     		ldrb	r3, [r3]
 508 00fc DBB2     		uxtb	r3, r3
 509 00fe 052B     		cmp	r3, #5
 510 0100 08D1     		bne	.L18
 165:.\i2s.c       ****     {
 166:.\i2s.c       ****         /* Start DMA operation. */
ARM GAS  C:\Users\LUKASC~1\AppData\Local\Temp\ccJ3cWMY.s 			page 13


 167:.\i2s.c       ****         CyDmaChEnable(TxOutDmaCh, TX_DMA_ENABLE_PRESERVE_TD);
 511              		.loc 1 167 0 is_stmt 1
 512 0102 0B4B     		ldr	r3, .L27+20
 513 0104 1B78     		ldrb	r3, [r3]	@ zero_extendqisi2
 514 0106 1846     		mov	r0, r3
 515 0108 0121     		movs	r1, #1
 516 010a FFF7FEFF 		bl	CyDmaChEnable
 168:.\i2s.c       **** 
 169:.\i2s.c       ****         /* Disable underflow delayed start. */
 170:.\i2s.c       ****         syncDma = 1u;
 517              		.loc 1 170 0
 518 010e 054B     		ldr	r3, .L27+8
 519 0110 0122     		movs	r2, #1
 520 0112 1A70     		strb	r2, [r3]
 521              	.L18:
 171:.\i2s.c       ****     }
 172:.\i2s.c       **** }
 173:.\i2s.c       **** }
 522              		.loc 1 173 0
 523 0114 0837     		adds	r7, r7, #8
 524              		.cfi_def_cfa_offset 8
 525 0116 BD46     		mov	sp, r7
 526              		.cfi_def_cfa_register 13
 527              		@ sp needed
 528 0118 80BD     		pop	{r7, pc}
 529              	.L28:
 530 011a 00BF     		.align	2
 531              	.L27:
 532 011c 00000000 		.word	inIndex
 533 0120 00000000 		.word	outIndex
 534 0124 00000000 		.word	syncDma
 535 0128 00000000 		.word	syncDmaCounter
 536 012c 00000000 		.word	soundBuffer
 537 0130 00000000 		.word	TxOutDmaCh
 538              		.cfi_endproc
 539              	.LFE67:
 540              		.size	USBrefresh, .-USBrefresh
 541              		.text
 542              	.Letext0:
 543              		.file 2 "c:\\program files (x86)\\cypress\\psoc creator\\3.3\\psoc creator\\import\\gnu\\arm\\4.9.
 544              		.file 3 "c:\\program files (x86)\\cypress\\psoc creator\\3.3\\psoc creator\\import\\gnu\\arm\\4.9.
 545              		.file 4 "Generated_Source\\PSoC5/cytypes.h"
 546              		.file 5 "Generated_Source\\PSoC5/core_cm3.h"
 547              		.file 6 ".\\spimaster.h"
 548              		.section	.debug_info,"",%progbits
 549              	.Ldebug_info0:
 550 0000 28020000 		.4byte	0x228
 551 0004 0400     		.2byte	0x4
 552 0006 00000000 		.4byte	.Ldebug_abbrev0
 553 000a 04       		.byte	0x4
 554 000b 01       		.uleb128 0x1
 555 000c 76000000 		.4byte	.LASF32
 556 0010 01       		.byte	0x1
 557 0011 83010000 		.4byte	.LASF33
 558 0015 16000000 		.4byte	.LASF34
 559 0019 00000000 		.4byte	.Ldebug_ranges0+0
 560 001d 00000000 		.4byte	0
ARM GAS  C:\Users\LUKASC~1\AppData\Local\Temp\ccJ3cWMY.s 			page 14


 561 0021 00000000 		.4byte	.Ldebug_line0
 562 0025 02       		.uleb128 0x2
 563 0026 01       		.byte	0x1
 564 0027 06       		.byte	0x6
 565 0028 4B020000 		.4byte	.LASF0
 566 002c 02       		.uleb128 0x2
 567 002d 01       		.byte	0x1
 568 002e 08       		.byte	0x8
 569 002f 26010000 		.4byte	.LASF1
 570 0033 02       		.uleb128 0x2
 571 0034 02       		.byte	0x2
 572 0035 05       		.byte	0x5
 573 0036 14020000 		.4byte	.LASF2
 574 003a 02       		.uleb128 0x2
 575 003b 02       		.byte	0x2
 576 003c 07       		.byte	0x7
 577 003d 50010000 		.4byte	.LASF3
 578 0041 03       		.uleb128 0x3
 579 0042 6C000000 		.4byte	.LASF9
 580 0046 02       		.byte	0x2
 581 0047 3F       		.byte	0x3f
 582 0048 4C000000 		.4byte	0x4c
 583 004c 02       		.uleb128 0x2
 584 004d 04       		.byte	0x4
 585 004e 05       		.byte	0x5
 586 004f 42020000 		.4byte	.LASF4
 587 0053 02       		.uleb128 0x2
 588 0054 04       		.byte	0x4
 589 0055 07       		.byte	0x7
 590 0056 39010000 		.4byte	.LASF5
 591 005a 02       		.uleb128 0x2
 592 005b 08       		.byte	0x8
 593 005c 05       		.byte	0x5
 594 005d 00000000 		.4byte	.LASF6
 595 0061 02       		.uleb128 0x2
 596 0062 08       		.byte	0x8
 597 0063 07       		.byte	0x7
 598 0064 B0010000 		.4byte	.LASF7
 599 0068 04       		.uleb128 0x4
 600 0069 04       		.byte	0x4
 601 006a 05       		.byte	0x5
 602 006b 696E7400 		.ascii	"int\000"
 603 006f 02       		.uleb128 0x2
 604 0070 04       		.byte	0x4
 605 0071 07       		.byte	0x7
 606 0072 99010000 		.4byte	.LASF8
 607 0076 03       		.uleb128 0x3
 608 0077 E8010000 		.4byte	.LASF10
 609 007b 03       		.byte	0x3
 610 007c 2C       		.byte	0x2c
 611 007d 41000000 		.4byte	0x41
 612 0081 05       		.uleb128 0x5
 613 0082 1E020000 		.4byte	.LASF11
 614 0086 04       		.byte	0x4
 615 0087 9201     		.2byte	0x192
 616 0089 2C000000 		.4byte	0x2c
 617 008d 05       		.uleb128 0x5
ARM GAS  C:\Users\LUKASC~1\AppData\Local\Temp\ccJ3cWMY.s 			page 15


 618 008e 8B010000 		.4byte	.LASF12
 619 0092 04       		.byte	0x4
 620 0093 9301     		.2byte	0x193
 621 0095 3A000000 		.4byte	0x3a
 622 0099 05       		.uleb128 0x5
 623 009a 92010000 		.4byte	.LASF13
 624 009e 04       		.byte	0x4
 625 009f 9401     		.2byte	0x194
 626 00a1 53000000 		.4byte	0x53
 627 00a5 02       		.uleb128 0x2
 628 00a6 04       		.byte	0x4
 629 00a7 04       		.byte	0x4
 630 00a8 20010000 		.4byte	.LASF14
 631 00ac 02       		.uleb128 0x2
 632 00ad 08       		.byte	0x8
 633 00ae 04       		.byte	0x4
 634 00af 70010000 		.4byte	.LASF15
 635 00b3 02       		.uleb128 0x2
 636 00b4 01       		.byte	0x1
 637 00b5 08       		.byte	0x8
 638 00b6 04020000 		.4byte	.LASF16
 639 00ba 05       		.uleb128 0x5
 640 00bb 34010000 		.4byte	.LASF17
 641 00bf 04       		.byte	0x4
 642 00c0 3C02     		.2byte	0x23c
 643 00c2 C6000000 		.4byte	0xc6
 644 00c6 06       		.uleb128 0x6
 645 00c7 81000000 		.4byte	0x81
 646 00cb 06       		.uleb128 0x6
 647 00cc 8D000000 		.4byte	0x8d
 648 00d0 02       		.uleb128 0x2
 649 00d1 04       		.byte	0x4
 650 00d2 07       		.byte	0x7
 651 00d3 F0010000 		.4byte	.LASF18
 652 00d7 07       		.uleb128 0x7
 653 00d8 A6010000 		.4byte	.LASF35
 654 00dc 01       		.byte	0x1
 655 00dd 1C       		.byte	0x1c
 656 00de 00000000 		.4byte	.LFB63
 657 00e2 68000000 		.4byte	.LFE63-.LFB63
 658 00e6 01       		.uleb128 0x1
 659 00e7 9C       		.byte	0x9c
 660 00e8 08       		.uleb128 0x8
 661 00e9 10010000 		.4byte	.LASF19
 662 00ed 01       		.byte	0x1
 663 00ee 2D       		.byte	0x2d
 664 00ef 00000000 		.4byte	.LFB64
 665 00f3 12000000 		.4byte	.LFE64-.LFB64
 666 00f7 01       		.uleb128 0x1
 667 00f8 9C       		.byte	0x9c
 668 00f9 09       		.uleb128 0x9
 669 00fa 0E000000 		.4byte	.LASF20
 670 00fe 01       		.byte	0x1
 671 00ff 37       		.byte	0x37
 672 0100 00000000 		.4byte	.LFB65
 673 0104 0C000000 		.4byte	.LFE65-.LFB65
 674 0108 01       		.uleb128 0x1
ARM GAS  C:\Users\LUKASC~1\AppData\Local\Temp\ccJ3cWMY.s 			page 16


 675 0109 9C       		.byte	0x9c
 676 010a 0A       		.uleb128 0xa
 677 010b 2F020000 		.4byte	.LASF36
 678 010f 01       		.byte	0x1
 679 0110 3D       		.byte	0x3d
 680 0111 00000000 		.4byte	.LFB66
 681 0115 DC000000 		.4byte	.LFE66-.LFB66
 682 0119 01       		.uleb128 0x1
 683 011a 9C       		.byte	0x9c
 684 011b 2C010000 		.4byte	0x12c
 685 011f 0B       		.uleb128 0xb
 686 0120 6900     		.ascii	"i\000"
 687 0122 01       		.byte	0x1
 688 0123 3F       		.byte	0x3f
 689 0124 81000000 		.4byte	0x81
 690 0128 02       		.uleb128 0x2
 691 0129 91       		.byte	0x91
 692 012a 6F       		.sleb128 -17
 693 012b 00       		.byte	0
 694 012c 0C       		.uleb128 0xc
 695 012d 24020000 		.4byte	.LASF37
 696 0131 01       		.byte	0x1
 697 0132 61       		.byte	0x61
 698 0133 00000000 		.4byte	.LFB67
 699 0137 34010000 		.4byte	.LFE67-.LFB67
 700 013b 01       		.uleb128 0x1
 701 013c 9C       		.byte	0x9c
 702 013d 50010000 		.4byte	0x150
 703 0141 0D       		.uleb128 0xd
 704 0142 04010000 		.4byte	.LASF21
 705 0146 01       		.byte	0x1
 706 0147 63       		.byte	0x63
 707 0148 81000000 		.4byte	0x81
 708 014c 02       		.uleb128 0x2
 709 014d 91       		.byte	0x91
 710 014e 77       		.sleb128 -9
 711 014f 00       		.byte	0
 712 0150 0E       		.uleb128 0xe
 713 0151 63010000 		.4byte	.LASF22
 714 0155 05       		.byte	0x5
 715 0156 9606     		.2byte	0x696
 716 0158 5C010000 		.4byte	0x15c
 717 015c 06       		.uleb128 0x6
 718 015d 76000000 		.4byte	0x76
 719 0161 0F       		.uleb128 0xf
 720 0162 81000000 		.4byte	0x81
 721 0166 71010000 		.4byte	0x171
 722 016a 10       		.uleb128 0x10
 723 016b D0000000 		.4byte	0xd0
 724 016f 3F       		.byte	0x3f
 725 0170 00       		.byte	0
 726 0171 11       		.uleb128 0x11
 727 0172 DF010000 		.4byte	.LASF23
 728 0176 06       		.byte	0x6
 729 0177 24       		.byte	0x24
 730 0178 61010000 		.4byte	0x161
 731 017c 05       		.uleb128 0x5
ARM GAS  C:\Users\LUKASC~1\AppData\Local\Temp\ccJ3cWMY.s 			page 17


 732 017d 03       		.byte	0x3
 733 017e 00000000 		.4byte	wrBuffer
 734 0182 11       		.uleb128 0x11
 735 0183 4B010000 		.4byte	.LASF24
 736 0187 06       		.byte	0x6
 737 0188 25       		.byte	0x25
 738 0189 81000000 		.4byte	0x81
 739 018d 05       		.uleb128 0x5
 740 018e 03       		.byte	0x3
 741 018f 00000000 		.4byte	temp
 742 0193 0F       		.uleb128 0xf
 743 0194 81000000 		.4byte	0x81
 744 0198 A4010000 		.4byte	0x1a4
 745 019c 12       		.uleb128 0x12
 746 019d D0000000 		.4byte	0xd0
 747 01a1 DF01     		.2byte	0x1df
 748 01a3 00       		.byte	0
 749 01a4 11       		.uleb128 0x11
 750 01a5 77010000 		.4byte	.LASF25
 751 01a9 01       		.byte	0x1
 752 01aa 10       		.byte	0x10
 753 01ab 93010000 		.4byte	0x193
 754 01af 05       		.uleb128 0x5
 755 01b0 03       		.byte	0x3
 756 01b1 00000000 		.4byte	soundBuffer
 757 01b5 11       		.uleb128 0x11
 758 01b6 C7010000 		.4byte	.LASF26
 759 01ba 01       		.byte	0x1
 760 01bb 11       		.byte	0x11
 761 01bc CB000000 		.4byte	0xcb
 762 01c0 05       		.uleb128 0x5
 763 01c1 03       		.byte	0x3
 764 01c2 00000000 		.4byte	outIndex
 765 01c6 11       		.uleb128 0x11
 766 01c7 18010000 		.4byte	.LASF27
 767 01cb 01       		.byte	0x1
 768 01cc 12       		.byte	0x12
 769 01cd CB000000 		.4byte	0xcb
 770 01d1 05       		.uleb128 0x5
 771 01d2 03       		.byte	0x3
 772 01d3 00000000 		.4byte	inIndex
 773 01d7 11       		.uleb128 0x11
 774 01d8 57020000 		.4byte	.LASF28
 775 01dc 01       		.byte	0x1
 776 01dd 15       		.byte	0x15
 777 01de C6000000 		.4byte	0xc6
 778 01e2 05       		.uleb128 0x5
 779 01e3 03       		.byte	0x3
 780 01e4 00000000 		.4byte	syncDma
 781 01e8 11       		.uleb128 0x11
 782 01e9 D0010000 		.4byte	.LASF29
 783 01ed 01       		.byte	0x1
 784 01ee 16       		.byte	0x16
 785 01ef C6000000 		.4byte	0xc6
 786 01f3 05       		.uleb128 0x5
 787 01f4 03       		.byte	0x3
 788 01f5 00000000 		.4byte	syncDmaCounter
ARM GAS  C:\Users\LUKASC~1\AppData\Local\Temp\ccJ3cWMY.s 			page 18


 789 01f9 11       		.uleb128 0x11
 790 01fa 09020000 		.4byte	.LASF30
 791 01fe 01       		.byte	0x1
 792 01ff 19       		.byte	0x19
 793 0200 81000000 		.4byte	0x81
 794 0204 05       		.uleb128 0x5
 795 0205 03       		.byte	0x3
 796 0206 00000000 		.4byte	TxOutDmaCh
 797 020a 0F       		.uleb128 0xf
 798 020b 81000000 		.4byte	0x81
 799 020f 1A020000 		.4byte	0x21a
 800 0213 10       		.uleb128 0x10
 801 0214 D0000000 		.4byte	0xd0
 802 0218 09       		.byte	0x9
 803 0219 00       		.byte	0
 804 021a 11       		.uleb128 0x11
 805 021b F9010000 		.4byte	.LASF31
 806 021f 01       		.byte	0x1
 807 0220 1A       		.byte	0x1a
 808 0221 0A020000 		.4byte	0x20a
 809 0225 05       		.uleb128 0x5
 810 0226 03       		.byte	0x3
 811 0227 00000000 		.4byte	TxOutDmaTd
 812 022b 00       		.byte	0
 813              		.section	.debug_abbrev,"",%progbits
 814              	.Ldebug_abbrev0:
 815 0000 01       		.uleb128 0x1
 816 0001 11       		.uleb128 0x11
 817 0002 01       		.byte	0x1
 818 0003 25       		.uleb128 0x25
 819 0004 0E       		.uleb128 0xe
 820 0005 13       		.uleb128 0x13
 821 0006 0B       		.uleb128 0xb
 822 0007 03       		.uleb128 0x3
 823 0008 0E       		.uleb128 0xe
 824 0009 1B       		.uleb128 0x1b
 825 000a 0E       		.uleb128 0xe
 826 000b 55       		.uleb128 0x55
 827 000c 17       		.uleb128 0x17
 828 000d 11       		.uleb128 0x11
 829 000e 01       		.uleb128 0x1
 830 000f 10       		.uleb128 0x10
 831 0010 17       		.uleb128 0x17
 832 0011 00       		.byte	0
 833 0012 00       		.byte	0
 834 0013 02       		.uleb128 0x2
 835 0014 24       		.uleb128 0x24
 836 0015 00       		.byte	0
 837 0016 0B       		.uleb128 0xb
 838 0017 0B       		.uleb128 0xb
 839 0018 3E       		.uleb128 0x3e
 840 0019 0B       		.uleb128 0xb
 841 001a 03       		.uleb128 0x3
 842 001b 0E       		.uleb128 0xe
 843 001c 00       		.byte	0
 844 001d 00       		.byte	0
 845 001e 03       		.uleb128 0x3
ARM GAS  C:\Users\LUKASC~1\AppData\Local\Temp\ccJ3cWMY.s 			page 19


 846 001f 16       		.uleb128 0x16
 847 0020 00       		.byte	0
 848 0021 03       		.uleb128 0x3
 849 0022 0E       		.uleb128 0xe
 850 0023 3A       		.uleb128 0x3a
 851 0024 0B       		.uleb128 0xb
 852 0025 3B       		.uleb128 0x3b
 853 0026 0B       		.uleb128 0xb
 854 0027 49       		.uleb128 0x49
 855 0028 13       		.uleb128 0x13
 856 0029 00       		.byte	0
 857 002a 00       		.byte	0
 858 002b 04       		.uleb128 0x4
 859 002c 24       		.uleb128 0x24
 860 002d 00       		.byte	0
 861 002e 0B       		.uleb128 0xb
 862 002f 0B       		.uleb128 0xb
 863 0030 3E       		.uleb128 0x3e
 864 0031 0B       		.uleb128 0xb
 865 0032 03       		.uleb128 0x3
 866 0033 08       		.uleb128 0x8
 867 0034 00       		.byte	0
 868 0035 00       		.byte	0
 869 0036 05       		.uleb128 0x5
 870 0037 16       		.uleb128 0x16
 871 0038 00       		.byte	0
 872 0039 03       		.uleb128 0x3
 873 003a 0E       		.uleb128 0xe
 874 003b 3A       		.uleb128 0x3a
 875 003c 0B       		.uleb128 0xb
 876 003d 3B       		.uleb128 0x3b
 877 003e 05       		.uleb128 0x5
 878 003f 49       		.uleb128 0x49
 879 0040 13       		.uleb128 0x13
 880 0041 00       		.byte	0
 881 0042 00       		.byte	0
 882 0043 06       		.uleb128 0x6
 883 0044 35       		.uleb128 0x35
 884 0045 00       		.byte	0
 885 0046 49       		.uleb128 0x49
 886 0047 13       		.uleb128 0x13
 887 0048 00       		.byte	0
 888 0049 00       		.byte	0
 889 004a 07       		.uleb128 0x7
 890 004b 2E       		.uleb128 0x2e
 891 004c 00       		.byte	0
 892 004d 3F       		.uleb128 0x3f
 893 004e 19       		.uleb128 0x19
 894 004f 03       		.uleb128 0x3
 895 0050 0E       		.uleb128 0xe
 896 0051 3A       		.uleb128 0x3a
 897 0052 0B       		.uleb128 0xb
 898 0053 3B       		.uleb128 0x3b
 899 0054 0B       		.uleb128 0xb
 900 0055 27       		.uleb128 0x27
 901 0056 19       		.uleb128 0x19
 902 0057 11       		.uleb128 0x11
ARM GAS  C:\Users\LUKASC~1\AppData\Local\Temp\ccJ3cWMY.s 			page 20


 903 0058 01       		.uleb128 0x1
 904 0059 12       		.uleb128 0x12
 905 005a 06       		.uleb128 0x6
 906 005b 40       		.uleb128 0x40
 907 005c 18       		.uleb128 0x18
 908 005d 9642     		.uleb128 0x2116
 909 005f 19       		.uleb128 0x19
 910 0060 00       		.byte	0
 911 0061 00       		.byte	0
 912 0062 08       		.uleb128 0x8
 913 0063 2E       		.uleb128 0x2e
 914 0064 00       		.byte	0
 915 0065 3F       		.uleb128 0x3f
 916 0066 19       		.uleb128 0x19
 917 0067 03       		.uleb128 0x3
 918 0068 0E       		.uleb128 0xe
 919 0069 3A       		.uleb128 0x3a
 920 006a 0B       		.uleb128 0xb
 921 006b 3B       		.uleb128 0x3b
 922 006c 0B       		.uleb128 0xb
 923 006d 11       		.uleb128 0x11
 924 006e 01       		.uleb128 0x1
 925 006f 12       		.uleb128 0x12
 926 0070 06       		.uleb128 0x6
 927 0071 40       		.uleb128 0x40
 928 0072 18       		.uleb128 0x18
 929 0073 9642     		.uleb128 0x2116
 930 0075 19       		.uleb128 0x19
 931 0076 00       		.byte	0
 932 0077 00       		.byte	0
 933 0078 09       		.uleb128 0x9
 934 0079 2E       		.uleb128 0x2e
 935 007a 00       		.byte	0
 936 007b 3F       		.uleb128 0x3f
 937 007c 19       		.uleb128 0x19
 938 007d 03       		.uleb128 0x3
 939 007e 0E       		.uleb128 0xe
 940 007f 3A       		.uleb128 0x3a
 941 0080 0B       		.uleb128 0xb
 942 0081 3B       		.uleb128 0x3b
 943 0082 0B       		.uleb128 0xb
 944 0083 11       		.uleb128 0x11
 945 0084 01       		.uleb128 0x1
 946 0085 12       		.uleb128 0x12
 947 0086 06       		.uleb128 0x6
 948 0087 40       		.uleb128 0x40
 949 0088 18       		.uleb128 0x18
 950 0089 9742     		.uleb128 0x2117
 951 008b 19       		.uleb128 0x19
 952 008c 00       		.byte	0
 953 008d 00       		.byte	0
 954 008e 0A       		.uleb128 0xa
 955 008f 2E       		.uleb128 0x2e
 956 0090 01       		.byte	0x1
 957 0091 3F       		.uleb128 0x3f
 958 0092 19       		.uleb128 0x19
 959 0093 03       		.uleb128 0x3
ARM GAS  C:\Users\LUKASC~1\AppData\Local\Temp\ccJ3cWMY.s 			page 21


 960 0094 0E       		.uleb128 0xe
 961 0095 3A       		.uleb128 0x3a
 962 0096 0B       		.uleb128 0xb
 963 0097 3B       		.uleb128 0x3b
 964 0098 0B       		.uleb128 0xb
 965 0099 27       		.uleb128 0x27
 966 009a 19       		.uleb128 0x19
 967 009b 11       		.uleb128 0x11
 968 009c 01       		.uleb128 0x1
 969 009d 12       		.uleb128 0x12
 970 009e 06       		.uleb128 0x6
 971 009f 40       		.uleb128 0x40
 972 00a0 18       		.uleb128 0x18
 973 00a1 9642     		.uleb128 0x2116
 974 00a3 19       		.uleb128 0x19
 975 00a4 01       		.uleb128 0x1
 976 00a5 13       		.uleb128 0x13
 977 00a6 00       		.byte	0
 978 00a7 00       		.byte	0
 979 00a8 0B       		.uleb128 0xb
 980 00a9 34       		.uleb128 0x34
 981 00aa 00       		.byte	0
 982 00ab 03       		.uleb128 0x3
 983 00ac 08       		.uleb128 0x8
 984 00ad 3A       		.uleb128 0x3a
 985 00ae 0B       		.uleb128 0xb
 986 00af 3B       		.uleb128 0x3b
 987 00b0 0B       		.uleb128 0xb
 988 00b1 49       		.uleb128 0x49
 989 00b2 13       		.uleb128 0x13
 990 00b3 02       		.uleb128 0x2
 991 00b4 18       		.uleb128 0x18
 992 00b5 00       		.byte	0
 993 00b6 00       		.byte	0
 994 00b7 0C       		.uleb128 0xc
 995 00b8 2E       		.uleb128 0x2e
 996 00b9 01       		.byte	0x1
 997 00ba 3F       		.uleb128 0x3f
 998 00bb 19       		.uleb128 0x19
 999 00bc 03       		.uleb128 0x3
 1000 00bd 0E       		.uleb128 0xe
 1001 00be 3A       		.uleb128 0x3a
 1002 00bf 0B       		.uleb128 0xb
 1003 00c0 3B       		.uleb128 0x3b
 1004 00c1 0B       		.uleb128 0xb
 1005 00c2 11       		.uleb128 0x11
 1006 00c3 01       		.uleb128 0x1
 1007 00c4 12       		.uleb128 0x12
 1008 00c5 06       		.uleb128 0x6
 1009 00c6 40       		.uleb128 0x40
 1010 00c7 18       		.uleb128 0x18
 1011 00c8 9642     		.uleb128 0x2116
 1012 00ca 19       		.uleb128 0x19
 1013 00cb 01       		.uleb128 0x1
 1014 00cc 13       		.uleb128 0x13
 1015 00cd 00       		.byte	0
 1016 00ce 00       		.byte	0
ARM GAS  C:\Users\LUKASC~1\AppData\Local\Temp\ccJ3cWMY.s 			page 22


 1017 00cf 0D       		.uleb128 0xd
 1018 00d0 34       		.uleb128 0x34
 1019 00d1 00       		.byte	0
 1020 00d2 03       		.uleb128 0x3
 1021 00d3 0E       		.uleb128 0xe
 1022 00d4 3A       		.uleb128 0x3a
 1023 00d5 0B       		.uleb128 0xb
 1024 00d6 3B       		.uleb128 0x3b
 1025 00d7 0B       		.uleb128 0xb
 1026 00d8 49       		.uleb128 0x49
 1027 00d9 13       		.uleb128 0x13
 1028 00da 02       		.uleb128 0x2
 1029 00db 18       		.uleb128 0x18
 1030 00dc 00       		.byte	0
 1031 00dd 00       		.byte	0
 1032 00de 0E       		.uleb128 0xe
 1033 00df 34       		.uleb128 0x34
 1034 00e0 00       		.byte	0
 1035 00e1 03       		.uleb128 0x3
 1036 00e2 0E       		.uleb128 0xe
 1037 00e3 3A       		.uleb128 0x3a
 1038 00e4 0B       		.uleb128 0xb
 1039 00e5 3B       		.uleb128 0x3b
 1040 00e6 05       		.uleb128 0x5
 1041 00e7 49       		.uleb128 0x49
 1042 00e8 13       		.uleb128 0x13
 1043 00e9 3F       		.uleb128 0x3f
 1044 00ea 19       		.uleb128 0x19
 1045 00eb 3C       		.uleb128 0x3c
 1046 00ec 19       		.uleb128 0x19
 1047 00ed 00       		.byte	0
 1048 00ee 00       		.byte	0
 1049 00ef 0F       		.uleb128 0xf
 1050 00f0 01       		.uleb128 0x1
 1051 00f1 01       		.byte	0x1
 1052 00f2 49       		.uleb128 0x49
 1053 00f3 13       		.uleb128 0x13
 1054 00f4 01       		.uleb128 0x1
 1055 00f5 13       		.uleb128 0x13
 1056 00f6 00       		.byte	0
 1057 00f7 00       		.byte	0
 1058 00f8 10       		.uleb128 0x10
 1059 00f9 21       		.uleb128 0x21
 1060 00fa 00       		.byte	0
 1061 00fb 49       		.uleb128 0x49
 1062 00fc 13       		.uleb128 0x13
 1063 00fd 2F       		.uleb128 0x2f
 1064 00fe 0B       		.uleb128 0xb
 1065 00ff 00       		.byte	0
 1066 0100 00       		.byte	0
 1067 0101 11       		.uleb128 0x11
 1068 0102 34       		.uleb128 0x34
 1069 0103 00       		.byte	0
 1070 0104 03       		.uleb128 0x3
 1071 0105 0E       		.uleb128 0xe
 1072 0106 3A       		.uleb128 0x3a
 1073 0107 0B       		.uleb128 0xb
ARM GAS  C:\Users\LUKASC~1\AppData\Local\Temp\ccJ3cWMY.s 			page 23


 1074 0108 3B       		.uleb128 0x3b
 1075 0109 0B       		.uleb128 0xb
 1076 010a 49       		.uleb128 0x49
 1077 010b 13       		.uleb128 0x13
 1078 010c 3F       		.uleb128 0x3f
 1079 010d 19       		.uleb128 0x19
 1080 010e 02       		.uleb128 0x2
 1081 010f 18       		.uleb128 0x18
 1082 0110 00       		.byte	0
 1083 0111 00       		.byte	0
 1084 0112 12       		.uleb128 0x12
 1085 0113 21       		.uleb128 0x21
 1086 0114 00       		.byte	0
 1087 0115 49       		.uleb128 0x49
 1088 0116 13       		.uleb128 0x13
 1089 0117 2F       		.uleb128 0x2f
 1090 0118 05       		.uleb128 0x5
 1091 0119 00       		.byte	0
 1092 011a 00       		.byte	0
 1093 011b 00       		.byte	0
 1094              		.section	.debug_aranges,"",%progbits
 1095 0000 3C000000 		.4byte	0x3c
 1096 0004 0200     		.2byte	0x2
 1097 0006 00000000 		.4byte	.Ldebug_info0
 1098 000a 04       		.byte	0x4
 1099 000b 00       		.byte	0
 1100 000c 0000     		.2byte	0
 1101 000e 0000     		.2byte	0
 1102 0010 00000000 		.4byte	.LFB63
 1103 0014 68000000 		.4byte	.LFE63-.LFB63
 1104 0018 00000000 		.4byte	.LFB64
 1105 001c 12000000 		.4byte	.LFE64-.LFB64
 1106 0020 00000000 		.4byte	.LFB65
 1107 0024 0C000000 		.4byte	.LFE65-.LFB65
 1108 0028 00000000 		.4byte	.LFB66
 1109 002c DC000000 		.4byte	.LFE66-.LFB66
 1110 0030 00000000 		.4byte	.LFB67
 1111 0034 34010000 		.4byte	.LFE67-.LFB67
 1112 0038 00000000 		.4byte	0
 1113 003c 00000000 		.4byte	0
 1114              		.section	.debug_ranges,"",%progbits
 1115              	.Ldebug_ranges0:
 1116 0000 00000000 		.4byte	.LFB63
 1117 0004 68000000 		.4byte	.LFE63
 1118 0008 00000000 		.4byte	.LFB64
 1119 000c 12000000 		.4byte	.LFE64
 1120 0010 00000000 		.4byte	.LFB65
 1121 0014 0C000000 		.4byte	.LFE65
 1122 0018 00000000 		.4byte	.LFB66
 1123 001c DC000000 		.4byte	.LFE66
 1124 0020 00000000 		.4byte	.LFB67
 1125 0024 34010000 		.4byte	.LFE67
 1126 0028 00000000 		.4byte	0
 1127 002c 00000000 		.4byte	0
 1128              		.section	.debug_line,"",%progbits
 1129              	.Ldebug_line0:
 1130 0000 58020000 		.section	.debug_str,"MS",%progbits,1
ARM GAS  C:\Users\LUKASC~1\AppData\Local\Temp\ccJ3cWMY.s 			page 24


 1130      02005901 
 1130      00000201 
 1130      FB0E0D00 
 1130      01010101 
 1131              	.LASF6:
 1132 0000 6C6F6E67 		.ascii	"long long int\000"
 1132      206C6F6E 
 1132      6720696E 
 1132      7400
 1133              	.LASF20:
 1134 000e 49325374 		.ascii	"I2Stest\000"
 1134      65737400 
 1135              	.LASF34:
 1136 0016 433A5C55 		.ascii	"C:\\Users\\Lukas Creutzburg\\Documents\\GitHub\\fre"
 1136      73657273 
 1136      5C4C756B 
 1136      61732043 
 1136      72657574 
 1137 0044 65445350 		.ascii	"eDSPPSoC-I2C\\PSoC5_SPI_Master_DSP.cydsn\000"
 1137      50536F43 
 1137      2D493243 
 1137      5C50536F 
 1137      43355F53 
 1138              	.LASF9:
 1139 006c 5F5F696E 		.ascii	"__int32_t\000"
 1139      7433325F 
 1139      7400
 1140              	.LASF32:
 1141 0076 474E5520 		.ascii	"GNU C 4.9.3 20150303 (release) [ARM/embedded-4_9-br"
 1141      4320342E 
 1141      392E3320 
 1141      32303135 
 1141      30333033 
 1142 00a9 616E6368 		.ascii	"anch revision 221220] -mcpu=cortex-m3 -mthumb -g -O"
 1142      20726576 
 1142      6973696F 
 1142      6E203232 
 1142      31323230 
 1143 00dc 30202D66 		.ascii	"0 -ffunction-sections -ffat-lto-objects\000"
 1143      66756E63 
 1143      74696F6E 
 1143      2D736563 
 1143      74696F6E 
 1144              	.LASF21:
 1145 0104 736B6970 		.ascii	"skipNextOut\000"
 1145      4E657874 
 1145      4F757400 
 1146              	.LASF19:
 1147 0110 49325369 		.ascii	"I2Sinit\000"
 1147      6E697400 
 1148              	.LASF27:
 1149 0118 696E496E 		.ascii	"inIndex\000"
 1149      64657800 
 1150              	.LASF14:
 1151 0120 666C6F61 		.ascii	"float\000"
 1151      7400
 1152              	.LASF1:
ARM GAS  C:\Users\LUKASC~1\AppData\Local\Temp\ccJ3cWMY.s 			page 25


 1153 0126 756E7369 		.ascii	"unsigned char\000"
 1153      676E6564 
 1153      20636861 
 1153      7200
 1154              	.LASF17:
 1155 0134 72656738 		.ascii	"reg8\000"
 1155      00
 1156              	.LASF5:
 1157 0139 6C6F6E67 		.ascii	"long unsigned int\000"
 1157      20756E73 
 1157      69676E65 
 1157      6420696E 
 1157      7400
 1158              	.LASF24:
 1159 014b 74656D70 		.ascii	"temp\000"
 1159      00
 1160              	.LASF3:
 1161 0150 73686F72 		.ascii	"short unsigned int\000"
 1161      7420756E 
 1161      7369676E 
 1161      65642069 
 1161      6E7400
 1162              	.LASF22:
 1163 0163 49544D5F 		.ascii	"ITM_RxBuffer\000"
 1163      52784275 
 1163      66666572 
 1163      00
 1164              	.LASF15:
 1165 0170 646F7562 		.ascii	"double\000"
 1165      6C6500
 1166              	.LASF25:
 1167 0177 736F756E 		.ascii	"soundBuffer\000"
 1167      64427566 
 1167      66657200 
 1168              	.LASF33:
 1169 0183 2E5C6932 		.ascii	".\\i2s.c\000"
 1169      732E6300 
 1170              	.LASF12:
 1171 018b 75696E74 		.ascii	"uint16\000"
 1171      313600
 1172              	.LASF13:
 1173 0192 75696E74 		.ascii	"uint32\000"
 1173      333200
 1174              	.LASF8:
 1175 0199 756E7369 		.ascii	"unsigned int\000"
 1175      676E6564 
 1175      20696E74 
 1175      00
 1176              	.LASF35:
 1177 01a6 5478446D 		.ascii	"TxDmaDone\000"
 1177      61446F6E 
 1177      6500
 1178              	.LASF7:
 1179 01b0 6C6F6E67 		.ascii	"long long unsigned int\000"
 1179      206C6F6E 
 1179      6720756E 
 1179      7369676E 
ARM GAS  C:\Users\LUKASC~1\AppData\Local\Temp\ccJ3cWMY.s 			page 26


 1179      65642069 
 1180              	.LASF26:
 1181 01c7 6F757449 		.ascii	"outIndex\000"
 1181      6E646578 
 1181      00
 1182              	.LASF29:
 1183 01d0 73796E63 		.ascii	"syncDmaCounter\000"
 1183      446D6143 
 1183      6F756E74 
 1183      657200
 1184              	.LASF23:
 1185 01df 77724275 		.ascii	"wrBuffer\000"
 1185      66666572 
 1185      00
 1186              	.LASF10:
 1187 01e8 696E7433 		.ascii	"int32_t\000"
 1187      325F7400 
 1188              	.LASF18:
 1189 01f0 73697A65 		.ascii	"sizetype\000"
 1189      74797065 
 1189      00
 1190              	.LASF31:
 1191 01f9 54784F75 		.ascii	"TxOutDmaTd\000"
 1191      74446D61 
 1191      546400
 1192              	.LASF16:
 1193 0204 63686172 		.ascii	"char\000"
 1193      00
 1194              	.LASF30:
 1195 0209 54784F75 		.ascii	"TxOutDmaCh\000"
 1195      74446D61 
 1195      436800
 1196              	.LASF2:
 1197 0214 73686F72 		.ascii	"short int\000"
 1197      7420696E 
 1197      7400
 1198              	.LASF11:
 1199 021e 75696E74 		.ascii	"uint8\000"
 1199      3800
 1200              	.LASF37:
 1201 0224 55534272 		.ascii	"USBrefresh\000"
 1201      65667265 
 1201      736800
 1202              	.LASF36:
 1203 022f 446D6154 		.ascii	"DmaTxConfiguration\000"
 1203      78436F6E 
 1203      66696775 
 1203      72617469 
 1203      6F6E00
 1204              	.LASF4:
 1205 0242 6C6F6E67 		.ascii	"long int\000"
 1205      20696E74 
 1205      00
 1206              	.LASF0:
 1207 024b 7369676E 		.ascii	"signed char\000"
 1207      65642063 
 1207      68617200 
ARM GAS  C:\Users\LUKASC~1\AppData\Local\Temp\ccJ3cWMY.s 			page 27


 1208              	.LASF28:
 1209 0257 73796E63 		.ascii	"syncDma\000"
 1209      446D6100 
 1210              		.ident	"GCC: (GNU Tools for ARM Embedded Processors) 4.9.3 20150303 (release) [ARM/embedded-4_9-br
