ARM GAS  C:\Users\LUKASC~1\AppData\Local\Temp\cc9x9F8T.s 			page 1


   1              		.syntax unified
   2              		.cpu cortex-m3
   3              		.fpu softvfp
   4              		.eabi_attribute 20, 1
   5              		.eabi_attribute 21, 1
   6              		.eabi_attribute 23, 3
   7              		.eabi_attribute 24, 1
   8              		.eabi_attribute 25, 1
   9              		.eabi_attribute 26, 1
  10              		.eabi_attribute 30, 6
  11              		.eabi_attribute 34, 1
  12              		.eabi_attribute 18, 4
  13              		.thumb
  14              		.file	"main.c"
  15              		.text
  16              	.Ltext0:
  17              		.cfi_sections	.debug_frame
  18              		.global _printf_float
  19              		.global _printf_float
  20              		.thumb
  21              		.comm	wrBuffer,64,4
  22              		.comm	temp,1,1
  23              		.global _printf_float
  24              		.section	.rodata
  25              		.align	2
  26              	.LC0:
  27 0000 4E6F7720 		.ascii	"Now sending via SPI\012\015\000"
  27      73656E64 
  27      696E6720 
  27      76696120 
  27      5350490A 
  28 0016 0000     		.align	2
  29              	.LC1:
  30 0018 54686520 		.ascii	"The value is: 0x%4x und 0x%4x \012\015\012\015\000"
  30      76616C75 
  30      65206973 
  30      3A203078 
  30      25347820 
  31              		.thumb
  32 003b 00       		.section	.text.main,"ax",%progbits
  33              		.align	2
  34              		.global	main
  35              		.thumb
  36              		.thumb_func
  37              		.type	main, %function
  38              	main:
  39              	.LFB63:
  40              		.file 1 ".\\main.c"
   1:.\main.c      **** /*******************************************************************************
   2:.\main.c      **** * File Name: main.c
   3:.\main.c      **** *
   4:.\main.c      **** * Version: 1.0
   5:.\main.c      **** * Author: Lukas Creutzburg
   6:.\main.c      **** *
   7:.\main.c      **** * Description:
   8:.\main.c      **** *  Interaction with DSP
   9:.\main.c      **** *
ARM GAS  C:\Users\LUKASC~1\AppData\Local\Temp\cc9x9F8T.s 			page 2


  10:.\main.c      **** *******************************************************************************/
  11:.\main.c      **** 
  12:.\main.c      **** #include "main.h"
  13:.\main.c      **** 
  14:.\main.c      **** 
  15:.\main.c      **** 
  16:.\main.c      **** /*******************************************************************************
  17:.\main.c      **** * Function Name: main
  18:.\main.c      **** ********************************************************************************
  19:.\main.c      **** *
  20:.\main.c      **** * Summary:
  21:.\main.c      **** *  main() sends things via SPI and UART simmultaniously
  22:.\main.c      **** *
  23:.\main.c      **** * Parameters:
  24:.\main.c      **** *  None.
  25:.\main.c      **** *
  26:.\main.c      **** * Return:
  27:.\main.c      **** *  None.
  28:.\main.c      **** *
  29:.\main.c      **** *******************************************************************************/
  30:.\main.c      **** int main()
  31:.\main.c      **** {
  41              		.loc 1 31 0
  42              		.cfi_startproc
  43              		@ args = 0, pretend = 0, frame = 8
  44              		@ frame_needed = 1, uses_anonymous_args = 0
  45 0000 80B5     		push	{r7, lr}
  46              		.cfi_def_cfa_offset 8
  47              		.cfi_offset 7, -8
  48              		.cfi_offset 14, -4
  49 0002 82B0     		sub	sp, sp, #8
  50              		.cfi_def_cfa_offset 16
  51 0004 00AF     		add	r7, sp, #0
  52              		.cfi_def_cfa_register 7
  32:.\main.c      ****     uint16 value[2];
  33:.\main.c      ****     value[0] = 0xAABB;
  53              		.loc 1 33 0
  54 0006 4AF6BB23 		movw	r3, #43707
  55 000a BB80     		strh	r3, [r7, #4]	@ movhi
  34:.\main.c      ****     value[1] = 0xCCDD;
  56              		.loc 1 34 0
  57 000c 4CF6DD43 		movw	r3, #52445
  58 0010 FB80     		strh	r3, [r7, #6]	@ movhi
  35:.\main.c      **** 
  36:.\main.c      **** 
  37:.\main.c      ****     /* Enable Global interrupts - used for USB communication */
  38:.\main.c      ****     CyGlobalIntEnable;
  59              		.loc 1 38 0
  60              	@ 38 ".\main.c" 1
  61 0012 62B6     		CPSIE   i
  62              	@ 0 "" 2
  39:.\main.c      **** 
  40:.\main.c      ****     DSPinit();
  63              		.loc 1 40 0
  64              		.thumb
  65 0014 FFF7FEFF 		bl	DSPinit
  41:.\main.c      ****     UARTinit();
ARM GAS  C:\Users\LUKASC~1\AppData\Local\Temp\cc9x9F8T.s 			page 3


  66              		.loc 1 41 0
  67 0018 FFF7FEFF 		bl	UARTinit
  68              	.L2:
  42:.\main.c      **** 
  43:.\main.c      ****     for(;;)
  44:.\main.c      ****     {
  45:.\main.c      ****         //PrintToUSBUART("Please choose the channel (0-7) \n\r");
  46:.\main.c      ****         UARTsendString("Now sending via SPI\n\r");
  69              		.loc 1 46 0 discriminator 1
  70 001c 0A48     		ldr	r0, .L3
  71 001e FFF7FEFF 		bl	UARTsendString
  47:.\main.c      **** 
  48:.\main.c      ****         SPIsendArray(value);
  72              		.loc 1 48 0 discriminator 1
  73 0022 3B1D     		adds	r3, r7, #4
  74 0024 1846     		mov	r0, r3
  75 0026 FFF7FEFF 		bl	SPIsendArray
  49:.\main.c      ****         
  50:.\main.c      ****         sprintf((char *)wrBuffer, "The value is: 0x%4x und 0x%4x \n\r\n\r", value[0], value[1]);
  76              		.loc 1 50 0 discriminator 1
  77 002a BB88     		ldrh	r3, [r7, #4]
  78 002c 1A46     		mov	r2, r3
  79 002e FB88     		ldrh	r3, [r7, #6]
  80 0030 0648     		ldr	r0, .L3+4
  81 0032 0749     		ldr	r1, .L3+8
  82 0034 FFF7FEFF 		bl	sprintf
  51:.\main.c      ****         UARTsendString((char8 *)wrBuffer);
  83              		.loc 1 51 0 discriminator 1
  84 0038 0448     		ldr	r0, .L3+4
  85 003a FFF7FEFF 		bl	UARTsendString
  52:.\main.c      ****         CyDelay(500);
  86              		.loc 1 52 0 discriminator 1
  87 003e 4FF4FA70 		mov	r0, #500
  88 0042 FFF7FEFF 		bl	CyDelay
  53:.\main.c      ****         
  54:.\main.c      ****         
  55:.\main.c      **** 
  56:.\main.c      ****     }  /* End of forever loop */
  89              		.loc 1 56 0 discriminator 1
  90 0046 E9E7     		b	.L2
  91              	.L4:
  92              		.align	2
  93              	.L3:
  94 0048 00000000 		.word	.LC0
  95 004c 00000000 		.word	wrBuffer
  96 0050 18000000 		.word	.LC1
  97              		.cfi_endproc
  98              	.LFE63:
  99              		.size	main, .-main
 100              		.text
 101              	.Letext0:
 102              		.file 2 "c:\\program files (x86)\\cypress\\psoc creator\\3.3\\psoc creator\\import\\gnu\\arm\\4.9.
 103              		.file 3 "c:\\program files (x86)\\cypress\\psoc creator\\3.3\\psoc creator\\import\\gnu\\arm\\4.9.
 104              		.file 4 "Generated_Source\\PSoC5/cytypes.h"
 105              		.file 5 "Generated_Source\\PSoC5/core_cm3.h"
 106              		.file 6 ".\\spimaster.h"