ARM GAS  C:\Users\LUKASC~1\AppData\Local\Temp\ccuGqwTu.s 			page 1


   1              		.syntax unified
   2              		.cpu cortex-m3
   3              		.fpu softvfp
   4              		.eabi_attribute 20, 1
   5              		.eabi_attribute 21, 1
   6              		.eabi_attribute 23, 3
   7              		.eabi_attribute 24, 1
   8              		.eabi_attribute 25, 1
   9              		.eabi_attribute 26, 1
  10              		.eabi_attribute 30, 6
  11              		.eabi_attribute 34, 1
  12              		.eabi_attribute 18, 4
  13              		.thumb
  14              		.file	"nrf24l01.c"
  15              		.text
  16              	.Ltext0:
  17              		.cfi_sections	.debug_frame
  18              		.global _printf_float
  19              		.thumb
  20              		.comm	wrBuffer,64,4
  21              		.comm	temp,1,1
  22              		.global _printf_float
  23              		.thumb
  24              		.section	.text.NRF24L01init,"ax",%progbits
  25              		.align	2
  26              		.global	NRF24L01init
  27              		.thumb
  28              		.thumb_func
  29              		.type	NRF24L01init, %function
  30              	NRF24L01init:
  31              	.LFB63:
  32              		.file 1 ".\\nrf24l01.c"
   1:.\nrf24l01.c  **** /*******************************************************************************
   2:.\nrf24l01.c  **** * File Name: nrf24l01.c
   3:.\nrf24l01.c  **** *
   4:.\nrf24l01.c  **** * Version: 0.0 
   5:.\nrf24l01.c  **** * Author: Lukas Creutzburg
   6:.\nrf24l01.c  **** *
   7:.\nrf24l01.c  **** * Description:
   8:.\nrf24l01.c  **** *   Funk Modul Interaktion
   9:.\nrf24l01.c  **** *
  10:.\nrf24l01.c  **** *
  11:.\nrf24l01.c  **** *******************************************************************************/
  12:.\nrf24l01.c  **** 
  13:.\nrf24l01.c  **** #include "nrf24l01.h"
  14:.\nrf24l01.c  **** 
  15:.\nrf24l01.c  **** 
  16:.\nrf24l01.c  **** void NRF24L01init()
  17:.\nrf24l01.c  **** {
  33              		.loc 1 17 0
  34              		.cfi_startproc
  35              		@ args = 0, pretend = 0, frame = 0
  36              		@ frame_needed = 1, uses_anonymous_args = 0
  37 0000 80B5     		push	{r7, lr}
  38              		.cfi_def_cfa_offset 8
  39              		.cfi_offset 7, -8
  40              		.cfi_offset 14, -4
ARM GAS  C:\Users\LUKASC~1\AppData\Local\Temp\ccuGqwTu.s 			page 2


  41 0002 00AF     		add	r7, sp, #0
  42              		.cfi_def_cfa_register 7
  18:.\nrf24l01.c  ****     SPIM_Funk_Start();
  43              		.loc 1 18 0
  44 0004 FFF7FEFF 		bl	SPIM_Funk_Start
  19:.\nrf24l01.c  ****     
  20:.\nrf24l01.c  ****     CE_Funk_Write(1);
  45              		.loc 1 20 0
  46 0008 0120     		movs	r0, #1
  47 000a FFF7FEFF 		bl	CE_Funk_Write
  21:.\nrf24l01.c  ****     
  22:.\nrf24l01.c  **** }
  48              		.loc 1 22 0
  49 000e 80BD     		pop	{r7, pc}
  50              		.cfi_endproc
  51              	.LFE63:
  52              		.size	NRF24L01init, .-NRF24L01init
  53              		.section	.text.NRF24L01writeReg,"ax",%progbits
  54              		.align	2
  55              		.global	NRF24L01writeReg
  56              		.thumb
  57              		.thumb_func
  58              		.type	NRF24L01writeReg, %function
  59              	NRF24L01writeReg:
  60              	.LFB64:
  23:.\nrf24l01.c  **** 
  24:.\nrf24l01.c  **** void NRF24L01writeReg(uint8 fivebit)
  25:.\nrf24l01.c  **** {
  61              		.loc 1 25 0
  62              		.cfi_startproc
  63              		@ args = 0, pretend = 0, frame = 8
  64              		@ frame_needed = 1, uses_anonymous_args = 0
  65 0000 80B5     		push	{r7, lr}
  66              		.cfi_def_cfa_offset 8
  67              		.cfi_offset 7, -8
  68              		.cfi_offset 14, -4
  69 0002 82B0     		sub	sp, sp, #8
  70              		.cfi_def_cfa_offset 16
  71 0004 00AF     		add	r7, sp, #0
  72              		.cfi_def_cfa_register 7
  73 0006 0346     		mov	r3, r0
  74 0008 FB71     		strb	r3, [r7, #7]
  26:.\nrf24l01.c  ****     CE_Funk_Write(0);
  75              		.loc 1 26 0
  76 000a 0020     		movs	r0, #0
  77 000c FFF7FEFF 		bl	CE_Funk_Write
  27:.\nrf24l01.c  ****     while(!(SPIM_Funk_ReadTxStatus() & (SPIM_Funk_STS_SPI_DONE | SPIM_Funk_STS_SPI_IDLE)));
  78              		.loc 1 27 0
  79 0010 00BF     		nop
  80              	.L3:
  81              		.loc 1 27 0 is_stmt 0 discriminator 1
  82 0012 FFF7FEFF 		bl	SPIM_Funk_ReadTxStatus
  83 0016 0346     		mov	r3, r0
  84 0018 03F01103 		and	r3, r3, #17
  85 001c 002B     		cmp	r3, #0
  86 001e F8D0     		beq	.L3
  28:.\nrf24l01.c  ****     /* Senden eines Wortes */
ARM GAS  C:\Users\LUKASC~1\AppData\Local\Temp\ccuGqwTu.s 			page 3


  29:.\nrf24l01.c  ****     SPIM_Funk_WriteTxData((1 << 5) & fivebit);
  87              		.loc 1 29 0 is_stmt 1
  88 0020 FB79     		ldrb	r3, [r7, #7]
  89 0022 03F02003 		and	r3, r3, #32
  90 0026 DBB2     		uxtb	r3, r3
  91 0028 1846     		mov	r0, r3
  92 002a FFF7FEFF 		bl	SPIM_Funk_WriteTxData
  30:.\nrf24l01.c  ****     CyDelayUs(10);
  93              		.loc 1 30 0
  94 002e 0A20     		movs	r0, #10
  95 0030 FFF7FEFF 		bl	CyDelayUs
  31:.\nrf24l01.c  ****     CE_Funk_Write(1);
  96              		.loc 1 31 0
  97 0034 0120     		movs	r0, #1
  98 0036 FFF7FEFF 		bl	CE_Funk_Write
  32:.\nrf24l01.c  **** }
  99              		.loc 1 32 0
 100 003a 0837     		adds	r7, r7, #8
 101              		.cfi_def_cfa_offset 8
 102 003c BD46     		mov	sp, r7
 103              		.cfi_def_cfa_register 13
 104              		@ sp needed
 105 003e 80BD     		pop	{r7, pc}
 106              		.cfi_endproc
 107              	.LFE64:
 108              		.size	NRF24L01writeReg, .-NRF24L01writeReg
 109              		.section	.text.NRF24L01readReg,"ax",%progbits
 110              		.align	2
 111              		.global	NRF24L01readReg
 112              		.thumb
 113              		.thumb_func
 114              		.type	NRF24L01readReg, %function
 115              	NRF24L01readReg:
 116              	.LFB65:
  33:.\nrf24l01.c  **** 
  34:.\nrf24l01.c  **** uint16 NRF24L01readReg(uint8 addressfivebit)
  35:.\nrf24l01.c  **** {
 117              		.loc 1 35 0
 118              		.cfi_startproc
 119              		@ args = 0, pretend = 0, frame = 16
 120              		@ frame_needed = 1, uses_anonymous_args = 0
 121 0000 80B5     		push	{r7, lr}
 122              		.cfi_def_cfa_offset 8
 123              		.cfi_offset 7, -8
 124              		.cfi_offset 14, -4
 125 0002 84B0     		sub	sp, sp, #16
 126              		.cfi_def_cfa_offset 24
 127 0004 00AF     		add	r7, sp, #0
 128              		.cfi_def_cfa_register 7
 129 0006 0346     		mov	r3, r0
 130 0008 FB71     		strb	r3, [r7, #7]
  36:.\nrf24l01.c  ****     CE_Funk_Write(0);
 131              		.loc 1 36 0
 132 000a 0020     		movs	r0, #0
 133 000c FFF7FEFF 		bl	CE_Funk_Write
  37:.\nrf24l01.c  ****     SPIM_Funk_ClearRxBuffer();
 134              		.loc 1 37 0
ARM GAS  C:\Users\LUKASC~1\AppData\Local\Temp\ccuGqwTu.s 			page 4


 135 0010 FFF7FEFF 		bl	SPIM_Funk_ClearRxBuffer
  38:.\nrf24l01.c  ****     /* Warten auf abschliessen der TX Uebertragung */
  39:.\nrf24l01.c  ****     while(!(SPIM_Funk_ReadTxStatus() & (SPIM_Funk_STS_SPI_DONE | SPIM_Funk_STS_SPI_IDLE)));
 136              		.loc 1 39 0
 137 0014 00BF     		nop
 138              	.L5:
 139              		.loc 1 39 0 is_stmt 0 discriminator 1
 140 0016 FFF7FEFF 		bl	SPIM_Funk_ReadTxStatus
 141 001a 0346     		mov	r3, r0
 142 001c 03F01103 		and	r3, r3, #17
 143 0020 002B     		cmp	r3, #0
 144 0022 F8D0     		beq	.L5
  40:.\nrf24l01.c  ****     /* Senden eines Wortes */
  41:.\nrf24l01.c  ****     SPIM_Funk_WriteTxData(0x00 + addressfivebit);
 145              		.loc 1 41 0 is_stmt 1
 146 0024 FB79     		ldrb	r3, [r7, #7]	@ zero_extendqisi2
 147 0026 1846     		mov	r0, r3
 148 0028 FFF7FEFF 		bl	SPIM_Funk_WriteTxData
  42:.\nrf24l01.c  ****     CyDelayUs(10);
 149              		.loc 1 42 0
 150 002c 0A20     		movs	r0, #10
 151 002e FFF7FEFF 		bl	CyDelayUs
  43:.\nrf24l01.c  ****     SPIM_Funk_WriteTxData(0xFF);
 152              		.loc 1 43 0
 153 0032 FF20     		movs	r0, #255
 154 0034 FFF7FEFF 		bl	SPIM_Funk_WriteTxData
  44:.\nrf24l01.c  ****     CyDelayUs(10);
 155              		.loc 1 44 0
 156 0038 0A20     		movs	r0, #10
 157 003a FFF7FEFF 		bl	CyDelayUs
  45:.\nrf24l01.c  ****     while(SPIM_Funk_GetRxBufferSize()==0){CyDelayUs(50);}
 158              		.loc 1 45 0
 159 003e 02E0     		b	.L6
 160              	.L7:
 161              		.loc 1 45 0 is_stmt 0 discriminator 2
 162 0040 3220     		movs	r0, #50
 163 0042 FFF7FEFF 		bl	CyDelayUs
 164              	.L6:
 165              		.loc 1 45 0 discriminator 1
 166 0046 FFF7FEFF 		bl	SPIM_Funk_GetRxBufferSize
 167 004a 0346     		mov	r3, r0
 168 004c 002B     		cmp	r3, #0
 169 004e F7D0     		beq	.L7
  46:.\nrf24l01.c  ****     uint16 received=SPIM_Funk_ReadRxData();
 170              		.loc 1 46 0 is_stmt 1
 171 0050 FFF7FEFF 		bl	SPIM_Funk_ReadRxData
 172 0054 0346     		mov	r3, r0
 173 0056 FB81     		strh	r3, [r7, #14]	@ movhi
  47:.\nrf24l01.c  ****     received=SPIM_Funk_ReadRxData();
 174              		.loc 1 47 0
 175 0058 FFF7FEFF 		bl	SPIM_Funk_ReadRxData
 176 005c 0346     		mov	r3, r0
 177 005e FB81     		strh	r3, [r7, #14]	@ movhi
  48:.\nrf24l01.c  ****     CyDelayUs(10);
 178              		.loc 1 48 0
 179 0060 0A20     		movs	r0, #10
 180 0062 FFF7FEFF 		bl	CyDelayUs
ARM GAS  C:\Users\LUKASC~1\AppData\Local\Temp\ccuGqwTu.s 			page 5


  49:.\nrf24l01.c  ****     CE_Funk_Write(1);
 181              		.loc 1 49 0
 182 0066 0120     		movs	r0, #1
 183 0068 FFF7FEFF 		bl	CE_Funk_Write
  50:.\nrf24l01.c  ****     return received;
 184              		.loc 1 50 0
 185 006c FB89     		ldrh	r3, [r7, #14]
  51:.\nrf24l01.c  **** }
 186              		.loc 1 51 0
 187 006e 1846     		mov	r0, r3
 188 0070 1037     		adds	r7, r7, #16
 189              		.cfi_def_cfa_offset 8
 190 0072 BD46     		mov	sp, r7
 191              		.cfi_def_cfa_register 13
 192              		@ sp needed
 193 0074 80BD     		pop	{r7, pc}
 194              		.cfi_endproc
 195              	.LFE65:
 196              		.size	NRF24L01readReg, .-NRF24L01readReg
 197              		.text
 198              	.Letext0:
 199              		.file 2 "c:\\program files (x86)\\cypress\\psoc creator\\3.3\\psoc creator\\import\\gnu\\arm\\4.9.
 200              		.file 3 "c:\\program files (x86)\\cypress\\psoc creator\\3.3\\psoc creator\\import\\gnu\\arm\\4.9.
 201              		.file 4 "Generated_Source\\PSoC5/cytypes.h"
 202              		.file 5 "Generated_Source\\PSoC5/core_cm3.h"
 203              		.file 6 ".\\spimaster.h"