ARM GAS  C:\Users\LUKASC~1\AppData\Local\Temp\ccFLeR0b.s 			page 1


   1              		.syntax unified
   2              		.cpu cortex-m3
   3              		.fpu softvfp
   4              		.eabi_attribute 20, 1
   5              		.eabi_attribute 21, 1
   6              		.eabi_attribute 23, 3
   7              		.eabi_attribute 24, 1
   8              		.eabi_attribute 25, 1
   9              		.eabi_attribute 26, 1
  10              		.eabi_attribute 30, 6
  11              		.eabi_attribute 34, 1
  12              		.eabi_attribute 18, 4
  13              		.thumb
  14              		.file	"SPIM_Funk.c"
  15              		.text
  16              	.Ltext0:
  17              		.cfi_sections	.debug_frame
  18              		.comm	SPIM_Funk_txBuffer,48,4
  19              		.comm	SPIM_Funk_txBufferFull,1,1
  20              		.comm	SPIM_Funk_txBufferRead,1,1
  21              		.comm	SPIM_Funk_txBufferWrite,1,1
  22              		.comm	SPIM_Funk_rxBuffer,48,4
  23              		.comm	SPIM_Funk_rxBufferFull,1,1
  24              		.comm	SPIM_Funk_rxBufferRead,1,1
  25              		.comm	SPIM_Funk_rxBufferWrite,1,1
  26              		.global	SPIM_Funk_initVar
  27              		.bss
  28              		.type	SPIM_Funk_initVar, %object
  29              		.size	SPIM_Funk_initVar, 1
  30              	SPIM_Funk_initVar:
  31 0000 00       		.space	1
  32              		.comm	SPIM_Funk_swStatusTx,1,1
  33              		.comm	SPIM_Funk_swStatusRx,1,1
  34              		.section	.text.SPIM_Funk_Init,"ax",%progbits
  35              		.align	2
  36              		.global	SPIM_Funk_Init
  37              		.thumb
  38              		.thumb_func
  39              		.type	SPIM_Funk_Init, %function
  40              	SPIM_Funk_Init:
  41              	.LFB0:
  42              		.file 1 ".\\Generated_Source\\PSoC5\\SPIM_Funk.c"
   1:.\Generated_Source\PSoC5/SPIM_Funk.c **** /*******************************************************************************
   2:.\Generated_Source\PSoC5/SPIM_Funk.c **** * File Name: SPIM_Funk.c
   3:.\Generated_Source\PSoC5/SPIM_Funk.c **** * Version 2.50
   4:.\Generated_Source\PSoC5/SPIM_Funk.c **** *
   5:.\Generated_Source\PSoC5/SPIM_Funk.c **** * Description:
   6:.\Generated_Source\PSoC5/SPIM_Funk.c **** *  This file provides all API functionality of the SPI Master component.
   7:.\Generated_Source\PSoC5/SPIM_Funk.c **** *
   8:.\Generated_Source\PSoC5/SPIM_Funk.c **** * Note:
   9:.\Generated_Source\PSoC5/SPIM_Funk.c **** *  None.
  10:.\Generated_Source\PSoC5/SPIM_Funk.c **** *
  11:.\Generated_Source\PSoC5/SPIM_Funk.c **** ********************************************************************************
  12:.\Generated_Source\PSoC5/SPIM_Funk.c **** * Copyright 2008-2015, Cypress Semiconductor Corporation.  All rights reserved.
  13:.\Generated_Source\PSoC5/SPIM_Funk.c **** * You may use this file only in accordance with the license, terms, conditions,
  14:.\Generated_Source\PSoC5/SPIM_Funk.c **** * disclaimers, and limitations in the end user license agreement accompanying
  15:.\Generated_Source\PSoC5/SPIM_Funk.c **** * the software package with which this file was provided.
ARM GAS  C:\Users\LUKASC~1\AppData\Local\Temp\ccFLeR0b.s 			page 2


  16:.\Generated_Source\PSoC5/SPIM_Funk.c **** *******************************************************************************/
  17:.\Generated_Source\PSoC5/SPIM_Funk.c **** 
  18:.\Generated_Source\PSoC5/SPIM_Funk.c **** #include "SPIM_Funk_PVT.h"
  19:.\Generated_Source\PSoC5/SPIM_Funk.c **** 
  20:.\Generated_Source\PSoC5/SPIM_Funk.c **** #if(SPIM_Funk_TX_SOFTWARE_BUF_ENABLED)
  21:.\Generated_Source\PSoC5/SPIM_Funk.c ****     volatile uint8 SPIM_Funk_txBuffer[SPIM_Funk_TX_BUFFER_SIZE];
  22:.\Generated_Source\PSoC5/SPIM_Funk.c ****     volatile uint8 SPIM_Funk_txBufferFull;
  23:.\Generated_Source\PSoC5/SPIM_Funk.c ****     volatile uint8 SPIM_Funk_txBufferRead;
  24:.\Generated_Source\PSoC5/SPIM_Funk.c ****     volatile uint8 SPIM_Funk_txBufferWrite;
  25:.\Generated_Source\PSoC5/SPIM_Funk.c **** #endif /* (SPIM_Funk_TX_SOFTWARE_BUF_ENABLED) */
  26:.\Generated_Source\PSoC5/SPIM_Funk.c **** 
  27:.\Generated_Source\PSoC5/SPIM_Funk.c **** #if(SPIM_Funk_RX_SOFTWARE_BUF_ENABLED)
  28:.\Generated_Source\PSoC5/SPIM_Funk.c ****     volatile uint8 SPIM_Funk_rxBuffer[SPIM_Funk_RX_BUFFER_SIZE];
  29:.\Generated_Source\PSoC5/SPIM_Funk.c ****     volatile uint8 SPIM_Funk_rxBufferFull;
  30:.\Generated_Source\PSoC5/SPIM_Funk.c ****     volatile uint8 SPIM_Funk_rxBufferRead;
  31:.\Generated_Source\PSoC5/SPIM_Funk.c ****     volatile uint8 SPIM_Funk_rxBufferWrite;
  32:.\Generated_Source\PSoC5/SPIM_Funk.c **** #endif /* (SPIM_Funk_RX_SOFTWARE_BUF_ENABLED) */
  33:.\Generated_Source\PSoC5/SPIM_Funk.c **** 
  34:.\Generated_Source\PSoC5/SPIM_Funk.c **** uint8 SPIM_Funk_initVar = 0u;
  35:.\Generated_Source\PSoC5/SPIM_Funk.c **** 
  36:.\Generated_Source\PSoC5/SPIM_Funk.c **** volatile uint8 SPIM_Funk_swStatusTx;
  37:.\Generated_Source\PSoC5/SPIM_Funk.c **** volatile uint8 SPIM_Funk_swStatusRx;
  38:.\Generated_Source\PSoC5/SPIM_Funk.c **** 
  39:.\Generated_Source\PSoC5/SPIM_Funk.c **** 
  40:.\Generated_Source\PSoC5/SPIM_Funk.c **** /*******************************************************************************
  41:.\Generated_Source\PSoC5/SPIM_Funk.c **** * Function Name: SPIM_Funk_Init
  42:.\Generated_Source\PSoC5/SPIM_Funk.c **** ********************************************************************************
  43:.\Generated_Source\PSoC5/SPIM_Funk.c **** *
  44:.\Generated_Source\PSoC5/SPIM_Funk.c **** * Summary:
  45:.\Generated_Source\PSoC5/SPIM_Funk.c **** *  Inits/Restores default SPIM configuration provided with customizer.
  46:.\Generated_Source\PSoC5/SPIM_Funk.c **** *
  47:.\Generated_Source\PSoC5/SPIM_Funk.c **** * Parameters:
  48:.\Generated_Source\PSoC5/SPIM_Funk.c **** *  None.
  49:.\Generated_Source\PSoC5/SPIM_Funk.c **** *
  50:.\Generated_Source\PSoC5/SPIM_Funk.c **** * Return:
  51:.\Generated_Source\PSoC5/SPIM_Funk.c **** *  None.
  52:.\Generated_Source\PSoC5/SPIM_Funk.c **** *
  53:.\Generated_Source\PSoC5/SPIM_Funk.c **** * Side Effects:
  54:.\Generated_Source\PSoC5/SPIM_Funk.c **** *  When this function is called it initializes all of the necessary parameters
  55:.\Generated_Source\PSoC5/SPIM_Funk.c **** *  for execution. i.e. setting the initial interrupt mask, configuring the
  56:.\Generated_Source\PSoC5/SPIM_Funk.c **** *  interrupt service routine, configuring the bit-counter parameters and
  57:.\Generated_Source\PSoC5/SPIM_Funk.c **** *  clearing the FIFO and Status Register.
  58:.\Generated_Source\PSoC5/SPIM_Funk.c **** *
  59:.\Generated_Source\PSoC5/SPIM_Funk.c **** * Reentrant:
  60:.\Generated_Source\PSoC5/SPIM_Funk.c **** *  No.
  61:.\Generated_Source\PSoC5/SPIM_Funk.c **** *
  62:.\Generated_Source\PSoC5/SPIM_Funk.c **** *******************************************************************************/
  63:.\Generated_Source\PSoC5/SPIM_Funk.c **** void SPIM_Funk_Init(void) 
  64:.\Generated_Source\PSoC5/SPIM_Funk.c **** {
  43              		.loc 1 64 0
  44              		.cfi_startproc
  45              		@ args = 0, pretend = 0, frame = 0
  46              		@ frame_needed = 1, uses_anonymous_args = 0
  47 0000 80B5     		push	{r7, lr}
  48              		.cfi_def_cfa_offset 8
  49              		.cfi_offset 7, -8
  50              		.cfi_offset 14, -4
ARM GAS  C:\Users\LUKASC~1\AppData\Local\Temp\ccFLeR0b.s 			page 3


  51 0002 00AF     		add	r7, sp, #0
  52              		.cfi_def_cfa_register 7
  65:.\Generated_Source\PSoC5/SPIM_Funk.c ****     /* Initialize the Bit counter */
  66:.\Generated_Source\PSoC5/SPIM_Funk.c ****     SPIM_Funk_COUNTER_PERIOD_REG = SPIM_Funk_BITCTR_INIT;
  53              		.loc 1 66 0
  54 0004 1B4B     		ldr	r3, .L2
  55 0006 0F22     		movs	r2, #15
  56 0008 1A70     		strb	r2, [r3]
  67:.\Generated_Source\PSoC5/SPIM_Funk.c **** 
  68:.\Generated_Source\PSoC5/SPIM_Funk.c ****     /* Init TX ISR  */
  69:.\Generated_Source\PSoC5/SPIM_Funk.c ****     #if(0u != SPIM_Funk_INTERNAL_TX_INT_ENABLED)
  70:.\Generated_Source\PSoC5/SPIM_Funk.c ****         CyIntDisable         (SPIM_Funk_TX_ISR_NUMBER);
  57              		.loc 1 70 0
  58 000a 1B4B     		ldr	r3, .L2+4
  59 000c 0822     		movs	r2, #8
  60 000e 1A60     		str	r2, [r3]
  71:.\Generated_Source\PSoC5/SPIM_Funk.c ****         CyIntSetPriority     (SPIM_Funk_TX_ISR_NUMBER,  SPIM_Funk_TX_ISR_PRIORITY);
  61              		.loc 1 71 0
  62 0010 0320     		movs	r0, #3
  63 0012 0721     		movs	r1, #7
  64 0014 FFF7FEFF 		bl	CyIntSetPriority
  72:.\Generated_Source\PSoC5/SPIM_Funk.c ****         (void) CyIntSetVector(SPIM_Funk_TX_ISR_NUMBER, &SPIM_Funk_TX_ISR);
  65              		.loc 1 72 0
  66 0018 0320     		movs	r0, #3
  67 001a 1849     		ldr	r1, .L2+8
  68 001c FFF7FEFF 		bl	CyIntSetVector
  73:.\Generated_Source\PSoC5/SPIM_Funk.c ****     #endif /* (0u != SPIM_Funk_INTERNAL_TX_INT_ENABLED) */
  74:.\Generated_Source\PSoC5/SPIM_Funk.c **** 
  75:.\Generated_Source\PSoC5/SPIM_Funk.c ****     /* Init RX ISR  */
  76:.\Generated_Source\PSoC5/SPIM_Funk.c ****     #if(0u != SPIM_Funk_INTERNAL_RX_INT_ENABLED)
  77:.\Generated_Source\PSoC5/SPIM_Funk.c ****         CyIntDisable         (SPIM_Funk_RX_ISR_NUMBER);
  69              		.loc 1 77 0
  70 0020 154B     		ldr	r3, .L2+4
  71 0022 0422     		movs	r2, #4
  72 0024 1A60     		str	r2, [r3]
  78:.\Generated_Source\PSoC5/SPIM_Funk.c ****         CyIntSetPriority     (SPIM_Funk_RX_ISR_NUMBER,  SPIM_Funk_RX_ISR_PRIORITY);
  73              		.loc 1 78 0
  74 0026 0220     		movs	r0, #2
  75 0028 0721     		movs	r1, #7
  76 002a FFF7FEFF 		bl	CyIntSetPriority
  79:.\Generated_Source\PSoC5/SPIM_Funk.c ****         (void) CyIntSetVector(SPIM_Funk_RX_ISR_NUMBER, &SPIM_Funk_RX_ISR);
  77              		.loc 1 79 0
  78 002e 0220     		movs	r0, #2
  79 0030 1349     		ldr	r1, .L2+12
  80 0032 FFF7FEFF 		bl	CyIntSetVector
  80:.\Generated_Source\PSoC5/SPIM_Funk.c ****     #endif /* (0u != SPIM_Funk_INTERNAL_RX_INT_ENABLED) */
  81:.\Generated_Source\PSoC5/SPIM_Funk.c **** 
  82:.\Generated_Source\PSoC5/SPIM_Funk.c ****     /* Clear any stray data from the RX and TX FIFO */
  83:.\Generated_Source\PSoC5/SPIM_Funk.c ****     SPIM_Funk_ClearFIFO();
  81              		.loc 1 83 0
  82 0036 FFF7FEFF 		bl	SPIM_Funk_ClearFIFO
  84:.\Generated_Source\PSoC5/SPIM_Funk.c **** 
  85:.\Generated_Source\PSoC5/SPIM_Funk.c ****     #if(SPIM_Funk_RX_SOFTWARE_BUF_ENABLED)
  86:.\Generated_Source\PSoC5/SPIM_Funk.c ****         SPIM_Funk_rxBufferFull  = 0u;
  83              		.loc 1 86 0
  84 003a 124B     		ldr	r3, .L2+16
  85 003c 0022     		movs	r2, #0
ARM GAS  C:\Users\LUKASC~1\AppData\Local\Temp\ccFLeR0b.s 			page 4


  86 003e 1A70     		strb	r2, [r3]
  87:.\Generated_Source\PSoC5/SPIM_Funk.c ****         SPIM_Funk_rxBufferRead  = 0u;
  87              		.loc 1 87 0
  88 0040 114B     		ldr	r3, .L2+20
  89 0042 0022     		movs	r2, #0
  90 0044 1A70     		strb	r2, [r3]
  88:.\Generated_Source\PSoC5/SPIM_Funk.c ****         SPIM_Funk_rxBufferWrite = 0u;
  91              		.loc 1 88 0
  92 0046 114B     		ldr	r3, .L2+24
  93 0048 0022     		movs	r2, #0
  94 004a 1A70     		strb	r2, [r3]
  89:.\Generated_Source\PSoC5/SPIM_Funk.c ****     #endif /* (SPIM_Funk_RX_SOFTWARE_BUF_ENABLED) */
  90:.\Generated_Source\PSoC5/SPIM_Funk.c **** 
  91:.\Generated_Source\PSoC5/SPIM_Funk.c ****     #if(SPIM_Funk_TX_SOFTWARE_BUF_ENABLED)
  92:.\Generated_Source\PSoC5/SPIM_Funk.c ****         SPIM_Funk_txBufferFull  = 0u;
  95              		.loc 1 92 0
  96 004c 104B     		ldr	r3, .L2+28
  97 004e 0022     		movs	r2, #0
  98 0050 1A70     		strb	r2, [r3]
  93:.\Generated_Source\PSoC5/SPIM_Funk.c ****         SPIM_Funk_txBufferRead  = 0u;
  99              		.loc 1 93 0
 100 0052 104B     		ldr	r3, .L2+32
 101 0054 0022     		movs	r2, #0
 102 0056 1A70     		strb	r2, [r3]
  94:.\Generated_Source\PSoC5/SPIM_Funk.c ****         SPIM_Funk_txBufferWrite = 0u;
 103              		.loc 1 94 0
 104 0058 0F4B     		ldr	r3, .L2+36
 105 005a 0022     		movs	r2, #0
 106 005c 1A70     		strb	r2, [r3]
  95:.\Generated_Source\PSoC5/SPIM_Funk.c ****     #endif /* (SPIM_Funk_TX_SOFTWARE_BUF_ENABLED) */
  96:.\Generated_Source\PSoC5/SPIM_Funk.c **** 
  97:.\Generated_Source\PSoC5/SPIM_Funk.c ****     (void) SPIM_Funk_ReadTxStatus(); /* Clear Tx status and swStatusTx */
 107              		.loc 1 97 0
 108 005e FFF7FEFF 		bl	SPIM_Funk_ReadTxStatus
  98:.\Generated_Source\PSoC5/SPIM_Funk.c ****     (void) SPIM_Funk_ReadRxStatus(); /* Clear Rx status and swStatusRx */
 109              		.loc 1 98 0
 110 0062 FFF7FEFF 		bl	SPIM_Funk_ReadRxStatus
  99:.\Generated_Source\PSoC5/SPIM_Funk.c **** 
 100:.\Generated_Source\PSoC5/SPIM_Funk.c ****     /* Configure TX and RX interrupt mask */
 101:.\Generated_Source\PSoC5/SPIM_Funk.c ****     SPIM_Funk_TX_STATUS_MASK_REG = SPIM_Funk_TX_INIT_INTERRUPTS_MASK;
 111              		.loc 1 101 0
 112 0066 0D4B     		ldr	r3, .L2+40
 113 0068 0022     		movs	r2, #0
 114 006a 1A70     		strb	r2, [r3]
 102:.\Generated_Source\PSoC5/SPIM_Funk.c ****     SPIM_Funk_RX_STATUS_MASK_REG = SPIM_Funk_RX_INIT_INTERRUPTS_MASK;
 115              		.loc 1 102 0
 116 006c 0C4B     		ldr	r3, .L2+44
 117 006e 2022     		movs	r2, #32
 118 0070 1A70     		strb	r2, [r3]
 103:.\Generated_Source\PSoC5/SPIM_Funk.c **** }
 119              		.loc 1 103 0
 120 0072 80BD     		pop	{r7, pc}
 121              	.L3:
 122              		.align	2
 123              	.L2:
 124 0074 84640040 		.word	1073767556
 125 0078 80E100E0 		.word	-536813184
ARM GAS  C:\Users\LUKASC~1\AppData\Local\Temp\ccFLeR0b.s 			page 5


 126 007c 00000000 		.word	SPIM_Funk_TX_ISR
 127 0080 00000000 		.word	SPIM_Funk_RX_ISR
 128 0084 00000000 		.word	SPIM_Funk_rxBufferFull
 129 0088 00000000 		.word	SPIM_Funk_rxBufferRead
 130 008c 00000000 		.word	SPIM_Funk_rxBufferWrite
 131 0090 00000000 		.word	SPIM_Funk_txBufferFull
 132 0094 00000000 		.word	SPIM_Funk_txBufferRead
 133 0098 00000000 		.word	SPIM_Funk_txBufferWrite
 134 009c 87640040 		.word	1073767559
 135 00a0 87650040 		.word	1073767815
 136              		.cfi_endproc
 137              	.LFE0:
 138              		.size	SPIM_Funk_Init, .-SPIM_Funk_Init
 139              		.section	.text.SPIM_Funk_Enable,"ax",%progbits
 140              		.align	2
 141              		.global	SPIM_Funk_Enable
 142              		.thumb
 143              		.thumb_func
 144              		.type	SPIM_Funk_Enable, %function
 145              	SPIM_Funk_Enable:
 146              	.LFB1:
 104:.\Generated_Source\PSoC5/SPIM_Funk.c **** 
 105:.\Generated_Source\PSoC5/SPIM_Funk.c **** 
 106:.\Generated_Source\PSoC5/SPIM_Funk.c **** /*******************************************************************************
 107:.\Generated_Source\PSoC5/SPIM_Funk.c **** * Function Name: SPIM_Funk_Enable
 108:.\Generated_Source\PSoC5/SPIM_Funk.c **** ********************************************************************************
 109:.\Generated_Source\PSoC5/SPIM_Funk.c **** *
 110:.\Generated_Source\PSoC5/SPIM_Funk.c **** * Summary:
 111:.\Generated_Source\PSoC5/SPIM_Funk.c **** *  Enable SPIM component.
 112:.\Generated_Source\PSoC5/SPIM_Funk.c **** *
 113:.\Generated_Source\PSoC5/SPIM_Funk.c **** * Parameters:
 114:.\Generated_Source\PSoC5/SPIM_Funk.c **** *  None.
 115:.\Generated_Source\PSoC5/SPIM_Funk.c **** *
 116:.\Generated_Source\PSoC5/SPIM_Funk.c **** * Return:
 117:.\Generated_Source\PSoC5/SPIM_Funk.c **** *  None.
 118:.\Generated_Source\PSoC5/SPIM_Funk.c **** *
 119:.\Generated_Source\PSoC5/SPIM_Funk.c **** *******************************************************************************/
 120:.\Generated_Source\PSoC5/SPIM_Funk.c **** void SPIM_Funk_Enable(void) 
 121:.\Generated_Source\PSoC5/SPIM_Funk.c **** {
 147              		.loc 1 121 0
 148              		.cfi_startproc
 149              		@ args = 0, pretend = 0, frame = 8
 150              		@ frame_needed = 1, uses_anonymous_args = 0
 151 0000 80B5     		push	{r7, lr}
 152              		.cfi_def_cfa_offset 8
 153              		.cfi_offset 7, -8
 154              		.cfi_offset 14, -4
 155 0002 82B0     		sub	sp, sp, #8
 156              		.cfi_def_cfa_offset 16
 157 0004 00AF     		add	r7, sp, #0
 158              		.cfi_def_cfa_register 7
 122:.\Generated_Source\PSoC5/SPIM_Funk.c ****     uint8 enableInterrupts;
 123:.\Generated_Source\PSoC5/SPIM_Funk.c **** 
 124:.\Generated_Source\PSoC5/SPIM_Funk.c ****     enableInterrupts = CyEnterCriticalSection();
 159              		.loc 1 124 0
 160 0006 FFF7FEFF 		bl	CyEnterCriticalSection
 161 000a 0346     		mov	r3, r0
ARM GAS  C:\Users\LUKASC~1\AppData\Local\Temp\ccFLeR0b.s 			page 6


 162 000c FB71     		strb	r3, [r7, #7]
 125:.\Generated_Source\PSoC5/SPIM_Funk.c ****     SPIM_Funk_COUNTER_CONTROL_REG |= SPIM_Funk_CNTR_ENABLE;
 163              		.loc 1 125 0
 164 000e 114A     		ldr	r2, .L5
 165 0010 104B     		ldr	r3, .L5
 166 0012 1B78     		ldrb	r3, [r3]
 167 0014 DBB2     		uxtb	r3, r3
 168 0016 43F02003 		orr	r3, r3, #32
 169 001a DBB2     		uxtb	r3, r3
 170 001c 1370     		strb	r3, [r2]
 126:.\Generated_Source\PSoC5/SPIM_Funk.c ****     SPIM_Funk_TX_STATUS_ACTL_REG  |= SPIM_Funk_INT_ENABLE;
 171              		.loc 1 126 0
 172 001e 0E4A     		ldr	r2, .L5+4
 173 0020 0D4B     		ldr	r3, .L5+4
 174 0022 1B78     		ldrb	r3, [r3]
 175 0024 DBB2     		uxtb	r3, r3
 176 0026 43F01003 		orr	r3, r3, #16
 177 002a DBB2     		uxtb	r3, r3
 178 002c 1370     		strb	r3, [r2]
 127:.\Generated_Source\PSoC5/SPIM_Funk.c ****     SPIM_Funk_RX_STATUS_ACTL_REG  |= SPIM_Funk_INT_ENABLE;
 179              		.loc 1 127 0
 180 002e 0B4A     		ldr	r2, .L5+8
 181 0030 0A4B     		ldr	r3, .L5+8
 182 0032 1B78     		ldrb	r3, [r3]
 183 0034 DBB2     		uxtb	r3, r3
 184 0036 43F01003 		orr	r3, r3, #16
 185 003a DBB2     		uxtb	r3, r3
 186 003c 1370     		strb	r3, [r2]
 128:.\Generated_Source\PSoC5/SPIM_Funk.c ****     CyExitCriticalSection(enableInterrupts);
 187              		.loc 1 128 0
 188 003e FB79     		ldrb	r3, [r7, #7]	@ zero_extendqisi2
 189 0040 1846     		mov	r0, r3
 190 0042 FFF7FEFF 		bl	CyExitCriticalSection
 129:.\Generated_Source\PSoC5/SPIM_Funk.c **** 
 130:.\Generated_Source\PSoC5/SPIM_Funk.c ****     #if(0u != SPIM_Funk_INTERNAL_CLOCK)
 131:.\Generated_Source\PSoC5/SPIM_Funk.c ****         SPIM_Funk_IntClock_Enable();
 132:.\Generated_Source\PSoC5/SPIM_Funk.c ****     #endif /* (0u != SPIM_Funk_INTERNAL_CLOCK) */
 133:.\Generated_Source\PSoC5/SPIM_Funk.c **** 
 134:.\Generated_Source\PSoC5/SPIM_Funk.c ****     SPIM_Funk_EnableTxInt();
 191              		.loc 1 134 0
 192 0046 FFF7FEFF 		bl	SPIM_Funk_EnableTxInt
 135:.\Generated_Source\PSoC5/SPIM_Funk.c ****     SPIM_Funk_EnableRxInt();
 193              		.loc 1 135 0
 194 004a FFF7FEFF 		bl	SPIM_Funk_EnableRxInt
 136:.\Generated_Source\PSoC5/SPIM_Funk.c **** }
 195              		.loc 1 136 0
 196 004e 0837     		adds	r7, r7, #8
 197              		.cfi_def_cfa_offset 8
 198 0050 BD46     		mov	sp, r7
 199              		.cfi_def_cfa_register 13
 200              		@ sp needed
 201 0052 80BD     		pop	{r7, pc}
 202              	.L6:
 203              		.align	2
 204              	.L5:
 205 0054 94640040 		.word	1073767572
 206 0058 97640040 		.word	1073767575
ARM GAS  C:\Users\LUKASC~1\AppData\Local\Temp\ccFLeR0b.s 			page 7


 207 005c 97650040 		.word	1073767831
 208              		.cfi_endproc
 209              	.LFE1:
 210              		.size	SPIM_Funk_Enable, .-SPIM_Funk_Enable
 211              		.section	.text.SPIM_Funk_Start,"ax",%progbits
 212              		.align	2
 213              		.global	SPIM_Funk_Start
 214              		.thumb
 215              		.thumb_func
 216              		.type	SPIM_Funk_Start, %function
 217              	SPIM_Funk_Start:
 218              	.LFB2:
 137:.\Generated_Source\PSoC5/SPIM_Funk.c **** 
 138:.\Generated_Source\PSoC5/SPIM_Funk.c **** 
 139:.\Generated_Source\PSoC5/SPIM_Funk.c **** /*******************************************************************************
 140:.\Generated_Source\PSoC5/SPIM_Funk.c **** * Function Name: SPIM_Funk_Start
 141:.\Generated_Source\PSoC5/SPIM_Funk.c **** ********************************************************************************
 142:.\Generated_Source\PSoC5/SPIM_Funk.c **** *
 143:.\Generated_Source\PSoC5/SPIM_Funk.c **** * Summary:
 144:.\Generated_Source\PSoC5/SPIM_Funk.c **** *  Initialize and Enable the SPI Master component.
 145:.\Generated_Source\PSoC5/SPIM_Funk.c **** *
 146:.\Generated_Source\PSoC5/SPIM_Funk.c **** * Parameters:
 147:.\Generated_Source\PSoC5/SPIM_Funk.c **** *  None.
 148:.\Generated_Source\PSoC5/SPIM_Funk.c **** *
 149:.\Generated_Source\PSoC5/SPIM_Funk.c **** * Return:
 150:.\Generated_Source\PSoC5/SPIM_Funk.c **** *  None.
 151:.\Generated_Source\PSoC5/SPIM_Funk.c **** *
 152:.\Generated_Source\PSoC5/SPIM_Funk.c **** * Global variables:
 153:.\Generated_Source\PSoC5/SPIM_Funk.c **** *  SPIM_Funk_initVar - used to check initial configuration, modified on
 154:.\Generated_Source\PSoC5/SPIM_Funk.c **** *  first function call.
 155:.\Generated_Source\PSoC5/SPIM_Funk.c **** *
 156:.\Generated_Source\PSoC5/SPIM_Funk.c **** * Theory:
 157:.\Generated_Source\PSoC5/SPIM_Funk.c **** *  Enable the clock input to enable operation.
 158:.\Generated_Source\PSoC5/SPIM_Funk.c **** *
 159:.\Generated_Source\PSoC5/SPIM_Funk.c **** * Reentrant:
 160:.\Generated_Source\PSoC5/SPIM_Funk.c **** *  No.
 161:.\Generated_Source\PSoC5/SPIM_Funk.c **** *
 162:.\Generated_Source\PSoC5/SPIM_Funk.c **** *******************************************************************************/
 163:.\Generated_Source\PSoC5/SPIM_Funk.c **** void SPIM_Funk_Start(void) 
 164:.\Generated_Source\PSoC5/SPIM_Funk.c **** {
 219              		.loc 1 164 0
 220              		.cfi_startproc
 221              		@ args = 0, pretend = 0, frame = 0
 222              		@ frame_needed = 1, uses_anonymous_args = 0
 223 0000 80B5     		push	{r7, lr}
 224              		.cfi_def_cfa_offset 8
 225              		.cfi_offset 7, -8
 226              		.cfi_offset 14, -4
 227 0002 00AF     		add	r7, sp, #0
 228              		.cfi_def_cfa_register 7
 165:.\Generated_Source\PSoC5/SPIM_Funk.c ****     if(0u == SPIM_Funk_initVar)
 229              		.loc 1 165 0
 230 0004 054B     		ldr	r3, .L9
 231 0006 1B78     		ldrb	r3, [r3]	@ zero_extendqisi2
 232 0008 002B     		cmp	r3, #0
 233 000a 04D1     		bne	.L8
 166:.\Generated_Source\PSoC5/SPIM_Funk.c ****     {
ARM GAS  C:\Users\LUKASC~1\AppData\Local\Temp\ccFLeR0b.s 			page 8


 167:.\Generated_Source\PSoC5/SPIM_Funk.c ****         SPIM_Funk_Init();
 234              		.loc 1 167 0
 235 000c FFF7FEFF 		bl	SPIM_Funk_Init
 168:.\Generated_Source\PSoC5/SPIM_Funk.c ****         SPIM_Funk_initVar = 1u;
 236              		.loc 1 168 0
 237 0010 024B     		ldr	r3, .L9
 238 0012 0122     		movs	r2, #1
 239 0014 1A70     		strb	r2, [r3]
 240              	.L8:
 169:.\Generated_Source\PSoC5/SPIM_Funk.c ****     }
 170:.\Generated_Source\PSoC5/SPIM_Funk.c **** 
 171:.\Generated_Source\PSoC5/SPIM_Funk.c ****     SPIM_Funk_Enable();
 241              		.loc 1 171 0
 242 0016 FFF7FEFF 		bl	SPIM_Funk_Enable
 172:.\Generated_Source\PSoC5/SPIM_Funk.c **** }
 243              		.loc 1 172 0
 244 001a 80BD     		pop	{r7, pc}
 245              	.L10:
 246              		.align	2
 247              	.L9:
 248 001c 00000000 		.word	SPIM_Funk_initVar
 249              		.cfi_endproc
 250              	.LFE2:
 251              		.size	SPIM_Funk_Start, .-SPIM_Funk_Start
 252              		.section	.text.SPIM_Funk_Stop,"ax",%progbits
 253              		.align	2
 254              		.global	SPIM_Funk_Stop
 255              		.thumb
 256              		.thumb_func
 257              		.type	SPIM_Funk_Stop, %function
 258              	SPIM_Funk_Stop:
 259              	.LFB3:
 173:.\Generated_Source\PSoC5/SPIM_Funk.c **** 
 174:.\Generated_Source\PSoC5/SPIM_Funk.c **** 
 175:.\Generated_Source\PSoC5/SPIM_Funk.c **** /*******************************************************************************
 176:.\Generated_Source\PSoC5/SPIM_Funk.c **** * Function Name: SPIM_Funk_Stop
 177:.\Generated_Source\PSoC5/SPIM_Funk.c **** ********************************************************************************
 178:.\Generated_Source\PSoC5/SPIM_Funk.c **** *
 179:.\Generated_Source\PSoC5/SPIM_Funk.c **** * Summary:
 180:.\Generated_Source\PSoC5/SPIM_Funk.c **** *  Disable the SPI Master component.
 181:.\Generated_Source\PSoC5/SPIM_Funk.c **** *
 182:.\Generated_Source\PSoC5/SPIM_Funk.c **** * Parameters:
 183:.\Generated_Source\PSoC5/SPIM_Funk.c **** *  None.
 184:.\Generated_Source\PSoC5/SPIM_Funk.c **** *
 185:.\Generated_Source\PSoC5/SPIM_Funk.c **** * Return:
 186:.\Generated_Source\PSoC5/SPIM_Funk.c **** *  None.
 187:.\Generated_Source\PSoC5/SPIM_Funk.c **** *
 188:.\Generated_Source\PSoC5/SPIM_Funk.c **** * Theory:
 189:.\Generated_Source\PSoC5/SPIM_Funk.c **** *  Disable the clock input to enable operation.
 190:.\Generated_Source\PSoC5/SPIM_Funk.c **** *
 191:.\Generated_Source\PSoC5/SPIM_Funk.c **** *******************************************************************************/
 192:.\Generated_Source\PSoC5/SPIM_Funk.c **** void SPIM_Funk_Stop(void) 
 193:.\Generated_Source\PSoC5/SPIM_Funk.c **** {
 260              		.loc 1 193 0
 261              		.cfi_startproc
 262              		@ args = 0, pretend = 0, frame = 8
 263              		@ frame_needed = 1, uses_anonymous_args = 0
ARM GAS  C:\Users\LUKASC~1\AppData\Local\Temp\ccFLeR0b.s 			page 9


 264 0000 80B5     		push	{r7, lr}
 265              		.cfi_def_cfa_offset 8
 266              		.cfi_offset 7, -8
 267              		.cfi_offset 14, -4
 268 0002 82B0     		sub	sp, sp, #8
 269              		.cfi_def_cfa_offset 16
 270 0004 00AF     		add	r7, sp, #0
 271              		.cfi_def_cfa_register 7
 194:.\Generated_Source\PSoC5/SPIM_Funk.c ****     uint8 enableInterrupts;
 195:.\Generated_Source\PSoC5/SPIM_Funk.c **** 
 196:.\Generated_Source\PSoC5/SPIM_Funk.c ****     enableInterrupts = CyEnterCriticalSection();
 272              		.loc 1 196 0
 273 0006 FFF7FEFF 		bl	CyEnterCriticalSection
 274 000a 0346     		mov	r3, r0
 275 000c FB71     		strb	r3, [r7, #7]
 197:.\Generated_Source\PSoC5/SPIM_Funk.c ****     SPIM_Funk_TX_STATUS_ACTL_REG &= ((uint8) ~SPIM_Funk_INT_ENABLE);
 276              		.loc 1 197 0
 277 000e 0D4A     		ldr	r2, .L12
 278 0010 0C4B     		ldr	r3, .L12
 279 0012 1B78     		ldrb	r3, [r3]
 280 0014 DBB2     		uxtb	r3, r3
 281 0016 23F01003 		bic	r3, r3, #16
 282 001a DBB2     		uxtb	r3, r3
 283 001c 1370     		strb	r3, [r2]
 198:.\Generated_Source\PSoC5/SPIM_Funk.c ****     SPIM_Funk_RX_STATUS_ACTL_REG &= ((uint8) ~SPIM_Funk_INT_ENABLE);
 284              		.loc 1 198 0
 285 001e 0A4A     		ldr	r2, .L12+4
 286 0020 094B     		ldr	r3, .L12+4
 287 0022 1B78     		ldrb	r3, [r3]
 288 0024 DBB2     		uxtb	r3, r3
 289 0026 23F01003 		bic	r3, r3, #16
 290 002a DBB2     		uxtb	r3, r3
 291 002c 1370     		strb	r3, [r2]
 199:.\Generated_Source\PSoC5/SPIM_Funk.c ****     CyExitCriticalSection(enableInterrupts);
 292              		.loc 1 199 0
 293 002e FB79     		ldrb	r3, [r7, #7]	@ zero_extendqisi2
 294 0030 1846     		mov	r0, r3
 295 0032 FFF7FEFF 		bl	CyExitCriticalSection
 200:.\Generated_Source\PSoC5/SPIM_Funk.c **** 
 201:.\Generated_Source\PSoC5/SPIM_Funk.c ****     #if(0u != SPIM_Funk_INTERNAL_CLOCK)
 202:.\Generated_Source\PSoC5/SPIM_Funk.c ****         SPIM_Funk_IntClock_Disable();
 203:.\Generated_Source\PSoC5/SPIM_Funk.c ****     #endif /* (0u != SPIM_Funk_INTERNAL_CLOCK) */
 204:.\Generated_Source\PSoC5/SPIM_Funk.c **** 
 205:.\Generated_Source\PSoC5/SPIM_Funk.c ****     SPIM_Funk_DisableTxInt();
 296              		.loc 1 205 0
 297 0036 FFF7FEFF 		bl	SPIM_Funk_DisableTxInt
 206:.\Generated_Source\PSoC5/SPIM_Funk.c ****     SPIM_Funk_DisableRxInt();
 298              		.loc 1 206 0
 299 003a FFF7FEFF 		bl	SPIM_Funk_DisableRxInt
 207:.\Generated_Source\PSoC5/SPIM_Funk.c **** }
 300              		.loc 1 207 0
 301 003e 0837     		adds	r7, r7, #8
 302              		.cfi_def_cfa_offset 8
 303 0040 BD46     		mov	sp, r7
 304              		.cfi_def_cfa_register 13
 305              		@ sp needed
 306 0042 80BD     		pop	{r7, pc}
ARM GAS  C:\Users\LUKASC~1\AppData\Local\Temp\ccFLeR0b.s 			page 10


 307              	.L13:
 308              		.align	2
 309              	.L12:
 310 0044 97640040 		.word	1073767575
 311 0048 97650040 		.word	1073767831
 312              		.cfi_endproc
 313              	.LFE3:
 314              		.size	SPIM_Funk_Stop, .-SPIM_Funk_Stop
 315              		.section	.text.SPIM_Funk_EnableTxInt,"ax",%progbits
 316              		.align	2
 317              		.global	SPIM_Funk_EnableTxInt
 318              		.thumb
 319              		.thumb_func
 320              		.type	SPIM_Funk_EnableTxInt, %function
 321              	SPIM_Funk_EnableTxInt:
 322              	.LFB4:
 208:.\Generated_Source\PSoC5/SPIM_Funk.c **** 
 209:.\Generated_Source\PSoC5/SPIM_Funk.c **** 
 210:.\Generated_Source\PSoC5/SPIM_Funk.c **** /*******************************************************************************
 211:.\Generated_Source\PSoC5/SPIM_Funk.c **** * Function Name: SPIM_Funk_EnableTxInt
 212:.\Generated_Source\PSoC5/SPIM_Funk.c **** ********************************************************************************
 213:.\Generated_Source\PSoC5/SPIM_Funk.c **** *
 214:.\Generated_Source\PSoC5/SPIM_Funk.c **** * Summary:
 215:.\Generated_Source\PSoC5/SPIM_Funk.c **** *  Enable internal Tx interrupt generation.
 216:.\Generated_Source\PSoC5/SPIM_Funk.c **** *
 217:.\Generated_Source\PSoC5/SPIM_Funk.c **** * Parameters:
 218:.\Generated_Source\PSoC5/SPIM_Funk.c **** *  None.
 219:.\Generated_Source\PSoC5/SPIM_Funk.c **** *
 220:.\Generated_Source\PSoC5/SPIM_Funk.c **** * Return:
 221:.\Generated_Source\PSoC5/SPIM_Funk.c **** *  None.
 222:.\Generated_Source\PSoC5/SPIM_Funk.c **** *
 223:.\Generated_Source\PSoC5/SPIM_Funk.c **** * Theory:
 224:.\Generated_Source\PSoC5/SPIM_Funk.c **** *  Enable the internal Tx interrupt output -or- the interrupt component itself.
 225:.\Generated_Source\PSoC5/SPIM_Funk.c **** *
 226:.\Generated_Source\PSoC5/SPIM_Funk.c **** *******************************************************************************/
 227:.\Generated_Source\PSoC5/SPIM_Funk.c **** void SPIM_Funk_EnableTxInt(void) 
 228:.\Generated_Source\PSoC5/SPIM_Funk.c **** {
 323              		.loc 1 228 0
 324              		.cfi_startproc
 325              		@ args = 0, pretend = 0, frame = 0
 326              		@ frame_needed = 1, uses_anonymous_args = 0
 327              		@ link register save eliminated.
 328 0000 80B4     		push	{r7}
 329              		.cfi_def_cfa_offset 4
 330              		.cfi_offset 7, -4
 331 0002 00AF     		add	r7, sp, #0
 332              		.cfi_def_cfa_register 7
 229:.\Generated_Source\PSoC5/SPIM_Funk.c ****     #if(0u != SPIM_Funk_INTERNAL_TX_INT_ENABLED)
 230:.\Generated_Source\PSoC5/SPIM_Funk.c ****         CyIntEnable(SPIM_Funk_TX_ISR_NUMBER);
 333              		.loc 1 230 0
 334 0004 034B     		ldr	r3, .L15
 335 0006 0822     		movs	r2, #8
 336 0008 1A60     		str	r2, [r3]
 231:.\Generated_Source\PSoC5/SPIM_Funk.c ****     #endif /* (0u != SPIM_Funk_INTERNAL_TX_INT_ENABLED) */
 232:.\Generated_Source\PSoC5/SPIM_Funk.c **** }
 337              		.loc 1 232 0
 338 000a BD46     		mov	sp, r7
ARM GAS  C:\Users\LUKASC~1\AppData\Local\Temp\ccFLeR0b.s 			page 11


 339              		.cfi_def_cfa_register 13
 340              		@ sp needed
 341 000c 5DF8047B 		ldr	r7, [sp], #4
 342              		.cfi_restore 7
 343              		.cfi_def_cfa_offset 0
 344 0010 7047     		bx	lr
 345              	.L16:
 346 0012 00BF     		.align	2
 347              	.L15:
 348 0014 00E100E0 		.word	-536813312
 349              		.cfi_endproc
 350              	.LFE4:
 351              		.size	SPIM_Funk_EnableTxInt, .-SPIM_Funk_EnableTxInt
 352              		.section	.text.SPIM_Funk_EnableRxInt,"ax",%progbits
 353              		.align	2
 354              		.global	SPIM_Funk_EnableRxInt
 355              		.thumb
 356              		.thumb_func
 357              		.type	SPIM_Funk_EnableRxInt, %function
 358              	SPIM_Funk_EnableRxInt:
 359              	.LFB5:
 233:.\Generated_Source\PSoC5/SPIM_Funk.c **** 
 234:.\Generated_Source\PSoC5/SPIM_Funk.c **** 
 235:.\Generated_Source\PSoC5/SPIM_Funk.c **** /*******************************************************************************
 236:.\Generated_Source\PSoC5/SPIM_Funk.c **** * Function Name: SPIM_Funk_EnableRxInt
 237:.\Generated_Source\PSoC5/SPIM_Funk.c **** ********************************************************************************
 238:.\Generated_Source\PSoC5/SPIM_Funk.c **** *
 239:.\Generated_Source\PSoC5/SPIM_Funk.c **** * Summary:
 240:.\Generated_Source\PSoC5/SPIM_Funk.c **** *  Enable internal Rx interrupt generation.
 241:.\Generated_Source\PSoC5/SPIM_Funk.c **** *
 242:.\Generated_Source\PSoC5/SPIM_Funk.c **** * Parameters:
 243:.\Generated_Source\PSoC5/SPIM_Funk.c **** *  None.
 244:.\Generated_Source\PSoC5/SPIM_Funk.c **** *
 245:.\Generated_Source\PSoC5/SPIM_Funk.c **** * Return:
 246:.\Generated_Source\PSoC5/SPIM_Funk.c **** *  None.
 247:.\Generated_Source\PSoC5/SPIM_Funk.c **** *
 248:.\Generated_Source\PSoC5/SPIM_Funk.c **** * Theory:
 249:.\Generated_Source\PSoC5/SPIM_Funk.c **** *  Enable the internal Rx interrupt output -or- the interrupt component itself.
 250:.\Generated_Source\PSoC5/SPIM_Funk.c **** *
 251:.\Generated_Source\PSoC5/SPIM_Funk.c **** *******************************************************************************/
 252:.\Generated_Source\PSoC5/SPIM_Funk.c **** void SPIM_Funk_EnableRxInt(void) 
 253:.\Generated_Source\PSoC5/SPIM_Funk.c **** {
 360              		.loc 1 253 0
 361              		.cfi_startproc
 362              		@ args = 0, pretend = 0, frame = 0
 363              		@ frame_needed = 1, uses_anonymous_args = 0
 364              		@ link register save eliminated.
 365 0000 80B4     		push	{r7}
 366              		.cfi_def_cfa_offset 4
 367              		.cfi_offset 7, -4
 368 0002 00AF     		add	r7, sp, #0
 369              		.cfi_def_cfa_register 7
 254:.\Generated_Source\PSoC5/SPIM_Funk.c ****     #if(0u != SPIM_Funk_INTERNAL_RX_INT_ENABLED)
 255:.\Generated_Source\PSoC5/SPIM_Funk.c ****         CyIntEnable(SPIM_Funk_RX_ISR_NUMBER);
 370              		.loc 1 255 0
 371 0004 034B     		ldr	r3, .L18
 372 0006 0422     		movs	r2, #4
ARM GAS  C:\Users\LUKASC~1\AppData\Local\Temp\ccFLeR0b.s 			page 12


 373 0008 1A60     		str	r2, [r3]
 256:.\Generated_Source\PSoC5/SPIM_Funk.c ****     #endif /* (0u != SPIM_Funk_INTERNAL_RX_INT_ENABLED) */
 257:.\Generated_Source\PSoC5/SPIM_Funk.c **** }
 374              		.loc 1 257 0
 375 000a BD46     		mov	sp, r7
 376              		.cfi_def_cfa_register 13
 377              		@ sp needed
 378 000c 5DF8047B 		ldr	r7, [sp], #4
 379              		.cfi_restore 7
 380              		.cfi_def_cfa_offset 0
 381 0010 7047     		bx	lr
 382              	.L19:
 383 0012 00BF     		.align	2
 384              	.L18:
 385 0014 00E100E0 		.word	-536813312
 386              		.cfi_endproc
 387              	.LFE5:
 388              		.size	SPIM_Funk_EnableRxInt, .-SPIM_Funk_EnableRxInt
 389              		.section	.text.SPIM_Funk_DisableTxInt,"ax",%progbits
 390              		.align	2
 391              		.global	SPIM_Funk_DisableTxInt
 392              		.thumb
 393              		.thumb_func
 394              		.type	SPIM_Funk_DisableTxInt, %function
 395              	SPIM_Funk_DisableTxInt:
 396              	.LFB6:
 258:.\Generated_Source\PSoC5/SPIM_Funk.c **** 
 259:.\Generated_Source\PSoC5/SPIM_Funk.c **** 
 260:.\Generated_Source\PSoC5/SPIM_Funk.c **** /*******************************************************************************
 261:.\Generated_Source\PSoC5/SPIM_Funk.c **** * Function Name: SPIM_Funk_DisableTxInt
 262:.\Generated_Source\PSoC5/SPIM_Funk.c **** ********************************************************************************
 263:.\Generated_Source\PSoC5/SPIM_Funk.c **** *
 264:.\Generated_Source\PSoC5/SPIM_Funk.c **** * Summary:
 265:.\Generated_Source\PSoC5/SPIM_Funk.c **** *  Disable internal Tx interrupt generation.
 266:.\Generated_Source\PSoC5/SPIM_Funk.c **** *
 267:.\Generated_Source\PSoC5/SPIM_Funk.c **** * Parameters:
 268:.\Generated_Source\PSoC5/SPIM_Funk.c **** *  None.
 269:.\Generated_Source\PSoC5/SPIM_Funk.c **** *
 270:.\Generated_Source\PSoC5/SPIM_Funk.c **** * Return:
 271:.\Generated_Source\PSoC5/SPIM_Funk.c **** *  None.
 272:.\Generated_Source\PSoC5/SPIM_Funk.c **** *
 273:.\Generated_Source\PSoC5/SPIM_Funk.c **** * Theory:
 274:.\Generated_Source\PSoC5/SPIM_Funk.c **** *  Disable the internal Tx interrupt output -or- the interrupt component itself.
 275:.\Generated_Source\PSoC5/SPIM_Funk.c **** *
 276:.\Generated_Source\PSoC5/SPIM_Funk.c **** *******************************************************************************/
 277:.\Generated_Source\PSoC5/SPIM_Funk.c **** void SPIM_Funk_DisableTxInt(void) 
 278:.\Generated_Source\PSoC5/SPIM_Funk.c **** {
 397              		.loc 1 278 0
 398              		.cfi_startproc
 399              		@ args = 0, pretend = 0, frame = 0
 400              		@ frame_needed = 1, uses_anonymous_args = 0
 401              		@ link register save eliminated.
 402 0000 80B4     		push	{r7}
 403              		.cfi_def_cfa_offset 4
 404              		.cfi_offset 7, -4
 405 0002 00AF     		add	r7, sp, #0
 406              		.cfi_def_cfa_register 7
ARM GAS  C:\Users\LUKASC~1\AppData\Local\Temp\ccFLeR0b.s 			page 13


 279:.\Generated_Source\PSoC5/SPIM_Funk.c ****     #if(0u != SPIM_Funk_INTERNAL_TX_INT_ENABLED)
 280:.\Generated_Source\PSoC5/SPIM_Funk.c ****         CyIntDisable(SPIM_Funk_TX_ISR_NUMBER);
 407              		.loc 1 280 0
 408 0004 034B     		ldr	r3, .L21
 409 0006 0822     		movs	r2, #8
 410 0008 1A60     		str	r2, [r3]
 281:.\Generated_Source\PSoC5/SPIM_Funk.c ****     #endif /* (0u != SPIM_Funk_INTERNAL_TX_INT_ENABLED) */
 282:.\Generated_Source\PSoC5/SPIM_Funk.c **** }
 411              		.loc 1 282 0
 412 000a BD46     		mov	sp, r7
 413              		.cfi_def_cfa_register 13
 414              		@ sp needed
 415 000c 5DF8047B 		ldr	r7, [sp], #4
 416              		.cfi_restore 7
 417              		.cfi_def_cfa_offset 0
 418 0010 7047     		bx	lr
 419              	.L22:
 420 0012 00BF     		.align	2
 421              	.L21:
 422 0014 80E100E0 		.word	-536813184
 423              		.cfi_endproc
 424              	.LFE6:
 425              		.size	SPIM_Funk_DisableTxInt, .-SPIM_Funk_DisableTxInt
 426              		.section	.text.SPIM_Funk_DisableRxInt,"ax",%progbits
 427              		.align	2
 428              		.global	SPIM_Funk_DisableRxInt
 429              		.thumb
 430              		.thumb_func
 431              		.type	SPIM_Funk_DisableRxInt, %function
 432              	SPIM_Funk_DisableRxInt:
 433              	.LFB7:
 283:.\Generated_Source\PSoC5/SPIM_Funk.c **** 
 284:.\Generated_Source\PSoC5/SPIM_Funk.c **** 
 285:.\Generated_Source\PSoC5/SPIM_Funk.c **** /*******************************************************************************
 286:.\Generated_Source\PSoC5/SPIM_Funk.c **** * Function Name: SPIM_Funk_DisableRxInt
 287:.\Generated_Source\PSoC5/SPIM_Funk.c **** ********************************************************************************
 288:.\Generated_Source\PSoC5/SPIM_Funk.c **** *
 289:.\Generated_Source\PSoC5/SPIM_Funk.c **** * Summary:
 290:.\Generated_Source\PSoC5/SPIM_Funk.c **** *  Disable internal Rx interrupt generation.
 291:.\Generated_Source\PSoC5/SPIM_Funk.c **** *
 292:.\Generated_Source\PSoC5/SPIM_Funk.c **** * Parameters:
 293:.\Generated_Source\PSoC5/SPIM_Funk.c **** *  None.
 294:.\Generated_Source\PSoC5/SPIM_Funk.c **** *
 295:.\Generated_Source\PSoC5/SPIM_Funk.c **** * Return:
 296:.\Generated_Source\PSoC5/SPIM_Funk.c **** *  None.
 297:.\Generated_Source\PSoC5/SPIM_Funk.c **** *
 298:.\Generated_Source\PSoC5/SPIM_Funk.c **** * Theory:
 299:.\Generated_Source\PSoC5/SPIM_Funk.c **** *  Disable the internal Rx interrupt output -or- the interrupt component itself.
 300:.\Generated_Source\PSoC5/SPIM_Funk.c **** *
 301:.\Generated_Source\PSoC5/SPIM_Funk.c **** *******************************************************************************/
 302:.\Generated_Source\PSoC5/SPIM_Funk.c **** void SPIM_Funk_DisableRxInt(void) 
 303:.\Generated_Source\PSoC5/SPIM_Funk.c **** {
 434              		.loc 1 303 0
 435              		.cfi_startproc
 436              		@ args = 0, pretend = 0, frame = 0
 437              		@ frame_needed = 1, uses_anonymous_args = 0
 438              		@ link register save eliminated.
ARM GAS  C:\Users\LUKASC~1\AppData\Local\Temp\ccFLeR0b.s 			page 14


 439 0000 80B4     		push	{r7}
 440              		.cfi_def_cfa_offset 4
 441              		.cfi_offset 7, -4
 442 0002 00AF     		add	r7, sp, #0
 443              		.cfi_def_cfa_register 7
 304:.\Generated_Source\PSoC5/SPIM_Funk.c ****     #if(0u != SPIM_Funk_INTERNAL_RX_INT_ENABLED)
 305:.\Generated_Source\PSoC5/SPIM_Funk.c ****         CyIntDisable(SPIM_Funk_RX_ISR_NUMBER);
 444              		.loc 1 305 0
 445 0004 034B     		ldr	r3, .L24
 446 0006 0422     		movs	r2, #4
 447 0008 1A60     		str	r2, [r3]
 306:.\Generated_Source\PSoC5/SPIM_Funk.c ****     #endif /* (0u != SPIM_Funk_INTERNAL_RX_INT_ENABLED) */
 307:.\Generated_Source\PSoC5/SPIM_Funk.c **** }
 448              		.loc 1 307 0
 449 000a BD46     		mov	sp, r7
 450              		.cfi_def_cfa_register 13
 451              		@ sp needed
 452 000c 5DF8047B 		ldr	r7, [sp], #4
 453              		.cfi_restore 7
 454              		.cfi_def_cfa_offset 0
 455 0010 7047     		bx	lr
 456              	.L25:
 457 0012 00BF     		.align	2
 458              	.L24:
 459 0014 80E100E0 		.word	-536813184
 460              		.cfi_endproc
 461              	.LFE7:
 462              		.size	SPIM_Funk_DisableRxInt, .-SPIM_Funk_DisableRxInt
 463              		.section	.text.SPIM_Funk_SetTxInterruptMode,"ax",%progbits
 464              		.align	2
 465              		.global	SPIM_Funk_SetTxInterruptMode
 466              		.thumb
 467              		.thumb_func
 468              		.type	SPIM_Funk_SetTxInterruptMode, %function
 469              	SPIM_Funk_SetTxInterruptMode:
 470              	.LFB8:
 308:.\Generated_Source\PSoC5/SPIM_Funk.c **** 
 309:.\Generated_Source\PSoC5/SPIM_Funk.c **** 
 310:.\Generated_Source\PSoC5/SPIM_Funk.c **** /*******************************************************************************
 311:.\Generated_Source\PSoC5/SPIM_Funk.c **** * Function Name: SPIM_Funk_SetTxInterruptMode
 312:.\Generated_Source\PSoC5/SPIM_Funk.c **** ********************************************************************************
 313:.\Generated_Source\PSoC5/SPIM_Funk.c **** *
 314:.\Generated_Source\PSoC5/SPIM_Funk.c **** * Summary:
 315:.\Generated_Source\PSoC5/SPIM_Funk.c **** *  Configure which status bits trigger an interrupt event.
 316:.\Generated_Source\PSoC5/SPIM_Funk.c **** *
 317:.\Generated_Source\PSoC5/SPIM_Funk.c **** * Parameters:
 318:.\Generated_Source\PSoC5/SPIM_Funk.c **** *  intSrc: An or'd combination of the desired status bit masks (defined in the
 319:.\Generated_Source\PSoC5/SPIM_Funk.c **** *  header file).
 320:.\Generated_Source\PSoC5/SPIM_Funk.c **** *
 321:.\Generated_Source\PSoC5/SPIM_Funk.c **** * Return:
 322:.\Generated_Source\PSoC5/SPIM_Funk.c **** *  None.
 323:.\Generated_Source\PSoC5/SPIM_Funk.c **** *
 324:.\Generated_Source\PSoC5/SPIM_Funk.c **** * Theory:
 325:.\Generated_Source\PSoC5/SPIM_Funk.c **** *  Enables the output of specific status bits to the interrupt controller.
 326:.\Generated_Source\PSoC5/SPIM_Funk.c **** *
 327:.\Generated_Source\PSoC5/SPIM_Funk.c **** *******************************************************************************/
 328:.\Generated_Source\PSoC5/SPIM_Funk.c **** void SPIM_Funk_SetTxInterruptMode(uint8 intSrc) 
ARM GAS  C:\Users\LUKASC~1\AppData\Local\Temp\ccFLeR0b.s 			page 15


 329:.\Generated_Source\PSoC5/SPIM_Funk.c **** {
 471              		.loc 1 329 0
 472              		.cfi_startproc
 473              		@ args = 0, pretend = 0, frame = 8
 474              		@ frame_needed = 1, uses_anonymous_args = 0
 475              		@ link register save eliminated.
 476 0000 80B4     		push	{r7}
 477              		.cfi_def_cfa_offset 4
 478              		.cfi_offset 7, -4
 479 0002 83B0     		sub	sp, sp, #12
 480              		.cfi_def_cfa_offset 16
 481 0004 00AF     		add	r7, sp, #0
 482              		.cfi_def_cfa_register 7
 483 0006 0346     		mov	r3, r0
 484 0008 FB71     		strb	r3, [r7, #7]
 330:.\Generated_Source\PSoC5/SPIM_Funk.c ****     SPIM_Funk_TX_STATUS_MASK_REG = intSrc;
 485              		.loc 1 330 0
 486 000a 044A     		ldr	r2, .L27
 487 000c FB79     		ldrb	r3, [r7, #7]
 488 000e 1370     		strb	r3, [r2]
 331:.\Generated_Source\PSoC5/SPIM_Funk.c **** }
 489              		.loc 1 331 0
 490 0010 0C37     		adds	r7, r7, #12
 491              		.cfi_def_cfa_offset 4
 492 0012 BD46     		mov	sp, r7
 493              		.cfi_def_cfa_register 13
 494              		@ sp needed
 495 0014 5DF8047B 		ldr	r7, [sp], #4
 496              		.cfi_restore 7
 497              		.cfi_def_cfa_offset 0
 498 0018 7047     		bx	lr
 499              	.L28:
 500 001a 00BF     		.align	2
 501              	.L27:
 502 001c 87640040 		.word	1073767559
 503              		.cfi_endproc
 504              	.LFE8:
 505              		.size	SPIM_Funk_SetTxInterruptMode, .-SPIM_Funk_SetTxInterruptMode
 506              		.section	.text.SPIM_Funk_SetRxInterruptMode,"ax",%progbits
 507              		.align	2
 508              		.global	SPIM_Funk_SetRxInterruptMode
 509              		.thumb
 510              		.thumb_func
 511              		.type	SPIM_Funk_SetRxInterruptMode, %function
 512              	SPIM_Funk_SetRxInterruptMode:
 513              	.LFB9:
 332:.\Generated_Source\PSoC5/SPIM_Funk.c **** 
 333:.\Generated_Source\PSoC5/SPIM_Funk.c **** 
 334:.\Generated_Source\PSoC5/SPIM_Funk.c **** /*******************************************************************************
 335:.\Generated_Source\PSoC5/SPIM_Funk.c **** * Function Name: SPIM_Funk_SetRxInterruptMode
 336:.\Generated_Source\PSoC5/SPIM_Funk.c **** ********************************************************************************
 337:.\Generated_Source\PSoC5/SPIM_Funk.c **** *
 338:.\Generated_Source\PSoC5/SPIM_Funk.c **** * Summary:
 339:.\Generated_Source\PSoC5/SPIM_Funk.c **** *  Configure which status bits trigger an interrupt event.
 340:.\Generated_Source\PSoC5/SPIM_Funk.c **** *
 341:.\Generated_Source\PSoC5/SPIM_Funk.c **** * Parameters:
 342:.\Generated_Source\PSoC5/SPIM_Funk.c **** *  intSrc: An or'd combination of the desired status bit masks (defined in the
ARM GAS  C:\Users\LUKASC~1\AppData\Local\Temp\ccFLeR0b.s 			page 16


 343:.\Generated_Source\PSoC5/SPIM_Funk.c **** *  header file).
 344:.\Generated_Source\PSoC5/SPIM_Funk.c **** *
 345:.\Generated_Source\PSoC5/SPIM_Funk.c **** * Return:
 346:.\Generated_Source\PSoC5/SPIM_Funk.c **** *  None.
 347:.\Generated_Source\PSoC5/SPIM_Funk.c **** *
 348:.\Generated_Source\PSoC5/SPIM_Funk.c **** * Theory:
 349:.\Generated_Source\PSoC5/SPIM_Funk.c **** *  Enables the output of specific status bits to the interrupt controller.
 350:.\Generated_Source\PSoC5/SPIM_Funk.c **** *
 351:.\Generated_Source\PSoC5/SPIM_Funk.c **** *******************************************************************************/
 352:.\Generated_Source\PSoC5/SPIM_Funk.c **** void SPIM_Funk_SetRxInterruptMode(uint8 intSrc) 
 353:.\Generated_Source\PSoC5/SPIM_Funk.c **** {
 514              		.loc 1 353 0
 515              		.cfi_startproc
 516              		@ args = 0, pretend = 0, frame = 8
 517              		@ frame_needed = 1, uses_anonymous_args = 0
 518              		@ link register save eliminated.
 519 0000 80B4     		push	{r7}
 520              		.cfi_def_cfa_offset 4
 521              		.cfi_offset 7, -4
 522 0002 83B0     		sub	sp, sp, #12
 523              		.cfi_def_cfa_offset 16
 524 0004 00AF     		add	r7, sp, #0
 525              		.cfi_def_cfa_register 7
 526 0006 0346     		mov	r3, r0
 527 0008 FB71     		strb	r3, [r7, #7]
 354:.\Generated_Source\PSoC5/SPIM_Funk.c ****     SPIM_Funk_RX_STATUS_MASK_REG  = intSrc;
 528              		.loc 1 354 0
 529 000a 044A     		ldr	r2, .L30
 530 000c FB79     		ldrb	r3, [r7, #7]
 531 000e 1370     		strb	r3, [r2]
 355:.\Generated_Source\PSoC5/SPIM_Funk.c **** }
 532              		.loc 1 355 0
 533 0010 0C37     		adds	r7, r7, #12
 534              		.cfi_def_cfa_offset 4
 535 0012 BD46     		mov	sp, r7
 536              		.cfi_def_cfa_register 13
 537              		@ sp needed
 538 0014 5DF8047B 		ldr	r7, [sp], #4
 539              		.cfi_restore 7
 540              		.cfi_def_cfa_offset 0
 541 0018 7047     		bx	lr
 542              	.L31:
 543 001a 00BF     		.align	2
 544              	.L30:
 545 001c 87650040 		.word	1073767815
 546              		.cfi_endproc
 547              	.LFE9:
 548              		.size	SPIM_Funk_SetRxInterruptMode, .-SPIM_Funk_SetRxInterruptMode
 549              		.section	.text.SPIM_Funk_ReadTxStatus,"ax",%progbits
 550              		.align	2
 551              		.global	SPIM_Funk_ReadTxStatus
 552              		.thumb
 553              		.thumb_func
 554              		.type	SPIM_Funk_ReadTxStatus, %function
 555              	SPIM_Funk_ReadTxStatus:
 556              	.LFB10:
 356:.\Generated_Source\PSoC5/SPIM_Funk.c **** 
ARM GAS  C:\Users\LUKASC~1\AppData\Local\Temp\ccFLeR0b.s 			page 17


 357:.\Generated_Source\PSoC5/SPIM_Funk.c **** 
 358:.\Generated_Source\PSoC5/SPIM_Funk.c **** /*******************************************************************************
 359:.\Generated_Source\PSoC5/SPIM_Funk.c **** * Function Name: SPIM_Funk_ReadTxStatus
 360:.\Generated_Source\PSoC5/SPIM_Funk.c **** ********************************************************************************
 361:.\Generated_Source\PSoC5/SPIM_Funk.c **** *
 362:.\Generated_Source\PSoC5/SPIM_Funk.c **** * Summary:
 363:.\Generated_Source\PSoC5/SPIM_Funk.c **** *  Read the Tx status register for the component.
 364:.\Generated_Source\PSoC5/SPIM_Funk.c **** *
 365:.\Generated_Source\PSoC5/SPIM_Funk.c **** * Parameters:
 366:.\Generated_Source\PSoC5/SPIM_Funk.c **** *  None.
 367:.\Generated_Source\PSoC5/SPIM_Funk.c **** *
 368:.\Generated_Source\PSoC5/SPIM_Funk.c **** * Return:
 369:.\Generated_Source\PSoC5/SPIM_Funk.c **** *  Contents of the Tx status register.
 370:.\Generated_Source\PSoC5/SPIM_Funk.c **** *
 371:.\Generated_Source\PSoC5/SPIM_Funk.c **** * Global variables:
 372:.\Generated_Source\PSoC5/SPIM_Funk.c **** *  SPIM_Funk_swStatusTx - used to store in software status register,
 373:.\Generated_Source\PSoC5/SPIM_Funk.c **** *  modified every function call - resets to zero.
 374:.\Generated_Source\PSoC5/SPIM_Funk.c **** *
 375:.\Generated_Source\PSoC5/SPIM_Funk.c **** * Theory:
 376:.\Generated_Source\PSoC5/SPIM_Funk.c **** *  Allows the user and the API to read the Tx status register for error
 377:.\Generated_Source\PSoC5/SPIM_Funk.c **** *  detection and flow control.
 378:.\Generated_Source\PSoC5/SPIM_Funk.c **** *
 379:.\Generated_Source\PSoC5/SPIM_Funk.c **** * Side Effects:
 380:.\Generated_Source\PSoC5/SPIM_Funk.c **** *  Clear Tx status register of the component.
 381:.\Generated_Source\PSoC5/SPIM_Funk.c **** *
 382:.\Generated_Source\PSoC5/SPIM_Funk.c **** * Reentrant:
 383:.\Generated_Source\PSoC5/SPIM_Funk.c **** *  No.
 384:.\Generated_Source\PSoC5/SPIM_Funk.c **** *
 385:.\Generated_Source\PSoC5/SPIM_Funk.c **** *******************************************************************************/
 386:.\Generated_Source\PSoC5/SPIM_Funk.c **** uint8 SPIM_Funk_ReadTxStatus(void) 
 387:.\Generated_Source\PSoC5/SPIM_Funk.c **** {
 557              		.loc 1 387 0
 558              		.cfi_startproc
 559              		@ args = 0, pretend = 0, frame = 8
 560              		@ frame_needed = 1, uses_anonymous_args = 0
 561 0000 80B5     		push	{r7, lr}
 562              		.cfi_def_cfa_offset 8
 563              		.cfi_offset 7, -8
 564              		.cfi_offset 14, -4
 565 0002 82B0     		sub	sp, sp, #8
 566              		.cfi_def_cfa_offset 16
 567 0004 00AF     		add	r7, sp, #0
 568              		.cfi_def_cfa_register 7
 388:.\Generated_Source\PSoC5/SPIM_Funk.c ****     uint8 tmpStatus;
 389:.\Generated_Source\PSoC5/SPIM_Funk.c **** 
 390:.\Generated_Source\PSoC5/SPIM_Funk.c ****     #if(SPIM_Funk_TX_SOFTWARE_BUF_ENABLED)
 391:.\Generated_Source\PSoC5/SPIM_Funk.c ****         /* Disable TX interrupt to protect global veriables */
 392:.\Generated_Source\PSoC5/SPIM_Funk.c ****         SPIM_Funk_DisableTxInt();
 569              		.loc 1 392 0
 570 0006 FFF7FEFF 		bl	SPIM_Funk_DisableTxInt
 393:.\Generated_Source\PSoC5/SPIM_Funk.c **** 
 394:.\Generated_Source\PSoC5/SPIM_Funk.c ****         tmpStatus = SPIM_Funk_GET_STATUS_TX(SPIM_Funk_swStatusTx);
 571              		.loc 1 394 0
 572 000a 0A4B     		ldr	r3, .L34
 573 000c 1B78     		ldrb	r3, [r3]
 574 000e DAB2     		uxtb	r2, r3
 575 0010 094B     		ldr	r3, .L34+4
ARM GAS  C:\Users\LUKASC~1\AppData\Local\Temp\ccFLeR0b.s 			page 18


 576 0012 1B78     		ldrb	r3, [r3]
 577 0014 DBB2     		uxtb	r3, r3
 578 0016 03F00903 		and	r3, r3, #9
 579 001a DBB2     		uxtb	r3, r3
 580 001c 1343     		orrs	r3, r3, r2
 581 001e FB71     		strb	r3, [r7, #7]
 395:.\Generated_Source\PSoC5/SPIM_Funk.c ****         SPIM_Funk_swStatusTx = 0u;
 582              		.loc 1 395 0
 583 0020 054B     		ldr	r3, .L34+4
 584 0022 0022     		movs	r2, #0
 585 0024 1A70     		strb	r2, [r3]
 396:.\Generated_Source\PSoC5/SPIM_Funk.c **** 
 397:.\Generated_Source\PSoC5/SPIM_Funk.c ****         SPIM_Funk_EnableTxInt();
 586              		.loc 1 397 0
 587 0026 FFF7FEFF 		bl	SPIM_Funk_EnableTxInt
 398:.\Generated_Source\PSoC5/SPIM_Funk.c **** 
 399:.\Generated_Source\PSoC5/SPIM_Funk.c ****     #else
 400:.\Generated_Source\PSoC5/SPIM_Funk.c **** 
 401:.\Generated_Source\PSoC5/SPIM_Funk.c ****         tmpStatus = SPIM_Funk_TX_STATUS_REG;
 402:.\Generated_Source\PSoC5/SPIM_Funk.c **** 
 403:.\Generated_Source\PSoC5/SPIM_Funk.c ****     #endif /* (SPIM_Funk_TX_SOFTWARE_BUF_ENABLED) */
 404:.\Generated_Source\PSoC5/SPIM_Funk.c **** 
 405:.\Generated_Source\PSoC5/SPIM_Funk.c ****     return(tmpStatus);
 588              		.loc 1 405 0
 589 002a FB79     		ldrb	r3, [r7, #7]	@ zero_extendqisi2
 406:.\Generated_Source\PSoC5/SPIM_Funk.c **** }
 590              		.loc 1 406 0
 591 002c 1846     		mov	r0, r3
 592 002e 0837     		adds	r7, r7, #8
 593              		.cfi_def_cfa_offset 8
 594 0030 BD46     		mov	sp, r7
 595              		.cfi_def_cfa_register 13
 596              		@ sp needed
 597 0032 80BD     		pop	{r7, pc}
 598              	.L35:
 599              		.align	2
 600              	.L34:
 601 0034 67640040 		.word	1073767527
 602 0038 00000000 		.word	SPIM_Funk_swStatusTx
 603              		.cfi_endproc
 604              	.LFE10:
 605              		.size	SPIM_Funk_ReadTxStatus, .-SPIM_Funk_ReadTxStatus
 606              		.section	.text.SPIM_Funk_ReadRxStatus,"ax",%progbits
 607              		.align	2
 608              		.global	SPIM_Funk_ReadRxStatus
 609              		.thumb
 610              		.thumb_func
 611              		.type	SPIM_Funk_ReadRxStatus, %function
 612              	SPIM_Funk_ReadRxStatus:
 613              	.LFB11:
 407:.\Generated_Source\PSoC5/SPIM_Funk.c **** 
 408:.\Generated_Source\PSoC5/SPIM_Funk.c **** 
 409:.\Generated_Source\PSoC5/SPIM_Funk.c **** /*******************************************************************************
 410:.\Generated_Source\PSoC5/SPIM_Funk.c **** * Function Name: SPIM_Funk_ReadRxStatus
 411:.\Generated_Source\PSoC5/SPIM_Funk.c **** ********************************************************************************
 412:.\Generated_Source\PSoC5/SPIM_Funk.c **** *
 413:.\Generated_Source\PSoC5/SPIM_Funk.c **** * Summary:
ARM GAS  C:\Users\LUKASC~1\AppData\Local\Temp\ccFLeR0b.s 			page 19


 414:.\Generated_Source\PSoC5/SPIM_Funk.c **** *  Read the Rx status register for the component.
 415:.\Generated_Source\PSoC5/SPIM_Funk.c **** *
 416:.\Generated_Source\PSoC5/SPIM_Funk.c **** * Parameters:
 417:.\Generated_Source\PSoC5/SPIM_Funk.c **** *  None.
 418:.\Generated_Source\PSoC5/SPIM_Funk.c **** *
 419:.\Generated_Source\PSoC5/SPIM_Funk.c **** * Return:
 420:.\Generated_Source\PSoC5/SPIM_Funk.c **** *  Contents of the Rx status register.
 421:.\Generated_Source\PSoC5/SPIM_Funk.c **** *
 422:.\Generated_Source\PSoC5/SPIM_Funk.c **** * Global variables:
 423:.\Generated_Source\PSoC5/SPIM_Funk.c **** *  SPIM_Funk_swStatusRx - used to store in software Rx status register,
 424:.\Generated_Source\PSoC5/SPIM_Funk.c **** *  modified every function call - resets to zero.
 425:.\Generated_Source\PSoC5/SPIM_Funk.c **** *
 426:.\Generated_Source\PSoC5/SPIM_Funk.c **** * Theory:
 427:.\Generated_Source\PSoC5/SPIM_Funk.c **** *  Allows the user and the API to read the Rx status register for error
 428:.\Generated_Source\PSoC5/SPIM_Funk.c **** *  detection and flow control.
 429:.\Generated_Source\PSoC5/SPIM_Funk.c **** *
 430:.\Generated_Source\PSoC5/SPIM_Funk.c **** * Side Effects:
 431:.\Generated_Source\PSoC5/SPIM_Funk.c **** *  Clear Rx status register of the component.
 432:.\Generated_Source\PSoC5/SPIM_Funk.c **** *
 433:.\Generated_Source\PSoC5/SPIM_Funk.c **** * Reentrant:
 434:.\Generated_Source\PSoC5/SPIM_Funk.c **** *  No.
 435:.\Generated_Source\PSoC5/SPIM_Funk.c **** *
 436:.\Generated_Source\PSoC5/SPIM_Funk.c **** *******************************************************************************/
 437:.\Generated_Source\PSoC5/SPIM_Funk.c **** uint8 SPIM_Funk_ReadRxStatus(void) 
 438:.\Generated_Source\PSoC5/SPIM_Funk.c **** {
 614              		.loc 1 438 0
 615              		.cfi_startproc
 616              		@ args = 0, pretend = 0, frame = 8
 617              		@ frame_needed = 1, uses_anonymous_args = 0
 618 0000 80B5     		push	{r7, lr}
 619              		.cfi_def_cfa_offset 8
 620              		.cfi_offset 7, -8
 621              		.cfi_offset 14, -4
 622 0002 82B0     		sub	sp, sp, #8
 623              		.cfi_def_cfa_offset 16
 624 0004 00AF     		add	r7, sp, #0
 625              		.cfi_def_cfa_register 7
 439:.\Generated_Source\PSoC5/SPIM_Funk.c ****     uint8 tmpStatus;
 440:.\Generated_Source\PSoC5/SPIM_Funk.c **** 
 441:.\Generated_Source\PSoC5/SPIM_Funk.c ****     #if(SPIM_Funk_RX_SOFTWARE_BUF_ENABLED)
 442:.\Generated_Source\PSoC5/SPIM_Funk.c ****         /* Disable RX interrupt to protect global veriables */
 443:.\Generated_Source\PSoC5/SPIM_Funk.c ****         SPIM_Funk_DisableRxInt();
 626              		.loc 1 443 0
 627 0006 FFF7FEFF 		bl	SPIM_Funk_DisableRxInt
 444:.\Generated_Source\PSoC5/SPIM_Funk.c **** 
 445:.\Generated_Source\PSoC5/SPIM_Funk.c ****         tmpStatus = SPIM_Funk_GET_STATUS_RX(SPIM_Funk_swStatusRx);
 628              		.loc 1 445 0
 629 000a 0A4B     		ldr	r3, .L38
 630 000c 1B78     		ldrb	r3, [r3]
 631 000e DAB2     		uxtb	r2, r3
 632 0010 094B     		ldr	r3, .L38+4
 633 0012 1B78     		ldrb	r3, [r3]
 634 0014 DBB2     		uxtb	r3, r3
 635 0016 03F04003 		and	r3, r3, #64
 636 001a DBB2     		uxtb	r3, r3
 637 001c 1343     		orrs	r3, r3, r2
 638 001e FB71     		strb	r3, [r7, #7]
ARM GAS  C:\Users\LUKASC~1\AppData\Local\Temp\ccFLeR0b.s 			page 20


 446:.\Generated_Source\PSoC5/SPIM_Funk.c ****         SPIM_Funk_swStatusRx = 0u;
 639              		.loc 1 446 0
 640 0020 054B     		ldr	r3, .L38+4
 641 0022 0022     		movs	r2, #0
 642 0024 1A70     		strb	r2, [r3]
 447:.\Generated_Source\PSoC5/SPIM_Funk.c **** 
 448:.\Generated_Source\PSoC5/SPIM_Funk.c ****         SPIM_Funk_EnableRxInt();
 643              		.loc 1 448 0
 644 0026 FFF7FEFF 		bl	SPIM_Funk_EnableRxInt
 449:.\Generated_Source\PSoC5/SPIM_Funk.c **** 
 450:.\Generated_Source\PSoC5/SPIM_Funk.c ****     #else
 451:.\Generated_Source\PSoC5/SPIM_Funk.c **** 
 452:.\Generated_Source\PSoC5/SPIM_Funk.c ****         tmpStatus = SPIM_Funk_RX_STATUS_REG;
 453:.\Generated_Source\PSoC5/SPIM_Funk.c **** 
 454:.\Generated_Source\PSoC5/SPIM_Funk.c ****     #endif /* (SPIM_Funk_RX_SOFTWARE_BUF_ENABLED) */
 455:.\Generated_Source\PSoC5/SPIM_Funk.c **** 
 456:.\Generated_Source\PSoC5/SPIM_Funk.c ****     return(tmpStatus);
 645              		.loc 1 456 0
 646 002a FB79     		ldrb	r3, [r7, #7]	@ zero_extendqisi2
 457:.\Generated_Source\PSoC5/SPIM_Funk.c **** }
 647              		.loc 1 457 0
 648 002c 1846     		mov	r0, r3
 649 002e 0837     		adds	r7, r7, #8
 650              		.cfi_def_cfa_offset 8
 651 0030 BD46     		mov	sp, r7
 652              		.cfi_def_cfa_register 13
 653              		@ sp needed
 654 0032 80BD     		pop	{r7, pc}
 655              	.L39:
 656              		.align	2
 657              	.L38:
 658 0034 67650040 		.word	1073767783
 659 0038 00000000 		.word	SPIM_Funk_swStatusRx
 660              		.cfi_endproc
 661              	.LFE11:
 662              		.size	SPIM_Funk_ReadRxStatus, .-SPIM_Funk_ReadRxStatus
 663              		.section	.text.SPIM_Funk_WriteTxData,"ax",%progbits
 664              		.align	2
 665              		.global	SPIM_Funk_WriteTxData
 666              		.thumb
 667              		.thumb_func
 668              		.type	SPIM_Funk_WriteTxData, %function
 669              	SPIM_Funk_WriteTxData:
 670              	.LFB12:
 458:.\Generated_Source\PSoC5/SPIM_Funk.c **** 
 459:.\Generated_Source\PSoC5/SPIM_Funk.c **** 
 460:.\Generated_Source\PSoC5/SPIM_Funk.c **** /*******************************************************************************
 461:.\Generated_Source\PSoC5/SPIM_Funk.c **** * Function Name: SPIM_Funk_WriteTxData
 462:.\Generated_Source\PSoC5/SPIM_Funk.c **** ********************************************************************************
 463:.\Generated_Source\PSoC5/SPIM_Funk.c **** *
 464:.\Generated_Source\PSoC5/SPIM_Funk.c **** * Summary:
 465:.\Generated_Source\PSoC5/SPIM_Funk.c **** *  Write a byte of data to be sent across the SPI.
 466:.\Generated_Source\PSoC5/SPIM_Funk.c **** *
 467:.\Generated_Source\PSoC5/SPIM_Funk.c **** * Parameters:
 468:.\Generated_Source\PSoC5/SPIM_Funk.c **** *  txDataByte: The data value to send across the SPI.
 469:.\Generated_Source\PSoC5/SPIM_Funk.c **** *
 470:.\Generated_Source\PSoC5/SPIM_Funk.c **** * Return:
ARM GAS  C:\Users\LUKASC~1\AppData\Local\Temp\ccFLeR0b.s 			page 21


 471:.\Generated_Source\PSoC5/SPIM_Funk.c **** *  None.
 472:.\Generated_Source\PSoC5/SPIM_Funk.c **** *
 473:.\Generated_Source\PSoC5/SPIM_Funk.c **** * Global variables:
 474:.\Generated_Source\PSoC5/SPIM_Funk.c **** *  SPIM_Funk_txBufferWrite - used for the account of the bytes which
 475:.\Generated_Source\PSoC5/SPIM_Funk.c **** *  have been written down in the TX software buffer, modified every function
 476:.\Generated_Source\PSoC5/SPIM_Funk.c **** *  call if TX Software Buffer is used.
 477:.\Generated_Source\PSoC5/SPIM_Funk.c **** *  SPIM_Funk_txBufferRead - used for the account of the bytes which
 478:.\Generated_Source\PSoC5/SPIM_Funk.c **** *  have been read from the TX software buffer.
 479:.\Generated_Source\PSoC5/SPIM_Funk.c **** *  SPIM_Funk_txBuffer[SPIM_Funk_TX_BUFFER_SIZE] - used to store
 480:.\Generated_Source\PSoC5/SPIM_Funk.c **** *  data to sending, modified every function call if TX Software Buffer is used.
 481:.\Generated_Source\PSoC5/SPIM_Funk.c **** *
 482:.\Generated_Source\PSoC5/SPIM_Funk.c **** * Theory:
 483:.\Generated_Source\PSoC5/SPIM_Funk.c **** *  Allows the user to transmit any byte of data in a single transfer.
 484:.\Generated_Source\PSoC5/SPIM_Funk.c **** *
 485:.\Generated_Source\PSoC5/SPIM_Funk.c **** * Side Effects:
 486:.\Generated_Source\PSoC5/SPIM_Funk.c **** *  If this function is called again before the previous byte is finished then
 487:.\Generated_Source\PSoC5/SPIM_Funk.c **** *  the next byte will be appended to the transfer with no time between
 488:.\Generated_Source\PSoC5/SPIM_Funk.c **** *  the byte transfers. Clear Tx status register of the component.
 489:.\Generated_Source\PSoC5/SPIM_Funk.c **** *
 490:.\Generated_Source\PSoC5/SPIM_Funk.c **** * Reentrant:
 491:.\Generated_Source\PSoC5/SPIM_Funk.c **** *  No.
 492:.\Generated_Source\PSoC5/SPIM_Funk.c **** *
 493:.\Generated_Source\PSoC5/SPIM_Funk.c **** *******************************************************************************/
 494:.\Generated_Source\PSoC5/SPIM_Funk.c **** void SPIM_Funk_WriteTxData(uint8 txData) 
 495:.\Generated_Source\PSoC5/SPIM_Funk.c **** {
 671              		.loc 1 495 0
 672              		.cfi_startproc
 673              		@ args = 0, pretend = 0, frame = 16
 674              		@ frame_needed = 1, uses_anonymous_args = 0
 675 0000 80B5     		push	{r7, lr}
 676              		.cfi_def_cfa_offset 8
 677              		.cfi_offset 7, -8
 678              		.cfi_offset 14, -4
 679 0002 84B0     		sub	sp, sp, #16
 680              		.cfi_def_cfa_offset 24
 681 0004 00AF     		add	r7, sp, #0
 682              		.cfi_def_cfa_register 7
 683 0006 0346     		mov	r3, r0
 684 0008 FB71     		strb	r3, [r7, #7]
 685              	.L43:
 496:.\Generated_Source\PSoC5/SPIM_Funk.c ****     #if(SPIM_Funk_TX_SOFTWARE_BUF_ENABLED)
 497:.\Generated_Source\PSoC5/SPIM_Funk.c **** 
 498:.\Generated_Source\PSoC5/SPIM_Funk.c ****         uint8 tempStatus;
 499:.\Generated_Source\PSoC5/SPIM_Funk.c ****         uint8 tmpTxBufferRead;
 500:.\Generated_Source\PSoC5/SPIM_Funk.c **** 
 501:.\Generated_Source\PSoC5/SPIM_Funk.c ****         /* Block if TX buffer is FULL: don't overwrite */
 502:.\Generated_Source\PSoC5/SPIM_Funk.c ****         do
 503:.\Generated_Source\PSoC5/SPIM_Funk.c ****         {
 504:.\Generated_Source\PSoC5/SPIM_Funk.c ****             tmpTxBufferRead = SPIM_Funk_txBufferRead;
 686              		.loc 1 504 0
 687 000a 394B     		ldr	r3, .L49
 688 000c 1B78     		ldrb	r3, [r3]
 689 000e FB73     		strb	r3, [r7, #15]
 505:.\Generated_Source\PSoC5/SPIM_Funk.c ****             if(0u == tmpTxBufferRead)
 690              		.loc 1 505 0
 691 0010 FB7B     		ldrb	r3, [r7, #15]	@ zero_extendqisi2
 692 0012 002B     		cmp	r3, #0
ARM GAS  C:\Users\LUKASC~1\AppData\Local\Temp\ccFLeR0b.s 			page 22


 693 0014 02D1     		bne	.L41
 506:.\Generated_Source\PSoC5/SPIM_Funk.c ****             {
 507:.\Generated_Source\PSoC5/SPIM_Funk.c ****                 tmpTxBufferRead = (SPIM_Funk_TX_BUFFER_SIZE - 1u);
 694              		.loc 1 507 0
 695 0016 2F23     		movs	r3, #47
 696 0018 FB73     		strb	r3, [r7, #15]
 697 001a 02E0     		b	.L42
 698              	.L41:
 508:.\Generated_Source\PSoC5/SPIM_Funk.c ****             }
 509:.\Generated_Source\PSoC5/SPIM_Funk.c ****             else
 510:.\Generated_Source\PSoC5/SPIM_Funk.c ****             {
 511:.\Generated_Source\PSoC5/SPIM_Funk.c ****                 tmpTxBufferRead--;
 699              		.loc 1 511 0
 700 001c FB7B     		ldrb	r3, [r7, #15]	@ zero_extendqisi2
 701 001e 013B     		subs	r3, r3, #1
 702 0020 FB73     		strb	r3, [r7, #15]
 703              	.L42:
 512:.\Generated_Source\PSoC5/SPIM_Funk.c ****             }
 513:.\Generated_Source\PSoC5/SPIM_Funk.c **** 
 514:.\Generated_Source\PSoC5/SPIM_Funk.c ****         }while(tmpTxBufferRead == SPIM_Funk_txBufferWrite);
 704              		.loc 1 514 0
 705 0022 344B     		ldr	r3, .L49+4
 706 0024 1B78     		ldrb	r3, [r3]
 707 0026 DBB2     		uxtb	r3, r3
 708 0028 FA7B     		ldrb	r2, [r7, #15]	@ zero_extendqisi2
 709 002a 9A42     		cmp	r2, r3
 710 002c EDD0     		beq	.L43
 515:.\Generated_Source\PSoC5/SPIM_Funk.c **** 
 516:.\Generated_Source\PSoC5/SPIM_Funk.c ****         /* Disable TX interrupt to protect global veriables */
 517:.\Generated_Source\PSoC5/SPIM_Funk.c ****         SPIM_Funk_DisableTxInt();
 711              		.loc 1 517 0
 712 002e FFF7FEFF 		bl	SPIM_Funk_DisableTxInt
 518:.\Generated_Source\PSoC5/SPIM_Funk.c **** 
 519:.\Generated_Source\PSoC5/SPIM_Funk.c ****         tempStatus = SPIM_Funk_GET_STATUS_TX(SPIM_Funk_swStatusTx);
 713              		.loc 1 519 0
 714 0032 314B     		ldr	r3, .L49+8
 715 0034 1B78     		ldrb	r3, [r3]
 716 0036 DAB2     		uxtb	r2, r3
 717 0038 304B     		ldr	r3, .L49+12
 718 003a 1B78     		ldrb	r3, [r3]
 719 003c DBB2     		uxtb	r3, r3
 720 003e 03F00903 		and	r3, r3, #9
 721 0042 DBB2     		uxtb	r3, r3
 722 0044 1343     		orrs	r3, r3, r2
 723 0046 BB73     		strb	r3, [r7, #14]
 520:.\Generated_Source\PSoC5/SPIM_Funk.c ****         SPIM_Funk_swStatusTx = tempStatus;
 724              		.loc 1 520 0
 725 0048 2C4A     		ldr	r2, .L49+12
 726 004a BB7B     		ldrb	r3, [r7, #14]
 727 004c 1370     		strb	r3, [r2]
 521:.\Generated_Source\PSoC5/SPIM_Funk.c **** 
 522:.\Generated_Source\PSoC5/SPIM_Funk.c **** 
 523:.\Generated_Source\PSoC5/SPIM_Funk.c ****         if((SPIM_Funk_txBufferRead == SPIM_Funk_txBufferWrite) &&
 728              		.loc 1 523 0
 729 004e 284B     		ldr	r3, .L49
 730 0050 1B78     		ldrb	r3, [r3]
 731 0052 DAB2     		uxtb	r2, r3
ARM GAS  C:\Users\LUKASC~1\AppData\Local\Temp\ccFLeR0b.s 			page 23


 732 0054 274B     		ldr	r3, .L49+4
 733 0056 1B78     		ldrb	r3, [r3]
 734 0058 DBB2     		uxtb	r3, r3
 735 005a 9A42     		cmp	r2, r3
 736 005c 0AD1     		bne	.L44
 524:.\Generated_Source\PSoC5/SPIM_Funk.c ****            (0u != (SPIM_Funk_swStatusTx & SPIM_Funk_STS_TX_FIFO_NOT_FULL)))
 737              		.loc 1 524 0 discriminator 1
 738 005e 274B     		ldr	r3, .L49+12
 739 0060 1B78     		ldrb	r3, [r3]
 740 0062 DBB2     		uxtb	r3, r3
 741 0064 03F00403 		and	r3, r3, #4
 523:.\Generated_Source\PSoC5/SPIM_Funk.c ****            (0u != (SPIM_Funk_swStatusTx & SPIM_Funk_STS_TX_FIFO_NOT_FULL)))
 742              		.loc 1 523 0 discriminator 1
 743 0068 002B     		cmp	r3, #0
 744 006a 03D0     		beq	.L44
 525:.\Generated_Source\PSoC5/SPIM_Funk.c ****         {
 526:.\Generated_Source\PSoC5/SPIM_Funk.c ****             /* Put data element into the TX FIFO */
 527:.\Generated_Source\PSoC5/SPIM_Funk.c ****             CY_SET_REG8(SPIM_Funk_TXDATA_PTR, txData);
 745              		.loc 1 527 0
 746 006c 244A     		ldr	r2, .L49+16
 747 006e FB79     		ldrb	r3, [r7, #7]
 748 0070 1370     		strb	r3, [r2]
 749 0072 37E0     		b	.L45
 750              	.L44:
 528:.\Generated_Source\PSoC5/SPIM_Funk.c ****         }
 529:.\Generated_Source\PSoC5/SPIM_Funk.c ****         else
 530:.\Generated_Source\PSoC5/SPIM_Funk.c ****         {
 531:.\Generated_Source\PSoC5/SPIM_Funk.c ****             /* Add to the TX software buffer */
 532:.\Generated_Source\PSoC5/SPIM_Funk.c ****             SPIM_Funk_txBufferWrite++;
 751              		.loc 1 532 0
 752 0074 1F4B     		ldr	r3, .L49+4
 753 0076 1B78     		ldrb	r3, [r3]
 754 0078 DBB2     		uxtb	r3, r3
 755 007a 0133     		adds	r3, r3, #1
 756 007c DAB2     		uxtb	r2, r3
 757 007e 1D4B     		ldr	r3, .L49+4
 758 0080 1A70     		strb	r2, [r3]
 533:.\Generated_Source\PSoC5/SPIM_Funk.c ****             if(SPIM_Funk_txBufferWrite >= SPIM_Funk_TX_BUFFER_SIZE)
 759              		.loc 1 533 0
 760 0082 1C4B     		ldr	r3, .L49+4
 761 0084 1B78     		ldrb	r3, [r3]
 762 0086 DBB2     		uxtb	r3, r3
 763 0088 2F2B     		cmp	r3, #47
 764 008a 02D9     		bls	.L46
 534:.\Generated_Source\PSoC5/SPIM_Funk.c ****             {
 535:.\Generated_Source\PSoC5/SPIM_Funk.c ****                 SPIM_Funk_txBufferWrite = 0u;
 765              		.loc 1 535 0
 766 008c 194B     		ldr	r3, .L49+4
 767 008e 0022     		movs	r2, #0
 768 0090 1A70     		strb	r2, [r3]
 769              	.L46:
 536:.\Generated_Source\PSoC5/SPIM_Funk.c ****             }
 537:.\Generated_Source\PSoC5/SPIM_Funk.c **** 
 538:.\Generated_Source\PSoC5/SPIM_Funk.c ****             if(SPIM_Funk_txBufferWrite == SPIM_Funk_txBufferRead)
 770              		.loc 1 538 0
 771 0092 184B     		ldr	r3, .L49+4
 772 0094 1B78     		ldrb	r3, [r3]
ARM GAS  C:\Users\LUKASC~1\AppData\Local\Temp\ccFLeR0b.s 			page 24


 773 0096 DAB2     		uxtb	r2, r3
 774 0098 154B     		ldr	r3, .L49
 775 009a 1B78     		ldrb	r3, [r3]
 776 009c DBB2     		uxtb	r3, r3
 777 009e 9A42     		cmp	r2, r3
 778 00a0 11D1     		bne	.L47
 539:.\Generated_Source\PSoC5/SPIM_Funk.c ****             {
 540:.\Generated_Source\PSoC5/SPIM_Funk.c ****                 SPIM_Funk_txBufferRead++;
 779              		.loc 1 540 0
 780 00a2 134B     		ldr	r3, .L49
 781 00a4 1B78     		ldrb	r3, [r3]
 782 00a6 DBB2     		uxtb	r3, r3
 783 00a8 0133     		adds	r3, r3, #1
 784 00aa DAB2     		uxtb	r2, r3
 785 00ac 104B     		ldr	r3, .L49
 786 00ae 1A70     		strb	r2, [r3]
 541:.\Generated_Source\PSoC5/SPIM_Funk.c ****                 if(SPIM_Funk_txBufferRead >= SPIM_Funk_TX_BUFFER_SIZE)
 787              		.loc 1 541 0
 788 00b0 0F4B     		ldr	r3, .L49
 789 00b2 1B78     		ldrb	r3, [r3]
 790 00b4 DBB2     		uxtb	r3, r3
 791 00b6 2F2B     		cmp	r3, #47
 792 00b8 02D9     		bls	.L48
 542:.\Generated_Source\PSoC5/SPIM_Funk.c ****                 {
 543:.\Generated_Source\PSoC5/SPIM_Funk.c ****                     SPIM_Funk_txBufferRead = 0u;
 793              		.loc 1 543 0
 794 00ba 0D4B     		ldr	r3, .L49
 795 00bc 0022     		movs	r2, #0
 796 00be 1A70     		strb	r2, [r3]
 797              	.L48:
 544:.\Generated_Source\PSoC5/SPIM_Funk.c ****                 }
 545:.\Generated_Source\PSoC5/SPIM_Funk.c ****                 SPIM_Funk_txBufferFull = 1u;
 798              		.loc 1 545 0
 799 00c0 104B     		ldr	r3, .L49+20
 800 00c2 0122     		movs	r2, #1
 801 00c4 1A70     		strb	r2, [r3]
 802              	.L47:
 546:.\Generated_Source\PSoC5/SPIM_Funk.c ****             }
 547:.\Generated_Source\PSoC5/SPIM_Funk.c **** 
 548:.\Generated_Source\PSoC5/SPIM_Funk.c ****             SPIM_Funk_txBuffer[SPIM_Funk_txBufferWrite] = txData;
 803              		.loc 1 548 0
 804 00c6 0B4B     		ldr	r3, .L49+4
 805 00c8 1B78     		ldrb	r3, [r3]
 806 00ca DBB2     		uxtb	r3, r3
 807 00cc 1946     		mov	r1, r3
 808 00ce 0E4A     		ldr	r2, .L49+24
 809 00d0 FB79     		ldrb	r3, [r7, #7]
 810 00d2 5354     		strb	r3, [r2, r1]
 549:.\Generated_Source\PSoC5/SPIM_Funk.c **** 
 550:.\Generated_Source\PSoC5/SPIM_Funk.c ****             SPIM_Funk_TX_STATUS_MASK_REG |= SPIM_Funk_STS_TX_FIFO_NOT_FULL;
 811              		.loc 1 550 0
 812 00d4 0D4A     		ldr	r2, .L49+28
 813 00d6 0D4B     		ldr	r3, .L49+28
 814 00d8 1B78     		ldrb	r3, [r3]
 815 00da DBB2     		uxtb	r3, r3
 816 00dc 43F00403 		orr	r3, r3, #4
 817 00e0 DBB2     		uxtb	r3, r3
ARM GAS  C:\Users\LUKASC~1\AppData\Local\Temp\ccFLeR0b.s 			page 25


 818 00e2 1370     		strb	r3, [r2]
 819              	.L45:
 551:.\Generated_Source\PSoC5/SPIM_Funk.c ****         }
 552:.\Generated_Source\PSoC5/SPIM_Funk.c **** 
 553:.\Generated_Source\PSoC5/SPIM_Funk.c ****         SPIM_Funk_EnableTxInt();
 820              		.loc 1 553 0
 821 00e4 FFF7FEFF 		bl	SPIM_Funk_EnableTxInt
 554:.\Generated_Source\PSoC5/SPIM_Funk.c **** 
 555:.\Generated_Source\PSoC5/SPIM_Funk.c ****     #else
 556:.\Generated_Source\PSoC5/SPIM_Funk.c ****         /* Wait until TX FIFO has a place */
 557:.\Generated_Source\PSoC5/SPIM_Funk.c ****         while(0u == (SPIM_Funk_TX_STATUS_REG & SPIM_Funk_STS_TX_FIFO_NOT_FULL))
 558:.\Generated_Source\PSoC5/SPIM_Funk.c ****         {
 559:.\Generated_Source\PSoC5/SPIM_Funk.c ****         }
 560:.\Generated_Source\PSoC5/SPIM_Funk.c **** 
 561:.\Generated_Source\PSoC5/SPIM_Funk.c ****         /* Put data element into the TX FIFO */
 562:.\Generated_Source\PSoC5/SPIM_Funk.c ****         CY_SET_REG8(SPIM_Funk_TXDATA_PTR, txData);
 563:.\Generated_Source\PSoC5/SPIM_Funk.c **** 
 564:.\Generated_Source\PSoC5/SPIM_Funk.c ****     #endif /* (SPIM_Funk_TX_SOFTWARE_BUF_ENABLED) */
 565:.\Generated_Source\PSoC5/SPIM_Funk.c **** }
 822              		.loc 1 565 0
 823 00e8 1037     		adds	r7, r7, #16
 824              		.cfi_def_cfa_offset 8
 825 00ea BD46     		mov	sp, r7
 826              		.cfi_def_cfa_register 13
 827              		@ sp needed
 828 00ec 80BD     		pop	{r7, pc}
 829              	.L50:
 830 00ee 00BF     		.align	2
 831              	.L49:
 832 00f0 00000000 		.word	SPIM_Funk_txBufferRead
 833 00f4 00000000 		.word	SPIM_Funk_txBufferWrite
 834 00f8 67640040 		.word	1073767527
 835 00fc 00000000 		.word	SPIM_Funk_swStatusTx
 836 0100 47640040 		.word	1073767495
 837 0104 00000000 		.word	SPIM_Funk_txBufferFull
 838 0108 00000000 		.word	SPIM_Funk_txBuffer
 839 010c 87640040 		.word	1073767559
 840              		.cfi_endproc
 841              	.LFE12:
 842              		.size	SPIM_Funk_WriteTxData, .-SPIM_Funk_WriteTxData
 843              		.section	.text.SPIM_Funk_ReadRxData,"ax",%progbits
 844              		.align	2
 845              		.global	SPIM_Funk_ReadRxData
 846              		.thumb
 847              		.thumb_func
 848              		.type	SPIM_Funk_ReadRxData, %function
 849              	SPIM_Funk_ReadRxData:
 850              	.LFB13:
 566:.\Generated_Source\PSoC5/SPIM_Funk.c **** 
 567:.\Generated_Source\PSoC5/SPIM_Funk.c **** 
 568:.\Generated_Source\PSoC5/SPIM_Funk.c **** /*******************************************************************************
 569:.\Generated_Source\PSoC5/SPIM_Funk.c **** * Function Name: SPIM_Funk_ReadRxData
 570:.\Generated_Source\PSoC5/SPIM_Funk.c **** ********************************************************************************
 571:.\Generated_Source\PSoC5/SPIM_Funk.c **** *
 572:.\Generated_Source\PSoC5/SPIM_Funk.c **** * Summary:
 573:.\Generated_Source\PSoC5/SPIM_Funk.c **** *  Read the next byte of data received across the SPI.
 574:.\Generated_Source\PSoC5/SPIM_Funk.c **** *
ARM GAS  C:\Users\LUKASC~1\AppData\Local\Temp\ccFLeR0b.s 			page 26


 575:.\Generated_Source\PSoC5/SPIM_Funk.c **** * Parameters:
 576:.\Generated_Source\PSoC5/SPIM_Funk.c **** *  None.
 577:.\Generated_Source\PSoC5/SPIM_Funk.c **** *
 578:.\Generated_Source\PSoC5/SPIM_Funk.c **** * Return:
 579:.\Generated_Source\PSoC5/SPIM_Funk.c **** *  The next byte of data read from the FIFO.
 580:.\Generated_Source\PSoC5/SPIM_Funk.c **** *
 581:.\Generated_Source\PSoC5/SPIM_Funk.c **** * Global variables:
 582:.\Generated_Source\PSoC5/SPIM_Funk.c **** *  SPIM_Funk_rxBufferWrite - used for the account of the bytes which
 583:.\Generated_Source\PSoC5/SPIM_Funk.c **** *  have been written down in the RX software buffer.
 584:.\Generated_Source\PSoC5/SPIM_Funk.c **** *  SPIM_Funk_rxBufferRead - used for the account of the bytes which
 585:.\Generated_Source\PSoC5/SPIM_Funk.c **** *  have been read from the RX software buffer, modified every function
 586:.\Generated_Source\PSoC5/SPIM_Funk.c **** *  call if RX Software Buffer is used.
 587:.\Generated_Source\PSoC5/SPIM_Funk.c **** *  SPIM_Funk_rxBuffer[SPIM_Funk_RX_BUFFER_SIZE] - used to store
 588:.\Generated_Source\PSoC5/SPIM_Funk.c **** *  received data.
 589:.\Generated_Source\PSoC5/SPIM_Funk.c **** *
 590:.\Generated_Source\PSoC5/SPIM_Funk.c **** * Theory:
 591:.\Generated_Source\PSoC5/SPIM_Funk.c **** *  Allows the user to read a byte of data received.
 592:.\Generated_Source\PSoC5/SPIM_Funk.c **** *
 593:.\Generated_Source\PSoC5/SPIM_Funk.c **** * Side Effects:
 594:.\Generated_Source\PSoC5/SPIM_Funk.c **** *  Will return invalid data if the FIFO is empty. The user should Call
 595:.\Generated_Source\PSoC5/SPIM_Funk.c **** *  GetRxBufferSize() and if it returns a non-zero value then it is safe to call
 596:.\Generated_Source\PSoC5/SPIM_Funk.c **** *  ReadByte() function.
 597:.\Generated_Source\PSoC5/SPIM_Funk.c **** *
 598:.\Generated_Source\PSoC5/SPIM_Funk.c **** * Reentrant:
 599:.\Generated_Source\PSoC5/SPIM_Funk.c **** *  No.
 600:.\Generated_Source\PSoC5/SPIM_Funk.c **** *
 601:.\Generated_Source\PSoC5/SPIM_Funk.c **** *******************************************************************************/
 602:.\Generated_Source\PSoC5/SPIM_Funk.c **** uint8 SPIM_Funk_ReadRxData(void) 
 603:.\Generated_Source\PSoC5/SPIM_Funk.c **** {
 851              		.loc 1 603 0
 852              		.cfi_startproc
 853              		@ args = 0, pretend = 0, frame = 8
 854              		@ frame_needed = 1, uses_anonymous_args = 0
 855 0000 80B5     		push	{r7, lr}
 856              		.cfi_def_cfa_offset 8
 857              		.cfi_offset 7, -8
 858              		.cfi_offset 14, -4
 859 0002 82B0     		sub	sp, sp, #8
 860              		.cfi_def_cfa_offset 16
 861 0004 00AF     		add	r7, sp, #0
 862              		.cfi_def_cfa_register 7
 604:.\Generated_Source\PSoC5/SPIM_Funk.c ****     uint8 rxData;
 605:.\Generated_Source\PSoC5/SPIM_Funk.c **** 
 606:.\Generated_Source\PSoC5/SPIM_Funk.c ****     #if(SPIM_Funk_RX_SOFTWARE_BUF_ENABLED)
 607:.\Generated_Source\PSoC5/SPIM_Funk.c **** 
 608:.\Generated_Source\PSoC5/SPIM_Funk.c ****         /* Disable RX interrupt to protect global veriables */
 609:.\Generated_Source\PSoC5/SPIM_Funk.c ****         SPIM_Funk_DisableRxInt();
 863              		.loc 1 609 0
 864 0006 FFF7FEFF 		bl	SPIM_Funk_DisableRxInt
 610:.\Generated_Source\PSoC5/SPIM_Funk.c **** 
 611:.\Generated_Source\PSoC5/SPIM_Funk.c ****         if(SPIM_Funk_rxBufferRead != SPIM_Funk_rxBufferWrite)
 865              		.loc 1 611 0
 866 000a 174B     		ldr	r3, .L56
 867 000c 1B78     		ldrb	r3, [r3]
 868 000e DAB2     		uxtb	r2, r3
 869 0010 164B     		ldr	r3, .L56+4
 870 0012 1B78     		ldrb	r3, [r3]
ARM GAS  C:\Users\LUKASC~1\AppData\Local\Temp\ccFLeR0b.s 			page 27


 871 0014 DBB2     		uxtb	r3, r3
 872 0016 9A42     		cmp	r2, r3
 873 0018 17D0     		beq	.L52
 612:.\Generated_Source\PSoC5/SPIM_Funk.c ****         {
 613:.\Generated_Source\PSoC5/SPIM_Funk.c ****             if(0u == SPIM_Funk_rxBufferFull)
 874              		.loc 1 613 0
 875 001a 154B     		ldr	r3, .L56+8
 876 001c 1B78     		ldrb	r3, [r3]
 877 001e DBB2     		uxtb	r3, r3
 878 0020 002B     		cmp	r3, #0
 879 0022 0FD1     		bne	.L53
 614:.\Generated_Source\PSoC5/SPIM_Funk.c ****             {
 615:.\Generated_Source\PSoC5/SPIM_Funk.c ****                 SPIM_Funk_rxBufferRead++;
 880              		.loc 1 615 0
 881 0024 104B     		ldr	r3, .L56
 882 0026 1B78     		ldrb	r3, [r3]
 883 0028 DBB2     		uxtb	r3, r3
 884 002a 0133     		adds	r3, r3, #1
 885 002c DAB2     		uxtb	r2, r3
 886 002e 0E4B     		ldr	r3, .L56
 887 0030 1A70     		strb	r2, [r3]
 616:.\Generated_Source\PSoC5/SPIM_Funk.c ****                 if(SPIM_Funk_rxBufferRead >= SPIM_Funk_RX_BUFFER_SIZE)
 888              		.loc 1 616 0
 889 0032 0D4B     		ldr	r3, .L56
 890 0034 1B78     		ldrb	r3, [r3]
 891 0036 DBB2     		uxtb	r3, r3
 892 0038 2F2B     		cmp	r3, #47
 893 003a 06D9     		bls	.L52
 617:.\Generated_Source\PSoC5/SPIM_Funk.c ****                 {
 618:.\Generated_Source\PSoC5/SPIM_Funk.c ****                     SPIM_Funk_rxBufferRead = 0u;
 894              		.loc 1 618 0
 895 003c 0A4B     		ldr	r3, .L56
 896 003e 0022     		movs	r2, #0
 897 0040 1A70     		strb	r2, [r3]
 898 0042 02E0     		b	.L52
 899              	.L53:
 619:.\Generated_Source\PSoC5/SPIM_Funk.c ****                 }
 620:.\Generated_Source\PSoC5/SPIM_Funk.c ****             }
 621:.\Generated_Source\PSoC5/SPIM_Funk.c ****             else
 622:.\Generated_Source\PSoC5/SPIM_Funk.c ****             {
 623:.\Generated_Source\PSoC5/SPIM_Funk.c ****                 SPIM_Funk_rxBufferFull = 0u;
 900              		.loc 1 623 0
 901 0044 0A4B     		ldr	r3, .L56+8
 902 0046 0022     		movs	r2, #0
 903 0048 1A70     		strb	r2, [r3]
 904              	.L52:
 624:.\Generated_Source\PSoC5/SPIM_Funk.c ****             }
 625:.\Generated_Source\PSoC5/SPIM_Funk.c ****         }
 626:.\Generated_Source\PSoC5/SPIM_Funk.c **** 
 627:.\Generated_Source\PSoC5/SPIM_Funk.c ****         rxData = SPIM_Funk_rxBuffer[SPIM_Funk_rxBufferRead];
 905              		.loc 1 627 0
 906 004a 074B     		ldr	r3, .L56
 907 004c 1B78     		ldrb	r3, [r3]
 908 004e DBB2     		uxtb	r3, r3
 909 0050 1A46     		mov	r2, r3
 910 0052 084B     		ldr	r3, .L56+12
 911 0054 9B5C     		ldrb	r3, [r3, r2]
ARM GAS  C:\Users\LUKASC~1\AppData\Local\Temp\ccFLeR0b.s 			page 28


 912 0056 FB71     		strb	r3, [r7, #7]
 628:.\Generated_Source\PSoC5/SPIM_Funk.c **** 
 629:.\Generated_Source\PSoC5/SPIM_Funk.c ****         SPIM_Funk_EnableRxInt();
 913              		.loc 1 629 0
 914 0058 FFF7FEFF 		bl	SPIM_Funk_EnableRxInt
 630:.\Generated_Source\PSoC5/SPIM_Funk.c **** 
 631:.\Generated_Source\PSoC5/SPIM_Funk.c ****     #else
 632:.\Generated_Source\PSoC5/SPIM_Funk.c **** 
 633:.\Generated_Source\PSoC5/SPIM_Funk.c ****         rxData = CY_GET_REG8(SPIM_Funk_RXDATA_PTR);
 634:.\Generated_Source\PSoC5/SPIM_Funk.c **** 
 635:.\Generated_Source\PSoC5/SPIM_Funk.c ****     #endif /* (SPIM_Funk_RX_SOFTWARE_BUF_ENABLED) */
 636:.\Generated_Source\PSoC5/SPIM_Funk.c **** 
 637:.\Generated_Source\PSoC5/SPIM_Funk.c ****     return(rxData);
 915              		.loc 1 637 0
 916 005c FB79     		ldrb	r3, [r7, #7]	@ zero_extendqisi2
 638:.\Generated_Source\PSoC5/SPIM_Funk.c **** }
 917              		.loc 1 638 0
 918 005e 1846     		mov	r0, r3
 919 0060 0837     		adds	r7, r7, #8
 920              		.cfi_def_cfa_offset 8
 921 0062 BD46     		mov	sp, r7
 922              		.cfi_def_cfa_register 13
 923              		@ sp needed
 924 0064 80BD     		pop	{r7, pc}
 925              	.L57:
 926 0066 00BF     		.align	2
 927              	.L56:
 928 0068 00000000 		.word	SPIM_Funk_rxBufferRead
 929 006c 00000000 		.word	SPIM_Funk_rxBufferWrite
 930 0070 00000000 		.word	SPIM_Funk_rxBufferFull
 931 0074 00000000 		.word	SPIM_Funk_rxBuffer
 932              		.cfi_endproc
 933              	.LFE13:
 934              		.size	SPIM_Funk_ReadRxData, .-SPIM_Funk_ReadRxData
 935              		.section	.text.SPIM_Funk_GetRxBufferSize,"ax",%progbits
 936              		.align	2
 937              		.global	SPIM_Funk_GetRxBufferSize
 938              		.thumb
 939              		.thumb_func
 940              		.type	SPIM_Funk_GetRxBufferSize, %function
 941              	SPIM_Funk_GetRxBufferSize:
 942              	.LFB14:
 639:.\Generated_Source\PSoC5/SPIM_Funk.c **** 
 640:.\Generated_Source\PSoC5/SPIM_Funk.c **** 
 641:.\Generated_Source\PSoC5/SPIM_Funk.c **** /*******************************************************************************
 642:.\Generated_Source\PSoC5/SPIM_Funk.c **** * Function Name: SPIM_Funk_GetRxBufferSize
 643:.\Generated_Source\PSoC5/SPIM_Funk.c **** ********************************************************************************
 644:.\Generated_Source\PSoC5/SPIM_Funk.c **** *
 645:.\Generated_Source\PSoC5/SPIM_Funk.c **** * Summary:
 646:.\Generated_Source\PSoC5/SPIM_Funk.c **** *  Returns the number of bytes/words of data currently held in the RX buffer.
 647:.\Generated_Source\PSoC5/SPIM_Funk.c **** *  If RX Software Buffer not used then function return 0 if FIFO empty or 1 if
 648:.\Generated_Source\PSoC5/SPIM_Funk.c **** *  FIFO not empty. In another case function return size of RX Software Buffer.
 649:.\Generated_Source\PSoC5/SPIM_Funk.c **** *
 650:.\Generated_Source\PSoC5/SPIM_Funk.c **** * Parameters:
 651:.\Generated_Source\PSoC5/SPIM_Funk.c **** *  None.
 652:.\Generated_Source\PSoC5/SPIM_Funk.c **** *
 653:.\Generated_Source\PSoC5/SPIM_Funk.c **** * Return:
ARM GAS  C:\Users\LUKASC~1\AppData\Local\Temp\ccFLeR0b.s 			page 29


 654:.\Generated_Source\PSoC5/SPIM_Funk.c **** *  Integer count of the number of bytes/words in the RX buffer.
 655:.\Generated_Source\PSoC5/SPIM_Funk.c **** *
 656:.\Generated_Source\PSoC5/SPIM_Funk.c **** * Global variables:
 657:.\Generated_Source\PSoC5/SPIM_Funk.c **** *  SPIM_Funk_rxBufferWrite - used for the account of the bytes which
 658:.\Generated_Source\PSoC5/SPIM_Funk.c **** *  have been written down in the RX software buffer.
 659:.\Generated_Source\PSoC5/SPIM_Funk.c **** *  SPIM_Funk_rxBufferRead - used for the account of the bytes which
 660:.\Generated_Source\PSoC5/SPIM_Funk.c **** *  have been read from the RX software buffer.
 661:.\Generated_Source\PSoC5/SPIM_Funk.c **** *
 662:.\Generated_Source\PSoC5/SPIM_Funk.c **** * Side Effects:
 663:.\Generated_Source\PSoC5/SPIM_Funk.c **** *  Clear status register of the component.
 664:.\Generated_Source\PSoC5/SPIM_Funk.c **** *
 665:.\Generated_Source\PSoC5/SPIM_Funk.c **** *******************************************************************************/
 666:.\Generated_Source\PSoC5/SPIM_Funk.c **** uint8 SPIM_Funk_GetRxBufferSize(void) 
 667:.\Generated_Source\PSoC5/SPIM_Funk.c **** {
 943              		.loc 1 667 0
 944              		.cfi_startproc
 945              		@ args = 0, pretend = 0, frame = 8
 946              		@ frame_needed = 1, uses_anonymous_args = 0
 947 0000 80B5     		push	{r7, lr}
 948              		.cfi_def_cfa_offset 8
 949              		.cfi_offset 7, -8
 950              		.cfi_offset 14, -4
 951 0002 82B0     		sub	sp, sp, #8
 952              		.cfi_def_cfa_offset 16
 953 0004 00AF     		add	r7, sp, #0
 954              		.cfi_def_cfa_register 7
 668:.\Generated_Source\PSoC5/SPIM_Funk.c ****     uint8 size;
 669:.\Generated_Source\PSoC5/SPIM_Funk.c **** 
 670:.\Generated_Source\PSoC5/SPIM_Funk.c ****     #if(SPIM_Funk_RX_SOFTWARE_BUF_ENABLED)
 671:.\Generated_Source\PSoC5/SPIM_Funk.c **** 
 672:.\Generated_Source\PSoC5/SPIM_Funk.c ****         /* Disable RX interrupt to protect global veriables */
 673:.\Generated_Source\PSoC5/SPIM_Funk.c ****         SPIM_Funk_DisableRxInt();
 955              		.loc 1 673 0
 956 0006 FFF7FEFF 		bl	SPIM_Funk_DisableRxInt
 674:.\Generated_Source\PSoC5/SPIM_Funk.c **** 
 675:.\Generated_Source\PSoC5/SPIM_Funk.c ****         if(SPIM_Funk_rxBufferRead == SPIM_Funk_rxBufferWrite)
 957              		.loc 1 675 0
 958 000a 164B     		ldr	r3, .L63
 959 000c 1B78     		ldrb	r3, [r3]
 960 000e DAB2     		uxtb	r2, r3
 961 0010 154B     		ldr	r3, .L63+4
 962 0012 1B78     		ldrb	r3, [r3]
 963 0014 DBB2     		uxtb	r3, r3
 964 0016 9A42     		cmp	r2, r3
 965 0018 02D1     		bne	.L59
 676:.\Generated_Source\PSoC5/SPIM_Funk.c ****         {
 677:.\Generated_Source\PSoC5/SPIM_Funk.c ****             size = 0u;
 966              		.loc 1 677 0
 967 001a 0023     		movs	r3, #0
 968 001c FB71     		strb	r3, [r7, #7]
 969 001e 1AE0     		b	.L60
 970              	.L59:
 678:.\Generated_Source\PSoC5/SPIM_Funk.c ****         }
 679:.\Generated_Source\PSoC5/SPIM_Funk.c ****         else if(SPIM_Funk_rxBufferRead < SPIM_Funk_rxBufferWrite)
 971              		.loc 1 679 0
 972 0020 104B     		ldr	r3, .L63
 973 0022 1B78     		ldrb	r3, [r3]
ARM GAS  C:\Users\LUKASC~1\AppData\Local\Temp\ccFLeR0b.s 			page 30


 974 0024 DAB2     		uxtb	r2, r3
 975 0026 104B     		ldr	r3, .L63+4
 976 0028 1B78     		ldrb	r3, [r3]
 977 002a DBB2     		uxtb	r3, r3
 978 002c 9A42     		cmp	r2, r3
 979 002e 08D2     		bcs	.L61
 680:.\Generated_Source\PSoC5/SPIM_Funk.c ****         {
 681:.\Generated_Source\PSoC5/SPIM_Funk.c ****             size = (SPIM_Funk_rxBufferWrite - SPIM_Funk_rxBufferRead);
 980              		.loc 1 681 0
 981 0030 0D4B     		ldr	r3, .L63+4
 982 0032 1B78     		ldrb	r3, [r3]
 983 0034 DAB2     		uxtb	r2, r3
 984 0036 0B4B     		ldr	r3, .L63
 985 0038 1B78     		ldrb	r3, [r3]
 986 003a DBB2     		uxtb	r3, r3
 987 003c D31A     		subs	r3, r2, r3
 988 003e FB71     		strb	r3, [r7, #7]
 989 0040 09E0     		b	.L60
 990              	.L61:
 682:.\Generated_Source\PSoC5/SPIM_Funk.c ****         }
 683:.\Generated_Source\PSoC5/SPIM_Funk.c ****         else
 684:.\Generated_Source\PSoC5/SPIM_Funk.c ****         {
 685:.\Generated_Source\PSoC5/SPIM_Funk.c ****             size = (SPIM_Funk_RX_BUFFER_SIZE - SPIM_Funk_rxBufferRead) + SPIM_Funk_rxBufferWrite;
 991              		.loc 1 685 0
 992 0042 094B     		ldr	r3, .L63+4
 993 0044 1B78     		ldrb	r3, [r3]
 994 0046 DAB2     		uxtb	r2, r3
 995 0048 064B     		ldr	r3, .L63
 996 004a 1B78     		ldrb	r3, [r3]
 997 004c DBB2     		uxtb	r3, r3
 998 004e D31A     		subs	r3, r2, r3
 999 0050 DBB2     		uxtb	r3, r3
 1000 0052 3033     		adds	r3, r3, #48
 1001 0054 FB71     		strb	r3, [r7, #7]
 1002              	.L60:
 686:.\Generated_Source\PSoC5/SPIM_Funk.c ****         }
 687:.\Generated_Source\PSoC5/SPIM_Funk.c **** 
 688:.\Generated_Source\PSoC5/SPIM_Funk.c ****         SPIM_Funk_EnableRxInt();
 1003              		.loc 1 688 0
 1004 0056 FFF7FEFF 		bl	SPIM_Funk_EnableRxInt
 689:.\Generated_Source\PSoC5/SPIM_Funk.c **** 
 690:.\Generated_Source\PSoC5/SPIM_Funk.c ****     #else
 691:.\Generated_Source\PSoC5/SPIM_Funk.c **** 
 692:.\Generated_Source\PSoC5/SPIM_Funk.c ****         /* We can only know if there is data in the RX FIFO */
 693:.\Generated_Source\PSoC5/SPIM_Funk.c ****         size = (0u != (SPIM_Funk_RX_STATUS_REG & SPIM_Funk_STS_RX_FIFO_NOT_EMPTY)) ? 1u : 0u;
 694:.\Generated_Source\PSoC5/SPIM_Funk.c **** 
 695:.\Generated_Source\PSoC5/SPIM_Funk.c ****     #endif /* (SPIM_Funk_TX_SOFTWARE_BUF_ENABLED) */
 696:.\Generated_Source\PSoC5/SPIM_Funk.c **** 
 697:.\Generated_Source\PSoC5/SPIM_Funk.c ****     return(size);
 1005              		.loc 1 697 0
 1006 005a FB79     		ldrb	r3, [r7, #7]	@ zero_extendqisi2
 698:.\Generated_Source\PSoC5/SPIM_Funk.c **** }
 1007              		.loc 1 698 0
 1008 005c 1846     		mov	r0, r3
 1009 005e 0837     		adds	r7, r7, #8
 1010              		.cfi_def_cfa_offset 8
 1011 0060 BD46     		mov	sp, r7
ARM GAS  C:\Users\LUKASC~1\AppData\Local\Temp\ccFLeR0b.s 			page 31


 1012              		.cfi_def_cfa_register 13
 1013              		@ sp needed
 1014 0062 80BD     		pop	{r7, pc}
 1015              	.L64:
 1016              		.align	2
 1017              	.L63:
 1018 0064 00000000 		.word	SPIM_Funk_rxBufferRead
 1019 0068 00000000 		.word	SPIM_Funk_rxBufferWrite
 1020              		.cfi_endproc
 1021              	.LFE14:
 1022              		.size	SPIM_Funk_GetRxBufferSize, .-SPIM_Funk_GetRxBufferSize
 1023              		.section	.text.SPIM_Funk_GetTxBufferSize,"ax",%progbits
 1024              		.align	2
 1025              		.global	SPIM_Funk_GetTxBufferSize
 1026              		.thumb
 1027              		.thumb_func
 1028              		.type	SPIM_Funk_GetTxBufferSize, %function
 1029              	SPIM_Funk_GetTxBufferSize:
 1030              	.LFB15:
 699:.\Generated_Source\PSoC5/SPIM_Funk.c **** 
 700:.\Generated_Source\PSoC5/SPIM_Funk.c **** 
 701:.\Generated_Source\PSoC5/SPIM_Funk.c **** /*******************************************************************************
 702:.\Generated_Source\PSoC5/SPIM_Funk.c **** * Function Name: SPIM_Funk_GetTxBufferSize
 703:.\Generated_Source\PSoC5/SPIM_Funk.c **** ********************************************************************************
 704:.\Generated_Source\PSoC5/SPIM_Funk.c **** *
 705:.\Generated_Source\PSoC5/SPIM_Funk.c **** * Summary:
 706:.\Generated_Source\PSoC5/SPIM_Funk.c **** *  Returns the number of bytes/words of data currently held in the TX buffer.
 707:.\Generated_Source\PSoC5/SPIM_Funk.c **** *  If TX Software Buffer not used then function return 0 - if FIFO empty, 1 - if
 708:.\Generated_Source\PSoC5/SPIM_Funk.c **** *  FIFO not full, 4 - if FIFO full. In another case function return size of TX
 709:.\Generated_Source\PSoC5/SPIM_Funk.c **** *  Software Buffer.
 710:.\Generated_Source\PSoC5/SPIM_Funk.c **** *
 711:.\Generated_Source\PSoC5/SPIM_Funk.c **** * Parameters:
 712:.\Generated_Source\PSoC5/SPIM_Funk.c **** *  None.
 713:.\Generated_Source\PSoC5/SPIM_Funk.c **** *
 714:.\Generated_Source\PSoC5/SPIM_Funk.c **** * Return:
 715:.\Generated_Source\PSoC5/SPIM_Funk.c **** *  Integer count of the number of bytes/words in the TX buffer.
 716:.\Generated_Source\PSoC5/SPIM_Funk.c **** *
 717:.\Generated_Source\PSoC5/SPIM_Funk.c **** * Global variables:
 718:.\Generated_Source\PSoC5/SPIM_Funk.c **** *  SPIM_Funk_txBufferWrite - used for the account of the bytes which
 719:.\Generated_Source\PSoC5/SPIM_Funk.c **** *  have been written down in the TX software buffer.
 720:.\Generated_Source\PSoC5/SPIM_Funk.c **** *  SPIM_Funk_txBufferRead - used for the account of the bytes which
 721:.\Generated_Source\PSoC5/SPIM_Funk.c **** *  have been read from the TX software buffer.
 722:.\Generated_Source\PSoC5/SPIM_Funk.c **** *
 723:.\Generated_Source\PSoC5/SPIM_Funk.c **** * Side Effects:
 724:.\Generated_Source\PSoC5/SPIM_Funk.c **** *  Clear status register of the component.
 725:.\Generated_Source\PSoC5/SPIM_Funk.c **** *
 726:.\Generated_Source\PSoC5/SPIM_Funk.c **** *******************************************************************************/
 727:.\Generated_Source\PSoC5/SPIM_Funk.c **** uint8  SPIM_Funk_GetTxBufferSize(void) 
 728:.\Generated_Source\PSoC5/SPIM_Funk.c **** {
 1031              		.loc 1 728 0
 1032              		.cfi_startproc
 1033              		@ args = 0, pretend = 0, frame = 8
 1034              		@ frame_needed = 1, uses_anonymous_args = 0
 1035 0000 80B5     		push	{r7, lr}
 1036              		.cfi_def_cfa_offset 8
 1037              		.cfi_offset 7, -8
 1038              		.cfi_offset 14, -4
ARM GAS  C:\Users\LUKASC~1\AppData\Local\Temp\ccFLeR0b.s 			page 32


 1039 0002 82B0     		sub	sp, sp, #8
 1040              		.cfi_def_cfa_offset 16
 1041 0004 00AF     		add	r7, sp, #0
 1042              		.cfi_def_cfa_register 7
 729:.\Generated_Source\PSoC5/SPIM_Funk.c ****     uint8 size;
 730:.\Generated_Source\PSoC5/SPIM_Funk.c **** 
 731:.\Generated_Source\PSoC5/SPIM_Funk.c ****     #if(SPIM_Funk_TX_SOFTWARE_BUF_ENABLED)
 732:.\Generated_Source\PSoC5/SPIM_Funk.c ****         /* Disable TX interrupt to protect global veriables */
 733:.\Generated_Source\PSoC5/SPIM_Funk.c ****         SPIM_Funk_DisableTxInt();
 1043              		.loc 1 733 0
 1044 0006 FFF7FEFF 		bl	SPIM_Funk_DisableTxInt
 734:.\Generated_Source\PSoC5/SPIM_Funk.c **** 
 735:.\Generated_Source\PSoC5/SPIM_Funk.c ****         if(SPIM_Funk_txBufferRead == SPIM_Funk_txBufferWrite)
 1045              		.loc 1 735 0
 1046 000a 164B     		ldr	r3, .L70
 1047 000c 1B78     		ldrb	r3, [r3]
 1048 000e DAB2     		uxtb	r2, r3
 1049 0010 154B     		ldr	r3, .L70+4
 1050 0012 1B78     		ldrb	r3, [r3]
 1051 0014 DBB2     		uxtb	r3, r3
 1052 0016 9A42     		cmp	r2, r3
 1053 0018 02D1     		bne	.L66
 736:.\Generated_Source\PSoC5/SPIM_Funk.c ****         {
 737:.\Generated_Source\PSoC5/SPIM_Funk.c ****             size = 0u;
 1054              		.loc 1 737 0
 1055 001a 0023     		movs	r3, #0
 1056 001c FB71     		strb	r3, [r7, #7]
 1057 001e 1AE0     		b	.L67
 1058              	.L66:
 738:.\Generated_Source\PSoC5/SPIM_Funk.c ****         }
 739:.\Generated_Source\PSoC5/SPIM_Funk.c ****         else if(SPIM_Funk_txBufferRead < SPIM_Funk_txBufferWrite)
 1059              		.loc 1 739 0
 1060 0020 104B     		ldr	r3, .L70
 1061 0022 1B78     		ldrb	r3, [r3]
 1062 0024 DAB2     		uxtb	r2, r3
 1063 0026 104B     		ldr	r3, .L70+4
 1064 0028 1B78     		ldrb	r3, [r3]
 1065 002a DBB2     		uxtb	r3, r3
 1066 002c 9A42     		cmp	r2, r3
 1067 002e 08D2     		bcs	.L68
 740:.\Generated_Source\PSoC5/SPIM_Funk.c ****         {
 741:.\Generated_Source\PSoC5/SPIM_Funk.c ****             size = (SPIM_Funk_txBufferWrite - SPIM_Funk_txBufferRead);
 1068              		.loc 1 741 0
 1069 0030 0D4B     		ldr	r3, .L70+4
 1070 0032 1B78     		ldrb	r3, [r3]
 1071 0034 DAB2     		uxtb	r2, r3
 1072 0036 0B4B     		ldr	r3, .L70
 1073 0038 1B78     		ldrb	r3, [r3]
 1074 003a DBB2     		uxtb	r3, r3
 1075 003c D31A     		subs	r3, r2, r3
 1076 003e FB71     		strb	r3, [r7, #7]
 1077 0040 09E0     		b	.L67
 1078              	.L68:
 742:.\Generated_Source\PSoC5/SPIM_Funk.c ****         }
 743:.\Generated_Source\PSoC5/SPIM_Funk.c ****         else
 744:.\Generated_Source\PSoC5/SPIM_Funk.c ****         {
 745:.\Generated_Source\PSoC5/SPIM_Funk.c ****             size = (SPIM_Funk_TX_BUFFER_SIZE - SPIM_Funk_txBufferRead) + SPIM_Funk_txBufferWrite;
ARM GAS  C:\Users\LUKASC~1\AppData\Local\Temp\ccFLeR0b.s 			page 33


 1079              		.loc 1 745 0
 1080 0042 094B     		ldr	r3, .L70+4
 1081 0044 1B78     		ldrb	r3, [r3]
 1082 0046 DAB2     		uxtb	r2, r3
 1083 0048 064B     		ldr	r3, .L70
 1084 004a 1B78     		ldrb	r3, [r3]
 1085 004c DBB2     		uxtb	r3, r3
 1086 004e D31A     		subs	r3, r2, r3
 1087 0050 DBB2     		uxtb	r3, r3
 1088 0052 3033     		adds	r3, r3, #48
 1089 0054 FB71     		strb	r3, [r7, #7]
 1090              	.L67:
 746:.\Generated_Source\PSoC5/SPIM_Funk.c ****         }
 747:.\Generated_Source\PSoC5/SPIM_Funk.c **** 
 748:.\Generated_Source\PSoC5/SPIM_Funk.c ****         SPIM_Funk_EnableTxInt();
 1091              		.loc 1 748 0
 1092 0056 FFF7FEFF 		bl	SPIM_Funk_EnableTxInt
 749:.\Generated_Source\PSoC5/SPIM_Funk.c **** 
 750:.\Generated_Source\PSoC5/SPIM_Funk.c ****     #else
 751:.\Generated_Source\PSoC5/SPIM_Funk.c **** 
 752:.\Generated_Source\PSoC5/SPIM_Funk.c ****         size = SPIM_Funk_TX_STATUS_REG;
 753:.\Generated_Source\PSoC5/SPIM_Funk.c **** 
 754:.\Generated_Source\PSoC5/SPIM_Funk.c ****         if(0u != (size & SPIM_Funk_STS_TX_FIFO_EMPTY))
 755:.\Generated_Source\PSoC5/SPIM_Funk.c ****         {
 756:.\Generated_Source\PSoC5/SPIM_Funk.c ****             size = 0u;
 757:.\Generated_Source\PSoC5/SPIM_Funk.c ****         }
 758:.\Generated_Source\PSoC5/SPIM_Funk.c ****         else if(0u != (size & SPIM_Funk_STS_TX_FIFO_NOT_FULL))
 759:.\Generated_Source\PSoC5/SPIM_Funk.c ****         {
 760:.\Generated_Source\PSoC5/SPIM_Funk.c ****             size = 1u;
 761:.\Generated_Source\PSoC5/SPIM_Funk.c ****         }
 762:.\Generated_Source\PSoC5/SPIM_Funk.c ****         else
 763:.\Generated_Source\PSoC5/SPIM_Funk.c ****         {
 764:.\Generated_Source\PSoC5/SPIM_Funk.c ****             size = SPIM_Funk_FIFO_SIZE;
 765:.\Generated_Source\PSoC5/SPIM_Funk.c ****         }
 766:.\Generated_Source\PSoC5/SPIM_Funk.c **** 
 767:.\Generated_Source\PSoC5/SPIM_Funk.c ****     #endif /* (SPIM_Funk_TX_SOFTWARE_BUF_ENABLED) */
 768:.\Generated_Source\PSoC5/SPIM_Funk.c **** 
 769:.\Generated_Source\PSoC5/SPIM_Funk.c ****     return(size);
 1093              		.loc 1 769 0
 1094 005a FB79     		ldrb	r3, [r7, #7]	@ zero_extendqisi2
 770:.\Generated_Source\PSoC5/SPIM_Funk.c **** }
 1095              		.loc 1 770 0
 1096 005c 1846     		mov	r0, r3
 1097 005e 0837     		adds	r7, r7, #8
 1098              		.cfi_def_cfa_offset 8
 1099 0060 BD46     		mov	sp, r7
 1100              		.cfi_def_cfa_register 13
 1101              		@ sp needed
 1102 0062 80BD     		pop	{r7, pc}
 1103              	.L71:
 1104              		.align	2
 1105              	.L70:
 1106 0064 00000000 		.word	SPIM_Funk_txBufferRead
 1107 0068 00000000 		.word	SPIM_Funk_txBufferWrite
 1108              		.cfi_endproc
 1109              	.LFE15:
 1110              		.size	SPIM_Funk_GetTxBufferSize, .-SPIM_Funk_GetTxBufferSize
ARM GAS  C:\Users\LUKASC~1\AppData\Local\Temp\ccFLeR0b.s 			page 34


 1111              		.section	.text.SPIM_Funk_ClearRxBuffer,"ax",%progbits
 1112              		.align	2
 1113              		.global	SPIM_Funk_ClearRxBuffer
 1114              		.thumb
 1115              		.thumb_func
 1116              		.type	SPIM_Funk_ClearRxBuffer, %function
 1117              	SPIM_Funk_ClearRxBuffer:
 1118              	.LFB16:
 771:.\Generated_Source\PSoC5/SPIM_Funk.c **** 
 772:.\Generated_Source\PSoC5/SPIM_Funk.c **** 
 773:.\Generated_Source\PSoC5/SPIM_Funk.c **** /*******************************************************************************
 774:.\Generated_Source\PSoC5/SPIM_Funk.c **** * Function Name: SPIM_Funk_ClearRxBuffer
 775:.\Generated_Source\PSoC5/SPIM_Funk.c **** ********************************************************************************
 776:.\Generated_Source\PSoC5/SPIM_Funk.c **** *
 777:.\Generated_Source\PSoC5/SPIM_Funk.c **** * Summary:
 778:.\Generated_Source\PSoC5/SPIM_Funk.c **** *  Clear the RX RAM buffer by setting the read and write pointers both to zero.
 779:.\Generated_Source\PSoC5/SPIM_Funk.c **** *
 780:.\Generated_Source\PSoC5/SPIM_Funk.c **** * Parameters:
 781:.\Generated_Source\PSoC5/SPIM_Funk.c **** *  None.
 782:.\Generated_Source\PSoC5/SPIM_Funk.c **** *
 783:.\Generated_Source\PSoC5/SPIM_Funk.c **** * Return:
 784:.\Generated_Source\PSoC5/SPIM_Funk.c **** *  None.
 785:.\Generated_Source\PSoC5/SPIM_Funk.c **** *
 786:.\Generated_Source\PSoC5/SPIM_Funk.c **** * Global variables:
 787:.\Generated_Source\PSoC5/SPIM_Funk.c **** *  SPIM_Funk_rxBufferWrite - used for the account of the bytes which
 788:.\Generated_Source\PSoC5/SPIM_Funk.c **** *  have been written down in the RX software buffer, modified every function
 789:.\Generated_Source\PSoC5/SPIM_Funk.c **** *  call - resets to zero.
 790:.\Generated_Source\PSoC5/SPIM_Funk.c **** *  SPIM_Funk_rxBufferRead - used for the account of the bytes which
 791:.\Generated_Source\PSoC5/SPIM_Funk.c **** *  have been read from the RX software buffer, modified every function call -
 792:.\Generated_Source\PSoC5/SPIM_Funk.c **** *  resets to zero.
 793:.\Generated_Source\PSoC5/SPIM_Funk.c **** *
 794:.\Generated_Source\PSoC5/SPIM_Funk.c **** * Theory:
 795:.\Generated_Source\PSoC5/SPIM_Funk.c **** *  Setting the pointers to zero makes the system believe there is no data to
 796:.\Generated_Source\PSoC5/SPIM_Funk.c **** *  read and writing will resume at address 0 overwriting any data that may have
 797:.\Generated_Source\PSoC5/SPIM_Funk.c **** *  remained in the RAM.
 798:.\Generated_Source\PSoC5/SPIM_Funk.c **** *
 799:.\Generated_Source\PSoC5/SPIM_Funk.c **** * Side Effects:
 800:.\Generated_Source\PSoC5/SPIM_Funk.c **** *  Any received data not read from the RAM buffer will be lost when overwritten.
 801:.\Generated_Source\PSoC5/SPIM_Funk.c **** *
 802:.\Generated_Source\PSoC5/SPIM_Funk.c **** * Reentrant:
 803:.\Generated_Source\PSoC5/SPIM_Funk.c **** *  No.
 804:.\Generated_Source\PSoC5/SPIM_Funk.c **** *
 805:.\Generated_Source\PSoC5/SPIM_Funk.c **** *******************************************************************************/
 806:.\Generated_Source\PSoC5/SPIM_Funk.c **** void SPIM_Funk_ClearRxBuffer(void) 
 807:.\Generated_Source\PSoC5/SPIM_Funk.c **** {
 1119              		.loc 1 807 0
 1120              		.cfi_startproc
 1121              		@ args = 0, pretend = 0, frame = 0
 1122              		@ frame_needed = 1, uses_anonymous_args = 0
 1123 0000 80B5     		push	{r7, lr}
 1124              		.cfi_def_cfa_offset 8
 1125              		.cfi_offset 7, -8
 1126              		.cfi_offset 14, -4
 1127 0002 00AF     		add	r7, sp, #0
 1128              		.cfi_def_cfa_register 7
 808:.\Generated_Source\PSoC5/SPIM_Funk.c ****     /* Clear Hardware RX FIFO */
 809:.\Generated_Source\PSoC5/SPIM_Funk.c ****     while(0u !=(SPIM_Funk_RX_STATUS_REG & SPIM_Funk_STS_RX_FIFO_NOT_EMPTY))
ARM GAS  C:\Users\LUKASC~1\AppData\Local\Temp\ccFLeR0b.s 			page 35


 1129              		.loc 1 809 0
 1130 0004 01E0     		b	.L73
 1131              	.L74:
 810:.\Generated_Source\PSoC5/SPIM_Funk.c ****     {
 811:.\Generated_Source\PSoC5/SPIM_Funk.c ****         (void) CY_GET_REG8(SPIM_Funk_RXDATA_PTR);
 1132              		.loc 1 811 0
 1133 0006 0B4B     		ldr	r3, .L75
 1134 0008 1B78     		ldrb	r3, [r3]
 1135              	.L73:
 809:.\Generated_Source\PSoC5/SPIM_Funk.c ****     {
 1136              		.loc 1 809 0
 1137 000a 0B4B     		ldr	r3, .L75+4
 1138 000c 1B78     		ldrb	r3, [r3]
 1139 000e DBB2     		uxtb	r3, r3
 1140 0010 03F02003 		and	r3, r3, #32
 1141 0014 002B     		cmp	r3, #0
 1142 0016 F6D1     		bne	.L74
 812:.\Generated_Source\PSoC5/SPIM_Funk.c ****     }
 813:.\Generated_Source\PSoC5/SPIM_Funk.c **** 
 814:.\Generated_Source\PSoC5/SPIM_Funk.c ****     #if(SPIM_Funk_RX_SOFTWARE_BUF_ENABLED)
 815:.\Generated_Source\PSoC5/SPIM_Funk.c ****         /* Disable RX interrupt to protect global veriables */
 816:.\Generated_Source\PSoC5/SPIM_Funk.c ****         SPIM_Funk_DisableRxInt();
 1143              		.loc 1 816 0
 1144 0018 FFF7FEFF 		bl	SPIM_Funk_DisableRxInt
 817:.\Generated_Source\PSoC5/SPIM_Funk.c **** 
 818:.\Generated_Source\PSoC5/SPIM_Funk.c ****         SPIM_Funk_rxBufferFull  = 0u;
 1145              		.loc 1 818 0
 1146 001c 074B     		ldr	r3, .L75+8
 1147 001e 0022     		movs	r2, #0
 1148 0020 1A70     		strb	r2, [r3]
 819:.\Generated_Source\PSoC5/SPIM_Funk.c ****         SPIM_Funk_rxBufferRead  = 0u;
 1149              		.loc 1 819 0
 1150 0022 074B     		ldr	r3, .L75+12
 1151 0024 0022     		movs	r2, #0
 1152 0026 1A70     		strb	r2, [r3]
 820:.\Generated_Source\PSoC5/SPIM_Funk.c ****         SPIM_Funk_rxBufferWrite = 0u;
 1153              		.loc 1 820 0
 1154 0028 064B     		ldr	r3, .L75+16
 1155 002a 0022     		movs	r2, #0
 1156 002c 1A70     		strb	r2, [r3]
 821:.\Generated_Source\PSoC5/SPIM_Funk.c **** 
 822:.\Generated_Source\PSoC5/SPIM_Funk.c ****         SPIM_Funk_EnableRxInt();
 1157              		.loc 1 822 0
 1158 002e FFF7FEFF 		bl	SPIM_Funk_EnableRxInt
 823:.\Generated_Source\PSoC5/SPIM_Funk.c ****     #endif /* (SPIM_Funk_RX_SOFTWARE_BUF_ENABLED) */
 824:.\Generated_Source\PSoC5/SPIM_Funk.c **** }
 1159              		.loc 1 824 0
 1160 0032 80BD     		pop	{r7, pc}
 1161              	.L76:
 1162              		.align	2
 1163              	.L75:
 1164 0034 57640040 		.word	1073767511
 1165 0038 67650040 		.word	1073767783
 1166 003c 00000000 		.word	SPIM_Funk_rxBufferFull
 1167 0040 00000000 		.word	SPIM_Funk_rxBufferRead
 1168 0044 00000000 		.word	SPIM_Funk_rxBufferWrite
 1169              		.cfi_endproc
ARM GAS  C:\Users\LUKASC~1\AppData\Local\Temp\ccFLeR0b.s 			page 36


 1170              	.LFE16:
 1171              		.size	SPIM_Funk_ClearRxBuffer, .-SPIM_Funk_ClearRxBuffer
 1172              		.section	.text.SPIM_Funk_ClearTxBuffer,"ax",%progbits
 1173              		.align	2
 1174              		.global	SPIM_Funk_ClearTxBuffer
 1175              		.thumb
 1176              		.thumb_func
 1177              		.type	SPIM_Funk_ClearTxBuffer, %function
 1178              	SPIM_Funk_ClearTxBuffer:
 1179              	.LFB17:
 825:.\Generated_Source\PSoC5/SPIM_Funk.c **** 
 826:.\Generated_Source\PSoC5/SPIM_Funk.c **** 
 827:.\Generated_Source\PSoC5/SPIM_Funk.c **** /*******************************************************************************
 828:.\Generated_Source\PSoC5/SPIM_Funk.c **** * Function Name: SPIM_Funk_ClearTxBuffer
 829:.\Generated_Source\PSoC5/SPIM_Funk.c **** ********************************************************************************
 830:.\Generated_Source\PSoC5/SPIM_Funk.c **** *
 831:.\Generated_Source\PSoC5/SPIM_Funk.c **** * Summary:
 832:.\Generated_Source\PSoC5/SPIM_Funk.c **** *  Clear the TX RAM buffer by setting the read and write pointers both to zero.
 833:.\Generated_Source\PSoC5/SPIM_Funk.c **** *
 834:.\Generated_Source\PSoC5/SPIM_Funk.c **** * Parameters:
 835:.\Generated_Source\PSoC5/SPIM_Funk.c **** *  None.
 836:.\Generated_Source\PSoC5/SPIM_Funk.c **** *
 837:.\Generated_Source\PSoC5/SPIM_Funk.c **** * Return:
 838:.\Generated_Source\PSoC5/SPIM_Funk.c **** *  None.
 839:.\Generated_Source\PSoC5/SPIM_Funk.c **** *
 840:.\Generated_Source\PSoC5/SPIM_Funk.c **** * Global variables:
 841:.\Generated_Source\PSoC5/SPIM_Funk.c **** *  SPIM_Funk_txBufferWrite - used for the account of the bytes which
 842:.\Generated_Source\PSoC5/SPIM_Funk.c **** *  have been written down in the TX software buffer, modified every function
 843:.\Generated_Source\PSoC5/SPIM_Funk.c **** *  call - resets to zero.
 844:.\Generated_Source\PSoC5/SPIM_Funk.c **** *  SPIM_Funk_txBufferRead - used for the account of the bytes which
 845:.\Generated_Source\PSoC5/SPIM_Funk.c **** *  have been read from the TX software buffer, modified every function call -
 846:.\Generated_Source\PSoC5/SPIM_Funk.c **** *  resets to zero.
 847:.\Generated_Source\PSoC5/SPIM_Funk.c **** *
 848:.\Generated_Source\PSoC5/SPIM_Funk.c **** * Theory:
 849:.\Generated_Source\PSoC5/SPIM_Funk.c **** *  Setting the pointers to zero makes the system believe there is no data to
 850:.\Generated_Source\PSoC5/SPIM_Funk.c **** *  read and writing will resume at address 0 overwriting any data that may have
 851:.\Generated_Source\PSoC5/SPIM_Funk.c **** *  remained in the RAM.
 852:.\Generated_Source\PSoC5/SPIM_Funk.c **** *
 853:.\Generated_Source\PSoC5/SPIM_Funk.c **** * Side Effects:
 854:.\Generated_Source\PSoC5/SPIM_Funk.c **** *  Any data not yet transmitted from the RAM buffer will be lost when
 855:.\Generated_Source\PSoC5/SPIM_Funk.c **** *  overwritten.
 856:.\Generated_Source\PSoC5/SPIM_Funk.c **** *
 857:.\Generated_Source\PSoC5/SPIM_Funk.c **** * Reentrant:
 858:.\Generated_Source\PSoC5/SPIM_Funk.c **** *  No.
 859:.\Generated_Source\PSoC5/SPIM_Funk.c **** *
 860:.\Generated_Source\PSoC5/SPIM_Funk.c **** *******************************************************************************/
 861:.\Generated_Source\PSoC5/SPIM_Funk.c **** void SPIM_Funk_ClearTxBuffer(void) 
 862:.\Generated_Source\PSoC5/SPIM_Funk.c **** {
 1180              		.loc 1 862 0
 1181              		.cfi_startproc
 1182              		@ args = 0, pretend = 0, frame = 8
 1183              		@ frame_needed = 1, uses_anonymous_args = 0
 1184 0000 80B5     		push	{r7, lr}
 1185              		.cfi_def_cfa_offset 8
 1186              		.cfi_offset 7, -8
 1187              		.cfi_offset 14, -4
 1188 0002 82B0     		sub	sp, sp, #8
ARM GAS  C:\Users\LUKASC~1\AppData\Local\Temp\ccFLeR0b.s 			page 37


 1189              		.cfi_def_cfa_offset 16
 1190 0004 00AF     		add	r7, sp, #0
 1191              		.cfi_def_cfa_register 7
 863:.\Generated_Source\PSoC5/SPIM_Funk.c ****     uint8 enableInterrupts;
 864:.\Generated_Source\PSoC5/SPIM_Funk.c **** 
 865:.\Generated_Source\PSoC5/SPIM_Funk.c ****     enableInterrupts = CyEnterCriticalSection();
 1192              		.loc 1 865 0
 1193 0006 FFF7FEFF 		bl	CyEnterCriticalSection
 1194 000a 0346     		mov	r3, r0
 1195 000c FB71     		strb	r3, [r7, #7]
 866:.\Generated_Source\PSoC5/SPIM_Funk.c ****     /* Clear TX FIFO */
 867:.\Generated_Source\PSoC5/SPIM_Funk.c ****     SPIM_Funk_AUX_CONTROL_DP0_REG |= ((uint8)  SPIM_Funk_TX_FIFO_CLR);
 1196              		.loc 1 867 0
 1197 000e 164A     		ldr	r2, .L78
 1198 0010 154B     		ldr	r3, .L78
 1199 0012 1B78     		ldrb	r3, [r3]
 1200 0014 DBB2     		uxtb	r3, r3
 1201 0016 43F00103 		orr	r3, r3, #1
 1202 001a DBB2     		uxtb	r3, r3
 1203 001c 1370     		strb	r3, [r2]
 868:.\Generated_Source\PSoC5/SPIM_Funk.c ****     SPIM_Funk_AUX_CONTROL_DP0_REG &= ((uint8) ~SPIM_Funk_TX_FIFO_CLR);
 1204              		.loc 1 868 0
 1205 001e 124A     		ldr	r2, .L78
 1206 0020 114B     		ldr	r3, .L78
 1207 0022 1B78     		ldrb	r3, [r3]
 1208 0024 DBB2     		uxtb	r3, r3
 1209 0026 23F00103 		bic	r3, r3, #1
 1210 002a DBB2     		uxtb	r3, r3
 1211 002c 1370     		strb	r3, [r2]
 869:.\Generated_Source\PSoC5/SPIM_Funk.c **** 
 870:.\Generated_Source\PSoC5/SPIM_Funk.c ****     #if(SPIM_Funk_USE_SECOND_DATAPATH)
 871:.\Generated_Source\PSoC5/SPIM_Funk.c ****         /* Clear TX FIFO for 2nd Datapath */
 872:.\Generated_Source\PSoC5/SPIM_Funk.c ****         SPIM_Funk_AUX_CONTROL_DP1_REG |= ((uint8)  SPIM_Funk_TX_FIFO_CLR);
 873:.\Generated_Source\PSoC5/SPIM_Funk.c ****         SPIM_Funk_AUX_CONTROL_DP1_REG &= ((uint8) ~SPIM_Funk_TX_FIFO_CLR);
 874:.\Generated_Source\PSoC5/SPIM_Funk.c ****     #endif /* (SPIM_Funk_USE_SECOND_DATAPATH) */
 875:.\Generated_Source\PSoC5/SPIM_Funk.c ****     CyExitCriticalSection(enableInterrupts);
 1212              		.loc 1 875 0
 1213 002e FB79     		ldrb	r3, [r7, #7]	@ zero_extendqisi2
 1214 0030 1846     		mov	r0, r3
 1215 0032 FFF7FEFF 		bl	CyExitCriticalSection
 876:.\Generated_Source\PSoC5/SPIM_Funk.c **** 
 877:.\Generated_Source\PSoC5/SPIM_Funk.c ****     #if(SPIM_Funk_TX_SOFTWARE_BUF_ENABLED)
 878:.\Generated_Source\PSoC5/SPIM_Funk.c ****         /* Disable TX interrupt to protect global veriables */
 879:.\Generated_Source\PSoC5/SPIM_Funk.c ****         SPIM_Funk_DisableTxInt();
 1216              		.loc 1 879 0
 1217 0036 FFF7FEFF 		bl	SPIM_Funk_DisableTxInt
 880:.\Generated_Source\PSoC5/SPIM_Funk.c **** 
 881:.\Generated_Source\PSoC5/SPIM_Funk.c ****         SPIM_Funk_txBufferFull  = 0u;
 1218              		.loc 1 881 0
 1219 003a 0C4B     		ldr	r3, .L78+4
 1220 003c 0022     		movs	r2, #0
 1221 003e 1A70     		strb	r2, [r3]
 882:.\Generated_Source\PSoC5/SPIM_Funk.c ****         SPIM_Funk_txBufferRead  = 0u;
 1222              		.loc 1 882 0
 1223 0040 0B4B     		ldr	r3, .L78+8
 1224 0042 0022     		movs	r2, #0
 1225 0044 1A70     		strb	r2, [r3]
ARM GAS  C:\Users\LUKASC~1\AppData\Local\Temp\ccFLeR0b.s 			page 38


 883:.\Generated_Source\PSoC5/SPIM_Funk.c ****         SPIM_Funk_txBufferWrite = 0u;
 1226              		.loc 1 883 0
 1227 0046 0B4B     		ldr	r3, .L78+12
 1228 0048 0022     		movs	r2, #0
 1229 004a 1A70     		strb	r2, [r3]
 884:.\Generated_Source\PSoC5/SPIM_Funk.c **** 
 885:.\Generated_Source\PSoC5/SPIM_Funk.c ****         /* Buffer is EMPTY: disable TX FIFO NOT FULL interrupt */
 886:.\Generated_Source\PSoC5/SPIM_Funk.c ****         SPIM_Funk_TX_STATUS_MASK_REG &= ((uint8) ~SPIM_Funk_STS_TX_FIFO_NOT_FULL);
 1230              		.loc 1 886 0
 1231 004c 0A4A     		ldr	r2, .L78+16
 1232 004e 0A4B     		ldr	r3, .L78+16
 1233 0050 1B78     		ldrb	r3, [r3]
 1234 0052 DBB2     		uxtb	r3, r3
 1235 0054 23F00403 		bic	r3, r3, #4
 1236 0058 DBB2     		uxtb	r3, r3
 1237 005a 1370     		strb	r3, [r2]
 887:.\Generated_Source\PSoC5/SPIM_Funk.c **** 
 888:.\Generated_Source\PSoC5/SPIM_Funk.c ****         SPIM_Funk_EnableTxInt();
 1238              		.loc 1 888 0
 1239 005c FFF7FEFF 		bl	SPIM_Funk_EnableTxInt
 889:.\Generated_Source\PSoC5/SPIM_Funk.c ****     #endif /* (SPIM_Funk_TX_SOFTWARE_BUF_ENABLED) */
 890:.\Generated_Source\PSoC5/SPIM_Funk.c **** }
 1240              		.loc 1 890 0
 1241 0060 0837     		adds	r7, r7, #8
 1242              		.cfi_def_cfa_offset 8
 1243 0062 BD46     		mov	sp, r7
 1244              		.cfi_def_cfa_register 13
 1245              		@ sp needed
 1246 0064 80BD     		pop	{r7, pc}
 1247              	.L79:
 1248 0066 00BF     		.align	2
 1249              	.L78:
 1250 0068 97640040 		.word	1073767575
 1251 006c 00000000 		.word	SPIM_Funk_txBufferFull
 1252 0070 00000000 		.word	SPIM_Funk_txBufferRead
 1253 0074 00000000 		.word	SPIM_Funk_txBufferWrite
 1254 0078 87640040 		.word	1073767559
 1255              		.cfi_endproc
 1256              	.LFE17:
 1257              		.size	SPIM_Funk_ClearTxBuffer, .-SPIM_Funk_ClearTxBuffer
 1258              		.section	.text.SPIM_Funk_PutArray,"ax",%progbits
 1259              		.align	2
 1260              		.global	SPIM_Funk_PutArray
 1261              		.thumb
 1262              		.thumb_func
 1263              		.type	SPIM_Funk_PutArray, %function
 1264              	SPIM_Funk_PutArray:
 1265              	.LFB18:
 891:.\Generated_Source\PSoC5/SPIM_Funk.c **** 
 892:.\Generated_Source\PSoC5/SPIM_Funk.c **** 
 893:.\Generated_Source\PSoC5/SPIM_Funk.c **** #if(0u != SPIM_Funk_BIDIRECTIONAL_MODE)
 894:.\Generated_Source\PSoC5/SPIM_Funk.c ****     /*******************************************************************************
 895:.\Generated_Source\PSoC5/SPIM_Funk.c ****     * Function Name: SPIM_Funk_TxEnable
 896:.\Generated_Source\PSoC5/SPIM_Funk.c ****     ********************************************************************************
 897:.\Generated_Source\PSoC5/SPIM_Funk.c ****     *
 898:.\Generated_Source\PSoC5/SPIM_Funk.c ****     * Summary:
 899:.\Generated_Source\PSoC5/SPIM_Funk.c ****     *  If the SPI master is configured to use a single bi-directional pin then this
ARM GAS  C:\Users\LUKASC~1\AppData\Local\Temp\ccFLeR0b.s 			page 39


 900:.\Generated_Source\PSoC5/SPIM_Funk.c ****     *  will set the bi-directional pin to transmit.
 901:.\Generated_Source\PSoC5/SPIM_Funk.c ****     *
 902:.\Generated_Source\PSoC5/SPIM_Funk.c ****     * Parameters:
 903:.\Generated_Source\PSoC5/SPIM_Funk.c ****     *  None.
 904:.\Generated_Source\PSoC5/SPIM_Funk.c ****     *
 905:.\Generated_Source\PSoC5/SPIM_Funk.c ****     * Return:
 906:.\Generated_Source\PSoC5/SPIM_Funk.c ****     *  None.
 907:.\Generated_Source\PSoC5/SPIM_Funk.c ****     *
 908:.\Generated_Source\PSoC5/SPIM_Funk.c ****     *******************************************************************************/
 909:.\Generated_Source\PSoC5/SPIM_Funk.c ****     void SPIM_Funk_TxEnable(void) 
 910:.\Generated_Source\PSoC5/SPIM_Funk.c ****     {
 911:.\Generated_Source\PSoC5/SPIM_Funk.c ****         SPIM_Funk_CONTROL_REG |= SPIM_Funk_CTRL_TX_SIGNAL_EN;
 912:.\Generated_Source\PSoC5/SPIM_Funk.c ****     }
 913:.\Generated_Source\PSoC5/SPIM_Funk.c **** 
 914:.\Generated_Source\PSoC5/SPIM_Funk.c **** 
 915:.\Generated_Source\PSoC5/SPIM_Funk.c ****     /*******************************************************************************
 916:.\Generated_Source\PSoC5/SPIM_Funk.c ****     * Function Name: SPIM_Funk_TxDisable
 917:.\Generated_Source\PSoC5/SPIM_Funk.c ****     ********************************************************************************
 918:.\Generated_Source\PSoC5/SPIM_Funk.c ****     *
 919:.\Generated_Source\PSoC5/SPIM_Funk.c ****     * Summary:
 920:.\Generated_Source\PSoC5/SPIM_Funk.c ****     *  If the SPI master is configured to use a single bi-directional pin then this
 921:.\Generated_Source\PSoC5/SPIM_Funk.c ****     *  will set the bi-directional pin to receive.
 922:.\Generated_Source\PSoC5/SPIM_Funk.c ****     *
 923:.\Generated_Source\PSoC5/SPIM_Funk.c ****     * Parameters:
 924:.\Generated_Source\PSoC5/SPIM_Funk.c ****     *  None.
 925:.\Generated_Source\PSoC5/SPIM_Funk.c ****     *
 926:.\Generated_Source\PSoC5/SPIM_Funk.c ****     * Return:
 927:.\Generated_Source\PSoC5/SPIM_Funk.c ****     *  None.
 928:.\Generated_Source\PSoC5/SPIM_Funk.c ****     *
 929:.\Generated_Source\PSoC5/SPIM_Funk.c ****     *******************************************************************************/
 930:.\Generated_Source\PSoC5/SPIM_Funk.c ****     void SPIM_Funk_TxDisable(void) 
 931:.\Generated_Source\PSoC5/SPIM_Funk.c ****     {
 932:.\Generated_Source\PSoC5/SPIM_Funk.c ****         SPIM_Funk_CONTROL_REG &= ((uint8) ~SPIM_Funk_CTRL_TX_SIGNAL_EN);
 933:.\Generated_Source\PSoC5/SPIM_Funk.c ****     }
 934:.\Generated_Source\PSoC5/SPIM_Funk.c **** 
 935:.\Generated_Source\PSoC5/SPIM_Funk.c **** #endif /* (0u != SPIM_Funk_BIDIRECTIONAL_MODE) */
 936:.\Generated_Source\PSoC5/SPIM_Funk.c **** 
 937:.\Generated_Source\PSoC5/SPIM_Funk.c **** 
 938:.\Generated_Source\PSoC5/SPIM_Funk.c **** /*******************************************************************************
 939:.\Generated_Source\PSoC5/SPIM_Funk.c **** * Function Name: SPIM_Funk_PutArray
 940:.\Generated_Source\PSoC5/SPIM_Funk.c **** ********************************************************************************
 941:.\Generated_Source\PSoC5/SPIM_Funk.c **** *
 942:.\Generated_Source\PSoC5/SPIM_Funk.c **** * Summary:
 943:.\Generated_Source\PSoC5/SPIM_Funk.c **** *  Write available data from ROM/RAM to the TX buffer while space is available
 944:.\Generated_Source\PSoC5/SPIM_Funk.c **** *  in the TX buffer. Keep trying until all data is passed to the TX buffer.
 945:.\Generated_Source\PSoC5/SPIM_Funk.c **** *
 946:.\Generated_Source\PSoC5/SPIM_Funk.c **** * Parameters:
 947:.\Generated_Source\PSoC5/SPIM_Funk.c **** *  *buffer: Pointer to the location in RAM containing the data to send
 948:.\Generated_Source\PSoC5/SPIM_Funk.c **** *  byteCount: The number of bytes to move to the transmit buffer.
 949:.\Generated_Source\PSoC5/SPIM_Funk.c **** *
 950:.\Generated_Source\PSoC5/SPIM_Funk.c **** * Return:
 951:.\Generated_Source\PSoC5/SPIM_Funk.c **** *  None.
 952:.\Generated_Source\PSoC5/SPIM_Funk.c **** *
 953:.\Generated_Source\PSoC5/SPIM_Funk.c **** * Side Effects:
 954:.\Generated_Source\PSoC5/SPIM_Funk.c **** *  Will stay in this routine until all data has been sent.  May get locked in
 955:.\Generated_Source\PSoC5/SPIM_Funk.c **** *  this loop if data is not being initiated by the master if there is not
 956:.\Generated_Source\PSoC5/SPIM_Funk.c **** *  enough room in the TX FIFO.
ARM GAS  C:\Users\LUKASC~1\AppData\Local\Temp\ccFLeR0b.s 			page 40


 957:.\Generated_Source\PSoC5/SPIM_Funk.c **** *
 958:.\Generated_Source\PSoC5/SPIM_Funk.c **** * Reentrant:
 959:.\Generated_Source\PSoC5/SPIM_Funk.c **** *  No.
 960:.\Generated_Source\PSoC5/SPIM_Funk.c **** *
 961:.\Generated_Source\PSoC5/SPIM_Funk.c **** *******************************************************************************/
 962:.\Generated_Source\PSoC5/SPIM_Funk.c **** void SPIM_Funk_PutArray(const uint8 buffer[], uint8 byteCount)
 963:.\Generated_Source\PSoC5/SPIM_Funk.c ****                                                                           
 964:.\Generated_Source\PSoC5/SPIM_Funk.c **** {
 1266              		.loc 1 964 0
 1267              		.cfi_startproc
 1268              		@ args = 0, pretend = 0, frame = 16
 1269              		@ frame_needed = 1, uses_anonymous_args = 0
 1270 0000 80B5     		push	{r7, lr}
 1271              		.cfi_def_cfa_offset 8
 1272              		.cfi_offset 7, -8
 1273              		.cfi_offset 14, -4
 1274 0002 84B0     		sub	sp, sp, #16
 1275              		.cfi_def_cfa_offset 24
 1276 0004 00AF     		add	r7, sp, #0
 1277              		.cfi_def_cfa_register 7
 1278 0006 7860     		str	r0, [r7, #4]
 1279 0008 0B46     		mov	r3, r1
 1280 000a FB70     		strb	r3, [r7, #3]
 965:.\Generated_Source\PSoC5/SPIM_Funk.c ****     uint8 bufIndex;
 966:.\Generated_Source\PSoC5/SPIM_Funk.c **** 
 967:.\Generated_Source\PSoC5/SPIM_Funk.c ****     bufIndex = 0u;
 1281              		.loc 1 967 0
 1282 000c 0023     		movs	r3, #0
 1283 000e FB73     		strb	r3, [r7, #15]
 968:.\Generated_Source\PSoC5/SPIM_Funk.c **** 
 969:.\Generated_Source\PSoC5/SPIM_Funk.c ****     while(byteCount > 0u)
 1284              		.loc 1 969 0
 1285 0010 0CE0     		b	.L81
 1286              	.L82:
 970:.\Generated_Source\PSoC5/SPIM_Funk.c ****     {
 971:.\Generated_Source\PSoC5/SPIM_Funk.c ****         SPIM_Funk_WriteTxData(buffer[bufIndex]);
 1287              		.loc 1 971 0
 1288 0012 FB7B     		ldrb	r3, [r7, #15]	@ zero_extendqisi2
 1289 0014 7A68     		ldr	r2, [r7, #4]
 1290 0016 1344     		add	r3, r3, r2
 1291 0018 1B78     		ldrb	r3, [r3]	@ zero_extendqisi2
 1292 001a 1846     		mov	r0, r3
 1293 001c FFF7FEFF 		bl	SPIM_Funk_WriteTxData
 972:.\Generated_Source\PSoC5/SPIM_Funk.c ****         bufIndex++;
 1294              		.loc 1 972 0
 1295 0020 FB7B     		ldrb	r3, [r7, #15]	@ zero_extendqisi2
 1296 0022 0133     		adds	r3, r3, #1
 1297 0024 FB73     		strb	r3, [r7, #15]
 973:.\Generated_Source\PSoC5/SPIM_Funk.c ****         byteCount--;
 1298              		.loc 1 973 0
 1299 0026 FB78     		ldrb	r3, [r7, #3]	@ zero_extendqisi2
 1300 0028 013B     		subs	r3, r3, #1
 1301 002a FB70     		strb	r3, [r7, #3]
 1302              	.L81:
 969:.\Generated_Source\PSoC5/SPIM_Funk.c ****     {
 1303              		.loc 1 969 0
 1304 002c FB78     		ldrb	r3, [r7, #3]	@ zero_extendqisi2
ARM GAS  C:\Users\LUKASC~1\AppData\Local\Temp\ccFLeR0b.s 			page 41


 1305 002e 002B     		cmp	r3, #0
 1306 0030 EFD1     		bne	.L82
 974:.\Generated_Source\PSoC5/SPIM_Funk.c ****     }
 975:.\Generated_Source\PSoC5/SPIM_Funk.c **** }
 1307              		.loc 1 975 0
 1308 0032 1037     		adds	r7, r7, #16
 1309              		.cfi_def_cfa_offset 8
 1310 0034 BD46     		mov	sp, r7
 1311              		.cfi_def_cfa_register 13
 1312              		@ sp needed
 1313 0036 80BD     		pop	{r7, pc}
 1314              		.cfi_endproc
 1315              	.LFE18:
 1316              		.size	SPIM_Funk_PutArray, .-SPIM_Funk_PutArray
 1317              		.section	.text.SPIM_Funk_ClearFIFO,"ax",%progbits
 1318              		.align	2
 1319              		.global	SPIM_Funk_ClearFIFO
 1320              		.thumb
 1321              		.thumb_func
 1322              		.type	SPIM_Funk_ClearFIFO, %function
 1323              	SPIM_Funk_ClearFIFO:
 1324              	.LFB19:
 976:.\Generated_Source\PSoC5/SPIM_Funk.c **** 
 977:.\Generated_Source\PSoC5/SPIM_Funk.c **** 
 978:.\Generated_Source\PSoC5/SPIM_Funk.c **** /*******************************************************************************
 979:.\Generated_Source\PSoC5/SPIM_Funk.c **** * Function Name: SPIM_Funk_ClearFIFO
 980:.\Generated_Source\PSoC5/SPIM_Funk.c **** ********************************************************************************
 981:.\Generated_Source\PSoC5/SPIM_Funk.c **** *
 982:.\Generated_Source\PSoC5/SPIM_Funk.c **** * Summary:
 983:.\Generated_Source\PSoC5/SPIM_Funk.c **** *  Clear the RX and TX FIFO's of all data for a fresh start.
 984:.\Generated_Source\PSoC5/SPIM_Funk.c **** *
 985:.\Generated_Source\PSoC5/SPIM_Funk.c **** * Parameters:
 986:.\Generated_Source\PSoC5/SPIM_Funk.c **** *  None.
 987:.\Generated_Source\PSoC5/SPIM_Funk.c **** *
 988:.\Generated_Source\PSoC5/SPIM_Funk.c **** * Return:
 989:.\Generated_Source\PSoC5/SPIM_Funk.c **** *  None.
 990:.\Generated_Source\PSoC5/SPIM_Funk.c **** *
 991:.\Generated_Source\PSoC5/SPIM_Funk.c **** * Side Effects:
 992:.\Generated_Source\PSoC5/SPIM_Funk.c **** *  Clear status register of the component.
 993:.\Generated_Source\PSoC5/SPIM_Funk.c **** *
 994:.\Generated_Source\PSoC5/SPIM_Funk.c **** *******************************************************************************/
 995:.\Generated_Source\PSoC5/SPIM_Funk.c **** void SPIM_Funk_ClearFIFO(void) 
 996:.\Generated_Source\PSoC5/SPIM_Funk.c **** {
 1325              		.loc 1 996 0
 1326              		.cfi_startproc
 1327              		@ args = 0, pretend = 0, frame = 8
 1328              		@ frame_needed = 1, uses_anonymous_args = 0
 1329 0000 80B5     		push	{r7, lr}
 1330              		.cfi_def_cfa_offset 8
 1331              		.cfi_offset 7, -8
 1332              		.cfi_offset 14, -4
 1333 0002 82B0     		sub	sp, sp, #8
 1334              		.cfi_def_cfa_offset 16
 1335 0004 00AF     		add	r7, sp, #0
 1336              		.cfi_def_cfa_register 7
 997:.\Generated_Source\PSoC5/SPIM_Funk.c ****     uint8 enableInterrupts;
 998:.\Generated_Source\PSoC5/SPIM_Funk.c **** 
ARM GAS  C:\Users\LUKASC~1\AppData\Local\Temp\ccFLeR0b.s 			page 42


 999:.\Generated_Source\PSoC5/SPIM_Funk.c ****     /* Clear Hardware RX FIFO */
1000:.\Generated_Source\PSoC5/SPIM_Funk.c ****     while(0u !=(SPIM_Funk_RX_STATUS_REG & SPIM_Funk_STS_RX_FIFO_NOT_EMPTY))
 1337              		.loc 1 1000 0
 1338 0006 01E0     		b	.L84
 1339              	.L85:
1001:.\Generated_Source\PSoC5/SPIM_Funk.c ****     {
1002:.\Generated_Source\PSoC5/SPIM_Funk.c ****         (void) CY_GET_REG8(SPIM_Funk_RXDATA_PTR);
 1340              		.loc 1 1002 0
 1341 0008 114B     		ldr	r3, .L86
 1342 000a 1B78     		ldrb	r3, [r3]
 1343              	.L84:
1000:.\Generated_Source\PSoC5/SPIM_Funk.c ****     {
 1344              		.loc 1 1000 0
 1345 000c 114B     		ldr	r3, .L86+4
 1346 000e 1B78     		ldrb	r3, [r3]
 1347 0010 DBB2     		uxtb	r3, r3
 1348 0012 03F02003 		and	r3, r3, #32
 1349 0016 002B     		cmp	r3, #0
 1350 0018 F6D1     		bne	.L85
1003:.\Generated_Source\PSoC5/SPIM_Funk.c ****     }
1004:.\Generated_Source\PSoC5/SPIM_Funk.c **** 
1005:.\Generated_Source\PSoC5/SPIM_Funk.c ****     enableInterrupts = CyEnterCriticalSection();
 1351              		.loc 1 1005 0
 1352 001a FFF7FEFF 		bl	CyEnterCriticalSection
 1353 001e 0346     		mov	r3, r0
 1354 0020 FB71     		strb	r3, [r7, #7]
1006:.\Generated_Source\PSoC5/SPIM_Funk.c ****     /* Clear TX FIFO */
1007:.\Generated_Source\PSoC5/SPIM_Funk.c ****     SPIM_Funk_AUX_CONTROL_DP0_REG |= ((uint8)  SPIM_Funk_TX_FIFO_CLR);
 1355              		.loc 1 1007 0
 1356 0022 0D4A     		ldr	r2, .L86+8
 1357 0024 0C4B     		ldr	r3, .L86+8
 1358 0026 1B78     		ldrb	r3, [r3]
 1359 0028 DBB2     		uxtb	r3, r3
 1360 002a 43F00103 		orr	r3, r3, #1
 1361 002e DBB2     		uxtb	r3, r3
 1362 0030 1370     		strb	r3, [r2]
1008:.\Generated_Source\PSoC5/SPIM_Funk.c ****     SPIM_Funk_AUX_CONTROL_DP0_REG &= ((uint8) ~SPIM_Funk_TX_FIFO_CLR);
 1363              		.loc 1 1008 0
 1364 0032 094A     		ldr	r2, .L86+8
 1365 0034 084B     		ldr	r3, .L86+8
 1366 0036 1B78     		ldrb	r3, [r3]
 1367 0038 DBB2     		uxtb	r3, r3
 1368 003a 23F00103 		bic	r3, r3, #1
 1369 003e DBB2     		uxtb	r3, r3
 1370 0040 1370     		strb	r3, [r2]
1009:.\Generated_Source\PSoC5/SPIM_Funk.c **** 
1010:.\Generated_Source\PSoC5/SPIM_Funk.c ****     #if(SPIM_Funk_USE_SECOND_DATAPATH)
1011:.\Generated_Source\PSoC5/SPIM_Funk.c ****         /* Clear TX FIFO for 2nd Datapath */
1012:.\Generated_Source\PSoC5/SPIM_Funk.c ****         SPIM_Funk_AUX_CONTROL_DP1_REG |= ((uint8)  SPIM_Funk_TX_FIFO_CLR);
1013:.\Generated_Source\PSoC5/SPIM_Funk.c ****         SPIM_Funk_AUX_CONTROL_DP1_REG &= ((uint8) ~SPIM_Funk_TX_FIFO_CLR);
1014:.\Generated_Source\PSoC5/SPIM_Funk.c ****     #endif /* (SPIM_Funk_USE_SECOND_DATAPATH) */
1015:.\Generated_Source\PSoC5/SPIM_Funk.c ****     CyExitCriticalSection(enableInterrupts);
 1371              		.loc 1 1015 0
 1372 0042 FB79     		ldrb	r3, [r7, #7]	@ zero_extendqisi2
 1373 0044 1846     		mov	r0, r3
 1374 0046 FFF7FEFF 		bl	CyExitCriticalSection
1016:.\Generated_Source\PSoC5/SPIM_Funk.c **** }
ARM GAS  C:\Users\LUKASC~1\AppData\Local\Temp\ccFLeR0b.s 			page 43


 1375              		.loc 1 1016 0
 1376 004a 0837     		adds	r7, r7, #8
 1377              		.cfi_def_cfa_offset 8
 1378 004c BD46     		mov	sp, r7
 1379              		.cfi_def_cfa_register 13
 1380              		@ sp needed
 1381 004e 80BD     		pop	{r7, pc}
 1382              	.L87:
 1383              		.align	2
 1384              	.L86:
 1385 0050 57640040 		.word	1073767511
 1386 0054 67650040 		.word	1073767783
 1387 0058 97640040 		.word	1073767575
 1388              		.cfi_endproc
 1389              	.LFE19:
 1390              		.size	SPIM_Funk_ClearFIFO, .-SPIM_Funk_ClearFIFO
 1391              		.section	.text.SPIM_Funk_EnableInt,"ax",%progbits
 1392              		.align	2
 1393              		.global	SPIM_Funk_EnableInt
 1394              		.thumb
 1395              		.thumb_func
 1396              		.type	SPIM_Funk_EnableInt, %function
 1397              	SPIM_Funk_EnableInt:
 1398              	.LFB20:
1017:.\Generated_Source\PSoC5/SPIM_Funk.c **** 
1018:.\Generated_Source\PSoC5/SPIM_Funk.c **** 
1019:.\Generated_Source\PSoC5/SPIM_Funk.c **** /* Following functions are for version Compatibility, they are obsolete.
1020:.\Generated_Source\PSoC5/SPIM_Funk.c **** *  Please do not use it in new projects.
1021:.\Generated_Source\PSoC5/SPIM_Funk.c **** */
1022:.\Generated_Source\PSoC5/SPIM_Funk.c **** 
1023:.\Generated_Source\PSoC5/SPIM_Funk.c **** 
1024:.\Generated_Source\PSoC5/SPIM_Funk.c **** /*******************************************************************************
1025:.\Generated_Source\PSoC5/SPIM_Funk.c **** * Function Name: SPIM_Funk_EnableInt
1026:.\Generated_Source\PSoC5/SPIM_Funk.c **** ********************************************************************************
1027:.\Generated_Source\PSoC5/SPIM_Funk.c **** *
1028:.\Generated_Source\PSoC5/SPIM_Funk.c **** * Summary:
1029:.\Generated_Source\PSoC5/SPIM_Funk.c **** *  Enable internal interrupt generation.
1030:.\Generated_Source\PSoC5/SPIM_Funk.c **** *
1031:.\Generated_Source\PSoC5/SPIM_Funk.c **** * Parameters:
1032:.\Generated_Source\PSoC5/SPIM_Funk.c **** *  None.
1033:.\Generated_Source\PSoC5/SPIM_Funk.c **** *
1034:.\Generated_Source\PSoC5/SPIM_Funk.c **** * Return:
1035:.\Generated_Source\PSoC5/SPIM_Funk.c **** *  None.
1036:.\Generated_Source\PSoC5/SPIM_Funk.c **** *
1037:.\Generated_Source\PSoC5/SPIM_Funk.c **** * Theory:
1038:.\Generated_Source\PSoC5/SPIM_Funk.c **** *  Enable the internal interrupt output -or- the interrupt component itself.
1039:.\Generated_Source\PSoC5/SPIM_Funk.c **** *
1040:.\Generated_Source\PSoC5/SPIM_Funk.c **** *******************************************************************************/
1041:.\Generated_Source\PSoC5/SPIM_Funk.c **** void SPIM_Funk_EnableInt(void) 
1042:.\Generated_Source\PSoC5/SPIM_Funk.c **** {
 1399              		.loc 1 1042 0
 1400              		.cfi_startproc
 1401              		@ args = 0, pretend = 0, frame = 0
 1402              		@ frame_needed = 1, uses_anonymous_args = 0
 1403 0000 80B5     		push	{r7, lr}
 1404              		.cfi_def_cfa_offset 8
 1405              		.cfi_offset 7, -8
ARM GAS  C:\Users\LUKASC~1\AppData\Local\Temp\ccFLeR0b.s 			page 44


 1406              		.cfi_offset 14, -4
 1407 0002 00AF     		add	r7, sp, #0
 1408              		.cfi_def_cfa_register 7
1043:.\Generated_Source\PSoC5/SPIM_Funk.c ****     SPIM_Funk_EnableRxInt();
 1409              		.loc 1 1043 0
 1410 0004 FFF7FEFF 		bl	SPIM_Funk_EnableRxInt
1044:.\Generated_Source\PSoC5/SPIM_Funk.c ****     SPIM_Funk_EnableTxInt();
 1411              		.loc 1 1044 0
 1412 0008 FFF7FEFF 		bl	SPIM_Funk_EnableTxInt
1045:.\Generated_Source\PSoC5/SPIM_Funk.c **** }
 1413              		.loc 1 1045 0
 1414 000c 80BD     		pop	{r7, pc}
 1415              		.cfi_endproc
 1416              	.LFE20:
 1417              		.size	SPIM_Funk_EnableInt, .-SPIM_Funk_EnableInt
 1418 000e 00BF     		.section	.text.SPIM_Funk_DisableInt,"ax",%progbits
 1419              		.align	2
 1420              		.global	SPIM_Funk_DisableInt
 1421              		.thumb
 1422              		.thumb_func
 1423              		.type	SPIM_Funk_DisableInt, %function
 1424              	SPIM_Funk_DisableInt:
 1425              	.LFB21:
1046:.\Generated_Source\PSoC5/SPIM_Funk.c **** 
1047:.\Generated_Source\PSoC5/SPIM_Funk.c **** 
1048:.\Generated_Source\PSoC5/SPIM_Funk.c **** /*******************************************************************************
1049:.\Generated_Source\PSoC5/SPIM_Funk.c **** * Function Name: SPIM_Funk_DisableInt
1050:.\Generated_Source\PSoC5/SPIM_Funk.c **** ********************************************************************************
1051:.\Generated_Source\PSoC5/SPIM_Funk.c **** *
1052:.\Generated_Source\PSoC5/SPIM_Funk.c **** * Summary:
1053:.\Generated_Source\PSoC5/SPIM_Funk.c **** *  Disable internal interrupt generation.
1054:.\Generated_Source\PSoC5/SPIM_Funk.c **** *
1055:.\Generated_Source\PSoC5/SPIM_Funk.c **** * Parameters:
1056:.\Generated_Source\PSoC5/SPIM_Funk.c **** *  None.
1057:.\Generated_Source\PSoC5/SPIM_Funk.c **** *
1058:.\Generated_Source\PSoC5/SPIM_Funk.c **** * Return:
1059:.\Generated_Source\PSoC5/SPIM_Funk.c **** *  None.
1060:.\Generated_Source\PSoC5/SPIM_Funk.c **** *
1061:.\Generated_Source\PSoC5/SPIM_Funk.c **** * Theory:
1062:.\Generated_Source\PSoC5/SPIM_Funk.c **** *  Disable the internal interrupt output -or- the interrupt component itself.
1063:.\Generated_Source\PSoC5/SPIM_Funk.c **** *
1064:.\Generated_Source\PSoC5/SPIM_Funk.c **** *******************************************************************************/
1065:.\Generated_Source\PSoC5/SPIM_Funk.c **** void SPIM_Funk_DisableInt(void) 
1066:.\Generated_Source\PSoC5/SPIM_Funk.c **** {
 1426              		.loc 1 1066 0
 1427              		.cfi_startproc
 1428              		@ args = 0, pretend = 0, frame = 0
 1429              		@ frame_needed = 1, uses_anonymous_args = 0
 1430 0000 80B5     		push	{r7, lr}
 1431              		.cfi_def_cfa_offset 8
 1432              		.cfi_offset 7, -8
 1433              		.cfi_offset 14, -4
 1434 0002 00AF     		add	r7, sp, #0
 1435              		.cfi_def_cfa_register 7
1067:.\Generated_Source\PSoC5/SPIM_Funk.c ****     SPIM_Funk_DisableTxInt();
 1436              		.loc 1 1067 0
 1437 0004 FFF7FEFF 		bl	SPIM_Funk_DisableTxInt
ARM GAS  C:\Users\LUKASC~1\AppData\Local\Temp\ccFLeR0b.s 			page 45


1068:.\Generated_Source\PSoC5/SPIM_Funk.c ****     SPIM_Funk_DisableRxInt();
 1438              		.loc 1 1068 0
 1439 0008 FFF7FEFF 		bl	SPIM_Funk_DisableRxInt
1069:.\Generated_Source\PSoC5/SPIM_Funk.c **** }
 1440              		.loc 1 1069 0
 1441 000c 80BD     		pop	{r7, pc}
 1442              		.cfi_endproc
 1443              	.LFE21:
 1444              		.size	SPIM_Funk_DisableInt, .-SPIM_Funk_DisableInt
 1445 000e 00BF     		.section	.text.SPIM_Funk_SetInterruptMode,"ax",%progbits
 1446              		.align	2
 1447              		.global	SPIM_Funk_SetInterruptMode
 1448              		.thumb
 1449              		.thumb_func
 1450              		.type	SPIM_Funk_SetInterruptMode, %function
 1451              	SPIM_Funk_SetInterruptMode:
 1452              	.LFB22:
1070:.\Generated_Source\PSoC5/SPIM_Funk.c **** 
1071:.\Generated_Source\PSoC5/SPIM_Funk.c **** 
1072:.\Generated_Source\PSoC5/SPIM_Funk.c **** /*******************************************************************************
1073:.\Generated_Source\PSoC5/SPIM_Funk.c **** * Function Name: SPIM_Funk_SetInterruptMode
1074:.\Generated_Source\PSoC5/SPIM_Funk.c **** ********************************************************************************
1075:.\Generated_Source\PSoC5/SPIM_Funk.c **** *
1076:.\Generated_Source\PSoC5/SPIM_Funk.c **** * Summary:
1077:.\Generated_Source\PSoC5/SPIM_Funk.c **** *  Configure which status bits trigger an interrupt event.
1078:.\Generated_Source\PSoC5/SPIM_Funk.c **** *
1079:.\Generated_Source\PSoC5/SPIM_Funk.c **** * Parameters:
1080:.\Generated_Source\PSoC5/SPIM_Funk.c **** *  intSrc: An or'd combination of the desired status bit masks (defined in the
1081:.\Generated_Source\PSoC5/SPIM_Funk.c **** *  header file).
1082:.\Generated_Source\PSoC5/SPIM_Funk.c **** *
1083:.\Generated_Source\PSoC5/SPIM_Funk.c **** * Return:
1084:.\Generated_Source\PSoC5/SPIM_Funk.c **** *  None.
1085:.\Generated_Source\PSoC5/SPIM_Funk.c **** *
1086:.\Generated_Source\PSoC5/SPIM_Funk.c **** * Theory:
1087:.\Generated_Source\PSoC5/SPIM_Funk.c **** *  Enables the output of specific status bits to the interrupt controller.
1088:.\Generated_Source\PSoC5/SPIM_Funk.c **** *
1089:.\Generated_Source\PSoC5/SPIM_Funk.c **** *******************************************************************************/
1090:.\Generated_Source\PSoC5/SPIM_Funk.c **** void SPIM_Funk_SetInterruptMode(uint8 intSrc) 
1091:.\Generated_Source\PSoC5/SPIM_Funk.c **** {
 1453              		.loc 1 1091 0
 1454              		.cfi_startproc
 1455              		@ args = 0, pretend = 0, frame = 8
 1456              		@ frame_needed = 1, uses_anonymous_args = 0
 1457              		@ link register save eliminated.
 1458 0000 80B4     		push	{r7}
 1459              		.cfi_def_cfa_offset 4
 1460              		.cfi_offset 7, -4
 1461 0002 83B0     		sub	sp, sp, #12
 1462              		.cfi_def_cfa_offset 16
 1463 0004 00AF     		add	r7, sp, #0
 1464              		.cfi_def_cfa_register 7
 1465 0006 0346     		mov	r3, r0
 1466 0008 FB71     		strb	r3, [r7, #7]
1092:.\Generated_Source\PSoC5/SPIM_Funk.c ****     SPIM_Funk_TX_STATUS_MASK_REG  = (intSrc & ((uint8) ~SPIM_Funk_STS_SPI_IDLE));
 1467              		.loc 1 1092 0
 1468 000a 074A     		ldr	r2, .L91
 1469 000c FB79     		ldrb	r3, [r7, #7]
ARM GAS  C:\Users\LUKASC~1\AppData\Local\Temp\ccFLeR0b.s 			page 46


 1470 000e 23F01003 		bic	r3, r3, #16
 1471 0012 DBB2     		uxtb	r3, r3
 1472 0014 1370     		strb	r3, [r2]
1093:.\Generated_Source\PSoC5/SPIM_Funk.c ****     SPIM_Funk_RX_STATUS_MASK_REG  =  intSrc;
 1473              		.loc 1 1093 0
 1474 0016 054A     		ldr	r2, .L91+4
 1475 0018 FB79     		ldrb	r3, [r7, #7]
 1476 001a 1370     		strb	r3, [r2]
1094:.\Generated_Source\PSoC5/SPIM_Funk.c **** }
 1477              		.loc 1 1094 0
 1478 001c 0C37     		adds	r7, r7, #12
 1479              		.cfi_def_cfa_offset 4
 1480 001e BD46     		mov	sp, r7
 1481              		.cfi_def_cfa_register 13
 1482              		@ sp needed
 1483 0020 5DF8047B 		ldr	r7, [sp], #4
 1484              		.cfi_restore 7
 1485              		.cfi_def_cfa_offset 0
 1486 0024 7047     		bx	lr
 1487              	.L92:
 1488 0026 00BF     		.align	2
 1489              	.L91:
 1490 0028 87640040 		.word	1073767559
 1491 002c 87650040 		.word	1073767815
 1492              		.cfi_endproc
 1493              	.LFE22:
 1494              		.size	SPIM_Funk_SetInterruptMode, .-SPIM_Funk_SetInterruptMode
 1495              		.section	.text.SPIM_Funk_ReadStatus,"ax",%progbits
 1496              		.align	2
 1497              		.global	SPIM_Funk_ReadStatus
 1498              		.thumb
 1499              		.thumb_func
 1500              		.type	SPIM_Funk_ReadStatus, %function
 1501              	SPIM_Funk_ReadStatus:
 1502              	.LFB23:
1095:.\Generated_Source\PSoC5/SPIM_Funk.c **** 
1096:.\Generated_Source\PSoC5/SPIM_Funk.c **** 
1097:.\Generated_Source\PSoC5/SPIM_Funk.c **** /*******************************************************************************
1098:.\Generated_Source\PSoC5/SPIM_Funk.c **** * Function Name: SPIM_Funk_ReadStatus
1099:.\Generated_Source\PSoC5/SPIM_Funk.c **** ********************************************************************************
1100:.\Generated_Source\PSoC5/SPIM_Funk.c **** *
1101:.\Generated_Source\PSoC5/SPIM_Funk.c **** * Summary:
1102:.\Generated_Source\PSoC5/SPIM_Funk.c **** *  Read the status register for the component.
1103:.\Generated_Source\PSoC5/SPIM_Funk.c **** *
1104:.\Generated_Source\PSoC5/SPIM_Funk.c **** * Parameters:
1105:.\Generated_Source\PSoC5/SPIM_Funk.c **** *  None.
1106:.\Generated_Source\PSoC5/SPIM_Funk.c **** *
1107:.\Generated_Source\PSoC5/SPIM_Funk.c **** * Return:
1108:.\Generated_Source\PSoC5/SPIM_Funk.c **** *  Contents of the status register.
1109:.\Generated_Source\PSoC5/SPIM_Funk.c **** *
1110:.\Generated_Source\PSoC5/SPIM_Funk.c **** * Global variables:
1111:.\Generated_Source\PSoC5/SPIM_Funk.c **** *  SPIM_Funk_swStatus - used to store in software status register,
1112:.\Generated_Source\PSoC5/SPIM_Funk.c **** *  modified every function call - resets to zero.
1113:.\Generated_Source\PSoC5/SPIM_Funk.c **** *
1114:.\Generated_Source\PSoC5/SPIM_Funk.c **** * Theory:
1115:.\Generated_Source\PSoC5/SPIM_Funk.c **** *  Allows the user and the API to read the status register for error detection
1116:.\Generated_Source\PSoC5/SPIM_Funk.c **** *  and flow control.
ARM GAS  C:\Users\LUKASC~1\AppData\Local\Temp\ccFLeR0b.s 			page 47


1117:.\Generated_Source\PSoC5/SPIM_Funk.c **** *
1118:.\Generated_Source\PSoC5/SPIM_Funk.c **** * Side Effects:
1119:.\Generated_Source\PSoC5/SPIM_Funk.c **** *  Clear status register of the component.
1120:.\Generated_Source\PSoC5/SPIM_Funk.c **** *
1121:.\Generated_Source\PSoC5/SPIM_Funk.c **** * Reentrant:
1122:.\Generated_Source\PSoC5/SPIM_Funk.c **** *  No.
1123:.\Generated_Source\PSoC5/SPIM_Funk.c **** *
1124:.\Generated_Source\PSoC5/SPIM_Funk.c **** *******************************************************************************/
1125:.\Generated_Source\PSoC5/SPIM_Funk.c **** uint8 SPIM_Funk_ReadStatus(void) 
1126:.\Generated_Source\PSoC5/SPIM_Funk.c **** {
 1503              		.loc 1 1126 0
 1504              		.cfi_startproc
 1505              		@ args = 0, pretend = 0, frame = 8
 1506              		@ frame_needed = 1, uses_anonymous_args = 0
 1507 0000 80B5     		push	{r7, lr}
 1508              		.cfi_def_cfa_offset 8
 1509              		.cfi_offset 7, -8
 1510              		.cfi_offset 14, -4
 1511 0002 82B0     		sub	sp, sp, #8
 1512              		.cfi_def_cfa_offset 16
 1513 0004 00AF     		add	r7, sp, #0
 1514              		.cfi_def_cfa_register 7
1127:.\Generated_Source\PSoC5/SPIM_Funk.c ****     uint8 tmpStatus;
1128:.\Generated_Source\PSoC5/SPIM_Funk.c **** 
1129:.\Generated_Source\PSoC5/SPIM_Funk.c ****     #if(SPIM_Funk_TX_SOFTWARE_BUF_ENABLED || SPIM_Funk_RX_SOFTWARE_BUF_ENABLED)
1130:.\Generated_Source\PSoC5/SPIM_Funk.c **** 
1131:.\Generated_Source\PSoC5/SPIM_Funk.c ****         SPIM_Funk_DisableInt();
 1515              		.loc 1 1131 0
 1516 0006 FFF7FEFF 		bl	SPIM_Funk_DisableInt
1132:.\Generated_Source\PSoC5/SPIM_Funk.c **** 
1133:.\Generated_Source\PSoC5/SPIM_Funk.c ****         tmpStatus  = SPIM_Funk_GET_STATUS_RX(SPIM_Funk_swStatusRx);
 1517              		.loc 1 1133 0
 1518 000a 154B     		ldr	r3, .L95
 1519 000c 1B78     		ldrb	r3, [r3]
 1520 000e DAB2     		uxtb	r2, r3
 1521 0010 144B     		ldr	r3, .L95+4
 1522 0012 1B78     		ldrb	r3, [r3]
 1523 0014 DBB2     		uxtb	r3, r3
 1524 0016 03F04003 		and	r3, r3, #64
 1525 001a DBB2     		uxtb	r3, r3
 1526 001c 1343     		orrs	r3, r3, r2
 1527 001e FB71     		strb	r3, [r7, #7]
1134:.\Generated_Source\PSoC5/SPIM_Funk.c ****         tmpStatus |= SPIM_Funk_GET_STATUS_TX(SPIM_Funk_swStatusTx);
 1528              		.loc 1 1134 0
 1529 0020 114B     		ldr	r3, .L95+8
 1530 0022 1B78     		ldrb	r3, [r3]
 1531 0024 DAB2     		uxtb	r2, r3
 1532 0026 114B     		ldr	r3, .L95+12
 1533 0028 1B78     		ldrb	r3, [r3]
 1534 002a DBB2     		uxtb	r3, r3
 1535 002c 03F00903 		and	r3, r3, #9
 1536 0030 DBB2     		uxtb	r3, r3
 1537 0032 1343     		orrs	r3, r3, r2
 1538 0034 DAB2     		uxtb	r2, r3
 1539 0036 FB79     		ldrb	r3, [r7, #7]
 1540 0038 1343     		orrs	r3, r3, r2
 1541 003a FB71     		strb	r3, [r7, #7]
ARM GAS  C:\Users\LUKASC~1\AppData\Local\Temp\ccFLeR0b.s 			page 48


1135:.\Generated_Source\PSoC5/SPIM_Funk.c ****         tmpStatus &= ((uint8) ~SPIM_Funk_STS_SPI_IDLE);
 1542              		.loc 1 1135 0
 1543 003c FB79     		ldrb	r3, [r7, #7]
 1544 003e 23F01003 		bic	r3, r3, #16
 1545 0042 FB71     		strb	r3, [r7, #7]
1136:.\Generated_Source\PSoC5/SPIM_Funk.c **** 
1137:.\Generated_Source\PSoC5/SPIM_Funk.c ****         SPIM_Funk_swStatusTx = 0u;
 1546              		.loc 1 1137 0
 1547 0044 094B     		ldr	r3, .L95+12
 1548 0046 0022     		movs	r2, #0
 1549 0048 1A70     		strb	r2, [r3]
1138:.\Generated_Source\PSoC5/SPIM_Funk.c ****         SPIM_Funk_swStatusRx = 0u;
 1550              		.loc 1 1138 0
 1551 004a 064B     		ldr	r3, .L95+4
 1552 004c 0022     		movs	r2, #0
 1553 004e 1A70     		strb	r2, [r3]
1139:.\Generated_Source\PSoC5/SPIM_Funk.c **** 
1140:.\Generated_Source\PSoC5/SPIM_Funk.c ****         SPIM_Funk_EnableInt();
 1554              		.loc 1 1140 0
 1555 0050 FFF7FEFF 		bl	SPIM_Funk_EnableInt
1141:.\Generated_Source\PSoC5/SPIM_Funk.c **** 
1142:.\Generated_Source\PSoC5/SPIM_Funk.c ****     #else
1143:.\Generated_Source\PSoC5/SPIM_Funk.c **** 
1144:.\Generated_Source\PSoC5/SPIM_Funk.c ****         tmpStatus  = SPIM_Funk_RX_STATUS_REG;
1145:.\Generated_Source\PSoC5/SPIM_Funk.c ****         tmpStatus |= SPIM_Funk_TX_STATUS_REG;
1146:.\Generated_Source\PSoC5/SPIM_Funk.c ****         tmpStatus &= ((uint8) ~SPIM_Funk_STS_SPI_IDLE);
1147:.\Generated_Source\PSoC5/SPIM_Funk.c **** 
1148:.\Generated_Source\PSoC5/SPIM_Funk.c ****     #endif /* (SPIM_Funk_TX_SOFTWARE_BUF_ENABLED || SPIM_Funk_RX_SOFTWARE_BUF_ENABLED) */
1149:.\Generated_Source\PSoC5/SPIM_Funk.c **** 
1150:.\Generated_Source\PSoC5/SPIM_Funk.c ****     return(tmpStatus);
 1556              		.loc 1 1150 0
 1557 0054 FB79     		ldrb	r3, [r7, #7]	@ zero_extendqisi2
1151:.\Generated_Source\PSoC5/SPIM_Funk.c **** }
 1558              		.loc 1 1151 0
 1559 0056 1846     		mov	r0, r3
 1560 0058 0837     		adds	r7, r7, #8
 1561              		.cfi_def_cfa_offset 8
 1562 005a BD46     		mov	sp, r7
 1563              		.cfi_def_cfa_register 13
 1564              		@ sp needed
 1565 005c 80BD     		pop	{r7, pc}
 1566              	.L96:
 1567 005e 00BF     		.align	2
 1568              	.L95:
 1569 0060 67650040 		.word	1073767783
 1570 0064 00000000 		.word	SPIM_Funk_swStatusRx
 1571 0068 67640040 		.word	1073767527
 1572 006c 00000000 		.word	SPIM_Funk_swStatusTx
 1573              		.cfi_endproc
 1574              	.LFE23:
 1575              		.size	SPIM_Funk_ReadStatus, .-SPIM_Funk_ReadStatus
 1576              		.text
 1577              	.Letext0:
 1578              		.file 2 ".\\Generated_Source\\PSoC5\\cytypes.h"