ARM GAS  C:\Users\LUKASC~1\AppData\Local\Temp\ccIduA5j.s 			page 1


   1              		.syntax unified
   2              		.cpu cortex-m3
   3              		.fpu softvfp
   4              		.eabi_attribute 20, 1
   5              		.eabi_attribute 21, 1
   6              		.eabi_attribute 23, 3
   7              		.eabi_attribute 24, 1
   8              		.eabi_attribute 25, 1
   9              		.eabi_attribute 26, 1
  10              		.eabi_attribute 30, 6
  11              		.eabi_attribute 34, 1
  12              		.eabi_attribute 18, 4
  13              		.thumb
  14              		.file	"SPIM_INT.c"
  15              		.text
  16              	.Ltext0:
  17              		.cfi_sections	.debug_frame
  18              		.section	.text.SPIM_TX_ISR,"ax",%progbits
  19              		.align	2
  20              		.global	SPIM_TX_ISR
  21              		.thumb
  22              		.thumb_func
  23              		.type	SPIM_TX_ISR, %function
  24              	SPIM_TX_ISR:
  25              	.LFB0:
  26              		.file 1 ".\\Generated_Source\\PSoC5\\SPIM_INT.c"
   1:.\Generated_Source\PSoC5/SPIM_INT.c **** /*******************************************************************************
   2:.\Generated_Source\PSoC5/SPIM_INT.c **** * File Name: SPIM_INT.c
   3:.\Generated_Source\PSoC5/SPIM_INT.c **** * Version 2.50
   4:.\Generated_Source\PSoC5/SPIM_INT.c **** *
   5:.\Generated_Source\PSoC5/SPIM_INT.c **** * Description:
   6:.\Generated_Source\PSoC5/SPIM_INT.c **** *  This file provides all Interrupt Service Routine (ISR) for the SPI Master
   7:.\Generated_Source\PSoC5/SPIM_INT.c **** *  component.
   8:.\Generated_Source\PSoC5/SPIM_INT.c **** *
   9:.\Generated_Source\PSoC5/SPIM_INT.c **** * Note:
  10:.\Generated_Source\PSoC5/SPIM_INT.c **** *  None.
  11:.\Generated_Source\PSoC5/SPIM_INT.c **** *
  12:.\Generated_Source\PSoC5/SPIM_INT.c **** ********************************************************************************
  13:.\Generated_Source\PSoC5/SPIM_INT.c **** * Copyright 2008-2015, Cypress Semiconductor Corporation.  All rights reserved.
  14:.\Generated_Source\PSoC5/SPIM_INT.c **** * You may use this file only in accordance with the license, terms, conditions,
  15:.\Generated_Source\PSoC5/SPIM_INT.c **** * disclaimers, and limitations in the end user license agreement accompanying
  16:.\Generated_Source\PSoC5/SPIM_INT.c **** * the software package with which this file was provided.
  17:.\Generated_Source\PSoC5/SPIM_INT.c **** *******************************************************************************/
  18:.\Generated_Source\PSoC5/SPIM_INT.c **** 
  19:.\Generated_Source\PSoC5/SPIM_INT.c **** #include "SPIM_PVT.h"
  20:.\Generated_Source\PSoC5/SPIM_INT.c **** #include "cyapicallbacks.h"
  21:.\Generated_Source\PSoC5/SPIM_INT.c **** 
  22:.\Generated_Source\PSoC5/SPIM_INT.c **** /* User code required at start of ISR */
  23:.\Generated_Source\PSoC5/SPIM_INT.c **** /* `#START SPIM_ISR_START_DEF` */
  24:.\Generated_Source\PSoC5/SPIM_INT.c **** 
  25:.\Generated_Source\PSoC5/SPIM_INT.c **** /* `#END` */
  26:.\Generated_Source\PSoC5/SPIM_INT.c **** 
  27:.\Generated_Source\PSoC5/SPIM_INT.c **** 
  28:.\Generated_Source\PSoC5/SPIM_INT.c **** /*******************************************************************************
  29:.\Generated_Source\PSoC5/SPIM_INT.c **** * Function Name: SPIM_TX_ISR
  30:.\Generated_Source\PSoC5/SPIM_INT.c **** ********************************************************************************
  31:.\Generated_Source\PSoC5/SPIM_INT.c **** *
ARM GAS  C:\Users\LUKASC~1\AppData\Local\Temp\ccIduA5j.s 			page 2


  32:.\Generated_Source\PSoC5/SPIM_INT.c **** * Summary:
  33:.\Generated_Source\PSoC5/SPIM_INT.c **** *  Interrupt Service Routine for TX portion of the SPI Master.
  34:.\Generated_Source\PSoC5/SPIM_INT.c **** *
  35:.\Generated_Source\PSoC5/SPIM_INT.c **** * Parameters:
  36:.\Generated_Source\PSoC5/SPIM_INT.c **** *  None.
  37:.\Generated_Source\PSoC5/SPIM_INT.c **** *
  38:.\Generated_Source\PSoC5/SPIM_INT.c **** * Return:
  39:.\Generated_Source\PSoC5/SPIM_INT.c **** *  None.
  40:.\Generated_Source\PSoC5/SPIM_INT.c **** *
  41:.\Generated_Source\PSoC5/SPIM_INT.c **** * Global variables:
  42:.\Generated_Source\PSoC5/SPIM_INT.c **** *  SPIM_txBufferWrite - used for the account of the bytes which
  43:.\Generated_Source\PSoC5/SPIM_INT.c **** *  have been written down in the TX software buffer.
  44:.\Generated_Source\PSoC5/SPIM_INT.c **** *  SPIM_txBufferRead - used for the account of the bytes which
  45:.\Generated_Source\PSoC5/SPIM_INT.c **** *  have been read from the TX software buffer, modified when exist data to
  46:.\Generated_Source\PSoC5/SPIM_INT.c **** *  sending and FIFO Not Full.
  47:.\Generated_Source\PSoC5/SPIM_INT.c **** *  SPIM_txBuffer[SPIM_TX_BUFFER_SIZE] - used to store
  48:.\Generated_Source\PSoC5/SPIM_INT.c **** *  data to sending.
  49:.\Generated_Source\PSoC5/SPIM_INT.c **** *  All described above Global variables are used when Software Buffer is used.
  50:.\Generated_Source\PSoC5/SPIM_INT.c **** *
  51:.\Generated_Source\PSoC5/SPIM_INT.c **** *******************************************************************************/
  52:.\Generated_Source\PSoC5/SPIM_INT.c **** CY_ISR(SPIM_TX_ISR)
  53:.\Generated_Source\PSoC5/SPIM_INT.c **** {
  27              		.loc 1 53 0
  28              		.cfi_startproc
  29              		@ args = 0, pretend = 0, frame = 8
  30              		@ frame_needed = 1, uses_anonymous_args = 0
  31              		@ link register save eliminated.
  32 0000 80B4     		push	{r7}
  33              		.cfi_def_cfa_offset 4
  34              		.cfi_offset 7, -4
  35 0002 83B0     		sub	sp, sp, #12
  36              		.cfi_def_cfa_offset 16
  37 0004 00AF     		add	r7, sp, #0
  38              		.cfi_def_cfa_register 7
  54:.\Generated_Source\PSoC5/SPIM_INT.c ****     #if(SPIM_TX_SOFTWARE_BUF_ENABLED)
  55:.\Generated_Source\PSoC5/SPIM_INT.c ****         uint8 tmpStatus;
  56:.\Generated_Source\PSoC5/SPIM_INT.c ****     #endif /* (SPIM_TX_SOFTWARE_BUF_ENABLED) */
  57:.\Generated_Source\PSoC5/SPIM_INT.c **** 
  58:.\Generated_Source\PSoC5/SPIM_INT.c ****     #ifdef SPIM_TX_ISR_ENTRY_CALLBACK
  59:.\Generated_Source\PSoC5/SPIM_INT.c ****         SPIM_TX_ISR_EntryCallback();
  60:.\Generated_Source\PSoC5/SPIM_INT.c ****     #endif /* SPIM_TX_ISR_ENTRY_CALLBACK */
  61:.\Generated_Source\PSoC5/SPIM_INT.c **** 
  62:.\Generated_Source\PSoC5/SPIM_INT.c ****     /* User code required at start of ISR */
  63:.\Generated_Source\PSoC5/SPIM_INT.c ****     /* `#START SPIM_TX_ISR_START` */
  64:.\Generated_Source\PSoC5/SPIM_INT.c **** 
  65:.\Generated_Source\PSoC5/SPIM_INT.c ****     /* `#END` */
  66:.\Generated_Source\PSoC5/SPIM_INT.c ****     
  67:.\Generated_Source\PSoC5/SPIM_INT.c ****     #if(SPIM_TX_SOFTWARE_BUF_ENABLED)
  68:.\Generated_Source\PSoC5/SPIM_INT.c ****         /* Check if TX data buffer is not empty and there is space in TX FIFO */
  69:.\Generated_Source\PSoC5/SPIM_INT.c ****         while(SPIM_txBufferRead != SPIM_txBufferWrite)
  39              		.loc 1 69 0
  40 0006 37E0     		b	.L2
  41              	.L8:
  70:.\Generated_Source\PSoC5/SPIM_INT.c ****         {
  71:.\Generated_Source\PSoC5/SPIM_INT.c ****             tmpStatus = SPIM_GET_STATUS_TX(SPIM_swStatusTx);
  42              		.loc 1 71 0
  43 0008 2A4B     		ldr	r3, .L10
ARM GAS  C:\Users\LUKASC~1\AppData\Local\Temp\ccIduA5j.s 			page 3


  44 000a 1B78     		ldrb	r3, [r3]
  45 000c DAB2     		uxtb	r2, r3
  46 000e 2A4B     		ldr	r3, .L10+4
  47 0010 1B78     		ldrb	r3, [r3]
  48 0012 DBB2     		uxtb	r3, r3
  49 0014 03F00903 		and	r3, r3, #9
  50 0018 DBB2     		uxtb	r3, r3
  51 001a 1343     		orrs	r3, r3, r2
  52 001c FB71     		strb	r3, [r7, #7]
  72:.\Generated_Source\PSoC5/SPIM_INT.c ****             SPIM_swStatusTx = tmpStatus;
  53              		.loc 1 72 0
  54 001e 264A     		ldr	r2, .L10+4
  55 0020 FB79     		ldrb	r3, [r7, #7]
  56 0022 1370     		strb	r3, [r2]
  73:.\Generated_Source\PSoC5/SPIM_INT.c **** 
  74:.\Generated_Source\PSoC5/SPIM_INT.c ****             if(0u != (SPIM_swStatusTx & SPIM_STS_TX_FIFO_NOT_FULL))
  57              		.loc 1 74 0
  58 0024 244B     		ldr	r3, .L10+4
  59 0026 1B78     		ldrb	r3, [r3]
  60 0028 DBB2     		uxtb	r3, r3
  61 002a 03F00403 		and	r3, r3, #4
  62 002e 002B     		cmp	r3, #0
  63 0030 21D0     		beq	.L3
  75:.\Generated_Source\PSoC5/SPIM_INT.c ****             {
  76:.\Generated_Source\PSoC5/SPIM_INT.c ****                 if(0u == SPIM_txBufferFull)
  64              		.loc 1 76 0
  65 0032 224B     		ldr	r3, .L10+8
  66 0034 1B78     		ldrb	r3, [r3]
  67 0036 DBB2     		uxtb	r3, r3
  68 0038 002B     		cmp	r3, #0
  69 003a 0FD1     		bne	.L4
  77:.\Generated_Source\PSoC5/SPIM_INT.c ****                 {
  78:.\Generated_Source\PSoC5/SPIM_INT.c ****                    SPIM_txBufferRead++;
  70              		.loc 1 78 0
  71 003c 204B     		ldr	r3, .L10+12
  72 003e 1B78     		ldrb	r3, [r3]
  73 0040 DBB2     		uxtb	r3, r3
  74 0042 0133     		adds	r3, r3, #1
  75 0044 DAB2     		uxtb	r2, r3
  76 0046 1E4B     		ldr	r3, .L10+12
  77 0048 1A70     		strb	r2, [r3]
  79:.\Generated_Source\PSoC5/SPIM_INT.c **** 
  80:.\Generated_Source\PSoC5/SPIM_INT.c ****                     if(SPIM_txBufferRead >= SPIM_TX_BUFFER_SIZE)
  78              		.loc 1 80 0
  79 004a 1D4B     		ldr	r3, .L10+12
  80 004c 1B78     		ldrb	r3, [r3]
  81 004e DBB2     		uxtb	r3, r3
  82 0050 FF2B     		cmp	r3, #255
  83 0052 06D1     		bne	.L6
  81:.\Generated_Source\PSoC5/SPIM_INT.c ****                     {
  82:.\Generated_Source\PSoC5/SPIM_INT.c ****                         SPIM_txBufferRead = 0u;
  84              		.loc 1 82 0
  85 0054 1A4B     		ldr	r3, .L10+12
  86 0056 0022     		movs	r2, #0
  87 0058 1A70     		strb	r2, [r3]
  88 005a 02E0     		b	.L6
  89              	.L4:
ARM GAS  C:\Users\LUKASC~1\AppData\Local\Temp\ccIduA5j.s 			page 4


  83:.\Generated_Source\PSoC5/SPIM_INT.c ****                     }
  84:.\Generated_Source\PSoC5/SPIM_INT.c ****                 }
  85:.\Generated_Source\PSoC5/SPIM_INT.c ****                 else
  86:.\Generated_Source\PSoC5/SPIM_INT.c ****                 {
  87:.\Generated_Source\PSoC5/SPIM_INT.c ****                     SPIM_txBufferFull = 0u;
  90              		.loc 1 87 0
  91 005c 174B     		ldr	r3, .L10+8
  92 005e 0022     		movs	r2, #0
  93 0060 1A70     		strb	r2, [r3]
  94              	.L6:
  88:.\Generated_Source\PSoC5/SPIM_INT.c ****                 }
  89:.\Generated_Source\PSoC5/SPIM_INT.c **** 
  90:.\Generated_Source\PSoC5/SPIM_INT.c ****                 /* Put data element into the TX FIFO */
  91:.\Generated_Source\PSoC5/SPIM_INT.c ****                 CY_SET_REG8(SPIM_TXDATA_PTR, 
  95              		.loc 1 91 0
  96 0062 184B     		ldr	r3, .L10+16
  97 0064 164A     		ldr	r2, .L10+12
  98 0066 1278     		ldrb	r2, [r2]
  99 0068 D2B2     		uxtb	r2, r2
 100 006a 1146     		mov	r1, r2
 101 006c 164A     		ldr	r2, .L10+20
 102 006e 525C     		ldrb	r2, [r2, r1]
 103 0070 D2B2     		uxtb	r2, r2
 104 0072 1A70     		strb	r2, [r3]
 105 0074 00E0     		b	.L2
 106              	.L3:
  92:.\Generated_Source\PSoC5/SPIM_INT.c ****                                              SPIM_txBuffer[SPIM_txBufferRead]);
  93:.\Generated_Source\PSoC5/SPIM_INT.c ****             }
  94:.\Generated_Source\PSoC5/SPIM_INT.c ****             else
  95:.\Generated_Source\PSoC5/SPIM_INT.c ****             {
  96:.\Generated_Source\PSoC5/SPIM_INT.c ****                 break;
 107              		.loc 1 96 0
 108 0076 07E0     		b	.L7
 109              	.L2:
  69:.\Generated_Source\PSoC5/SPIM_INT.c ****         {
 110              		.loc 1 69 0
 111 0078 114B     		ldr	r3, .L10+12
 112 007a 1B78     		ldrb	r3, [r3]
 113 007c DAB2     		uxtb	r2, r3
 114 007e 134B     		ldr	r3, .L10+24
 115 0080 1B78     		ldrb	r3, [r3]
 116 0082 DBB2     		uxtb	r3, r3
 117 0084 9A42     		cmp	r2, r3
 118 0086 BFD1     		bne	.L8
 119              	.L7:
  97:.\Generated_Source\PSoC5/SPIM_INT.c ****             }
  98:.\Generated_Source\PSoC5/SPIM_INT.c ****         }
  99:.\Generated_Source\PSoC5/SPIM_INT.c **** 
 100:.\Generated_Source\PSoC5/SPIM_INT.c ****         if(SPIM_txBufferRead == SPIM_txBufferWrite)
 120              		.loc 1 100 0
 121 0088 0D4B     		ldr	r3, .L10+12
 122 008a 1B78     		ldrb	r3, [r3]
 123 008c DAB2     		uxtb	r2, r3
 124 008e 0F4B     		ldr	r3, .L10+24
 125 0090 1B78     		ldrb	r3, [r3]
 126 0092 DBB2     		uxtb	r3, r3
 127 0094 9A42     		cmp	r2, r3
ARM GAS  C:\Users\LUKASC~1\AppData\Local\Temp\ccIduA5j.s 			page 5


 128 0096 07D1     		bne	.L1
 101:.\Generated_Source\PSoC5/SPIM_INT.c ****         {
 102:.\Generated_Source\PSoC5/SPIM_INT.c ****             /* TX Buffer is EMPTY: disable interrupt on TX NOT FULL */
 103:.\Generated_Source\PSoC5/SPIM_INT.c ****             SPIM_TX_STATUS_MASK_REG &= ((uint8) ~SPIM_STS_TX_FIFO_NOT_FULL);
 129              		.loc 1 103 0
 130 0098 0D4A     		ldr	r2, .L10+28
 131 009a 0D4B     		ldr	r3, .L10+28
 132 009c 1B78     		ldrb	r3, [r3]
 133 009e DBB2     		uxtb	r3, r3
 134 00a0 23F00403 		bic	r3, r3, #4
 135 00a4 DBB2     		uxtb	r3, r3
 136 00a6 1370     		strb	r3, [r2]
 137              	.L1:
 104:.\Generated_Source\PSoC5/SPIM_INT.c ****         }
 105:.\Generated_Source\PSoC5/SPIM_INT.c **** 
 106:.\Generated_Source\PSoC5/SPIM_INT.c ****     #endif /* (SPIM_TX_SOFTWARE_BUF_ENABLED) */
 107:.\Generated_Source\PSoC5/SPIM_INT.c **** 
 108:.\Generated_Source\PSoC5/SPIM_INT.c ****     /* User code required at end of ISR (Optional) */
 109:.\Generated_Source\PSoC5/SPIM_INT.c ****     /* `#START SPIM_TX_ISR_END` */
 110:.\Generated_Source\PSoC5/SPIM_INT.c **** 
 111:.\Generated_Source\PSoC5/SPIM_INT.c ****     /* `#END` */
 112:.\Generated_Source\PSoC5/SPIM_INT.c ****     
 113:.\Generated_Source\PSoC5/SPIM_INT.c ****     #ifdef SPIM_TX_ISR_EXIT_CALLBACK
 114:.\Generated_Source\PSoC5/SPIM_INT.c ****         SPIM_TX_ISR_ExitCallback();
 115:.\Generated_Source\PSoC5/SPIM_INT.c ****     #endif /* SPIM_TX_ISR_EXIT_CALLBACK */
 116:.\Generated_Source\PSoC5/SPIM_INT.c **** }
 138              		.loc 1 116 0
 139 00a8 0C37     		adds	r7, r7, #12
 140              		.cfi_def_cfa_offset 4
 141 00aa BD46     		mov	sp, r7
 142              		.cfi_def_cfa_register 13
 143              		@ sp needed
 144 00ac 5DF8047B 		ldr	r7, [sp], #4
 145              		.cfi_restore 7
 146              		.cfi_def_cfa_offset 0
 147 00b0 7047     		bx	lr
 148              	.L11:
 149 00b2 00BF     		.align	2
 150              	.L10:
 151 00b4 66650040 		.word	1073767782
 152 00b8 00000000 		.word	SPIM_swStatusTx
 153 00bc 00000000 		.word	SPIM_txBufferFull
 154 00c0 00000000 		.word	SPIM_txBufferRead
 155 00c4 46640040 		.word	1073767494
 156 00c8 00000000 		.word	SPIM_txBuffer
 157 00cc 00000000 		.word	SPIM_txBufferWrite
 158 00d0 86650040 		.word	1073767814
 159              		.cfi_endproc
 160              	.LFE0:
 161              		.size	SPIM_TX_ISR, .-SPIM_TX_ISR
 162              		.section	.text.SPIM_RX_ISR,"ax",%progbits
 163              		.align	2
 164              		.global	SPIM_RX_ISR
 165              		.thumb
 166              		.thumb_func
 167              		.type	SPIM_RX_ISR, %function
 168              	SPIM_RX_ISR:
ARM GAS  C:\Users\LUKASC~1\AppData\Local\Temp\ccIduA5j.s 			page 6


 169              	.LFB1:
 117:.\Generated_Source\PSoC5/SPIM_INT.c **** 
 118:.\Generated_Source\PSoC5/SPIM_INT.c **** 
 119:.\Generated_Source\PSoC5/SPIM_INT.c **** /*******************************************************************************
 120:.\Generated_Source\PSoC5/SPIM_INT.c **** * Function Name: SPIM_RX_ISR
 121:.\Generated_Source\PSoC5/SPIM_INT.c **** ********************************************************************************
 122:.\Generated_Source\PSoC5/SPIM_INT.c **** *
 123:.\Generated_Source\PSoC5/SPIM_INT.c **** * Summary:
 124:.\Generated_Source\PSoC5/SPIM_INT.c **** *  Interrupt Service Routine for RX portion of the SPI Master.
 125:.\Generated_Source\PSoC5/SPIM_INT.c **** *
 126:.\Generated_Source\PSoC5/SPIM_INT.c **** * Parameters:
 127:.\Generated_Source\PSoC5/SPIM_INT.c **** *  None.
 128:.\Generated_Source\PSoC5/SPIM_INT.c **** *
 129:.\Generated_Source\PSoC5/SPIM_INT.c **** * Return:
 130:.\Generated_Source\PSoC5/SPIM_INT.c **** *  None.
 131:.\Generated_Source\PSoC5/SPIM_INT.c **** *
 132:.\Generated_Source\PSoC5/SPIM_INT.c **** * Global variables:
 133:.\Generated_Source\PSoC5/SPIM_INT.c **** *  SPIM_rxBufferWrite - used for the account of the bytes which
 134:.\Generated_Source\PSoC5/SPIM_INT.c **** *  have been written down in the RX software buffer modified when FIFO contains
 135:.\Generated_Source\PSoC5/SPIM_INT.c **** *  new data.
 136:.\Generated_Source\PSoC5/SPIM_INT.c **** *  SPIM_rxBufferRead - used for the account of the bytes which
 137:.\Generated_Source\PSoC5/SPIM_INT.c **** *  have been read from the RX software buffer, modified when overflow occurred.
 138:.\Generated_Source\PSoC5/SPIM_INT.c **** *  SPIM_rxBuffer[SPIM_RX_BUFFER_SIZE] - used to store
 139:.\Generated_Source\PSoC5/SPIM_INT.c **** *  received data, modified when FIFO contains new data.
 140:.\Generated_Source\PSoC5/SPIM_INT.c **** *  All described above Global variables are used when Software Buffer is used.
 141:.\Generated_Source\PSoC5/SPIM_INT.c **** *
 142:.\Generated_Source\PSoC5/SPIM_INT.c **** *******************************************************************************/
 143:.\Generated_Source\PSoC5/SPIM_INT.c **** CY_ISR(SPIM_RX_ISR)
 144:.\Generated_Source\PSoC5/SPIM_INT.c **** {
 170              		.loc 1 144 0
 171              		.cfi_startproc
 172              		@ args = 0, pretend = 0, frame = 0
 173              		@ frame_needed = 1, uses_anonymous_args = 0
 174              		@ link register save eliminated.
 175 0000 80B4     		push	{r7}
 176              		.cfi_def_cfa_offset 4
 177              		.cfi_offset 7, -4
 178 0002 00AF     		add	r7, sp, #0
 179              		.cfi_def_cfa_register 7
 145:.\Generated_Source\PSoC5/SPIM_INT.c ****     #if(SPIM_RX_SOFTWARE_BUF_ENABLED)
 146:.\Generated_Source\PSoC5/SPIM_INT.c ****         uint8 tmpStatus;
 147:.\Generated_Source\PSoC5/SPIM_INT.c ****         uint8 rxData;
 148:.\Generated_Source\PSoC5/SPIM_INT.c ****     #endif /* (SPIM_RX_SOFTWARE_BUF_ENABLED) */
 149:.\Generated_Source\PSoC5/SPIM_INT.c **** 
 150:.\Generated_Source\PSoC5/SPIM_INT.c ****     #ifdef SPIM_RX_ISR_ENTRY_CALLBACK
 151:.\Generated_Source\PSoC5/SPIM_INT.c ****         SPIM_RX_ISR_EntryCallback();
 152:.\Generated_Source\PSoC5/SPIM_INT.c ****     #endif /* SPIM_RX_ISR_ENTRY_CALLBACK */
 153:.\Generated_Source\PSoC5/SPIM_INT.c **** 
 154:.\Generated_Source\PSoC5/SPIM_INT.c ****     /* User code required at start of ISR */
 155:.\Generated_Source\PSoC5/SPIM_INT.c ****     /* `#START SPIM_RX_ISR_START` */
 156:.\Generated_Source\PSoC5/SPIM_INT.c **** 
 157:.\Generated_Source\PSoC5/SPIM_INT.c ****     /* `#END` */
 158:.\Generated_Source\PSoC5/SPIM_INT.c ****     
 159:.\Generated_Source\PSoC5/SPIM_INT.c ****     #if(SPIM_RX_SOFTWARE_BUF_ENABLED)
 160:.\Generated_Source\PSoC5/SPIM_INT.c **** 
 161:.\Generated_Source\PSoC5/SPIM_INT.c ****         tmpStatus = SPIM_GET_STATUS_RX(SPIM_swStatusRx);
 162:.\Generated_Source\PSoC5/SPIM_INT.c ****         SPIM_swStatusRx = tmpStatus;
ARM GAS  C:\Users\LUKASC~1\AppData\Local\Temp\ccIduA5j.s 			page 7


 163:.\Generated_Source\PSoC5/SPIM_INT.c **** 
 164:.\Generated_Source\PSoC5/SPIM_INT.c ****         /* Check if RX data FIFO has some data to be moved into the RX Buffer */
 165:.\Generated_Source\PSoC5/SPIM_INT.c ****         while(0u != (SPIM_swStatusRx & SPIM_STS_RX_FIFO_NOT_EMPTY))
 166:.\Generated_Source\PSoC5/SPIM_INT.c ****         {
 167:.\Generated_Source\PSoC5/SPIM_INT.c ****             rxData = CY_GET_REG8(SPIM_RXDATA_PTR);
 168:.\Generated_Source\PSoC5/SPIM_INT.c **** 
 169:.\Generated_Source\PSoC5/SPIM_INT.c ****             /* Set next pointer. */
 170:.\Generated_Source\PSoC5/SPIM_INT.c ****             SPIM_rxBufferWrite++;
 171:.\Generated_Source\PSoC5/SPIM_INT.c ****             if(SPIM_rxBufferWrite >= SPIM_RX_BUFFER_SIZE)
 172:.\Generated_Source\PSoC5/SPIM_INT.c ****             {
 173:.\Generated_Source\PSoC5/SPIM_INT.c ****                 SPIM_rxBufferWrite = 0u;
 174:.\Generated_Source\PSoC5/SPIM_INT.c ****             }
 175:.\Generated_Source\PSoC5/SPIM_INT.c **** 
 176:.\Generated_Source\PSoC5/SPIM_INT.c ****             if(SPIM_rxBufferWrite == SPIM_rxBufferRead)
 177:.\Generated_Source\PSoC5/SPIM_INT.c ****             {
 178:.\Generated_Source\PSoC5/SPIM_INT.c ****                 SPIM_rxBufferRead++;
 179:.\Generated_Source\PSoC5/SPIM_INT.c ****                 if(SPIM_rxBufferRead >= SPIM_RX_BUFFER_SIZE)
 180:.\Generated_Source\PSoC5/SPIM_INT.c ****                 {
 181:.\Generated_Source\PSoC5/SPIM_INT.c ****                     SPIM_rxBufferRead = 0u;
 182:.\Generated_Source\PSoC5/SPIM_INT.c ****                 }
 183:.\Generated_Source\PSoC5/SPIM_INT.c **** 
 184:.\Generated_Source\PSoC5/SPIM_INT.c ****                 SPIM_rxBufferFull = 1u;
 185:.\Generated_Source\PSoC5/SPIM_INT.c ****             }
 186:.\Generated_Source\PSoC5/SPIM_INT.c **** 
 187:.\Generated_Source\PSoC5/SPIM_INT.c ****             /* Move data from the FIFO to the Buffer */
 188:.\Generated_Source\PSoC5/SPIM_INT.c ****             SPIM_rxBuffer[SPIM_rxBufferWrite] = rxData;
 189:.\Generated_Source\PSoC5/SPIM_INT.c **** 
 190:.\Generated_Source\PSoC5/SPIM_INT.c ****             tmpStatus = SPIM_GET_STATUS_RX(SPIM_swStatusRx);
 191:.\Generated_Source\PSoC5/SPIM_INT.c ****             SPIM_swStatusRx = tmpStatus;
 192:.\Generated_Source\PSoC5/SPIM_INT.c ****         }
 193:.\Generated_Source\PSoC5/SPIM_INT.c **** 
 194:.\Generated_Source\PSoC5/SPIM_INT.c ****     #endif /* (SPIM_RX_SOFTWARE_BUF_ENABLED) */
 195:.\Generated_Source\PSoC5/SPIM_INT.c **** 
 196:.\Generated_Source\PSoC5/SPIM_INT.c ****     /* User code required at end of ISR (Optional) */
 197:.\Generated_Source\PSoC5/SPIM_INT.c ****     /* `#START SPIM_RX_ISR_END` */
 198:.\Generated_Source\PSoC5/SPIM_INT.c **** 
 199:.\Generated_Source\PSoC5/SPIM_INT.c ****     /* `#END` */
 200:.\Generated_Source\PSoC5/SPIM_INT.c ****     
 201:.\Generated_Source\PSoC5/SPIM_INT.c ****     #ifdef SPIM_RX_ISR_EXIT_CALLBACK
 202:.\Generated_Source\PSoC5/SPIM_INT.c ****         SPIM_RX_ISR_ExitCallback();
 203:.\Generated_Source\PSoC5/SPIM_INT.c ****     #endif /* SPIM_RX_ISR_EXIT_CALLBACK */
 204:.\Generated_Source\PSoC5/SPIM_INT.c **** }
 180              		.loc 1 204 0
 181 0004 BD46     		mov	sp, r7
 182              		.cfi_def_cfa_register 13
 183              		@ sp needed
 184 0006 5DF8047B 		ldr	r7, [sp], #4
 185              		.cfi_restore 7
 186              		.cfi_def_cfa_offset 0
 187 000a 7047     		bx	lr
 188              		.cfi_endproc
 189              	.LFE1:
 190              		.size	SPIM_RX_ISR, .-SPIM_RX_ISR
 191              		.text
 192              	.Letext0:
 193              		.file 2 ".\\Generated_Source\\PSoC5\\cytypes.h"
 194              		.file 3 ".\\Generated_Source\\PSoC5\\SPIM_PVT.h"
ARM GAS  C:\Users\LUKASC~1\AppData\Local\Temp\ccIduA5j.s 			page 8

