ARM GAS  C:\Users\LUKASC~1\AppData\Local\Temp\ccn7PJBW.s 			page 1


   1              		.syntax unified
   2              		.cpu cortex-m3
   3              		.fpu softvfp
   4              		.eabi_attribute 20, 1
   5              		.eabi_attribute 21, 1
   6              		.eabi_attribute 23, 3
   7              		.eabi_attribute 24, 1
   8              		.eabi_attribute 25, 1
   9              		.eabi_attribute 26, 1
  10              		.eabi_attribute 30, 6
  11              		.eabi_attribute 34, 1
  12              		.eabi_attribute 18, 4
  13              		.thumb
  14              		.file	"SPIM_PM.c"
  15              		.text
  16              	.Ltext0:
  17              		.cfi_sections	.debug_frame
  18              		.data
  19              		.align	2
  20              		.type	SPIM_backup, %object
  21              		.size	SPIM_backup, 2
  22              	SPIM_backup:
  23 0000 00       		.byte	0
  24 0001 0F       		.byte	15
  25 0002 0000     		.section	.text.SPIM_SaveConfig,"ax",%progbits
  26              		.align	2
  27              		.global	SPIM_SaveConfig
  28              		.thumb
  29              		.thumb_func
  30              		.type	SPIM_SaveConfig, %function
  31              	SPIM_SaveConfig:
  32              	.LFB0:
  33              		.file 1 ".\\Generated_Source\\PSoC5\\SPIM_PM.c"
   1:.\Generated_Source\PSoC5/SPIM_PM.c **** /*******************************************************************************
   2:.\Generated_Source\PSoC5/SPIM_PM.c **** * File Name: SPIM_PM.c
   3:.\Generated_Source\PSoC5/SPIM_PM.c **** * Version 2.50
   4:.\Generated_Source\PSoC5/SPIM_PM.c **** *
   5:.\Generated_Source\PSoC5/SPIM_PM.c **** * Description:
   6:.\Generated_Source\PSoC5/SPIM_PM.c **** *  This file contains the setup, control and status commands to support
   7:.\Generated_Source\PSoC5/SPIM_PM.c **** *  component operations in low power mode.
   8:.\Generated_Source\PSoC5/SPIM_PM.c **** *
   9:.\Generated_Source\PSoC5/SPIM_PM.c **** * Note:
  10:.\Generated_Source\PSoC5/SPIM_PM.c **** *
  11:.\Generated_Source\PSoC5/SPIM_PM.c **** ********************************************************************************
  12:.\Generated_Source\PSoC5/SPIM_PM.c **** * Copyright 2008-2015, Cypress Semiconductor Corporation.  All rights reserved.
  13:.\Generated_Source\PSoC5/SPIM_PM.c **** * You may use this file only in accordance with the license, terms, conditions,
  14:.\Generated_Source\PSoC5/SPIM_PM.c **** * disclaimers, and limitations in the end user license agreement accompanying
  15:.\Generated_Source\PSoC5/SPIM_PM.c **** * the software package with which this file was provided.
  16:.\Generated_Source\PSoC5/SPIM_PM.c **** *******************************************************************************/
  17:.\Generated_Source\PSoC5/SPIM_PM.c **** 
  18:.\Generated_Source\PSoC5/SPIM_PM.c **** #include "SPIM_PVT.h"
  19:.\Generated_Source\PSoC5/SPIM_PM.c **** 
  20:.\Generated_Source\PSoC5/SPIM_PM.c **** static SPIM_BACKUP_STRUCT SPIM_backup =
  21:.\Generated_Source\PSoC5/SPIM_PM.c **** {
  22:.\Generated_Source\PSoC5/SPIM_PM.c ****     SPIM_DISABLED,
  23:.\Generated_Source\PSoC5/SPIM_PM.c ****     SPIM_BITCTR_INIT,
  24:.\Generated_Source\PSoC5/SPIM_PM.c **** };
ARM GAS  C:\Users\LUKASC~1\AppData\Local\Temp\ccn7PJBW.s 			page 2


  25:.\Generated_Source\PSoC5/SPIM_PM.c **** 
  26:.\Generated_Source\PSoC5/SPIM_PM.c **** 
  27:.\Generated_Source\PSoC5/SPIM_PM.c **** /*******************************************************************************
  28:.\Generated_Source\PSoC5/SPIM_PM.c **** * Function Name: SPIM_SaveConfig
  29:.\Generated_Source\PSoC5/SPIM_PM.c **** ********************************************************************************
  30:.\Generated_Source\PSoC5/SPIM_PM.c **** *
  31:.\Generated_Source\PSoC5/SPIM_PM.c **** * Summary:
  32:.\Generated_Source\PSoC5/SPIM_PM.c **** *  Empty function. Included for consistency with other components.
  33:.\Generated_Source\PSoC5/SPIM_PM.c **** *
  34:.\Generated_Source\PSoC5/SPIM_PM.c **** * Parameters:
  35:.\Generated_Source\PSoC5/SPIM_PM.c **** *  None.
  36:.\Generated_Source\PSoC5/SPIM_PM.c **** *
  37:.\Generated_Source\PSoC5/SPIM_PM.c **** * Return:
  38:.\Generated_Source\PSoC5/SPIM_PM.c **** *  None.
  39:.\Generated_Source\PSoC5/SPIM_PM.c **** *
  40:.\Generated_Source\PSoC5/SPIM_PM.c **** *******************************************************************************/
  41:.\Generated_Source\PSoC5/SPIM_PM.c **** void SPIM_SaveConfig(void) 
  42:.\Generated_Source\PSoC5/SPIM_PM.c **** {
  34              		.loc 1 42 0
  35              		.cfi_startproc
  36              		@ args = 0, pretend = 0, frame = 0
  37              		@ frame_needed = 1, uses_anonymous_args = 0
  38              		@ link register save eliminated.
  39 0000 80B4     		push	{r7}
  40              		.cfi_def_cfa_offset 4
  41              		.cfi_offset 7, -4
  42 0002 00AF     		add	r7, sp, #0
  43              		.cfi_def_cfa_register 7
  43:.\Generated_Source\PSoC5/SPIM_PM.c **** 
  44:.\Generated_Source\PSoC5/SPIM_PM.c **** }
  44              		.loc 1 44 0
  45 0004 BD46     		mov	sp, r7
  46              		.cfi_def_cfa_register 13
  47              		@ sp needed
  48 0006 5DF8047B 		ldr	r7, [sp], #4
  49              		.cfi_restore 7
  50              		.cfi_def_cfa_offset 0
  51 000a 7047     		bx	lr
  52              		.cfi_endproc
  53              	.LFE0:
  54              		.size	SPIM_SaveConfig, .-SPIM_SaveConfig
  55              		.section	.text.SPIM_RestoreConfig,"ax",%progbits
  56              		.align	2
  57              		.global	SPIM_RestoreConfig
  58              		.thumb
  59              		.thumb_func
  60              		.type	SPIM_RestoreConfig, %function
  61              	SPIM_RestoreConfig:
  62              	.LFB1:
  45:.\Generated_Source\PSoC5/SPIM_PM.c **** 
  46:.\Generated_Source\PSoC5/SPIM_PM.c **** 
  47:.\Generated_Source\PSoC5/SPIM_PM.c **** /*******************************************************************************
  48:.\Generated_Source\PSoC5/SPIM_PM.c **** * Function Name: SPIM_RestoreConfig
  49:.\Generated_Source\PSoC5/SPIM_PM.c **** ********************************************************************************
  50:.\Generated_Source\PSoC5/SPIM_PM.c **** *
  51:.\Generated_Source\PSoC5/SPIM_PM.c **** * Summary:
  52:.\Generated_Source\PSoC5/SPIM_PM.c **** *  Empty function. Included for consistency with other components.
ARM GAS  C:\Users\LUKASC~1\AppData\Local\Temp\ccn7PJBW.s 			page 3


  53:.\Generated_Source\PSoC5/SPIM_PM.c **** *
  54:.\Generated_Source\PSoC5/SPIM_PM.c **** * Parameters:
  55:.\Generated_Source\PSoC5/SPIM_PM.c **** *  None.
  56:.\Generated_Source\PSoC5/SPIM_PM.c **** *
  57:.\Generated_Source\PSoC5/SPIM_PM.c **** * Return:
  58:.\Generated_Source\PSoC5/SPIM_PM.c **** *  None.
  59:.\Generated_Source\PSoC5/SPIM_PM.c **** *
  60:.\Generated_Source\PSoC5/SPIM_PM.c **** *******************************************************************************/
  61:.\Generated_Source\PSoC5/SPIM_PM.c **** void SPIM_RestoreConfig(void) 
  62:.\Generated_Source\PSoC5/SPIM_PM.c **** {
  63              		.loc 1 62 0
  64              		.cfi_startproc
  65              		@ args = 0, pretend = 0, frame = 0
  66              		@ frame_needed = 1, uses_anonymous_args = 0
  67              		@ link register save eliminated.
  68 0000 80B4     		push	{r7}
  69              		.cfi_def_cfa_offset 4
  70              		.cfi_offset 7, -4
  71 0002 00AF     		add	r7, sp, #0
  72              		.cfi_def_cfa_register 7
  63:.\Generated_Source\PSoC5/SPIM_PM.c **** 
  64:.\Generated_Source\PSoC5/SPIM_PM.c **** }
  73              		.loc 1 64 0
  74 0004 BD46     		mov	sp, r7
  75              		.cfi_def_cfa_register 13
  76              		@ sp needed
  77 0006 5DF8047B 		ldr	r7, [sp], #4
  78              		.cfi_restore 7
  79              		.cfi_def_cfa_offset 0
  80 000a 7047     		bx	lr
  81              		.cfi_endproc
  82              	.LFE1:
  83              		.size	SPIM_RestoreConfig, .-SPIM_RestoreConfig
  84              		.section	.text.SPIM_Sleep,"ax",%progbits
  85              		.align	2
  86              		.global	SPIM_Sleep
  87              		.thumb
  88              		.thumb_func
  89              		.type	SPIM_Sleep, %function
  90              	SPIM_Sleep:
  91              	.LFB2:
  65:.\Generated_Source\PSoC5/SPIM_PM.c **** 
  66:.\Generated_Source\PSoC5/SPIM_PM.c **** 
  67:.\Generated_Source\PSoC5/SPIM_PM.c **** /*******************************************************************************
  68:.\Generated_Source\PSoC5/SPIM_PM.c **** * Function Name: SPIM_Sleep
  69:.\Generated_Source\PSoC5/SPIM_PM.c **** ********************************************************************************
  70:.\Generated_Source\PSoC5/SPIM_PM.c **** *
  71:.\Generated_Source\PSoC5/SPIM_PM.c **** * Summary:
  72:.\Generated_Source\PSoC5/SPIM_PM.c **** *  Prepare SPIM Component goes to sleep.
  73:.\Generated_Source\PSoC5/SPIM_PM.c **** *
  74:.\Generated_Source\PSoC5/SPIM_PM.c **** * Parameters:
  75:.\Generated_Source\PSoC5/SPIM_PM.c **** *  None.
  76:.\Generated_Source\PSoC5/SPIM_PM.c **** *
  77:.\Generated_Source\PSoC5/SPIM_PM.c **** * Return:
  78:.\Generated_Source\PSoC5/SPIM_PM.c **** *  None.
  79:.\Generated_Source\PSoC5/SPIM_PM.c **** *
  80:.\Generated_Source\PSoC5/SPIM_PM.c **** * Global Variables:
ARM GAS  C:\Users\LUKASC~1\AppData\Local\Temp\ccn7PJBW.s 			page 4


  81:.\Generated_Source\PSoC5/SPIM_PM.c **** *  SPIM_backup - modified when non-retention registers are saved.
  82:.\Generated_Source\PSoC5/SPIM_PM.c **** *
  83:.\Generated_Source\PSoC5/SPIM_PM.c **** * Reentrant:
  84:.\Generated_Source\PSoC5/SPIM_PM.c **** *  No.
  85:.\Generated_Source\PSoC5/SPIM_PM.c **** *
  86:.\Generated_Source\PSoC5/SPIM_PM.c **** *******************************************************************************/
  87:.\Generated_Source\PSoC5/SPIM_PM.c **** void SPIM_Sleep(void) 
  88:.\Generated_Source\PSoC5/SPIM_PM.c **** {
  92              		.loc 1 88 0
  93              		.cfi_startproc
  94              		@ args = 0, pretend = 0, frame = 0
  95              		@ frame_needed = 1, uses_anonymous_args = 0
  96 0000 80B5     		push	{r7, lr}
  97              		.cfi_def_cfa_offset 8
  98              		.cfi_offset 7, -8
  99              		.cfi_offset 14, -4
 100 0002 00AF     		add	r7, sp, #0
 101              		.cfi_def_cfa_register 7
  89:.\Generated_Source\PSoC5/SPIM_PM.c ****     /* Save components enable state */
  90:.\Generated_Source\PSoC5/SPIM_PM.c ****     SPIM_backup.enableState = ((uint8) SPIM_IS_ENABLED);
 102              		.loc 1 90 0
 103 0004 074B     		ldr	r3, .L4
 104 0006 1B78     		ldrb	r3, [r3]
 105 0008 DBB2     		uxtb	r3, r3
 106 000a 03F01003 		and	r3, r3, #16
 107 000e 002B     		cmp	r3, #0
 108 0010 14BF     		ite	ne
 109 0012 0123     		movne	r3, #1
 110 0014 0023     		moveq	r3, #0
 111 0016 DBB2     		uxtb	r3, r3
 112 0018 1A46     		mov	r2, r3
 113 001a 034B     		ldr	r3, .L4+4
 114 001c 1A70     		strb	r2, [r3]
  91:.\Generated_Source\PSoC5/SPIM_PM.c **** 
  92:.\Generated_Source\PSoC5/SPIM_PM.c ****     SPIM_Stop();
 115              		.loc 1 92 0
 116 001e FFF7FEFF 		bl	SPIM_Stop
  93:.\Generated_Source\PSoC5/SPIM_PM.c **** }
 117              		.loc 1 93 0
 118 0022 80BD     		pop	{r7, pc}
 119              	.L5:
 120              		.align	2
 121              	.L4:
 122 0024 95640040 		.word	1073767573
 123 0028 00000000 		.word	SPIM_backup
 124              		.cfi_endproc
 125              	.LFE2:
 126              		.size	SPIM_Sleep, .-SPIM_Sleep
 127              		.section	.text.SPIM_Wakeup,"ax",%progbits
 128              		.align	2
 129              		.global	SPIM_Wakeup
 130              		.thumb
 131              		.thumb_func
 132              		.type	SPIM_Wakeup, %function
 133              	SPIM_Wakeup:
 134              	.LFB3:
  94:.\Generated_Source\PSoC5/SPIM_PM.c **** 
ARM GAS  C:\Users\LUKASC~1\AppData\Local\Temp\ccn7PJBW.s 			page 5


  95:.\Generated_Source\PSoC5/SPIM_PM.c **** 
  96:.\Generated_Source\PSoC5/SPIM_PM.c **** /*******************************************************************************
  97:.\Generated_Source\PSoC5/SPIM_PM.c **** * Function Name: SPIM_Wakeup
  98:.\Generated_Source\PSoC5/SPIM_PM.c **** ********************************************************************************
  99:.\Generated_Source\PSoC5/SPIM_PM.c **** *
 100:.\Generated_Source\PSoC5/SPIM_PM.c **** * Summary:
 101:.\Generated_Source\PSoC5/SPIM_PM.c **** *  Prepare SPIM Component to wake up.
 102:.\Generated_Source\PSoC5/SPIM_PM.c **** *
 103:.\Generated_Source\PSoC5/SPIM_PM.c **** * Parameters:
 104:.\Generated_Source\PSoC5/SPIM_PM.c **** *  None.
 105:.\Generated_Source\PSoC5/SPIM_PM.c **** *
 106:.\Generated_Source\PSoC5/SPIM_PM.c **** * Return:
 107:.\Generated_Source\PSoC5/SPIM_PM.c **** *  None.
 108:.\Generated_Source\PSoC5/SPIM_PM.c **** *
 109:.\Generated_Source\PSoC5/SPIM_PM.c **** * Global Variables:
 110:.\Generated_Source\PSoC5/SPIM_PM.c **** *  SPIM_backup - used when non-retention registers are restored.
 111:.\Generated_Source\PSoC5/SPIM_PM.c **** *  SPIM_txBufferWrite - modified every function call - resets to
 112:.\Generated_Source\PSoC5/SPIM_PM.c **** *  zero.
 113:.\Generated_Source\PSoC5/SPIM_PM.c **** *  SPIM_txBufferRead - modified every function call - resets to
 114:.\Generated_Source\PSoC5/SPIM_PM.c **** *  zero.
 115:.\Generated_Source\PSoC5/SPIM_PM.c **** *  SPIM_rxBufferWrite - modified every function call - resets to
 116:.\Generated_Source\PSoC5/SPIM_PM.c **** *  zero.
 117:.\Generated_Source\PSoC5/SPIM_PM.c **** *  SPIM_rxBufferRead - modified every function call - resets to
 118:.\Generated_Source\PSoC5/SPIM_PM.c **** *  zero.
 119:.\Generated_Source\PSoC5/SPIM_PM.c **** *
 120:.\Generated_Source\PSoC5/SPIM_PM.c **** * Reentrant:
 121:.\Generated_Source\PSoC5/SPIM_PM.c **** *  No.
 122:.\Generated_Source\PSoC5/SPIM_PM.c **** *
 123:.\Generated_Source\PSoC5/SPIM_PM.c **** *******************************************************************************/
 124:.\Generated_Source\PSoC5/SPIM_PM.c **** void SPIM_Wakeup(void) 
 125:.\Generated_Source\PSoC5/SPIM_PM.c **** {
 135              		.loc 1 125 0
 136              		.cfi_startproc
 137              		@ args = 0, pretend = 0, frame = 0
 138              		@ frame_needed = 1, uses_anonymous_args = 0
 139 0000 80B5     		push	{r7, lr}
 140              		.cfi_def_cfa_offset 8
 141              		.cfi_offset 7, -8
 142              		.cfi_offset 14, -4
 143 0002 00AF     		add	r7, sp, #0
 144              		.cfi_def_cfa_register 7
 126:.\Generated_Source\PSoC5/SPIM_PM.c ****     #if(SPIM_RX_SOFTWARE_BUF_ENABLED)
 127:.\Generated_Source\PSoC5/SPIM_PM.c ****         SPIM_rxBufferFull  = 0u;
 128:.\Generated_Source\PSoC5/SPIM_PM.c ****         SPIM_rxBufferRead  = 0u;
 129:.\Generated_Source\PSoC5/SPIM_PM.c ****         SPIM_rxBufferWrite = 0u;
 130:.\Generated_Source\PSoC5/SPIM_PM.c ****     #endif /* (SPIM_RX_SOFTWARE_BUF_ENABLED) */
 131:.\Generated_Source\PSoC5/SPIM_PM.c **** 
 132:.\Generated_Source\PSoC5/SPIM_PM.c ****     #if(SPIM_TX_SOFTWARE_BUF_ENABLED)
 133:.\Generated_Source\PSoC5/SPIM_PM.c ****         SPIM_txBufferFull  = 0u;
 145              		.loc 1 133 0
 146 0004 084B     		ldr	r3, .L8
 147 0006 0022     		movs	r2, #0
 148 0008 1A70     		strb	r2, [r3]
 134:.\Generated_Source\PSoC5/SPIM_PM.c ****         SPIM_txBufferRead  = 0u;
 149              		.loc 1 134 0
 150 000a 084B     		ldr	r3, .L8+4
 151 000c 0022     		movs	r2, #0
ARM GAS  C:\Users\LUKASC~1\AppData\Local\Temp\ccn7PJBW.s 			page 6


 152 000e 1A70     		strb	r2, [r3]
 135:.\Generated_Source\PSoC5/SPIM_PM.c ****         SPIM_txBufferWrite = 0u;
 153              		.loc 1 135 0
 154 0010 074B     		ldr	r3, .L8+8
 155 0012 0022     		movs	r2, #0
 156 0014 1A70     		strb	r2, [r3]
 136:.\Generated_Source\PSoC5/SPIM_PM.c ****     #endif /* (SPIM_TX_SOFTWARE_BUF_ENABLED) */
 137:.\Generated_Source\PSoC5/SPIM_PM.c **** 
 138:.\Generated_Source\PSoC5/SPIM_PM.c ****     /* Clear any data from the RX and TX FIFO */
 139:.\Generated_Source\PSoC5/SPIM_PM.c ****     SPIM_ClearFIFO();
 157              		.loc 1 139 0
 158 0016 FFF7FEFF 		bl	SPIM_ClearFIFO
 140:.\Generated_Source\PSoC5/SPIM_PM.c **** 
 141:.\Generated_Source\PSoC5/SPIM_PM.c ****     /* Restore components block enable state */
 142:.\Generated_Source\PSoC5/SPIM_PM.c ****     if(0u != SPIM_backup.enableState)
 159              		.loc 1 142 0
 160 001a 064B     		ldr	r3, .L8+12
 161 001c 1B78     		ldrb	r3, [r3]	@ zero_extendqisi2
 162 001e 002B     		cmp	r3, #0
 163 0020 01D0     		beq	.L6
 143:.\Generated_Source\PSoC5/SPIM_PM.c ****     {
 144:.\Generated_Source\PSoC5/SPIM_PM.c ****         SPIM_Enable();
 164              		.loc 1 144 0
 165 0022 FFF7FEFF 		bl	SPIM_Enable
 166              	.L6:
 145:.\Generated_Source\PSoC5/SPIM_PM.c ****     }
 146:.\Generated_Source\PSoC5/SPIM_PM.c **** }
 167              		.loc 1 146 0
 168 0026 80BD     		pop	{r7, pc}
 169              	.L9:
 170              		.align	2
 171              	.L8:
 172 0028 00000000 		.word	SPIM_txBufferFull
 173 002c 00000000 		.word	SPIM_txBufferRead
 174 0030 00000000 		.word	SPIM_txBufferWrite
 175 0034 00000000 		.word	SPIM_backup
 176              		.cfi_endproc
 177              	.LFE3:
 178              		.size	SPIM_Wakeup, .-SPIM_Wakeup
 179              		.text
 180              	.Letext0:
 181              		.file 2 ".\\Generated_Source\\PSoC5\\cytypes.h"
 182              		.file 3 ".\\Generated_Source\\PSoC5\\SPIM.h"
 183              		.file 4 ".\\Generated_Source\\PSoC5\\SPIM_PVT.h"