ARM GAS  C:\Users\LUKASC~1\AppData\Local\Temp\ccJEfHFm.s 			page 1


   1              		.syntax unified
   2              		.cpu cortex-m3
   3              		.fpu softvfp
   4              		.eabi_attribute 20, 1
   5              		.eabi_attribute 21, 1
   6              		.eabi_attribute 23, 3
   7              		.eabi_attribute 24, 1
   8              		.eabi_attribute 25, 1
   9              		.eabi_attribute 26, 1
  10              		.eabi_attribute 30, 6
  11              		.eabi_attribute 34, 1
  12              		.eabi_attribute 18, 4
  13              		.thumb
  14              		.file	"spimaster.c"
  15              		.text
  16              	.Ltext0:
  17              		.cfi_sections	.debug_frame
  18              		.global _printf_float
  19              		.thumb
  20              		.comm	wrBuffer,64,4
  21              		.comm	temp,1,1
  22              		.section	.text.SPIinit,"ax",%progbits
  23              		.align	2
  24              		.global	SPIinit
  25              		.thumb
  26              		.thumb_func
  27              		.type	SPIinit, %function
  28              	SPIinit:
  29              	.LFB63:
  30              		.file 1 ".\\spimaster.c"
   1:.\spimaster.c **** /*******************************************************************************
   2:.\spimaster.c **** * File Name: spimaster.c
   3:.\spimaster.c **** *
   4:.\spimaster.c **** * Version: 1.2
   5:.\spimaster.c **** * Author: Lukas Creutzburg
   6:.\spimaster.c **** *
   7:.\spimaster.c **** * Description:
   8:.\spimaster.c **** *   Component sends data via SPI as Master
   9:.\spimaster.c **** *   Can send arrays
  10:.\spimaster.c **** *
  11:.\spimaster.c **** * Changes:
  12:.\spimaster.c **** *   -Extended for 32bit use
  13:.\spimaster.c **** *
  14:.\spimaster.c **** *******************************************************************************/
  15:.\spimaster.c **** 
  16:.\spimaster.c **** #include "spimaster.h"
  17:.\spimaster.c **** 
  18:.\spimaster.c **** /*******************************************************************************
  19:.\spimaster.c **** * Function Name: SPIinit
  20:.\spimaster.c **** ********************************************************************************
  21:.\spimaster.c **** *
  22:.\spimaster.c **** * Summary:
  23:.\spimaster.c **** *  Initialize communication
  24:.\spimaster.c **** *
  25:.\spimaster.c **** * Parameters:
  26:.\spimaster.c **** *  None.
  27:.\spimaster.c **** *
ARM GAS  C:\Users\LUKASC~1\AppData\Local\Temp\ccJEfHFm.s 			page 2


  28:.\spimaster.c **** * Return:
  29:.\spimaster.c **** *  None.
  30:.\spimaster.c **** *
  31:.\spimaster.c **** *******************************************************************************/
  32:.\spimaster.c **** void SPIinit()
  33:.\spimaster.c **** {
  31              		.loc 1 33 0
  32              		.cfi_startproc
  33              		@ args = 0, pretend = 0, frame = 0
  34              		@ frame_needed = 1, uses_anonymous_args = 0
  35 0000 80B5     		push	{r7, lr}
  36              		.cfi_def_cfa_offset 8
  37              		.cfi_offset 7, -8
  38              		.cfi_offset 14, -4
  39 0002 00AF     		add	r7, sp, #0
  40              		.cfi_def_cfa_register 7
  34:.\spimaster.c ****     SPIM_Start();
  41              		.loc 1 34 0
  42 0004 FFF7FEFF 		bl	SPIM_Start
  35:.\spimaster.c **** }
  43              		.loc 1 35 0
  44 0008 80BD     		pop	{r7, pc}
  45              		.cfi_endproc
  46              	.LFE63:
  47              		.size	SPIinit, .-SPIinit
  48 000a 00BF     		.section	.text.SPIsendNumber,"ax",%progbits
  49              		.align	2
  50              		.global	SPIsendNumber
  51              		.thumb
  52              		.thumb_func
  53              		.type	SPIsendNumber, %function
  54              	SPIsendNumber:
  55              	.LFB64:
  36:.\spimaster.c **** 
  37:.\spimaster.c **** /*******************************************************************************
  38:.\spimaster.c **** * Function Name: SPIsendNumber
  39:.\spimaster.c **** ********************************************************************************
  40:.\spimaster.c **** *
  41:.\spimaster.c **** * Summary:
  42:.\spimaster.c **** *  Sending a Number via SPI as Master
  43:.\spimaster.c **** *
  44:.\spimaster.c **** * Parameters:
  45:.\spimaster.c **** *  uint16 number
  46:.\spimaster.c **** *
  47:.\spimaster.c **** * Return:
  48:.\spimaster.c **** *  None.
  49:.\spimaster.c **** *
  50:.\spimaster.c **** *******************************************************************************/
  51:.\spimaster.c **** void SPIsendNumber(uint16 number)
  52:.\spimaster.c **** {
  56              		.loc 1 52 0
  57              		.cfi_startproc
  58              		@ args = 0, pretend = 0, frame = 8
  59              		@ frame_needed = 1, uses_anonymous_args = 0
  60 0000 80B5     		push	{r7, lr}
  61              		.cfi_def_cfa_offset 8
  62              		.cfi_offset 7, -8
ARM GAS  C:\Users\LUKASC~1\AppData\Local\Temp\ccJEfHFm.s 			page 3


  63              		.cfi_offset 14, -4
  64 0002 82B0     		sub	sp, sp, #8
  65              		.cfi_def_cfa_offset 16
  66 0004 00AF     		add	r7, sp, #0
  67              		.cfi_def_cfa_register 7
  68 0006 0346     		mov	r3, r0
  69 0008 FB80     		strh	r3, [r7, #6]	@ movhi
  53:.\spimaster.c **** 
  54:.\spimaster.c ****     /* Warten auf abschliessen der TX Uebertragung */
  55:.\spimaster.c ****     while(!(SPIM_ReadTxStatus() & (SPIM_STS_SPI_DONE | SPIM_STS_SPI_IDLE)));
  70              		.loc 1 55 0
  71 000a 00BF     		nop
  72              	.L3:
  73              		.loc 1 55 0 is_stmt 0 discriminator 1
  74 000c FFF7FEFF 		bl	SPIM_ReadTxStatus
  75 0010 0346     		mov	r3, r0
  76 0012 03F01103 		and	r3, r3, #17
  77 0016 002B     		cmp	r3, #0
  78 0018 F8D0     		beq	.L3
  56:.\spimaster.c ****     /* Senden eines Wortes */
  57:.\spimaster.c ****     SPIM_WriteTxData(number);
  79              		.loc 1 57 0 is_stmt 1
  80 001a FB88     		ldrh	r3, [r7, #6]
  81 001c 1846     		mov	r0, r3
  82 001e FFF7FEFF 		bl	SPIM_WriteTxData
  58:.\spimaster.c ****     CyDelayUs(5);
  83              		.loc 1 58 0
  84 0022 0520     		movs	r0, #5
  85 0024 FFF7FEFF 		bl	CyDelayUs
  59:.\spimaster.c **** }
  86              		.loc 1 59 0
  87 0028 0837     		adds	r7, r7, #8
  88              		.cfi_def_cfa_offset 8
  89 002a BD46     		mov	sp, r7
  90              		.cfi_def_cfa_register 13
  91              		@ sp needed
  92 002c 80BD     		pop	{r7, pc}
  93              		.cfi_endproc
  94              	.LFE64:
  95              		.size	SPIsendNumber, .-SPIsendNumber
  96 002e 00BF     		.section	.text.SPIsendNumber32,"ax",%progbits
  97              		.align	2
  98              		.global	SPIsendNumber32
  99              		.thumb
 100              		.thumb_func
 101              		.type	SPIsendNumber32, %function
 102              	SPIsendNumber32:
 103              	.LFB65:
  60:.\spimaster.c **** 
  61:.\spimaster.c **** /*******************************************************************************
  62:.\spimaster.c **** * Function Name: SPIsendNumber32
  63:.\spimaster.c **** ********************************************************************************
  64:.\spimaster.c **** *
  65:.\spimaster.c **** * Summary:
  66:.\spimaster.c **** *  Sending a Number via SPI as Master
  67:.\spimaster.c **** *
  68:.\spimaster.c **** * Parameters:
ARM GAS  C:\Users\LUKASC~1\AppData\Local\Temp\ccJEfHFm.s 			page 4


  69:.\spimaster.c **** *  uint32 number
  70:.\spimaster.c **** *
  71:.\spimaster.c **** * Return:
  72:.\spimaster.c **** *  None.
  73:.\spimaster.c **** *
  74:.\spimaster.c **** *******************************************************************************/
  75:.\spimaster.c **** void SPIsendNumber32(uint32 number)
  76:.\spimaster.c **** {
 104              		.loc 1 76 0
 105              		.cfi_startproc
 106              		@ args = 0, pretend = 0, frame = 8
 107              		@ frame_needed = 1, uses_anonymous_args = 0
 108 0000 80B5     		push	{r7, lr}
 109              		.cfi_def_cfa_offset 8
 110              		.cfi_offset 7, -8
 111              		.cfi_offset 14, -4
 112 0002 82B0     		sub	sp, sp, #8
 113              		.cfi_def_cfa_offset 16
 114 0004 00AF     		add	r7, sp, #0
 115              		.cfi_def_cfa_register 7
 116 0006 7860     		str	r0, [r7, #4]
  77:.\spimaster.c **** 
  78:.\spimaster.c ****     /* Warten auf abschliessen der TX Uebertragung */
  79:.\spimaster.c ****     while(!(SPIM_ReadTxStatus() & (SPIM_STS_SPI_DONE | SPIM_STS_SPI_IDLE)));
 117              		.loc 1 79 0
 118 0008 00BF     		nop
 119              	.L5:
 120              		.loc 1 79 0 is_stmt 0 discriminator 1
 121 000a FFF7FEFF 		bl	SPIM_ReadTxStatus
 122 000e 0346     		mov	r3, r0
 123 0010 03F01103 		and	r3, r3, #17
 124 0014 002B     		cmp	r3, #0
 125 0016 F8D0     		beq	.L5
  80:.\spimaster.c **** 
  81:.\spimaster.c ****     /* Enable setzen */
  82:.\spimaster.c ****     SS_control_Write(0);
 126              		.loc 1 82 0 is_stmt 1
 127 0018 0020     		movs	r0, #0
 128 001a FFF7FEFF 		bl	SS_control_Write
  83:.\spimaster.c ****     SPIsendNumber((uint16)(number >> 16));
 129              		.loc 1 83 0
 130 001e 7B68     		ldr	r3, [r7, #4]
 131 0020 1B0C     		lsrs	r3, r3, #16
 132 0022 9BB2     		uxth	r3, r3
 133 0024 1846     		mov	r0, r3
 134 0026 FFF7FEFF 		bl	SPIsendNumber
  84:.\spimaster.c ****     SPIsendNumber((uint16)(number & 0x0000FFFF));
 135              		.loc 1 84 0
 136 002a 7B68     		ldr	r3, [r7, #4]
 137 002c 9BB2     		uxth	r3, r3
 138 002e 1846     		mov	r0, r3
 139 0030 FFF7FEFF 		bl	SPIsendNumber
  85:.\spimaster.c ****     /* Warten auf abschließen der TX UEbertragung */
  86:.\spimaster.c ****     while(!(SPIM_ReadTxStatus() & (SPIM_STS_SPI_DONE | SPIM_STS_SPI_IDLE)));
 140              		.loc 1 86 0
 141 0034 00BF     		nop
 142              	.L6:
ARM GAS  C:\Users\LUKASC~1\AppData\Local\Temp\ccJEfHFm.s 			page 5


 143              		.loc 1 86 0 is_stmt 0 discriminator 1
 144 0036 FFF7FEFF 		bl	SPIM_ReadTxStatus
 145 003a 0346     		mov	r3, r0
 146 003c 03F01103 		and	r3, r3, #17
 147 0040 002B     		cmp	r3, #0
 148 0042 F8D0     		beq	.L6
  87:.\spimaster.c ****     /* Enable reset */
  88:.\spimaster.c ****     SS_control_Write(1);
 149              		.loc 1 88 0 is_stmt 1
 150 0044 0120     		movs	r0, #1
 151 0046 FFF7FEFF 		bl	SS_control_Write
  89:.\spimaster.c **** }
 152              		.loc 1 89 0
 153 004a 0837     		adds	r7, r7, #8
 154              		.cfi_def_cfa_offset 8
 155 004c BD46     		mov	sp, r7
 156              		.cfi_def_cfa_register 13
 157              		@ sp needed
 158 004e 80BD     		pop	{r7, pc}
 159              		.cfi_endproc
 160              	.LFE65:
 161              		.size	SPIsendNumber32, .-SPIsendNumber32
 162              		.section	.text.SPIsendArray,"ax",%progbits
 163              		.align	2
 164              		.global	SPIsendArray
 165              		.thumb
 166              		.thumb_func
 167              		.type	SPIsendArray, %function
 168              	SPIsendArray:
 169              	.LFB66:
  90:.\spimaster.c **** 
  91:.\spimaster.c **** 
  92:.\spimaster.c **** /*******************************************************************************
  93:.\spimaster.c **** * Function Name: SPIsendArray
  94:.\spimaster.c **** ********************************************************************************
  95:.\spimaster.c **** *
  96:.\spimaster.c **** * Summary:
  97:.\spimaster.c **** *  Sending an Array via SPI as Master
  98:.\spimaster.c **** *
  99:.\spimaster.c **** * Parameters:
 100:.\spimaster.c **** *  uint8 numbers[]
 101:.\spimaster.c **** *
 102:.\spimaster.c **** * Return:
 103:.\spimaster.c **** *  None.
 104:.\spimaster.c **** *
 105:.\spimaster.c **** *******************************************************************************/
 106:.\spimaster.c **** void SPIsendArray(uint16 numbers[])
 107:.\spimaster.c **** {
 170              		.loc 1 107 0
 171              		.cfi_startproc
 172              		@ args = 0, pretend = 0, frame = 8
 173              		@ frame_needed = 1, uses_anonymous_args = 0
 174 0000 80B5     		push	{r7, lr}
 175              		.cfi_def_cfa_offset 8
 176              		.cfi_offset 7, -8
 177              		.cfi_offset 14, -4
 178 0002 82B0     		sub	sp, sp, #8
ARM GAS  C:\Users\LUKASC~1\AppData\Local\Temp\ccJEfHFm.s 			page 6


 179              		.cfi_def_cfa_offset 16
 180 0004 00AF     		add	r7, sp, #0
 181              		.cfi_def_cfa_register 7
 182 0006 7860     		str	r0, [r7, #4]
 108:.\spimaster.c ****     /* Warten auf abschliessen der TX Uebertragung */
 109:.\spimaster.c ****     while(!(SPIM_ReadTxStatus() & (SPIM_STS_SPI_DONE | SPIM_STS_SPI_IDLE)))
 183              		.loc 1 109 0
 184 0008 02E0     		b	.L8
 185              	.L9:
 110:.\spimaster.c ****     {
 111:.\spimaster.c ****         CyDelayUs(5);
 186              		.loc 1 111 0
 187 000a 0520     		movs	r0, #5
 188 000c FFF7FEFF 		bl	CyDelayUs
 189              	.L8:
 109:.\spimaster.c ****     {
 190              		.loc 1 109 0
 191 0010 FFF7FEFF 		bl	SPIM_ReadTxStatus
 192 0014 0346     		mov	r3, r0
 193 0016 03F01103 		and	r3, r3, #17
 194 001a 002B     		cmp	r3, #0
 195 001c F5D0     		beq	.L9
 112:.\spimaster.c ****     }
 113:.\spimaster.c **** 
 114:.\spimaster.c ****     SPIM_PutArray(numbers,2);
 196              		.loc 1 114 0
 197 001e 7868     		ldr	r0, [r7, #4]
 198 0020 0221     		movs	r1, #2
 199 0022 FFF7FEFF 		bl	SPIM_PutArray
 115:.\spimaster.c **** }
 200              		.loc 1 115 0
 201 0026 0837     		adds	r7, r7, #8
 202              		.cfi_def_cfa_offset 8
 203 0028 BD46     		mov	sp, r7
 204              		.cfi_def_cfa_register 13
 205              		@ sp needed
 206 002a 80BD     		pop	{r7, pc}
 207              		.cfi_endproc
 208              	.LFE66:
 209              		.size	SPIsendArray, .-SPIsendArray
 210              		.section	.text.SPIsendArray32,"ax",%progbits
 211              		.align	2
 212              		.global	SPIsendArray32
 213              		.thumb
 214              		.thumb_func
 215              		.type	SPIsendArray32, %function
 216              	SPIsendArray32:
 217              	.LFB67:
 116:.\spimaster.c **** 
 117:.\spimaster.c **** /*******************************************************************************
 118:.\spimaster.c **** * Function Name: SPIsendArray32
 119:.\spimaster.c **** ********************************************************************************
 120:.\spimaster.c **** *
 121:.\spimaster.c **** * Summary:
 122:.\spimaster.c **** *  Sending an Array via SPI as Master
 123:.\spimaster.c **** *
 124:.\spimaster.c **** * Parameters:
ARM GAS  C:\Users\LUKASC~1\AppData\Local\Temp\ccJEfHFm.s 			page 7


 125:.\spimaster.c **** *  uint8 numbers[]
 126:.\spimaster.c **** *
 127:.\spimaster.c **** * Return:
 128:.\spimaster.c **** *  None.
 129:.\spimaster.c **** *
 130:.\spimaster.c **** *******************************************************************************/
 131:.\spimaster.c **** void SPIsendArray32(uint32 numbers[],int arraysize)
 132:.\spimaster.c **** {
 218              		.loc 1 132 0
 219              		.cfi_startproc
 220              		@ args = 0, pretend = 0, frame = 16
 221              		@ frame_needed = 1, uses_anonymous_args = 0
 222 0000 80B5     		push	{r7, lr}
 223              		.cfi_def_cfa_offset 8
 224              		.cfi_offset 7, -8
 225              		.cfi_offset 14, -4
 226 0002 84B0     		sub	sp, sp, #16
 227              		.cfi_def_cfa_offset 24
 228 0004 00AF     		add	r7, sp, #0
 229              		.cfi_def_cfa_register 7
 230 0006 7860     		str	r0, [r7, #4]
 231 0008 3960     		str	r1, [r7]
 133:.\spimaster.c ****     /* Warten auf abschliessen der TX Uebertragung */
 134:.\spimaster.c ****     while(!(SPIM_ReadTxStatus() & (SPIM_STS_SPI_DONE | SPIM_STS_SPI_IDLE)))
 232              		.loc 1 134 0
 233 000a 02E0     		b	.L11
 234              	.L12:
 135:.\spimaster.c ****     {
 136:.\spimaster.c ****         CyDelayUs(5);
 235              		.loc 1 136 0
 236 000c 0520     		movs	r0, #5
 237 000e FFF7FEFF 		bl	CyDelayUs
 238              	.L11:
 134:.\spimaster.c ****     {
 239              		.loc 1 134 0
 240 0012 FFF7FEFF 		bl	SPIM_ReadTxStatus
 241 0016 0346     		mov	r3, r0
 242 0018 03F01103 		and	r3, r3, #17
 243 001c 002B     		cmp	r3, #0
 244 001e F5D0     		beq	.L12
 137:.\spimaster.c ****     }
 138:.\spimaster.c **** 
 139:.\spimaster.c ****     int i;
 140:.\spimaster.c ****     for(i=0;i<arraysize;i++)
 245              		.loc 1 140 0
 246 0020 0023     		movs	r3, #0
 247 0022 FB60     		str	r3, [r7, #12]
 248 0024 0AE0     		b	.L13
 249              	.L14:
 141:.\spimaster.c ****     {
 142:.\spimaster.c ****         SPIsendNumber32(numbers[i]);
 250              		.loc 1 142 0 discriminator 3
 251 0026 FB68     		ldr	r3, [r7, #12]
 252 0028 9B00     		lsls	r3, r3, #2
 253 002a 7A68     		ldr	r2, [r7, #4]
 254 002c 1344     		add	r3, r3, r2
 255 002e 1B68     		ldr	r3, [r3]
ARM GAS  C:\Users\LUKASC~1\AppData\Local\Temp\ccJEfHFm.s 			page 8


 256 0030 1846     		mov	r0, r3
 257 0032 FFF7FEFF 		bl	SPIsendNumber32
 140:.\spimaster.c ****     {
 258              		.loc 1 140 0 discriminator 3
 259 0036 FB68     		ldr	r3, [r7, #12]
 260 0038 0133     		adds	r3, r3, #1
 261 003a FB60     		str	r3, [r7, #12]
 262              	.L13:
 140:.\spimaster.c ****     {
 263              		.loc 1 140 0 is_stmt 0 discriminator 1
 264 003c FA68     		ldr	r2, [r7, #12]
 265 003e 3B68     		ldr	r3, [r7]
 266 0040 9A42     		cmp	r2, r3
 267 0042 F0DB     		blt	.L14
 143:.\spimaster.c ****     }
 144:.\spimaster.c **** 
 145:.\spimaster.c **** }
 268              		.loc 1 145 0 is_stmt 1
 269 0044 1037     		adds	r7, r7, #16
 270              		.cfi_def_cfa_offset 8
 271 0046 BD46     		mov	sp, r7
 272              		.cfi_def_cfa_register 13
 273              		@ sp needed
 274 0048 80BD     		pop	{r7, pc}
 275              		.cfi_endproc
 276              	.LFE67:
 277              		.size	SPIsendArray32, .-SPIsendArray32
 278 004a 00BF     		.text
 279              	.Letext0:
 280              		.file 2 "c:\\program files (x86)\\cypress\\psoc creator\\3.3\\psoc creator\\import\\gnu\\arm\\4.9.
 281              		.file 3 "c:\\program files (x86)\\cypress\\psoc creator\\3.3\\psoc creator\\import\\gnu\\arm\\4.9.
 282              		.file 4 "Generated_Source\\PSoC5/cytypes.h"
 283              		.file 5 "Generated_Source\\PSoC5/core_cm3.h"
 284              		.file 6 ".\\spimaster.h"