ARM GAS  C:\Users\LUKASC~1\AppData\Local\Temp\ccEBL3AB.s 			page 1


   1              		.syntax unified
   2              		.cpu cortex-m3
   3              		.fpu softvfp
   4              		.eabi_attribute 20, 1
   5              		.eabi_attribute 21, 1
   6              		.eabi_attribute 23, 3
   7              		.eabi_attribute 24, 1
   8              		.eabi_attribute 25, 1
   9              		.eabi_attribute 26, 1
  10              		.eabi_attribute 30, 6
  11              		.eabi_attribute 34, 1
  12              		.eabi_attribute 18, 4
  13              		.thumb
  14              		.file	"SPIS_INT.c"
  15              		.text
  16              	.Ltext0:
  17              		.cfi_sections	.debug_frame
  18              		.section	.text.SPIS_TX_ISR,"ax",%progbits
  19              		.align	2
  20              		.global	SPIS_TX_ISR
  21              		.thumb
  22              		.thumb_func
  23              		.type	SPIS_TX_ISR, %function
  24              	SPIS_TX_ISR:
  25              	.LFB0:
  26              		.file 1 ".\\Generated_Source\\PSoC5\\SPIS_INT.c"
   1:.\Generated_Source\PSoC5/SPIS_INT.c **** /*******************************************************************************
   2:.\Generated_Source\PSoC5/SPIS_INT.c **** * File Name: SPIS_INT.c
   3:.\Generated_Source\PSoC5/SPIS_INT.c **** * Version 2.70
   4:.\Generated_Source\PSoC5/SPIS_INT.c **** *
   5:.\Generated_Source\PSoC5/SPIS_INT.c **** * Description:
   6:.\Generated_Source\PSoC5/SPIS_INT.c **** *  This file provides all Interrupt Service Routine (ISR) for the SPI Slave
   7:.\Generated_Source\PSoC5/SPIS_INT.c **** *  component.
   8:.\Generated_Source\PSoC5/SPIS_INT.c **** *
   9:.\Generated_Source\PSoC5/SPIS_INT.c **** * Note:
  10:.\Generated_Source\PSoC5/SPIS_INT.c **** *  None.
  11:.\Generated_Source\PSoC5/SPIS_INT.c **** *
  12:.\Generated_Source\PSoC5/SPIS_INT.c **** ********************************************************************************
  13:.\Generated_Source\PSoC5/SPIS_INT.c **** * Copyright 2008-2015, Cypress Semiconductor Corporation.  All rights reserved.
  14:.\Generated_Source\PSoC5/SPIS_INT.c **** * You may use this file only in accordance with the license, terms, conditions,
  15:.\Generated_Source\PSoC5/SPIS_INT.c **** * disclaimers, and limitations in the end user license agreement accompanying
  16:.\Generated_Source\PSoC5/SPIS_INT.c **** * the software package with which this file was provided.
  17:.\Generated_Source\PSoC5/SPIS_INT.c **** *******************************************************************************/
  18:.\Generated_Source\PSoC5/SPIS_INT.c **** 
  19:.\Generated_Source\PSoC5/SPIS_INT.c **** #include "SPIS_PVT.h"
  20:.\Generated_Source\PSoC5/SPIS_INT.c **** #include "cyapicallbacks.h"
  21:.\Generated_Source\PSoC5/SPIS_INT.c **** 
  22:.\Generated_Source\PSoC5/SPIS_INT.c **** /* User code required at start of ISR */
  23:.\Generated_Source\PSoC5/SPIS_INT.c **** /* `#START SPIS_ISR_START_DEF` */
  24:.\Generated_Source\PSoC5/SPIS_INT.c **** 
  25:.\Generated_Source\PSoC5/SPIS_INT.c **** /* `#END` */
  26:.\Generated_Source\PSoC5/SPIS_INT.c **** 
  27:.\Generated_Source\PSoC5/SPIS_INT.c **** 
  28:.\Generated_Source\PSoC5/SPIS_INT.c **** /*******************************************************************************
  29:.\Generated_Source\PSoC5/SPIS_INT.c **** * Function Name: SPIS_TX_ISR
  30:.\Generated_Source\PSoC5/SPIS_INT.c **** *
  31:.\Generated_Source\PSoC5/SPIS_INT.c **** * Summary:
ARM GAS  C:\Users\LUKASC~1\AppData\Local\Temp\ccEBL3AB.s 			page 2


  32:.\Generated_Source\PSoC5/SPIS_INT.c **** *  Interrupt Service Routine for TX portion of the SPI Slave.
  33:.\Generated_Source\PSoC5/SPIS_INT.c **** *
  34:.\Generated_Source\PSoC5/SPIS_INT.c **** * Parameters:
  35:.\Generated_Source\PSoC5/SPIS_INT.c **** *  None.
  36:.\Generated_Source\PSoC5/SPIS_INT.c **** *
  37:.\Generated_Source\PSoC5/SPIS_INT.c **** * Return:
  38:.\Generated_Source\PSoC5/SPIS_INT.c **** *  None.
  39:.\Generated_Source\PSoC5/SPIS_INT.c **** *
  40:.\Generated_Source\PSoC5/SPIS_INT.c **** * Global variables:
  41:.\Generated_Source\PSoC5/SPIS_INT.c **** *  SPIS_txBufferWrite - used for the account of the bytes which
  42:.\Generated_Source\PSoC5/SPIS_INT.c **** *  have been written down in the TX software buffer.
  43:.\Generated_Source\PSoC5/SPIS_INT.c **** *  SPIS_txBufferRead - used for the account of the bytes which
  44:.\Generated_Source\PSoC5/SPIS_INT.c **** *  have been read from the TX software buffer, modified when exist data to
  45:.\Generated_Source\PSoC5/SPIS_INT.c **** *  sending and FIFO Not Full.
  46:.\Generated_Source\PSoC5/SPIS_INT.c **** *  SPIS_txBuffer[SPIS_TX_BUFFER_SIZE] - used to store
  47:.\Generated_Source\PSoC5/SPIS_INT.c **** *  data to sending.
  48:.\Generated_Source\PSoC5/SPIS_INT.c **** *  All described above Global variables are used when Software Buffer is used.
  49:.\Generated_Source\PSoC5/SPIS_INT.c **** *
  50:.\Generated_Source\PSoC5/SPIS_INT.c **** *******************************************************************************/
  51:.\Generated_Source\PSoC5/SPIS_INT.c **** CY_ISR(SPIS_TX_ISR)
  52:.\Generated_Source\PSoC5/SPIS_INT.c **** {
  27              		.loc 1 52 0
  28              		.cfi_startproc
  29              		@ args = 0, pretend = 0, frame = 0
  30              		@ frame_needed = 1, uses_anonymous_args = 0
  31              		@ link register save eliminated.
  32 0000 80B4     		push	{r7}
  33              		.cfi_def_cfa_offset 4
  34              		.cfi_offset 7, -4
  35 0002 00AF     		add	r7, sp, #0
  36              		.cfi_def_cfa_register 7
  53:.\Generated_Source\PSoC5/SPIS_INT.c **** 
  54:.\Generated_Source\PSoC5/SPIS_INT.c ****     #if(SPIS_TX_SOFTWARE_BUF_ENABLED)
  55:.\Generated_Source\PSoC5/SPIS_INT.c ****         uint8 tmpStatus;
  56:.\Generated_Source\PSoC5/SPIS_INT.c ****     #endif /* (SPIS_TX_SOFTWARE_BUF_ENABLED) */
  57:.\Generated_Source\PSoC5/SPIS_INT.c **** 
  58:.\Generated_Source\PSoC5/SPIS_INT.c ****     #ifdef SPIS_TX_ISR_ENTRY_CALLBACK
  59:.\Generated_Source\PSoC5/SPIS_INT.c ****         SPIS_TX_ISR_EntryCallback();
  60:.\Generated_Source\PSoC5/SPIS_INT.c ****     #endif /* SPIS_TX_ISR_ENTRY_CALLBACK */
  61:.\Generated_Source\PSoC5/SPIS_INT.c **** 
  62:.\Generated_Source\PSoC5/SPIS_INT.c ****     /* User code required at start of ISR */
  63:.\Generated_Source\PSoC5/SPIS_INT.c ****     /* `#START SPIS_ISR_TX_START` */
  64:.\Generated_Source\PSoC5/SPIS_INT.c **** 
  65:.\Generated_Source\PSoC5/SPIS_INT.c ****     /* `#END` */
  66:.\Generated_Source\PSoC5/SPIS_INT.c **** 
  67:.\Generated_Source\PSoC5/SPIS_INT.c ****     #if(SPIS_TX_SOFTWARE_BUF_ENABLED)
  68:.\Generated_Source\PSoC5/SPIS_INT.c ****         /* Component interrupt service code */
  69:.\Generated_Source\PSoC5/SPIS_INT.c **** 
  70:.\Generated_Source\PSoC5/SPIS_INT.c ****         /* See if TX data buffer is not empty and there is space in TX FIFO */
  71:.\Generated_Source\PSoC5/SPIS_INT.c ****         while(SPIS_txBufferRead != SPIS_txBufferWrite)
  72:.\Generated_Source\PSoC5/SPIS_INT.c ****         {
  73:.\Generated_Source\PSoC5/SPIS_INT.c ****             tmpStatus = SPIS_GET_STATUS_TX(SPIS_swStatusTx);
  74:.\Generated_Source\PSoC5/SPIS_INT.c ****             SPIS_swStatusTx = tmpStatus;
  75:.\Generated_Source\PSoC5/SPIS_INT.c **** 
  76:.\Generated_Source\PSoC5/SPIS_INT.c ****             if ((SPIS_swStatusTx & SPIS_STS_TX_FIFO_NOT_FULL) != 0u)
  77:.\Generated_Source\PSoC5/SPIS_INT.c ****             {
  78:.\Generated_Source\PSoC5/SPIS_INT.c ****                 if(SPIS_txBufferFull == 0u)
ARM GAS  C:\Users\LUKASC~1\AppData\Local\Temp\ccEBL3AB.s 			page 3


  79:.\Generated_Source\PSoC5/SPIS_INT.c ****                 {
  80:.\Generated_Source\PSoC5/SPIS_INT.c ****                    SPIS_txBufferRead++;
  81:.\Generated_Source\PSoC5/SPIS_INT.c **** 
  82:.\Generated_Source\PSoC5/SPIS_INT.c ****                     if(SPIS_txBufferRead >= SPIS_TX_BUFFER_SIZE)
  83:.\Generated_Source\PSoC5/SPIS_INT.c ****                     {
  84:.\Generated_Source\PSoC5/SPIS_INT.c ****                         SPIS_txBufferRead = 0u;
  85:.\Generated_Source\PSoC5/SPIS_INT.c ****                     }
  86:.\Generated_Source\PSoC5/SPIS_INT.c ****                 }
  87:.\Generated_Source\PSoC5/SPIS_INT.c ****                 else
  88:.\Generated_Source\PSoC5/SPIS_INT.c ****                 {
  89:.\Generated_Source\PSoC5/SPIS_INT.c ****                     SPIS_txBufferFull = 0u;
  90:.\Generated_Source\PSoC5/SPIS_INT.c ****                 }
  91:.\Generated_Source\PSoC5/SPIS_INT.c **** 
  92:.\Generated_Source\PSoC5/SPIS_INT.c ****                 /* Put data element into the TX FIFO */
  93:.\Generated_Source\PSoC5/SPIS_INT.c ****                 CY_SET_REG8(SPIS_TXDATA_PTR, 
  94:.\Generated_Source\PSoC5/SPIS_INT.c ****                                              SPIS_txBuffer[SPIS_txBufferRead]);
  95:.\Generated_Source\PSoC5/SPIS_INT.c ****             }
  96:.\Generated_Source\PSoC5/SPIS_INT.c ****             else
  97:.\Generated_Source\PSoC5/SPIS_INT.c ****             {
  98:.\Generated_Source\PSoC5/SPIS_INT.c ****                 break;
  99:.\Generated_Source\PSoC5/SPIS_INT.c ****             }
 100:.\Generated_Source\PSoC5/SPIS_INT.c ****         }
 101:.\Generated_Source\PSoC5/SPIS_INT.c **** 
 102:.\Generated_Source\PSoC5/SPIS_INT.c ****         /* If Buffer is empty then disable TX FIFO status interrupt until there is data in the buff
 103:.\Generated_Source\PSoC5/SPIS_INT.c ****         if(SPIS_txBufferRead == SPIS_txBufferWrite)
 104:.\Generated_Source\PSoC5/SPIS_INT.c ****         {
 105:.\Generated_Source\PSoC5/SPIS_INT.c ****             SPIS_TX_STATUS_MASK_REG &= ((uint8)~SPIS_STS_TX_FIFO_NOT_FULL);
 106:.\Generated_Source\PSoC5/SPIS_INT.c ****         }
 107:.\Generated_Source\PSoC5/SPIS_INT.c **** 
 108:.\Generated_Source\PSoC5/SPIS_INT.c ****     #endif /* SPIS_TX_SOFTWARE_BUF_ENABLED */
 109:.\Generated_Source\PSoC5/SPIS_INT.c **** 
 110:.\Generated_Source\PSoC5/SPIS_INT.c ****     /* User code required at end of ISR (Optional) */
 111:.\Generated_Source\PSoC5/SPIS_INT.c ****     /* `#START SPIS_ISR_TX_END` */
 112:.\Generated_Source\PSoC5/SPIS_INT.c **** 
 113:.\Generated_Source\PSoC5/SPIS_INT.c ****     /* `#END` */
 114:.\Generated_Source\PSoC5/SPIS_INT.c ****     
 115:.\Generated_Source\PSoC5/SPIS_INT.c ****     #ifdef SPIS_TX_ISR_EXIT_CALLBACK
 116:.\Generated_Source\PSoC5/SPIS_INT.c ****         SPIS_TX_ISR_ExitCallback();
 117:.\Generated_Source\PSoC5/SPIS_INT.c ****     #endif /* SPIS_TX_ISR_EXIT_CALLBACK */
 118:.\Generated_Source\PSoC5/SPIS_INT.c ****    }
  37              		.loc 1 118 0
  38 0004 BD46     		mov	sp, r7
  39              		.cfi_def_cfa_register 13
  40              		@ sp needed
  41 0006 5DF8047B 		ldr	r7, [sp], #4
  42              		.cfi_restore 7
  43              		.cfi_def_cfa_offset 0
  44 000a 7047     		bx	lr
  45              		.cfi_endproc
  46              	.LFE0:
  47              		.size	SPIS_TX_ISR, .-SPIS_TX_ISR
  48              		.section	.text.SPIS_RX_ISR,"ax",%progbits
  49              		.align	2
  50              		.global	SPIS_RX_ISR
  51              		.thumb
  52              		.thumb_func
  53              		.type	SPIS_RX_ISR, %function
ARM GAS  C:\Users\LUKASC~1\AppData\Local\Temp\ccEBL3AB.s 			page 4


  54              	SPIS_RX_ISR:
  55              	.LFB1:
 119:.\Generated_Source\PSoC5/SPIS_INT.c **** 
 120:.\Generated_Source\PSoC5/SPIS_INT.c **** 
 121:.\Generated_Source\PSoC5/SPIS_INT.c **** /*******************************************************************************
 122:.\Generated_Source\PSoC5/SPIS_INT.c **** * Function Name: SPIS_RX_ISR
 123:.\Generated_Source\PSoC5/SPIS_INT.c **** *
 124:.\Generated_Source\PSoC5/SPIS_INT.c **** * Summary:
 125:.\Generated_Source\PSoC5/SPIS_INT.c **** *  Interrupt Service Routine for RX portion of the SPI Slave.
 126:.\Generated_Source\PSoC5/SPIS_INT.c **** *
 127:.\Generated_Source\PSoC5/SPIS_INT.c **** * Parameters:
 128:.\Generated_Source\PSoC5/SPIS_INT.c **** *  None.
 129:.\Generated_Source\PSoC5/SPIS_INT.c **** *
 130:.\Generated_Source\PSoC5/SPIS_INT.c **** * Return:
 131:.\Generated_Source\PSoC5/SPIS_INT.c **** *  None.
 132:.\Generated_Source\PSoC5/SPIS_INT.c **** *
 133:.\Generated_Source\PSoC5/SPIS_INT.c **** * Global variables:
 134:.\Generated_Source\PSoC5/SPIS_INT.c **** *  SPIS_rxBufferWrite - used for the account of the bytes which
 135:.\Generated_Source\PSoC5/SPIS_INT.c **** *  have been written down in the RX software buffer modified when FIFO contains
 136:.\Generated_Source\PSoC5/SPIS_INT.c **** *  new data.
 137:.\Generated_Source\PSoC5/SPIS_INT.c **** *  SPIS_rxBufferRead - used for the account of the bytes which
 138:.\Generated_Source\PSoC5/SPIS_INT.c **** *  have been read from the RX software buffer, modified when overflow occurred.
 139:.\Generated_Source\PSoC5/SPIS_INT.c **** *  SPIS_rxBuffer[SPIS_RX_BUFFER_SIZE] - used to store
 140:.\Generated_Source\PSoC5/SPIS_INT.c **** *  received data, modified when FIFO contains new data.
 141:.\Generated_Source\PSoC5/SPIS_INT.c **** *  All described above Global variables are used when Software Buffer is used.
 142:.\Generated_Source\PSoC5/SPIS_INT.c **** *
 143:.\Generated_Source\PSoC5/SPIS_INT.c **** *******************************************************************************/
 144:.\Generated_Source\PSoC5/SPIS_INT.c **** CY_ISR(SPIS_RX_ISR)
 145:.\Generated_Source\PSoC5/SPIS_INT.c **** {
  56              		.loc 1 145 0
  57              		.cfi_startproc
  58              		@ args = 0, pretend = 0, frame = 0
  59              		@ frame_needed = 1, uses_anonymous_args = 0
  60              		@ link register save eliminated.
  61 0000 80B4     		push	{r7}
  62              		.cfi_def_cfa_offset 4
  63              		.cfi_offset 7, -4
  64 0002 00AF     		add	r7, sp, #0
  65              		.cfi_def_cfa_register 7
 146:.\Generated_Source\PSoC5/SPIS_INT.c ****     #if(SPIS_RX_SOFTWARE_BUF_ENABLED)
 147:.\Generated_Source\PSoC5/SPIS_INT.c ****         uint8 tmpStatus;
 148:.\Generated_Source\PSoC5/SPIS_INT.c ****         uint8 rxData;
 149:.\Generated_Source\PSoC5/SPIS_INT.c ****     #endif /* (SPIS_TX_SOFTWARE_BUF_ENABLED) */
 150:.\Generated_Source\PSoC5/SPIS_INT.c **** 
 151:.\Generated_Source\PSoC5/SPIS_INT.c ****     #ifdef SPIS_RX_ISR_ENTRY_CALLBACK
 152:.\Generated_Source\PSoC5/SPIS_INT.c ****         SPIS_RX_ISR_EntryCallback();
 153:.\Generated_Source\PSoC5/SPIS_INT.c ****     #endif /* SPIS_RX_ISR_ENTRY_CALLBACK */
 154:.\Generated_Source\PSoC5/SPIS_INT.c **** 
 155:.\Generated_Source\PSoC5/SPIS_INT.c ****     /* User code required at start of ISR */
 156:.\Generated_Source\PSoC5/SPIS_INT.c ****     /* `#START SPIS_RX_ISR_START` */
 157:.\Generated_Source\PSoC5/SPIS_INT.c **** 
 158:.\Generated_Source\PSoC5/SPIS_INT.c ****     /* `#END` */
 159:.\Generated_Source\PSoC5/SPIS_INT.c ****     
 160:.\Generated_Source\PSoC5/SPIS_INT.c ****     #if(SPIS_RX_SOFTWARE_BUF_ENABLED)
 161:.\Generated_Source\PSoC5/SPIS_INT.c ****         tmpStatus = SPIS_GET_STATUS_RX(SPIS_swStatusRx);
 162:.\Generated_Source\PSoC5/SPIS_INT.c ****         SPIS_swStatusRx = tmpStatus;
 163:.\Generated_Source\PSoC5/SPIS_INT.c ****         /* See if RX data FIFO has some data and if it can be moved to the RX Buffer */
ARM GAS  C:\Users\LUKASC~1\AppData\Local\Temp\ccEBL3AB.s 			page 5


 164:.\Generated_Source\PSoC5/SPIS_INT.c ****         while((SPIS_swStatusRx & SPIS_STS_RX_FIFO_NOT_EMPTY) != 0u)
 165:.\Generated_Source\PSoC5/SPIS_INT.c ****         {
 166:.\Generated_Source\PSoC5/SPIS_INT.c ****             rxData = CY_GET_REG8(SPIS_RXDATA_PTR);
 167:.\Generated_Source\PSoC5/SPIS_INT.c **** 
 168:.\Generated_Source\PSoC5/SPIS_INT.c ****             /* Set next pointer. */
 169:.\Generated_Source\PSoC5/SPIS_INT.c ****             SPIS_rxBufferWrite++;
 170:.\Generated_Source\PSoC5/SPIS_INT.c ****             if(SPIS_rxBufferWrite >= SPIS_RX_BUFFER_SIZE)
 171:.\Generated_Source\PSoC5/SPIS_INT.c ****             {
 172:.\Generated_Source\PSoC5/SPIS_INT.c ****                 SPIS_rxBufferWrite = 0u;
 173:.\Generated_Source\PSoC5/SPIS_INT.c ****             }
 174:.\Generated_Source\PSoC5/SPIS_INT.c **** 
 175:.\Generated_Source\PSoC5/SPIS_INT.c ****             if(SPIS_rxBufferWrite == SPIS_rxBufferRead)
 176:.\Generated_Source\PSoC5/SPIS_INT.c ****             {
 177:.\Generated_Source\PSoC5/SPIS_INT.c ****                 SPIS_rxBufferRead++;
 178:.\Generated_Source\PSoC5/SPIS_INT.c ****                 if(SPIS_rxBufferRead >= SPIS_RX_BUFFER_SIZE)
 179:.\Generated_Source\PSoC5/SPIS_INT.c ****                 {
 180:.\Generated_Source\PSoC5/SPIS_INT.c ****                     SPIS_rxBufferRead = 0u;
 181:.\Generated_Source\PSoC5/SPIS_INT.c ****                 }
 182:.\Generated_Source\PSoC5/SPIS_INT.c ****                 SPIS_rxBufferFull = 1u;
 183:.\Generated_Source\PSoC5/SPIS_INT.c ****             }
 184:.\Generated_Source\PSoC5/SPIS_INT.c **** 
 185:.\Generated_Source\PSoC5/SPIS_INT.c ****             /* Move data from the FIFO to the Buffer */
 186:.\Generated_Source\PSoC5/SPIS_INT.c ****             SPIS_rxBuffer[SPIS_rxBufferWrite] = rxData;
 187:.\Generated_Source\PSoC5/SPIS_INT.c **** 
 188:.\Generated_Source\PSoC5/SPIS_INT.c ****             tmpStatus = SPIS_GET_STATUS_RX(SPIS_swStatusRx);
 189:.\Generated_Source\PSoC5/SPIS_INT.c ****             SPIS_swStatusRx = tmpStatus;
 190:.\Generated_Source\PSoC5/SPIS_INT.c ****         }
 191:.\Generated_Source\PSoC5/SPIS_INT.c ****     #endif /* SPIS_RX_SOFTWARE_BUF_ENABLED */
 192:.\Generated_Source\PSoC5/SPIS_INT.c **** 
 193:.\Generated_Source\PSoC5/SPIS_INT.c ****     /* User code required at end of ISR (Optional) */
 194:.\Generated_Source\PSoC5/SPIS_INT.c ****     /* `#START SPIS_RX_ISR_END` */
 195:.\Generated_Source\PSoC5/SPIS_INT.c **** 
 196:.\Generated_Source\PSoC5/SPIS_INT.c ****     /* `#END` */
 197:.\Generated_Source\PSoC5/SPIS_INT.c **** 
 198:.\Generated_Source\PSoC5/SPIS_INT.c ****     #ifdef SPIS_RX_ISR_EXIT_CALLBACK
 199:.\Generated_Source\PSoC5/SPIS_INT.c ****         SPIS_RX_ISR_ExitCallback();
 200:.\Generated_Source\PSoC5/SPIS_INT.c ****     #endif /* SPIS_RX_ISR_EXIT_CALLBACK */
 201:.\Generated_Source\PSoC5/SPIS_INT.c **** }
  66              		.loc 1 201 0
  67 0004 BD46     		mov	sp, r7
  68              		.cfi_def_cfa_register 13
  69              		@ sp needed
  70 0006 5DF8047B 		ldr	r7, [sp], #4
  71              		.cfi_restore 7
  72              		.cfi_def_cfa_offset 0
  73 000a 7047     		bx	lr
  74              		.cfi_endproc
  75              	.LFE1:
  76              		.size	SPIS_RX_ISR, .-SPIS_RX_ISR
  77              		.text
  78              	.Letext0: