ARM GAS  C:\Users\LUKASC~1\AppData\Local\Temp\ccte1tQg.s 			page 1


   1              		.syntax unified
   2              		.cpu cortex-m3
   3              		.fpu softvfp
   4              		.eabi_attribute 20, 1
   5              		.eabi_attribute 21, 1
   6              		.eabi_attribute 23, 3
   7              		.eabi_attribute 24, 1
   8              		.eabi_attribute 25, 1
   9              		.eabi_attribute 26, 1
  10              		.eabi_attribute 30, 6
  11              		.eabi_attribute 34, 1
  12              		.eabi_attribute 18, 4
  13              		.thumb
  14              		.file	"SPIS.c"
  15              		.text
  16              	.Ltext0:
  17              		.cfi_sections	.debug_frame
  18              		.comm	SPIS_txBuffer,64,4
  19              		.comm	SPIS_txBufferRead,1,1
  20              		.comm	SPIS_txBufferWrite,1,1
  21              		.comm	SPIS_txBufferFull,1,1
  22              		.comm	SPIS_rxBuffer,64,4
  23              		.comm	SPIS_rxBufferRead,1,1
  24              		.comm	SPIS_rxBufferWrite,1,1
  25              		.comm	SPIS_rxBufferFull,1,1
  26              		.global	SPIS_initVar
  27              		.bss
  28              		.type	SPIS_initVar, %object
  29              		.size	SPIS_initVar, 1
  30              	SPIS_initVar:
  31 0000 00       		.space	1
  32              		.comm	SPIS_swStatusTx,1,1
  33              		.comm	SPIS_swStatusRx,1,1
  34              		.section	.text.SPIS_Init,"ax",%progbits
  35              		.align	2
  36              		.global	SPIS_Init
  37              		.thumb
  38              		.thumb_func
  39              		.type	SPIS_Init, %function
  40              	SPIS_Init:
  41              	.LFB0:
  42              		.file 1 ".\\Generated_Source\\PSoC5\\SPIS.c"
   1:.\Generated_Source\PSoC5/SPIS.c **** /*******************************************************************************
   2:.\Generated_Source\PSoC5/SPIS.c **** * File Name: SPIS.c
   3:.\Generated_Source\PSoC5/SPIS.c **** * Version 2.70
   4:.\Generated_Source\PSoC5/SPIS.c **** *
   5:.\Generated_Source\PSoC5/SPIS.c **** * Description:
   6:.\Generated_Source\PSoC5/SPIS.c **** *  This file provides all API functionality of the SPI Slave component.
   7:.\Generated_Source\PSoC5/SPIS.c **** *
   8:.\Generated_Source\PSoC5/SPIS.c **** * Note:
   9:.\Generated_Source\PSoC5/SPIS.c **** *  None.
  10:.\Generated_Source\PSoC5/SPIS.c **** *
  11:.\Generated_Source\PSoC5/SPIS.c **** ********************************************************************************
  12:.\Generated_Source\PSoC5/SPIS.c **** * Copyright 2008-2015, Cypress Semiconductor Corporation.  All rights reserved.
  13:.\Generated_Source\PSoC5/SPIS.c **** * You may use this file only in accordance with the license, terms, conditions,
  14:.\Generated_Source\PSoC5/SPIS.c **** * disclaimers, and limitations in the end user license agreement accompanying
  15:.\Generated_Source\PSoC5/SPIS.c **** * the software package with which this file was provided.
ARM GAS  C:\Users\LUKASC~1\AppData\Local\Temp\ccte1tQg.s 			page 2


  16:.\Generated_Source\PSoC5/SPIS.c **** *******************************************************************************/
  17:.\Generated_Source\PSoC5/SPIS.c **** 
  18:.\Generated_Source\PSoC5/SPIS.c **** #include "SPIS_PVT.h"
  19:.\Generated_Source\PSoC5/SPIS.c **** 
  20:.\Generated_Source\PSoC5/SPIS.c **** #if (SPIS_TX_SOFTWARE_BUF_ENABLED)
  21:.\Generated_Source\PSoC5/SPIS.c **** 
  22:.\Generated_Source\PSoC5/SPIS.c ****     volatile uint8 SPIS_txBuffer[SPIS_TX_BUFFER_SIZE];
  23:.\Generated_Source\PSoC5/SPIS.c ****     volatile uint8 SPIS_txBufferRead;
  24:.\Generated_Source\PSoC5/SPIS.c ****     volatile uint8 SPIS_txBufferWrite;
  25:.\Generated_Source\PSoC5/SPIS.c ****     volatile uint8 SPIS_txBufferFull;
  26:.\Generated_Source\PSoC5/SPIS.c **** 
  27:.\Generated_Source\PSoC5/SPIS.c **** #endif /* SPIS_TX_SOFTWARE_BUF_ENABLED*/
  28:.\Generated_Source\PSoC5/SPIS.c **** 
  29:.\Generated_Source\PSoC5/SPIS.c **** #if (SPIS_RX_SOFTWARE_BUF_ENABLED)
  30:.\Generated_Source\PSoC5/SPIS.c **** 
  31:.\Generated_Source\PSoC5/SPIS.c ****     volatile uint8 SPIS_rxBuffer[SPIS_RX_BUFFER_SIZE];
  32:.\Generated_Source\PSoC5/SPIS.c ****     volatile uint8 SPIS_rxBufferRead;
  33:.\Generated_Source\PSoC5/SPIS.c ****     volatile uint8 SPIS_rxBufferWrite;
  34:.\Generated_Source\PSoC5/SPIS.c ****     volatile uint8 SPIS_rxBufferFull;
  35:.\Generated_Source\PSoC5/SPIS.c **** 
  36:.\Generated_Source\PSoC5/SPIS.c **** #endif /* SPIS_RX_SOFTWARE_BUF_ENABLED */
  37:.\Generated_Source\PSoC5/SPIS.c **** 
  38:.\Generated_Source\PSoC5/SPIS.c **** uint8 SPIS_initVar = 0u;
  39:.\Generated_Source\PSoC5/SPIS.c **** 
  40:.\Generated_Source\PSoC5/SPIS.c **** volatile uint8 SPIS_swStatusTx;
  41:.\Generated_Source\PSoC5/SPIS.c **** volatile uint8 SPIS_swStatusRx;
  42:.\Generated_Source\PSoC5/SPIS.c **** 
  43:.\Generated_Source\PSoC5/SPIS.c **** 
  44:.\Generated_Source\PSoC5/SPIS.c **** /*******************************************************************************
  45:.\Generated_Source\PSoC5/SPIS.c **** * Function Name: SPIS_Init
  46:.\Generated_Source\PSoC5/SPIS.c **** ********************************************************************************
  47:.\Generated_Source\PSoC5/SPIS.c **** *
  48:.\Generated_Source\PSoC5/SPIS.c **** * Summary:
  49:.\Generated_Source\PSoC5/SPIS.c **** *  Inits/Restores default SPIS configuration provided with customizer.
  50:.\Generated_Source\PSoC5/SPIS.c **** *
  51:.\Generated_Source\PSoC5/SPIS.c **** * Parameters:
  52:.\Generated_Source\PSoC5/SPIS.c **** *  None.
  53:.\Generated_Source\PSoC5/SPIS.c **** *
  54:.\Generated_Source\PSoC5/SPIS.c **** * Return:
  55:.\Generated_Source\PSoC5/SPIS.c **** *  None.
  56:.\Generated_Source\PSoC5/SPIS.c **** *
  57:.\Generated_Source\PSoC5/SPIS.c **** * Side Effects:
  58:.\Generated_Source\PSoC5/SPIS.c **** *  When this function is called it initializes all of the necessary parameters
  59:.\Generated_Source\PSoC5/SPIS.c **** *  for execution. i.e. setting the initial interrupt mask, configuring the
  60:.\Generated_Source\PSoC5/SPIS.c **** *  interrupt service routine, configuring the bit-counter parameters and
  61:.\Generated_Source\PSoC5/SPIS.c **** *  clearing the FIFO and Status Register.
  62:.\Generated_Source\PSoC5/SPIS.c **** *
  63:.\Generated_Source\PSoC5/SPIS.c **** * Reentrant:
  64:.\Generated_Source\PSoC5/SPIS.c **** *  No.
  65:.\Generated_Source\PSoC5/SPIS.c **** *
  66:.\Generated_Source\PSoC5/SPIS.c **** *******************************************************************************/
  67:.\Generated_Source\PSoC5/SPIS.c **** void SPIS_Init(void) 
  68:.\Generated_Source\PSoC5/SPIS.c **** {
  43              		.loc 1 68 0
  44              		.cfi_startproc
  45              		@ args = 0, pretend = 0, frame = 0
  46              		@ frame_needed = 1, uses_anonymous_args = 0
ARM GAS  C:\Users\LUKASC~1\AppData\Local\Temp\ccte1tQg.s 			page 3


  47 0000 80B5     		push	{r7, lr}
  48              		.cfi_def_cfa_offset 8
  49              		.cfi_offset 7, -8
  50              		.cfi_offset 14, -4
  51 0002 00AF     		add	r7, sp, #0
  52              		.cfi_def_cfa_register 7
  69:.\Generated_Source\PSoC5/SPIS.c ****     /*Initialize the Bit counter */
  70:.\Generated_Source\PSoC5/SPIS.c ****     SPIS_COUNTER_PERIOD_REG = SPIS_BITCTR_INIT;
  53              		.loc 1 70 0
  54 0004 1B4B     		ldr	r3, .L2
  55 0006 0722     		movs	r2, #7
  56 0008 1A70     		strb	r2, [r3]
  71:.\Generated_Source\PSoC5/SPIS.c **** 
  72:.\Generated_Source\PSoC5/SPIS.c ****     /* ISR initialization */
  73:.\Generated_Source\PSoC5/SPIS.c ****     #if(SPIS_INTERNAL_TX_INT_ENABLED)
  74:.\Generated_Source\PSoC5/SPIS.c **** 
  75:.\Generated_Source\PSoC5/SPIS.c ****         CyIntDisable(SPIS_TX_ISR_NUMBER);
  57              		.loc 1 75 0
  58 000a 1B4B     		ldr	r3, .L2+4
  59 000c 0422     		movs	r2, #4
  60 000e 1A60     		str	r2, [r3]
  76:.\Generated_Source\PSoC5/SPIS.c **** 
  77:.\Generated_Source\PSoC5/SPIS.c ****         /* Set the ISR to point to the SPIS_isr Interrupt. */
  78:.\Generated_Source\PSoC5/SPIS.c ****         (void)CyIntSetVector(SPIS_TX_ISR_NUMBER, &SPIS_TX_ISR);
  61              		.loc 1 78 0
  62 0010 0220     		movs	r0, #2
  63 0012 1A49     		ldr	r1, .L2+8
  64 0014 FFF7FEFF 		bl	CyIntSetVector
  79:.\Generated_Source\PSoC5/SPIS.c **** 
  80:.\Generated_Source\PSoC5/SPIS.c ****         /* Set the priority. */
  81:.\Generated_Source\PSoC5/SPIS.c ****         CyIntSetPriority(SPIS_TX_ISR_NUMBER, SPIS_TX_ISR_PRIORITY);
  65              		.loc 1 81 0
  66 0018 0220     		movs	r0, #2
  67 001a 0721     		movs	r1, #7
  68 001c FFF7FEFF 		bl	CyIntSetPriority
  82:.\Generated_Source\PSoC5/SPIS.c **** 
  83:.\Generated_Source\PSoC5/SPIS.c ****     #endif /* SPIS_INTERNAL_TX_INT_ENABLED */
  84:.\Generated_Source\PSoC5/SPIS.c **** 
  85:.\Generated_Source\PSoC5/SPIS.c ****     #if(SPIS_INTERNAL_RX_INT_ENABLED)
  86:.\Generated_Source\PSoC5/SPIS.c **** 
  87:.\Generated_Source\PSoC5/SPIS.c ****         CyIntDisable(SPIS_RX_ISR_NUMBER);
  69              		.loc 1 87 0
  70 0020 154B     		ldr	r3, .L2+4
  71 0022 0222     		movs	r2, #2
  72 0024 1A60     		str	r2, [r3]
  88:.\Generated_Source\PSoC5/SPIS.c **** 
  89:.\Generated_Source\PSoC5/SPIS.c ****         /* Set the ISR to point to the SPIS_isr Interrupt. */
  90:.\Generated_Source\PSoC5/SPIS.c ****         (void)CyIntSetVector(SPIS_RX_ISR_NUMBER, &SPIS_RX_ISR);
  73              		.loc 1 90 0
  74 0026 0120     		movs	r0, #1
  75 0028 1549     		ldr	r1, .L2+12
  76 002a FFF7FEFF 		bl	CyIntSetVector
  91:.\Generated_Source\PSoC5/SPIS.c **** 
  92:.\Generated_Source\PSoC5/SPIS.c ****         /* Set the priority. */
  93:.\Generated_Source\PSoC5/SPIS.c ****         CyIntSetPriority(SPIS_RX_ISR_NUMBER, SPIS_RX_ISR_PRIORITY);
  77              		.loc 1 93 0
  78 002e 0120     		movs	r0, #1
ARM GAS  C:\Users\LUKASC~1\AppData\Local\Temp\ccte1tQg.s 			page 4


  79 0030 0721     		movs	r1, #7
  80 0032 FFF7FEFF 		bl	CyIntSetPriority
  94:.\Generated_Source\PSoC5/SPIS.c **** 
  95:.\Generated_Source\PSoC5/SPIS.c ****     #endif /* SPIS_INTERNAL_RX_INT_ENABLED */
  96:.\Generated_Source\PSoC5/SPIS.c **** 
  97:.\Generated_Source\PSoC5/SPIS.c ****     /* Clear any stray data from the RX and TX FIFO */
  98:.\Generated_Source\PSoC5/SPIS.c ****     SPIS_ClearFIFO();
  81              		.loc 1 98 0
  82 0036 FFF7FEFF 		bl	SPIS_ClearFIFO
  99:.\Generated_Source\PSoC5/SPIS.c **** 
 100:.\Generated_Source\PSoC5/SPIS.c ****     #if(SPIS_RX_SOFTWARE_BUF_ENABLED)
 101:.\Generated_Source\PSoC5/SPIS.c ****         SPIS_rxBufferFull = 0u;
  83              		.loc 1 101 0
  84 003a 124B     		ldr	r3, .L2+16
  85 003c 0022     		movs	r2, #0
  86 003e 1A70     		strb	r2, [r3]
 102:.\Generated_Source\PSoC5/SPIS.c ****         SPIS_rxBufferRead = 0u;
  87              		.loc 1 102 0
  88 0040 114B     		ldr	r3, .L2+20
  89 0042 0022     		movs	r2, #0
  90 0044 1A70     		strb	r2, [r3]
 103:.\Generated_Source\PSoC5/SPIS.c ****         SPIS_rxBufferWrite = 0u;
  91              		.loc 1 103 0
  92 0046 114B     		ldr	r3, .L2+24
  93 0048 0022     		movs	r2, #0
  94 004a 1A70     		strb	r2, [r3]
 104:.\Generated_Source\PSoC5/SPIS.c ****     #endif /* SPIS_RX_SOFTWARE_BUF_ENABLED */
 105:.\Generated_Source\PSoC5/SPIS.c **** 
 106:.\Generated_Source\PSoC5/SPIS.c ****     #if(SPIS_TX_SOFTWARE_BUF_ENABLED)
 107:.\Generated_Source\PSoC5/SPIS.c ****         SPIS_txBufferFull = 0u;
  95              		.loc 1 107 0
  96 004c 104B     		ldr	r3, .L2+28
  97 004e 0022     		movs	r2, #0
  98 0050 1A70     		strb	r2, [r3]
 108:.\Generated_Source\PSoC5/SPIS.c ****         SPIS_txBufferRead = 0u;
  99              		.loc 1 108 0
 100 0052 104B     		ldr	r3, .L2+32
 101 0054 0022     		movs	r2, #0
 102 0056 1A70     		strb	r2, [r3]
 109:.\Generated_Source\PSoC5/SPIS.c ****         SPIS_txBufferWrite = 0u;
 103              		.loc 1 109 0
 104 0058 0F4B     		ldr	r3, .L2+36
 105 005a 0022     		movs	r2, #0
 106 005c 1A70     		strb	r2, [r3]
 110:.\Generated_Source\PSoC5/SPIS.c ****     #endif /* SPIS_TX_SOFTWARE_BUF_ENABLED */
 111:.\Generated_Source\PSoC5/SPIS.c **** 
 112:.\Generated_Source\PSoC5/SPIS.c ****     (void) SPIS_ReadTxStatus(); /* Clear any pending status bits */
 107              		.loc 1 112 0
 108 005e FFF7FEFF 		bl	SPIS_ReadTxStatus
 113:.\Generated_Source\PSoC5/SPIS.c ****     (void) SPIS_ReadRxStatus(); /* Clear any pending status bits */
 109              		.loc 1 113 0
 110 0062 FFF7FEFF 		bl	SPIS_ReadRxStatus
 114:.\Generated_Source\PSoC5/SPIS.c **** 
 115:.\Generated_Source\PSoC5/SPIS.c **** 
 116:.\Generated_Source\PSoC5/SPIS.c ****     /* Configure the Initial interrupt mask */
 117:.\Generated_Source\PSoC5/SPIS.c ****     #if (SPIS_TX_SOFTWARE_BUF_ENABLED)
 118:.\Generated_Source\PSoC5/SPIS.c ****         SPIS_TX_STATUS_MASK_REG  = (SPIS_TX_INIT_INTERRUPTS_MASK &
ARM GAS  C:\Users\LUKASC~1\AppData\Local\Temp\ccte1tQg.s 			page 5


 111              		.loc 1 118 0
 112 0066 0D4B     		ldr	r3, .L2+40
 113 0068 0022     		movs	r2, #0
 114 006a 1A70     		strb	r2, [r3]
 119:.\Generated_Source\PSoC5/SPIS.c ****                                                 (uint8)~SPIS_STS_TX_FIFO_NOT_FULL);
 120:.\Generated_Source\PSoC5/SPIS.c ****     #else /* SPIS_TX_SOFTWARE_BUF_ENABLED */
 121:.\Generated_Source\PSoC5/SPIS.c ****         SPIS_TX_STATUS_MASK_REG  = SPIS_TX_INIT_INTERRUPTS_MASK;
 122:.\Generated_Source\PSoC5/SPIS.c ****     #endif /* SPIS_TX_SOFTWARE_BUF_ENABLED */
 123:.\Generated_Source\PSoC5/SPIS.c **** 
 124:.\Generated_Source\PSoC5/SPIS.c ****     SPIS_RX_STATUS_MASK_REG  = SPIS_RX_INIT_INTERRUPTS_MASK;
 115              		.loc 1 124 0
 116 006c 0C4B     		ldr	r3, .L2+44
 117 006e 0822     		movs	r2, #8
 118 0070 1A70     		strb	r2, [r3]
 125:.\Generated_Source\PSoC5/SPIS.c **** }
 119              		.loc 1 125 0
 120 0072 80BD     		pop	{r7, pc}
 121              	.L3:
 122              		.align	2
 123              	.L2:
 124 0074 83640040 		.word	1073767555
 125 0078 80E100E0 		.word	-536813184
 126 007c 00000000 		.word	SPIS_TX_ISR
 127 0080 00000000 		.word	SPIS_RX_ISR
 128 0084 00000000 		.word	SPIS_rxBufferFull
 129 0088 00000000 		.word	SPIS_rxBufferRead
 130 008c 00000000 		.word	SPIS_rxBufferWrite
 131 0090 00000000 		.word	SPIS_txBufferFull
 132 0094 00000000 		.word	SPIS_txBufferRead
 133 0098 00000000 		.word	SPIS_txBufferWrite
 134 009c 84650040 		.word	1073767812
 135 00a0 87650040 		.word	1073767815
 136              		.cfi_endproc
 137              	.LFE0:
 138              		.size	SPIS_Init, .-SPIS_Init
 139              		.section	.text.SPIS_Enable,"ax",%progbits
 140              		.align	2
 141              		.global	SPIS_Enable
 142              		.thumb
 143              		.thumb_func
 144              		.type	SPIS_Enable, %function
 145              	SPIS_Enable:
 146              	.LFB1:
 126:.\Generated_Source\PSoC5/SPIS.c **** 
 127:.\Generated_Source\PSoC5/SPIS.c **** 
 128:.\Generated_Source\PSoC5/SPIS.c **** /*******************************************************************************
 129:.\Generated_Source\PSoC5/SPIS.c **** * Function Name: SPIS_Enable
 130:.\Generated_Source\PSoC5/SPIS.c **** ********************************************************************************
 131:.\Generated_Source\PSoC5/SPIS.c **** *
 132:.\Generated_Source\PSoC5/SPIS.c **** * Summary:
 133:.\Generated_Source\PSoC5/SPIS.c **** *  Enable SPIS component.
 134:.\Generated_Source\PSoC5/SPIS.c **** *
 135:.\Generated_Source\PSoC5/SPIS.c **** * Parameters:
 136:.\Generated_Source\PSoC5/SPIS.c **** *  None.
 137:.\Generated_Source\PSoC5/SPIS.c **** *
 138:.\Generated_Source\PSoC5/SPIS.c **** * Return:
 139:.\Generated_Source\PSoC5/SPIS.c **** *  None.
ARM GAS  C:\Users\LUKASC~1\AppData\Local\Temp\ccte1tQg.s 			page 6


 140:.\Generated_Source\PSoC5/SPIS.c **** *
 141:.\Generated_Source\PSoC5/SPIS.c **** *******************************************************************************/
 142:.\Generated_Source\PSoC5/SPIS.c **** void SPIS_Enable(void) 
 143:.\Generated_Source\PSoC5/SPIS.c **** {
 147              		.loc 1 143 0
 148              		.cfi_startproc
 149              		@ args = 0, pretend = 0, frame = 8
 150              		@ frame_needed = 1, uses_anonymous_args = 0
 151 0000 80B5     		push	{r7, lr}
 152              		.cfi_def_cfa_offset 8
 153              		.cfi_offset 7, -8
 154              		.cfi_offset 14, -4
 155 0002 82B0     		sub	sp, sp, #8
 156              		.cfi_def_cfa_offset 16
 157 0004 00AF     		add	r7, sp, #0
 158              		.cfi_def_cfa_register 7
 144:.\Generated_Source\PSoC5/SPIS.c ****     uint8 enableInterrupts;
 145:.\Generated_Source\PSoC5/SPIS.c ****     enableInterrupts = CyEnterCriticalSection();
 159              		.loc 1 145 0
 160 0006 FFF7FEFF 		bl	CyEnterCriticalSection
 161 000a 0346     		mov	r3, r0
 162 000c FB71     		strb	r3, [r7, #7]
 146:.\Generated_Source\PSoC5/SPIS.c **** 
 147:.\Generated_Source\PSoC5/SPIS.c ****     SPIS_COUNTER_CONTROL_REG |= SPIS_CNTR_ENABLE;
 163              		.loc 1 147 0
 164 000e 124A     		ldr	r2, .L5
 165 0010 114B     		ldr	r3, .L5
 166 0012 1B78     		ldrb	r3, [r3]
 167 0014 DBB2     		uxtb	r3, r3
 168 0016 43F02003 		orr	r3, r3, #32
 169 001a DBB2     		uxtb	r3, r3
 170 001c 1370     		strb	r3, [r2]
 148:.\Generated_Source\PSoC5/SPIS.c ****     SPIS_TX_STATUS_ACTL_REG |= SPIS_INT_ENABLE;
 171              		.loc 1 148 0
 172 001e 0F4A     		ldr	r2, .L5+4
 173 0020 0E4B     		ldr	r3, .L5+4
 174 0022 1B78     		ldrb	r3, [r3]
 175 0024 DBB2     		uxtb	r3, r3
 176 0026 43F01003 		orr	r3, r3, #16
 177 002a DBB2     		uxtb	r3, r3
 178 002c 1370     		strb	r3, [r2]
 149:.\Generated_Source\PSoC5/SPIS.c ****     SPIS_RX_STATUS_ACTL_REG |= SPIS_INT_ENABLE;
 179              		.loc 1 149 0
 180 002e 0C4A     		ldr	r2, .L5+8
 181 0030 0B4B     		ldr	r3, .L5+8
 182 0032 1B78     		ldrb	r3, [r3]
 183 0034 DBB2     		uxtb	r3, r3
 184 0036 43F01003 		orr	r3, r3, #16
 185 003a DBB2     		uxtb	r3, r3
 186 003c 1370     		strb	r3, [r2]
 150:.\Generated_Source\PSoC5/SPIS.c **** 
 151:.\Generated_Source\PSoC5/SPIS.c ****     CyExitCriticalSection(enableInterrupts);
 187              		.loc 1 151 0
 188 003e FB79     		ldrb	r3, [r7, #7]	@ zero_extendqisi2
 189 0040 1846     		mov	r0, r3
 190 0042 FFF7FEFF 		bl	CyExitCriticalSection
 152:.\Generated_Source\PSoC5/SPIS.c **** 
ARM GAS  C:\Users\LUKASC~1\AppData\Local\Temp\ccte1tQg.s 			page 7


 153:.\Generated_Source\PSoC5/SPIS.c ****     #if(SPIS_INTERNAL_TX_INT_ENABLED)
 154:.\Generated_Source\PSoC5/SPIS.c ****         CyIntEnable(SPIS_TX_ISR_NUMBER);
 191              		.loc 1 154 0
 192 0046 074B     		ldr	r3, .L5+12
 193 0048 0422     		movs	r2, #4
 194 004a 1A60     		str	r2, [r3]
 155:.\Generated_Source\PSoC5/SPIS.c ****     #endif /* SPIS_INTERNAL_TX_INT_ENABLED */
 156:.\Generated_Source\PSoC5/SPIS.c **** 
 157:.\Generated_Source\PSoC5/SPIS.c ****     #if(SPIS_INTERNAL_RX_INT_ENABLED)
 158:.\Generated_Source\PSoC5/SPIS.c ****         CyIntEnable(SPIS_RX_ISR_NUMBER);
 195              		.loc 1 158 0
 196 004c 054B     		ldr	r3, .L5+12
 197 004e 0222     		movs	r2, #2
 198 0050 1A60     		str	r2, [r3]
 159:.\Generated_Source\PSoC5/SPIS.c ****     #endif /* SPIS_INTERNAL_RX_INT_ENABLED */
 160:.\Generated_Source\PSoC5/SPIS.c **** }
 199              		.loc 1 160 0
 200 0052 0837     		adds	r7, r7, #8
 201              		.cfi_def_cfa_offset 8
 202 0054 BD46     		mov	sp, r7
 203              		.cfi_def_cfa_register 13
 204              		@ sp needed
 205 0056 80BD     		pop	{r7, pc}
 206              	.L6:
 207              		.align	2
 208              	.L5:
 209 0058 93640040 		.word	1073767571
 210 005c 94650040 		.word	1073767828
 211 0060 97650040 		.word	1073767831
 212 0064 00E100E0 		.word	-536813312
 213              		.cfi_endproc
 214              	.LFE1:
 215              		.size	SPIS_Enable, .-SPIS_Enable
 216              		.section	.text.SPIS_Start,"ax",%progbits
 217              		.align	2
 218              		.global	SPIS_Start
 219              		.thumb
 220              		.thumb_func
 221              		.type	SPIS_Start, %function
 222              	SPIS_Start:
 223              	.LFB2:
 161:.\Generated_Source\PSoC5/SPIS.c **** 
 162:.\Generated_Source\PSoC5/SPIS.c **** 
 163:.\Generated_Source\PSoC5/SPIS.c **** /*******************************************************************************
 164:.\Generated_Source\PSoC5/SPIS.c **** * Function Name: SPIS_Start
 165:.\Generated_Source\PSoC5/SPIS.c **** ********************************************************************************
 166:.\Generated_Source\PSoC5/SPIS.c **** *
 167:.\Generated_Source\PSoC5/SPIS.c **** * Summary:
 168:.\Generated_Source\PSoC5/SPIS.c **** *  Initialize and Enable the SPI Slave component.
 169:.\Generated_Source\PSoC5/SPIS.c **** *
 170:.\Generated_Source\PSoC5/SPIS.c **** * Parameters:
 171:.\Generated_Source\PSoC5/SPIS.c **** *  None.
 172:.\Generated_Source\PSoC5/SPIS.c **** *
 173:.\Generated_Source\PSoC5/SPIS.c **** * Return:
 174:.\Generated_Source\PSoC5/SPIS.c **** *  None.
 175:.\Generated_Source\PSoC5/SPIS.c **** *
 176:.\Generated_Source\PSoC5/SPIS.c **** * Global variables:
ARM GAS  C:\Users\LUKASC~1\AppData\Local\Temp\ccte1tQg.s 			page 8


 177:.\Generated_Source\PSoC5/SPIS.c **** *  SPIS_initVar - used to check initial configuration, modified on
 178:.\Generated_Source\PSoC5/SPIS.c **** *  first function call.
 179:.\Generated_Source\PSoC5/SPIS.c **** *
 180:.\Generated_Source\PSoC5/SPIS.c **** * Theory:
 181:.\Generated_Source\PSoC5/SPIS.c **** *  Enable the clock input to enable operation.
 182:.\Generated_Source\PSoC5/SPIS.c **** *
 183:.\Generated_Source\PSoC5/SPIS.c **** * Reentrant:
 184:.\Generated_Source\PSoC5/SPIS.c **** *  No.
 185:.\Generated_Source\PSoC5/SPIS.c **** *
 186:.\Generated_Source\PSoC5/SPIS.c **** *******************************************************************************/
 187:.\Generated_Source\PSoC5/SPIS.c **** void SPIS_Start(void) 
 188:.\Generated_Source\PSoC5/SPIS.c **** {
 224              		.loc 1 188 0
 225              		.cfi_startproc
 226              		@ args = 0, pretend = 0, frame = 0
 227              		@ frame_needed = 1, uses_anonymous_args = 0
 228 0000 80B5     		push	{r7, lr}
 229              		.cfi_def_cfa_offset 8
 230              		.cfi_offset 7, -8
 231              		.cfi_offset 14, -4
 232 0002 00AF     		add	r7, sp, #0
 233              		.cfi_def_cfa_register 7
 189:.\Generated_Source\PSoC5/SPIS.c ****     if(SPIS_initVar == 0u)
 234              		.loc 1 189 0
 235 0004 054B     		ldr	r3, .L9
 236 0006 1B78     		ldrb	r3, [r3]	@ zero_extendqisi2
 237 0008 002B     		cmp	r3, #0
 238 000a 04D1     		bne	.L8
 190:.\Generated_Source\PSoC5/SPIS.c ****     {
 191:.\Generated_Source\PSoC5/SPIS.c ****         SPIS_Init();
 239              		.loc 1 191 0
 240 000c FFF7FEFF 		bl	SPIS_Init
 192:.\Generated_Source\PSoC5/SPIS.c ****         SPIS_initVar = 1u;
 241              		.loc 1 192 0
 242 0010 024B     		ldr	r3, .L9
 243 0012 0122     		movs	r2, #1
 244 0014 1A70     		strb	r2, [r3]
 245              	.L8:
 193:.\Generated_Source\PSoC5/SPIS.c ****     }
 194:.\Generated_Source\PSoC5/SPIS.c **** 
 195:.\Generated_Source\PSoC5/SPIS.c ****     SPIS_Enable();
 246              		.loc 1 195 0
 247 0016 FFF7FEFF 		bl	SPIS_Enable
 196:.\Generated_Source\PSoC5/SPIS.c **** }
 248              		.loc 1 196 0
 249 001a 80BD     		pop	{r7, pc}
 250              	.L10:
 251              		.align	2
 252              	.L9:
 253 001c 00000000 		.word	SPIS_initVar
 254              		.cfi_endproc
 255              	.LFE2:
 256              		.size	SPIS_Start, .-SPIS_Start
 257              		.section	.text.SPIS_Stop,"ax",%progbits
 258              		.align	2
 259              		.global	SPIS_Stop
 260              		.thumb
ARM GAS  C:\Users\LUKASC~1\AppData\Local\Temp\ccte1tQg.s 			page 9


 261              		.thumb_func
 262              		.type	SPIS_Stop, %function
 263              	SPIS_Stop:
 264              	.LFB3:
 197:.\Generated_Source\PSoC5/SPIS.c **** 
 198:.\Generated_Source\PSoC5/SPIS.c **** 
 199:.\Generated_Source\PSoC5/SPIS.c **** /*******************************************************************************
 200:.\Generated_Source\PSoC5/SPIS.c **** * Function Name: SPIS_Stop
 201:.\Generated_Source\PSoC5/SPIS.c **** ********************************************************************************
 202:.\Generated_Source\PSoC5/SPIS.c **** *
 203:.\Generated_Source\PSoC5/SPIS.c **** * Summary:
 204:.\Generated_Source\PSoC5/SPIS.c **** *  Disable the SPI Slave component.
 205:.\Generated_Source\PSoC5/SPIS.c **** *
 206:.\Generated_Source\PSoC5/SPIS.c **** * Parameters:
 207:.\Generated_Source\PSoC5/SPIS.c **** *  None.
 208:.\Generated_Source\PSoC5/SPIS.c **** *
 209:.\Generated_Source\PSoC5/SPIS.c **** * Return:
 210:.\Generated_Source\PSoC5/SPIS.c **** *  None.
 211:.\Generated_Source\PSoC5/SPIS.c **** *
 212:.\Generated_Source\PSoC5/SPIS.c **** * Theory:
 213:.\Generated_Source\PSoC5/SPIS.c **** *  Disable the internal interrupt if one is used.
 214:.\Generated_Source\PSoC5/SPIS.c **** *
 215:.\Generated_Source\PSoC5/SPIS.c **** *******************************************************************************/
 216:.\Generated_Source\PSoC5/SPIS.c **** void SPIS_Stop(void) 
 217:.\Generated_Source\PSoC5/SPIS.c **** {
 265              		.loc 1 217 0
 266              		.cfi_startproc
 267              		@ args = 0, pretend = 0, frame = 8
 268              		@ frame_needed = 1, uses_anonymous_args = 0
 269 0000 80B5     		push	{r7, lr}
 270              		.cfi_def_cfa_offset 8
 271              		.cfi_offset 7, -8
 272              		.cfi_offset 14, -4
 273 0002 82B0     		sub	sp, sp, #8
 274              		.cfi_def_cfa_offset 16
 275 0004 00AF     		add	r7, sp, #0
 276              		.cfi_def_cfa_register 7
 218:.\Generated_Source\PSoC5/SPIS.c ****     uint8 enableInterrupts;
 219:.\Generated_Source\PSoC5/SPIS.c ****     enableInterrupts = CyEnterCriticalSection();
 277              		.loc 1 219 0
 278 0006 FFF7FEFF 		bl	CyEnterCriticalSection
 279 000a 0346     		mov	r3, r0
 280 000c FB71     		strb	r3, [r7, #7]
 220:.\Generated_Source\PSoC5/SPIS.c **** 
 221:.\Generated_Source\PSoC5/SPIS.c ****     SPIS_TX_STATUS_ACTL_REG &= (uint8)~SPIS_INT_ENABLE;
 281              		.loc 1 221 0
 282 000e 0E4A     		ldr	r2, .L12
 283 0010 0D4B     		ldr	r3, .L12
 284 0012 1B78     		ldrb	r3, [r3]
 285 0014 DBB2     		uxtb	r3, r3
 286 0016 23F01003 		bic	r3, r3, #16
 287 001a DBB2     		uxtb	r3, r3
 288 001c 1370     		strb	r3, [r2]
 222:.\Generated_Source\PSoC5/SPIS.c ****     SPIS_RX_STATUS_ACTL_REG &= (uint8)~SPIS_INT_ENABLE;
 289              		.loc 1 222 0
 290 001e 0B4A     		ldr	r2, .L12+4
 291 0020 0A4B     		ldr	r3, .L12+4
ARM GAS  C:\Users\LUKASC~1\AppData\Local\Temp\ccte1tQg.s 			page 10


 292 0022 1B78     		ldrb	r3, [r3]
 293 0024 DBB2     		uxtb	r3, r3
 294 0026 23F01003 		bic	r3, r3, #16
 295 002a DBB2     		uxtb	r3, r3
 296 002c 1370     		strb	r3, [r2]
 223:.\Generated_Source\PSoC5/SPIS.c **** 
 224:.\Generated_Source\PSoC5/SPIS.c ****     CyExitCriticalSection(enableInterrupts);
 297              		.loc 1 224 0
 298 002e FB79     		ldrb	r3, [r7, #7]	@ zero_extendqisi2
 299 0030 1846     		mov	r0, r3
 300 0032 FFF7FEFF 		bl	CyExitCriticalSection
 225:.\Generated_Source\PSoC5/SPIS.c **** 
 226:.\Generated_Source\PSoC5/SPIS.c ****     #if(SPIS_INTERNAL_TX_INT_ENABLED)
 227:.\Generated_Source\PSoC5/SPIS.c ****         CyIntDisable(SPIS_TX_ISR_NUMBER);
 301              		.loc 1 227 0
 302 0036 064B     		ldr	r3, .L12+8
 303 0038 0422     		movs	r2, #4
 304 003a 1A60     		str	r2, [r3]
 228:.\Generated_Source\PSoC5/SPIS.c ****     #endif /* SPIS_INTERNAL_TX_INT_ENABLED */
 229:.\Generated_Source\PSoC5/SPIS.c **** 
 230:.\Generated_Source\PSoC5/SPIS.c ****     #if(SPIS_INTERNAL_RX_INT_ENABLED)
 231:.\Generated_Source\PSoC5/SPIS.c ****         CyIntDisable(SPIS_RX_ISR_NUMBER);
 305              		.loc 1 231 0
 306 003c 044B     		ldr	r3, .L12+8
 307 003e 0222     		movs	r2, #2
 308 0040 1A60     		str	r2, [r3]
 232:.\Generated_Source\PSoC5/SPIS.c ****     #endif /* SPIS_INTERNAL_RX_INT_ENABLED */
 233:.\Generated_Source\PSoC5/SPIS.c **** }
 309              		.loc 1 233 0
 310 0042 0837     		adds	r7, r7, #8
 311              		.cfi_def_cfa_offset 8
 312 0044 BD46     		mov	sp, r7
 313              		.cfi_def_cfa_register 13
 314              		@ sp needed
 315 0046 80BD     		pop	{r7, pc}
 316              	.L13:
 317              		.align	2
 318              	.L12:
 319 0048 94650040 		.word	1073767828
 320 004c 97650040 		.word	1073767831
 321 0050 80E100E0 		.word	-536813184
 322              		.cfi_endproc
 323              	.LFE3:
 324              		.size	SPIS_Stop, .-SPIS_Stop
 325              		.section	.text.SPIS_EnableTxInt,"ax",%progbits
 326              		.align	2
 327              		.global	SPIS_EnableTxInt
 328              		.thumb
 329              		.thumb_func
 330              		.type	SPIS_EnableTxInt, %function
 331              	SPIS_EnableTxInt:
 332              	.LFB4:
 234:.\Generated_Source\PSoC5/SPIS.c **** 
 235:.\Generated_Source\PSoC5/SPIS.c **** 
 236:.\Generated_Source\PSoC5/SPIS.c **** /*******************************************************************************
 237:.\Generated_Source\PSoC5/SPIS.c **** * Function Name: SPIS_EnableTxInt
 238:.\Generated_Source\PSoC5/SPIS.c **** ********************************************************************************
ARM GAS  C:\Users\LUKASC~1\AppData\Local\Temp\ccte1tQg.s 			page 11


 239:.\Generated_Source\PSoC5/SPIS.c **** *
 240:.\Generated_Source\PSoC5/SPIS.c **** * Summary:
 241:.\Generated_Source\PSoC5/SPIS.c **** *  Enable internal Tx interrupt generation.
 242:.\Generated_Source\PSoC5/SPIS.c **** *
 243:.\Generated_Source\PSoC5/SPIS.c **** * Parameters:
 244:.\Generated_Source\PSoC5/SPIS.c **** *  None.
 245:.\Generated_Source\PSoC5/SPIS.c **** *
 246:.\Generated_Source\PSoC5/SPIS.c **** * Return:
 247:.\Generated_Source\PSoC5/SPIS.c **** *  None.
 248:.\Generated_Source\PSoC5/SPIS.c **** *
 249:.\Generated_Source\PSoC5/SPIS.c **** * Theory:
 250:.\Generated_Source\PSoC5/SPIS.c **** *  Enable the internal Tx interrupt output -or- the interrupt component itself.
 251:.\Generated_Source\PSoC5/SPIS.c **** *
 252:.\Generated_Source\PSoC5/SPIS.c **** *******************************************************************************/
 253:.\Generated_Source\PSoC5/SPIS.c **** void SPIS_EnableTxInt(void) 
 254:.\Generated_Source\PSoC5/SPIS.c **** {
 333              		.loc 1 254 0
 334              		.cfi_startproc
 335              		@ args = 0, pretend = 0, frame = 0
 336              		@ frame_needed = 1, uses_anonymous_args = 0
 337              		@ link register save eliminated.
 338 0000 80B4     		push	{r7}
 339              		.cfi_def_cfa_offset 4
 340              		.cfi_offset 7, -4
 341 0002 00AF     		add	r7, sp, #0
 342              		.cfi_def_cfa_register 7
 255:.\Generated_Source\PSoC5/SPIS.c ****     #if(SPIS_INTERNAL_TX_INT_ENABLED)
 256:.\Generated_Source\PSoC5/SPIS.c ****         CyIntEnable(SPIS_TX_ISR_NUMBER);
 343              		.loc 1 256 0
 344 0004 034B     		ldr	r3, .L15
 345 0006 0422     		movs	r2, #4
 346 0008 1A60     		str	r2, [r3]
 257:.\Generated_Source\PSoC5/SPIS.c ****     #endif /* SPIS_INTERNAL_TX_INT_ENABLED */
 258:.\Generated_Source\PSoC5/SPIS.c **** }
 347              		.loc 1 258 0
 348 000a BD46     		mov	sp, r7
 349              		.cfi_def_cfa_register 13
 350              		@ sp needed
 351 000c 5DF8047B 		ldr	r7, [sp], #4
 352              		.cfi_restore 7
 353              		.cfi_def_cfa_offset 0
 354 0010 7047     		bx	lr
 355              	.L16:
 356 0012 00BF     		.align	2
 357              	.L15:
 358 0014 00E100E0 		.word	-536813312
 359              		.cfi_endproc
 360              	.LFE4:
 361              		.size	SPIS_EnableTxInt, .-SPIS_EnableTxInt
 362              		.section	.text.SPIS_EnableRxInt,"ax",%progbits
 363              		.align	2
 364              		.global	SPIS_EnableRxInt
 365              		.thumb
 366              		.thumb_func
 367              		.type	SPIS_EnableRxInt, %function
 368              	SPIS_EnableRxInt:
 369              	.LFB5:
ARM GAS  C:\Users\LUKASC~1\AppData\Local\Temp\ccte1tQg.s 			page 12


 259:.\Generated_Source\PSoC5/SPIS.c **** 
 260:.\Generated_Source\PSoC5/SPIS.c **** 
 261:.\Generated_Source\PSoC5/SPIS.c **** /*******************************************************************************
 262:.\Generated_Source\PSoC5/SPIS.c **** * Function Name: SPIS_EnableRxInt
 263:.\Generated_Source\PSoC5/SPIS.c **** ********************************************************************************
 264:.\Generated_Source\PSoC5/SPIS.c **** *
 265:.\Generated_Source\PSoC5/SPIS.c **** * Summary:
 266:.\Generated_Source\PSoC5/SPIS.c **** *  Enable internal Rx interrupt generation.
 267:.\Generated_Source\PSoC5/SPIS.c **** *
 268:.\Generated_Source\PSoC5/SPIS.c **** * Parameters:
 269:.\Generated_Source\PSoC5/SPIS.c **** *  None.
 270:.\Generated_Source\PSoC5/SPIS.c **** *
 271:.\Generated_Source\PSoC5/SPIS.c **** * Return:
 272:.\Generated_Source\PSoC5/SPIS.c **** *  None.
 273:.\Generated_Source\PSoC5/SPIS.c **** *
 274:.\Generated_Source\PSoC5/SPIS.c **** * Theory:
 275:.\Generated_Source\PSoC5/SPIS.c **** *  Enable the internal Rx interrupt output -or- the interrupt component itself.
 276:.\Generated_Source\PSoC5/SPIS.c **** *
 277:.\Generated_Source\PSoC5/SPIS.c **** *******************************************************************************/
 278:.\Generated_Source\PSoC5/SPIS.c **** void SPIS_EnableRxInt(void) 
 279:.\Generated_Source\PSoC5/SPIS.c **** {
 370              		.loc 1 279 0
 371              		.cfi_startproc
 372              		@ args = 0, pretend = 0, frame = 0
 373              		@ frame_needed = 1, uses_anonymous_args = 0
 374              		@ link register save eliminated.
 375 0000 80B4     		push	{r7}
 376              		.cfi_def_cfa_offset 4
 377              		.cfi_offset 7, -4
 378 0002 00AF     		add	r7, sp, #0
 379              		.cfi_def_cfa_register 7
 280:.\Generated_Source\PSoC5/SPIS.c ****     #if(SPIS_INTERNAL_RX_INT_ENABLED)
 281:.\Generated_Source\PSoC5/SPIS.c ****         CyIntEnable(SPIS_RX_ISR_NUMBER);
 380              		.loc 1 281 0
 381 0004 034B     		ldr	r3, .L18
 382 0006 0222     		movs	r2, #2
 383 0008 1A60     		str	r2, [r3]
 282:.\Generated_Source\PSoC5/SPIS.c ****     #endif /* SPIS_INTERNAL_RX_INT_ENABLED */
 283:.\Generated_Source\PSoC5/SPIS.c **** }
 384              		.loc 1 283 0
 385 000a BD46     		mov	sp, r7
 386              		.cfi_def_cfa_register 13
 387              		@ sp needed
 388 000c 5DF8047B 		ldr	r7, [sp], #4
 389              		.cfi_restore 7
 390              		.cfi_def_cfa_offset 0
 391 0010 7047     		bx	lr
 392              	.L19:
 393 0012 00BF     		.align	2
 394              	.L18:
 395 0014 00E100E0 		.word	-536813312
 396              		.cfi_endproc
 397              	.LFE5:
 398              		.size	SPIS_EnableRxInt, .-SPIS_EnableRxInt
 399              		.section	.text.SPIS_DisableTxInt,"ax",%progbits
 400              		.align	2
 401              		.global	SPIS_DisableTxInt
ARM GAS  C:\Users\LUKASC~1\AppData\Local\Temp\ccte1tQg.s 			page 13


 402              		.thumb
 403              		.thumb_func
 404              		.type	SPIS_DisableTxInt, %function
 405              	SPIS_DisableTxInt:
 406              	.LFB6:
 284:.\Generated_Source\PSoC5/SPIS.c **** 
 285:.\Generated_Source\PSoC5/SPIS.c **** 
 286:.\Generated_Source\PSoC5/SPIS.c **** /*******************************************************************************
 287:.\Generated_Source\PSoC5/SPIS.c **** * Function Name: SPIS_DisableTxInt
 288:.\Generated_Source\PSoC5/SPIS.c **** ********************************************************************************
 289:.\Generated_Source\PSoC5/SPIS.c **** *
 290:.\Generated_Source\PSoC5/SPIS.c **** * Summary:
 291:.\Generated_Source\PSoC5/SPIS.c **** *  Disable internal Tx interrupt generation.
 292:.\Generated_Source\PSoC5/SPIS.c **** *
 293:.\Generated_Source\PSoC5/SPIS.c **** * Parameters:
 294:.\Generated_Source\PSoC5/SPIS.c **** *  None.
 295:.\Generated_Source\PSoC5/SPIS.c **** *
 296:.\Generated_Source\PSoC5/SPIS.c **** * Return:
 297:.\Generated_Source\PSoC5/SPIS.c **** *  None.
 298:.\Generated_Source\PSoC5/SPIS.c **** *
 299:.\Generated_Source\PSoC5/SPIS.c **** * Theory:
 300:.\Generated_Source\PSoC5/SPIS.c **** *  Disable the internal Tx interrupt output -or- the interrupt component itself.
 301:.\Generated_Source\PSoC5/SPIS.c **** *
 302:.\Generated_Source\PSoC5/SPIS.c **** *******************************************************************************/
 303:.\Generated_Source\PSoC5/SPIS.c **** void SPIS_DisableTxInt(void) 
 304:.\Generated_Source\PSoC5/SPIS.c **** {
 407              		.loc 1 304 0
 408              		.cfi_startproc
 409              		@ args = 0, pretend = 0, frame = 0
 410              		@ frame_needed = 1, uses_anonymous_args = 0
 411              		@ link register save eliminated.
 412 0000 80B4     		push	{r7}
 413              		.cfi_def_cfa_offset 4
 414              		.cfi_offset 7, -4
 415 0002 00AF     		add	r7, sp, #0
 416              		.cfi_def_cfa_register 7
 305:.\Generated_Source\PSoC5/SPIS.c ****     #if(SPIS_INTERNAL_TX_INT_ENABLED)
 306:.\Generated_Source\PSoC5/SPIS.c ****         CyIntDisable(SPIS_TX_ISR_NUMBER);
 417              		.loc 1 306 0
 418 0004 034B     		ldr	r3, .L21
 419 0006 0422     		movs	r2, #4
 420 0008 1A60     		str	r2, [r3]
 307:.\Generated_Source\PSoC5/SPIS.c ****     #endif /* SPIS_INTERNAL_TX_INT_ENABLED */
 308:.\Generated_Source\PSoC5/SPIS.c **** }
 421              		.loc 1 308 0
 422 000a BD46     		mov	sp, r7
 423              		.cfi_def_cfa_register 13
 424              		@ sp needed
 425 000c 5DF8047B 		ldr	r7, [sp], #4
 426              		.cfi_restore 7
 427              		.cfi_def_cfa_offset 0
 428 0010 7047     		bx	lr
 429              	.L22:
 430 0012 00BF     		.align	2
 431              	.L21:
 432 0014 80E100E0 		.word	-536813184
 433              		.cfi_endproc
ARM GAS  C:\Users\LUKASC~1\AppData\Local\Temp\ccte1tQg.s 			page 14


 434              	.LFE6:
 435              		.size	SPIS_DisableTxInt, .-SPIS_DisableTxInt
 436              		.section	.text.SPIS_DisableRxInt,"ax",%progbits
 437              		.align	2
 438              		.global	SPIS_DisableRxInt
 439              		.thumb
 440              		.thumb_func
 441              		.type	SPIS_DisableRxInt, %function
 442              	SPIS_DisableRxInt:
 443              	.LFB7:
 309:.\Generated_Source\PSoC5/SPIS.c **** 
 310:.\Generated_Source\PSoC5/SPIS.c **** 
 311:.\Generated_Source\PSoC5/SPIS.c **** /*******************************************************************************
 312:.\Generated_Source\PSoC5/SPIS.c **** * Function Name: SPIS_DisableRxInt
 313:.\Generated_Source\PSoC5/SPIS.c **** ********************************************************************************
 314:.\Generated_Source\PSoC5/SPIS.c **** *
 315:.\Generated_Source\PSoC5/SPIS.c **** * Summary:
 316:.\Generated_Source\PSoC5/SPIS.c **** *  Disable internal Rx interrupt generation.
 317:.\Generated_Source\PSoC5/SPIS.c **** *
 318:.\Generated_Source\PSoC5/SPIS.c **** * Parameters:
 319:.\Generated_Source\PSoC5/SPIS.c **** *  None.
 320:.\Generated_Source\PSoC5/SPIS.c **** *
 321:.\Generated_Source\PSoC5/SPIS.c **** * Return:
 322:.\Generated_Source\PSoC5/SPIS.c **** *  None.
 323:.\Generated_Source\PSoC5/SPIS.c **** *
 324:.\Generated_Source\PSoC5/SPIS.c **** * Theory:
 325:.\Generated_Source\PSoC5/SPIS.c **** *  Disable the internal Rx interrupt output -or- the interrupt component itself.
 326:.\Generated_Source\PSoC5/SPIS.c **** *
 327:.\Generated_Source\PSoC5/SPIS.c **** *******************************************************************************/
 328:.\Generated_Source\PSoC5/SPIS.c **** void SPIS_DisableRxInt(void) 
 329:.\Generated_Source\PSoC5/SPIS.c **** {
 444              		.loc 1 329 0
 445              		.cfi_startproc
 446              		@ args = 0, pretend = 0, frame = 0
 447              		@ frame_needed = 1, uses_anonymous_args = 0
 448              		@ link register save eliminated.
 449 0000 80B4     		push	{r7}
 450              		.cfi_def_cfa_offset 4
 451              		.cfi_offset 7, -4
 452 0002 00AF     		add	r7, sp, #0
 453              		.cfi_def_cfa_register 7
 330:.\Generated_Source\PSoC5/SPIS.c ****     #if(SPIS_INTERNAL_RX_INT_ENABLED)
 331:.\Generated_Source\PSoC5/SPIS.c ****         CyIntDisable(SPIS_RX_ISR_NUMBER);
 454              		.loc 1 331 0
 455 0004 034B     		ldr	r3, .L24
 456 0006 0222     		movs	r2, #2
 457 0008 1A60     		str	r2, [r3]
 332:.\Generated_Source\PSoC5/SPIS.c ****     #endif /* SPIS_INTERNAL_RX_INT_ENABLED */
 333:.\Generated_Source\PSoC5/SPIS.c **** }
 458              		.loc 1 333 0
 459 000a BD46     		mov	sp, r7
 460              		.cfi_def_cfa_register 13
 461              		@ sp needed
 462 000c 5DF8047B 		ldr	r7, [sp], #4
 463              		.cfi_restore 7
 464              		.cfi_def_cfa_offset 0
 465 0010 7047     		bx	lr
ARM GAS  C:\Users\LUKASC~1\AppData\Local\Temp\ccte1tQg.s 			page 15


 466              	.L25:
 467 0012 00BF     		.align	2
 468              	.L24:
 469 0014 80E100E0 		.word	-536813184
 470              		.cfi_endproc
 471              	.LFE7:
 472              		.size	SPIS_DisableRxInt, .-SPIS_DisableRxInt
 473              		.section	.text.SPIS_SetTxInterruptMode,"ax",%progbits
 474              		.align	2
 475              		.global	SPIS_SetTxInterruptMode
 476              		.thumb
 477              		.thumb_func
 478              		.type	SPIS_SetTxInterruptMode, %function
 479              	SPIS_SetTxInterruptMode:
 480              	.LFB8:
 334:.\Generated_Source\PSoC5/SPIS.c **** 
 335:.\Generated_Source\PSoC5/SPIS.c **** 
 336:.\Generated_Source\PSoC5/SPIS.c **** /*******************************************************************************
 337:.\Generated_Source\PSoC5/SPIS.c **** * Function Name: SPIS_SetTxInterruptMode
 338:.\Generated_Source\PSoC5/SPIS.c **** ********************************************************************************
 339:.\Generated_Source\PSoC5/SPIS.c **** *
 340:.\Generated_Source\PSoC5/SPIS.c **** * Summary:
 341:.\Generated_Source\PSoC5/SPIS.c **** *  Configure which status bits trigger an interrupt event.
 342:.\Generated_Source\PSoC5/SPIS.c **** *
 343:.\Generated_Source\PSoC5/SPIS.c **** * Parameters:
 344:.\Generated_Source\PSoC5/SPIS.c **** *  intSrc: An or'd combination of the desired status bit masks (defined in the
 345:.\Generated_Source\PSoC5/SPIS.c **** *  header file).
 346:.\Generated_Source\PSoC5/SPIS.c **** *
 347:.\Generated_Source\PSoC5/SPIS.c **** * Return:
 348:.\Generated_Source\PSoC5/SPIS.c **** *  None.
 349:.\Generated_Source\PSoC5/SPIS.c **** *
 350:.\Generated_Source\PSoC5/SPIS.c **** * Theory:
 351:.\Generated_Source\PSoC5/SPIS.c **** *  Enables the output of specific status bits to the interrupt controller.
 352:.\Generated_Source\PSoC5/SPIS.c **** *
 353:.\Generated_Source\PSoC5/SPIS.c **** *******************************************************************************/
 354:.\Generated_Source\PSoC5/SPIS.c **** void SPIS_SetTxInterruptMode(uint8 intSrc) 
 355:.\Generated_Source\PSoC5/SPIS.c **** {
 481              		.loc 1 355 0
 482              		.cfi_startproc
 483              		@ args = 0, pretend = 0, frame = 8
 484              		@ frame_needed = 1, uses_anonymous_args = 0
 485              		@ link register save eliminated.
 486 0000 80B4     		push	{r7}
 487              		.cfi_def_cfa_offset 4
 488              		.cfi_offset 7, -4
 489 0002 83B0     		sub	sp, sp, #12
 490              		.cfi_def_cfa_offset 16
 491 0004 00AF     		add	r7, sp, #0
 492              		.cfi_def_cfa_register 7
 493 0006 0346     		mov	r3, r0
 494 0008 FB71     		strb	r3, [r7, #7]
 356:.\Generated_Source\PSoC5/SPIS.c ****     SPIS_TX_STATUS_MASK_REG  = intSrc;
 495              		.loc 1 356 0
 496 000a 044A     		ldr	r2, .L27
 497 000c FB79     		ldrb	r3, [r7, #7]
 498 000e 1370     		strb	r3, [r2]
 357:.\Generated_Source\PSoC5/SPIS.c **** }
ARM GAS  C:\Users\LUKASC~1\AppData\Local\Temp\ccte1tQg.s 			page 16


 499              		.loc 1 357 0
 500 0010 0C37     		adds	r7, r7, #12
 501              		.cfi_def_cfa_offset 4
 502 0012 BD46     		mov	sp, r7
 503              		.cfi_def_cfa_register 13
 504              		@ sp needed
 505 0014 5DF8047B 		ldr	r7, [sp], #4
 506              		.cfi_restore 7
 507              		.cfi_def_cfa_offset 0
 508 0018 7047     		bx	lr
 509              	.L28:
 510 001a 00BF     		.align	2
 511              	.L27:
 512 001c 84650040 		.word	1073767812
 513              		.cfi_endproc
 514              	.LFE8:
 515              		.size	SPIS_SetTxInterruptMode, .-SPIS_SetTxInterruptMode
 516              		.section	.text.SPIS_SetRxInterruptMode,"ax",%progbits
 517              		.align	2
 518              		.global	SPIS_SetRxInterruptMode
 519              		.thumb
 520              		.thumb_func
 521              		.type	SPIS_SetRxInterruptMode, %function
 522              	SPIS_SetRxInterruptMode:
 523              	.LFB9:
 358:.\Generated_Source\PSoC5/SPIS.c **** 
 359:.\Generated_Source\PSoC5/SPIS.c **** 
 360:.\Generated_Source\PSoC5/SPIS.c **** /*******************************************************************************
 361:.\Generated_Source\PSoC5/SPIS.c **** * Function Name: SPIS_SetRxInterruptMode
 362:.\Generated_Source\PSoC5/SPIS.c **** ********************************************************************************
 363:.\Generated_Source\PSoC5/SPIS.c **** *
 364:.\Generated_Source\PSoC5/SPIS.c **** * Summary:
 365:.\Generated_Source\PSoC5/SPIS.c **** *  Configure which status bits trigger an interrupt event.
 366:.\Generated_Source\PSoC5/SPIS.c **** *
 367:.\Generated_Source\PSoC5/SPIS.c **** * Parameters:
 368:.\Generated_Source\PSoC5/SPIS.c **** *  intSrc: An or'd combination of the desired status bit masks (defined in the
 369:.\Generated_Source\PSoC5/SPIS.c **** *  header file).
 370:.\Generated_Source\PSoC5/SPIS.c **** *
 371:.\Generated_Source\PSoC5/SPIS.c **** * Return:
 372:.\Generated_Source\PSoC5/SPIS.c **** *  None.
 373:.\Generated_Source\PSoC5/SPIS.c **** *
 374:.\Generated_Source\PSoC5/SPIS.c **** * Theory:
 375:.\Generated_Source\PSoC5/SPIS.c **** *  Enables the output of specific status bits to the interrupt controller.
 376:.\Generated_Source\PSoC5/SPIS.c **** *
 377:.\Generated_Source\PSoC5/SPIS.c **** *******************************************************************************/
 378:.\Generated_Source\PSoC5/SPIS.c **** void SPIS_SetRxInterruptMode(uint8 intSrc) 
 379:.\Generated_Source\PSoC5/SPIS.c **** {
 524              		.loc 1 379 0
 525              		.cfi_startproc
 526              		@ args = 0, pretend = 0, frame = 8
 527              		@ frame_needed = 1, uses_anonymous_args = 0
 528              		@ link register save eliminated.
 529 0000 80B4     		push	{r7}
 530              		.cfi_def_cfa_offset 4
 531              		.cfi_offset 7, -4
 532 0002 83B0     		sub	sp, sp, #12
 533              		.cfi_def_cfa_offset 16
ARM GAS  C:\Users\LUKASC~1\AppData\Local\Temp\ccte1tQg.s 			page 17


 534 0004 00AF     		add	r7, sp, #0
 535              		.cfi_def_cfa_register 7
 536 0006 0346     		mov	r3, r0
 537 0008 FB71     		strb	r3, [r7, #7]
 380:.\Generated_Source\PSoC5/SPIS.c ****     SPIS_RX_STATUS_MASK_REG  = intSrc;
 538              		.loc 1 380 0
 539 000a 044A     		ldr	r2, .L30
 540 000c FB79     		ldrb	r3, [r7, #7]
 541 000e 1370     		strb	r3, [r2]
 381:.\Generated_Source\PSoC5/SPIS.c **** }
 542              		.loc 1 381 0
 543 0010 0C37     		adds	r7, r7, #12
 544              		.cfi_def_cfa_offset 4
 545 0012 BD46     		mov	sp, r7
 546              		.cfi_def_cfa_register 13
 547              		@ sp needed
 548 0014 5DF8047B 		ldr	r7, [sp], #4
 549              		.cfi_restore 7
 550              		.cfi_def_cfa_offset 0
 551 0018 7047     		bx	lr
 552              	.L31:
 553 001a 00BF     		.align	2
 554              	.L30:
 555 001c 87650040 		.word	1073767815
 556              		.cfi_endproc
 557              	.LFE9:
 558              		.size	SPIS_SetRxInterruptMode, .-SPIS_SetRxInterruptMode
 559              		.section	.text.SPIS_ReadTxStatus,"ax",%progbits
 560              		.align	2
 561              		.global	SPIS_ReadTxStatus
 562              		.thumb
 563              		.thumb_func
 564              		.type	SPIS_ReadTxStatus, %function
 565              	SPIS_ReadTxStatus:
 566              	.LFB10:
 382:.\Generated_Source\PSoC5/SPIS.c **** 
 383:.\Generated_Source\PSoC5/SPIS.c **** 
 384:.\Generated_Source\PSoC5/SPIS.c **** /*******************************************************************************
 385:.\Generated_Source\PSoC5/SPIS.c **** * Function Name: SPIS_ReadTxStatus
 386:.\Generated_Source\PSoC5/SPIS.c **** ********************************************************************************
 387:.\Generated_Source\PSoC5/SPIS.c **** *
 388:.\Generated_Source\PSoC5/SPIS.c **** * Summary:
 389:.\Generated_Source\PSoC5/SPIS.c **** *  Read the Tx status register for the component.
 390:.\Generated_Source\PSoC5/SPIS.c **** *
 391:.\Generated_Source\PSoC5/SPIS.c **** * Parameters:
 392:.\Generated_Source\PSoC5/SPIS.c **** *  None.
 393:.\Generated_Source\PSoC5/SPIS.c **** *
 394:.\Generated_Source\PSoC5/SPIS.c **** * Return:
 395:.\Generated_Source\PSoC5/SPIS.c **** *  Contents of the Tx status register.
 396:.\Generated_Source\PSoC5/SPIS.c **** *
 397:.\Generated_Source\PSoC5/SPIS.c **** * Global variables:
 398:.\Generated_Source\PSoC5/SPIS.c **** *  SPIS_swStatusTx - used to store in software status register,
 399:.\Generated_Source\PSoC5/SPIS.c **** *  modified every function call - resets to zero.
 400:.\Generated_Source\PSoC5/SPIS.c **** *
 401:.\Generated_Source\PSoC5/SPIS.c **** * Theory:
 402:.\Generated_Source\PSoC5/SPIS.c **** *  Allows the user and the API to read the Tx status register for error
 403:.\Generated_Source\PSoC5/SPIS.c **** *  detection and flow control.
ARM GAS  C:\Users\LUKASC~1\AppData\Local\Temp\ccte1tQg.s 			page 18


 404:.\Generated_Source\PSoC5/SPIS.c **** *
 405:.\Generated_Source\PSoC5/SPIS.c **** * Side Effects:
 406:.\Generated_Source\PSoC5/SPIS.c **** *  Clear Tx status register of the component.
 407:.\Generated_Source\PSoC5/SPIS.c **** *
 408:.\Generated_Source\PSoC5/SPIS.c **** * Reentrant:
 409:.\Generated_Source\PSoC5/SPIS.c **** *  No.
 410:.\Generated_Source\PSoC5/SPIS.c **** *
 411:.\Generated_Source\PSoC5/SPIS.c **** *******************************************************************************/
 412:.\Generated_Source\PSoC5/SPIS.c **** uint8 SPIS_ReadTxStatus(void) 
 413:.\Generated_Source\PSoC5/SPIS.c **** {
 567              		.loc 1 413 0
 568              		.cfi_startproc
 569              		@ args = 0, pretend = 0, frame = 8
 570              		@ frame_needed = 1, uses_anonymous_args = 0
 571 0000 80B5     		push	{r7, lr}
 572              		.cfi_def_cfa_offset 8
 573              		.cfi_offset 7, -8
 574              		.cfi_offset 14, -4
 575 0002 82B0     		sub	sp, sp, #8
 576              		.cfi_def_cfa_offset 16
 577 0004 00AF     		add	r7, sp, #0
 578              		.cfi_def_cfa_register 7
 414:.\Generated_Source\PSoC5/SPIS.c ****     uint8 tmpStatus;
 415:.\Generated_Source\PSoC5/SPIS.c **** 
 416:.\Generated_Source\PSoC5/SPIS.c ****     #if (SPIS_TX_SOFTWARE_BUF_ENABLED)
 417:.\Generated_Source\PSoC5/SPIS.c **** 
 418:.\Generated_Source\PSoC5/SPIS.c ****         SPIS_DisableTxInt();
 579              		.loc 1 418 0
 580 0006 FFF7FEFF 		bl	SPIS_DisableTxInt
 419:.\Generated_Source\PSoC5/SPIS.c **** 
 420:.\Generated_Source\PSoC5/SPIS.c ****         tmpStatus = SPIS_GET_STATUS_TX(SPIS_swStatusTx);
 581              		.loc 1 420 0
 582 000a 0A4B     		ldr	r3, .L34
 583 000c 1B78     		ldrb	r3, [r3]
 584 000e DAB2     		uxtb	r2, r3
 585 0010 094B     		ldr	r3, .L34+4
 586 0012 1B78     		ldrb	r3, [r3]
 587 0014 DBB2     		uxtb	r3, r3
 588 0016 03F06103 		and	r3, r3, #97
 589 001a DBB2     		uxtb	r3, r3
 590 001c 1343     		orrs	r3, r3, r2
 591 001e FB71     		strb	r3, [r7, #7]
 421:.\Generated_Source\PSoC5/SPIS.c **** 
 422:.\Generated_Source\PSoC5/SPIS.c ****         SPIS_swStatusTx = 0u;
 592              		.loc 1 422 0
 593 0020 054B     		ldr	r3, .L34+4
 594 0022 0022     		movs	r2, #0
 595 0024 1A70     		strb	r2, [r3]
 423:.\Generated_Source\PSoC5/SPIS.c **** 
 424:.\Generated_Source\PSoC5/SPIS.c ****         /* Enable Interrupts */
 425:.\Generated_Source\PSoC5/SPIS.c ****         SPIS_EnableTxInt();
 596              		.loc 1 425 0
 597 0026 FFF7FEFF 		bl	SPIS_EnableTxInt
 426:.\Generated_Source\PSoC5/SPIS.c **** 
 427:.\Generated_Source\PSoC5/SPIS.c ****     #else /* !SPIS_TX_SOFTWARE_BUF_ENABLED */
 428:.\Generated_Source\PSoC5/SPIS.c **** 
 429:.\Generated_Source\PSoC5/SPIS.c ****         tmpStatus = SPIS_TX_STATUS_REG;
ARM GAS  C:\Users\LUKASC~1\AppData\Local\Temp\ccte1tQg.s 			page 19


 430:.\Generated_Source\PSoC5/SPIS.c **** 
 431:.\Generated_Source\PSoC5/SPIS.c ****     #endif /* SPIS_TX_SOFTWARE_BUF_ENABLED */
 432:.\Generated_Source\PSoC5/SPIS.c **** 
 433:.\Generated_Source\PSoC5/SPIS.c ****     return(tmpStatus);
 598              		.loc 1 433 0
 599 002a FB79     		ldrb	r3, [r7, #7]	@ zero_extendqisi2
 434:.\Generated_Source\PSoC5/SPIS.c **** }
 600              		.loc 1 434 0
 601 002c 1846     		mov	r0, r3
 602 002e 0837     		adds	r7, r7, #8
 603              		.cfi_def_cfa_offset 8
 604 0030 BD46     		mov	sp, r7
 605              		.cfi_def_cfa_register 13
 606              		@ sp needed
 607 0032 80BD     		pop	{r7, pc}
 608              	.L35:
 609              		.align	2
 610              	.L34:
 611 0034 64650040 		.word	1073767780
 612 0038 00000000 		.word	SPIS_swStatusTx
 613              		.cfi_endproc
 614              	.LFE10:
 615              		.size	SPIS_ReadTxStatus, .-SPIS_ReadTxStatus
 616              		.section	.text.SPIS_ReadRxStatus,"ax",%progbits
 617              		.align	2
 618              		.global	SPIS_ReadRxStatus
 619              		.thumb
 620              		.thumb_func
 621              		.type	SPIS_ReadRxStatus, %function
 622              	SPIS_ReadRxStatus:
 623              	.LFB11:
 435:.\Generated_Source\PSoC5/SPIS.c **** 
 436:.\Generated_Source\PSoC5/SPIS.c **** 
 437:.\Generated_Source\PSoC5/SPIS.c **** /*******************************************************************************
 438:.\Generated_Source\PSoC5/SPIS.c **** * Function Name: SPIS_ReadRxStatus
 439:.\Generated_Source\PSoC5/SPIS.c **** ********************************************************************************
 440:.\Generated_Source\PSoC5/SPIS.c **** *
 441:.\Generated_Source\PSoC5/SPIS.c **** * Summary:
 442:.\Generated_Source\PSoC5/SPIS.c **** *  Read the Rx status register for the component.
 443:.\Generated_Source\PSoC5/SPIS.c **** *
 444:.\Generated_Source\PSoC5/SPIS.c **** * Parameters:
 445:.\Generated_Source\PSoC5/SPIS.c **** *  None.
 446:.\Generated_Source\PSoC5/SPIS.c **** *
 447:.\Generated_Source\PSoC5/SPIS.c **** * Return:
 448:.\Generated_Source\PSoC5/SPIS.c **** *  Contents of the Rx status register.
 449:.\Generated_Source\PSoC5/SPIS.c **** *
 450:.\Generated_Source\PSoC5/SPIS.c **** * Global variables:
 451:.\Generated_Source\PSoC5/SPIS.c **** *  SPIS_swStatusRx - used to store in software Rx status register,
 452:.\Generated_Source\PSoC5/SPIS.c **** *  modified every function call - resets to zero.
 453:.\Generated_Source\PSoC5/SPIS.c **** *
 454:.\Generated_Source\PSoC5/SPIS.c **** * Theory:
 455:.\Generated_Source\PSoC5/SPIS.c **** *  Allows the user and the API to read the Rx status register for error
 456:.\Generated_Source\PSoC5/SPIS.c **** *  detection and flow control.
 457:.\Generated_Source\PSoC5/SPIS.c **** *
 458:.\Generated_Source\PSoC5/SPIS.c **** * Side Effects:
 459:.\Generated_Source\PSoC5/SPIS.c **** *  Clear Rx status register of the component.
 460:.\Generated_Source\PSoC5/SPIS.c **** *
ARM GAS  C:\Users\LUKASC~1\AppData\Local\Temp\ccte1tQg.s 			page 20


 461:.\Generated_Source\PSoC5/SPIS.c **** * Reentrant:
 462:.\Generated_Source\PSoC5/SPIS.c **** *  No.
 463:.\Generated_Source\PSoC5/SPIS.c **** *
 464:.\Generated_Source\PSoC5/SPIS.c **** *******************************************************************************/
 465:.\Generated_Source\PSoC5/SPIS.c **** uint8 SPIS_ReadRxStatus(void) 
 466:.\Generated_Source\PSoC5/SPIS.c **** {
 624              		.loc 1 466 0
 625              		.cfi_startproc
 626              		@ args = 0, pretend = 0, frame = 8
 627              		@ frame_needed = 1, uses_anonymous_args = 0
 628 0000 80B5     		push	{r7, lr}
 629              		.cfi_def_cfa_offset 8
 630              		.cfi_offset 7, -8
 631              		.cfi_offset 14, -4
 632 0002 82B0     		sub	sp, sp, #8
 633              		.cfi_def_cfa_offset 16
 634 0004 00AF     		add	r7, sp, #0
 635              		.cfi_def_cfa_register 7
 467:.\Generated_Source\PSoC5/SPIS.c ****     uint8 tmpStatus;
 468:.\Generated_Source\PSoC5/SPIS.c **** 
 469:.\Generated_Source\PSoC5/SPIS.c ****     #if (SPIS_RX_SOFTWARE_BUF_ENABLED)
 470:.\Generated_Source\PSoC5/SPIS.c **** 
 471:.\Generated_Source\PSoC5/SPIS.c ****         SPIS_DisableRxInt();
 636              		.loc 1 471 0
 637 0006 FFF7FEFF 		bl	SPIS_DisableRxInt
 472:.\Generated_Source\PSoC5/SPIS.c **** 
 473:.\Generated_Source\PSoC5/SPIS.c ****         tmpStatus = SPIS_GET_STATUS_RX(SPIS_swStatusRx);
 638              		.loc 1 473 0
 639 000a 0A4B     		ldr	r3, .L38
 640 000c 1B78     		ldrb	r3, [r3]
 641 000e DAB2     		uxtb	r2, r3
 642 0010 094B     		ldr	r3, .L38+4
 643 0012 1B78     		ldrb	r3, [r3]
 644 0014 DBB2     		uxtb	r3, r3
 645 0016 03F06103 		and	r3, r3, #97
 646 001a DBB2     		uxtb	r3, r3
 647 001c 1343     		orrs	r3, r3, r2
 648 001e FB71     		strb	r3, [r7, #7]
 474:.\Generated_Source\PSoC5/SPIS.c **** 
 475:.\Generated_Source\PSoC5/SPIS.c ****         SPIS_swStatusRx = 0u;
 649              		.loc 1 475 0
 650 0020 054B     		ldr	r3, .L38+4
 651 0022 0022     		movs	r2, #0
 652 0024 1A70     		strb	r2, [r3]
 476:.\Generated_Source\PSoC5/SPIS.c **** 
 477:.\Generated_Source\PSoC5/SPIS.c ****         /* Enable Interrupts */
 478:.\Generated_Source\PSoC5/SPIS.c ****         SPIS_EnableRxInt();
 653              		.loc 1 478 0
 654 0026 FFF7FEFF 		bl	SPIS_EnableRxInt
 479:.\Generated_Source\PSoC5/SPIS.c **** 
 480:.\Generated_Source\PSoC5/SPIS.c ****     #else /* !SPIS_RX_SOFTWARE_BUF_ENABLED */
 481:.\Generated_Source\PSoC5/SPIS.c **** 
 482:.\Generated_Source\PSoC5/SPIS.c ****         tmpStatus = SPIS_RX_STATUS_REG;
 483:.\Generated_Source\PSoC5/SPIS.c **** 
 484:.\Generated_Source\PSoC5/SPIS.c ****     #endif /* SPIS_RX_SOFTWARE_BUF_ENABLED */
 485:.\Generated_Source\PSoC5/SPIS.c **** 
 486:.\Generated_Source\PSoC5/SPIS.c ****     return(tmpStatus);
ARM GAS  C:\Users\LUKASC~1\AppData\Local\Temp\ccte1tQg.s 			page 21


 655              		.loc 1 486 0
 656 002a FB79     		ldrb	r3, [r7, #7]	@ zero_extendqisi2
 487:.\Generated_Source\PSoC5/SPIS.c **** }
 657              		.loc 1 487 0
 658 002c 1846     		mov	r0, r3
 659 002e 0837     		adds	r7, r7, #8
 660              		.cfi_def_cfa_offset 8
 661 0030 BD46     		mov	sp, r7
 662              		.cfi_def_cfa_register 13
 663              		@ sp needed
 664 0032 80BD     		pop	{r7, pc}
 665              	.L39:
 666              		.align	2
 667              	.L38:
 668 0034 67650040 		.word	1073767783
 669 0038 00000000 		.word	SPIS_swStatusRx
 670              		.cfi_endproc
 671              	.LFE11:
 672              		.size	SPIS_ReadRxStatus, .-SPIS_ReadRxStatus
 673              		.section	.text.SPIS_WriteTxData,"ax",%progbits
 674              		.align	2
 675              		.global	SPIS_WriteTxData
 676              		.thumb
 677              		.thumb_func
 678              		.type	SPIS_WriteTxData, %function
 679              	SPIS_WriteTxData:
 680              	.LFB12:
 488:.\Generated_Source\PSoC5/SPIS.c **** 
 489:.\Generated_Source\PSoC5/SPIS.c **** 
 490:.\Generated_Source\PSoC5/SPIS.c **** /*******************************************************************************
 491:.\Generated_Source\PSoC5/SPIS.c **** * Function Name: SPIS_WriteTxData
 492:.\Generated_Source\PSoC5/SPIS.c **** ********************************************************************************
 493:.\Generated_Source\PSoC5/SPIS.c **** *
 494:.\Generated_Source\PSoC5/SPIS.c **** * Summary:
 495:.\Generated_Source\PSoC5/SPIS.c **** *  Write a byte of data to be sent across the SPI.
 496:.\Generated_Source\PSoC5/SPIS.c **** *
 497:.\Generated_Source\PSoC5/SPIS.c **** * Parameters:
 498:.\Generated_Source\PSoC5/SPIS.c **** *  txDataByte: The data value to send across the SPI.
 499:.\Generated_Source\PSoC5/SPIS.c **** *
 500:.\Generated_Source\PSoC5/SPIS.c **** * Return:
 501:.\Generated_Source\PSoC5/SPIS.c **** *  None.
 502:.\Generated_Source\PSoC5/SPIS.c **** *
 503:.\Generated_Source\PSoC5/SPIS.c **** * Global variables:
 504:.\Generated_Source\PSoC5/SPIS.c **** *  SPIS_txBufferWrite - used for the account of the bytes which
 505:.\Generated_Source\PSoC5/SPIS.c **** *  have been written down in the TX software buffer, modified every function
 506:.\Generated_Source\PSoC5/SPIS.c **** *  call if TX Software Buffer is used.
 507:.\Generated_Source\PSoC5/SPIS.c **** *  SPIS_txBufferRead - used for the account of the bytes which
 508:.\Generated_Source\PSoC5/SPIS.c **** *  have been read from the TX software buffer.
 509:.\Generated_Source\PSoC5/SPIS.c **** *  SPIS_txBuffer[SPIS_TX_BUFFER_SIZE] - used to store
 510:.\Generated_Source\PSoC5/SPIS.c **** *  data to sending, modified every function call if TX Software Buffer is used.
 511:.\Generated_Source\PSoC5/SPIS.c **** *
 512:.\Generated_Source\PSoC5/SPIS.c **** * Theory:
 513:.\Generated_Source\PSoC5/SPIS.c **** *  Allows the user to transmit any byte of data in a single transfer.
 514:.\Generated_Source\PSoC5/SPIS.c **** *
 515:.\Generated_Source\PSoC5/SPIS.c **** * Side Effects:
 516:.\Generated_Source\PSoC5/SPIS.c **** *  If this function is called again before the previous byte is finished then
 517:.\Generated_Source\PSoC5/SPIS.c **** *  the next byte will be appended to the transfer with no time between
ARM GAS  C:\Users\LUKASC~1\AppData\Local\Temp\ccte1tQg.s 			page 22


 518:.\Generated_Source\PSoC5/SPIS.c **** *  the byte transfers. Clear Tx status register of the component.
 519:.\Generated_Source\PSoC5/SPIS.c **** *
 520:.\Generated_Source\PSoC5/SPIS.c **** * Reentrant:
 521:.\Generated_Source\PSoC5/SPIS.c **** *  No.
 522:.\Generated_Source\PSoC5/SPIS.c **** *
 523:.\Generated_Source\PSoC5/SPIS.c **** *******************************************************************************/
 524:.\Generated_Source\PSoC5/SPIS.c **** void SPIS_WriteTxData(uint8 txData) 
 525:.\Generated_Source\PSoC5/SPIS.c **** {
 681              		.loc 1 525 0
 682              		.cfi_startproc
 683              		@ args = 0, pretend = 0, frame = 16
 684              		@ frame_needed = 1, uses_anonymous_args = 0
 685 0000 80B5     		push	{r7, lr}
 686              		.cfi_def_cfa_offset 8
 687              		.cfi_offset 7, -8
 688              		.cfi_offset 14, -4
 689 0002 84B0     		sub	sp, sp, #16
 690              		.cfi_def_cfa_offset 24
 691 0004 00AF     		add	r7, sp, #0
 692              		.cfi_def_cfa_register 7
 693 0006 0346     		mov	r3, r0
 694 0008 FB71     		strb	r3, [r7, #7]
 695              	.L43:
 526:.\Generated_Source\PSoC5/SPIS.c ****     #if(SPIS_TX_SOFTWARE_BUF_ENABLED)
 527:.\Generated_Source\PSoC5/SPIS.c **** 
 528:.\Generated_Source\PSoC5/SPIS.c ****         uint8 tempStatus;
 529:.\Generated_Source\PSoC5/SPIS.c ****         uint8 tmpTxBufferRead;
 530:.\Generated_Source\PSoC5/SPIS.c **** 
 531:.\Generated_Source\PSoC5/SPIS.c ****         /* Block if buffer is full, so we don't overwrite. */
 532:.\Generated_Source\PSoC5/SPIS.c ****         do
 533:.\Generated_Source\PSoC5/SPIS.c ****         {
 534:.\Generated_Source\PSoC5/SPIS.c ****             tmpTxBufferRead = SPIS_txBufferRead;
 696              		.loc 1 534 0
 697 000a 394B     		ldr	r3, .L49
 698 000c 1B78     		ldrb	r3, [r3]
 699 000e FB73     		strb	r3, [r7, #15]
 535:.\Generated_Source\PSoC5/SPIS.c ****             if (0u == tmpTxBufferRead)
 700              		.loc 1 535 0
 701 0010 FB7B     		ldrb	r3, [r7, #15]	@ zero_extendqisi2
 702 0012 002B     		cmp	r3, #0
 703 0014 02D1     		bne	.L41
 536:.\Generated_Source\PSoC5/SPIS.c ****             {
 537:.\Generated_Source\PSoC5/SPIS.c ****                 tmpTxBufferRead = SPIS_TX_BUFFER_SIZE - 1u;
 704              		.loc 1 537 0
 705 0016 3F23     		movs	r3, #63
 706 0018 FB73     		strb	r3, [r7, #15]
 707 001a 02E0     		b	.L42
 708              	.L41:
 538:.\Generated_Source\PSoC5/SPIS.c ****             }
 539:.\Generated_Source\PSoC5/SPIS.c ****             else
 540:.\Generated_Source\PSoC5/SPIS.c ****             {
 541:.\Generated_Source\PSoC5/SPIS.c ****                 tmpTxBufferRead--;
 709              		.loc 1 541 0
 710 001c FB7B     		ldrb	r3, [r7, #15]	@ zero_extendqisi2
 711 001e 013B     		subs	r3, r3, #1
 712 0020 FB73     		strb	r3, [r7, #15]
 713              	.L42:
ARM GAS  C:\Users\LUKASC~1\AppData\Local\Temp\ccte1tQg.s 			page 23


 542:.\Generated_Source\PSoC5/SPIS.c ****             }
 543:.\Generated_Source\PSoC5/SPIS.c **** 
 544:.\Generated_Source\PSoC5/SPIS.c ****         }
 545:.\Generated_Source\PSoC5/SPIS.c ****         while(tmpTxBufferRead == SPIS_txBufferWrite);
 714              		.loc 1 545 0
 715 0022 344B     		ldr	r3, .L49+4
 716 0024 1B78     		ldrb	r3, [r3]
 717 0026 DBB2     		uxtb	r3, r3
 718 0028 FA7B     		ldrb	r2, [r7, #15]	@ zero_extendqisi2
 719 002a 9A42     		cmp	r2, r3
 720 002c EDD0     		beq	.L43
 546:.\Generated_Source\PSoC5/SPIS.c **** 
 547:.\Generated_Source\PSoC5/SPIS.c ****         /* Disable Interrupt to protect variables that could change on interrupt. */
 548:.\Generated_Source\PSoC5/SPIS.c ****         SPIS_DisableTxInt();
 721              		.loc 1 548 0
 722 002e FFF7FEFF 		bl	SPIS_DisableTxInt
 549:.\Generated_Source\PSoC5/SPIS.c **** 
 550:.\Generated_Source\PSoC5/SPIS.c ****         tempStatus = SPIS_GET_STATUS_TX(SPIS_swStatusTx);
 723              		.loc 1 550 0
 724 0032 314B     		ldr	r3, .L49+8
 725 0034 1B78     		ldrb	r3, [r3]
 726 0036 DAB2     		uxtb	r2, r3
 727 0038 304B     		ldr	r3, .L49+12
 728 003a 1B78     		ldrb	r3, [r3]
 729 003c DBB2     		uxtb	r3, r3
 730 003e 03F06103 		and	r3, r3, #97
 731 0042 DBB2     		uxtb	r3, r3
 732 0044 1343     		orrs	r3, r3, r2
 733 0046 BB73     		strb	r3, [r7, #14]
 551:.\Generated_Source\PSoC5/SPIS.c ****         SPIS_swStatusTx = tempStatus;
 734              		.loc 1 551 0
 735 0048 2C4A     		ldr	r2, .L49+12
 736 004a BB7B     		ldrb	r3, [r7, #14]
 737 004c 1370     		strb	r3, [r2]
 552:.\Generated_Source\PSoC5/SPIS.c **** 
 553:.\Generated_Source\PSoC5/SPIS.c ****         if((SPIS_txBufferRead == SPIS_txBufferWrite) &&
 738              		.loc 1 553 0
 739 004e 284B     		ldr	r3, .L49
 740 0050 1B78     		ldrb	r3, [r3]
 741 0052 DAB2     		uxtb	r2, r3
 742 0054 274B     		ldr	r3, .L49+4
 743 0056 1B78     		ldrb	r3, [r3]
 744 0058 DBB2     		uxtb	r3, r3
 745 005a 9A42     		cmp	r2, r3
 746 005c 0AD1     		bne	.L44
 554:.\Generated_Source\PSoC5/SPIS.c ****             (0u != (SPIS_swStatusTx & SPIS_STS_TX_FIFO_NOT_FULL)))
 747              		.loc 1 554 0 discriminator 1
 748 005e 274B     		ldr	r3, .L49+12
 749 0060 1B78     		ldrb	r3, [r3]
 750 0062 DBB2     		uxtb	r3, r3
 751 0064 03F00203 		and	r3, r3, #2
 553:.\Generated_Source\PSoC5/SPIS.c ****             (0u != (SPIS_swStatusTx & SPIS_STS_TX_FIFO_NOT_FULL)))
 752              		.loc 1 553 0 discriminator 1
 753 0068 002B     		cmp	r3, #0
 754 006a 03D0     		beq	.L44
 555:.\Generated_Source\PSoC5/SPIS.c ****         {
 556:.\Generated_Source\PSoC5/SPIS.c ****             /* Put data element into the TX FIFO */
ARM GAS  C:\Users\LUKASC~1\AppData\Local\Temp\ccte1tQg.s 			page 24


 557:.\Generated_Source\PSoC5/SPIS.c ****             CY_SET_REG8(SPIS_TXDATA_PTR, txData);
 755              		.loc 1 557 0
 756 006c 244A     		ldr	r2, .L49+16
 757 006e FB79     		ldrb	r3, [r7, #7]
 758 0070 1370     		strb	r3, [r2]
 759 0072 37E0     		b	.L45
 760              	.L44:
 558:.\Generated_Source\PSoC5/SPIS.c ****         }
 559:.\Generated_Source\PSoC5/SPIS.c ****         else
 560:.\Generated_Source\PSoC5/SPIS.c ****         {
 561:.\Generated_Source\PSoC5/SPIS.c ****             /* Put data element into the software buffer */
 562:.\Generated_Source\PSoC5/SPIS.c ****             SPIS_txBufferWrite++;
 761              		.loc 1 562 0
 762 0074 1F4B     		ldr	r3, .L49+4
 763 0076 1B78     		ldrb	r3, [r3]
 764 0078 DBB2     		uxtb	r3, r3
 765 007a 0133     		adds	r3, r3, #1
 766 007c DAB2     		uxtb	r2, r3
 767 007e 1D4B     		ldr	r3, .L49+4
 768 0080 1A70     		strb	r2, [r3]
 563:.\Generated_Source\PSoC5/SPIS.c ****             if(SPIS_txBufferWrite >= SPIS_TX_BUFFER_SIZE)
 769              		.loc 1 563 0
 770 0082 1C4B     		ldr	r3, .L49+4
 771 0084 1B78     		ldrb	r3, [r3]
 772 0086 DBB2     		uxtb	r3, r3
 773 0088 3F2B     		cmp	r3, #63
 774 008a 02D9     		bls	.L46
 564:.\Generated_Source\PSoC5/SPIS.c ****             {
 565:.\Generated_Source\PSoC5/SPIS.c ****                 SPIS_txBufferWrite = 0u;
 775              		.loc 1 565 0
 776 008c 194B     		ldr	r3, .L49+4
 777 008e 0022     		movs	r2, #0
 778 0090 1A70     		strb	r2, [r3]
 779              	.L46:
 566:.\Generated_Source\PSoC5/SPIS.c ****             }
 567:.\Generated_Source\PSoC5/SPIS.c **** 
 568:.\Generated_Source\PSoC5/SPIS.c ****             if(SPIS_txBufferWrite == SPIS_txBufferRead)
 780              		.loc 1 568 0
 781 0092 184B     		ldr	r3, .L49+4
 782 0094 1B78     		ldrb	r3, [r3]
 783 0096 DAB2     		uxtb	r2, r3
 784 0098 154B     		ldr	r3, .L49
 785 009a 1B78     		ldrb	r3, [r3]
 786 009c DBB2     		uxtb	r3, r3
 787 009e 9A42     		cmp	r2, r3
 788 00a0 11D1     		bne	.L47
 569:.\Generated_Source\PSoC5/SPIS.c ****             {
 570:.\Generated_Source\PSoC5/SPIS.c ****                 SPIS_txBufferRead++;
 789              		.loc 1 570 0
 790 00a2 134B     		ldr	r3, .L49
 791 00a4 1B78     		ldrb	r3, [r3]
 792 00a6 DBB2     		uxtb	r3, r3
 793 00a8 0133     		adds	r3, r3, #1
 794 00aa DAB2     		uxtb	r2, r3
 795 00ac 104B     		ldr	r3, .L49
 796 00ae 1A70     		strb	r2, [r3]
 571:.\Generated_Source\PSoC5/SPIS.c ****                 if(SPIS_txBufferRead >= SPIS_RX_BUFFER_SIZE)
ARM GAS  C:\Users\LUKASC~1\AppData\Local\Temp\ccte1tQg.s 			page 25


 797              		.loc 1 571 0
 798 00b0 0F4B     		ldr	r3, .L49
 799 00b2 1B78     		ldrb	r3, [r3]
 800 00b4 DBB2     		uxtb	r3, r3
 801 00b6 3F2B     		cmp	r3, #63
 802 00b8 02D9     		bls	.L48
 572:.\Generated_Source\PSoC5/SPIS.c ****                 {
 573:.\Generated_Source\PSoC5/SPIS.c ****                     SPIS_txBufferRead = 0u;
 803              		.loc 1 573 0
 804 00ba 0D4B     		ldr	r3, .L49
 805 00bc 0022     		movs	r2, #0
 806 00be 1A70     		strb	r2, [r3]
 807              	.L48:
 574:.\Generated_Source\PSoC5/SPIS.c ****                 }
 575:.\Generated_Source\PSoC5/SPIS.c ****                 SPIS_txBufferFull = 1u;
 808              		.loc 1 575 0
 809 00c0 104B     		ldr	r3, .L49+20
 810 00c2 0122     		movs	r2, #1
 811 00c4 1A70     		strb	r2, [r3]
 812              	.L47:
 576:.\Generated_Source\PSoC5/SPIS.c ****             }
 577:.\Generated_Source\PSoC5/SPIS.c **** 
 578:.\Generated_Source\PSoC5/SPIS.c ****             SPIS_txBuffer[SPIS_txBufferWrite] = txData;
 813              		.loc 1 578 0
 814 00c6 0B4B     		ldr	r3, .L49+4
 815 00c8 1B78     		ldrb	r3, [r3]
 816 00ca DBB2     		uxtb	r3, r3
 817 00cc 1946     		mov	r1, r3
 818 00ce 0E4A     		ldr	r2, .L49+24
 819 00d0 FB79     		ldrb	r3, [r7, #7]
 820 00d2 5354     		strb	r3, [r2, r1]
 579:.\Generated_Source\PSoC5/SPIS.c **** 
 580:.\Generated_Source\PSoC5/SPIS.c ****             SPIS_TX_STATUS_MASK_REG |= SPIS_STS_TX_FIFO_NOT_FULL;
 821              		.loc 1 580 0
 822 00d4 0D4A     		ldr	r2, .L49+28
 823 00d6 0D4B     		ldr	r3, .L49+28
 824 00d8 1B78     		ldrb	r3, [r3]
 825 00da DBB2     		uxtb	r3, r3
 826 00dc 43F00203 		orr	r3, r3, #2
 827 00e0 DBB2     		uxtb	r3, r3
 828 00e2 1370     		strb	r3, [r2]
 829              	.L45:
 581:.\Generated_Source\PSoC5/SPIS.c ****         }
 582:.\Generated_Source\PSoC5/SPIS.c **** 
 583:.\Generated_Source\PSoC5/SPIS.c ****         /* Enable Interrupt. */
 584:.\Generated_Source\PSoC5/SPIS.c ****         SPIS_EnableTxInt();
 830              		.loc 1 584 0
 831 00e4 FFF7FEFF 		bl	SPIS_EnableTxInt
 585:.\Generated_Source\PSoC5/SPIS.c **** 
 586:.\Generated_Source\PSoC5/SPIS.c ****     #else /* !SPIS_TX_SOFTWARE_BUF_ENABLED */
 587:.\Generated_Source\PSoC5/SPIS.c ****         /* Wait until TX FIFO has a place */
 588:.\Generated_Source\PSoC5/SPIS.c ****         while(0u == (SPIS_TX_STATUS_REG & SPIS_STS_TX_FIFO_NOT_FULL))
 589:.\Generated_Source\PSoC5/SPIS.c ****         {
 590:.\Generated_Source\PSoC5/SPIS.c ****         }
 591:.\Generated_Source\PSoC5/SPIS.c **** 
 592:.\Generated_Source\PSoC5/SPIS.c ****         /* Put data element into the TX FIFO */
 593:.\Generated_Source\PSoC5/SPIS.c ****         CY_SET_REG8(SPIS_TXDATA_PTR, txData);
ARM GAS  C:\Users\LUKASC~1\AppData\Local\Temp\ccte1tQg.s 			page 26


 594:.\Generated_Source\PSoC5/SPIS.c ****         
 595:.\Generated_Source\PSoC5/SPIS.c ****     #endif /* SPIS_TX_SOFTWARE_BUF_ENABLED */
 596:.\Generated_Source\PSoC5/SPIS.c **** }
 832              		.loc 1 596 0
 833 00e8 1037     		adds	r7, r7, #16
 834              		.cfi_def_cfa_offset 8
 835 00ea BD46     		mov	sp, r7
 836              		.cfi_def_cfa_register 13
 837              		@ sp needed
 838 00ec 80BD     		pop	{r7, pc}
 839              	.L50:
 840 00ee 00BF     		.align	2
 841              	.L49:
 842 00f0 00000000 		.word	SPIS_txBufferRead
 843 00f4 00000000 		.word	SPIS_txBufferWrite
 844 00f8 64650040 		.word	1073767780
 845 00fc 00000000 		.word	SPIS_swStatusTx
 846 0100 44640040 		.word	1073767492
 847 0104 00000000 		.word	SPIS_txBufferFull
 848 0108 00000000 		.word	SPIS_txBuffer
 849 010c 84650040 		.word	1073767812
 850              		.cfi_endproc
 851              	.LFE12:
 852              		.size	SPIS_WriteTxData, .-SPIS_WriteTxData
 853              		.section	.text.SPIS_WriteTxDataZero,"ax",%progbits
 854              		.align	2
 855              		.global	SPIS_WriteTxDataZero
 856              		.thumb
 857              		.thumb_func
 858              		.type	SPIS_WriteTxDataZero, %function
 859              	SPIS_WriteTxDataZero:
 860              	.LFB13:
 597:.\Generated_Source\PSoC5/SPIS.c **** 
 598:.\Generated_Source\PSoC5/SPIS.c **** #if(SPIS_MODE_USE_ZERO != 0u)
 599:.\Generated_Source\PSoC5/SPIS.c **** 
 600:.\Generated_Source\PSoC5/SPIS.c ****     /*******************************************************************************
 601:.\Generated_Source\PSoC5/SPIS.c ****     * Function Name: SPIS_WriteTxDataZero
 602:.\Generated_Source\PSoC5/SPIS.c ****     ********************************************************************************
 603:.\Generated_Source\PSoC5/SPIS.c ****     *
 604:.\Generated_Source\PSoC5/SPIS.c ****     * Summary:
 605:.\Generated_Source\PSoC5/SPIS.c ****     *  Write a byte zero of data to be sent across the SPI. This must be used in
 606:.\Generated_Source\PSoC5/SPIS.c ****     *  Mode 00 and 01 if the FIFO is empty and data is not being sent.
 607:.\Generated_Source\PSoC5/SPIS.c ****     *
 608:.\Generated_Source\PSoC5/SPIS.c ****     * Parameters:
 609:.\Generated_Source\PSoC5/SPIS.c ****     *  txDataByte: The data value to send across the SPI.
 610:.\Generated_Source\PSoC5/SPIS.c ****     *
 611:.\Generated_Source\PSoC5/SPIS.c ****     * Return:
 612:.\Generated_Source\PSoC5/SPIS.c ****     *  None.
 613:.\Generated_Source\PSoC5/SPIS.c ****     *
 614:.\Generated_Source\PSoC5/SPIS.c ****     * Theory:
 615:.\Generated_Source\PSoC5/SPIS.c ****     *  Allows the user to transmit any byte of data in a single transfer. Clear
 616:.\Generated_Source\PSoC5/SPIS.c ****     *  status register of the component.
 617:.\Generated_Source\PSoC5/SPIS.c ****     *
 618:.\Generated_Source\PSoC5/SPIS.c ****     *******************************************************************************/
 619:.\Generated_Source\PSoC5/SPIS.c ****     void SPIS_WriteTxDataZero(uint8 txDataByte)
 620:.\Generated_Source\PSoC5/SPIS.c ****                                         
 621:.\Generated_Source\PSoC5/SPIS.c ****     {
ARM GAS  C:\Users\LUKASC~1\AppData\Local\Temp\ccte1tQg.s 			page 27


 861              		.loc 1 621 0
 862              		.cfi_startproc
 863              		@ args = 0, pretend = 0, frame = 8
 864              		@ frame_needed = 1, uses_anonymous_args = 0
 865              		@ link register save eliminated.
 866 0000 80B4     		push	{r7}
 867              		.cfi_def_cfa_offset 4
 868              		.cfi_offset 7, -4
 869 0002 83B0     		sub	sp, sp, #12
 870              		.cfi_def_cfa_offset 16
 871 0004 00AF     		add	r7, sp, #0
 872              		.cfi_def_cfa_register 7
 873 0006 0346     		mov	r3, r0
 874 0008 FB71     		strb	r3, [r7, #7]
 622:.\Generated_Source\PSoC5/SPIS.c ****         CY_SET_REG8(SPIS_TXDATA_ZERO_PTR, txDataByte);
 875              		.loc 1 622 0
 876 000a 044A     		ldr	r2, .L52
 877 000c FB79     		ldrb	r3, [r7, #7]
 878 000e 1370     		strb	r3, [r2]
 623:.\Generated_Source\PSoC5/SPIS.c ****     }
 879              		.loc 1 623 0
 880 0010 0C37     		adds	r7, r7, #12
 881              		.cfi_def_cfa_offset 4
 882 0012 BD46     		mov	sp, r7
 883              		.cfi_def_cfa_register 13
 884              		@ sp needed
 885 0014 5DF8047B 		ldr	r7, [sp], #4
 886              		.cfi_restore 7
 887              		.cfi_def_cfa_offset 0
 888 0018 7047     		bx	lr
 889              	.L53:
 890 001a 00BF     		.align	2
 891              	.L52:
 892 001c 04640040 		.word	1073767428
 893              		.cfi_endproc
 894              	.LFE13:
 895              		.size	SPIS_WriteTxDataZero, .-SPIS_WriteTxDataZero
 896              		.section	.text.SPIS_ReadRxData,"ax",%progbits
 897              		.align	2
 898              		.global	SPIS_ReadRxData
 899              		.thumb
 900              		.thumb_func
 901              		.type	SPIS_ReadRxData, %function
 902              	SPIS_ReadRxData:
 903              	.LFB14:
 624:.\Generated_Source\PSoC5/SPIS.c **** 
 625:.\Generated_Source\PSoC5/SPIS.c **** #endif /* (SPIS_MODE_USE_ZERO != 0u) */
 626:.\Generated_Source\PSoC5/SPIS.c **** 
 627:.\Generated_Source\PSoC5/SPIS.c **** 
 628:.\Generated_Source\PSoC5/SPIS.c **** /*******************************************************************************
 629:.\Generated_Source\PSoC5/SPIS.c **** * Function Name: SPIS_ReadRxData
 630:.\Generated_Source\PSoC5/SPIS.c **** ********************************************************************************
 631:.\Generated_Source\PSoC5/SPIS.c **** *
 632:.\Generated_Source\PSoC5/SPIS.c **** * Summary:
 633:.\Generated_Source\PSoC5/SPIS.c **** *  Read the next byte of data received across the SPI.
 634:.\Generated_Source\PSoC5/SPIS.c **** *
 635:.\Generated_Source\PSoC5/SPIS.c **** * Parameters:
ARM GAS  C:\Users\LUKASC~1\AppData\Local\Temp\ccte1tQg.s 			page 28


 636:.\Generated_Source\PSoC5/SPIS.c **** *  None.
 637:.\Generated_Source\PSoC5/SPIS.c **** *
 638:.\Generated_Source\PSoC5/SPIS.c **** * Return:
 639:.\Generated_Source\PSoC5/SPIS.c **** *  The next byte of data read from the FIFO.
 640:.\Generated_Source\PSoC5/SPIS.c **** *
 641:.\Generated_Source\PSoC5/SPIS.c **** * Global variables:
 642:.\Generated_Source\PSoC5/SPIS.c **** *  SPIS_rxBufferWrite - used for the account of the bytes which
 643:.\Generated_Source\PSoC5/SPIS.c **** *  have been written down in the RX software buffer.
 644:.\Generated_Source\PSoC5/SPIS.c **** *  SPIS_rxBufferRead - used for the account of the bytes which
 645:.\Generated_Source\PSoC5/SPIS.c **** *  have been read from the RX software buffer, modified every function
 646:.\Generated_Source\PSoC5/SPIS.c **** *  call if RX Software Buffer is used.
 647:.\Generated_Source\PSoC5/SPIS.c **** *  SPIS_rxBuffer[SPIS_RX_BUFFER_SIZE] - used to store
 648:.\Generated_Source\PSoC5/SPIS.c **** *  received data.
 649:.\Generated_Source\PSoC5/SPIS.c **** *
 650:.\Generated_Source\PSoC5/SPIS.c **** * Theory:
 651:.\Generated_Source\PSoC5/SPIS.c **** *  Allows the user to read a byte of data received.
 652:.\Generated_Source\PSoC5/SPIS.c **** *
 653:.\Generated_Source\PSoC5/SPIS.c **** * Side Effects:
 654:.\Generated_Source\PSoC5/SPIS.c **** *  Will return invalid data if the FIFO is empty.  User should poll for FIFO
 655:.\Generated_Source\PSoC5/SPIS.c **** *  empty status before calling Read function.
 656:.\Generated_Source\PSoC5/SPIS.c **** *
 657:.\Generated_Source\PSoC5/SPIS.c **** * Reentrant:
 658:.\Generated_Source\PSoC5/SPIS.c **** *  No.
 659:.\Generated_Source\PSoC5/SPIS.c **** *
 660:.\Generated_Source\PSoC5/SPIS.c **** *******************************************************************************/
 661:.\Generated_Source\PSoC5/SPIS.c **** uint8 SPIS_ReadRxData(void) 
 662:.\Generated_Source\PSoC5/SPIS.c **** {
 904              		.loc 1 662 0
 905              		.cfi_startproc
 906              		@ args = 0, pretend = 0, frame = 8
 907              		@ frame_needed = 1, uses_anonymous_args = 0
 908 0000 80B5     		push	{r7, lr}
 909              		.cfi_def_cfa_offset 8
 910              		.cfi_offset 7, -8
 911              		.cfi_offset 14, -4
 912 0002 82B0     		sub	sp, sp, #8
 913              		.cfi_def_cfa_offset 16
 914 0004 00AF     		add	r7, sp, #0
 915              		.cfi_def_cfa_register 7
 663:.\Generated_Source\PSoC5/SPIS.c ****     uint8 rxData;
 664:.\Generated_Source\PSoC5/SPIS.c **** 
 665:.\Generated_Source\PSoC5/SPIS.c ****     #if(SPIS_RX_SOFTWARE_BUF_ENABLED)
 666:.\Generated_Source\PSoC5/SPIS.c **** 
 667:.\Generated_Source\PSoC5/SPIS.c ****         /* Disable Interrupt to protect variables that could change on interrupt. */
 668:.\Generated_Source\PSoC5/SPIS.c ****         SPIS_DisableRxInt();
 916              		.loc 1 668 0
 917 0006 FFF7FEFF 		bl	SPIS_DisableRxInt
 669:.\Generated_Source\PSoC5/SPIS.c **** 
 670:.\Generated_Source\PSoC5/SPIS.c ****         if(SPIS_rxBufferRead != SPIS_rxBufferWrite)
 918              		.loc 1 670 0
 919 000a 174B     		ldr	r3, .L59
 920 000c 1B78     		ldrb	r3, [r3]
 921 000e DAB2     		uxtb	r2, r3
 922 0010 164B     		ldr	r3, .L59+4
 923 0012 1B78     		ldrb	r3, [r3]
 924 0014 DBB2     		uxtb	r3, r3
 925 0016 9A42     		cmp	r2, r3
ARM GAS  C:\Users\LUKASC~1\AppData\Local\Temp\ccte1tQg.s 			page 29


 926 0018 17D0     		beq	.L55
 671:.\Generated_Source\PSoC5/SPIS.c ****         {
 672:.\Generated_Source\PSoC5/SPIS.c ****             if(SPIS_rxBufferFull == 0u)
 927              		.loc 1 672 0
 928 001a 154B     		ldr	r3, .L59+8
 929 001c 1B78     		ldrb	r3, [r3]
 930 001e DBB2     		uxtb	r3, r3
 931 0020 002B     		cmp	r3, #0
 932 0022 0FD1     		bne	.L56
 673:.\Generated_Source\PSoC5/SPIS.c ****             {
 674:.\Generated_Source\PSoC5/SPIS.c ****                 SPIS_rxBufferRead++;
 933              		.loc 1 674 0
 934 0024 104B     		ldr	r3, .L59
 935 0026 1B78     		ldrb	r3, [r3]
 936 0028 DBB2     		uxtb	r3, r3
 937 002a 0133     		adds	r3, r3, #1
 938 002c DAB2     		uxtb	r2, r3
 939 002e 0E4B     		ldr	r3, .L59
 940 0030 1A70     		strb	r2, [r3]
 675:.\Generated_Source\PSoC5/SPIS.c ****                 if(SPIS_rxBufferRead >= SPIS_RX_BUFFER_SIZE)
 941              		.loc 1 675 0
 942 0032 0D4B     		ldr	r3, .L59
 943 0034 1B78     		ldrb	r3, [r3]
 944 0036 DBB2     		uxtb	r3, r3
 945 0038 3F2B     		cmp	r3, #63
 946 003a 06D9     		bls	.L55
 676:.\Generated_Source\PSoC5/SPIS.c ****                 {
 677:.\Generated_Source\PSoC5/SPIS.c ****                     SPIS_rxBufferRead = 0u;
 947              		.loc 1 677 0
 948 003c 0A4B     		ldr	r3, .L59
 949 003e 0022     		movs	r2, #0
 950 0040 1A70     		strb	r2, [r3]
 951 0042 02E0     		b	.L55
 952              	.L56:
 678:.\Generated_Source\PSoC5/SPIS.c ****                 }
 679:.\Generated_Source\PSoC5/SPIS.c ****             }
 680:.\Generated_Source\PSoC5/SPIS.c ****             else
 681:.\Generated_Source\PSoC5/SPIS.c ****             {
 682:.\Generated_Source\PSoC5/SPIS.c ****                 SPIS_rxBufferFull = 0u;
 953              		.loc 1 682 0
 954 0044 0A4B     		ldr	r3, .L59+8
 955 0046 0022     		movs	r2, #0
 956 0048 1A70     		strb	r2, [r3]
 957              	.L55:
 683:.\Generated_Source\PSoC5/SPIS.c ****             }
 684:.\Generated_Source\PSoC5/SPIS.c ****         }
 685:.\Generated_Source\PSoC5/SPIS.c **** 
 686:.\Generated_Source\PSoC5/SPIS.c ****         rxData = SPIS_rxBuffer[SPIS_rxBufferRead];
 958              		.loc 1 686 0
 959 004a 074B     		ldr	r3, .L59
 960 004c 1B78     		ldrb	r3, [r3]
 961 004e DBB2     		uxtb	r3, r3
 962 0050 1A46     		mov	r2, r3
 963 0052 084B     		ldr	r3, .L59+12
 964 0054 9B5C     		ldrb	r3, [r3, r2]
 965 0056 FB71     		strb	r3, [r7, #7]
 687:.\Generated_Source\PSoC5/SPIS.c **** 
ARM GAS  C:\Users\LUKASC~1\AppData\Local\Temp\ccte1tQg.s 			page 30


 688:.\Generated_Source\PSoC5/SPIS.c ****         /* Enable Interrupt. */
 689:.\Generated_Source\PSoC5/SPIS.c ****         SPIS_EnableRxInt();
 966              		.loc 1 689 0
 967 0058 FFF7FEFF 		bl	SPIS_EnableRxInt
 690:.\Generated_Source\PSoC5/SPIS.c **** 
 691:.\Generated_Source\PSoC5/SPIS.c ****     #else /* !SPIS_RX_SOFTWARE_BUF_ENABLED */
 692:.\Generated_Source\PSoC5/SPIS.c **** 
 693:.\Generated_Source\PSoC5/SPIS.c ****         rxData = CY_GET_REG8(SPIS_RXDATA_PTR);
 694:.\Generated_Source\PSoC5/SPIS.c **** 
 695:.\Generated_Source\PSoC5/SPIS.c ****     #endif /* SPIS_RX_SOFTWARE_BUF_ENABLED */
 696:.\Generated_Source\PSoC5/SPIS.c **** 
 697:.\Generated_Source\PSoC5/SPIS.c ****     return (rxData);
 968              		.loc 1 697 0
 969 005c FB79     		ldrb	r3, [r7, #7]	@ zero_extendqisi2
 698:.\Generated_Source\PSoC5/SPIS.c **** 
 699:.\Generated_Source\PSoC5/SPIS.c **** }
 970              		.loc 1 699 0
 971 005e 1846     		mov	r0, r3
 972 0060 0837     		adds	r7, r7, #8
 973              		.cfi_def_cfa_offset 8
 974 0062 BD46     		mov	sp, r7
 975              		.cfi_def_cfa_register 13
 976              		@ sp needed
 977 0064 80BD     		pop	{r7, pc}
 978              	.L60:
 979 0066 00BF     		.align	2
 980              	.L59:
 981 0068 00000000 		.word	SPIS_rxBufferRead
 982 006c 00000000 		.word	SPIS_rxBufferWrite
 983 0070 00000000 		.word	SPIS_rxBufferFull
 984 0074 00000000 		.word	SPIS_rxBuffer
 985              		.cfi_endproc
 986              	.LFE14:
 987              		.size	SPIS_ReadRxData, .-SPIS_ReadRxData
 988              		.section	.text.SPIS_GetRxBufferSize,"ax",%progbits
 989              		.align	2
 990              		.global	SPIS_GetRxBufferSize
 991              		.thumb
 992              		.thumb_func
 993              		.type	SPIS_GetRxBufferSize, %function
 994              	SPIS_GetRxBufferSize:
 995              	.LFB15:
 700:.\Generated_Source\PSoC5/SPIS.c **** 
 701:.\Generated_Source\PSoC5/SPIS.c **** 
 702:.\Generated_Source\PSoC5/SPIS.c **** /*******************************************************************************
 703:.\Generated_Source\PSoC5/SPIS.c **** * Function Name: SPIS_GetRxBufferSize
 704:.\Generated_Source\PSoC5/SPIS.c **** ********************************************************************************
 705:.\Generated_Source\PSoC5/SPIS.c **** *
 706:.\Generated_Source\PSoC5/SPIS.c **** * Summary:
 707:.\Generated_Source\PSoC5/SPIS.c **** *  Returns the number of bytes/words of data currently held in the RX buffer.
 708:.\Generated_Source\PSoC5/SPIS.c **** *  If RX Software Buffer not used then function return 0 if FIFO empty or 1 if
 709:.\Generated_Source\PSoC5/SPIS.c **** *  FIFO not empty. In another case function return size of RX Software Buffer.
 710:.\Generated_Source\PSoC5/SPIS.c **** *
 711:.\Generated_Source\PSoC5/SPIS.c **** * Parameters:
 712:.\Generated_Source\PSoC5/SPIS.c **** *  None.
 713:.\Generated_Source\PSoC5/SPIS.c **** *
 714:.\Generated_Source\PSoC5/SPIS.c **** * Return:
ARM GAS  C:\Users\LUKASC~1\AppData\Local\Temp\ccte1tQg.s 			page 31


 715:.\Generated_Source\PSoC5/SPIS.c **** *  Integer count of the number of bytes/words in the RX buffer.
 716:.\Generated_Source\PSoC5/SPIS.c **** *
 717:.\Generated_Source\PSoC5/SPIS.c **** * Global variables:
 718:.\Generated_Source\PSoC5/SPIS.c **** *  SPIS_rxBufferWrite - used for the account of the bytes which
 719:.\Generated_Source\PSoC5/SPIS.c **** *  have been written down in the RX software buffer.
 720:.\Generated_Source\PSoC5/SPIS.c **** *  SPIS_rxBufferRead - used for the account of the bytes which
 721:.\Generated_Source\PSoC5/SPIS.c **** *  have been read from the RX software buffer.
 722:.\Generated_Source\PSoC5/SPIS.c **** *
 723:.\Generated_Source\PSoC5/SPIS.c **** * Theory:
 724:.\Generated_Source\PSoC5/SPIS.c **** *  Allows the user to find out how full the RX Buffer is.
 725:.\Generated_Source\PSoC5/SPIS.c **** *
 726:.\Generated_Source\PSoC5/SPIS.c **** *******************************************************************************/
 727:.\Generated_Source\PSoC5/SPIS.c **** uint8 SPIS_GetRxBufferSize(void) 
 728:.\Generated_Source\PSoC5/SPIS.c **** {
 996              		.loc 1 728 0
 997              		.cfi_startproc
 998              		@ args = 0, pretend = 0, frame = 8
 999              		@ frame_needed = 1, uses_anonymous_args = 0
 1000 0000 80B5     		push	{r7, lr}
 1001              		.cfi_def_cfa_offset 8
 1002              		.cfi_offset 7, -8
 1003              		.cfi_offset 14, -4
 1004 0002 82B0     		sub	sp, sp, #8
 1005              		.cfi_def_cfa_offset 16
 1006 0004 00AF     		add	r7, sp, #0
 1007              		.cfi_def_cfa_register 7
 729:.\Generated_Source\PSoC5/SPIS.c ****     uint8 size;
 730:.\Generated_Source\PSoC5/SPIS.c **** 
 731:.\Generated_Source\PSoC5/SPIS.c ****     #if(SPIS_RX_SOFTWARE_BUF_ENABLED)
 732:.\Generated_Source\PSoC5/SPIS.c **** 
 733:.\Generated_Source\PSoC5/SPIS.c ****         /* Disable Interrupt to protect variables that could change on interrupt. */
 734:.\Generated_Source\PSoC5/SPIS.c ****         SPIS_DisableRxInt();
 1008              		.loc 1 734 0
 1009 0006 FFF7FEFF 		bl	SPIS_DisableRxInt
 735:.\Generated_Source\PSoC5/SPIS.c **** 
 736:.\Generated_Source\PSoC5/SPIS.c ****         if(SPIS_rxBufferRead == SPIS_rxBufferWrite)
 1010              		.loc 1 736 0
 1011 000a 164B     		ldr	r3, .L66
 1012 000c 1B78     		ldrb	r3, [r3]
 1013 000e DAB2     		uxtb	r2, r3
 1014 0010 154B     		ldr	r3, .L66+4
 1015 0012 1B78     		ldrb	r3, [r3]
 1016 0014 DBB2     		uxtb	r3, r3
 1017 0016 9A42     		cmp	r2, r3
 1018 0018 02D1     		bne	.L62
 737:.\Generated_Source\PSoC5/SPIS.c ****         {
 738:.\Generated_Source\PSoC5/SPIS.c ****             size = 0u; /* No data in RX buffer */
 1019              		.loc 1 738 0
 1020 001a 0023     		movs	r3, #0
 1021 001c FB71     		strb	r3, [r7, #7]
 1022 001e 1AE0     		b	.L63
 1023              	.L62:
 739:.\Generated_Source\PSoC5/SPIS.c ****         }
 740:.\Generated_Source\PSoC5/SPIS.c ****         else if(SPIS_rxBufferRead < SPIS_rxBufferWrite)
 1024              		.loc 1 740 0
 1025 0020 104B     		ldr	r3, .L66
 1026 0022 1B78     		ldrb	r3, [r3]
ARM GAS  C:\Users\LUKASC~1\AppData\Local\Temp\ccte1tQg.s 			page 32


 1027 0024 DAB2     		uxtb	r2, r3
 1028 0026 104B     		ldr	r3, .L66+4
 1029 0028 1B78     		ldrb	r3, [r3]
 1030 002a DBB2     		uxtb	r3, r3
 1031 002c 9A42     		cmp	r2, r3
 1032 002e 08D2     		bcs	.L64
 741:.\Generated_Source\PSoC5/SPIS.c ****         {
 742:.\Generated_Source\PSoC5/SPIS.c ****             size = (SPIS_rxBufferWrite - SPIS_rxBufferRead);
 1033              		.loc 1 742 0
 1034 0030 0D4B     		ldr	r3, .L66+4
 1035 0032 1B78     		ldrb	r3, [r3]
 1036 0034 DAB2     		uxtb	r2, r3
 1037 0036 0B4B     		ldr	r3, .L66
 1038 0038 1B78     		ldrb	r3, [r3]
 1039 003a DBB2     		uxtb	r3, r3
 1040 003c D31A     		subs	r3, r2, r3
 1041 003e FB71     		strb	r3, [r7, #7]
 1042 0040 09E0     		b	.L63
 1043              	.L64:
 743:.\Generated_Source\PSoC5/SPIS.c ****         }
 744:.\Generated_Source\PSoC5/SPIS.c ****         else
 745:.\Generated_Source\PSoC5/SPIS.c ****         {
 746:.\Generated_Source\PSoC5/SPIS.c ****             size = (SPIS_RX_BUFFER_SIZE - SPIS_rxBufferRead) + SPIS_rxBufferWrite;
 1044              		.loc 1 746 0
 1045 0042 094B     		ldr	r3, .L66+4
 1046 0044 1B78     		ldrb	r3, [r3]
 1047 0046 DAB2     		uxtb	r2, r3
 1048 0048 064B     		ldr	r3, .L66
 1049 004a 1B78     		ldrb	r3, [r3]
 1050 004c DBB2     		uxtb	r3, r3
 1051 004e D31A     		subs	r3, r2, r3
 1052 0050 DBB2     		uxtb	r3, r3
 1053 0052 4033     		adds	r3, r3, #64
 1054 0054 FB71     		strb	r3, [r7, #7]
 1055              	.L63:
 747:.\Generated_Source\PSoC5/SPIS.c ****         }
 748:.\Generated_Source\PSoC5/SPIS.c **** 
 749:.\Generated_Source\PSoC5/SPIS.c ****         /* Enable interrupt. */
 750:.\Generated_Source\PSoC5/SPIS.c ****         SPIS_EnableRxInt();
 1056              		.loc 1 750 0
 1057 0056 FFF7FEFF 		bl	SPIS_EnableRxInt
 751:.\Generated_Source\PSoC5/SPIS.c **** 
 752:.\Generated_Source\PSoC5/SPIS.c ****     #else /* !SPIS_RX_SOFTWARE_BUF_ENABLED*/
 753:.\Generated_Source\PSoC5/SPIS.c **** 
 754:.\Generated_Source\PSoC5/SPIS.c ****         /* We can only know if there is data in the fifo. */
 755:.\Generated_Source\PSoC5/SPIS.c ****         size = ((SPIS_RX_STATUS_REG & SPIS_STS_RX_FIFO_NOT_EMPTY) != 0u) ? 1u : 0u;
 756:.\Generated_Source\PSoC5/SPIS.c **** 
 757:.\Generated_Source\PSoC5/SPIS.c ****     #endif /* SPIS_RX_SOFTWARE_BUF_ENABLED */
 758:.\Generated_Source\PSoC5/SPIS.c **** 
 759:.\Generated_Source\PSoC5/SPIS.c ****     return (size);
 1058              		.loc 1 759 0
 1059 005a FB79     		ldrb	r3, [r7, #7]	@ zero_extendqisi2
 760:.\Generated_Source\PSoC5/SPIS.c **** }
 1060              		.loc 1 760 0
 1061 005c 1846     		mov	r0, r3
 1062 005e 0837     		adds	r7, r7, #8
 1063              		.cfi_def_cfa_offset 8
ARM GAS  C:\Users\LUKASC~1\AppData\Local\Temp\ccte1tQg.s 			page 33


 1064 0060 BD46     		mov	sp, r7
 1065              		.cfi_def_cfa_register 13
 1066              		@ sp needed
 1067 0062 80BD     		pop	{r7, pc}
 1068              	.L67:
 1069              		.align	2
 1070              	.L66:
 1071 0064 00000000 		.word	SPIS_rxBufferRead
 1072 0068 00000000 		.word	SPIS_rxBufferWrite
 1073              		.cfi_endproc
 1074              	.LFE15:
 1075              		.size	SPIS_GetRxBufferSize, .-SPIS_GetRxBufferSize
 1076              		.section	.text.SPIS_GetTxBufferSize,"ax",%progbits
 1077              		.align	2
 1078              		.global	SPIS_GetTxBufferSize
 1079              		.thumb
 1080              		.thumb_func
 1081              		.type	SPIS_GetTxBufferSize, %function
 1082              	SPIS_GetTxBufferSize:
 1083              	.LFB16:
 761:.\Generated_Source\PSoC5/SPIS.c **** 
 762:.\Generated_Source\PSoC5/SPIS.c **** 
 763:.\Generated_Source\PSoC5/SPIS.c **** /*******************************************************************************
 764:.\Generated_Source\PSoC5/SPIS.c **** * Function Name: SPIS_GetTxBufferSize
 765:.\Generated_Source\PSoC5/SPIS.c **** ********************************************************************************
 766:.\Generated_Source\PSoC5/SPIS.c **** *
 767:.\Generated_Source\PSoC5/SPIS.c **** * Summary:
 768:.\Generated_Source\PSoC5/SPIS.c **** *  Returns the number of bytes/words of data currently held in the TX buffer.
 769:.\Generated_Source\PSoC5/SPIS.c **** *  If TX Software Buffer not used then function return 0 - if FIFO empty, 1 - if
 770:.\Generated_Source\PSoC5/SPIS.c **** *  FIFO not full, 4 - if FIFO full. In another case function return size of TX
 771:.\Generated_Source\PSoC5/SPIS.c **** *  Software Buffer.
 772:.\Generated_Source\PSoC5/SPIS.c **** *
 773:.\Generated_Source\PSoC5/SPIS.c **** * Parameters:
 774:.\Generated_Source\PSoC5/SPIS.c **** *  None.
 775:.\Generated_Source\PSoC5/SPIS.c **** *
 776:.\Generated_Source\PSoC5/SPIS.c **** * Return:
 777:.\Generated_Source\PSoC5/SPIS.c **** *  Integer count of the number of bytes/words in the TX buffer.
 778:.\Generated_Source\PSoC5/SPIS.c **** *
 779:.\Generated_Source\PSoC5/SPIS.c **** * Global variables:
 780:.\Generated_Source\PSoC5/SPIS.c **** *  SPIS_txBufferWrite - used for the account of the bytes which
 781:.\Generated_Source\PSoC5/SPIS.c **** *  have been written down in the TX software buffer.
 782:.\Generated_Source\PSoC5/SPIS.c **** *  SPIS_txBufferRead - used for the account of the bytes which
 783:.\Generated_Source\PSoC5/SPIS.c **** *  have been read from the TX software buffer.
 784:.\Generated_Source\PSoC5/SPIS.c **** *
 785:.\Generated_Source\PSoC5/SPIS.c **** * Theory:
 786:.\Generated_Source\PSoC5/SPIS.c **** *  Allows the user to find out how full the TX Buffer is.
 787:.\Generated_Source\PSoC5/SPIS.c **** *
 788:.\Generated_Source\PSoC5/SPIS.c **** * Side Effects:
 789:.\Generated_Source\PSoC5/SPIS.c **** *  Clear status register of the component.
 790:.\Generated_Source\PSoC5/SPIS.c **** *
 791:.\Generated_Source\PSoC5/SPIS.c **** *******************************************************************************/
 792:.\Generated_Source\PSoC5/SPIS.c **** uint8  SPIS_GetTxBufferSize(void) 
 793:.\Generated_Source\PSoC5/SPIS.c **** {
 1084              		.loc 1 793 0
 1085              		.cfi_startproc
 1086              		@ args = 0, pretend = 0, frame = 8
 1087              		@ frame_needed = 1, uses_anonymous_args = 0
ARM GAS  C:\Users\LUKASC~1\AppData\Local\Temp\ccte1tQg.s 			page 34


 1088 0000 80B5     		push	{r7, lr}
 1089              		.cfi_def_cfa_offset 8
 1090              		.cfi_offset 7, -8
 1091              		.cfi_offset 14, -4
 1092 0002 82B0     		sub	sp, sp, #8
 1093              		.cfi_def_cfa_offset 16
 1094 0004 00AF     		add	r7, sp, #0
 1095              		.cfi_def_cfa_register 7
 794:.\Generated_Source\PSoC5/SPIS.c ****     uint8 size;
 795:.\Generated_Source\PSoC5/SPIS.c **** 
 796:.\Generated_Source\PSoC5/SPIS.c ****     #if(SPIS_TX_SOFTWARE_BUF_ENABLED)
 797:.\Generated_Source\PSoC5/SPIS.c **** 
 798:.\Generated_Source\PSoC5/SPIS.c ****         /* Disable Interrupt to protect variables that could change on interrupt. */
 799:.\Generated_Source\PSoC5/SPIS.c ****         SPIS_DisableTxInt();
 1096              		.loc 1 799 0
 1097 0006 FFF7FEFF 		bl	SPIS_DisableTxInt
 800:.\Generated_Source\PSoC5/SPIS.c **** 
 801:.\Generated_Source\PSoC5/SPIS.c ****         if(SPIS_txBufferRead == SPIS_txBufferWrite)
 1098              		.loc 1 801 0
 1099 000a 164B     		ldr	r3, .L73
 1100 000c 1B78     		ldrb	r3, [r3]
 1101 000e DAB2     		uxtb	r2, r3
 1102 0010 154B     		ldr	r3, .L73+4
 1103 0012 1B78     		ldrb	r3, [r3]
 1104 0014 DBB2     		uxtb	r3, r3
 1105 0016 9A42     		cmp	r2, r3
 1106 0018 02D1     		bne	.L69
 802:.\Generated_Source\PSoC5/SPIS.c ****         {
 803:.\Generated_Source\PSoC5/SPIS.c ****             size = 0u;
 1107              		.loc 1 803 0
 1108 001a 0023     		movs	r3, #0
 1109 001c FB71     		strb	r3, [r7, #7]
 1110 001e 1AE0     		b	.L70
 1111              	.L69:
 804:.\Generated_Source\PSoC5/SPIS.c ****         }
 805:.\Generated_Source\PSoC5/SPIS.c ****         else if(SPIS_txBufferRead < SPIS_txBufferWrite)
 1112              		.loc 1 805 0
 1113 0020 104B     		ldr	r3, .L73
 1114 0022 1B78     		ldrb	r3, [r3]
 1115 0024 DAB2     		uxtb	r2, r3
 1116 0026 104B     		ldr	r3, .L73+4
 1117 0028 1B78     		ldrb	r3, [r3]
 1118 002a DBB2     		uxtb	r3, r3
 1119 002c 9A42     		cmp	r2, r3
 1120 002e 08D2     		bcs	.L71
 806:.\Generated_Source\PSoC5/SPIS.c ****         {
 807:.\Generated_Source\PSoC5/SPIS.c ****             size = (SPIS_txBufferWrite - SPIS_txBufferRead);
 1121              		.loc 1 807 0
 1122 0030 0D4B     		ldr	r3, .L73+4
 1123 0032 1B78     		ldrb	r3, [r3]
 1124 0034 DAB2     		uxtb	r2, r3
 1125 0036 0B4B     		ldr	r3, .L73
 1126 0038 1B78     		ldrb	r3, [r3]
 1127 003a DBB2     		uxtb	r3, r3
 1128 003c D31A     		subs	r3, r2, r3
 1129 003e FB71     		strb	r3, [r7, #7]
 1130 0040 09E0     		b	.L70
ARM GAS  C:\Users\LUKASC~1\AppData\Local\Temp\ccte1tQg.s 			page 35


 1131              	.L71:
 808:.\Generated_Source\PSoC5/SPIS.c ****         }
 809:.\Generated_Source\PSoC5/SPIS.c ****         else
 810:.\Generated_Source\PSoC5/SPIS.c ****         {
 811:.\Generated_Source\PSoC5/SPIS.c ****             size = (SPIS_TX_BUFFER_SIZE - SPIS_txBufferRead) + SPIS_txBufferWrite;
 1132              		.loc 1 811 0
 1133 0042 094B     		ldr	r3, .L73+4
 1134 0044 1B78     		ldrb	r3, [r3]
 1135 0046 DAB2     		uxtb	r2, r3
 1136 0048 064B     		ldr	r3, .L73
 1137 004a 1B78     		ldrb	r3, [r3]
 1138 004c DBB2     		uxtb	r3, r3
 1139 004e D31A     		subs	r3, r2, r3
 1140 0050 DBB2     		uxtb	r3, r3
 1141 0052 4033     		adds	r3, r3, #64
 1142 0054 FB71     		strb	r3, [r7, #7]
 1143              	.L70:
 812:.\Generated_Source\PSoC5/SPIS.c ****         }
 813:.\Generated_Source\PSoC5/SPIS.c **** 
 814:.\Generated_Source\PSoC5/SPIS.c ****         /* Enable Interrupt. */
 815:.\Generated_Source\PSoC5/SPIS.c ****         SPIS_EnableTxInt();
 1144              		.loc 1 815 0
 1145 0056 FFF7FEFF 		bl	SPIS_EnableTxInt
 816:.\Generated_Source\PSoC5/SPIS.c **** 
 817:.\Generated_Source\PSoC5/SPIS.c ****     #else /* !SPIS_TX_SOFTWARE_BUF_ENABLED */
 818:.\Generated_Source\PSoC5/SPIS.c **** 
 819:.\Generated_Source\PSoC5/SPIS.c ****         size = SPIS_TX_STATUS_REG;
 820:.\Generated_Source\PSoC5/SPIS.c **** 
 821:.\Generated_Source\PSoC5/SPIS.c ****         /* Is the fifo is full. */
 822:.\Generated_Source\PSoC5/SPIS.c ****         if((size & SPIS_STS_TX_FIFO_EMPTY) != 0u)
 823:.\Generated_Source\PSoC5/SPIS.c ****         {
 824:.\Generated_Source\PSoC5/SPIS.c ****             size = 0u;
 825:.\Generated_Source\PSoC5/SPIS.c ****         }
 826:.\Generated_Source\PSoC5/SPIS.c ****         else if((size & SPIS_STS_TX_FIFO_NOT_FULL) != 0u)
 827:.\Generated_Source\PSoC5/SPIS.c ****         {
 828:.\Generated_Source\PSoC5/SPIS.c ****             size = 1u;
 829:.\Generated_Source\PSoC5/SPIS.c ****         }
 830:.\Generated_Source\PSoC5/SPIS.c ****         else
 831:.\Generated_Source\PSoC5/SPIS.c ****         {
 832:.\Generated_Source\PSoC5/SPIS.c ****             size = 4u;
 833:.\Generated_Source\PSoC5/SPIS.c ****         }
 834:.\Generated_Source\PSoC5/SPIS.c **** 
 835:.\Generated_Source\PSoC5/SPIS.c ****     #endif /* SPIS_TX_SOFTWARE_BUF_ENABLED */
 836:.\Generated_Source\PSoC5/SPIS.c **** 
 837:.\Generated_Source\PSoC5/SPIS.c ****     return (size);
 1146              		.loc 1 837 0
 1147 005a FB79     		ldrb	r3, [r7, #7]	@ zero_extendqisi2
 838:.\Generated_Source\PSoC5/SPIS.c **** }
 1148              		.loc 1 838 0
 1149 005c 1846     		mov	r0, r3
 1150 005e 0837     		adds	r7, r7, #8
 1151              		.cfi_def_cfa_offset 8
 1152 0060 BD46     		mov	sp, r7
 1153              		.cfi_def_cfa_register 13
 1154              		@ sp needed
 1155 0062 80BD     		pop	{r7, pc}
 1156              	.L74:
ARM GAS  C:\Users\LUKASC~1\AppData\Local\Temp\ccte1tQg.s 			page 36


 1157              		.align	2
 1158              	.L73:
 1159 0064 00000000 		.word	SPIS_txBufferRead
 1160 0068 00000000 		.word	SPIS_txBufferWrite
 1161              		.cfi_endproc
 1162              	.LFE16:
 1163              		.size	SPIS_GetTxBufferSize, .-SPIS_GetTxBufferSize
 1164              		.section	.text.SPIS_ClearRxBuffer,"ax",%progbits
 1165              		.align	2
 1166              		.global	SPIS_ClearRxBuffer
 1167              		.thumb
 1168              		.thumb_func
 1169              		.type	SPIS_ClearRxBuffer, %function
 1170              	SPIS_ClearRxBuffer:
 1171              	.LFB17:
 839:.\Generated_Source\PSoC5/SPIS.c **** 
 840:.\Generated_Source\PSoC5/SPIS.c **** 
 841:.\Generated_Source\PSoC5/SPIS.c **** /*******************************************************************************
 842:.\Generated_Source\PSoC5/SPIS.c **** * Function Name: SPIS_ClearRxBuffer
 843:.\Generated_Source\PSoC5/SPIS.c **** ********************************************************************************
 844:.\Generated_Source\PSoC5/SPIS.c **** *
 845:.\Generated_Source\PSoC5/SPIS.c **** * Summary:
 846:.\Generated_Source\PSoC5/SPIS.c **** *  Clear the RX RAM buffer by setting the read and write pointers both to zero.
 847:.\Generated_Source\PSoC5/SPIS.c **** *
 848:.\Generated_Source\PSoC5/SPIS.c **** * Parameters:
 849:.\Generated_Source\PSoC5/SPIS.c **** *  None.
 850:.\Generated_Source\PSoC5/SPIS.c **** *
 851:.\Generated_Source\PSoC5/SPIS.c **** * Return:
 852:.\Generated_Source\PSoC5/SPIS.c **** *  None.
 853:.\Generated_Source\PSoC5/SPIS.c **** *
 854:.\Generated_Source\PSoC5/SPIS.c **** * Global variables:
 855:.\Generated_Source\PSoC5/SPIS.c **** *  SPIS_rxBufferWrite - used for the account of the bytes which
 856:.\Generated_Source\PSoC5/SPIS.c **** *  have been written down in the RX software buffer, modified every function
 857:.\Generated_Source\PSoC5/SPIS.c **** *  call - resets to zero.
 858:.\Generated_Source\PSoC5/SPIS.c **** *  SPIS_rxBufferRead - used for the account of the bytes which
 859:.\Generated_Source\PSoC5/SPIS.c **** *  have been read from the RX software buffer, modified every function call -
 860:.\Generated_Source\PSoC5/SPIS.c **** *  resets to zero.
 861:.\Generated_Source\PSoC5/SPIS.c **** *
 862:.\Generated_Source\PSoC5/SPIS.c **** * Theory:
 863:.\Generated_Source\PSoC5/SPIS.c **** *  Setting the pointers to zero makes the system believe there is no data to
 864:.\Generated_Source\PSoC5/SPIS.c **** *  read and writing will resume at address 0 overwriting any data that may have
 865:.\Generated_Source\PSoC5/SPIS.c **** *  remained in the RAM.
 866:.\Generated_Source\PSoC5/SPIS.c **** *
 867:.\Generated_Source\PSoC5/SPIS.c **** * Side Effects:
 868:.\Generated_Source\PSoC5/SPIS.c **** *  Any received data not read from the RAM buffer will be lost when overwritten.
 869:.\Generated_Source\PSoC5/SPIS.c **** *
 870:.\Generated_Source\PSoC5/SPIS.c **** * Reentrant:
 871:.\Generated_Source\PSoC5/SPIS.c **** *  No.
 872:.\Generated_Source\PSoC5/SPIS.c **** *
 873:.\Generated_Source\PSoC5/SPIS.c **** *******************************************************************************/
 874:.\Generated_Source\PSoC5/SPIS.c **** void SPIS_ClearRxBuffer(void) 
 875:.\Generated_Source\PSoC5/SPIS.c **** {
 1172              		.loc 1 875 0
 1173              		.cfi_startproc
 1174              		@ args = 0, pretend = 0, frame = 0
 1175              		@ frame_needed = 1, uses_anonymous_args = 0
 1176 0000 80B5     		push	{r7, lr}
ARM GAS  C:\Users\LUKASC~1\AppData\Local\Temp\ccte1tQg.s 			page 37


 1177              		.cfi_def_cfa_offset 8
 1178              		.cfi_offset 7, -8
 1179              		.cfi_offset 14, -4
 1180 0002 00AF     		add	r7, sp, #0
 1181              		.cfi_def_cfa_register 7
 876:.\Generated_Source\PSoC5/SPIS.c ****     /* Clear Hardware RX FIFO */
 877:.\Generated_Source\PSoC5/SPIS.c ****     while((SPIS_RX_STATUS_REG & SPIS_STS_RX_FIFO_NOT_EMPTY) != 0u)
 1182              		.loc 1 877 0
 1183 0004 01E0     		b	.L76
 1184              	.L77:
 878:.\Generated_Source\PSoC5/SPIS.c ****     {
 879:.\Generated_Source\PSoC5/SPIS.c ****         CY_GET_REG8(SPIS_RXDATA_PTR);
 1185              		.loc 1 879 0
 1186 0006 0B4B     		ldr	r3, .L78
 1187 0008 1B78     		ldrb	r3, [r3]
 1188              	.L76:
 877:.\Generated_Source\PSoC5/SPIS.c ****     {
 1189              		.loc 1 877 0
 1190 000a 0B4B     		ldr	r3, .L78+4
 1191 000c 1B78     		ldrb	r3, [r3]
 1192 000e DBB2     		uxtb	r3, r3
 1193 0010 03F00803 		and	r3, r3, #8
 1194 0014 002B     		cmp	r3, #0
 1195 0016 F6D1     		bne	.L77
 880:.\Generated_Source\PSoC5/SPIS.c ****     }
 881:.\Generated_Source\PSoC5/SPIS.c **** 
 882:.\Generated_Source\PSoC5/SPIS.c ****     #if(SPIS_RX_SOFTWARE_BUF_ENABLED)
 883:.\Generated_Source\PSoC5/SPIS.c **** 
 884:.\Generated_Source\PSoC5/SPIS.c ****         /* Disable interrupt to protect variables that could change on interrupt. */
 885:.\Generated_Source\PSoC5/SPIS.c ****         SPIS_DisableRxInt();
 1196              		.loc 1 885 0
 1197 0018 FFF7FEFF 		bl	SPIS_DisableRxInt
 886:.\Generated_Source\PSoC5/SPIS.c **** 
 887:.\Generated_Source\PSoC5/SPIS.c ****         SPIS_rxBufferRead  = 0u;
 1198              		.loc 1 887 0
 1199 001c 074B     		ldr	r3, .L78+8
 1200 001e 0022     		movs	r2, #0
 1201 0020 1A70     		strb	r2, [r3]
 888:.\Generated_Source\PSoC5/SPIS.c ****         SPIS_rxBufferWrite = 0u;
 1202              		.loc 1 888 0
 1203 0022 074B     		ldr	r3, .L78+12
 1204 0024 0022     		movs	r2, #0
 1205 0026 1A70     		strb	r2, [r3]
 889:.\Generated_Source\PSoC5/SPIS.c **** 		SPIS_rxBufferFull  = 0u;
 1206              		.loc 1 889 0
 1207 0028 064B     		ldr	r3, .L78+16
 1208 002a 0022     		movs	r2, #0
 1209 002c 1A70     		strb	r2, [r3]
 890:.\Generated_Source\PSoC5/SPIS.c ****         /* Enable interrupt. */
 891:.\Generated_Source\PSoC5/SPIS.c ****         SPIS_EnableRxInt();
 1210              		.loc 1 891 0
 1211 002e FFF7FEFF 		bl	SPIS_EnableRxInt
 892:.\Generated_Source\PSoC5/SPIS.c **** 
 893:.\Generated_Source\PSoC5/SPIS.c ****     #endif /* SPIS_RX_SOFTWARE_BUF_ENABLED */
 894:.\Generated_Source\PSoC5/SPIS.c **** }
 1212              		.loc 1 894 0
 1213 0032 80BD     		pop	{r7, pc}
ARM GAS  C:\Users\LUKASC~1\AppData\Local\Temp\ccte1tQg.s 			page 38


 1214              	.L79:
 1215              		.align	2
 1216              	.L78:
 1217 0034 54640040 		.word	1073767508
 1218 0038 67650040 		.word	1073767783
 1219 003c 00000000 		.word	SPIS_rxBufferRead
 1220 0040 00000000 		.word	SPIS_rxBufferWrite
 1221 0044 00000000 		.word	SPIS_rxBufferFull
 1222              		.cfi_endproc
 1223              	.LFE17:
 1224              		.size	SPIS_ClearRxBuffer, .-SPIS_ClearRxBuffer
 1225              		.section	.text.SPIS_ClearTxBuffer,"ax",%progbits
 1226              		.align	2
 1227              		.global	SPIS_ClearTxBuffer
 1228              		.thumb
 1229              		.thumb_func
 1230              		.type	SPIS_ClearTxBuffer, %function
 1231              	SPIS_ClearTxBuffer:
 1232              	.LFB18:
 895:.\Generated_Source\PSoC5/SPIS.c **** 
 896:.\Generated_Source\PSoC5/SPIS.c **** 
 897:.\Generated_Source\PSoC5/SPIS.c **** /*******************************************************************************
 898:.\Generated_Source\PSoC5/SPIS.c **** * Function Name: SPIS_ClearTxBuffer
 899:.\Generated_Source\PSoC5/SPIS.c **** ********************************************************************************
 900:.\Generated_Source\PSoC5/SPIS.c **** *
 901:.\Generated_Source\PSoC5/SPIS.c **** * Summary:
 902:.\Generated_Source\PSoC5/SPIS.c **** *  Clear the TX RAM buffer by setting the read and write pointers both to zero.
 903:.\Generated_Source\PSoC5/SPIS.c **** *
 904:.\Generated_Source\PSoC5/SPIS.c **** * Parameters:
 905:.\Generated_Source\PSoC5/SPIS.c **** *  None.
 906:.\Generated_Source\PSoC5/SPIS.c **** *
 907:.\Generated_Source\PSoC5/SPIS.c **** * Return:
 908:.\Generated_Source\PSoC5/SPIS.c **** *  None.
 909:.\Generated_Source\PSoC5/SPIS.c **** *
 910:.\Generated_Source\PSoC5/SPIS.c **** * Global variables:
 911:.\Generated_Source\PSoC5/SPIS.c **** *  SPIS_txBufferWrite - used for the account of the bytes which
 912:.\Generated_Source\PSoC5/SPIS.c **** *  have been written down in the TX software buffer, modified every function
 913:.\Generated_Source\PSoC5/SPIS.c **** *  call - resets to zero.
 914:.\Generated_Source\PSoC5/SPIS.c **** *  SPIS_txBufferRead - used for the account of the bytes which
 915:.\Generated_Source\PSoC5/SPIS.c **** *  have been read from the TX software buffer, modified every function call -
 916:.\Generated_Source\PSoC5/SPIS.c **** *  resets to zero.
 917:.\Generated_Source\PSoC5/SPIS.c **** *
 918:.\Generated_Source\PSoC5/SPIS.c **** * Theory:
 919:.\Generated_Source\PSoC5/SPIS.c **** *  Setting the pointers to zero makes the system believe there is no data to
 920:.\Generated_Source\PSoC5/SPIS.c **** *  read and writing will resume at address 0 overwriting any data that may have
 921:.\Generated_Source\PSoC5/SPIS.c **** *  remained in the RAM.
 922:.\Generated_Source\PSoC5/SPIS.c **** *
 923:.\Generated_Source\PSoC5/SPIS.c **** * Side Effects:
 924:.\Generated_Source\PSoC5/SPIS.c **** *  Any data not yet transmitted from the RAM buffer will be lost when
 925:.\Generated_Source\PSoC5/SPIS.c **** *  overwritten.
 926:.\Generated_Source\PSoC5/SPIS.c **** *
 927:.\Generated_Source\PSoC5/SPIS.c **** * Reentrant:
 928:.\Generated_Source\PSoC5/SPIS.c **** *  No.
 929:.\Generated_Source\PSoC5/SPIS.c **** *
 930:.\Generated_Source\PSoC5/SPIS.c **** *******************************************************************************/
 931:.\Generated_Source\PSoC5/SPIS.c **** void SPIS_ClearTxBuffer(void) 
 932:.\Generated_Source\PSoC5/SPIS.c **** {
ARM GAS  C:\Users\LUKASC~1\AppData\Local\Temp\ccte1tQg.s 			page 39


 1233              		.loc 1 932 0
 1234              		.cfi_startproc
 1235              		@ args = 0, pretend = 0, frame = 8
 1236              		@ frame_needed = 1, uses_anonymous_args = 0
 1237 0000 80B5     		push	{r7, lr}
 1238              		.cfi_def_cfa_offset 8
 1239              		.cfi_offset 7, -8
 1240              		.cfi_offset 14, -4
 1241 0002 82B0     		sub	sp, sp, #8
 1242              		.cfi_def_cfa_offset 16
 1243 0004 00AF     		add	r7, sp, #0
 1244              		.cfi_def_cfa_register 7
 933:.\Generated_Source\PSoC5/SPIS.c ****     uint8 enableInterrupts;
 934:.\Generated_Source\PSoC5/SPIS.c **** 
 935:.\Generated_Source\PSoC5/SPIS.c ****     /* Clear Hardware TX FIFO */
 936:.\Generated_Source\PSoC5/SPIS.c ****     enableInterrupts = CyEnterCriticalSection();
 1245              		.loc 1 936 0
 1246 0006 FFF7FEFF 		bl	CyEnterCriticalSection
 1247 000a 0346     		mov	r3, r0
 1248 000c FB71     		strb	r3, [r7, #7]
 937:.\Generated_Source\PSoC5/SPIS.c **** 
 938:.\Generated_Source\PSoC5/SPIS.c ****     #if(SPIS_DATA_WIDTH <= 8u)
 939:.\Generated_Source\PSoC5/SPIS.c **** 
 940:.\Generated_Source\PSoC5/SPIS.c ****         /* Clear TX FIFO */
 941:.\Generated_Source\PSoC5/SPIS.c ****         SPIS_TX_AUX_CONTROL_DP0_REG |= (uint8)SPIS_FIFO_CLR;
 1249              		.loc 1 941 0
 1250 000e 164A     		ldr	r2, .L81
 1251 0010 154B     		ldr	r3, .L81
 1252 0012 1B78     		ldrb	r3, [r3]
 1253 0014 DBB2     		uxtb	r3, r3
 1254 0016 43F00303 		orr	r3, r3, #3
 1255 001a DBB2     		uxtb	r3, r3
 1256 001c 1370     		strb	r3, [r2]
 942:.\Generated_Source\PSoC5/SPIS.c ****         SPIS_TX_AUX_CONTROL_DP0_REG &= (uint8)~SPIS_FIFO_CLR;
 1257              		.loc 1 942 0
 1258 001e 124A     		ldr	r2, .L81
 1259 0020 114B     		ldr	r3, .L81
 1260 0022 1B78     		ldrb	r3, [r3]
 1261 0024 DBB2     		uxtb	r3, r3
 1262 0026 23F00303 		bic	r3, r3, #3
 1263 002a DBB2     		uxtb	r3, r3
 1264 002c 1370     		strb	r3, [r2]
 943:.\Generated_Source\PSoC5/SPIS.c **** 
 944:.\Generated_Source\PSoC5/SPIS.c ****     #else
 945:.\Generated_Source\PSoC5/SPIS.c **** 
 946:.\Generated_Source\PSoC5/SPIS.c ****         /* Clear TX FIFO */
 947:.\Generated_Source\PSoC5/SPIS.c ****         SPIS_TX_AUX_CONTROL_DP0_REG |= (uint8)SPIS_FIFO_CLR;
 948:.\Generated_Source\PSoC5/SPIS.c ****         SPIS_TX_AUX_CONTROL_DP0_REG &= (uint8)~SPIS_FIFO_CLR;
 949:.\Generated_Source\PSoC5/SPIS.c ****         SPIS_TX_AUX_CONTROL_DP1_REG |= (uint8)SPIS_FIFO_CLR;
 950:.\Generated_Source\PSoC5/SPIS.c ****         SPIS_TX_AUX_CONTROL_DP1_REG &= (uint8)~SPIS_FIFO_CLR;
 951:.\Generated_Source\PSoC5/SPIS.c **** 
 952:.\Generated_Source\PSoC5/SPIS.c ****     #endif /* SPIS_DATA_WIDTH > 8u */
 953:.\Generated_Source\PSoC5/SPIS.c **** 
 954:.\Generated_Source\PSoC5/SPIS.c ****     CyExitCriticalSection(enableInterrupts);
 1265              		.loc 1 954 0
 1266 002e FB79     		ldrb	r3, [r7, #7]	@ zero_extendqisi2
 1267 0030 1846     		mov	r0, r3
ARM GAS  C:\Users\LUKASC~1\AppData\Local\Temp\ccte1tQg.s 			page 40


 1268 0032 FFF7FEFF 		bl	CyExitCriticalSection
 955:.\Generated_Source\PSoC5/SPIS.c **** 
 956:.\Generated_Source\PSoC5/SPIS.c ****     #if(SPIS_TX_SOFTWARE_BUF_ENABLED)
 957:.\Generated_Source\PSoC5/SPIS.c **** 
 958:.\Generated_Source\PSoC5/SPIS.c ****         /* Disable Interrupt to protect variables that could change on interrupt. */
 959:.\Generated_Source\PSoC5/SPIS.c ****         SPIS_DisableTxInt();
 1269              		.loc 1 959 0
 1270 0036 FFF7FEFF 		bl	SPIS_DisableTxInt
 960:.\Generated_Source\PSoC5/SPIS.c **** 
 961:.\Generated_Source\PSoC5/SPIS.c ****         SPIS_txBufferRead  = 0u;
 1271              		.loc 1 961 0
 1272 003a 0C4B     		ldr	r3, .L81+4
 1273 003c 0022     		movs	r2, #0
 1274 003e 1A70     		strb	r2, [r3]
 962:.\Generated_Source\PSoC5/SPIS.c ****         SPIS_txBufferWrite = 0u;
 1275              		.loc 1 962 0
 1276 0040 0B4B     		ldr	r3, .L81+8
 1277 0042 0022     		movs	r2, #0
 1278 0044 1A70     		strb	r2, [r3]
 963:.\Generated_Source\PSoC5/SPIS.c **** 		SPIS_txBufferFull  = 0u;
 1279              		.loc 1 963 0
 1280 0046 0B4B     		ldr	r3, .L81+12
 1281 0048 0022     		movs	r2, #0
 1282 004a 1A70     		strb	r2, [r3]
 964:.\Generated_Source\PSoC5/SPIS.c **** 		
 965:.\Generated_Source\PSoC5/SPIS.c ****         /* If Buffer is empty then disable TX FIFO status interrupt */
 966:.\Generated_Source\PSoC5/SPIS.c ****         SPIS_TX_STATUS_MASK_REG &= (uint8)~SPIS_STS_TX_FIFO_NOT_FULL;
 1283              		.loc 1 966 0
 1284 004c 0A4A     		ldr	r2, .L81+16
 1285 004e 0A4B     		ldr	r3, .L81+16
 1286 0050 1B78     		ldrb	r3, [r3]
 1287 0052 DBB2     		uxtb	r3, r3
 1288 0054 23F00203 		bic	r3, r3, #2
 1289 0058 DBB2     		uxtb	r3, r3
 1290 005a 1370     		strb	r3, [r2]
 967:.\Generated_Source\PSoC5/SPIS.c **** 
 968:.\Generated_Source\PSoC5/SPIS.c ****         /* Enable Interrupt. */
 969:.\Generated_Source\PSoC5/SPIS.c ****         SPIS_EnableTxInt();
 1291              		.loc 1 969 0
 1292 005c FFF7FEFF 		bl	SPIS_EnableTxInt
 970:.\Generated_Source\PSoC5/SPIS.c **** 
 971:.\Generated_Source\PSoC5/SPIS.c ****     #endif /* SPIS_TX_SOFTWARE_BUF_ENABLED */
 972:.\Generated_Source\PSoC5/SPIS.c **** }
 1293              		.loc 1 972 0
 1294 0060 0837     		adds	r7, r7, #8
 1295              		.cfi_def_cfa_offset 8
 1296 0062 BD46     		mov	sp, r7
 1297              		.cfi_def_cfa_register 13
 1298              		@ sp needed
 1299 0064 80BD     		pop	{r7, pc}
 1300              	.L82:
 1301 0066 00BF     		.align	2
 1302              	.L81:
 1303 0068 94640040 		.word	1073767572
 1304 006c 00000000 		.word	SPIS_txBufferRead
 1305 0070 00000000 		.word	SPIS_txBufferWrite
 1306 0074 00000000 		.word	SPIS_txBufferFull
ARM GAS  C:\Users\LUKASC~1\AppData\Local\Temp\ccte1tQg.s 			page 41


 1307 0078 84650040 		.word	1073767812
 1308              		.cfi_endproc
 1309              	.LFE18:
 1310              		.size	SPIS_ClearTxBuffer, .-SPIS_ClearTxBuffer
 1311              		.section	.text.SPIS_PutArray,"ax",%progbits
 1312              		.align	2
 1313              		.global	SPIS_PutArray
 1314              		.thumb
 1315              		.thumb_func
 1316              		.type	SPIS_PutArray, %function
 1317              	SPIS_PutArray:
 1318              	.LFB19:
 973:.\Generated_Source\PSoC5/SPIS.c **** 
 974:.\Generated_Source\PSoC5/SPIS.c **** 
 975:.\Generated_Source\PSoC5/SPIS.c **** #if (SPIS_BIDIRECTIONAL_MODE != 0u)
 976:.\Generated_Source\PSoC5/SPIS.c **** 
 977:.\Generated_Source\PSoC5/SPIS.c ****     /*******************************************************************************
 978:.\Generated_Source\PSoC5/SPIS.c ****     * Function Name: SPIS_TxEnable
 979:.\Generated_Source\PSoC5/SPIS.c ****     ********************************************************************************
 980:.\Generated_Source\PSoC5/SPIS.c ****     *
 981:.\Generated_Source\PSoC5/SPIS.c ****     * Summary:
 982:.\Generated_Source\PSoC5/SPIS.c ****     *  If the SPI Slave is configured to use a single bi-directional pin then this
 983:.\Generated_Source\PSoC5/SPIS.c ****     *  will set the bi-directional pin to transmit.
 984:.\Generated_Source\PSoC5/SPIS.c ****     *
 985:.\Generated_Source\PSoC5/SPIS.c ****     * Parameters:
 986:.\Generated_Source\PSoC5/SPIS.c ****     *  None.
 987:.\Generated_Source\PSoC5/SPIS.c ****     *
 988:.\Generated_Source\PSoC5/SPIS.c ****     * Return:
 989:.\Generated_Source\PSoC5/SPIS.c ****     *  None.
 990:.\Generated_Source\PSoC5/SPIS.c ****     *
 991:.\Generated_Source\PSoC5/SPIS.c ****     *******************************************************************************/
 992:.\Generated_Source\PSoC5/SPIS.c ****     void SPIS_TxEnable(void) 
 993:.\Generated_Source\PSoC5/SPIS.c ****     {
 994:.\Generated_Source\PSoC5/SPIS.c ****             SPIS_CONTROL_REG |= SPIS_CTRL_TX_SIGNAL_EN;
 995:.\Generated_Source\PSoC5/SPIS.c ****     }
 996:.\Generated_Source\PSoC5/SPIS.c **** 
 997:.\Generated_Source\PSoC5/SPIS.c **** 
 998:.\Generated_Source\PSoC5/SPIS.c ****     /*******************************************************************************
 999:.\Generated_Source\PSoC5/SPIS.c ****     * Function Name: SPIS_TxDisable
1000:.\Generated_Source\PSoC5/SPIS.c ****     ********************************************************************************
1001:.\Generated_Source\PSoC5/SPIS.c ****     *
1002:.\Generated_Source\PSoC5/SPIS.c ****     * Summary:
1003:.\Generated_Source\PSoC5/SPIS.c ****     *  If the SPI Slave is configured to use a single bi-directional pin then this
1004:.\Generated_Source\PSoC5/SPIS.c ****     *  will set the bi-directional pin to receive.
1005:.\Generated_Source\PSoC5/SPIS.c ****     *
1006:.\Generated_Source\PSoC5/SPIS.c ****     * Parameters:
1007:.\Generated_Source\PSoC5/SPIS.c ****     *  None.
1008:.\Generated_Source\PSoC5/SPIS.c ****     *
1009:.\Generated_Source\PSoC5/SPIS.c ****     * Return:
1010:.\Generated_Source\PSoC5/SPIS.c ****     *  None.
1011:.\Generated_Source\PSoC5/SPIS.c ****     *
1012:.\Generated_Source\PSoC5/SPIS.c ****     *******************************************************************************/
1013:.\Generated_Source\PSoC5/SPIS.c ****     void SPIS_TxDisable(void) 
1014:.\Generated_Source\PSoC5/SPIS.c ****     {
1015:.\Generated_Source\PSoC5/SPIS.c ****             SPIS_CONTROL_REG &= (uint8)~SPIS_CTRL_TX_SIGNAL_EN;
1016:.\Generated_Source\PSoC5/SPIS.c ****     }
1017:.\Generated_Source\PSoC5/SPIS.c **** 
ARM GAS  C:\Users\LUKASC~1\AppData\Local\Temp\ccte1tQg.s 			page 42


1018:.\Generated_Source\PSoC5/SPIS.c **** #endif /* SPIS_BIDIRECTIONAL_MODE != 0u */
1019:.\Generated_Source\PSoC5/SPIS.c **** 
1020:.\Generated_Source\PSoC5/SPIS.c **** 
1021:.\Generated_Source\PSoC5/SPIS.c **** /*******************************************************************************
1022:.\Generated_Source\PSoC5/SPIS.c **** * Function Name: SPIS_PutArray
1023:.\Generated_Source\PSoC5/SPIS.c **** ********************************************************************************
1024:.\Generated_Source\PSoC5/SPIS.c **** *
1025:.\Generated_Source\PSoC5/SPIS.c **** * Summary:
1026:.\Generated_Source\PSoC5/SPIS.c **** *  Write available data from RAM/ROM to the TX buffer while space is available
1027:.\Generated_Source\PSoC5/SPIS.c **** *  in the TX buffer. Keep trying until all data is passed to the TX buffer. If
1028:.\Generated_Source\PSoC5/SPIS.c **** *  used Mode 00 or 01 before PutArray() function should be called
1029:.\Generated_Source\PSoC5/SPIS.c **** *  WriteTxDataZero() function.
1030:.\Generated_Source\PSoC5/SPIS.c **** *
1031:.\Generated_Source\PSoC5/SPIS.c **** * Parameters:
1032:.\Generated_Source\PSoC5/SPIS.c **** *  *buffer: Pointer to the location in RAM containing the data to send
1033:.\Generated_Source\PSoC5/SPIS.c **** *  byteCount: The number of bytes to move to the transmit buffer.
1034:.\Generated_Source\PSoC5/SPIS.c **** *
1035:.\Generated_Source\PSoC5/SPIS.c **** * Return:
1036:.\Generated_Source\PSoC5/SPIS.c **** *  None.
1037:.\Generated_Source\PSoC5/SPIS.c **** *
1038:.\Generated_Source\PSoC5/SPIS.c **** * Side Effects:
1039:.\Generated_Source\PSoC5/SPIS.c **** *  Will stay in this routine until all data has been sent.  May get locked in
1040:.\Generated_Source\PSoC5/SPIS.c **** *  this loop if data is not being initiated by the master if there is not
1041:.\Generated_Source\PSoC5/SPIS.c **** *  enough room in the TX FIFO.
1042:.\Generated_Source\PSoC5/SPIS.c **** *
1043:.\Generated_Source\PSoC5/SPIS.c **** * Reentrant:
1044:.\Generated_Source\PSoC5/SPIS.c **** *  No.
1045:.\Generated_Source\PSoC5/SPIS.c **** *
1046:.\Generated_Source\PSoC5/SPIS.c **** *******************************************************************************/
1047:.\Generated_Source\PSoC5/SPIS.c **** void SPIS_PutArray(const uint8 buffer[], uint8 byteCount)
1048:.\Generated_Source\PSoC5/SPIS.c ****                                                                     
1049:.\Generated_Source\PSoC5/SPIS.c **** {
 1319              		.loc 1 1049 0
 1320              		.cfi_startproc
 1321              		@ args = 0, pretend = 0, frame = 16
 1322              		@ frame_needed = 1, uses_anonymous_args = 0
 1323 0000 80B5     		push	{r7, lr}
 1324              		.cfi_def_cfa_offset 8
 1325              		.cfi_offset 7, -8
 1326              		.cfi_offset 14, -4
 1327 0002 84B0     		sub	sp, sp, #16
 1328              		.cfi_def_cfa_offset 24
 1329 0004 00AF     		add	r7, sp, #0
 1330              		.cfi_def_cfa_register 7
 1331 0006 7860     		str	r0, [r7, #4]
 1332 0008 0B46     		mov	r3, r1
 1333 000a FB70     		strb	r3, [r7, #3]
1050:.\Generated_Source\PSoC5/SPIS.c ****     uint8 bufIndex;
1051:.\Generated_Source\PSoC5/SPIS.c ****     bufIndex = 0u;
 1334              		.loc 1 1051 0
 1335 000c 0023     		movs	r3, #0
 1336 000e FB73     		strb	r3, [r7, #15]
1052:.\Generated_Source\PSoC5/SPIS.c **** 
1053:.\Generated_Source\PSoC5/SPIS.c ****     while(byteCount > 0u)
 1337              		.loc 1 1053 0
 1338 0010 0CE0     		b	.L84
 1339              	.L85:
ARM GAS  C:\Users\LUKASC~1\AppData\Local\Temp\ccte1tQg.s 			page 43


1054:.\Generated_Source\PSoC5/SPIS.c ****     {
1055:.\Generated_Source\PSoC5/SPIS.c ****         SPIS_WriteTxData(buffer[bufIndex]);
 1340              		.loc 1 1055 0
 1341 0012 FB7B     		ldrb	r3, [r7, #15]	@ zero_extendqisi2
 1342 0014 7A68     		ldr	r2, [r7, #4]
 1343 0016 1344     		add	r3, r3, r2
 1344 0018 1B78     		ldrb	r3, [r3]	@ zero_extendqisi2
 1345 001a 1846     		mov	r0, r3
 1346 001c FFF7FEFF 		bl	SPIS_WriteTxData
1056:.\Generated_Source\PSoC5/SPIS.c ****         bufIndex++;
 1347              		.loc 1 1056 0
 1348 0020 FB7B     		ldrb	r3, [r7, #15]	@ zero_extendqisi2
 1349 0022 0133     		adds	r3, r3, #1
 1350 0024 FB73     		strb	r3, [r7, #15]
1057:.\Generated_Source\PSoC5/SPIS.c ****         byteCount--;
 1351              		.loc 1 1057 0
 1352 0026 FB78     		ldrb	r3, [r7, #3]	@ zero_extendqisi2
 1353 0028 013B     		subs	r3, r3, #1
 1354 002a FB70     		strb	r3, [r7, #3]
 1355              	.L84:
1053:.\Generated_Source\PSoC5/SPIS.c ****     {
 1356              		.loc 1 1053 0
 1357 002c FB78     		ldrb	r3, [r7, #3]	@ zero_extendqisi2
 1358 002e 002B     		cmp	r3, #0
 1359 0030 EFD1     		bne	.L85
1058:.\Generated_Source\PSoC5/SPIS.c ****     }
1059:.\Generated_Source\PSoC5/SPIS.c **** }
 1360              		.loc 1 1059 0
 1361 0032 1037     		adds	r7, r7, #16
 1362              		.cfi_def_cfa_offset 8
 1363 0034 BD46     		mov	sp, r7
 1364              		.cfi_def_cfa_register 13
 1365              		@ sp needed
 1366 0036 80BD     		pop	{r7, pc}
 1367              		.cfi_endproc
 1368              	.LFE19:
 1369              		.size	SPIS_PutArray, .-SPIS_PutArray
 1370              		.section	.text.SPIS_ClearFIFO,"ax",%progbits
 1371              		.align	2
 1372              		.global	SPIS_ClearFIFO
 1373              		.thumb
 1374              		.thumb_func
 1375              		.type	SPIS_ClearFIFO, %function
 1376              	SPIS_ClearFIFO:
 1377              	.LFB20:
1060:.\Generated_Source\PSoC5/SPIS.c **** 
1061:.\Generated_Source\PSoC5/SPIS.c **** 
1062:.\Generated_Source\PSoC5/SPIS.c **** /*******************************************************************************
1063:.\Generated_Source\PSoC5/SPIS.c **** * Function Name: SPIS_ClearFIFO
1064:.\Generated_Source\PSoC5/SPIS.c **** ********************************************************************************
1065:.\Generated_Source\PSoC5/SPIS.c **** *
1066:.\Generated_Source\PSoC5/SPIS.c **** * Summary:
1067:.\Generated_Source\PSoC5/SPIS.c **** *  Clear the RX and TX FIFO's of all data for a fresh start.
1068:.\Generated_Source\PSoC5/SPIS.c **** *
1069:.\Generated_Source\PSoC5/SPIS.c **** * Parameters:
1070:.\Generated_Source\PSoC5/SPIS.c **** *  None.
1071:.\Generated_Source\PSoC5/SPIS.c **** *
ARM GAS  C:\Users\LUKASC~1\AppData\Local\Temp\ccte1tQg.s 			page 44


1072:.\Generated_Source\PSoC5/SPIS.c **** * Return:
1073:.\Generated_Source\PSoC5/SPIS.c **** *  None.
1074:.\Generated_Source\PSoC5/SPIS.c **** *
1075:.\Generated_Source\PSoC5/SPIS.c **** * Side Effects:
1076:.\Generated_Source\PSoC5/SPIS.c **** *  Clear status register of the component.
1077:.\Generated_Source\PSoC5/SPIS.c **** *
1078:.\Generated_Source\PSoC5/SPIS.c **** *******************************************************************************/
1079:.\Generated_Source\PSoC5/SPIS.c **** void SPIS_ClearFIFO(void) 
1080:.\Generated_Source\PSoC5/SPIS.c **** {
 1378              		.loc 1 1080 0
 1379              		.cfi_startproc
 1380              		@ args = 0, pretend = 0, frame = 8
 1381              		@ frame_needed = 1, uses_anonymous_args = 0
 1382 0000 80B5     		push	{r7, lr}
 1383              		.cfi_def_cfa_offset 8
 1384              		.cfi_offset 7, -8
 1385              		.cfi_offset 14, -4
 1386 0002 82B0     		sub	sp, sp, #8
 1387              		.cfi_def_cfa_offset 16
 1388 0004 00AF     		add	r7, sp, #0
 1389              		.cfi_def_cfa_register 7
1081:.\Generated_Source\PSoC5/SPIS.c ****     uint8 enableInterrupts;
1082:.\Generated_Source\PSoC5/SPIS.c **** 
1083:.\Generated_Source\PSoC5/SPIS.c ****     while((SPIS_RX_STATUS_REG & SPIS_STS_RX_FIFO_NOT_EMPTY) != 0u)
 1390              		.loc 1 1083 0
 1391 0006 01E0     		b	.L87
 1392              	.L88:
1084:.\Generated_Source\PSoC5/SPIS.c ****     {
1085:.\Generated_Source\PSoC5/SPIS.c ****         CY_GET_REG8(SPIS_RXDATA_PTR);
 1393              		.loc 1 1085 0
 1394 0008 114B     		ldr	r3, .L89
 1395 000a 1B78     		ldrb	r3, [r3]
 1396              	.L87:
1083:.\Generated_Source\PSoC5/SPIS.c ****     {
 1397              		.loc 1 1083 0
 1398 000c 114B     		ldr	r3, .L89+4
 1399 000e 1B78     		ldrb	r3, [r3]
 1400 0010 DBB2     		uxtb	r3, r3
 1401 0012 03F00803 		and	r3, r3, #8
 1402 0016 002B     		cmp	r3, #0
 1403 0018 F6D1     		bne	.L88
1086:.\Generated_Source\PSoC5/SPIS.c ****     }
1087:.\Generated_Source\PSoC5/SPIS.c **** 
1088:.\Generated_Source\PSoC5/SPIS.c ****     enableInterrupts = CyEnterCriticalSection();
 1404              		.loc 1 1088 0
 1405 001a FFF7FEFF 		bl	CyEnterCriticalSection
 1406 001e 0346     		mov	r3, r0
 1407 0020 FB71     		strb	r3, [r7, #7]
1089:.\Generated_Source\PSoC5/SPIS.c **** 
1090:.\Generated_Source\PSoC5/SPIS.c ****     #if(SPIS_DATA_WIDTH <= 8u)
1091:.\Generated_Source\PSoC5/SPIS.c **** 
1092:.\Generated_Source\PSoC5/SPIS.c ****         /* Clear TX FIFO */
1093:.\Generated_Source\PSoC5/SPIS.c ****         SPIS_TX_AUX_CONTROL_DP0_REG |= (uint8)SPIS_FIFO_CLR;
 1408              		.loc 1 1093 0
 1409 0022 0D4A     		ldr	r2, .L89+8
 1410 0024 0C4B     		ldr	r3, .L89+8
 1411 0026 1B78     		ldrb	r3, [r3]
ARM GAS  C:\Users\LUKASC~1\AppData\Local\Temp\ccte1tQg.s 			page 45


 1412 0028 DBB2     		uxtb	r3, r3
 1413 002a 43F00303 		orr	r3, r3, #3
 1414 002e DBB2     		uxtb	r3, r3
 1415 0030 1370     		strb	r3, [r2]
1094:.\Generated_Source\PSoC5/SPIS.c ****         SPIS_TX_AUX_CONTROL_DP0_REG &= (uint8)~SPIS_FIFO_CLR;
 1416              		.loc 1 1094 0
 1417 0032 094A     		ldr	r2, .L89+8
 1418 0034 084B     		ldr	r3, .L89+8
 1419 0036 1B78     		ldrb	r3, [r3]
 1420 0038 DBB2     		uxtb	r3, r3
 1421 003a 23F00303 		bic	r3, r3, #3
 1422 003e DBB2     		uxtb	r3, r3
 1423 0040 1370     		strb	r3, [r2]
1095:.\Generated_Source\PSoC5/SPIS.c **** 
1096:.\Generated_Source\PSoC5/SPIS.c ****     #else
1097:.\Generated_Source\PSoC5/SPIS.c **** 
1098:.\Generated_Source\PSoC5/SPIS.c ****         /* Clear TX FIFO */
1099:.\Generated_Source\PSoC5/SPIS.c ****         SPIS_TX_AUX_CONTROL_DP0_REG |= (uint8)SPIS_FIFO_CLR;
1100:.\Generated_Source\PSoC5/SPIS.c ****         SPIS_TX_AUX_CONTROL_DP0_REG &= (uint8)~SPIS_FIFO_CLR;
1101:.\Generated_Source\PSoC5/SPIS.c ****         SPIS_TX_AUX_CONTROL_DP1_REG |= (uint8)SPIS_FIFO_CLR;
1102:.\Generated_Source\PSoC5/SPIS.c ****         SPIS_TX_AUX_CONTROL_DP1_REG &= (uint8)~SPIS_FIFO_CLR;
1103:.\Generated_Source\PSoC5/SPIS.c **** 
1104:.\Generated_Source\PSoC5/SPIS.c ****     #endif /* SPIS_DATA_WIDTH <= 8u */
1105:.\Generated_Source\PSoC5/SPIS.c **** 
1106:.\Generated_Source\PSoC5/SPIS.c ****     CyExitCriticalSection(enableInterrupts);
 1424              		.loc 1 1106 0
 1425 0042 FB79     		ldrb	r3, [r7, #7]	@ zero_extendqisi2
 1426 0044 1846     		mov	r0, r3
 1427 0046 FFF7FEFF 		bl	CyExitCriticalSection
1107:.\Generated_Source\PSoC5/SPIS.c **** }
 1428              		.loc 1 1107 0
 1429 004a 0837     		adds	r7, r7, #8
 1430              		.cfi_def_cfa_offset 8
 1431 004c BD46     		mov	sp, r7
 1432              		.cfi_def_cfa_register 13
 1433              		@ sp needed
 1434 004e 80BD     		pop	{r7, pc}
 1435              	.L90:
 1436              		.align	2
 1437              	.L89:
 1438 0050 54640040 		.word	1073767508
 1439 0054 67650040 		.word	1073767783
 1440 0058 94640040 		.word	1073767572
 1441              		.cfi_endproc
 1442              	.LFE20:
 1443              		.size	SPIS_ClearFIFO, .-SPIS_ClearFIFO
 1444              		.section	.text.SPIS_EnableInt,"ax",%progbits
 1445              		.align	2
 1446              		.global	SPIS_EnableInt
 1447              		.thumb
 1448              		.thumb_func
 1449              		.type	SPIS_EnableInt, %function
 1450              	SPIS_EnableInt:
 1451              	.LFB21:
1108:.\Generated_Source\PSoC5/SPIS.c **** 
1109:.\Generated_Source\PSoC5/SPIS.c **** 
1110:.\Generated_Source\PSoC5/SPIS.c **** /* Following functions are for version Compatibility, they are obsolete.
ARM GAS  C:\Users\LUKASC~1\AppData\Local\Temp\ccte1tQg.s 			page 46


1111:.\Generated_Source\PSoC5/SPIS.c **** *  Please do not use it in new projects.
1112:.\Generated_Source\PSoC5/SPIS.c **** */
1113:.\Generated_Source\PSoC5/SPIS.c **** 
1114:.\Generated_Source\PSoC5/SPIS.c **** 
1115:.\Generated_Source\PSoC5/SPIS.c **** /*******************************************************************************
1116:.\Generated_Source\PSoC5/SPIS.c **** * Function Name: SPIS_EnableInt
1117:.\Generated_Source\PSoC5/SPIS.c **** ********************************************************************************
1118:.\Generated_Source\PSoC5/SPIS.c **** *
1119:.\Generated_Source\PSoC5/SPIS.c **** * Summary:
1120:.\Generated_Source\PSoC5/SPIS.c **** *  Enable internal interrupt generation.
1121:.\Generated_Source\PSoC5/SPIS.c **** *
1122:.\Generated_Source\PSoC5/SPIS.c **** * Parameters:
1123:.\Generated_Source\PSoC5/SPIS.c **** *  None.
1124:.\Generated_Source\PSoC5/SPIS.c **** *
1125:.\Generated_Source\PSoC5/SPIS.c **** * Return:
1126:.\Generated_Source\PSoC5/SPIS.c **** *  None.
1127:.\Generated_Source\PSoC5/SPIS.c **** *
1128:.\Generated_Source\PSoC5/SPIS.c **** * Theory:
1129:.\Generated_Source\PSoC5/SPIS.c **** *  Enable the internal interrupt output -or- the interrupt component itself.
1130:.\Generated_Source\PSoC5/SPIS.c **** *
1131:.\Generated_Source\PSoC5/SPIS.c **** *******************************************************************************/
1132:.\Generated_Source\PSoC5/SPIS.c **** void SPIS_EnableInt(void) 
1133:.\Generated_Source\PSoC5/SPIS.c **** {
 1452              		.loc 1 1133 0
 1453              		.cfi_startproc
 1454              		@ args = 0, pretend = 0, frame = 0
 1455              		@ frame_needed = 1, uses_anonymous_args = 0
 1456              		@ link register save eliminated.
 1457 0000 80B4     		push	{r7}
 1458              		.cfi_def_cfa_offset 4
 1459              		.cfi_offset 7, -4
 1460 0002 00AF     		add	r7, sp, #0
 1461              		.cfi_def_cfa_register 7
1134:.\Generated_Source\PSoC5/SPIS.c ****     #if(SPIS_INTERNAL_TX_INT_ENABLED)
1135:.\Generated_Source\PSoC5/SPIS.c ****         CyIntEnable(SPIS_TX_ISR_NUMBER);
 1462              		.loc 1 1135 0
 1463 0004 044B     		ldr	r3, .L92
 1464 0006 0422     		movs	r2, #4
 1465 0008 1A60     		str	r2, [r3]
1136:.\Generated_Source\PSoC5/SPIS.c ****     #endif /* SPIS_INTERNAL_TX_INT_ENABLED */
1137:.\Generated_Source\PSoC5/SPIS.c **** 
1138:.\Generated_Source\PSoC5/SPIS.c ****     #if(SPIS_INTERNAL_RX_INT_ENABLED)
1139:.\Generated_Source\PSoC5/SPIS.c ****         CyIntEnable(SPIS_RX_ISR_NUMBER);
 1466              		.loc 1 1139 0
 1467 000a 034B     		ldr	r3, .L92
 1468 000c 0222     		movs	r2, #2
 1469 000e 1A60     		str	r2, [r3]
1140:.\Generated_Source\PSoC5/SPIS.c ****     #endif /* SPIS_INTERNAL_RX_INT_ENABLED */
1141:.\Generated_Source\PSoC5/SPIS.c **** }
 1470              		.loc 1 1141 0
 1471 0010 BD46     		mov	sp, r7
 1472              		.cfi_def_cfa_register 13
 1473              		@ sp needed
 1474 0012 5DF8047B 		ldr	r7, [sp], #4
 1475              		.cfi_restore 7
 1476              		.cfi_def_cfa_offset 0
 1477 0016 7047     		bx	lr
ARM GAS  C:\Users\LUKASC~1\AppData\Local\Temp\ccte1tQg.s 			page 47


 1478              	.L93:
 1479              		.align	2
 1480              	.L92:
 1481 0018 00E100E0 		.word	-536813312
 1482              		.cfi_endproc
 1483              	.LFE21:
 1484              		.size	SPIS_EnableInt, .-SPIS_EnableInt
 1485              		.section	.text.SPIS_DisableInt,"ax",%progbits
 1486              		.align	2
 1487              		.global	SPIS_DisableInt
 1488              		.thumb
 1489              		.thumb_func
 1490              		.type	SPIS_DisableInt, %function
 1491              	SPIS_DisableInt:
 1492              	.LFB22:
1142:.\Generated_Source\PSoC5/SPIS.c **** 
1143:.\Generated_Source\PSoC5/SPIS.c **** 
1144:.\Generated_Source\PSoC5/SPIS.c **** /*******************************************************************************
1145:.\Generated_Source\PSoC5/SPIS.c **** * Function Name: SPIS_DisableInt
1146:.\Generated_Source\PSoC5/SPIS.c **** ********************************************************************************
1147:.\Generated_Source\PSoC5/SPIS.c **** *
1148:.\Generated_Source\PSoC5/SPIS.c **** * Summary:
1149:.\Generated_Source\PSoC5/SPIS.c **** *  Disable internal interrupt generation.
1150:.\Generated_Source\PSoC5/SPIS.c **** *
1151:.\Generated_Source\PSoC5/SPIS.c **** * Parameters:
1152:.\Generated_Source\PSoC5/SPIS.c **** *  None.
1153:.\Generated_Source\PSoC5/SPIS.c **** *
1154:.\Generated_Source\PSoC5/SPIS.c **** * Return:
1155:.\Generated_Source\PSoC5/SPIS.c **** *  None.
1156:.\Generated_Source\PSoC5/SPIS.c **** *
1157:.\Generated_Source\PSoC5/SPIS.c **** * Theory:
1158:.\Generated_Source\PSoC5/SPIS.c **** *  Disable the internal interrupt output -or- the interrupt component itself.
1159:.\Generated_Source\PSoC5/SPIS.c **** *
1160:.\Generated_Source\PSoC5/SPIS.c **** *******************************************************************************/
1161:.\Generated_Source\PSoC5/SPIS.c **** void SPIS_DisableInt(void) 
1162:.\Generated_Source\PSoC5/SPIS.c **** {
 1493              		.loc 1 1162 0
 1494              		.cfi_startproc
 1495              		@ args = 0, pretend = 0, frame = 0
 1496              		@ frame_needed = 1, uses_anonymous_args = 0
 1497              		@ link register save eliminated.
 1498 0000 80B4     		push	{r7}
 1499              		.cfi_def_cfa_offset 4
 1500              		.cfi_offset 7, -4
 1501 0002 00AF     		add	r7, sp, #0
 1502              		.cfi_def_cfa_register 7
1163:.\Generated_Source\PSoC5/SPIS.c ****     #if(SPIS_INTERNAL_TX_INT_ENABLED)
1164:.\Generated_Source\PSoC5/SPIS.c ****         CyIntDisable(SPIS_TX_ISR_NUMBER);
 1503              		.loc 1 1164 0
 1504 0004 044B     		ldr	r3, .L95
 1505 0006 0422     		movs	r2, #4
 1506 0008 1A60     		str	r2, [r3]
1165:.\Generated_Source\PSoC5/SPIS.c ****     #endif /* SPIS_INTERNAL_TX_INT_ENABLED */
1166:.\Generated_Source\PSoC5/SPIS.c **** 
1167:.\Generated_Source\PSoC5/SPIS.c ****     #if(SPIS_INTERNAL_RX_INT_ENABLED)
1168:.\Generated_Source\PSoC5/SPIS.c ****         CyIntDisable(SPIS_RX_ISR_NUMBER);
 1507              		.loc 1 1168 0
ARM GAS  C:\Users\LUKASC~1\AppData\Local\Temp\ccte1tQg.s 			page 48


 1508 000a 034B     		ldr	r3, .L95
 1509 000c 0222     		movs	r2, #2
 1510 000e 1A60     		str	r2, [r3]
1169:.\Generated_Source\PSoC5/SPIS.c ****     #endif /* SPIS_INTERNAL_RX_INT_ENABLED */
1170:.\Generated_Source\PSoC5/SPIS.c **** }
 1511              		.loc 1 1170 0
 1512 0010 BD46     		mov	sp, r7
 1513              		.cfi_def_cfa_register 13
 1514              		@ sp needed
 1515 0012 5DF8047B 		ldr	r7, [sp], #4
 1516              		.cfi_restore 7
 1517              		.cfi_def_cfa_offset 0
 1518 0016 7047     		bx	lr
 1519              	.L96:
 1520              		.align	2
 1521              	.L95:
 1522 0018 80E100E0 		.word	-536813184
 1523              		.cfi_endproc
 1524              	.LFE22:
 1525              		.size	SPIS_DisableInt, .-SPIS_DisableInt
 1526              		.section	.text.SPIS_SetInterruptMode,"ax",%progbits
 1527              		.align	2
 1528              		.global	SPIS_SetInterruptMode
 1529              		.thumb
 1530              		.thumb_func
 1531              		.type	SPIS_SetInterruptMode, %function
 1532              	SPIS_SetInterruptMode:
 1533              	.LFB23:
1171:.\Generated_Source\PSoC5/SPIS.c **** 
1172:.\Generated_Source\PSoC5/SPIS.c **** 
1173:.\Generated_Source\PSoC5/SPIS.c **** /*******************************************************************************
1174:.\Generated_Source\PSoC5/SPIS.c **** * Function Name: SPIS_SetInterruptMode
1175:.\Generated_Source\PSoC5/SPIS.c **** ********************************************************************************
1176:.\Generated_Source\PSoC5/SPIS.c **** *
1177:.\Generated_Source\PSoC5/SPIS.c **** * Summary:
1178:.\Generated_Source\PSoC5/SPIS.c **** *  Configure which status bits trigger an interrupt event.
1179:.\Generated_Source\PSoC5/SPIS.c **** *
1180:.\Generated_Source\PSoC5/SPIS.c **** * Parameters:
1181:.\Generated_Source\PSoC5/SPIS.c **** *  intSrc: An or'd combination of the desired status bit masks (defined in the
1182:.\Generated_Source\PSoC5/SPIS.c **** *  header file).
1183:.\Generated_Source\PSoC5/SPIS.c **** *
1184:.\Generated_Source\PSoC5/SPIS.c **** * Return:
1185:.\Generated_Source\PSoC5/SPIS.c **** *  None.
1186:.\Generated_Source\PSoC5/SPIS.c **** *
1187:.\Generated_Source\PSoC5/SPIS.c **** * Theory:
1188:.\Generated_Source\PSoC5/SPIS.c **** *  Enables the output of specific status bits to the interrupt controller.
1189:.\Generated_Source\PSoC5/SPIS.c **** *
1190:.\Generated_Source\PSoC5/SPIS.c **** *******************************************************************************/
1191:.\Generated_Source\PSoC5/SPIS.c **** void SPIS_SetInterruptMode(uint8 intSrc) 
1192:.\Generated_Source\PSoC5/SPIS.c **** {
 1534              		.loc 1 1192 0
 1535              		.cfi_startproc
 1536              		@ args = 0, pretend = 0, frame = 8
 1537              		@ frame_needed = 1, uses_anonymous_args = 0
 1538              		@ link register save eliminated.
 1539 0000 80B4     		push	{r7}
 1540              		.cfi_def_cfa_offset 4
ARM GAS  C:\Users\LUKASC~1\AppData\Local\Temp\ccte1tQg.s 			page 49


 1541              		.cfi_offset 7, -4
 1542 0002 83B0     		sub	sp, sp, #12
 1543              		.cfi_def_cfa_offset 16
 1544 0004 00AF     		add	r7, sp, #0
 1545              		.cfi_def_cfa_register 7
 1546 0006 0346     		mov	r3, r0
 1547 0008 FB71     		strb	r3, [r7, #7]
1193:.\Generated_Source\PSoC5/SPIS.c ****     SPIS_TX_STATUS_MASK_REG  = intSrc;
 1548              		.loc 1 1193 0
 1549 000a 054A     		ldr	r2, .L98
 1550 000c FB79     		ldrb	r3, [r7, #7]
 1551 000e 1370     		strb	r3, [r2]
1194:.\Generated_Source\PSoC5/SPIS.c ****     SPIS_RX_STATUS_MASK_REG  = intSrc;
 1552              		.loc 1 1194 0
 1553 0010 044A     		ldr	r2, .L98+4
 1554 0012 FB79     		ldrb	r3, [r7, #7]
 1555 0014 1370     		strb	r3, [r2]
1195:.\Generated_Source\PSoC5/SPIS.c **** }
 1556              		.loc 1 1195 0
 1557 0016 0C37     		adds	r7, r7, #12
 1558              		.cfi_def_cfa_offset 4
 1559 0018 BD46     		mov	sp, r7
 1560              		.cfi_def_cfa_register 13
 1561              		@ sp needed
 1562 001a 5DF8047B 		ldr	r7, [sp], #4
 1563              		.cfi_restore 7
 1564              		.cfi_def_cfa_offset 0
 1565 001e 7047     		bx	lr
 1566              	.L99:
 1567              		.align	2
 1568              	.L98:
 1569 0020 84650040 		.word	1073767812
 1570 0024 87650040 		.word	1073767815
 1571              		.cfi_endproc
 1572              	.LFE23:
 1573              		.size	SPIS_SetInterruptMode, .-SPIS_SetInterruptMode
 1574              		.section	.text.SPIS_ReadStatus,"ax",%progbits
 1575              		.align	2
 1576              		.global	SPIS_ReadStatus
 1577              		.thumb
 1578              		.thumb_func
 1579              		.type	SPIS_ReadStatus, %function
 1580              	SPIS_ReadStatus:
 1581              	.LFB24:
1196:.\Generated_Source\PSoC5/SPIS.c **** 
1197:.\Generated_Source\PSoC5/SPIS.c **** 
1198:.\Generated_Source\PSoC5/SPIS.c **** /*******************************************************************************
1199:.\Generated_Source\PSoC5/SPIS.c **** * Function Name: SPIS_ReadStatus
1200:.\Generated_Source\PSoC5/SPIS.c **** ********************************************************************************
1201:.\Generated_Source\PSoC5/SPIS.c **** *
1202:.\Generated_Source\PSoC5/SPIS.c **** * Summary:
1203:.\Generated_Source\PSoC5/SPIS.c **** *  Read the status register for the component.
1204:.\Generated_Source\PSoC5/SPIS.c **** *
1205:.\Generated_Source\PSoC5/SPIS.c **** * Parameters:
1206:.\Generated_Source\PSoC5/SPIS.c **** *  None.
1207:.\Generated_Source\PSoC5/SPIS.c **** *
1208:.\Generated_Source\PSoC5/SPIS.c **** * Return:
ARM GAS  C:\Users\LUKASC~1\AppData\Local\Temp\ccte1tQg.s 			page 50


1209:.\Generated_Source\PSoC5/SPIS.c **** *  Contents of the status register.
1210:.\Generated_Source\PSoC5/SPIS.c **** *
1211:.\Generated_Source\PSoC5/SPIS.c **** * Global variables:
1212:.\Generated_Source\PSoC5/SPIS.c **** *  SPIS_swStatus - used to store in software status register,
1213:.\Generated_Source\PSoC5/SPIS.c **** *  modified every function call - resets to zero.
1214:.\Generated_Source\PSoC5/SPIS.c **** *
1215:.\Generated_Source\PSoC5/SPIS.c **** * Theory:
1216:.\Generated_Source\PSoC5/SPIS.c **** *  Allows the user and the API to read the status register for error detection
1217:.\Generated_Source\PSoC5/SPIS.c **** *  and flow control.
1218:.\Generated_Source\PSoC5/SPIS.c **** *
1219:.\Generated_Source\PSoC5/SPIS.c **** * Side Effects:
1220:.\Generated_Source\PSoC5/SPIS.c **** *  Clear status register of the component.
1221:.\Generated_Source\PSoC5/SPIS.c **** *
1222:.\Generated_Source\PSoC5/SPIS.c **** * Reentrant:
1223:.\Generated_Source\PSoC5/SPIS.c **** *  No.
1224:.\Generated_Source\PSoC5/SPIS.c **** *
1225:.\Generated_Source\PSoC5/SPIS.c **** *******************************************************************************/
1226:.\Generated_Source\PSoC5/SPIS.c **** uint8 SPIS_ReadStatus(void) 
1227:.\Generated_Source\PSoC5/SPIS.c **** {
 1582              		.loc 1 1227 0
 1583              		.cfi_startproc
 1584              		@ args = 0, pretend = 0, frame = 8
 1585              		@ frame_needed = 1, uses_anonymous_args = 0
 1586 0000 80B5     		push	{r7, lr}
 1587              		.cfi_def_cfa_offset 8
 1588              		.cfi_offset 7, -8
 1589              		.cfi_offset 14, -4
 1590 0002 82B0     		sub	sp, sp, #8
 1591              		.cfi_def_cfa_offset 16
 1592 0004 00AF     		add	r7, sp, #0
 1593              		.cfi_def_cfa_register 7
1228:.\Generated_Source\PSoC5/SPIS.c ****     uint8 tmpStatus;
1229:.\Generated_Source\PSoC5/SPIS.c **** 
1230:.\Generated_Source\PSoC5/SPIS.c ****     #if ((SPIS_TX_SOFTWARE_BUF_ENABLED) || (SPIS_RX_SOFTWARE_BUF_ENABLED))
1231:.\Generated_Source\PSoC5/SPIS.c **** 
1232:.\Generated_Source\PSoC5/SPIS.c ****         SPIS_DisableInt();
 1594              		.loc 1 1232 0
 1595 0006 FFF7FEFF 		bl	SPIS_DisableInt
1233:.\Generated_Source\PSoC5/SPIS.c **** 
1234:.\Generated_Source\PSoC5/SPIS.c ****         tmpStatus = SPIS_GET_STATUS_TX(SPIS_swStatusTx) |
 1596              		.loc 1 1234 0
 1597 000a 164B     		ldr	r3, .L102
 1598 000c 1B78     		ldrb	r3, [r3]
 1599 000e DAB2     		uxtb	r2, r3
 1600 0010 154B     		ldr	r3, .L102+4
 1601 0012 1B78     		ldrb	r3, [r3]
 1602 0014 DBB2     		uxtb	r3, r3
 1603 0016 03F06103 		and	r3, r3, #97
 1604 001a DBB2     		uxtb	r3, r3
 1605 001c 1343     		orrs	r3, r3, r2
 1606 001e DBB2     		uxtb	r3, r3
 1607 0020 D9B2     		uxtb	r1, r3
1235:.\Generated_Source\PSoC5/SPIS.c ****               (SPIS_GET_STATUS_RX(SPIS_swStatusRx) & (uint8)~SPIS_STS_RX_FIFO_FULL);
 1608              		.loc 1 1235 0
 1609 0022 124B     		ldr	r3, .L102+8
 1610 0024 1B78     		ldrb	r3, [r3]
 1611 0026 DAB2     		uxtb	r2, r3
ARM GAS  C:\Users\LUKASC~1\AppData\Local\Temp\ccte1tQg.s 			page 51


 1612 0028 114B     		ldr	r3, .L102+12
 1613 002a 1B78     		ldrb	r3, [r3]
 1614 002c DBB2     		uxtb	r3, r3
 1615 002e 03F06103 		and	r3, r3, #97
 1616 0032 DBB2     		uxtb	r3, r3
 1617 0034 1343     		orrs	r3, r3, r2
 1618 0036 DBB2     		uxtb	r3, r3
1234:.\Generated_Source\PSoC5/SPIS.c ****               (SPIS_GET_STATUS_RX(SPIS_swStatusRx) & (uint8)~SPIS_STS_RX_FIFO_FULL);
 1619              		.loc 1 1234 0
 1620 0038 DBB2     		uxtb	r3, r3
 1621 003a 23F04003 		bic	r3, r3, #64
 1622 003e DBB2     		uxtb	r3, r3
 1623 0040 0A46     		mov	r2, r1
 1624 0042 1343     		orrs	r3, r3, r2
 1625 0044 DBB2     		uxtb	r3, r3
 1626 0046 FB71     		strb	r3, [r7, #7]
1236:.\Generated_Source\PSoC5/SPIS.c **** 
1237:.\Generated_Source\PSoC5/SPIS.c ****         SPIS_swStatusTx = 0u;
 1627              		.loc 1 1237 0
 1628 0048 074B     		ldr	r3, .L102+4
 1629 004a 0022     		movs	r2, #0
 1630 004c 1A70     		strb	r2, [r3]
1238:.\Generated_Source\PSoC5/SPIS.c ****         SPIS_swStatusRx = 0u;
 1631              		.loc 1 1238 0
 1632 004e 084B     		ldr	r3, .L102+12
 1633 0050 0022     		movs	r2, #0
 1634 0052 1A70     		strb	r2, [r3]
1239:.\Generated_Source\PSoC5/SPIS.c **** 
1240:.\Generated_Source\PSoC5/SPIS.c ****         /* Enable Interrupts */
1241:.\Generated_Source\PSoC5/SPIS.c ****         SPIS_EnableInt();
 1635              		.loc 1 1241 0
 1636 0054 FFF7FEFF 		bl	SPIS_EnableInt
1242:.\Generated_Source\PSoC5/SPIS.c **** 
1243:.\Generated_Source\PSoC5/SPIS.c ****     #else /* !((SPIS_TX_SOFTWARE_BUF_ENABLED) || (SPIS_RX_SOFTWARE_BUF_ENABLED)) */
1244:.\Generated_Source\PSoC5/SPIS.c **** 
1245:.\Generated_Source\PSoC5/SPIS.c ****         tmpStatus = SPIS_TX_STATUS_REG | (SPIS_RX_STATUS_REG &
1246:.\Generated_Source\PSoC5/SPIS.c ****                                                       (uint8)~SPIS_STS_RX_FIFO_FULL);
1247:.\Generated_Source\PSoC5/SPIS.c **** 
1248:.\Generated_Source\PSoC5/SPIS.c ****     #endif /* (SPIS_TX_SOFTWARE_BUF_ENABLED) || (SPIS_RX_SOFTWARE_BUF_ENABLED) */
1249:.\Generated_Source\PSoC5/SPIS.c **** 
1250:.\Generated_Source\PSoC5/SPIS.c ****     return(tmpStatus);
 1637              		.loc 1 1250 0
 1638 0058 FB79     		ldrb	r3, [r7, #7]	@ zero_extendqisi2
1251:.\Generated_Source\PSoC5/SPIS.c **** }
 1639              		.loc 1 1251 0
 1640 005a 1846     		mov	r0, r3
 1641 005c 0837     		adds	r7, r7, #8
 1642              		.cfi_def_cfa_offset 8
 1643 005e BD46     		mov	sp, r7
 1644              		.cfi_def_cfa_register 13
 1645              		@ sp needed
 1646 0060 80BD     		pop	{r7, pc}
 1647              	.L103:
 1648 0062 00BF     		.align	2
 1649              	.L102:
 1650 0064 64650040 		.word	1073767780
 1651 0068 00000000 		.word	SPIS_swStatusTx
ARM GAS  C:\Users\LUKASC~1\AppData\Local\Temp\ccte1tQg.s 			page 52


 1652 006c 67650040 		.word	1073767783
 1653 0070 00000000 		.word	SPIS_swStatusRx
 1654              		.cfi_endproc
 1655              	.LFE24:
 1656              		.size	SPIS_ReadStatus, .-SPIS_ReadStatus
 1657              		.text
 1658              	.Letext0:
 1659              		.file 2 ".\\Generated_Source\\PSoC5\\cytypes.h"