ARM GAS  C:\Users\LUKASC~1\AppData\Local\Temp\cc84Zntz.s 			page 1


   1              		.syntax unified
   2              		.cpu cortex-m3
   3              		.fpu softvfp
   4              		.eabi_attribute 20, 1
   5              		.eabi_attribute 21, 1
   6              		.eabi_attribute 23, 3
   7              		.eabi_attribute 24, 1
   8              		.eabi_attribute 25, 1
   9              		.eabi_attribute 26, 1
  10              		.eabi_attribute 30, 6
  11              		.eabi_attribute 34, 1
  12              		.eabi_attribute 18, 4
  13              		.thumb
  14              		.file	"SPIS_PM.c"
  15              		.text
  16              	.Ltext0:
  17              		.cfi_sections	.debug_frame
  18              		.data
  19              		.align	2
  20              		.type	SPIS_backup, %object
  21              		.size	SPIS_backup, 2
  22              	SPIS_backup:
  23 0000 00       		.byte	0
  24 0001 07       		.byte	7
  25 0002 0000     		.section	.text.SPIS_SaveConfig,"ax",%progbits
  26              		.align	2
  27              		.global	SPIS_SaveConfig
  28              		.thumb
  29              		.thumb_func
  30              		.type	SPIS_SaveConfig, %function
  31              	SPIS_SaveConfig:
  32              	.LFB0:
  33              		.file 1 ".\\Generated_Source\\PSoC5\\SPIS_PM.c"
   1:.\Generated_Source\PSoC5/SPIS_PM.c **** /*******************************************************************************
   2:.\Generated_Source\PSoC5/SPIS_PM.c **** * File Name: SPIS_PM.c
   3:.\Generated_Source\PSoC5/SPIS_PM.c **** * Version 2.70
   4:.\Generated_Source\PSoC5/SPIS_PM.c **** *
   5:.\Generated_Source\PSoC5/SPIS_PM.c **** * Description:
   6:.\Generated_Source\PSoC5/SPIS_PM.c **** *  This file contains the setup, control and status commands to support
   7:.\Generated_Source\PSoC5/SPIS_PM.c **** *  component operations in low power mode.
   8:.\Generated_Source\PSoC5/SPIS_PM.c **** *
   9:.\Generated_Source\PSoC5/SPIS_PM.c **** * Note:
  10:.\Generated_Source\PSoC5/SPIS_PM.c **** *
  11:.\Generated_Source\PSoC5/SPIS_PM.c **** ********************************************************************************
  12:.\Generated_Source\PSoC5/SPIS_PM.c **** * Copyright 2008-2015, Cypress Semiconductor Corporation.  All rights reserved.
  13:.\Generated_Source\PSoC5/SPIS_PM.c **** * You may use this file only in accordance with the license, terms, conditions,
  14:.\Generated_Source\PSoC5/SPIS_PM.c **** * disclaimers, and limitations in the end user license agreement accompanying
  15:.\Generated_Source\PSoC5/SPIS_PM.c **** * the software package with which this file was provided.
  16:.\Generated_Source\PSoC5/SPIS_PM.c **** *******************************************************************************/
  17:.\Generated_Source\PSoC5/SPIS_PM.c **** 
  18:.\Generated_Source\PSoC5/SPIS_PM.c **** #include "SPIS_PVT.h"
  19:.\Generated_Source\PSoC5/SPIS_PM.c **** 
  20:.\Generated_Source\PSoC5/SPIS_PM.c **** static SPIS_BACKUP_STRUCT SPIS_backup = 
  21:.\Generated_Source\PSoC5/SPIS_PM.c **** {
  22:.\Generated_Source\PSoC5/SPIS_PM.c ****     SPIS_DISABLED,
  23:.\Generated_Source\PSoC5/SPIS_PM.c ****     SPIS_BITCTR_INIT,
  24:.\Generated_Source\PSoC5/SPIS_PM.c **** };
ARM GAS  C:\Users\LUKASC~1\AppData\Local\Temp\cc84Zntz.s 			page 2


  25:.\Generated_Source\PSoC5/SPIS_PM.c **** 
  26:.\Generated_Source\PSoC5/SPIS_PM.c **** 
  27:.\Generated_Source\PSoC5/SPIS_PM.c **** /*******************************************************************************
  28:.\Generated_Source\PSoC5/SPIS_PM.c **** * Function Name: SPIS_SaveConfig
  29:.\Generated_Source\PSoC5/SPIS_PM.c **** ********************************************************************************
  30:.\Generated_Source\PSoC5/SPIS_PM.c **** *
  31:.\Generated_Source\PSoC5/SPIS_PM.c **** * Summary:
  32:.\Generated_Source\PSoC5/SPIS_PM.c **** *  Empty function. Included for consistency with other components.
  33:.\Generated_Source\PSoC5/SPIS_PM.c **** *
  34:.\Generated_Source\PSoC5/SPIS_PM.c **** * Parameters:
  35:.\Generated_Source\PSoC5/SPIS_PM.c **** *  None.
  36:.\Generated_Source\PSoC5/SPIS_PM.c **** *
  37:.\Generated_Source\PSoC5/SPIS_PM.c **** * Return:
  38:.\Generated_Source\PSoC5/SPIS_PM.c **** *  None.
  39:.\Generated_Source\PSoC5/SPIS_PM.c **** *
  40:.\Generated_Source\PSoC5/SPIS_PM.c **** *******************************************************************************/
  41:.\Generated_Source\PSoC5/SPIS_PM.c **** void SPIS_SaveConfig(void) 
  42:.\Generated_Source\PSoC5/SPIS_PM.c **** {
  34              		.loc 1 42 0
  35              		.cfi_startproc
  36              		@ args = 0, pretend = 0, frame = 0
  37              		@ frame_needed = 1, uses_anonymous_args = 0
  38              		@ link register save eliminated.
  39 0000 80B4     		push	{r7}
  40              		.cfi_def_cfa_offset 4
  41              		.cfi_offset 7, -4
  42 0002 00AF     		add	r7, sp, #0
  43              		.cfi_def_cfa_register 7
  43:.\Generated_Source\PSoC5/SPIS_PM.c **** 
  44:.\Generated_Source\PSoC5/SPIS_PM.c **** }
  44              		.loc 1 44 0
  45 0004 BD46     		mov	sp, r7
  46              		.cfi_def_cfa_register 13
  47              		@ sp needed
  48 0006 5DF8047B 		ldr	r7, [sp], #4
  49              		.cfi_restore 7
  50              		.cfi_def_cfa_offset 0
  51 000a 7047     		bx	lr
  52              		.cfi_endproc
  53              	.LFE0:
  54              		.size	SPIS_SaveConfig, .-SPIS_SaveConfig
  55              		.section	.text.SPIS_RestoreConfig,"ax",%progbits
  56              		.align	2
  57              		.global	SPIS_RestoreConfig
  58              		.thumb
  59              		.thumb_func
  60              		.type	SPIS_RestoreConfig, %function
  61              	SPIS_RestoreConfig:
  62              	.LFB1:
  45:.\Generated_Source\PSoC5/SPIS_PM.c **** 
  46:.\Generated_Source\PSoC5/SPIS_PM.c **** 
  47:.\Generated_Source\PSoC5/SPIS_PM.c **** /*******************************************************************************
  48:.\Generated_Source\PSoC5/SPIS_PM.c **** * Function Name: SPIS_RestoreConfig
  49:.\Generated_Source\PSoC5/SPIS_PM.c **** ********************************************************************************
  50:.\Generated_Source\PSoC5/SPIS_PM.c **** *
  51:.\Generated_Source\PSoC5/SPIS_PM.c **** * Summary:
  52:.\Generated_Source\PSoC5/SPIS_PM.c **** *  Empty function. Included for consistency with other components.
ARM GAS  C:\Users\LUKASC~1\AppData\Local\Temp\cc84Zntz.s 			page 3


  53:.\Generated_Source\PSoC5/SPIS_PM.c **** *
  54:.\Generated_Source\PSoC5/SPIS_PM.c **** * Parameters:
  55:.\Generated_Source\PSoC5/SPIS_PM.c **** *  None.
  56:.\Generated_Source\PSoC5/SPIS_PM.c **** *
  57:.\Generated_Source\PSoC5/SPIS_PM.c **** * Return:
  58:.\Generated_Source\PSoC5/SPIS_PM.c **** *  None.
  59:.\Generated_Source\PSoC5/SPIS_PM.c **** *
  60:.\Generated_Source\PSoC5/SPIS_PM.c **** *******************************************************************************/
  61:.\Generated_Source\PSoC5/SPIS_PM.c **** void SPIS_RestoreConfig(void) 
  62:.\Generated_Source\PSoC5/SPIS_PM.c **** {
  63              		.loc 1 62 0
  64              		.cfi_startproc
  65              		@ args = 0, pretend = 0, frame = 0
  66              		@ frame_needed = 1, uses_anonymous_args = 0
  67              		@ link register save eliminated.
  68 0000 80B4     		push	{r7}
  69              		.cfi_def_cfa_offset 4
  70              		.cfi_offset 7, -4
  71 0002 00AF     		add	r7, sp, #0
  72              		.cfi_def_cfa_register 7
  63:.\Generated_Source\PSoC5/SPIS_PM.c **** 
  64:.\Generated_Source\PSoC5/SPIS_PM.c **** }
  73              		.loc 1 64 0
  74 0004 BD46     		mov	sp, r7
  75              		.cfi_def_cfa_register 13
  76              		@ sp needed
  77 0006 5DF8047B 		ldr	r7, [sp], #4
  78              		.cfi_restore 7
  79              		.cfi_def_cfa_offset 0
  80 000a 7047     		bx	lr
  81              		.cfi_endproc
  82              	.LFE1:
  83              		.size	SPIS_RestoreConfig, .-SPIS_RestoreConfig
  84              		.section	.text.SPIS_Sleep,"ax",%progbits
  85              		.align	2
  86              		.global	SPIS_Sleep
  87              		.thumb
  88              		.thumb_func
  89              		.type	SPIS_Sleep, %function
  90              	SPIS_Sleep:
  91              	.LFB2:
  65:.\Generated_Source\PSoC5/SPIS_PM.c **** 
  66:.\Generated_Source\PSoC5/SPIS_PM.c **** 
  67:.\Generated_Source\PSoC5/SPIS_PM.c **** /*******************************************************************************
  68:.\Generated_Source\PSoC5/SPIS_PM.c **** * Function Name: SPIS_Sleep
  69:.\Generated_Source\PSoC5/SPIS_PM.c **** ********************************************************************************
  70:.\Generated_Source\PSoC5/SPIS_PM.c **** *
  71:.\Generated_Source\PSoC5/SPIS_PM.c **** * Summary:
  72:.\Generated_Source\PSoC5/SPIS_PM.c **** *  Prepare SPI Slave Component goes to sleep.
  73:.\Generated_Source\PSoC5/SPIS_PM.c **** *
  74:.\Generated_Source\PSoC5/SPIS_PM.c **** * Parameters:
  75:.\Generated_Source\PSoC5/SPIS_PM.c **** *  None.
  76:.\Generated_Source\PSoC5/SPIS_PM.c **** *
  77:.\Generated_Source\PSoC5/SPIS_PM.c **** * Return:
  78:.\Generated_Source\PSoC5/SPIS_PM.c **** *  None.
  79:.\Generated_Source\PSoC5/SPIS_PM.c **** *
  80:.\Generated_Source\PSoC5/SPIS_PM.c **** * Global Variables:
ARM GAS  C:\Users\LUKASC~1\AppData\Local\Temp\cc84Zntz.s 			page 4


  81:.\Generated_Source\PSoC5/SPIS_PM.c **** *  SPIS_backup - modified when non-retention registers are saved.
  82:.\Generated_Source\PSoC5/SPIS_PM.c **** *
  83:.\Generated_Source\PSoC5/SPIS_PM.c **** * Reentrant:
  84:.\Generated_Source\PSoC5/SPIS_PM.c **** *  No.
  85:.\Generated_Source\PSoC5/SPIS_PM.c **** *
  86:.\Generated_Source\PSoC5/SPIS_PM.c **** *******************************************************************************/
  87:.\Generated_Source\PSoC5/SPIS_PM.c **** void SPIS_Sleep(void) 
  88:.\Generated_Source\PSoC5/SPIS_PM.c **** {
  92              		.loc 1 88 0
  93              		.cfi_startproc
  94              		@ args = 0, pretend = 0, frame = 0
  95              		@ frame_needed = 1, uses_anonymous_args = 0
  96 0000 80B5     		push	{r7, lr}
  97              		.cfi_def_cfa_offset 8
  98              		.cfi_offset 7, -8
  99              		.cfi_offset 14, -4
 100 0002 00AF     		add	r7, sp, #0
 101              		.cfi_def_cfa_register 7
  89:.\Generated_Source\PSoC5/SPIS_PM.c ****     /* Save components enable state */
  90:.\Generated_Source\PSoC5/SPIS_PM.c ****     if ((SPIS_TX_STATUS_ACTL_REG & SPIS_INT_ENABLE) != 0u)
 102              		.loc 1 90 0
 103 0004 084B     		ldr	r3, .L6
 104 0006 1B78     		ldrb	r3, [r3]
 105 0008 DBB2     		uxtb	r3, r3
 106 000a 03F01003 		and	r3, r3, #16
 107 000e 002B     		cmp	r3, #0
 108 0010 03D0     		beq	.L4
  91:.\Generated_Source\PSoC5/SPIS_PM.c ****     {
  92:.\Generated_Source\PSoC5/SPIS_PM.c ****         SPIS_backup.enableState = 1u;
 109              		.loc 1 92 0
 110 0012 064B     		ldr	r3, .L6+4
 111 0014 0122     		movs	r2, #1
 112 0016 1A70     		strb	r2, [r3]
 113 0018 02E0     		b	.L5
 114              	.L4:
  93:.\Generated_Source\PSoC5/SPIS_PM.c ****     }
  94:.\Generated_Source\PSoC5/SPIS_PM.c ****     else /* Components block is disabled */
  95:.\Generated_Source\PSoC5/SPIS_PM.c ****     {
  96:.\Generated_Source\PSoC5/SPIS_PM.c ****         SPIS_backup.enableState = 0u;
 115              		.loc 1 96 0
 116 001a 044B     		ldr	r3, .L6+4
 117 001c 0022     		movs	r2, #0
 118 001e 1A70     		strb	r2, [r3]
 119              	.L5:
  97:.\Generated_Source\PSoC5/SPIS_PM.c ****     }
  98:.\Generated_Source\PSoC5/SPIS_PM.c **** 
  99:.\Generated_Source\PSoC5/SPIS_PM.c ****     SPIS_Stop();
 120              		.loc 1 99 0
 121 0020 FFF7FEFF 		bl	SPIS_Stop
 100:.\Generated_Source\PSoC5/SPIS_PM.c **** 
 101:.\Generated_Source\PSoC5/SPIS_PM.c **** }
 122              		.loc 1 101 0
 123 0024 80BD     		pop	{r7, pc}
 124              	.L7:
 125 0026 00BF     		.align	2
 126              	.L6:
 127 0028 94650040 		.word	1073767828
ARM GAS  C:\Users\LUKASC~1\AppData\Local\Temp\cc84Zntz.s 			page 5


 128 002c 00000000 		.word	SPIS_backup
 129              		.cfi_endproc
 130              	.LFE2:
 131              		.size	SPIS_Sleep, .-SPIS_Sleep
 132              		.section	.text.SPIS_Wakeup,"ax",%progbits
 133              		.align	2
 134              		.global	SPIS_Wakeup
 135              		.thumb
 136              		.thumb_func
 137              		.type	SPIS_Wakeup, %function
 138              	SPIS_Wakeup:
 139              	.LFB3:
 102:.\Generated_Source\PSoC5/SPIS_PM.c **** 
 103:.\Generated_Source\PSoC5/SPIS_PM.c **** 
 104:.\Generated_Source\PSoC5/SPIS_PM.c **** /*******************************************************************************
 105:.\Generated_Source\PSoC5/SPIS_PM.c **** * Function Name: SPIS_Wakeup
 106:.\Generated_Source\PSoC5/SPIS_PM.c **** ********************************************************************************
 107:.\Generated_Source\PSoC5/SPIS_PM.c **** *
 108:.\Generated_Source\PSoC5/SPIS_PM.c **** * Summary:
 109:.\Generated_Source\PSoC5/SPIS_PM.c **** *  Prepare SPIM Component to wake up.
 110:.\Generated_Source\PSoC5/SPIS_PM.c **** *
 111:.\Generated_Source\PSoC5/SPIS_PM.c **** * Parameters:
 112:.\Generated_Source\PSoC5/SPIS_PM.c **** *  None.
 113:.\Generated_Source\PSoC5/SPIS_PM.c **** *
 114:.\Generated_Source\PSoC5/SPIS_PM.c **** * Return:
 115:.\Generated_Source\PSoC5/SPIS_PM.c **** *  None.
 116:.\Generated_Source\PSoC5/SPIS_PM.c **** *
 117:.\Generated_Source\PSoC5/SPIS_PM.c **** * Global Variables:
 118:.\Generated_Source\PSoC5/SPIS_PM.c **** *  SPIS_backup - used when non-retention registers are restored.
 119:.\Generated_Source\PSoC5/SPIS_PM.c **** *  SPIS_txBufferWrite - modified every function call - resets to
 120:.\Generated_Source\PSoC5/SPIS_PM.c **** *  zero.
 121:.\Generated_Source\PSoC5/SPIS_PM.c **** *  SPIS_txBufferRead - modified every function call - resets to
 122:.\Generated_Source\PSoC5/SPIS_PM.c **** *  zero.
 123:.\Generated_Source\PSoC5/SPIS_PM.c **** *  SPIS_rxBufferWrite - modified every function call - resets to
 124:.\Generated_Source\PSoC5/SPIS_PM.c **** *  zero.
 125:.\Generated_Source\PSoC5/SPIS_PM.c **** *  SPIS_rxBufferRead - modified every function call - resets to
 126:.\Generated_Source\PSoC5/SPIS_PM.c **** *  zero.
 127:.\Generated_Source\PSoC5/SPIS_PM.c **** *
 128:.\Generated_Source\PSoC5/SPIS_PM.c **** * Reentrant:
 129:.\Generated_Source\PSoC5/SPIS_PM.c **** *  No.
 130:.\Generated_Source\PSoC5/SPIS_PM.c **** *
 131:.\Generated_Source\PSoC5/SPIS_PM.c **** *******************************************************************************/
 132:.\Generated_Source\PSoC5/SPIS_PM.c **** void SPIS_Wakeup(void) 
 133:.\Generated_Source\PSoC5/SPIS_PM.c **** {
 140              		.loc 1 133 0
 141              		.cfi_startproc
 142              		@ args = 0, pretend = 0, frame = 0
 143              		@ frame_needed = 1, uses_anonymous_args = 0
 144 0000 80B5     		push	{r7, lr}
 145              		.cfi_def_cfa_offset 8
 146              		.cfi_offset 7, -8
 147              		.cfi_offset 14, -4
 148 0002 00AF     		add	r7, sp, #0
 149              		.cfi_def_cfa_register 7
 134:.\Generated_Source\PSoC5/SPIS_PM.c ****     #if (SPIS_TX_SOFTWARE_BUF_ENABLED)
 135:.\Generated_Source\PSoC5/SPIS_PM.c ****         SPIS_txBufferFull = 0u;
 150              		.loc 1 135 0
ARM GAS  C:\Users\LUKASC~1\AppData\Local\Temp\cc84Zntz.s 			page 6


 151 0004 0D4B     		ldr	r3, .L10
 152 0006 0022     		movs	r2, #0
 153 0008 1A70     		strb	r2, [r3]
 136:.\Generated_Source\PSoC5/SPIS_PM.c ****         SPIS_txBufferRead = 0u;
 154              		.loc 1 136 0
 155 000a 0D4B     		ldr	r3, .L10+4
 156 000c 0022     		movs	r2, #0
 157 000e 1A70     		strb	r2, [r3]
 137:.\Generated_Source\PSoC5/SPIS_PM.c ****         SPIS_txBufferWrite = 0u;
 158              		.loc 1 137 0
 159 0010 0C4B     		ldr	r3, .L10+8
 160 0012 0022     		movs	r2, #0
 161 0014 1A70     		strb	r2, [r3]
 138:.\Generated_Source\PSoC5/SPIS_PM.c ****     #endif /* SPIS_TX_SOFTWARE_BUF_ENABLED */
 139:.\Generated_Source\PSoC5/SPIS_PM.c **** 
 140:.\Generated_Source\PSoC5/SPIS_PM.c ****     #if (SPIS_RX_SOFTWARE_BUF_ENABLED)
 141:.\Generated_Source\PSoC5/SPIS_PM.c ****         SPIS_rxBufferFull = 0u;
 162              		.loc 1 141 0
 163 0016 0C4B     		ldr	r3, .L10+12
 164 0018 0022     		movs	r2, #0
 165 001a 1A70     		strb	r2, [r3]
 142:.\Generated_Source\PSoC5/SPIS_PM.c ****         SPIS_rxBufferRead = 0u;
 166              		.loc 1 142 0
 167 001c 0B4B     		ldr	r3, .L10+16
 168 001e 0022     		movs	r2, #0
 169 0020 1A70     		strb	r2, [r3]
 143:.\Generated_Source\PSoC5/SPIS_PM.c ****         SPIS_rxBufferWrite = 0u;
 170              		.loc 1 143 0
 171 0022 0B4B     		ldr	r3, .L10+20
 172 0024 0022     		movs	r2, #0
 173 0026 1A70     		strb	r2, [r3]
 144:.\Generated_Source\PSoC5/SPIS_PM.c ****     #endif /* SPIS_RX_SOFTWARE_BUF_ENABLED */
 145:.\Generated_Source\PSoC5/SPIS_PM.c **** 
 146:.\Generated_Source\PSoC5/SPIS_PM.c ****     SPIS_ClearFIFO();
 174              		.loc 1 146 0
 175 0028 FFF7FEFF 		bl	SPIS_ClearFIFO
 147:.\Generated_Source\PSoC5/SPIS_PM.c **** 
 148:.\Generated_Source\PSoC5/SPIS_PM.c ****     /* Restore components block enable state */
 149:.\Generated_Source\PSoC5/SPIS_PM.c ****     if (SPIS_backup.enableState != 0u)
 176              		.loc 1 149 0
 177 002c 094B     		ldr	r3, .L10+24
 178 002e 1B78     		ldrb	r3, [r3]	@ zero_extendqisi2
 179 0030 002B     		cmp	r3, #0
 180 0032 01D0     		beq	.L8
 150:.\Generated_Source\PSoC5/SPIS_PM.c ****     {
 151:.\Generated_Source\PSoC5/SPIS_PM.c ****          /* Components block was enabled */
 152:.\Generated_Source\PSoC5/SPIS_PM.c ****          SPIS_Enable();
 181              		.loc 1 152 0
 182 0034 FFF7FEFF 		bl	SPIS_Enable
 183              	.L8:
 153:.\Generated_Source\PSoC5/SPIS_PM.c ****     } /* Do nothing if components block was disabled */
 154:.\Generated_Source\PSoC5/SPIS_PM.c **** }
 184              		.loc 1 154 0
 185 0038 80BD     		pop	{r7, pc}
 186              	.L11:
 187 003a 00BF     		.align	2
 188              	.L10:
ARM GAS  C:\Users\LUKASC~1\AppData\Local\Temp\cc84Zntz.s 			page 7


 189 003c 00000000 		.word	SPIS_txBufferFull
 190 0040 00000000 		.word	SPIS_txBufferRead
 191 0044 00000000 		.word	SPIS_txBufferWrite
 192 0048 00000000 		.word	SPIS_rxBufferFull
 193 004c 00000000 		.word	SPIS_rxBufferRead
 194 0050 00000000 		.word	SPIS_rxBufferWrite
 195 0054 00000000 		.word	SPIS_backup
 196              		.cfi_endproc
 197              	.LFE3:
 198              		.size	SPIS_Wakeup, .-SPIS_Wakeup
 199              		.text
 200              	.Letext0:
 201              		.file 2 ".\\Generated_Source\\PSoC5\\cytypes.h"
 202              		.file 3 ".\\Generated_Source\\PSoC5\\SPIS.h"
 203              		.file 4 ".\\Generated_Source\\PSoC5\\SPIS_PVT.h"