ARM GAS  C:\Users\LUKASC~1\AppData\Local\Temp\ccJU8PmX.s 			page 1


   1              		.syntax unified
   2              		.cpu cortex-m3
   3              		.fpu softvfp
   4              		.eabi_attribute 20, 1
   5              		.eabi_attribute 21, 1
   6              		.eabi_attribute 23, 3
   7              		.eabi_attribute 24, 1
   8              		.eabi_attribute 25, 1
   9              		.eabi_attribute 26, 1
  10              		.eabi_attribute 30, 6
  11              		.eabi_attribute 34, 1
  12              		.eabi_attribute 18, 4
  13              		.thumb
  14              		.file	"spislave.c"
  15              		.text
  16              	.Ltext0:
  17              		.cfi_sections	.debug_frame
  18              		.global _printf_float
  19              		.thumb
  20              		.comm	S_wrBuffer,64,4
  21              		.comm	S_temp,1,1
  22              		.section	.text.SPISinit,"ax",%progbits
  23              		.align	2
  24              		.global	SPISinit
  25              		.thumb
  26              		.thumb_func
  27              		.type	SPISinit, %function
  28              	SPISinit:
  29              	.LFB63:
  30              		.file 1 ".\\spislave.c"
   1:.\spislave.c  **** /*******************************************************************************
   2:.\spislave.c  **** * File Name: spislave.c
   3:.\spislave.c  **** *
   4:.\spislave.c  **** * Version: 1.0
   5:.\spislave.c  **** * Author: Lukas Creutzburg
   6:.\spislave.c  **** *
   7:.\spislave.c  **** * Description:
   8:.\spislave.c  **** *   Component sends data via SPI as Slave (Problems with this!)
   9:.\spislave.c  **** *   Can send arrays (Problems with this!)
  10:.\spislave.c  **** *   Receives from Master
  11:.\spislave.c  **** * 
  12:.\spislave.c  **** * Copyright:
  13:.\spislave.c  **** * Released under Creative Commons Attribution Share-Alike 4.0 license.This 
  14:.\spislave.c  **** * allows for both personal and commercial derivative works, as long as they 
  15:.\spislave.c  **** * credit freeDSP and release their designs under the same license. The freeDSP 
  16:.\spislave.c  **** * brand and freeDSP logo are protected by copyright and cannot be used without 
  17:.\spislave.c  **** * formal permission. Please contact Sebastian Merchel for further information.
  18:.\spislave.c  **** * https://creativecommons.org/licenses/by-sa/4.0/legalcode
  19:.\spislave.c  **** *
  20:.\spislave.c  **** *******************************************************************************/
  21:.\spislave.c  **** 
  22:.\spislave.c  **** #include "spislave.h"
  23:.\spislave.c  **** 
  24:.\spislave.c  **** void SPISinit()
  25:.\spislave.c  **** {
  31              		.loc 1 25 0
  32              		.cfi_startproc
ARM GAS  C:\Users\LUKASC~1\AppData\Local\Temp\ccJU8PmX.s 			page 2


  33              		@ args = 0, pretend = 0, frame = 0
  34              		@ frame_needed = 1, uses_anonymous_args = 0
  35 0000 80B5     		push	{r7, lr}
  36              		.cfi_def_cfa_offset 8
  37              		.cfi_offset 7, -8
  38              		.cfi_offset 14, -4
  39 0002 00AF     		add	r7, sp, #0
  40              		.cfi_def_cfa_register 7
  26:.\spislave.c  ****     SPIS_Start();
  41              		.loc 1 26 0
  42 0004 FFF7FEFF 		bl	SPIS_Start
  27:.\spislave.c  **** }
  43              		.loc 1 27 0
  44 0008 80BD     		pop	{r7, pc}
  45              		.cfi_endproc
  46              	.LFE63:
  47              		.size	SPISinit, .-SPISinit
  48 000a 00BF     		.section	.text.SPISsendNumber,"ax",%progbits
  49              		.align	2
  50              		.global	SPISsendNumber
  51              		.thumb
  52              		.thumb_func
  53              		.type	SPISsendNumber, %function
  54              	SPISsendNumber:
  55              	.LFB64:
  28:.\spislave.c  **** 
  29:.\spislave.c  **** void SPISsendNumber(uint8 number)
  30:.\spislave.c  **** {
  56              		.loc 1 30 0
  57              		.cfi_startproc
  58              		@ args = 0, pretend = 0, frame = 8
  59              		@ frame_needed = 1, uses_anonymous_args = 0
  60 0000 80B5     		push	{r7, lr}
  61              		.cfi_def_cfa_offset 8
  62              		.cfi_offset 7, -8
  63              		.cfi_offset 14, -4
  64 0002 82B0     		sub	sp, sp, #8
  65              		.cfi_def_cfa_offset 16
  66 0004 00AF     		add	r7, sp, #0
  67              		.cfi_def_cfa_register 7
  68 0006 0346     		mov	r3, r0
  69 0008 FB71     		strb	r3, [r7, #7]
  31:.\spislave.c  **** 
  32:.\spislave.c  ****     /* Warten auf abschliessen der TX Uebertragung */
  33:.\spislave.c  ****     while(!(SPIS_ReadTxStatus() & SPIS_STS_SPI_DONE));
  70              		.loc 1 33 0
  71 000a 00BF     		nop
  72              	.L3:
  73              		.loc 1 33 0 is_stmt 0 discriminator 1
  74 000c FFF7FEFF 		bl	SPIS_ReadTxStatus
  75 0010 0346     		mov	r3, r0
  76 0012 03F00103 		and	r3, r3, #1
  77 0016 002B     		cmp	r3, #0
  78 0018 F8D0     		beq	.L3
  34:.\spislave.c  ****     /* Senden eines Wortes */
  35:.\spislave.c  ****     SPIS_WriteTxData(number);
  79              		.loc 1 35 0 is_stmt 1
ARM GAS  C:\Users\LUKASC~1\AppData\Local\Temp\ccJU8PmX.s 			page 3


  80 001a FB79     		ldrb	r3, [r7, #7]	@ zero_extendqisi2
  81 001c 1846     		mov	r0, r3
  82 001e FFF7FEFF 		bl	SPIS_WriteTxData
  36:.\spislave.c  ****     CyDelayUs(5);
  83              		.loc 1 36 0
  84 0022 0520     		movs	r0, #5
  85 0024 FFF7FEFF 		bl	CyDelayUs
  37:.\spislave.c  **** }
  86              		.loc 1 37 0
  87 0028 0837     		adds	r7, r7, #8
  88              		.cfi_def_cfa_offset 8
  89 002a BD46     		mov	sp, r7
  90              		.cfi_def_cfa_register 13
  91              		@ sp needed
  92 002c 80BD     		pop	{r7, pc}
  93              		.cfi_endproc
  94              	.LFE64:
  95              		.size	SPISsendNumber, .-SPISsendNumber
  96 002e 00BF     		.section	.text.SPISsendArray,"ax",%progbits
  97              		.align	2
  98              		.global	SPISsendArray
  99              		.thumb
 100              		.thumb_func
 101              		.type	SPISsendArray, %function
 102              	SPISsendArray:
 103              	.LFB65:
  38:.\spislave.c  **** 
  39:.\spislave.c  **** void SPISsendArray(uint8* numbers, uint16 numberOfbytes)
  40:.\spislave.c  **** {
 104              		.loc 1 40 0
 105              		.cfi_startproc
 106              		@ args = 0, pretend = 0, frame = 16
 107              		@ frame_needed = 1, uses_anonymous_args = 0
 108 0000 80B5     		push	{r7, lr}
 109              		.cfi_def_cfa_offset 8
 110              		.cfi_offset 7, -8
 111              		.cfi_offset 14, -4
 112 0002 84B0     		sub	sp, sp, #16
 113              		.cfi_def_cfa_offset 24
 114 0004 00AF     		add	r7, sp, #0
 115              		.cfi_def_cfa_register 7
 116 0006 7860     		str	r0, [r7, #4]
 117 0008 0B46     		mov	r3, r1
 118 000a 7B80     		strh	r3, [r7, #2]	@ movhi
  41:.\spislave.c  ****     /* Warten auf abschliessen der TX Uebertragung */
  42:.\spislave.c  ****     while(!(SPIS_ReadTxStatus() & SPIS_STS_SPI_DONE))
 119              		.loc 1 42 0
 120 000c 02E0     		b	.L5
 121              	.L6:
  43:.\spislave.c  ****     {
  44:.\spislave.c  ****         CyDelayUs(5);
 122              		.loc 1 44 0
 123 000e 0520     		movs	r0, #5
 124 0010 FFF7FEFF 		bl	CyDelayUs
 125              	.L5:
  42:.\spislave.c  ****     {
 126              		.loc 1 42 0
ARM GAS  C:\Users\LUKASC~1\AppData\Local\Temp\ccJU8PmX.s 			page 4


 127 0014 FFF7FEFF 		bl	SPIS_ReadTxStatus
 128 0018 0346     		mov	r3, r0
 129 001a 03F00103 		and	r3, r3, #1
 130 001e 002B     		cmp	r3, #0
 131 0020 F5D0     		beq	.L6
  45:.\spislave.c  ****     }
  46:.\spislave.c  **** 
  47:.\spislave.c  ****     uint16 transmitted=0;
 132              		.loc 1 47 0
 133 0022 0023     		movs	r3, #0
 134 0024 FB81     		strh	r3, [r7, #14]	@ movhi
  48:.\spislave.c  ****     while(transmitted<numberOfbytes)
 135              		.loc 1 48 0
 136 0026 1EE0     		b	.L7
 137              	.L9:
  49:.\spislave.c  ****     {
  50:.\spislave.c  ****         /* Weniger als 255 Werte zu übertragen */
  51:.\spislave.c  ****         if((numberOfbytes-transmitted)<255) 
 138              		.loc 1 51 0
 139 0028 7A88     		ldrh	r2, [r7, #2]
 140 002a FB89     		ldrh	r3, [r7, #14]
 141 002c D31A     		subs	r3, r2, r3
 142 002e FE2B     		cmp	r3, #254
 143 0030 0FDC     		bgt	.L8
  52:.\spislave.c  ****         {
  53:.\spislave.c  ****             SPIS_PutArray(&numbers[transmitted],numberOfbytes-transmitted);
 144              		.loc 1 53 0
 145 0032 FB89     		ldrh	r3, [r7, #14]
 146 0034 7A68     		ldr	r2, [r7, #4]
 147 0036 D118     		adds	r1, r2, r3
 148 0038 7B88     		ldrh	r3, [r7, #2]	@ movhi
 149 003a DAB2     		uxtb	r2, r3
 150 003c FB89     		ldrh	r3, [r7, #14]	@ movhi
 151 003e DBB2     		uxtb	r3, r3
 152 0040 D31A     		subs	r3, r2, r3
 153 0042 DBB2     		uxtb	r3, r3
 154 0044 0846     		mov	r0, r1
 155 0046 1946     		mov	r1, r3
 156 0048 FFF7FEFF 		bl	SPIS_PutArray
  54:.\spislave.c  ****             transmitted = numberOfbytes;
 157              		.loc 1 54 0
 158 004c 7B88     		ldrh	r3, [r7, #2]	@ movhi
 159 004e FB81     		strh	r3, [r7, #14]	@ movhi
 160 0050 09E0     		b	.L7
 161              	.L8:
  55:.\spislave.c  ****         }
  56:.\spislave.c  ****         /* Noch mehr als 255 Restwerte */
  57:.\spislave.c  ****         else 
  58:.\spislave.c  ****         {
  59:.\spislave.c  ****             SPIS_PutArray(&numbers[transmitted],255);
 162              		.loc 1 59 0
 163 0052 FB89     		ldrh	r3, [r7, #14]
 164 0054 7A68     		ldr	r2, [r7, #4]
 165 0056 1344     		add	r3, r3, r2
 166 0058 1846     		mov	r0, r3
 167 005a FF21     		movs	r1, #255
 168 005c FFF7FEFF 		bl	SPIS_PutArray
ARM GAS  C:\Users\LUKASC~1\AppData\Local\Temp\ccJU8PmX.s 			page 5


  60:.\spislave.c  ****             transmitted += 255;
 169              		.loc 1 60 0
 170 0060 FB89     		ldrh	r3, [r7, #14]	@ movhi
 171 0062 FF33     		adds	r3, r3, #255
 172 0064 FB81     		strh	r3, [r7, #14]	@ movhi
 173              	.L7:
  48:.\spislave.c  ****     {
 174              		.loc 1 48 0
 175 0066 FA89     		ldrh	r2, [r7, #14]
 176 0068 7B88     		ldrh	r3, [r7, #2]
 177 006a 9A42     		cmp	r2, r3
 178 006c DCD3     		bcc	.L9
  61:.\spislave.c  ****         }
  62:.\spislave.c  ****     }
  63:.\spislave.c  **** 
  64:.\spislave.c  **** }
 179              		.loc 1 64 0
 180 006e 1037     		adds	r7, r7, #16
 181              		.cfi_def_cfa_offset 8
 182 0070 BD46     		mov	sp, r7
 183              		.cfi_def_cfa_register 13
 184              		@ sp needed
 185 0072 80BD     		pop	{r7, pc}
 186              		.cfi_endproc
 187              	.LFE65:
 188              		.size	SPISsendArray, .-SPISsendArray
 189              		.section	.text.SPISreadNumber,"ax",%progbits
 190              		.align	2
 191              		.global	SPISreadNumber
 192              		.thumb
 193              		.thumb_func
 194              		.type	SPISreadNumber, %function
 195              	SPISreadNumber:
 196              	.LFB66:
  65:.\spislave.c  **** 
  66:.\spislave.c  **** uint8 SPISreadNumber(uint8 waiting)
  67:.\spislave.c  **** {
 197              		.loc 1 67 0
 198              		.cfi_startproc
 199              		@ args = 0, pretend = 0, frame = 16
 200              		@ frame_needed = 1, uses_anonymous_args = 0
 201 0000 80B5     		push	{r7, lr}
 202              		.cfi_def_cfa_offset 8
 203              		.cfi_offset 7, -8
 204              		.cfi_offset 14, -4
 205 0002 84B0     		sub	sp, sp, #16
 206              		.cfi_def_cfa_offset 24
 207 0004 00AF     		add	r7, sp, #0
 208              		.cfi_def_cfa_register 7
 209 0006 0346     		mov	r3, r0
 210 0008 FB71     		strb	r3, [r7, #7]
  68:.\spislave.c  **** 
  69:.\spislave.c  ****     /* Warten auf Byte */
  70:.\spislave.c  ****     if(waiting)
 211              		.loc 1 70 0
 212 000a FB79     		ldrb	r3, [r7, #7]	@ zero_extendqisi2
 213 000c 002B     		cmp	r3, #0
ARM GAS  C:\Users\LUKASC~1\AppData\Local\Temp\ccJU8PmX.s 			page 6


 214 000e 08D0     		beq	.L11
  71:.\spislave.c  ****     {
  72:.\spislave.c  ****         while(SPIS_GetRxBufferSize() == 0)
 215              		.loc 1 72 0
 216 0010 02E0     		b	.L12
 217              	.L13:
  73:.\spislave.c  ****         {
  74:.\spislave.c  ****             CyDelayUs(5);    
 218              		.loc 1 74 0
 219 0012 0520     		movs	r0, #5
 220 0014 FFF7FEFF 		bl	CyDelayUs
 221              	.L12:
  72:.\spislave.c  ****         {
 222              		.loc 1 72 0
 223 0018 FFF7FEFF 		bl	SPIS_GetRxBufferSize
 224 001c 0346     		mov	r3, r0
 225 001e 002B     		cmp	r3, #0
 226 0020 F7D0     		beq	.L13
 227              	.L11:
  75:.\spislave.c  ****         }
  76:.\spislave.c  ****     }
  77:.\spislave.c  ****     /* Senden eines Wortes */
  78:.\spislave.c  ****     uint8 received = SPIS_ReadRxData();
 228              		.loc 1 78 0
 229 0022 FFF7FEFF 		bl	SPIS_ReadRxData
 230 0026 0346     		mov	r3, r0
 231 0028 FB73     		strb	r3, [r7, #15]
  79:.\spislave.c  ****     return received;
 232              		.loc 1 79 0
 233 002a FB7B     		ldrb	r3, [r7, #15]	@ zero_extendqisi2
  80:.\spislave.c  **** }
 234              		.loc 1 80 0
 235 002c 1846     		mov	r0, r3
 236 002e 1037     		adds	r7, r7, #16
 237              		.cfi_def_cfa_offset 8
 238 0030 BD46     		mov	sp, r7
 239              		.cfi_def_cfa_register 13
 240              		@ sp needed
 241 0032 80BD     		pop	{r7, pc}
 242              		.cfi_endproc
 243              	.LFE66:
 244              		.size	SPISreadNumber, .-SPISreadNumber
 245              		.section	.text.SPISreadFinished,"ax",%progbits
 246              		.align	2
 247              		.global	SPISreadFinished
 248              		.thumb
 249              		.thumb_func
 250              		.type	SPISreadFinished, %function
 251              	SPISreadFinished:
 252              	.LFB67:
  81:.\spislave.c  **** 
  82:.\spislave.c  **** uint8 SPISreadFinished()
  83:.\spislave.c  **** {
 253              		.loc 1 83 0
 254              		.cfi_startproc
 255              		@ args = 0, pretend = 0, frame = 0
 256              		@ frame_needed = 1, uses_anonymous_args = 0
ARM GAS  C:\Users\LUKASC~1\AppData\Local\Temp\ccJU8PmX.s 			page 7


 257 0000 80B5     		push	{r7, lr}
 258              		.cfi_def_cfa_offset 8
 259              		.cfi_offset 7, -8
 260              		.cfi_offset 14, -4
 261 0002 00AF     		add	r7, sp, #0
 262              		.cfi_def_cfa_register 7
  84:.\spislave.c  ****     return SPIS_GetRxBufferSize();
 263              		.loc 1 84 0
 264 0004 FFF7FEFF 		bl	SPIS_GetRxBufferSize
 265 0008 0346     		mov	r3, r0
  85:.\spislave.c  **** }
 266              		.loc 1 85 0
 267 000a 1846     		mov	r0, r3
 268 000c 80BD     		pop	{r7, pc}
 269              		.cfi_endproc
 270              	.LFE67:
 271              		.size	SPISreadFinished, .-SPISreadFinished
 272 000e 00BF     		.text
 273              	.Letext0:
 274              		.file 2 "c:\\program files (x86)\\cypress\\psoc creator\\3.3\\psoc creator\\import\\gnu\\arm\\4.9.
 275              		.file 3 "c:\\program files (x86)\\cypress\\psoc creator\\3.3\\psoc creator\\import\\gnu\\arm\\4.9.
 276              		.file 4 "Generated_Source\\PSoC5/cytypes.h"
 277              		.file 5 "Generated_Source\\PSoC5/core_cm3.h"
 278              		.file 6 ".\\spislave.h"