ARM GAS  C:\Users\LUKASC~1\AppData\Local\Temp\ccyN5Vyn.s 			page 1


   1              		.syntax unified
   2              		.cpu cortex-m3
   3              		.fpu softvfp
   4              		.eabi_attribute 20, 1
   5              		.eabi_attribute 21, 1
   6              		.eabi_attribute 23, 3
   7              		.eabi_attribute 24, 1
   8              		.eabi_attribute 25, 1
   9              		.eabi_attribute 26, 1
  10              		.eabi_attribute 30, 6
  11              		.eabi_attribute 34, 1
  12              		.eabi_attribute 18, 4
  13              		.thumb
  14              		.file	"uart.c"
  15              		.text
  16              	.Ltext0:
  17              		.cfi_sections	.debug_frame
  18              		.global _printf_float
  19              		.thumb
  20              		.global	parity
  21              		.section	.rodata
  22              		.align	2
  23              	.LC0:
  24 0000 4E6F6E65 		.ascii	"None\000"
  24      00
  25 0005 000000   		.align	2
  26              	.LC1:
  27 0008 4F646400 		.ascii	"Odd\000"
  28              		.align	2
  29              	.LC2:
  30 000c 4576656E 		.ascii	"Even\000"
  30      00
  31 0011 000000   		.align	2
  32              	.LC3:
  33 0014 4D61726B 		.ascii	"Mark\000"
  33      00
  34 0019 000000   		.align	2
  35              	.LC4:
  36 001c 53706163 		.ascii	"Space\000"
  36      6500
  37              		.data
  38              		.align	2
  39              		.type	parity, %object
  40              		.size	parity, 20
  41              	parity:
  42 0000 00000000 		.word	.LC0
  43 0004 08000000 		.word	.LC1
  44 0008 0C000000 		.word	.LC2
  45 000c 14000000 		.word	.LC3
  46 0010 1C000000 		.word	.LC4
  47              		.global	stop
  48              		.section	.rodata
  49 0022 0000     		.align	2
  50              	.LC5:
  51 0024 3100     		.ascii	"1\000"
  52 0026 0000     		.align	2
  53              	.LC6:
ARM GAS  C:\Users\LUKASC~1\AppData\Local\Temp\ccyN5Vyn.s 			page 2


  54 0028 312E3500 		.ascii	"1.5\000"
  55              		.align	2
  56              	.LC7:
  57 002c 3200     		.ascii	"2\000"
  58              		.data
  59              		.align	2
  60              		.type	stop, %object
  61              		.size	stop, 12
  62              	stop:
  63 0014 24000000 		.word	.LC5
  64 0018 28000000 		.word	.LC6
  65 001c 2C000000 		.word	.LC7
  66              		.section	.text.UARTinit,"ax",%progbits
  67              		.align	2
  68              		.global	UARTinit
  69              		.thumb
  70              		.thumb_func
  71              		.type	UARTinit, %function
  72              	UARTinit:
  73              	.LFB63:
  74              		.file 1 ".\\uart.c"
   1:.\uart.c      **** /*******************************************************************************
   2:.\uart.c      **** * File Name: uart.c
   3:.\uart.c      **** *
   4:.\uart.c      **** * Version: 1.0
   5:.\uart.c      **** * Author: Lukas Creutzburg
   6:.\uart.c      **** *
   7:.\uart.c      **** * Description:
   8:.\uart.c      **** *   Component sends data via UART
   9:.\uart.c      **** *
  10:.\uart.c      **** *******************************************************************************/
  11:.\uart.c      **** 
  12:.\uart.c      **** #include "uart.h"
  13:.\uart.c      **** 
  14:.\uart.c      **** char8* parity[] = {"None", "Odd", "Even", "Mark", "Space"};
  15:.\uart.c      **** char8* stop[]   = {"1", "1.5", "2"};
  16:.\uart.c      **** 
  17:.\uart.c      **** /*******************************************************************************
  18:.\uart.c      **** * Function Name: main
  19:.\uart.c      **** ********************************************************************************
  20:.\uart.c      **** *
  21:.\uart.c      **** * Summary:
  22:.\uart.c      **** *  Initialize communication
  23:.\uart.c      **** *
  24:.\uart.c      **** * Parameters:
  25:.\uart.c      **** *  None.
  26:.\uart.c      **** *
  27:.\uart.c      **** * Return:
  28:.\uart.c      **** *  None.
  29:.\uart.c      **** *
  30:.\uart.c      **** *******************************************************************************/
  31:.\uart.c      **** void UARTinit()
  32:.\uart.c      **** {
  75              		.loc 1 32 0
  76              		.cfi_startproc
  77              		@ args = 0, pretend = 0, frame = 0
  78              		@ frame_needed = 1, uses_anonymous_args = 0
ARM GAS  C:\Users\LUKASC~1\AppData\Local\Temp\ccyN5Vyn.s 			page 3


  79 0000 80B5     		push	{r7, lr}
  80              		.cfi_def_cfa_offset 8
  81              		.cfi_offset 7, -8
  82              		.cfi_offset 14, -4
  83 0002 00AF     		add	r7, sp, #0
  84              		.cfi_def_cfa_register 7
  33:.\uart.c      ****     /* Start USBFS operation with 5-V operation. */
  34:.\uart.c      ****     USBUART_Start(USBFS_DEVICE, USBUART_5V_OPERATION); 
  85              		.loc 1 34 0
  86 0004 0020     		movs	r0, #0
  87 0006 0121     		movs	r1, #1
  88 0008 FFF7FEFF 		bl	USBUART_Start
  35:.\uart.c      **** }
  89              		.loc 1 35 0
  90 000c 80BD     		pop	{r7, pc}
  91              		.cfi_endproc
  92              	.LFE63:
  93              		.size	UARTinit, .-UARTinit
  94 000e 00BF     		.section	.text.UARTsendString,"ax",%progbits
  95              		.align	2
  96              		.global	UARTsendString
  97              		.thumb
  98              		.thumb_func
  99              		.type	UARTsendString, %function
 100              	UARTsendString:
 101              	.LFB64:
  36:.\uart.c      **** 
  37:.\uart.c      **** /*******************************************************************************
  38:.\uart.c      **** * Function Name: UARTsendString
  39:.\uart.c      **** ********************************************************************************
  40:.\uart.c      **** *
  41:.\uart.c      **** * Summary:
  42:.\uart.c      **** *  Sending a string via UART
  43:.\uart.c      **** *
  44:.\uart.c      **** * Parameters:
  45:.\uart.c      **** *  char string[]
  46:.\uart.c      **** *
  47:.\uart.c      **** * Return:
  48:.\uart.c      **** *  None.
  49:.\uart.c      **** *
  50:.\uart.c      **** *******************************************************************************/
  51:.\uart.c      **** void UARTsendString(char string[])
  52:.\uart.c      **** {
 102              		.loc 1 52 0
 103              		.cfi_startproc
 104              		@ args = 0, pretend = 0, frame = 8
 105              		@ frame_needed = 1, uses_anonymous_args = 0
 106 0000 80B5     		push	{r7, lr}
 107              		.cfi_def_cfa_offset 8
 108              		.cfi_offset 7, -8
 109              		.cfi_offset 14, -4
 110 0002 82B0     		sub	sp, sp, #8
 111              		.cfi_def_cfa_offset 16
 112 0004 00AF     		add	r7, sp, #0
 113              		.cfi_def_cfa_register 7
 114 0006 7860     		str	r0, [r7, #4]
  53:.\uart.c      ****     /* Host can send double SET_INTERFACE request. */
ARM GAS  C:\Users\LUKASC~1\AppData\Local\Temp\ccyN5Vyn.s 			page 4


  54:.\uart.c      ****     if (0u != USBUART_IsConfigurationChanged())
 115              		.loc 1 54 0
 116 0008 FFF7FEFF 		bl	USBUART_IsConfigurationChanged
 117 000c 0346     		mov	r3, r0
 118 000e 002B     		cmp	r3, #0
 119 0010 06D0     		beq	.L3
  55:.\uart.c      ****     {
  56:.\uart.c      ****         /* Initialize IN endpoints when device is configured. */
  57:.\uart.c      ****         if (0u != USBUART_GetConfiguration())
 120              		.loc 1 57 0
 121 0012 FFF7FEFF 		bl	USBUART_GetConfiguration
 122 0016 0346     		mov	r3, r0
 123 0018 002B     		cmp	r3, #0
 124 001a 01D0     		beq	.L3
  58:.\uart.c      ****         {
  59:.\uart.c      ****             /* Enumeration is done, enable OUT endpoint to receive data 
  60:.\uart.c      ****              * from host. */
  61:.\uart.c      ****             USBUART_CDC_Init();
 125              		.loc 1 61 0
 126 001c FFF7FEFF 		bl	USBUART_CDC_Init
 127              	.L3:
  62:.\uart.c      ****         }
  63:.\uart.c      ****     }
  64:.\uart.c      **** 
  65:.\uart.c      ****     /* Service USB CDC when device is configured. */
  66:.\uart.c      ****     if (0u != USBUART_GetConfiguration())
 128              		.loc 1 66 0
 129 0020 FFF7FEFF 		bl	USBUART_GetConfiguration
 130 0024 0346     		mov	r3, r0
 131 0026 002B     		cmp	r3, #0
 132 0028 08D0     		beq	.L2
  67:.\uart.c      ****     {
  68:.\uart.c      ****         /* Wait until component is ready to send data to host. */
  69:.\uart.c      ****         while (0u == USBUART_CDCIsReady())
 133              		.loc 1 69 0
 134 002a 00BF     		nop
 135              	.L5:
 136              		.loc 1 69 0 is_stmt 0 discriminator 1
 137 002c FFF7FEFF 		bl	USBUART_CDCIsReady
 138 0030 0346     		mov	r3, r0
 139 0032 002B     		cmp	r3, #0
 140 0034 FAD0     		beq	.L5
  70:.\uart.c      ****         {
  71:.\uart.c      ****         }
  72:.\uart.c      **** 
  73:.\uart.c      ****         /* Send data back to host. */
  74:.\uart.c      ****         //USBUART_PutData(buffer, count);
  75:.\uart.c      ****         USBUART_PutString(string);       
 141              		.loc 1 75 0 is_stmt 1
 142 0036 7868     		ldr	r0, [r7, #4]
 143 0038 FFF7FEFF 		bl	USBUART_PutString
 144              	.L2:
  76:.\uart.c      ****     }
  77:.\uart.c      **** }
 145              		.loc 1 77 0
 146 003c 0837     		adds	r7, r7, #8
 147              		.cfi_def_cfa_offset 8
ARM GAS  C:\Users\LUKASC~1\AppData\Local\Temp\ccyN5Vyn.s 			page 5


 148 003e BD46     		mov	sp, r7
 149              		.cfi_def_cfa_register 13
 150              		@ sp needed
 151 0040 80BD     		pop	{r7, pc}
 152              		.cfi_endproc
 153              	.LFE64:
 154              		.size	UARTsendString, .-UARTsendString
 155 0042 00BF     		.section	.rodata
 156 002e 0000     		.align	2
 157              	.LC8:
 158 0030 256C7500 		.ascii	"%lu\000"
 159              		.section	.text.UARTsendNumber,"ax",%progbits
 160              		.align	2
 161              		.global	UARTsendNumber
 162              		.thumb
 163              		.thumb_func
 164              		.type	UARTsendNumber, %function
 165              	UARTsendNumber:
 166              	.LFB65:
  78:.\uart.c      **** 
  79:.\uart.c      **** /*******************************************************************************
  80:.\uart.c      **** * Function Name: UARTsendNumber
  81:.\uart.c      **** ********************************************************************************
  82:.\uart.c      **** *
  83:.\uart.c      **** * Summary:
  84:.\uart.c      **** *  Sending a number via UART
  85:.\uart.c      **** *
  86:.\uart.c      **** * Parameters:
  87:.\uart.c      **** *  char string[]
  88:.\uart.c      **** *
  89:.\uart.c      **** * Return:
  90:.\uart.c      **** *  None.
  91:.\uart.c      **** *
  92:.\uart.c      **** *******************************************************************************/
  93:.\uart.c      **** void UARTsendNumber(uint32 number)
  94:.\uart.c      **** {
 167              		.loc 1 94 0
 168              		.cfi_startproc
 169              		@ args = 0, pretend = 0, frame = 64
 170              		@ frame_needed = 1, uses_anonymous_args = 0
 171 0000 80B5     		push	{r7, lr}
 172              		.cfi_def_cfa_offset 8
 173              		.cfi_offset 7, -8
 174              		.cfi_offset 14, -4
 175 0002 90B0     		sub	sp, sp, #64
 176              		.cfi_def_cfa_offset 72
 177 0004 00AF     		add	r7, sp, #0
 178              		.cfi_def_cfa_register 7
 179 0006 7860     		str	r0, [r7, #4]
  95:.\uart.c      ****     /* Host can send double SET_INTERFACE request. */
  96:.\uart.c      ****     if (0u != USBUART_IsConfigurationChanged())
 180              		.loc 1 96 0
 181 0008 FFF7FEFF 		bl	USBUART_IsConfigurationChanged
 182 000c 0346     		mov	r3, r0
 183 000e 002B     		cmp	r3, #0
 184 0010 06D0     		beq	.L7
  97:.\uart.c      ****     {
ARM GAS  C:\Users\LUKASC~1\AppData\Local\Temp\ccyN5Vyn.s 			page 6


  98:.\uart.c      ****         /* Initialize IN endpoints when device is configured. */
  99:.\uart.c      ****         if (0u != USBUART_GetConfiguration())
 185              		.loc 1 99 0
 186 0012 FFF7FEFF 		bl	USBUART_GetConfiguration
 187 0016 0346     		mov	r3, r0
 188 0018 002B     		cmp	r3, #0
 189 001a 01D0     		beq	.L7
 100:.\uart.c      ****         {
 101:.\uart.c      ****             /* Enumeration is done, enable OUT endpoint to receive data 
 102:.\uart.c      ****              * from host. */
 103:.\uart.c      ****             USBUART_CDC_Init();
 190              		.loc 1 103 0
 191 001c FFF7FEFF 		bl	USBUART_CDC_Init
 192              	.L7:
 104:.\uart.c      ****         }
 105:.\uart.c      ****     }
 106:.\uart.c      **** 
 107:.\uart.c      ****     /* Service USB CDC when device is configured. */
 108:.\uart.c      ****     if (0u != USBUART_GetConfiguration())
 193              		.loc 1 108 0
 194 0020 FFF7FEFF 		bl	USBUART_GetConfiguration
 195 0024 0346     		mov	r3, r0
 196 0026 002B     		cmp	r3, #0
 197 0028 28D0     		beq	.L6
 198              	.LBB2:
 109:.\uart.c      ****     {
 110:.\uart.c      ****         /* Wait until component is ready to send data to host. */
 111:.\uart.c      ****         while (0u == USBUART_CDCIsReady())
 199              		.loc 1 111 0
 200 002a 00BF     		nop
 201              	.L9:
 202              		.loc 1 111 0 is_stmt 0 discriminator 1
 203 002c FFF7FEFF 		bl	USBUART_CDCIsReady
 204 0030 0346     		mov	r3, r0
 205 0032 002B     		cmp	r3, #0
 206 0034 FAD0     		beq	.L9
 112:.\uart.c      ****         {
 113:.\uart.c      ****         }
 114:.\uart.c      **** 
 115:.\uart.c      ****         /* Send data back to host. */
 116:.\uart.c      ****         //USBUART_PutData(buffer, count);
 117:.\uart.c      ****         int bytesWritten; 
 118:.\uart.c      ****         char myString[50]; 
 119:.\uart.c      ****         bytesWritten = sprintf(myString, "%lu", number); 
 207              		.loc 1 119 0 is_stmt 1
 208 0036 07F10803 		add	r3, r7, #8
 209 003a 1846     		mov	r0, r3
 210 003c 1149     		ldr	r1, .L10
 211 003e 7A68     		ldr	r2, [r7, #4]
 212 0040 FFF7FEFF 		bl	sprintf
 213 0044 F863     		str	r0, [r7, #60]
 120:.\uart.c      ****         myString[bytesWritten]='\r';
 214              		.loc 1 120 0
 215 0046 07F10802 		add	r2, r7, #8
 216 004a FB6B     		ldr	r3, [r7, #60]
 217 004c 1344     		add	r3, r3, r2
 218 004e 0D22     		movs	r2, #13
ARM GAS  C:\Users\LUKASC~1\AppData\Local\Temp\ccyN5Vyn.s 			page 7


 219 0050 1A70     		strb	r2, [r3]
 121:.\uart.c      ****         myString[bytesWritten+1]='\n';
 220              		.loc 1 121 0
 221 0052 FB6B     		ldr	r3, [r7, #60]
 222 0054 0133     		adds	r3, r3, #1
 223 0056 07F14002 		add	r2, r7, #64
 224 005a 1344     		add	r3, r3, r2
 225 005c 0A22     		movs	r2, #10
 226 005e 03F8382C 		strb	r2, [r3, #-56]
 122:.\uart.c      ****         myString[bytesWritten+2]='\0';
 227              		.loc 1 122 0
 228 0062 FB6B     		ldr	r3, [r7, #60]
 229 0064 0233     		adds	r3, r3, #2
 230 0066 07F14002 		add	r2, r7, #64
 231 006a 1344     		add	r3, r3, r2
 232 006c 0022     		movs	r2, #0
 233 006e 03F8382C 		strb	r2, [r3, #-56]
 123:.\uart.c      ****         USBUART_PutString(myString);       
 234              		.loc 1 123 0
 235 0072 07F10803 		add	r3, r7, #8
 236 0076 1846     		mov	r0, r3
 237 0078 FFF7FEFF 		bl	USBUART_PutString
 238              	.L6:
 239              	.LBE2:
 124:.\uart.c      ****     }
 125:.\uart.c      **** }
 240              		.loc 1 125 0
 241 007c 4037     		adds	r7, r7, #64
 242              		.cfi_def_cfa_offset 8
 243 007e BD46     		mov	sp, r7
 244              		.cfi_def_cfa_register 13
 245              		@ sp needed
 246 0080 80BD     		pop	{r7, pc}
 247              	.L11:
 248 0082 00BF     		.align	2
 249              	.L10:
 250 0084 30000000 		.word	.LC8
 251              		.cfi_endproc
 252              	.LFE65:
 253              		.size	UARTsendNumber, .-UARTsendNumber
 254              		.text
 255              	.Letext0:
 256              		.file 2 "c:\\program files (x86)\\cypress\\psoc creator\\3.3\\psoc creator\\import\\gnu\\arm\\4.9.
 257              		.file 3 "c:\\program files (x86)\\cypress\\psoc creator\\3.3\\psoc creator\\import\\gnu\\arm\\4.9.
 258              		.file 4 "Generated_Source\\PSoC5/cytypes.h"
 259              		.file 5 "Generated_Source\\PSoC5/core_cm3.h"