ARM GAS  C:\Users\LUKASC~1\AppData\Local\Temp\ccEgAQpP.s 			page 1


   1              		.syntax unified
   2              		.cpu cortex-m3
   3              		.fpu softvfp
   4              		.eabi_attribute 20, 1
   5              		.eabi_attribute 21, 1
   6              		.eabi_attribute 23, 3
   7              		.eabi_attribute 24, 1
   8              		.eabi_attribute 25, 1
   9              		.eabi_attribute 26, 1
  10              		.eabi_attribute 30, 6
  11              		.eabi_attribute 34, 1
  12              		.eabi_attribute 18, 4
  13              		.thumb
  14              		.file	"USBFS.c"
  15              		.text
  16              	.Ltext0:
  17              		.cfi_sections	.debug_frame
  18              		.global	USBFS_initVar
  19              		.bss
  20              		.type	USBFS_initVar, %object
  21              		.size	USBFS_initVar, 1
  22              	USBFS_initVar:
  23 0000 00       		.space	1
  24              		.section	.text.USBFS_Start,"ax",%progbits
  25              		.align	2
  26              		.global	USBFS_Start
  27              		.thumb
  28              		.thumb_func
  29              		.type	USBFS_Start, %function
  30              	USBFS_Start:
  31              	.LFB0:
  32              		.file 1 ".\\Generated_Source\\PSoC5\\USBFS.c"
   1:.\Generated_Source\PSoC5/USBFS.c **** /***************************************************************************//**
   2:.\Generated_Source\PSoC5/USBFS.c **** * \file USBFS.c
   3:.\Generated_Source\PSoC5/USBFS.c **** * \version 3.0
   4:.\Generated_Source\PSoC5/USBFS.c **** *
   5:.\Generated_Source\PSoC5/USBFS.c **** * \brief
   6:.\Generated_Source\PSoC5/USBFS.c **** *  This file contains the global USBFS API functions.
   7:.\Generated_Source\PSoC5/USBFS.c **** *
   8:.\Generated_Source\PSoC5/USBFS.c **** * Note:
   9:.\Generated_Source\PSoC5/USBFS.c **** *  Many of the functions use an endpoint number. SRAM arrays are sized with 9
  10:.\Generated_Source\PSoC5/USBFS.c **** *  elements, so they are indexed directly by epNumber.  The SIE and ARB
  11:.\Generated_Source\PSoC5/USBFS.c **** *  registers are indexed by variations of epNumber - 1.
  12:.\Generated_Source\PSoC5/USBFS.c **** *
  13:.\Generated_Source\PSoC5/USBFS.c **** ********************************************************************************
  14:.\Generated_Source\PSoC5/USBFS.c **** * \copyright
  15:.\Generated_Source\PSoC5/USBFS.c **** * Copyright 2008-2015, Cypress Semiconductor Corporation.  All rights reserved.
  16:.\Generated_Source\PSoC5/USBFS.c **** * You may use this file only in accordance with the license, terms, conditions,
  17:.\Generated_Source\PSoC5/USBFS.c **** * disclaimers, and limitations in the end user license agreement accompanying
  18:.\Generated_Source\PSoC5/USBFS.c **** * the software package with which this file was provided.
  19:.\Generated_Source\PSoC5/USBFS.c **** *******************************************************************************/
  20:.\Generated_Source\PSoC5/USBFS.c **** 
  21:.\Generated_Source\PSoC5/USBFS.c **** #include "USBFS_pvt.h"
  22:.\Generated_Source\PSoC5/USBFS.c **** #include "USBFS_cydmac.h"
  23:.\Generated_Source\PSoC5/USBFS.c **** #include "USBFS_hid.h"
  24:.\Generated_Source\PSoC5/USBFS.c **** 
  25:.\Generated_Source\PSoC5/USBFS.c **** 
ARM GAS  C:\Users\LUKASC~1\AppData\Local\Temp\ccEgAQpP.s 			page 2


  26:.\Generated_Source\PSoC5/USBFS.c **** /***************************************
  27:.\Generated_Source\PSoC5/USBFS.c **** * Global data allocation
  28:.\Generated_Source\PSoC5/USBFS.c **** ***************************************/
  29:.\Generated_Source\PSoC5/USBFS.c **** 
  30:.\Generated_Source\PSoC5/USBFS.c **** /** Indicates whether the USBFS has been initialized. The variable is
  31:.\Generated_Source\PSoC5/USBFS.c **** * initialized to 0 after device reset and set to 1 the first time USBFS_Start()
  32:.\Generated_Source\PSoC5/USBFS.c **** * is called. This allows the Component to restart without reinitialization after
  33:.\Generated_Source\PSoC5/USBFS.c **** * the first call to the USBFS_Start() routine.
  34:.\Generated_Source\PSoC5/USBFS.c **** * If re-initialization of the Component is required, the variable should be set
  35:.\Generated_Source\PSoC5/USBFS.c **** * to 0 before the USBFS_Start() routine is called. Alternatively, the USBFS can
  36:.\Generated_Source\PSoC5/USBFS.c **** * be reinitialized by calling both USBFS_Init() and USBFS_InitComponent()
  37:.\Generated_Source\PSoC5/USBFS.c **** * functions.
  38:.\Generated_Source\PSoC5/USBFS.c **** */
  39:.\Generated_Source\PSoC5/USBFS.c **** uint8 USBFS_initVar = 0u;
  40:.\Generated_Source\PSoC5/USBFS.c **** 
  41:.\Generated_Source\PSoC5/USBFS.c **** #if (USBFS_EP_MANAGEMENT_DMA)
  42:.\Generated_Source\PSoC5/USBFS.c ****     #if (CY_PSOC4)
  43:.\Generated_Source\PSoC5/USBFS.c ****         static void USBFS_InitEpDma(void);
  44:.\Generated_Source\PSoC5/USBFS.c **** 
  45:.\Generated_Source\PSoC5/USBFS.c ****         /* DMA chanels assigend for endpoints. */
  46:.\Generated_Source\PSoC5/USBFS.c ****         const uint8 USBFS_DmaChan[USBFS_MAX_EP] =
  47:.\Generated_Source\PSoC5/USBFS.c ****         {
  48:.\Generated_Source\PSoC5/USBFS.c ****             0u,
  49:.\Generated_Source\PSoC5/USBFS.c ****             0u,
  50:.\Generated_Source\PSoC5/USBFS.c ****             0u,
  51:.\Generated_Source\PSoC5/USBFS.c ****             0u,
  52:.\Generated_Source\PSoC5/USBFS.c ****             0u,
  53:.\Generated_Source\PSoC5/USBFS.c ****             0u,
  54:.\Generated_Source\PSoC5/USBFS.c ****             0u,
  55:.\Generated_Source\PSoC5/USBFS.c ****             0u,
  56:.\Generated_Source\PSoC5/USBFS.c ****             0u,
  57:.\Generated_Source\PSoC5/USBFS.c ****         };        
  58:.\Generated_Source\PSoC5/USBFS.c ****     #else
  59:.\Generated_Source\PSoC5/USBFS.c ****         /* DMA chanels assigend for endpoints. */
  60:.\Generated_Source\PSoC5/USBFS.c ****         uint8 USBFS_DmaChan[USBFS_MAX_EP];
  61:.\Generated_Source\PSoC5/USBFS.c ****         
  62:.\Generated_Source\PSoC5/USBFS.c ****         /* DMA TDs require for PSoC 3/5LP operation. */
  63:.\Generated_Source\PSoC5/USBFS.c ****         uint8 USBFS_DmaTd[USBFS_MAX_EP];
  64:.\Generated_Source\PSoC5/USBFS.c ****     #endif /* (CY_PSOC4) */
  65:.\Generated_Source\PSoC5/USBFS.c **** #endif /* (USBFS_EP_MANAGEMENT_DMA) */
  66:.\Generated_Source\PSoC5/USBFS.c **** 
  67:.\Generated_Source\PSoC5/USBFS.c **** #if (USBFS_EP_MANAGEMENT_DMA_AUTO)
  68:.\Generated_Source\PSoC5/USBFS.c **** #if (CY_PSOC4)
  69:.\Generated_Source\PSoC5/USBFS.c ****     /* Number of DMA bursts. */
  70:.\Generated_Source\PSoC5/USBFS.c ****     uint8  USBFS_DmaEpBurstCnt   [USBFS_MAX_EP];
  71:.\Generated_Source\PSoC5/USBFS.c ****     
  72:.\Generated_Source\PSoC5/USBFS.c ****     /* Number of bytes to transfer in last DMA burst. */
  73:.\Generated_Source\PSoC5/USBFS.c ****     uint8  USBFS_DmaEpLastBurstEl[USBFS_MAX_EP];
  74:.\Generated_Source\PSoC5/USBFS.c **** 
  75:.\Generated_Source\PSoC5/USBFS.c ****     /* Storage for arrays above. */
  76:.\Generated_Source\PSoC5/USBFS.c ****     uint8  USBFS_DmaEpBurstCntBackup  [USBFS_MAX_EP];
  77:.\Generated_Source\PSoC5/USBFS.c ****     uint32 USBFS_DmaEpBufferAddrBackup[USBFS_MAX_EP];
  78:.\Generated_Source\PSoC5/USBFS.c ****      
  79:.\Generated_Source\PSoC5/USBFS.c ****     /* DMA trigger mux output for usb.dma_req[0-7]. */
  80:.\Generated_Source\PSoC5/USBFS.c ****     const uint8 USBFS_DmaReqOut[USBFS_MAX_EP] =
  81:.\Generated_Source\PSoC5/USBFS.c ****     {
  82:.\Generated_Source\PSoC5/USBFS.c ****         0u,
ARM GAS  C:\Users\LUKASC~1\AppData\Local\Temp\ccEgAQpP.s 			page 3


  83:.\Generated_Source\PSoC5/USBFS.c ****         USBFS_ep1_dma__TR_OUTPUT,
  84:.\Generated_Source\PSoC5/USBFS.c ****         0u,
  85:.\Generated_Source\PSoC5/USBFS.c ****         0u,
  86:.\Generated_Source\PSoC5/USBFS.c ****         0u,
  87:.\Generated_Source\PSoC5/USBFS.c ****         0u,
  88:.\Generated_Source\PSoC5/USBFS.c ****         USBFS_ep6_dma__TR_OUTPUT,
  89:.\Generated_Source\PSoC5/USBFS.c ****         0u,
  90:.\Generated_Source\PSoC5/USBFS.c ****         0u,
  91:.\Generated_Source\PSoC5/USBFS.c ****     };
  92:.\Generated_Source\PSoC5/USBFS.c **** 
  93:.\Generated_Source\PSoC5/USBFS.c ****     /* DMA trigger mux output for usb.dma_burstend[0-7]. */
  94:.\Generated_Source\PSoC5/USBFS.c ****     const uint8 USBFS_DmaBurstEndOut[USBFS_MAX_EP] =
  95:.\Generated_Source\PSoC5/USBFS.c ****     {
  96:.\Generated_Source\PSoC5/USBFS.c ****         0u,
  97:.\Generated_Source\PSoC5/USBFS.c ****         USBFS_BURSTEND_0_TR_OUTPUT,
  98:.\Generated_Source\PSoC5/USBFS.c ****         USBFS_BURSTEND_1_TR_OUTPUT,
  99:.\Generated_Source\PSoC5/USBFS.c ****         USBFS_BURSTEND_2_TR_OUTPUT,
 100:.\Generated_Source\PSoC5/USBFS.c ****         USBFS_BURSTEND_3_TR_OUTPUT,
 101:.\Generated_Source\PSoC5/USBFS.c ****         USBFS_BURSTEND_4_TR_OUTPUT,
 102:.\Generated_Source\PSoC5/USBFS.c ****         USBFS_BURSTEND_5_TR_OUTPUT,
 103:.\Generated_Source\PSoC5/USBFS.c ****         USBFS_BURSTEND_6_TR_OUTPUT,
 104:.\Generated_Source\PSoC5/USBFS.c ****         USBFS_BURSTEND_7_TR_OUTPUT
 105:.\Generated_Source\PSoC5/USBFS.c ****     };
 106:.\Generated_Source\PSoC5/USBFS.c ****     
 107:.\Generated_Source\PSoC5/USBFS.c **** #else
 108:.\Generated_Source\PSoC5/USBFS.c ****     #if (USBFS_EP_DMA_AUTO_OPT == 0u)
 109:.\Generated_Source\PSoC5/USBFS.c ****         static uint8 clearInDataRdyStatus = USBFS_ARB_EPX_CFG_DEFAULT;
 110:.\Generated_Source\PSoC5/USBFS.c ****         uint8 USBFS_DmaNextTd[USBFS_MAX_EP];
 111:.\Generated_Source\PSoC5/USBFS.c ****         const uint8 USBFS_epX_TD_TERMOUT_EN[USBFS_MAX_EP] =
 112:.\Generated_Source\PSoC5/USBFS.c ****         {
 113:.\Generated_Source\PSoC5/USBFS.c ****             0u,
 114:.\Generated_Source\PSoC5/USBFS.c ****             0u,
 115:.\Generated_Source\PSoC5/USBFS.c ****             0u,
 116:.\Generated_Source\PSoC5/USBFS.c ****             0u,
 117:.\Generated_Source\PSoC5/USBFS.c ****             0u,
 118:.\Generated_Source\PSoC5/USBFS.c ****             0u,
 119:.\Generated_Source\PSoC5/USBFS.c ****             0u,
 120:.\Generated_Source\PSoC5/USBFS.c ****             0u,
 121:.\Generated_Source\PSoC5/USBFS.c ****             0u,
 122:.\Generated_Source\PSoC5/USBFS.c ****         };
 123:.\Generated_Source\PSoC5/USBFS.c **** 
 124:.\Generated_Source\PSoC5/USBFS.c ****         volatile uint16 USBFS_inLength[USBFS_MAX_EP];
 125:.\Generated_Source\PSoC5/USBFS.c ****         const uint8 *USBFS_inDataPointer[USBFS_MAX_EP];
 126:.\Generated_Source\PSoC5/USBFS.c ****         volatile uint8 USBFS_inBufFull[USBFS_MAX_EP];
 127:.\Generated_Source\PSoC5/USBFS.c ****     #endif /* (USBFS_EP_DMA_AUTO_OPT == 0u) */
 128:.\Generated_Source\PSoC5/USBFS.c **** #endif /* (CY_PSOC4) */
 129:.\Generated_Source\PSoC5/USBFS.c **** #endif /* (USBFS_EP_MANAGEMENT_DMA_AUTO) */
 130:.\Generated_Source\PSoC5/USBFS.c **** 
 131:.\Generated_Source\PSoC5/USBFS.c **** 
 132:.\Generated_Source\PSoC5/USBFS.c **** /*******************************************************************************
 133:.\Generated_Source\PSoC5/USBFS.c **** * Function Name: USBFS_Start
 134:.\Generated_Source\PSoC5/USBFS.c **** ****************************************************************************//**
 135:.\Generated_Source\PSoC5/USBFS.c **** *
 136:.\Generated_Source\PSoC5/USBFS.c **** *   This function performs all required initialization for the USBFS component.
 137:.\Generated_Source\PSoC5/USBFS.c **** *   After this function call, the USB device initiates communication with the
 138:.\Generated_Source\PSoC5/USBFS.c **** *   host by pull-up D+ line. This is the preferred method to begin component
 139:.\Generated_Source\PSoC5/USBFS.c **** *   operation.
ARM GAS  C:\Users\LUKASC~1\AppData\Local\Temp\ccEgAQpP.s 			page 4


 140:.\Generated_Source\PSoC5/USBFS.c **** *
 141:.\Generated_Source\PSoC5/USBFS.c **** *   Note that global interrupts have to be enabled because interrupts are
 142:.\Generated_Source\PSoC5/USBFS.c **** *   required for USBFS component operation.
 143:.\Generated_Source\PSoC5/USBFS.c **** *
 144:.\Generated_Source\PSoC5/USBFS.c **** *   PSoC 4200L devices: when USBFS component configured to DMA with Automatic
 145:.\Generated_Source\PSoC5/USBFS.c **** *   Buffer Management, the DMA interrupt priority is changed to the highest
 146:.\Generated_Source\PSoC5/USBFS.c **** *   (priority 0) inside this function.
 147:.\Generated_Source\PSoC5/USBFS.c **** *
 148:.\Generated_Source\PSoC5/USBFS.c **** *   PSoC 3/PSoC 5LP devices: when USBFS component configured to DMA with
 149:.\Generated_Source\PSoC5/USBFS.c **** *   Automatic Buffer Management, the Arbiter interrupt priority is changed to
 150:.\Generated_Source\PSoC5/USBFS.c **** *   the highest (priority 0) inside this function.
 151:.\Generated_Source\PSoC5/USBFS.c **** *
 152:.\Generated_Source\PSoC5/USBFS.c **** *  \param device
 153:.\Generated_Source\PSoC5/USBFS.c **** *          Contains the device number of the desired device descriptor.
 154:.\Generated_Source\PSoC5/USBFS.c **** *          The device number can be found in the Device Descriptor Tab of
 155:.\Generated_Source\PSoC5/USBFS.c **** *          "Configure" dialog, under the settings of desired Device Descriptor,
 156:.\Generated_Source\PSoC5/USBFS.c **** *          in the "Device Number" field.
 157:.\Generated_Source\PSoC5/USBFS.c **** *  \param mode:
 158:.\Generated_Source\PSoC5/USBFS.c **** *   The operating voltage. This determines whether the voltage regulator
 159:.\Generated_Source\PSoC5/USBFS.c **** *   is enabled for 5V operation or if pass through mode is used for 3.3V
 160:.\Generated_Source\PSoC5/USBFS.c **** *   operation. Symbolic names and their associated values are given in the
 161:.\Generated_Source\PSoC5/USBFS.c **** *   following list.
 162:.\Generated_Source\PSoC5/USBFS.c **** *
 163:.\Generated_Source\PSoC5/USBFS.c **** *       *USBFS_3V_OPERATION* - Disable voltage regulator and pass-
 164:.\Generated_Source\PSoC5/USBFS.c **** *                                      through Vcc for pull-up
 165:.\Generated_Source\PSoC5/USBFS.c **** *
 166:.\Generated_Source\PSoC5/USBFS.c **** *       *USBFS_5V_OPERATION* - Enable voltage regulator and use
 167:.\Generated_Source\PSoC5/USBFS.c **** *                                      regulator for pull-up
 168:.\Generated_Source\PSoC5/USBFS.c **** *
 169:.\Generated_Source\PSoC5/USBFS.c **** *       *USBFS_DWR_POWER_OPERATION* - Enable or disable the voltage
 170:.\Generated_Source\PSoC5/USBFS.c **** *                                      regulator depending on the power supply
 171:.\Generated_Source\PSoC5/USBFS.c **** *                                      voltage configuration in the DWR tab.
 172:.\Generated_Source\PSoC5/USBFS.c **** *                                      For PSoC 3/5LP devices, the VDDD supply
 173:.\Generated_Source\PSoC5/USBFS.c **** *                                      voltage is considered and for PSoC 4A-L,
 174:.\Generated_Source\PSoC5/USBFS.c **** *                                      the VBUS supply voltage is considered.*
 175:.\Generated_Source\PSoC5/USBFS.c **** * \globalvars
 176:.\Generated_Source\PSoC5/USBFS.c **** *  \ref USBFS_initVar
 177:.\Generated_Source\PSoC5/USBFS.c **** *
 178:.\Generated_Source\PSoC5/USBFS.c **** * \sideeffect
 179:.\Generated_Source\PSoC5/USBFS.c **** *   This function will reset all communication states to default.
 180:.\Generated_Source\PSoC5/USBFS.c **** *
 181:.\Generated_Source\PSoC5/USBFS.c **** * \reentrant
 182:.\Generated_Source\PSoC5/USBFS.c **** *  No.
 183:.\Generated_Source\PSoC5/USBFS.c **** *
 184:.\Generated_Source\PSoC5/USBFS.c **** *******************************************************************************/
 185:.\Generated_Source\PSoC5/USBFS.c **** void USBFS_Start(uint8 device, uint8 mode) 
 186:.\Generated_Source\PSoC5/USBFS.c **** {
  33              		.loc 1 186 0
  34              		.cfi_startproc
  35              		@ args = 0, pretend = 0, frame = 8
  36              		@ frame_needed = 1, uses_anonymous_args = 0
  37 0000 80B5     		push	{r7, lr}
  38              		.cfi_def_cfa_offset 8
  39              		.cfi_offset 7, -8
  40              		.cfi_offset 14, -4
  41 0002 82B0     		sub	sp, sp, #8
  42              		.cfi_def_cfa_offset 16
ARM GAS  C:\Users\LUKASC~1\AppData\Local\Temp\ccEgAQpP.s 			page 5


  43 0004 00AF     		add	r7, sp, #0
  44              		.cfi_def_cfa_register 7
  45 0006 0346     		mov	r3, r0
  46 0008 0A46     		mov	r2, r1
  47 000a FB71     		strb	r3, [r7, #7]
  48 000c 1346     		mov	r3, r2
  49 000e BB71     		strb	r3, [r7, #6]
 187:.\Generated_Source\PSoC5/USBFS.c ****     if (0u == USBFS_initVar)
  50              		.loc 1 187 0
  51 0010 084B     		ldr	r3, .L3
  52 0012 1B78     		ldrb	r3, [r3]	@ zero_extendqisi2
  53 0014 002B     		cmp	r3, #0
  54 0016 04D1     		bne	.L2
 188:.\Generated_Source\PSoC5/USBFS.c ****     {
 189:.\Generated_Source\PSoC5/USBFS.c ****         USBFS_Init();
  55              		.loc 1 189 0
  56 0018 FFF7FEFF 		bl	USBFS_Init
 190:.\Generated_Source\PSoC5/USBFS.c ****         USBFS_initVar = 1u;
  57              		.loc 1 190 0
  58 001c 054B     		ldr	r3, .L3
  59 001e 0122     		movs	r2, #1
  60 0020 1A70     		strb	r2, [r3]
  61              	.L2:
 191:.\Generated_Source\PSoC5/USBFS.c ****     }
 192:.\Generated_Source\PSoC5/USBFS.c **** 
 193:.\Generated_Source\PSoC5/USBFS.c ****     USBFS_InitComponent(device, mode);
  62              		.loc 1 193 0
  63 0022 FA79     		ldrb	r2, [r7, #7]	@ zero_extendqisi2
  64 0024 BB79     		ldrb	r3, [r7, #6]	@ zero_extendqisi2
  65 0026 1046     		mov	r0, r2
  66 0028 1946     		mov	r1, r3
  67 002a FFF7FEFF 		bl	USBFS_InitComponent
 194:.\Generated_Source\PSoC5/USBFS.c **** }
  68              		.loc 1 194 0
  69 002e 0837     		adds	r7, r7, #8
  70              		.cfi_def_cfa_offset 8
  71 0030 BD46     		mov	sp, r7
  72              		.cfi_def_cfa_register 13
  73              		@ sp needed
  74 0032 80BD     		pop	{r7, pc}
  75              	.L4:
  76              		.align	2
  77              	.L3:
  78 0034 00000000 		.word	USBFS_initVar
  79              		.cfi_endproc
  80              	.LFE0:
  81              		.size	USBFS_Start, .-USBFS_Start
  82              		.section	.text.USBFS_Init,"ax",%progbits
  83              		.align	2
  84              		.global	USBFS_Init
  85              		.thumb
  86              		.thumb_func
  87              		.type	USBFS_Init, %function
  88              	USBFS_Init:
  89              	.LFB1:
 195:.\Generated_Source\PSoC5/USBFS.c **** 
 196:.\Generated_Source\PSoC5/USBFS.c **** 
ARM GAS  C:\Users\LUKASC~1\AppData\Local\Temp\ccEgAQpP.s 			page 6


 197:.\Generated_Source\PSoC5/USBFS.c **** /*******************************************************************************
 198:.\Generated_Source\PSoC5/USBFS.c **** * Function Name: USBFS_Init
 199:.\Generated_Source\PSoC5/USBFS.c **** ****************************************************************************//**
 200:.\Generated_Source\PSoC5/USBFS.c **** *
 201:.\Generated_Source\PSoC5/USBFS.c **** * This function initializes or restores the component according to the
 202:.\Generated_Source\PSoC5/USBFS.c **** * customizer Configure dialog settings. It is not necessary to call
 203:.\Generated_Source\PSoC5/USBFS.c **** * USBFS_Init() because the USBFS_Start() routine calls
 204:.\Generated_Source\PSoC5/USBFS.c **** * this function and is the preferred method to begin component operation.
 205:.\Generated_Source\PSoC5/USBFS.c **** *
 206:.\Generated_Source\PSoC5/USBFS.c **** * \reentrant
 207:.\Generated_Source\PSoC5/USBFS.c **** *  No.
 208:.\Generated_Source\PSoC5/USBFS.c **** *
 209:.\Generated_Source\PSoC5/USBFS.c **** *******************************************************************************/
 210:.\Generated_Source\PSoC5/USBFS.c **** void USBFS_Init(void) 
 211:.\Generated_Source\PSoC5/USBFS.c **** {
  90              		.loc 1 211 0
  91              		.cfi_startproc
  92              		@ args = 0, pretend = 0, frame = 8
  93              		@ frame_needed = 1, uses_anonymous_args = 0
  94 0000 80B5     		push	{r7, lr}
  95              		.cfi_def_cfa_offset 8
  96              		.cfi_offset 7, -8
  97              		.cfi_offset 14, -4
  98 0002 82B0     		sub	sp, sp, #8
  99              		.cfi_def_cfa_offset 16
 100 0004 00AF     		add	r7, sp, #0
 101              		.cfi_def_cfa_register 7
 212:.\Generated_Source\PSoC5/USBFS.c **** #if (CY_PSOC4)
 213:.\Generated_Source\PSoC5/USBFS.c ****     /* Enable clock to USB IP. */
 214:.\Generated_Source\PSoC5/USBFS.c ****     USBFS_USB_CLK_EN_REG = USBFS_USB_CLK_CSR_CLK_EN;
 215:.\Generated_Source\PSoC5/USBFS.c **** 
 216:.\Generated_Source\PSoC5/USBFS.c ****     /* The internal regulator (CR1.REG_ENABLE) is enabled in
 217:.\Generated_Source\PSoC5/USBFS.c ****     * USBFS_InitComponent() if it is required.
 218:.\Generated_Source\PSoC5/USBFS.c ****     */
 219:.\Generated_Source\PSoC5/USBFS.c **** 
 220:.\Generated_Source\PSoC5/USBFS.c ****     /* Enable USBIO control on drive mode of D+ and D- pins. */
 221:.\Generated_Source\PSoC5/USBFS.c ****     USBFS_USBIO_CR1_REG &= ~ (uint32) USBFS_USBIO_CR1_IOMODE;
 222:.\Generated_Source\PSoC5/USBFS.c **** 
 223:.\Generated_Source\PSoC5/USBFS.c ****     /* Set number of LF CLK to detect UBS bus reset. */
 224:.\Generated_Source\PSoC5/USBFS.c ****     USBFS_BUS_RST_CNT_REG = USBFS_DEFUALT_BUS_RST_CNT;
 225:.\Generated_Source\PSoC5/USBFS.c **** 
 226:.\Generated_Source\PSoC5/USBFS.c ****     /* Select VBUS detection source and clear PHY isolate. The application level
 227:.\Generated_Source\PSoC5/USBFS.c ****     * must ensure that VBUS is valid. There is no need to wait 2us before VBUS is valid.
 228:.\Generated_Source\PSoC5/USBFS.c ****     */
 229:.\Generated_Source\PSoC5/USBFS.c ****     USBFS_POWER_CTRL_REG = USBFS_DEFAULT_POWER_CTRL_VBUS;
 230:.\Generated_Source\PSoC5/USBFS.c **** 
 231:.\Generated_Source\PSoC5/USBFS.c ****     /* Enable PHY detector and single-ended and differential receivers. */
 232:.\Generated_Source\PSoC5/USBFS.c ****     USBFS_POWER_CTRL_REG |= USBFS_DEFAULT_POWER_CTRL_PHY;
 233:.\Generated_Source\PSoC5/USBFS.c **** 
 234:.\Generated_Source\PSoC5/USBFS.c ****     /* Suspend clear sequence. */
 235:.\Generated_Source\PSoC5/USBFS.c ****     USBFS_POWER_CTRL_REG &= (uint32) ~USBFS_POWER_CTRL_SUSPEND;
 236:.\Generated_Source\PSoC5/USBFS.c ****     CyDelayUs(USBFS_WAIT_SUSPEND_DEL_DISABLE);
 237:.\Generated_Source\PSoC5/USBFS.c ****     USBFS_POWER_CTRL_REG &= (uint32) ~USBFS_POWER_CTRL_SUSPEND_DEL;
 238:.\Generated_Source\PSoC5/USBFS.c **** 
 239:.\Generated_Source\PSoC5/USBFS.c ****     /* Sets IMO lock options and clear all other bits. */
 240:.\Generated_Source\PSoC5/USBFS.c ****     USBFS_CR1_REG = USBFS_DEFUALT_CR1;
 241:.\Generated_Source\PSoC5/USBFS.c **** 
ARM GAS  C:\Users\LUKASC~1\AppData\Local\Temp\ccEgAQpP.s 			page 7


 242:.\Generated_Source\PSoC5/USBFS.c ****     /* Configure level (hi, lo, med) for each interrupt source. */
 243:.\Generated_Source\PSoC5/USBFS.c ****     USBFS_INTR_LVL_SEL_REG = USBFS_DEFAULT_INTR_LVL_SEL;
 244:.\Generated_Source\PSoC5/USBFS.c **** 
 245:.\Generated_Source\PSoC5/USBFS.c ****     /* Configure interrupt sources from: SOF, Bus Reset and EP0. */
 246:.\Generated_Source\PSoC5/USBFS.c ****     USBFS_INTR_SIE_MASK_REG = USBFS_DEFAULT_INTR_SIE_MASK;
 247:.\Generated_Source\PSoC5/USBFS.c **** 
 248:.\Generated_Source\PSoC5/USBFS.c **** #else
 249:.\Generated_Source\PSoC5/USBFS.c ****     uint8 enableInterrupts = CyEnterCriticalSection();
 102              		.loc 1 249 0
 103 0006 FFF7FEFF 		bl	CyEnterCriticalSection
 104 000a 0346     		mov	r3, r0
 105 000c FB71     		strb	r3, [r7, #7]
 250:.\Generated_Source\PSoC5/USBFS.c **** 
 251:.\Generated_Source\PSoC5/USBFS.c **** #if (USBFS_EP_MANAGEMENT_DMA)
 252:.\Generated_Source\PSoC5/USBFS.c ****     uint16 i;
 253:.\Generated_Source\PSoC5/USBFS.c **** #endif /* (USBFS_EP_MANAGEMENT_DMA) */
 254:.\Generated_Source\PSoC5/USBFS.c **** 
 255:.\Generated_Source\PSoC5/USBFS.c ****     /* Enable USB block. */
 256:.\Generated_Source\PSoC5/USBFS.c ****     USBFS_PM_ACT_CFG_REG |= USBFS_PM_ACT_EN_FSUSB;
 106              		.loc 1 256 0
 107 000e 4B4A     		ldr	r2, .L6
 108 0010 4A4B     		ldr	r3, .L6
 109 0012 1B78     		ldrb	r3, [r3]
 110 0014 DBB2     		uxtb	r3, r3
 111 0016 43F00103 		orr	r3, r3, #1
 112 001a DBB2     		uxtb	r3, r3
 113 001c 1370     		strb	r3, [r2]
 257:.\Generated_Source\PSoC5/USBFS.c ****     /* Enable USB block for Standby Power Mode. */
 258:.\Generated_Source\PSoC5/USBFS.c ****     USBFS_PM_STBY_CFG_REG |= USBFS_PM_STBY_EN_FSUSB;
 114              		.loc 1 258 0
 115 001e 484A     		ldr	r2, .L6+4
 116 0020 474B     		ldr	r3, .L6+4
 117 0022 1B78     		ldrb	r3, [r3]
 118 0024 DBB2     		uxtb	r3, r3
 119 0026 43F00103 		orr	r3, r3, #1
 120 002a DBB2     		uxtb	r3, r3
 121 002c 1370     		strb	r3, [r2]
 259:.\Generated_Source\PSoC5/USBFS.c **** 
 260:.\Generated_Source\PSoC5/USBFS.c ****     /* Enable core clock. */
 261:.\Generated_Source\PSoC5/USBFS.c ****     USBFS_USB_CLK_EN_REG = USBFS_USB_CLK_ENABLE;
 122              		.loc 1 261 0
 123 002e 454B     		ldr	r3, .L6+8
 124 0030 0122     		movs	r2, #1
 125 0032 1A70     		strb	r2, [r3]
 262:.\Generated_Source\PSoC5/USBFS.c **** 
 263:.\Generated_Source\PSoC5/USBFS.c ****     USBFS_CR1_REG = USBFS_CR1_ENABLE_LOCK;
 126              		.loc 1 263 0
 127 0034 444B     		ldr	r3, .L6+12
 128 0036 0222     		movs	r2, #2
 129 0038 1A70     		strb	r2, [r3]
 264:.\Generated_Source\PSoC5/USBFS.c **** 
 265:.\Generated_Source\PSoC5/USBFS.c ****     /* ENABLING USBIO PADS IN USB MODE FROM I/O MODE. */
 266:.\Generated_Source\PSoC5/USBFS.c ****     /* Ensure USB transmit enable is low (USB_USBIO_CR0.ten). - Manual Transmission - Disabled. */
 267:.\Generated_Source\PSoC5/USBFS.c ****     USBFS_USBIO_CR0_REG &= (uint8) ~USBFS_USBIO_CR0_TEN;
 130              		.loc 1 267 0
 131 003a 444A     		ldr	r2, .L6+16
 132 003c 434B     		ldr	r3, .L6+16
ARM GAS  C:\Users\LUKASC~1\AppData\Local\Temp\ccEgAQpP.s 			page 8


 133 003e 1B78     		ldrb	r3, [r3]
 134 0040 DBB2     		uxtb	r3, r3
 135 0042 03F07F03 		and	r3, r3, #127
 136 0046 DBB2     		uxtb	r3, r3
 137 0048 1370     		strb	r3, [r2]
 268:.\Generated_Source\PSoC5/USBFS.c ****     CyDelayUs(USBFS_WAIT_REG_STABILITY_50NS);  /* ~50ns delay. */
 138              		.loc 1 268 0
 139 004a 0020     		movs	r0, #0
 140 004c FFF7FEFF 		bl	CyDelayUs
 269:.\Generated_Source\PSoC5/USBFS.c ****     /* Disable USBIO by asserting PM.USB_CR0.fsusbio_pd_n(Inverted.
 270:.\Generated_Source\PSoC5/USBFS.c ****     *  high. These bits will be set low by the power manager out-of-reset.
 271:.\Generated_Source\PSoC5/USBFS.c ****     *  Also confirm USBIO pull-up is disabled.
 272:.\Generated_Source\PSoC5/USBFS.c ****     */
 273:.\Generated_Source\PSoC5/USBFS.c ****     USBFS_PM_USB_CR0_REG &= (uint8) ~(USBFS_PM_USB_CR0_PD_N |
 141              		.loc 1 273 0
 142 0050 3F4A     		ldr	r2, .L6+20
 143 0052 3F4B     		ldr	r3, .L6+20
 144 0054 1B78     		ldrb	r3, [r3]
 145 0056 DBB2     		uxtb	r3, r3
 146 0058 23F00603 		bic	r3, r3, #6
 147 005c DBB2     		uxtb	r3, r3
 148 005e 1370     		strb	r3, [r2]
 274:.\Generated_Source\PSoC5/USBFS.c ****                                                  USBFS_PM_USB_CR0_PD_PULLUP_N);
 275:.\Generated_Source\PSoC5/USBFS.c **** 
 276:.\Generated_Source\PSoC5/USBFS.c ****     /* Select IOMODE to USB mode. */
 277:.\Generated_Source\PSoC5/USBFS.c ****     USBFS_USBIO_CR1_REG &= (uint8) ~USBFS_USBIO_CR1_IOMODE;
 149              		.loc 1 277 0
 150 0060 3C4A     		ldr	r2, .L6+24
 151 0062 3C4B     		ldr	r3, .L6+24
 152 0064 1B78     		ldrb	r3, [r3]
 153 0066 DBB2     		uxtb	r3, r3
 154 0068 23F02003 		bic	r3, r3, #32
 155 006c DBB2     		uxtb	r3, r3
 156 006e 1370     		strb	r3, [r2]
 278:.\Generated_Source\PSoC5/USBFS.c **** 
 279:.\Generated_Source\PSoC5/USBFS.c ****     /* Enable USBIO reference by setting PM.USB_CR0.fsusbio_ref_en. */
 280:.\Generated_Source\PSoC5/USBFS.c ****     USBFS_PM_USB_CR0_REG |= USBFS_PM_USB_CR0_REF_EN;
 157              		.loc 1 280 0
 158 0070 374A     		ldr	r2, .L6+20
 159 0072 374B     		ldr	r3, .L6+20
 160 0074 1B78     		ldrb	r3, [r3]
 161 0076 DBB2     		uxtb	r3, r3
 162 0078 43F00103 		orr	r3, r3, #1
 163 007c DBB2     		uxtb	r3, r3
 164 007e 1370     		strb	r3, [r2]
 281:.\Generated_Source\PSoC5/USBFS.c ****     /* Reference is available for 1us after regulator is enabled. */
 282:.\Generated_Source\PSoC5/USBFS.c ****     CyDelayUs(USBFS_WAIT_REG_STABILITY_1US);
 165              		.loc 1 282 0
 166 0080 0120     		movs	r0, #1
 167 0082 FFF7FEFF 		bl	CyDelayUs
 283:.\Generated_Source\PSoC5/USBFS.c ****     /* OR 40us after power is restored. */
 284:.\Generated_Source\PSoC5/USBFS.c ****     CyDelayUs(USBFS_WAIT_VREF_RESTORE);
 168              		.loc 1 284 0
 169 0086 2820     		movs	r0, #40
 170 0088 FFF7FEFF 		bl	CyDelayUs
 285:.\Generated_Source\PSoC5/USBFS.c ****     /* Ensure single-ended disable bits are low (PRT15.INP_DIS[7:6])(input receiver enabled). */
 286:.\Generated_Source\PSoC5/USBFS.c ****     USBFS_DM_INP_DIS_REG &= (uint8) ~USBFS_DM_MASK;
ARM GAS  C:\Users\LUKASC~1\AppData\Local\Temp\ccEgAQpP.s 			page 9


 171              		.loc 1 286 0
 172 008c 324A     		ldr	r2, .L6+28
 173 008e 324B     		ldr	r3, .L6+28
 174 0090 1B78     		ldrb	r3, [r3]
 175 0092 DBB2     		uxtb	r3, r3
 176 0094 03F07F03 		and	r3, r3, #127
 177 0098 DBB2     		uxtb	r3, r3
 178 009a 1370     		strb	r3, [r2]
 287:.\Generated_Source\PSoC5/USBFS.c ****     USBFS_DP_INP_DIS_REG &= (uint8) ~USBFS_DP_MASK;
 179              		.loc 1 287 0
 180 009c 2E4A     		ldr	r2, .L6+28
 181 009e 2E4B     		ldr	r3, .L6+28
 182 00a0 1B78     		ldrb	r3, [r3]
 183 00a2 DBB2     		uxtb	r3, r3
 184 00a4 23F04003 		bic	r3, r3, #64
 185 00a8 DBB2     		uxtb	r3, r3
 186 00aa 1370     		strb	r3, [r2]
 288:.\Generated_Source\PSoC5/USBFS.c **** 
 289:.\Generated_Source\PSoC5/USBFS.c ****     /* Enable USBIO. */
 290:.\Generated_Source\PSoC5/USBFS.c ****     USBFS_PM_USB_CR0_REG |= USBFS_PM_USB_CR0_PD_N;
 187              		.loc 1 290 0
 188 00ac 284A     		ldr	r2, .L6+20
 189 00ae 284B     		ldr	r3, .L6+20
 190 00b0 1B78     		ldrb	r3, [r3]
 191 00b2 DBB2     		uxtb	r3, r3
 192 00b4 43F00203 		orr	r3, r3, #2
 193 00b8 DBB2     		uxtb	r3, r3
 194 00ba 1370     		strb	r3, [r2]
 291:.\Generated_Source\PSoC5/USBFS.c ****     CyDelayUs(USBFS_WAIT_PD_PULLUP_N_ENABLE);
 195              		.loc 1 291 0
 196 00bc 0220     		movs	r0, #2
 197 00be FFF7FEFF 		bl	CyDelayUs
 292:.\Generated_Source\PSoC5/USBFS.c ****     /* Set USBIO pull-up enable. */
 293:.\Generated_Source\PSoC5/USBFS.c ****     USBFS_PM_USB_CR0_REG |= USBFS_PM_USB_CR0_PD_PULLUP_N;
 198              		.loc 1 293 0
 199 00c2 234A     		ldr	r2, .L6+20
 200 00c4 224B     		ldr	r3, .L6+20
 201 00c6 1B78     		ldrb	r3, [r3]
 202 00c8 DBB2     		uxtb	r3, r3
 203 00ca 43F00403 		orr	r3, r3, #4
 204 00ce DBB2     		uxtb	r3, r3
 205 00d0 1370     		strb	r3, [r2]
 294:.\Generated_Source\PSoC5/USBFS.c **** 
 295:.\Generated_Source\PSoC5/USBFS.c ****     /* Reset Arbiter Write Address register for endpoint 1. */
 296:.\Generated_Source\PSoC5/USBFS.c ****     CY_SET_REG8(USBFS_ARB_RW1_WA_PTR,     0u);
 206              		.loc 1 296 0
 207 00d2 224B     		ldr	r3, .L6+32
 208 00d4 0022     		movs	r2, #0
 209 00d6 1A70     		strb	r2, [r3]
 297:.\Generated_Source\PSoC5/USBFS.c ****     CY_SET_REG8(USBFS_ARB_RW1_WA_MSB_PTR, 0u);
 210              		.loc 1 297 0
 211 00d8 214B     		ldr	r3, .L6+36
 212 00da 0022     		movs	r2, #0
 213 00dc 1A70     		strb	r2, [r3]
 298:.\Generated_Source\PSoC5/USBFS.c **** 
 299:.\Generated_Source\PSoC5/USBFS.c **** #if (USBFS_EP_MANAGEMENT_DMA)
 300:.\Generated_Source\PSoC5/USBFS.c ****     /* Initialize transfer descriptor. This will be used to detect DMA state - initialized or not. 
ARM GAS  C:\Users\LUKASC~1\AppData\Local\Temp\ccEgAQpP.s 			page 10


 301:.\Generated_Source\PSoC5/USBFS.c ****     for (i = 0u; i < USBFS_MAX_EP; ++i)
 302:.\Generated_Source\PSoC5/USBFS.c ****     {
 303:.\Generated_Source\PSoC5/USBFS.c ****         USBFS_DmaTd[i] = DMA_INVALID_TD;
 304:.\Generated_Source\PSoC5/USBFS.c **** 
 305:.\Generated_Source\PSoC5/USBFS.c ****     #if (USBFS_EP_MANAGEMENT_DMA_AUTO && (USBFS_EP_DMA_AUTO_OPT == 0u))
 306:.\Generated_Source\PSoC5/USBFS.c ****         USBFS_DmaNextTd[i] = DMA_INVALID_TD;
 307:.\Generated_Source\PSoC5/USBFS.c ****     #endif /* (USBFS_EP_MANAGEMENT_DMA_AUTO && (USBFS_EP_DMA_AUTO_OPT == 0u)) */
 308:.\Generated_Source\PSoC5/USBFS.c ****     }
 309:.\Generated_Source\PSoC5/USBFS.c **** #endif /* (USBFS_EP_MANAGEMENT_DMA) */
 310:.\Generated_Source\PSoC5/USBFS.c **** 
 311:.\Generated_Source\PSoC5/USBFS.c ****     CyExitCriticalSection(enableInterrupts);
 214              		.loc 1 311 0
 215 00de FB79     		ldrb	r3, [r7, #7]	@ zero_extendqisi2
 216 00e0 1846     		mov	r0, r3
 217 00e2 FFF7FEFF 		bl	CyExitCriticalSection
 312:.\Generated_Source\PSoC5/USBFS.c **** #endif /* (CY_PSOC4) */
 313:.\Generated_Source\PSoC5/USBFS.c **** 
 314:.\Generated_Source\PSoC5/USBFS.c ****     /* Configure interrupts from USB block. */
 315:.\Generated_Source\PSoC5/USBFS.c **** #if (CY_PSOC4)
 316:.\Generated_Source\PSoC5/USBFS.c ****     /* Configure hi_int: set handler and priority. */
 317:.\Generated_Source\PSoC5/USBFS.c ****     CyIntSetPriority     (USBFS_INTR_HI_VECT_NUM,  USBFS_INTR_HI_PRIORITY);
 318:.\Generated_Source\PSoC5/USBFS.c ****     (void) CyIntSetVector(USBFS_INTR_HI_VECT_NUM, &USBFS_INTR_HI_ISR);
 319:.\Generated_Source\PSoC5/USBFS.c **** 
 320:.\Generated_Source\PSoC5/USBFS.c ****     /* Configure lo_int: set handler and priority. */
 321:.\Generated_Source\PSoC5/USBFS.c ****     CyIntSetPriority     (USBFS_INTR_LO_VECT_NUM,  USBFS_INTR_LO_PRIORITY);
 322:.\Generated_Source\PSoC5/USBFS.c ****     (void) CyIntSetVector(USBFS_INTR_LO_VECT_NUM, &USBFS_INTR_LO_ISR);
 323:.\Generated_Source\PSoC5/USBFS.c **** 
 324:.\Generated_Source\PSoC5/USBFS.c ****     /* Configure med_int: set handler and priority (routed through DSI). */
 325:.\Generated_Source\PSoC5/USBFS.c ****     CyIntSetPriority     (USBFS_INTR_MED_VECT_NUM,  USBFS_INTR_MED_PRIORITY);
 326:.\Generated_Source\PSoC5/USBFS.c ****     (void) CyIntSetVector(USBFS_INTR_MED_VECT_NUM, &USBFS_INTR_MED_ISR);
 327:.\Generated_Source\PSoC5/USBFS.c **** 
 328:.\Generated_Source\PSoC5/USBFS.c **** #else
 329:.\Generated_Source\PSoC5/USBFS.c ****     /* Set bus reset interrupt. */
 330:.\Generated_Source\PSoC5/USBFS.c ****     CyIntSetPriority(USBFS_BUS_RESET_VECT_NUM, USBFS_BUS_RESET_PRIOR);
 218              		.loc 1 330 0
 219 00e6 1720     		movs	r0, #23
 220 00e8 0721     		movs	r1, #7
 221 00ea FFF7FEFF 		bl	CyIntSetPriority
 331:.\Generated_Source\PSoC5/USBFS.c ****     (void) CyIntSetVector(USBFS_BUS_RESET_VECT_NUM,   &USBFS_BUS_RESET_ISR);
 222              		.loc 1 331 0
 223 00ee 1720     		movs	r0, #23
 224 00f0 1C49     		ldr	r1, .L6+40
 225 00f2 FFF7FEFF 		bl	CyIntSetVector
 332:.\Generated_Source\PSoC5/USBFS.c **** 
 333:.\Generated_Source\PSoC5/USBFS.c ****     /* Set Control Endpoint Interrupt. */
 334:.\Generated_Source\PSoC5/USBFS.c ****     CyIntSetPriority(USBFS_EP_0_VECT_NUM, USBFS_EP_0_PRIOR);
 226              		.loc 1 334 0
 227 00f6 1820     		movs	r0, #24
 228 00f8 0721     		movs	r1, #7
 229 00fa FFF7FEFF 		bl	CyIntSetPriority
 335:.\Generated_Source\PSoC5/USBFS.c ****     (void) CyIntSetVector(USBFS_EP_0_VECT_NUM,   &USBFS_EP_0_ISR);
 230              		.loc 1 335 0
 231 00fe 1820     		movs	r0, #24
 232 0100 1949     		ldr	r1, .L6+44
 233 0102 FFF7FEFF 		bl	CyIntSetVector
 336:.\Generated_Source\PSoC5/USBFS.c **** 
 337:.\Generated_Source\PSoC5/USBFS.c ****     /* Set SOF interrupt. */
ARM GAS  C:\Users\LUKASC~1\AppData\Local\Temp\ccEgAQpP.s 			page 11


 338:.\Generated_Source\PSoC5/USBFS.c ****     #if (USBFS_SOF_ISR_ACTIVE)
 339:.\Generated_Source\PSoC5/USBFS.c ****         CyIntSetPriority     (USBFS_SOF_VECT_NUM,  USBFS_SOF_PRIOR);
 340:.\Generated_Source\PSoC5/USBFS.c ****         (void) CyIntSetVector(USBFS_SOF_VECT_NUM, &USBFS_SOF_ISR);
 341:.\Generated_Source\PSoC5/USBFS.c ****     #endif /* (USBFS_SOF_ISR_ACTIVE) */
 342:.\Generated_Source\PSoC5/USBFS.c **** 
 343:.\Generated_Source\PSoC5/USBFS.c ****     /* Set Data Endpoint 1 Interrupt. */
 344:.\Generated_Source\PSoC5/USBFS.c ****     #if (USBFS_EP1_ISR_ACTIVE)
 345:.\Generated_Source\PSoC5/USBFS.c ****         CyIntSetPriority     (USBFS_EP_1_VECT_NUM,  USBFS_EP_1_PRIOR);
 234              		.loc 1 345 0
 235 0106 0320     		movs	r0, #3
 236 0108 0721     		movs	r1, #7
 237 010a FFF7FEFF 		bl	CyIntSetPriority
 346:.\Generated_Source\PSoC5/USBFS.c ****         (void) CyIntSetVector(USBFS_EP_1_VECT_NUM,  &USBFS_EP_1_ISR);
 238              		.loc 1 346 0
 239 010e 0320     		movs	r0, #3
 240 0110 1649     		ldr	r1, .L6+48
 241 0112 FFF7FEFF 		bl	CyIntSetVector
 347:.\Generated_Source\PSoC5/USBFS.c ****     #endif /* (USBFS_EP1_ISR_ACTIVE) */
 348:.\Generated_Source\PSoC5/USBFS.c **** 
 349:.\Generated_Source\PSoC5/USBFS.c ****     /* Set Data Endpoint 2 Interrupt. */
 350:.\Generated_Source\PSoC5/USBFS.c ****     #if (USBFS_EP2_ISR_ACTIVE)
 351:.\Generated_Source\PSoC5/USBFS.c ****         CyIntSetPriority     (USBFS_EP_2_VECT_NUM,  USBFS_EP_2_PRIOR);
 352:.\Generated_Source\PSoC5/USBFS.c ****         (void) CyIntSetVector(USBFS_EP_2_VECT_NUM, &USBFS_EP_2_ISR);
 353:.\Generated_Source\PSoC5/USBFS.c ****     #endif /* (USBFS_EP2_ISR_ACTIVE) */
 354:.\Generated_Source\PSoC5/USBFS.c **** 
 355:.\Generated_Source\PSoC5/USBFS.c ****     /* Set Data Endpoint 3 Interrupt. */
 356:.\Generated_Source\PSoC5/USBFS.c ****     #if (USBFS_EP3_ISR_ACTIVE)
 357:.\Generated_Source\PSoC5/USBFS.c ****         CyIntSetPriority     (USBFS_EP_3_VECT_NUM,  USBFS_EP_3_PRIOR);
 358:.\Generated_Source\PSoC5/USBFS.c ****         (void) CyIntSetVector(USBFS_EP_3_VECT_NUM, &USBFS_EP_3_ISR);
 359:.\Generated_Source\PSoC5/USBFS.c ****     #endif /* (USBFS_EP3_ISR_ACTIVE) */
 360:.\Generated_Source\PSoC5/USBFS.c **** 
 361:.\Generated_Source\PSoC5/USBFS.c ****     /* Set Data Endpoint 4 Interrupt. */
 362:.\Generated_Source\PSoC5/USBFS.c ****     #if (USBFS_EP4_ISR_ACTIVE)
 363:.\Generated_Source\PSoC5/USBFS.c ****         CyIntSetPriority     (USBFS_EP_4_VECT_NUM,  USBFS_EP_4_PRIOR);
 364:.\Generated_Source\PSoC5/USBFS.c ****         (void) CyIntSetVector(USBFS_EP_4_VECT_NUM, &USBFS_EP_4_ISR);
 365:.\Generated_Source\PSoC5/USBFS.c ****     #endif /* (USBFS_EP4_ISR_ACTIVE) */
 366:.\Generated_Source\PSoC5/USBFS.c **** 
 367:.\Generated_Source\PSoC5/USBFS.c ****     /* Set Data Endpoint 5 Interrupt. */
 368:.\Generated_Source\PSoC5/USBFS.c ****     #if (USBFS_EP5_ISR_ACTIVE)
 369:.\Generated_Source\PSoC5/USBFS.c ****         CyIntSetPriority     (USBFS_EP_5_VECT_NUM,  USBFS_EP_5_PRIOR);
 370:.\Generated_Source\PSoC5/USBFS.c ****         (void) CyIntSetVector(USBFS_EP_5_VECT_NUM, &USBFS_EP_5_ISR);
 371:.\Generated_Source\PSoC5/USBFS.c ****     #endif /* (USBFS_EP5_ISR_ACTIVE) */
 372:.\Generated_Source\PSoC5/USBFS.c **** 
 373:.\Generated_Source\PSoC5/USBFS.c ****     /* Set Data Endpoint 6 Interrupt. */
 374:.\Generated_Source\PSoC5/USBFS.c ****     #if (USBFS_EP6_ISR_ACTIVE)
 375:.\Generated_Source\PSoC5/USBFS.c ****         CyIntSetPriority     (USBFS_EP_6_VECT_NUM,  USBFS_EP_6_PRIOR);
 242              		.loc 1 375 0
 243 0116 0420     		movs	r0, #4
 244 0118 0721     		movs	r1, #7
 245 011a FFF7FEFF 		bl	CyIntSetPriority
 376:.\Generated_Source\PSoC5/USBFS.c ****         (void) CyIntSetVector(USBFS_EP_6_VECT_NUM, &USBFS_EP_6_ISR);
 246              		.loc 1 376 0
 247 011e 0420     		movs	r0, #4
 248 0120 1349     		ldr	r1, .L6+52
 249 0122 FFF7FEFF 		bl	CyIntSetVector
 377:.\Generated_Source\PSoC5/USBFS.c ****     #endif /* (USBFS_EP6_ISR_ACTIVE) */
 378:.\Generated_Source\PSoC5/USBFS.c **** 
ARM GAS  C:\Users\LUKASC~1\AppData\Local\Temp\ccEgAQpP.s 			page 12


 379:.\Generated_Source\PSoC5/USBFS.c ****      /* Set Data Endpoint 7 Interrupt. */
 380:.\Generated_Source\PSoC5/USBFS.c ****     #if (USBFS_EP7_ISR_ACTIVE)
 381:.\Generated_Source\PSoC5/USBFS.c ****         CyIntSetPriority     (USBFS_EP_7_VECT_NUM,  USBFS_EP_7_PRIOR);
 382:.\Generated_Source\PSoC5/USBFS.c ****         (void) CyIntSetVector(USBFS_EP_7_VECT_NUM, &USBFS_EP_7_ISR);
 383:.\Generated_Source\PSoC5/USBFS.c ****     #endif /* (USBFS_EP7_ISR_ACTIVE) */
 384:.\Generated_Source\PSoC5/USBFS.c **** 
 385:.\Generated_Source\PSoC5/USBFS.c ****     /* Set Data Endpoint 8 Interrupt. */
 386:.\Generated_Source\PSoC5/USBFS.c ****     #if (USBFS_EP8_ISR_ACTIVE)
 387:.\Generated_Source\PSoC5/USBFS.c ****         CyIntSetPriority     (USBFS_EP_8_VECT_NUM,  USBFS_EP_8_PRIOR);
 388:.\Generated_Source\PSoC5/USBFS.c ****         (void) CyIntSetVector(USBFS_EP_8_VECT_NUM, &USBFS_EP_8_ISR);
 389:.\Generated_Source\PSoC5/USBFS.c ****     #endif /* (USBFS_EP8_ISR_ACTIVE) */
 390:.\Generated_Source\PSoC5/USBFS.c **** 
 391:.\Generated_Source\PSoC5/USBFS.c ****     /* Set ARB Interrupt. */
 392:.\Generated_Source\PSoC5/USBFS.c ****     #if (USBFS_EP_MANAGEMENT_DMA && USBFS_ARB_ISR_ACTIVE)
 393:.\Generated_Source\PSoC5/USBFS.c ****         CyIntSetPriority     (USBFS_ARB_VECT_NUM,  USBFS_ARB_PRIOR);
 394:.\Generated_Source\PSoC5/USBFS.c ****         (void) CyIntSetVector(USBFS_ARB_VECT_NUM, &USBFS_ARB_ISR);
 395:.\Generated_Source\PSoC5/USBFS.c ****     #endif /* (USBFS_EP_MANAGEMENT_DMA && USBFS_ARB_ISR_ACTIVE) */
 396:.\Generated_Source\PSoC5/USBFS.c **** #endif /* (CY_PSOC4) */
 397:.\Generated_Source\PSoC5/USBFS.c **** 
 398:.\Generated_Source\PSoC5/USBFS.c ****     /* Common: Configure GPIO interrupt for wakeup. */
 399:.\Generated_Source\PSoC5/USBFS.c **** #if (USBFS_DP_ISR_ACTIVE)
 400:.\Generated_Source\PSoC5/USBFS.c ****     CyIntSetPriority     (USBFS_DP_INTC_VECT_NUM,  USBFS_DP_INTC_PRIORITY);
 250              		.loc 1 400 0
 251 0126 0C20     		movs	r0, #12
 252 0128 0721     		movs	r1, #7
 253 012a FFF7FEFF 		bl	CyIntSetPriority
 401:.\Generated_Source\PSoC5/USBFS.c ****     (void) CyIntSetVector(USBFS_DP_INTC_VECT_NUM, &USBFS_DP_ISR);
 254              		.loc 1 401 0
 255 012e 0C20     		movs	r0, #12
 256 0130 1049     		ldr	r1, .L6+56
 257 0132 FFF7FEFF 		bl	CyIntSetVector
 402:.\Generated_Source\PSoC5/USBFS.c **** #endif /* (USBFS_DP_ISR_ACTIVE) */
 403:.\Generated_Source\PSoC5/USBFS.c **** 
 404:.\Generated_Source\PSoC5/USBFS.c **** #if (USBFS_EP_MANAGEMENT_DMA && CY_PSOC4)
 405:.\Generated_Source\PSoC5/USBFS.c ****     /* Initialize DMA channels. */
 406:.\Generated_Source\PSoC5/USBFS.c ****     USBFS_InitEpDma();
 407:.\Generated_Source\PSoC5/USBFS.c **** #endif /* (USBFS_EP_MANAGEMENT_DMA && CY_PSOC4) */
 408:.\Generated_Source\PSoC5/USBFS.c **** }
 258              		.loc 1 408 0
 259 0136 0837     		adds	r7, r7, #8
 260              		.cfi_def_cfa_offset 8
 261 0138 BD46     		mov	sp, r7
 262              		.cfi_def_cfa_register 13
 263              		@ sp needed
 264 013a 80BD     		pop	{r7, pc}
 265              	.L7:
 266              		.align	2
 267              	.L6:
 268 013c A5430040 		.word	1073759141
 269 0140 B5430040 		.word	1073759157
 270 0144 9D600040 		.word	1073766557
 271 0148 09600040 		.word	1073766409
 272 014c 10600040 		.word	1073766416
 273 0150 94430040 		.word	1073759124
 274 0154 12600040 		.word	1073766418
 275 0158 F8510040 		.word	1073762808
 276 015c 84600040 		.word	1073766532
ARM GAS  C:\Users\LUKASC~1\AppData\Local\Temp\ccEgAQpP.s 			page 13


 277 0160 85600040 		.word	1073766533
 278 0164 00000000 		.word	USBFS_BUS_RESET_ISR
 279 0168 00000000 		.word	USBFS_EP_0_ISR
 280 016c 00000000 		.word	USBFS_EP_1_ISR
 281 0170 00000000 		.word	USBFS_EP_6_ISR
 282 0174 00000000 		.word	USBFS_DP_ISR
 283              		.cfi_endproc
 284              	.LFE1:
 285              		.size	USBFS_Init, .-USBFS_Init
 286              		.section	.text.USBFS_InitComponent,"ax",%progbits
 287              		.align	2
 288              		.global	USBFS_InitComponent
 289              		.thumb
 290              		.thumb_func
 291              		.type	USBFS_InitComponent, %function
 292              	USBFS_InitComponent:
 293              	.LFB2:
 409:.\Generated_Source\PSoC5/USBFS.c **** 
 410:.\Generated_Source\PSoC5/USBFS.c **** 
 411:.\Generated_Source\PSoC5/USBFS.c **** /*******************************************************************************
 412:.\Generated_Source\PSoC5/USBFS.c **** * Function Name: USBFS_InitComponent
 413:.\Generated_Source\PSoC5/USBFS.c **** ****************************************************************************//**
 414:.\Generated_Source\PSoC5/USBFS.c **** *
 415:.\Generated_Source\PSoC5/USBFS.c **** *   This function initializes the component’s global variables and initiates
 416:.\Generated_Source\PSoC5/USBFS.c **** *   communication with the host by pull-up D+ line.
 417:.\Generated_Source\PSoC5/USBFS.c **** *
 418:.\Generated_Source\PSoC5/USBFS.c **** * \param device:
 419:.\Generated_Source\PSoC5/USBFS.c **** *   Contains the device number of the desired device descriptor. The device
 420:.\Generated_Source\PSoC5/USBFS.c **** *   number can be found in the Device Descriptor Tab of "Configure" dialog,
 421:.\Generated_Source\PSoC5/USBFS.c **** *   under the settings of desired Device Descriptor, in the *Device Number*
 422:.\Generated_Source\PSoC5/USBFS.c **** *   field.
 423:.\Generated_Source\PSoC5/USBFS.c **** *  \param mode:
 424:.\Generated_Source\PSoC5/USBFS.c **** *   The operating voltage. This determines whether the voltage regulator
 425:.\Generated_Source\PSoC5/USBFS.c **** *   is enabled for 5V operation or if pass through mode is used for 3.3V
 426:.\Generated_Source\PSoC5/USBFS.c **** *   operation. Symbolic names and their associated values are given in the
 427:.\Generated_Source\PSoC5/USBFS.c **** *   following list.
 428:.\Generated_Source\PSoC5/USBFS.c **** *
 429:.\Generated_Source\PSoC5/USBFS.c **** *       *USBFS_3V_OPERATION* - Disable voltage regulator and pass-
 430:.\Generated_Source\PSoC5/USBFS.c **** *                                      through Vcc for pull-up
 431:.\Generated_Source\PSoC5/USBFS.c **** *
 432:.\Generated_Source\PSoC5/USBFS.c **** *       *USBFS_5V_OPERATION* - Enable voltage regulator and use
 433:.\Generated_Source\PSoC5/USBFS.c **** *                                      regulator for pull-up
 434:.\Generated_Source\PSoC5/USBFS.c **** *
 435:.\Generated_Source\PSoC5/USBFS.c **** *       *USBFS_DWR_POWER_OPERATION* - Enable or disable the voltage
 436:.\Generated_Source\PSoC5/USBFS.c **** *                                      regulator depending on the power supply
 437:.\Generated_Source\PSoC5/USBFS.c **** *                                      voltage configuration in the DWR tab.
 438:.\Generated_Source\PSoC5/USBFS.c **** *                                      For PSoC 3/5LP devices, the VDDD supply
 439:.\Generated_Source\PSoC5/USBFS.c **** *                                      voltage is considered and for PSoC 4A-L,
 440:.\Generated_Source\PSoC5/USBFS.c **** *                                      the VBUS supply voltage is considered.
 441:.\Generated_Source\PSoC5/USBFS.c **** *
 442:.\Generated_Source\PSoC5/USBFS.c **** * \globalvars
 443:.\Generated_Source\PSoC5/USBFS.c **** *   \ref USBFS_device
 444:.\Generated_Source\PSoC5/USBFS.c **** *   \ref USBFS_transferState
 445:.\Generated_Source\PSoC5/USBFS.c **** *   \ref USBFS_configuration
 446:.\Generated_Source\PSoC5/USBFS.c **** *   \ref USBFS_deviceStatus
 447:.\Generated_Source\PSoC5/USBFS.c **** *
 448:.\Generated_Source\PSoC5/USBFS.c **** *   \ref USBFS_deviceAddress - Contains the current device address. This
ARM GAS  C:\Users\LUKASC~1\AppData\Local\Temp\ccEgAQpP.s 			page 14


 449:.\Generated_Source\PSoC5/USBFS.c **** *       variable is initialized to zero in this API. The Host starts to communicate
 450:.\Generated_Source\PSoC5/USBFS.c **** *      to the device with address 0 and then sets it to a whatever value using a
 451:.\Generated_Source\PSoC5/USBFS.c **** *      SET_ADDRESS request.
 452:.\Generated_Source\PSoC5/USBFS.c **** *
 453:.\Generated_Source\PSoC5/USBFS.c **** *   \ref USBFS_lastPacketSize - Initialized to 0;
 454:.\Generated_Source\PSoC5/USBFS.c **** *
 455:.\Generated_Source\PSoC5/USBFS.c **** * \reentrant
 456:.\Generated_Source\PSoC5/USBFS.c **** *  No.
 457:.\Generated_Source\PSoC5/USBFS.c **** *
 458:.\Generated_Source\PSoC5/USBFS.c **** *******************************************************************************/
 459:.\Generated_Source\PSoC5/USBFS.c **** void USBFS_InitComponent(uint8 device, uint8 mode) 
 460:.\Generated_Source\PSoC5/USBFS.c **** {
 294              		.loc 1 460 0
 295              		.cfi_startproc
 296              		@ args = 0, pretend = 0, frame = 8
 297              		@ frame_needed = 1, uses_anonymous_args = 0
 298 0000 80B5     		push	{r7, lr}
 299              		.cfi_def_cfa_offset 8
 300              		.cfi_offset 7, -8
 301              		.cfi_offset 14, -4
 302 0002 82B0     		sub	sp, sp, #8
 303              		.cfi_def_cfa_offset 16
 304 0004 00AF     		add	r7, sp, #0
 305              		.cfi_def_cfa_register 7
 306 0006 0346     		mov	r3, r0
 307 0008 0A46     		mov	r2, r1
 308 000a FB71     		strb	r3, [r7, #7]
 309 000c 1346     		mov	r3, r2
 310 000e BB71     		strb	r3, [r7, #6]
 461:.\Generated_Source\PSoC5/USBFS.c ****     /* Initialize _hidProtocol variable to comply with
 462:.\Generated_Source\PSoC5/USBFS.c ****     *  HID 7.2.6 Set_Protocol Request:
 463:.\Generated_Source\PSoC5/USBFS.c ****     *  "When initialized, all devices default to report protocol."
 464:.\Generated_Source\PSoC5/USBFS.c ****     */
 465:.\Generated_Source\PSoC5/USBFS.c **** #if defined(USBFS_ENABLE_HID_CLASS)
 466:.\Generated_Source\PSoC5/USBFS.c ****     uint8 i;
 467:.\Generated_Source\PSoC5/USBFS.c **** 
 468:.\Generated_Source\PSoC5/USBFS.c ****     for (i = 0u; i < USBFS_MAX_INTERFACES_NUMBER; i++)
 469:.\Generated_Source\PSoC5/USBFS.c ****     {
 470:.\Generated_Source\PSoC5/USBFS.c ****         USBFS_hidProtocol[i] = USBFS_PROTOCOL_REPORT;
 471:.\Generated_Source\PSoC5/USBFS.c ****     }
 472:.\Generated_Source\PSoC5/USBFS.c **** #endif /* USBFS_ENABLE_HID_CLASS */
 473:.\Generated_Source\PSoC5/USBFS.c **** 
 474:.\Generated_Source\PSoC5/USBFS.c ****     /* Store device number to access descriptor. */
 475:.\Generated_Source\PSoC5/USBFS.c ****     USBFS_device = device;
 311              		.loc 1 475 0
 312 0010 2A4A     		ldr	r2, .L14
 313 0012 FB79     		ldrb	r3, [r7, #7]
 314 0014 1370     		strb	r3, [r2]
 476:.\Generated_Source\PSoC5/USBFS.c **** 
 477:.\Generated_Source\PSoC5/USBFS.c ****     /* Reset component internal variables. */
 478:.\Generated_Source\PSoC5/USBFS.c ****     USBFS_transferState   = USBFS_TRANS_STATE_IDLE;
 315              		.loc 1 478 0
 316 0016 2A4B     		ldr	r3, .L14+4
 317 0018 0022     		movs	r2, #0
 318 001a 1A70     		strb	r2, [r3]
 479:.\Generated_Source\PSoC5/USBFS.c ****     USBFS_configurationChanged = 0u;
 319              		.loc 1 479 0
ARM GAS  C:\Users\LUKASC~1\AppData\Local\Temp\ccEgAQpP.s 			page 15


 320 001c 294B     		ldr	r3, .L14+8
 321 001e 0022     		movs	r2, #0
 322 0020 1A70     		strb	r2, [r3]
 480:.\Generated_Source\PSoC5/USBFS.c ****     USBFS_configuration   = 0u;
 323              		.loc 1 480 0
 324 0022 294B     		ldr	r3, .L14+12
 325 0024 0022     		movs	r2, #0
 326 0026 1A70     		strb	r2, [r3]
 481:.\Generated_Source\PSoC5/USBFS.c ****     USBFS_interfaceNumber = 0u;
 327              		.loc 1 481 0
 328 0028 284B     		ldr	r3, .L14+16
 329 002a 0022     		movs	r2, #0
 330 002c 1A70     		strb	r2, [r3]
 482:.\Generated_Source\PSoC5/USBFS.c ****     USBFS_deviceAddress   = 0u;
 331              		.loc 1 482 0
 332 002e 284B     		ldr	r3, .L14+20
 333 0030 0022     		movs	r2, #0
 334 0032 1A70     		strb	r2, [r3]
 483:.\Generated_Source\PSoC5/USBFS.c ****     USBFS_deviceStatus    = 0u;
 335              		.loc 1 483 0
 336 0034 274B     		ldr	r3, .L14+24
 337 0036 0022     		movs	r2, #0
 338 0038 1A70     		strb	r2, [r3]
 484:.\Generated_Source\PSoC5/USBFS.c ****     USBFS_lastPacketSize  = 0u;
 339              		.loc 1 484 0
 340 003a 274B     		ldr	r3, .L14+28
 341 003c 0022     		movs	r2, #0
 342 003e 1A70     		strb	r2, [r3]
 485:.\Generated_Source\PSoC5/USBFS.c **** 
 486:.\Generated_Source\PSoC5/USBFS.c ****     /* Enable component interrupts. */
 487:.\Generated_Source\PSoC5/USBFS.c **** #if (CY_PSOC4)
 488:.\Generated_Source\PSoC5/USBFS.c ****     CyIntEnable(USBFS_INTR_HI_VECT_NUM);
 489:.\Generated_Source\PSoC5/USBFS.c ****     CyIntEnable(USBFS_INTR_MED_VECT_NUM);
 490:.\Generated_Source\PSoC5/USBFS.c ****     CyIntEnable(USBFS_INTR_LO_VECT_NUM);
 491:.\Generated_Source\PSoC5/USBFS.c **** #else
 492:.\Generated_Source\PSoC5/USBFS.c ****     CyIntEnable(USBFS_BUS_RESET_VECT_NUM);
 343              		.loc 1 492 0
 344 0040 264B     		ldr	r3, .L14+32
 345 0042 4FF40002 		mov	r2, #8388608
 346 0046 1A60     		str	r2, [r3]
 493:.\Generated_Source\PSoC5/USBFS.c ****     CyIntEnable(USBFS_EP_0_VECT_NUM);
 347              		.loc 1 493 0
 348 0048 244B     		ldr	r3, .L14+32
 349 004a 4FF08072 		mov	r2, #16777216
 350 004e 1A60     		str	r2, [r3]
 494:.\Generated_Source\PSoC5/USBFS.c **** 
 495:.\Generated_Source\PSoC5/USBFS.c ****     #if (USBFS_SOF_ISR_ACTIVE)
 496:.\Generated_Source\PSoC5/USBFS.c ****         CyIntEnable(USBFS_SOF_VECT_NUM);
 497:.\Generated_Source\PSoC5/USBFS.c ****     #endif /* (USBFS_SOF_ISR_ACTIVE) */
 498:.\Generated_Source\PSoC5/USBFS.c **** 
 499:.\Generated_Source\PSoC5/USBFS.c ****     #if (USBFS_EP1_ISR_ACTIVE)
 500:.\Generated_Source\PSoC5/USBFS.c ****         CyIntEnable(USBFS_EP_1_VECT_NUM);
 351              		.loc 1 500 0
 352 0050 224B     		ldr	r3, .L14+32
 353 0052 0822     		movs	r2, #8
 354 0054 1A60     		str	r2, [r3]
 501:.\Generated_Source\PSoC5/USBFS.c ****     #endif /* (USBFS_EP1_ISR_ACTIVE) */
ARM GAS  C:\Users\LUKASC~1\AppData\Local\Temp\ccEgAQpP.s 			page 16


 502:.\Generated_Source\PSoC5/USBFS.c **** 
 503:.\Generated_Source\PSoC5/USBFS.c ****     #if (USBFS_EP2_ISR_ACTIVE)
 504:.\Generated_Source\PSoC5/USBFS.c ****         CyIntEnable(USBFS_EP_2_VECT_NUM);
 505:.\Generated_Source\PSoC5/USBFS.c ****     #endif /* (USBFS_EP5_ISR_ACTIVE) */
 506:.\Generated_Source\PSoC5/USBFS.c **** 
 507:.\Generated_Source\PSoC5/USBFS.c ****     #if (USBFS_EP3_ISR_ACTIVE)
 508:.\Generated_Source\PSoC5/USBFS.c ****         CyIntEnable(USBFS_EP_3_VECT_NUM);
 509:.\Generated_Source\PSoC5/USBFS.c ****     #endif /* (USBFS_EP5_ISR_ACTIVE) */
 510:.\Generated_Source\PSoC5/USBFS.c **** 
 511:.\Generated_Source\PSoC5/USBFS.c ****     #if (USBFS_EP4_ISR_ACTIVE)
 512:.\Generated_Source\PSoC5/USBFS.c ****         CyIntEnable(USBFS_EP_4_VECT_NUM);
 513:.\Generated_Source\PSoC5/USBFS.c ****     #endif /* (USBFS_EP5_ISR_ACTIVE) */
 514:.\Generated_Source\PSoC5/USBFS.c **** 
 515:.\Generated_Source\PSoC5/USBFS.c ****     #if (USBFS_EP5_ISR_ACTIVE)
 516:.\Generated_Source\PSoC5/USBFS.c ****         CyIntEnable(USBFS_EP_5_VECT_NUM);
 517:.\Generated_Source\PSoC5/USBFS.c ****     #endif /* (USBFS_EP5_ISR_ACTIVE) */
 518:.\Generated_Source\PSoC5/USBFS.c **** 
 519:.\Generated_Source\PSoC5/USBFS.c ****     #if (USBFS_EP6_ISR_ACTIVE)
 520:.\Generated_Source\PSoC5/USBFS.c ****         CyIntEnable(USBFS_EP_6_VECT_NUM);
 355              		.loc 1 520 0
 356 0056 214B     		ldr	r3, .L14+32
 357 0058 1022     		movs	r2, #16
 358 005a 1A60     		str	r2, [r3]
 521:.\Generated_Source\PSoC5/USBFS.c ****     #endif /* USBFS_EP6_ISR_REMOVE */
 522:.\Generated_Source\PSoC5/USBFS.c **** 
 523:.\Generated_Source\PSoC5/USBFS.c ****     #if (USBFS_EP7_ISR_ACTIVE)
 524:.\Generated_Source\PSoC5/USBFS.c ****         CyIntEnable(USBFS_EP_7_VECT_NUM);
 525:.\Generated_Source\PSoC5/USBFS.c ****     #endif /* (USBFS_EP7_ISR_ACTIVE) */
 526:.\Generated_Source\PSoC5/USBFS.c **** 
 527:.\Generated_Source\PSoC5/USBFS.c ****     #if (USBFS_EP8_ISR_ACTIVE)
 528:.\Generated_Source\PSoC5/USBFS.c ****         CyIntEnable(USBFS_EP_8_VECT_NUM);
 529:.\Generated_Source\PSoC5/USBFS.c ****     #endif /* (USBFS_EP8_ISR_ACTIVE) */
 530:.\Generated_Source\PSoC5/USBFS.c **** #endif /* (CY_PSOC4) */
 531:.\Generated_Source\PSoC5/USBFS.c **** 
 532:.\Generated_Source\PSoC5/USBFS.c **** #if (USBFS_EP_MANAGEMENT_DMA && USBFS_ARB_ISR_ACTIVE)
 533:.\Generated_Source\PSoC5/USBFS.c ****     /* Enable ARB EP interrupt sources. */
 534:.\Generated_Source\PSoC5/USBFS.c ****     USBFS_ARB_INT_EN_REG = USBFS_DEFAULT_ARB_INT_EN;
 535:.\Generated_Source\PSoC5/USBFS.c **** 
 536:.\Generated_Source\PSoC5/USBFS.c ****     #if (CY_PSOC3 || CY_PSOC5)
 537:.\Generated_Source\PSoC5/USBFS.c ****         CyIntEnable(USBFS_ARB_VECT_NUM);
 538:.\Generated_Source\PSoC5/USBFS.c ****     #endif /* (CY_PSOC3 || CY_PSOC5) */
 539:.\Generated_Source\PSoC5/USBFS.c **** #endif   /* (USBFS_EP_MANAGEMENT_DMA && USBFS_ARB_ISR_ACTIVE) */
 540:.\Generated_Source\PSoC5/USBFS.c **** 
 541:.\Generated_Source\PSoC5/USBFS.c **** /* Arbiter configuration for DMA transfers. */
 542:.\Generated_Source\PSoC5/USBFS.c **** #if (USBFS_EP_MANAGEMENT_DMA)
 543:.\Generated_Source\PSoC5/USBFS.c ****     /* Configure Arbiter for Manual or Auto DMA operation and clear configuration completion. */
 544:.\Generated_Source\PSoC5/USBFS.c ****     USBFS_ARB_CFG_REG = USBFS_DEFAULT_ARB_CFG;
 545:.\Generated_Source\PSoC5/USBFS.c **** 
 546:.\Generated_Source\PSoC5/USBFS.c ****     #if (CY_PSOC4)
 547:.\Generated_Source\PSoC5/USBFS.c ****         /* Enable DMA operation. */
 548:.\Generated_Source\PSoC5/USBFS.c ****         CyDmaEnable();
 549:.\Generated_Source\PSoC5/USBFS.c **** 
 550:.\Generated_Source\PSoC5/USBFS.c ****         #if (USBFS_EP_MANAGEMENT_DMA_AUTO)
 551:.\Generated_Source\PSoC5/USBFS.c ****             /* Change DMA priority to be highest. */
 552:.\Generated_Source\PSoC5/USBFS.c ****              CyIntSetPriority(CYDMA_INTR_NUMBER, USBFS_DMA_AUTO_INTR_PRIO);
 553:.\Generated_Source\PSoC5/USBFS.c ****         #endif /* (USBFS_EP_MANAGEMENT_DMA_AUTO) */
 554:.\Generated_Source\PSoC5/USBFS.c ****     #endif /* (CY_PSOC4) */
ARM GAS  C:\Users\LUKASC~1\AppData\Local\Temp\ccEgAQpP.s 			page 17


 555:.\Generated_Source\PSoC5/USBFS.c **** 
 556:.\Generated_Source\PSoC5/USBFS.c ****     #if (USBFS_EP_MANAGEMENT_DMA_AUTO)
 557:.\Generated_Source\PSoC5/USBFS.c ****         #if (CY_PSOC4)
 558:.\Generated_Source\PSoC5/USBFS.c ****             /* Enable DMA interrupt to handle DMA management. */
 559:.\Generated_Source\PSoC5/USBFS.c ****             CyIntEnable(CYDMA_INTR_NUMBER);
 560:.\Generated_Source\PSoC5/USBFS.c ****         #else
 561:.\Generated_Source\PSoC5/USBFS.c ****             #if (USBFS_EP_DMA_AUTO_OPT == 0u)
 562:.\Generated_Source\PSoC5/USBFS.c ****                 /* Initialize interrupts which handle verification of successful DMA transaction. *
 563:.\Generated_Source\PSoC5/USBFS.c ****                 USBFS_EP_DMA_Done_isr_StartEx(&USBFS_EP_DMA_DONE_ISR);
 564:.\Generated_Source\PSoC5/USBFS.c ****                 USBFS_EP17_DMA_Done_SR_InterruptEnable();
 565:.\Generated_Source\PSoC5/USBFS.c ****                 USBFS_EP8_DMA_Done_SR_InterruptEnable();
 566:.\Generated_Source\PSoC5/USBFS.c ****             #endif /* (USBFS_EP_DMA_AUTO_OPT == 0u) */
 567:.\Generated_Source\PSoC5/USBFS.c ****         #endif /* (CY_PSOC4) */
 568:.\Generated_Source\PSoC5/USBFS.c ****     #endif /* (USBFS_EP_MANAGEMENT_DMA_AUTO) */
 569:.\Generated_Source\PSoC5/USBFS.c **** #endif /* (USBFS_EP_MANAGEMENT_DMA) */
 570:.\Generated_Source\PSoC5/USBFS.c **** 
 571:.\Generated_Source\PSoC5/USBFS.c ****     /* Enable USB regulator depends on operation voltage. IMO Locking is enabled in Init(). */
 572:.\Generated_Source\PSoC5/USBFS.c ****     switch(mode)
 359              		.loc 1 572 0
 360 005c BB79     		ldrb	r3, [r7, #6]	@ zero_extendqisi2
 361 005e 002B     		cmp	r3, #0
 362 0060 02D0     		beq	.L10
 363 0062 012B     		cmp	r3, #1
 364 0064 09D0     		beq	.L11
 365 0066 11E0     		b	.L13
 366              	.L10:
 573:.\Generated_Source\PSoC5/USBFS.c ****     {
 574:.\Generated_Source\PSoC5/USBFS.c ****     case USBFS_3V_OPERATION:
 575:.\Generated_Source\PSoC5/USBFS.c ****         /* Disable regulator for 3V operation. */
 576:.\Generated_Source\PSoC5/USBFS.c ****         USBFS_CR1_REG &= (uint8) ~USBFS_CR1_REG_ENABLE;
 367              		.loc 1 576 0
 368 0068 1D4A     		ldr	r2, .L14+36
 369 006a 1D4B     		ldr	r3, .L14+36
 370 006c 1B78     		ldrb	r3, [r3]
 371 006e DBB2     		uxtb	r3, r3
 372 0070 23F00103 		bic	r3, r3, #1
 373 0074 DBB2     		uxtb	r3, r3
 374 0076 1370     		strb	r3, [r2]
 577:.\Generated_Source\PSoC5/USBFS.c ****         break;
 375              		.loc 1 577 0
 376 0078 11E0     		b	.L12
 377              	.L11:
 578:.\Generated_Source\PSoC5/USBFS.c **** 
 579:.\Generated_Source\PSoC5/USBFS.c ****     case USBFS_5V_OPERATION:
 580:.\Generated_Source\PSoC5/USBFS.c ****         /* Enable regulator for 5V operation. */
 581:.\Generated_Source\PSoC5/USBFS.c ****         USBFS_CR1_REG |= (uint8)  USBFS_CR1_REG_ENABLE;
 378              		.loc 1 581 0
 379 007a 194A     		ldr	r2, .L14+36
 380 007c 184B     		ldr	r3, .L14+36
 381 007e 1B78     		ldrb	r3, [r3]
 382 0080 DBB2     		uxtb	r3, r3
 383 0082 43F00103 		orr	r3, r3, #1
 384 0086 DBB2     		uxtb	r3, r3
 385 0088 1370     		strb	r3, [r2]
 582:.\Generated_Source\PSoC5/USBFS.c ****         break;
 386              		.loc 1 582 0
 387 008a 08E0     		b	.L12
ARM GAS  C:\Users\LUKASC~1\AppData\Local\Temp\ccEgAQpP.s 			page 18


 388              	.L13:
 583:.\Generated_Source\PSoC5/USBFS.c **** 
 584:.\Generated_Source\PSoC5/USBFS.c ****     default: /* Check DWR settings of USB power supply. */
 585:.\Generated_Source\PSoC5/USBFS.c ****     #if (USBFS_VDDD_MV < USBFS_3500MV)
 586:.\Generated_Source\PSoC5/USBFS.c ****         /* Disable regulator for 3V operation. */
 587:.\Generated_Source\PSoC5/USBFS.c ****         USBFS_CR1_REG &= (uint8) ~USBFS_CR1_REG_ENABLE;
 588:.\Generated_Source\PSoC5/USBFS.c ****     #else
 589:.\Generated_Source\PSoC5/USBFS.c ****         /* Enable regulator for 5V operation. */
 590:.\Generated_Source\PSoC5/USBFS.c ****         USBFS_CR1_REG |= (uint8)  USBFS_CR1_REG_ENABLE;
 389              		.loc 1 590 0
 390 008c 144A     		ldr	r2, .L14+36
 391 008e 144B     		ldr	r3, .L14+36
 392 0090 1B78     		ldrb	r3, [r3]
 393 0092 DBB2     		uxtb	r3, r3
 394 0094 43F00103 		orr	r3, r3, #1
 395 0098 DBB2     		uxtb	r3, r3
 396 009a 1370     		strb	r3, [r2]
 591:.\Generated_Source\PSoC5/USBFS.c ****     #endif /* (USBFS_VDDD_MV < USBFS_3500MV) */
 592:.\Generated_Source\PSoC5/USBFS.c ****         break;
 397              		.loc 1 592 0
 398 009c 00BF     		nop
 399              	.L12:
 593:.\Generated_Source\PSoC5/USBFS.c ****     }
 594:.\Generated_Source\PSoC5/USBFS.c **** 
 595:.\Generated_Source\PSoC5/USBFS.c **** #if (CY_PSOC4)
 596:.\Generated_Source\PSoC5/USBFS.c ****     /* Clear bus activity. */
 597:.\Generated_Source\PSoC5/USBFS.c ****     USBFS_CR1_REG &= (uint32) ~USBFS_CR1_BUS_ACTIVITY;
 598:.\Generated_Source\PSoC5/USBFS.c **** 
 599:.\Generated_Source\PSoC5/USBFS.c ****     /* Clear EP0 count register. */
 600:.\Generated_Source\PSoC5/USBFS.c ****     USBFS_EP0_CNT_REG = USBFS_CLEAR_REG;
 601:.\Generated_Source\PSoC5/USBFS.c **** 
 602:.\Generated_Source\PSoC5/USBFS.c ****     /* Set EP0.CR: ACK Setup, NAK IN/OUT. */
 603:.\Generated_Source\PSoC5/USBFS.c ****     USBFS_EP0_CR_REG = USBFS_MODE_NAK_IN_OUT;
 604:.\Generated_Source\PSoC5/USBFS.c **** 
 605:.\Generated_Source\PSoC5/USBFS.c ****     #if (USBFS_LPM_ACTIVE)
 606:.\Generated_Source\PSoC5/USBFS.c ****         if (NULL != USBFS_GetBOSPtr())
 607:.\Generated_Source\PSoC5/USBFS.c ****         {
 608:.\Generated_Source\PSoC5/USBFS.c ****             /* Enable LPM and acknowledge LPM packets for active device.
 609:.\Generated_Source\PSoC5/USBFS.c ****             * Reset NYET_EN and SUB_RESP bits in the LPM_CTRL register.
 610:.\Generated_Source\PSoC5/USBFS.c ****             */
 611:.\Generated_Source\PSoC5/USBFS.c ****             USBFS_LPM_CTRL_REG = (USBFS_LPM_CTRL_LPM_EN | \
 612:.\Generated_Source\PSoC5/USBFS.c ****                                              USBFS_LPM_CTRL_LPM_ACK_RESP);
 613:.\Generated_Source\PSoC5/USBFS.c ****         }
 614:.\Generated_Source\PSoC5/USBFS.c ****         else
 615:.\Generated_Source\PSoC5/USBFS.c ****         {
 616:.\Generated_Source\PSoC5/USBFS.c ****             /* Disable LPM for active device. */
 617:.\Generated_Source\PSoC5/USBFS.c ****             USBFS_LPM_CTRL_REG &= (uint32) ~USBFS_LPM_CTRL_LPM_EN;
 618:.\Generated_Source\PSoC5/USBFS.c ****         }
 619:.\Generated_Source\PSoC5/USBFS.c ****     #endif /* (USBFS_LPM_ACTIVE) */
 620:.\Generated_Source\PSoC5/USBFS.c **** 
 621:.\Generated_Source\PSoC5/USBFS.c ****     /* Enable device to responds to USB traffic with address 0. */
 622:.\Generated_Source\PSoC5/USBFS.c ****     USBFS_CR0_REG = USBFS_DEFUALT_CR0;
 623:.\Generated_Source\PSoC5/USBFS.c **** 
 624:.\Generated_Source\PSoC5/USBFS.c **** #else
 625:.\Generated_Source\PSoC5/USBFS.c ****     /* Set EP0.CR: ACK Setup, STALL IN/OUT. */
 626:.\Generated_Source\PSoC5/USBFS.c ****     USBFS_EP0_CR_REG = USBFS_MODE_STALL_IN_OUT;
 400              		.loc 1 626 0
ARM GAS  C:\Users\LUKASC~1\AppData\Local\Temp\ccEgAQpP.s 			page 19


 401 009e 114B     		ldr	r3, .L14+40
 402 00a0 0322     		movs	r2, #3
 403 00a2 1A70     		strb	r2, [r3]
 627:.\Generated_Source\PSoC5/USBFS.c **** 
 628:.\Generated_Source\PSoC5/USBFS.c ****     /* Enable device to respond to USB traffic with address 0. */
 629:.\Generated_Source\PSoC5/USBFS.c ****     USBFS_CR0_REG = USBFS_DEFUALT_CR0;
 404              		.loc 1 629 0
 405 00a4 104B     		ldr	r3, .L14+44
 406 00a6 8022     		movs	r2, #128
 407 00a8 1A70     		strb	r2, [r3]
 630:.\Generated_Source\PSoC5/USBFS.c ****     CyDelayCycles(USBFS_WAIT_CR0_REG_STABILITY);
 408              		.loc 1 630 0
 409 00aa 0120     		movs	r0, #1
 410 00ac FFF7FEFF 		bl	CyDelayCycles
 631:.\Generated_Source\PSoC5/USBFS.c **** #endif /* (CY_PSOC4) */
 632:.\Generated_Source\PSoC5/USBFS.c **** 
 633:.\Generated_Source\PSoC5/USBFS.c ****     /* Enable D+ pull-up and keep USB control on IO. */
 634:.\Generated_Source\PSoC5/USBFS.c ****     USBFS_USBIO_CR1_REG = USBFS_USBIO_CR1_USBPUEN;
 411              		.loc 1 634 0
 412 00b0 0E4B     		ldr	r3, .L14+48
 413 00b2 0422     		movs	r2, #4
 414 00b4 1A70     		strb	r2, [r3]
 635:.\Generated_Source\PSoC5/USBFS.c **** }
 415              		.loc 1 635 0
 416 00b6 0837     		adds	r7, r7, #8
 417              		.cfi_def_cfa_offset 8
 418 00b8 BD46     		mov	sp, r7
 419              		.cfi_def_cfa_register 13
 420              		@ sp needed
 421 00ba 80BD     		pop	{r7, pc}
 422              	.L15:
 423              		.align	2
 424              	.L14:
 425 00bc 00000000 		.word	USBFS_device
 426 00c0 00000000 		.word	USBFS_transferState
 427 00c4 00000000 		.word	USBFS_configurationChanged
 428 00c8 00000000 		.word	USBFS_configuration
 429 00cc 00000000 		.word	USBFS_interfaceNumber
 430 00d0 00000000 		.word	USBFS_deviceAddress
 431 00d4 00000000 		.word	USBFS_deviceStatus
 432 00d8 00000000 		.word	USBFS_lastPacketSize
 433 00dc 00E100E0 		.word	-536813312
 434 00e0 09600040 		.word	1073766409
 435 00e4 28600040 		.word	1073766440
 436 00e8 08600040 		.word	1073766408
 437 00ec 12600040 		.word	1073766418
 438              		.cfi_endproc
 439              	.LFE2:
 440              		.size	USBFS_InitComponent, .-USBFS_InitComponent
 441              		.section	.text.USBFS_ReInitComponent,"ax",%progbits
 442              		.align	2
 443              		.global	USBFS_ReInitComponent
 444              		.thumb
 445              		.thumb_func
 446              		.type	USBFS_ReInitComponent, %function
 447              	USBFS_ReInitComponent:
 448              	.LFB3:
ARM GAS  C:\Users\LUKASC~1\AppData\Local\Temp\ccEgAQpP.s 			page 20


 636:.\Generated_Source\PSoC5/USBFS.c **** 
 637:.\Generated_Source\PSoC5/USBFS.c **** 
 638:.\Generated_Source\PSoC5/USBFS.c **** /*******************************************************************************
 639:.\Generated_Source\PSoC5/USBFS.c **** * Function Name: USBFS_ReInitComponent
 640:.\Generated_Source\PSoC5/USBFS.c **** ****************************************************************************//**
 641:.\Generated_Source\PSoC5/USBFS.c **** *
 642:.\Generated_Source\PSoC5/USBFS.c **** *  This function reinitialize the component configuration and is
 643:.\Generated_Source\PSoC5/USBFS.c **** *  intend to be called from the Reset interrupt.
 644:.\Generated_Source\PSoC5/USBFS.c **** *
 645:.\Generated_Source\PSoC5/USBFS.c **** * \globalvars
 646:.\Generated_Source\PSoC5/USBFS.c **** *   USBFS_device - Contains the device number of the desired Device
 647:.\Generated_Source\PSoC5/USBFS.c **** *        Descriptor. The device number can be found in the Device Descriptor tab
 648:.\Generated_Source\PSoC5/USBFS.c **** *       of the Configure dialog, under the settings of the desired Device Descriptor,
 649:.\Generated_Source\PSoC5/USBFS.c **** *       in the Device Number field.
 650:.\Generated_Source\PSoC5/USBFS.c **** *   USBFS_transferState - This variable is used by the communication
 651:.\Generated_Source\PSoC5/USBFS.c **** *       functions to handle the current transfer state. Initialized to
 652:.\Generated_Source\PSoC5/USBFS.c **** *       TRANS_STATE_IDLE in this API.
 653:.\Generated_Source\PSoC5/USBFS.c **** *   USBFS_configuration - Contains the current configuration number
 654:.\Generated_Source\PSoC5/USBFS.c **** *       set by the Host using a SET_CONFIGURATION request.
 655:.\Generated_Source\PSoC5/USBFS.c **** *       Initialized to zero in this API.
 656:.\Generated_Source\PSoC5/USBFS.c **** *   USBFS_deviceAddress - Contains the current device address. This
 657:.\Generated_Source\PSoC5/USBFS.c **** *       variable is initialized to zero in this API. The Host starts to communicate
 658:.\Generated_Source\PSoC5/USBFS.c **** *      to the device with address 0 and then sets it to a whatever value using
 659:.\Generated_Source\PSoC5/USBFS.c **** *      a SET_ADDRESS request.
 660:.\Generated_Source\PSoC5/USBFS.c **** *   USBFS_deviceStatus - Initialized to 0.
 661:.\Generated_Source\PSoC5/USBFS.c **** *       This is a two-bit variable which contains the power status in the first bit
 662:.\Generated_Source\PSoC5/USBFS.c **** *       (DEVICE_STATUS_BUS_POWERED or DEVICE_STATUS_SELF_POWERED) and the remote
 663:.\Generated_Source\PSoC5/USBFS.c **** *       wakeup status (DEVICE_STATUS_REMOTE_WAKEUP) in the second bit.
 664:.\Generated_Source\PSoC5/USBFS.c **** *   USBFS_lastPacketSize - Initialized to 0;
 665:.\Generated_Source\PSoC5/USBFS.c **** *
 666:.\Generated_Source\PSoC5/USBFS.c **** * \reentrant
 667:.\Generated_Source\PSoC5/USBFS.c **** *  No.
 668:.\Generated_Source\PSoC5/USBFS.c **** *
 669:.\Generated_Source\PSoC5/USBFS.c **** *******************************************************************************/
 670:.\Generated_Source\PSoC5/USBFS.c **** void USBFS_ReInitComponent(void) 
 671:.\Generated_Source\PSoC5/USBFS.c **** {
 449              		.loc 1 671 0
 450              		.cfi_startproc
 451              		@ args = 0, pretend = 0, frame = 0
 452              		@ frame_needed = 1, uses_anonymous_args = 0
 453              		@ link register save eliminated.
 454 0000 80B4     		push	{r7}
 455              		.cfi_def_cfa_offset 4
 456              		.cfi_offset 7, -4
 457 0002 00AF     		add	r7, sp, #0
 458              		.cfi_def_cfa_register 7
 672:.\Generated_Source\PSoC5/USBFS.c ****     /* Initialize _hidProtocol variable to comply with HID 7.2.6 Set_Protocol
 673:.\Generated_Source\PSoC5/USBFS.c ****     *  Request: "When initialized, all devices default to report protocol."
 674:.\Generated_Source\PSoC5/USBFS.c ****     */
 675:.\Generated_Source\PSoC5/USBFS.c **** #if defined(USBFS_ENABLE_HID_CLASS)
 676:.\Generated_Source\PSoC5/USBFS.c ****     uint8 i;
 677:.\Generated_Source\PSoC5/USBFS.c **** 
 678:.\Generated_Source\PSoC5/USBFS.c ****     for (i = 0u; i < USBFS_MAX_INTERFACES_NUMBER; i++)
 679:.\Generated_Source\PSoC5/USBFS.c ****     {
 680:.\Generated_Source\PSoC5/USBFS.c ****         USBFS_hidProtocol[i] = USBFS_PROTOCOL_REPORT;
 681:.\Generated_Source\PSoC5/USBFS.c ****     }
 682:.\Generated_Source\PSoC5/USBFS.c **** #endif /* USBFS_ENABLE_HID_CLASS */
ARM GAS  C:\Users\LUKASC~1\AppData\Local\Temp\ccEgAQpP.s 			page 21


 683:.\Generated_Source\PSoC5/USBFS.c **** 
 684:.\Generated_Source\PSoC5/USBFS.c ****     /* Reset component internal variables. */
 685:.\Generated_Source\PSoC5/USBFS.c ****     USBFS_transferState   = USBFS_TRANS_STATE_IDLE;
 459              		.loc 1 685 0
 460 0004 0F4B     		ldr	r3, .L17
 461 0006 0022     		movs	r2, #0
 462 0008 1A70     		strb	r2, [r3]
 686:.\Generated_Source\PSoC5/USBFS.c ****     USBFS_configurationChanged = 0u;
 463              		.loc 1 686 0
 464 000a 0F4B     		ldr	r3, .L17+4
 465 000c 0022     		movs	r2, #0
 466 000e 1A70     		strb	r2, [r3]
 687:.\Generated_Source\PSoC5/USBFS.c ****     USBFS_configuration   = 0u;
 467              		.loc 1 687 0
 468 0010 0E4B     		ldr	r3, .L17+8
 469 0012 0022     		movs	r2, #0
 470 0014 1A70     		strb	r2, [r3]
 688:.\Generated_Source\PSoC5/USBFS.c ****     USBFS_interfaceNumber = 0u;
 471              		.loc 1 688 0
 472 0016 0E4B     		ldr	r3, .L17+12
 473 0018 0022     		movs	r2, #0
 474 001a 1A70     		strb	r2, [r3]
 689:.\Generated_Source\PSoC5/USBFS.c ****     USBFS_deviceAddress   = 0u;
 475              		.loc 1 689 0
 476 001c 0D4B     		ldr	r3, .L17+16
 477 001e 0022     		movs	r2, #0
 478 0020 1A70     		strb	r2, [r3]
 690:.\Generated_Source\PSoC5/USBFS.c ****     USBFS_deviceStatus    = 0u;
 479              		.loc 1 690 0
 480 0022 0D4B     		ldr	r3, .L17+20
 481 0024 0022     		movs	r2, #0
 482 0026 1A70     		strb	r2, [r3]
 691:.\Generated_Source\PSoC5/USBFS.c ****     USBFS_lastPacketSize  = 0u;
 483              		.loc 1 691 0
 484 0028 0C4B     		ldr	r3, .L17+24
 485 002a 0022     		movs	r2, #0
 486 002c 1A70     		strb	r2, [r3]
 692:.\Generated_Source\PSoC5/USBFS.c **** 
 693:.\Generated_Source\PSoC5/USBFS.c **** #if (CY_PSOC4)
 694:.\Generated_Source\PSoC5/USBFS.c ****     /* Set EP0.CR: ACK Setup, NAK IN/OUT. */
 695:.\Generated_Source\PSoC5/USBFS.c ****     USBFS_EP0_CR_REG = USBFS_MODE_NAK_IN_OUT;
 696:.\Generated_Source\PSoC5/USBFS.c **** #else
 697:.\Generated_Source\PSoC5/USBFS.c ****     /* Set EP0.CR: ACK Setup, STALL IN/OUT. */
 698:.\Generated_Source\PSoC5/USBFS.c ****     USBFS_EP0_CR_REG = USBFS_MODE_STALL_IN_OUT;
 487              		.loc 1 698 0
 488 002e 0C4B     		ldr	r3, .L17+28
 489 0030 0322     		movs	r2, #3
 490 0032 1A70     		strb	r2, [r3]
 699:.\Generated_Source\PSoC5/USBFS.c **** #endif /* (CY_PSOC4) */
 700:.\Generated_Source\PSoC5/USBFS.c **** 
 701:.\Generated_Source\PSoC5/USBFS.c ****     /* Enable device to respond to USB traffic with address 0. */
 702:.\Generated_Source\PSoC5/USBFS.c ****     USBFS_CR0_REG = USBFS_DEFUALT_CR0;
 491              		.loc 1 702 0
 492 0034 0B4B     		ldr	r3, .L17+32
 493 0036 8022     		movs	r2, #128
 494 0038 1A70     		strb	r2, [r3]
 703:.\Generated_Source\PSoC5/USBFS.c **** }
ARM GAS  C:\Users\LUKASC~1\AppData\Local\Temp\ccEgAQpP.s 			page 22


 495              		.loc 1 703 0
 496 003a BD46     		mov	sp, r7
 497              		.cfi_def_cfa_register 13
 498              		@ sp needed
 499 003c 5DF8047B 		ldr	r7, [sp], #4
 500              		.cfi_restore 7
 501              		.cfi_def_cfa_offset 0
 502 0040 7047     		bx	lr
 503              	.L18:
 504 0042 00BF     		.align	2
 505              	.L17:
 506 0044 00000000 		.word	USBFS_transferState
 507 0048 00000000 		.word	USBFS_configurationChanged
 508 004c 00000000 		.word	USBFS_configuration
 509 0050 00000000 		.word	USBFS_interfaceNumber
 510 0054 00000000 		.word	USBFS_deviceAddress
 511 0058 00000000 		.word	USBFS_deviceStatus
 512 005c 00000000 		.word	USBFS_lastPacketSize
 513 0060 28600040 		.word	1073766440
 514 0064 08600040 		.word	1073766408
 515              		.cfi_endproc
 516              	.LFE3:
 517              		.size	USBFS_ReInitComponent, .-USBFS_ReInitComponent
 518              		.section	.text.USBFS_Stop,"ax",%progbits
 519              		.align	2
 520              		.global	USBFS_Stop
 521              		.thumb
 522              		.thumb_func
 523              		.type	USBFS_Stop, %function
 524              	USBFS_Stop:
 525              	.LFB4:
 704:.\Generated_Source\PSoC5/USBFS.c **** 
 705:.\Generated_Source\PSoC5/USBFS.c **** 
 706:.\Generated_Source\PSoC5/USBFS.c **** /*******************************************************************************
 707:.\Generated_Source\PSoC5/USBFS.c **** * Function Name: USBFS_Stop
 708:.\Generated_Source\PSoC5/USBFS.c **** ****************************************************************************//**
 709:.\Generated_Source\PSoC5/USBFS.c **** *
 710:.\Generated_Source\PSoC5/USBFS.c **** *  This function shuts down the USB function including to release
 711:.\Generated_Source\PSoC5/USBFS.c **** *  the D+ pull-up and disabling the SIE.
 712:.\Generated_Source\PSoC5/USBFS.c **** *
 713:.\Generated_Source\PSoC5/USBFS.c **** * \globalvars
 714:.\Generated_Source\PSoC5/USBFS.c **** *   \ref USBFS_configuration
 715:.\Generated_Source\PSoC5/USBFS.c **** *
 716:.\Generated_Source\PSoC5/USBFS.c **** *   USBFS_deviceAddress - Contains the current device address. This
 717:.\Generated_Source\PSoC5/USBFS.c **** *       variable is initialized to zero in this API. The Host starts to communicate
 718:.\Generated_Source\PSoC5/USBFS.c **** *      to the device with address 0 and then sets it to a whatever value using
 719:.\Generated_Source\PSoC5/USBFS.c **** *      a SET_ADDRESS request.
 720:.\Generated_Source\PSoC5/USBFS.c **** *
 721:.\Generated_Source\PSoC5/USBFS.c **** *   \ref USBFS_deviceStatus
 722:.\Generated_Source\PSoC5/USBFS.c **** *
 723:.\Generated_Source\PSoC5/USBFS.c **** *   \ref USBFS_configurationChanged
 724:.\Generated_Source\PSoC5/USBFS.c **** *
 725:.\Generated_Source\PSoC5/USBFS.c **** *   USBFS_intiVar -  This variable is set to zero
 726:.\Generated_Source\PSoC5/USBFS.c **** *
 727:.\Generated_Source\PSoC5/USBFS.c **** *******************************************************************************/
 728:.\Generated_Source\PSoC5/USBFS.c **** void USBFS_Stop(void) 
 729:.\Generated_Source\PSoC5/USBFS.c **** {
ARM GAS  C:\Users\LUKASC~1\AppData\Local\Temp\ccEgAQpP.s 			page 23


 526              		.loc 1 729 0
 527              		.cfi_startproc
 528              		@ args = 0, pretend = 0, frame = 8
 529              		@ frame_needed = 1, uses_anonymous_args = 0
 530 0000 80B5     		push	{r7, lr}
 531              		.cfi_def_cfa_offset 8
 532              		.cfi_offset 7, -8
 533              		.cfi_offset 14, -4
 534 0002 82B0     		sub	sp, sp, #8
 535              		.cfi_def_cfa_offset 16
 536 0004 00AF     		add	r7, sp, #0
 537              		.cfi_def_cfa_register 7
 730:.\Generated_Source\PSoC5/USBFS.c ****     uint8 enableInterrupts;
 731:.\Generated_Source\PSoC5/USBFS.c **** 
 732:.\Generated_Source\PSoC5/USBFS.c **** #if (USBFS_EP_MANAGEMENT_DMA)
 733:.\Generated_Source\PSoC5/USBFS.c ****     /* Stop all DMA channels. */
 734:.\Generated_Source\PSoC5/USBFS.c ****     USBFS_Stop_DMA(USBFS_MAX_EP);
 735:.\Generated_Source\PSoC5/USBFS.c **** #endif /* (USBFS_EP_MANAGEMENT_DMA) */
 736:.\Generated_Source\PSoC5/USBFS.c **** 
 737:.\Generated_Source\PSoC5/USBFS.c ****     enableInterrupts = CyEnterCriticalSection();
 538              		.loc 1 737 0
 539 0006 FFF7FEFF 		bl	CyEnterCriticalSection
 540 000a 0346     		mov	r3, r0
 541 000c FB71     		strb	r3, [r7, #7]
 738:.\Generated_Source\PSoC5/USBFS.c **** 
 739:.\Generated_Source\PSoC5/USBFS.c ****     /* Disable USB IP to respond to USB traffic. */
 740:.\Generated_Source\PSoC5/USBFS.c ****     USBFS_CR0_REG &= (uint8) ~USBFS_CR0_ENABLE;
 542              		.loc 1 740 0
 543 000e 234A     		ldr	r2, .L20
 544 0010 224B     		ldr	r3, .L20
 545 0012 1B78     		ldrb	r3, [r3]
 546 0014 DBB2     		uxtb	r3, r3
 547 0016 03F07F03 		and	r3, r3, #127
 548 001a DBB2     		uxtb	r3, r3
 549 001c 1370     		strb	r3, [r2]
 741:.\Generated_Source\PSoC5/USBFS.c **** 
 742:.\Generated_Source\PSoC5/USBFS.c ****     /* Disable D+ pull-up. */
 743:.\Generated_Source\PSoC5/USBFS.c ****     USBFS_USBIO_CR1_REG &= (uint8) ~ USBFS_USBIO_CR1_USBPUEN;
 550              		.loc 1 743 0
 551 001e 204A     		ldr	r2, .L20+4
 552 0020 1F4B     		ldr	r3, .L20+4
 553 0022 1B78     		ldrb	r3, [r3]
 554 0024 DBB2     		uxtb	r3, r3
 555 0026 23F00403 		bic	r3, r3, #4
 556 002a DBB2     		uxtb	r3, r3
 557 002c 1370     		strb	r3, [r2]
 744:.\Generated_Source\PSoC5/USBFS.c **** 
 745:.\Generated_Source\PSoC5/USBFS.c **** #if (CY_PSOC4)
 746:.\Generated_Source\PSoC5/USBFS.c ****     /* Disable USBFS block. */
 747:.\Generated_Source\PSoC5/USBFS.c ****     USBFS_POWER_CTRL_REG &= (uint32) ~USBFS_POWER_CTRL_ENABLE;
 748:.\Generated_Source\PSoC5/USBFS.c **** #else
 749:.\Generated_Source\PSoC5/USBFS.c ****     /* Clear power active and standby mode templates. */
 750:.\Generated_Source\PSoC5/USBFS.c ****     USBFS_PM_ACT_CFG_REG  &= (uint8) ~USBFS_PM_ACT_EN_FSUSB;
 558              		.loc 1 750 0
 559 002e 1D4A     		ldr	r2, .L20+8
 560 0030 1C4B     		ldr	r3, .L20+8
 561 0032 1B78     		ldrb	r3, [r3]
ARM GAS  C:\Users\LUKASC~1\AppData\Local\Temp\ccEgAQpP.s 			page 24


 562 0034 DBB2     		uxtb	r3, r3
 563 0036 23F00103 		bic	r3, r3, #1
 564 003a DBB2     		uxtb	r3, r3
 565 003c 1370     		strb	r3, [r2]
 751:.\Generated_Source\PSoC5/USBFS.c ****     USBFS_PM_STBY_CFG_REG &= (uint8) ~USBFS_PM_STBY_EN_FSUSB;
 566              		.loc 1 751 0
 567 003e 1A4A     		ldr	r2, .L20+12
 568 0040 194B     		ldr	r3, .L20+12
 569 0042 1B78     		ldrb	r3, [r3]
 570 0044 DBB2     		uxtb	r3, r3
 571 0046 23F00103 		bic	r3, r3, #1
 572 004a DBB2     		uxtb	r3, r3
 573 004c 1370     		strb	r3, [r2]
 752:.\Generated_Source\PSoC5/USBFS.c **** #endif /* (CY_PSOC4) */
 753:.\Generated_Source\PSoC5/USBFS.c **** 
 754:.\Generated_Source\PSoC5/USBFS.c ****     CyExitCriticalSection(enableInterrupts);
 574              		.loc 1 754 0
 575 004e FB79     		ldrb	r3, [r7, #7]	@ zero_extendqisi2
 576 0050 1846     		mov	r0, r3
 577 0052 FFF7FEFF 		bl	CyExitCriticalSection
 755:.\Generated_Source\PSoC5/USBFS.c **** 
 756:.\Generated_Source\PSoC5/USBFS.c ****     /* Disable component interrupts. */
 757:.\Generated_Source\PSoC5/USBFS.c **** #if (CY_PSOC4)
 758:.\Generated_Source\PSoC5/USBFS.c ****     CyIntDisable(USBFS_INTR_HI_VECT_NUM);
 759:.\Generated_Source\PSoC5/USBFS.c ****     CyIntDisable(USBFS_INTR_LO_VECT_NUM);
 760:.\Generated_Source\PSoC5/USBFS.c ****     CyIntDisable(USBFS_INTR_MED_VECT_NUM);
 761:.\Generated_Source\PSoC5/USBFS.c **** #else
 762:.\Generated_Source\PSoC5/USBFS.c **** 
 763:.\Generated_Source\PSoC5/USBFS.c ****     CyIntDisable(USBFS_BUS_RESET_VECT_NUM);
 578              		.loc 1 763 0
 579 0056 154B     		ldr	r3, .L20+16
 580 0058 4FF40002 		mov	r2, #8388608
 581 005c 1A60     		str	r2, [r3]
 764:.\Generated_Source\PSoC5/USBFS.c ****     CyIntDisable(USBFS_EP_0_VECT_NUM);
 582              		.loc 1 764 0
 583 005e 134B     		ldr	r3, .L20+16
 584 0060 4FF08072 		mov	r2, #16777216
 585 0064 1A60     		str	r2, [r3]
 765:.\Generated_Source\PSoC5/USBFS.c **** 
 766:.\Generated_Source\PSoC5/USBFS.c ****     #if (USBFS_SOF_ISR_ACTIVE)
 767:.\Generated_Source\PSoC5/USBFS.c ****         CyIntDisable(USBFS_SOF_VECT_NUM);
 768:.\Generated_Source\PSoC5/USBFS.c ****     #endif /* (USBFS_SOF_ISR_ACTIVE) */
 769:.\Generated_Source\PSoC5/USBFS.c **** 
 770:.\Generated_Source\PSoC5/USBFS.c ****     #if (USBFS_EP1_ISR_ACTIVE)
 771:.\Generated_Source\PSoC5/USBFS.c ****         CyIntDisable(USBFS_EP_1_VECT_NUM);
 586              		.loc 1 771 0
 587 0066 114B     		ldr	r3, .L20+16
 588 0068 0822     		movs	r2, #8
 589 006a 1A60     		str	r2, [r3]
 772:.\Generated_Source\PSoC5/USBFS.c ****     #endif /* (USBFS_EP1_ISR_ACTIVE) */
 773:.\Generated_Source\PSoC5/USBFS.c **** 
 774:.\Generated_Source\PSoC5/USBFS.c ****     #if (USBFS_EP2_ISR_ACTIVE)
 775:.\Generated_Source\PSoC5/USBFS.c ****         CyIntDisable(USBFS_EP_2_VECT_NUM);
 776:.\Generated_Source\PSoC5/USBFS.c ****     #endif /* (USBFS_EP2_ISR_ACTIVE) */
 777:.\Generated_Source\PSoC5/USBFS.c **** 
 778:.\Generated_Source\PSoC5/USBFS.c ****     #if (USBFS_EP3_ISR_ACTIVE)
 779:.\Generated_Source\PSoC5/USBFS.c ****         CyIntDisable(USBFS_EP_3_VECT_NUM);
ARM GAS  C:\Users\LUKASC~1\AppData\Local\Temp\ccEgAQpP.s 			page 25


 780:.\Generated_Source\PSoC5/USBFS.c ****     #endif /* (USBFS_EP3_ISR_ACTIVE) */
 781:.\Generated_Source\PSoC5/USBFS.c **** 
 782:.\Generated_Source\PSoC5/USBFS.c ****     #if (USBFS_EP4_ISR_ACTIVE)
 783:.\Generated_Source\PSoC5/USBFS.c ****         CyIntDisable(USBFS_EP_4_VECT_NUM);
 784:.\Generated_Source\PSoC5/USBFS.c ****     #endif /* (USBFS_EP4_ISR_ACTIVE) */
 785:.\Generated_Source\PSoC5/USBFS.c **** 
 786:.\Generated_Source\PSoC5/USBFS.c ****     #if (USBFS_EP5_ISR_ACTIVE)
 787:.\Generated_Source\PSoC5/USBFS.c ****         CyIntDisable(USBFS_EP_5_VECT_NUM);
 788:.\Generated_Source\PSoC5/USBFS.c ****     #endif /* (USBFS_EP5_ISR_ACTIVE) */
 789:.\Generated_Source\PSoC5/USBFS.c **** 
 790:.\Generated_Source\PSoC5/USBFS.c ****     #if (USBFS_EP6_ISR_ACTIVE)
 791:.\Generated_Source\PSoC5/USBFS.c ****         CyIntDisable(USBFS_EP_6_VECT_NUM);
 590              		.loc 1 791 0
 591 006c 0F4B     		ldr	r3, .L20+16
 592 006e 1022     		movs	r2, #16
 593 0070 1A60     		str	r2, [r3]
 792:.\Generated_Source\PSoC5/USBFS.c ****     #endif /* USBFS_EP6_ISR_REMOVE */
 793:.\Generated_Source\PSoC5/USBFS.c **** 
 794:.\Generated_Source\PSoC5/USBFS.c ****     #if (USBFS_EP7_ISR_ACTIVE)
 795:.\Generated_Source\PSoC5/USBFS.c ****         CyIntDisable(USBFS_EP_7_VECT_NUM);
 796:.\Generated_Source\PSoC5/USBFS.c ****     #endif /* (USBFS_EP7_ISR_ACTIVE) */
 797:.\Generated_Source\PSoC5/USBFS.c **** 
 798:.\Generated_Source\PSoC5/USBFS.c ****     #if (USBFS_EP8_ISR_ACTIVE)
 799:.\Generated_Source\PSoC5/USBFS.c ****         CyIntDisable(USBFS_EP_8_VECT_NUM);
 800:.\Generated_Source\PSoC5/USBFS.c ****     #endif /* (USBFS_EP8_ISR_ACTIVE) */
 801:.\Generated_Source\PSoC5/USBFS.c **** #endif /* (CY_PSOC4) */
 802:.\Generated_Source\PSoC5/USBFS.c **** 
 803:.\Generated_Source\PSoC5/USBFS.c ****     /* Reset component internal variables. */
 804:.\Generated_Source\PSoC5/USBFS.c ****     USBFS_configurationChanged = 0u;
 594              		.loc 1 804 0
 595 0072 0F4B     		ldr	r3, .L20+20
 596 0074 0022     		movs	r2, #0
 597 0076 1A70     		strb	r2, [r3]
 805:.\Generated_Source\PSoC5/USBFS.c ****     USBFS_configuration   = 0u;
 598              		.loc 1 805 0
 599 0078 0E4B     		ldr	r3, .L20+24
 600 007a 0022     		movs	r2, #0
 601 007c 1A70     		strb	r2, [r3]
 806:.\Generated_Source\PSoC5/USBFS.c ****     USBFS_interfaceNumber = 0u;
 602              		.loc 1 806 0
 603 007e 0E4B     		ldr	r3, .L20+28
 604 0080 0022     		movs	r2, #0
 605 0082 1A70     		strb	r2, [r3]
 807:.\Generated_Source\PSoC5/USBFS.c ****     USBFS_deviceAddress   = 0u;
 606              		.loc 1 807 0
 607 0084 0D4B     		ldr	r3, .L20+32
 608 0086 0022     		movs	r2, #0
 609 0088 1A70     		strb	r2, [r3]
 808:.\Generated_Source\PSoC5/USBFS.c ****     USBFS_deviceStatus    = 0u;
 610              		.loc 1 808 0
 611 008a 0D4B     		ldr	r3, .L20+36
 612 008c 0022     		movs	r2, #0
 613 008e 1A70     		strb	r2, [r3]
 809:.\Generated_Source\PSoC5/USBFS.c **** 
 810:.\Generated_Source\PSoC5/USBFS.c ****     /* It is mandatory for correct device startup. */
 811:.\Generated_Source\PSoC5/USBFS.c ****     USBFS_initVar = 0u;
 614              		.loc 1 811 0
ARM GAS  C:\Users\LUKASC~1\AppData\Local\Temp\ccEgAQpP.s 			page 26


 615 0090 0C4B     		ldr	r3, .L20+40
 616 0092 0022     		movs	r2, #0
 617 0094 1A70     		strb	r2, [r3]
 812:.\Generated_Source\PSoC5/USBFS.c **** }
 618              		.loc 1 812 0
 619 0096 0837     		adds	r7, r7, #8
 620              		.cfi_def_cfa_offset 8
 621 0098 BD46     		mov	sp, r7
 622              		.cfi_def_cfa_register 13
 623              		@ sp needed
 624 009a 80BD     		pop	{r7, pc}
 625              	.L21:
 626              		.align	2
 627              	.L20:
 628 009c 08600040 		.word	1073766408
 629 00a0 12600040 		.word	1073766418
 630 00a4 A5430040 		.word	1073759141
 631 00a8 B5430040 		.word	1073759157
 632 00ac 80E100E0 		.word	-536813184
 633 00b0 00000000 		.word	USBFS_configurationChanged
 634 00b4 00000000 		.word	USBFS_configuration
 635 00b8 00000000 		.word	USBFS_interfaceNumber
 636 00bc 00000000 		.word	USBFS_deviceAddress
 637 00c0 00000000 		.word	USBFS_deviceStatus
 638 00c4 00000000 		.word	USBFS_initVar
 639              		.cfi_endproc
 640              	.LFE4:
 641              		.size	USBFS_Stop, .-USBFS_Stop
 642              		.section	.text.USBFS_CheckActivity,"ax",%progbits
 643              		.align	2
 644              		.global	USBFS_CheckActivity
 645              		.thumb
 646              		.thumb_func
 647              		.type	USBFS_CheckActivity, %function
 648              	USBFS_CheckActivity:
 649              	.LFB5:
 813:.\Generated_Source\PSoC5/USBFS.c **** 
 814:.\Generated_Source\PSoC5/USBFS.c **** 
 815:.\Generated_Source\PSoC5/USBFS.c **** /*******************************************************************************
 816:.\Generated_Source\PSoC5/USBFS.c **** * Function Name: USBFS_CheckActivity
 817:.\Generated_Source\PSoC5/USBFS.c **** ****************************************************************************//**
 818:.\Generated_Source\PSoC5/USBFS.c **** *
 819:.\Generated_Source\PSoC5/USBFS.c **** *  This function returns the activity status of the bus. It clears the hardware
 820:.\Generated_Source\PSoC5/USBFS.c **** *  status to provide updated status on the next call of this function. It
 821:.\Generated_Source\PSoC5/USBFS.c **** *  provides a way to determine whether any USB bus activity occurred. The
 822:.\Generated_Source\PSoC5/USBFS.c **** *  application should use this function to determine if the USB suspend
 823:.\Generated_Source\PSoC5/USBFS.c **** *  conditions are met.
 824:.\Generated_Source\PSoC5/USBFS.c **** *
 825:.\Generated_Source\PSoC5/USBFS.c **** *
 826:.\Generated_Source\PSoC5/USBFS.c **** * \return
 827:.\Generated_Source\PSoC5/USBFS.c **** *  cystatus: Status of the bus since the last call of the function.
 828:.\Generated_Source\PSoC5/USBFS.c **** *  Return Value |   Description
 829:.\Generated_Source\PSoC5/USBFS.c **** *  -------------|---------------------------------------------------------------
 830:.\Generated_Source\PSoC5/USBFS.c **** *  1            |Bus activity was detected since the last call to this function
 831:.\Generated_Source\PSoC5/USBFS.c **** *  0            |Bus activity was not detected since the last call to this function
 832:.\Generated_Source\PSoC5/USBFS.c **** *
 833:.\Generated_Source\PSoC5/USBFS.c **** *
ARM GAS  C:\Users\LUKASC~1\AppData\Local\Temp\ccEgAQpP.s 			page 27


 834:.\Generated_Source\PSoC5/USBFS.c **** *******************************************************************************/
 835:.\Generated_Source\PSoC5/USBFS.c **** uint8 USBFS_CheckActivity(void) 
 836:.\Generated_Source\PSoC5/USBFS.c **** {
 650              		.loc 1 836 0
 651              		.cfi_startproc
 652              		@ args = 0, pretend = 0, frame = 8
 653              		@ frame_needed = 1, uses_anonymous_args = 0
 654              		@ link register save eliminated.
 655 0000 80B4     		push	{r7}
 656              		.cfi_def_cfa_offset 4
 657              		.cfi_offset 7, -4
 658 0002 83B0     		sub	sp, sp, #12
 659              		.cfi_def_cfa_offset 16
 660 0004 00AF     		add	r7, sp, #0
 661              		.cfi_def_cfa_register 7
 837:.\Generated_Source\PSoC5/USBFS.c ****     uint8 cr1Reg = USBFS_CR1_REG;
 662              		.loc 1 837 0
 663 0006 0B4B     		ldr	r3, .L26
 664 0008 1B78     		ldrb	r3, [r3]
 665 000a FB71     		strb	r3, [r7, #7]
 838:.\Generated_Source\PSoC5/USBFS.c **** 
 839:.\Generated_Source\PSoC5/USBFS.c ****     /* Clear bus activity. */
 840:.\Generated_Source\PSoC5/USBFS.c ****     USBFS_CR1_REG = (cr1Reg & (uint8) ~USBFS_CR1_BUS_ACTIVITY);
 666              		.loc 1 840 0
 667 000c 094A     		ldr	r2, .L26
 668 000e FB79     		ldrb	r3, [r7, #7]
 669 0010 23F00403 		bic	r3, r3, #4
 670 0014 DBB2     		uxtb	r3, r3
 671 0016 1370     		strb	r3, [r2]
 841:.\Generated_Source\PSoC5/USBFS.c **** 
 842:.\Generated_Source\PSoC5/USBFS.c ****     /* Get bus activity. */
 843:.\Generated_Source\PSoC5/USBFS.c ****     return ((0u != (cr1Reg & USBFS_CR1_BUS_ACTIVITY)) ? (1u) : (0u));
 672              		.loc 1 843 0
 673 0018 FB79     		ldrb	r3, [r7, #7]	@ zero_extendqisi2
 674 001a 03F00403 		and	r3, r3, #4
 675 001e 002B     		cmp	r3, #0
 676 0020 01D0     		beq	.L23
 677              		.loc 1 843 0 is_stmt 0 discriminator 1
 678 0022 0123     		movs	r3, #1
 679 0024 00E0     		b	.L24
 680              	.L23:
 681              		.loc 1 843 0 discriminator 2
 682 0026 0023     		movs	r3, #0
 683              	.L24:
 844:.\Generated_Source\PSoC5/USBFS.c **** }
 684              		.loc 1 844 0 is_stmt 1 discriminator 4
 685 0028 1846     		mov	r0, r3
 686 002a 0C37     		adds	r7, r7, #12
 687              		.cfi_def_cfa_offset 4
 688 002c BD46     		mov	sp, r7
 689              		.cfi_def_cfa_register 13
 690              		@ sp needed
 691 002e 5DF8047B 		ldr	r7, [sp], #4
 692              		.cfi_restore 7
 693              		.cfi_def_cfa_offset 0
 694 0032 7047     		bx	lr
 695              	.L27:
ARM GAS  C:\Users\LUKASC~1\AppData\Local\Temp\ccEgAQpP.s 			page 28


 696              		.align	2
 697              	.L26:
 698 0034 09600040 		.word	1073766409
 699              		.cfi_endproc
 700              	.LFE5:
 701              		.size	USBFS_CheckActivity, .-USBFS_CheckActivity
 702              		.section	.text.USBFS_GetConfiguration,"ax",%progbits
 703              		.align	2
 704              		.global	USBFS_GetConfiguration
 705              		.thumb
 706              		.thumb_func
 707              		.type	USBFS_GetConfiguration, %function
 708              	USBFS_GetConfiguration:
 709              	.LFB6:
 845:.\Generated_Source\PSoC5/USBFS.c **** 
 846:.\Generated_Source\PSoC5/USBFS.c **** 
 847:.\Generated_Source\PSoC5/USBFS.c **** /*******************************************************************************
 848:.\Generated_Source\PSoC5/USBFS.c **** * Function Name: USBFS_GetConfiguration
 849:.\Generated_Source\PSoC5/USBFS.c **** ****************************************************************************//**
 850:.\Generated_Source\PSoC5/USBFS.c **** *
 851:.\Generated_Source\PSoC5/USBFS.c **** *  This function gets the current configuration of the USB device.
 852:.\Generated_Source\PSoC5/USBFS.c **** *
 853:.\Generated_Source\PSoC5/USBFS.c **** * \return
 854:.\Generated_Source\PSoC5/USBFS.c **** *  Returns the currently assigned configuration. Returns 0 if the device
 855:.\Generated_Source\PSoC5/USBFS.c **** *  is not configured
 856:.\Generated_Source\PSoC5/USBFS.c **** *
 857:.\Generated_Source\PSoC5/USBFS.c **** *******************************************************************************/
 858:.\Generated_Source\PSoC5/USBFS.c **** uint8 USBFS_GetConfiguration(void) 
 859:.\Generated_Source\PSoC5/USBFS.c **** {
 710              		.loc 1 859 0
 711              		.cfi_startproc
 712              		@ args = 0, pretend = 0, frame = 0
 713              		@ frame_needed = 1, uses_anonymous_args = 0
 714              		@ link register save eliminated.
 715 0000 80B4     		push	{r7}
 716              		.cfi_def_cfa_offset 4
 717              		.cfi_offset 7, -4
 718 0002 00AF     		add	r7, sp, #0
 719              		.cfi_def_cfa_register 7
 860:.\Generated_Source\PSoC5/USBFS.c ****     return (USBFS_configuration);
 720              		.loc 1 860 0
 721 0004 034B     		ldr	r3, .L30
 722 0006 1B78     		ldrb	r3, [r3]
 723 0008 DBB2     		uxtb	r3, r3
 861:.\Generated_Source\PSoC5/USBFS.c **** }
 724              		.loc 1 861 0
 725 000a 1846     		mov	r0, r3
 726 000c BD46     		mov	sp, r7
 727              		.cfi_def_cfa_register 13
 728              		@ sp needed
 729 000e 5DF8047B 		ldr	r7, [sp], #4
 730              		.cfi_restore 7
 731              		.cfi_def_cfa_offset 0
 732 0012 7047     		bx	lr
 733              	.L31:
 734              		.align	2
 735              	.L30:
ARM GAS  C:\Users\LUKASC~1\AppData\Local\Temp\ccEgAQpP.s 			page 29


 736 0014 00000000 		.word	USBFS_configuration
 737              		.cfi_endproc
 738              	.LFE6:
 739              		.size	USBFS_GetConfiguration, .-USBFS_GetConfiguration
 740              		.section	.text.USBFS_IsConfigurationChanged,"ax",%progbits
 741              		.align	2
 742              		.global	USBFS_IsConfigurationChanged
 743              		.thumb
 744              		.thumb_func
 745              		.type	USBFS_IsConfigurationChanged, %function
 746              	USBFS_IsConfigurationChanged:
 747              	.LFB7:
 862:.\Generated_Source\PSoC5/USBFS.c **** 
 863:.\Generated_Source\PSoC5/USBFS.c **** 
 864:.\Generated_Source\PSoC5/USBFS.c **** /*******************************************************************************
 865:.\Generated_Source\PSoC5/USBFS.c **** * Function Name: USBFS_IsConfigurationChanged
 866:.\Generated_Source\PSoC5/USBFS.c **** ****************************************************************************//**
 867:.\Generated_Source\PSoC5/USBFS.c **** *
 868:.\Generated_Source\PSoC5/USBFS.c **** *  This function returns the clear-on-read configuration state.  It is useful
 869:.\Generated_Source\PSoC5/USBFS.c **** *  when the host sends double SET_CONFIGURATION request with the same 
 870:.\Generated_Source\PSoC5/USBFS.c **** *  configuration number or changes alternate settings of the interface. 
 871:.\Generated_Source\PSoC5/USBFS.c **** *  After configuration has been changed the OUT endpoints must be enabled and IN 
 872:.\Generated_Source\PSoC5/USBFS.c **** *  endpoint must be loaded with data to start communication with the host.
 873:.\Generated_Source\PSoC5/USBFS.c **** *
 874:.\Generated_Source\PSoC5/USBFS.c **** * \return
 875:.\Generated_Source\PSoC5/USBFS.c **** *  None-zero value when new configuration has been changed, otherwise zero is
 876:.\Generated_Source\PSoC5/USBFS.c **** *  returned.
 877:.\Generated_Source\PSoC5/USBFS.c **** *
 878:.\Generated_Source\PSoC5/USBFS.c **** * \globalvars
 879:.\Generated_Source\PSoC5/USBFS.c **** *
 880:.\Generated_Source\PSoC5/USBFS.c **** *  \ref USBFS_configurationChanged - This variable is set to 1 after
 881:.\Generated_Source\PSoC5/USBFS.c **** *   a SET_CONFIGURATION request and cleared in this function.
 882:.\Generated_Source\PSoC5/USBFS.c **** *
 883:.\Generated_Source\PSoC5/USBFS.c **** *******************************************************************************/
 884:.\Generated_Source\PSoC5/USBFS.c **** uint8 USBFS_IsConfigurationChanged(void) 
 885:.\Generated_Source\PSoC5/USBFS.c **** {
 748              		.loc 1 885 0
 749              		.cfi_startproc
 750              		@ args = 0, pretend = 0, frame = 8
 751              		@ frame_needed = 1, uses_anonymous_args = 0
 752              		@ link register save eliminated.
 753 0000 80B4     		push	{r7}
 754              		.cfi_def_cfa_offset 4
 755              		.cfi_offset 7, -4
 756 0002 83B0     		sub	sp, sp, #12
 757              		.cfi_def_cfa_offset 16
 758 0004 00AF     		add	r7, sp, #0
 759              		.cfi_def_cfa_register 7
 886:.\Generated_Source\PSoC5/USBFS.c ****     uint8 res = 0u;
 760              		.loc 1 886 0
 761 0006 0023     		movs	r3, #0
 762 0008 FB71     		strb	r3, [r7, #7]
 887:.\Generated_Source\PSoC5/USBFS.c **** 
 888:.\Generated_Source\PSoC5/USBFS.c ****     if (USBFS_configurationChanged != 0u)
 763              		.loc 1 888 0
 764 000a 094B     		ldr	r3, .L35
 765 000c 1B78     		ldrb	r3, [r3]
ARM GAS  C:\Users\LUKASC~1\AppData\Local\Temp\ccEgAQpP.s 			page 30


 766 000e DBB2     		uxtb	r3, r3
 767 0010 002B     		cmp	r3, #0
 768 0012 05D0     		beq	.L33
 889:.\Generated_Source\PSoC5/USBFS.c ****     {
 890:.\Generated_Source\PSoC5/USBFS.c ****         res = USBFS_configurationChanged;
 769              		.loc 1 890 0
 770 0014 064B     		ldr	r3, .L35
 771 0016 1B78     		ldrb	r3, [r3]
 772 0018 FB71     		strb	r3, [r7, #7]
 891:.\Generated_Source\PSoC5/USBFS.c ****         USBFS_configurationChanged = 0u;
 773              		.loc 1 891 0
 774 001a 054B     		ldr	r3, .L35
 775 001c 0022     		movs	r2, #0
 776 001e 1A70     		strb	r2, [r3]
 777              	.L33:
 892:.\Generated_Source\PSoC5/USBFS.c ****     }
 893:.\Generated_Source\PSoC5/USBFS.c **** 
 894:.\Generated_Source\PSoC5/USBFS.c ****     return (res);
 778              		.loc 1 894 0
 779 0020 FB79     		ldrb	r3, [r7, #7]	@ zero_extendqisi2
 895:.\Generated_Source\PSoC5/USBFS.c **** }
 780              		.loc 1 895 0
 781 0022 1846     		mov	r0, r3
 782 0024 0C37     		adds	r7, r7, #12
 783              		.cfi_def_cfa_offset 4
 784 0026 BD46     		mov	sp, r7
 785              		.cfi_def_cfa_register 13
 786              		@ sp needed
 787 0028 5DF8047B 		ldr	r7, [sp], #4
 788              		.cfi_restore 7
 789              		.cfi_def_cfa_offset 0
 790 002c 7047     		bx	lr
 791              	.L36:
 792 002e 00BF     		.align	2
 793              	.L35:
 794 0030 00000000 		.word	USBFS_configurationChanged
 795              		.cfi_endproc
 796              	.LFE7:
 797              		.size	USBFS_IsConfigurationChanged, .-USBFS_IsConfigurationChanged
 798              		.section	.text.USBFS_GetInterfaceSetting,"ax",%progbits
 799              		.align	2
 800              		.global	USBFS_GetInterfaceSetting
 801              		.thumb
 802              		.thumb_func
 803              		.type	USBFS_GetInterfaceSetting, %function
 804              	USBFS_GetInterfaceSetting:
 805              	.LFB8:
 896:.\Generated_Source\PSoC5/USBFS.c **** 
 897:.\Generated_Source\PSoC5/USBFS.c **** 
 898:.\Generated_Source\PSoC5/USBFS.c **** /*******************************************************************************
 899:.\Generated_Source\PSoC5/USBFS.c **** * Function Name: USBFS_GetInterfaceSetting
 900:.\Generated_Source\PSoC5/USBFS.c **** ****************************************************************************//**
 901:.\Generated_Source\PSoC5/USBFS.c **** *
 902:.\Generated_Source\PSoC5/USBFS.c **** *  This function gets the current alternate setting for the specified interface.
 903:.\Generated_Source\PSoC5/USBFS.c **** *  It is useful to identify which alternate settings are active in the specified 
 904:.\Generated_Source\PSoC5/USBFS.c **** *  interface.
 905:.\Generated_Source\PSoC5/USBFS.c **** *
ARM GAS  C:\Users\LUKASC~1\AppData\Local\Temp\ccEgAQpP.s 			page 31


 906:.\Generated_Source\PSoC5/USBFS.c **** *  \param
 907:.\Generated_Source\PSoC5/USBFS.c **** *  interfaceNumber interface number
 908:.\Generated_Source\PSoC5/USBFS.c **** *
 909:.\Generated_Source\PSoC5/USBFS.c **** * \return
 910:.\Generated_Source\PSoC5/USBFS.c **** *  Returns the current alternate setting for the specified interface.
 911:.\Generated_Source\PSoC5/USBFS.c **** *
 912:.\Generated_Source\PSoC5/USBFS.c **** *******************************************************************************/
 913:.\Generated_Source\PSoC5/USBFS.c **** uint8  USBFS_GetInterfaceSetting(uint8 interfaceNumber)
 914:.\Generated_Source\PSoC5/USBFS.c ****                                                     
 915:.\Generated_Source\PSoC5/USBFS.c **** {
 806              		.loc 1 915 0
 807              		.cfi_startproc
 808              		@ args = 0, pretend = 0, frame = 8
 809              		@ frame_needed = 1, uses_anonymous_args = 0
 810              		@ link register save eliminated.
 811 0000 80B4     		push	{r7}
 812              		.cfi_def_cfa_offset 4
 813              		.cfi_offset 7, -4
 814 0002 83B0     		sub	sp, sp, #12
 815              		.cfi_def_cfa_offset 16
 816 0004 00AF     		add	r7, sp, #0
 817              		.cfi_def_cfa_register 7
 818 0006 0346     		mov	r3, r0
 819 0008 FB71     		strb	r3, [r7, #7]
 916:.\Generated_Source\PSoC5/USBFS.c ****     return (USBFS_interfaceSetting[interfaceNumber]);
 820              		.loc 1 916 0
 821 000a FB79     		ldrb	r3, [r7, #7]	@ zero_extendqisi2
 822 000c 044A     		ldr	r2, .L39
 823 000e D35C     		ldrb	r3, [r2, r3]
 824 0010 DBB2     		uxtb	r3, r3
 917:.\Generated_Source\PSoC5/USBFS.c **** }
 825              		.loc 1 917 0
 826 0012 1846     		mov	r0, r3
 827 0014 0C37     		adds	r7, r7, #12
 828              		.cfi_def_cfa_offset 4
 829 0016 BD46     		mov	sp, r7
 830              		.cfi_def_cfa_register 13
 831              		@ sp needed
 832 0018 5DF8047B 		ldr	r7, [sp], #4
 833              		.cfi_restore 7
 834              		.cfi_def_cfa_offset 0
 835 001c 7047     		bx	lr
 836              	.L40:
 837 001e 00BF     		.align	2
 838              	.L39:
 839 0020 00000000 		.word	USBFS_interfaceSetting
 840              		.cfi_endproc
 841              	.LFE8:
 842              		.size	USBFS_GetInterfaceSetting, .-USBFS_GetInterfaceSetting
 843              		.section	.text.USBFS_GetEPState,"ax",%progbits
 844              		.align	2
 845              		.global	USBFS_GetEPState
 846              		.thumb
 847              		.thumb_func
 848              		.type	USBFS_GetEPState, %function
 849              	USBFS_GetEPState:
 850              	.LFB9:
ARM GAS  C:\Users\LUKASC~1\AppData\Local\Temp\ccEgAQpP.s 			page 32


 918:.\Generated_Source\PSoC5/USBFS.c **** 
 919:.\Generated_Source\PSoC5/USBFS.c **** 
 920:.\Generated_Source\PSoC5/USBFS.c **** /*******************************************************************************
 921:.\Generated_Source\PSoC5/USBFS.c **** * Function Name: USBFS_GetEPState
 922:.\Generated_Source\PSoC5/USBFS.c **** ****************************************************************************//**
 923:.\Generated_Source\PSoC5/USBFS.c **** *
 924:.\Generated_Source\PSoC5/USBFS.c **** *  This function returns the state of the requested endpoint.
 925:.\Generated_Source\PSoC5/USBFS.c **** *
 926:.\Generated_Source\PSoC5/USBFS.c **** * \param epNumber Data endpoint number
 927:.\Generated_Source\PSoC5/USBFS.c **** *
 928:.\Generated_Source\PSoC5/USBFS.c **** * \return
 929:.\Generated_Source\PSoC5/USBFS.c **** *  Returns the current state of the specified USBFS endpoint. Symbolic names and
 930:.\Generated_Source\PSoC5/USBFS.c **** *  their associated values are given in the following table. Use these constants
 931:.\Generated_Source\PSoC5/USBFS.c **** *  whenever you write code to change the state of the endpoints, such as ISR
 932:.\Generated_Source\PSoC5/USBFS.c **** *  code, to handle data sent or received.
 933:.\Generated_Source\PSoC5/USBFS.c **** *
 934:.\Generated_Source\PSoC5/USBFS.c **** *  Return Value           | Description
 935:.\Generated_Source\PSoC5/USBFS.c **** *  -----------------------|-----------------------------------------------------
 936:.\Generated_Source\PSoC5/USBFS.c **** *  USBFS_NO_EVENT_PENDING |The endpoint is awaiting SIE action
 937:.\Generated_Source\PSoC5/USBFS.c **** *  USBFS_EVENT_PENDING    |The endpoint is awaiting CPU action
 938:.\Generated_Source\PSoC5/USBFS.c **** *  USBFS_NO_EVENT_ALLOWED |The endpoint is locked from access
 939:.\Generated_Source\PSoC5/USBFS.c **** *  USBFS_IN_BUFFER_FULL   |The IN endpoint is loaded and the mode is set to ACK IN
 940:.\Generated_Source\PSoC5/USBFS.c **** *  USBFS_IN_BUFFER_EMPTY  |An IN transaction occurred and more data can be loaded
 941:.\Generated_Source\PSoC5/USBFS.c **** *  USBFS_OUT_BUFFER_EMPTY |The OUT endpoint is set to ACK OUT and is waiting for data
 942:.\Generated_Source\PSoC5/USBFS.c **** *  USBFS_OUT_BUFFER_FULL  |An OUT transaction has occurred and data can be read
 943:.\Generated_Source\PSoC5/USBFS.c **** *
 944:.\Generated_Source\PSoC5/USBFS.c **** *******************************************************************************/
 945:.\Generated_Source\PSoC5/USBFS.c **** uint8 USBFS_GetEPState(uint8 epNumber) 
 946:.\Generated_Source\PSoC5/USBFS.c **** {
 851              		.loc 1 946 0
 852              		.cfi_startproc
 853              		@ args = 0, pretend = 0, frame = 8
 854              		@ frame_needed = 1, uses_anonymous_args = 0
 855              		@ link register save eliminated.
 856 0000 80B4     		push	{r7}
 857              		.cfi_def_cfa_offset 4
 858              		.cfi_offset 7, -4
 859 0002 83B0     		sub	sp, sp, #12
 860              		.cfi_def_cfa_offset 16
 861 0004 00AF     		add	r7, sp, #0
 862              		.cfi_def_cfa_register 7
 863 0006 0346     		mov	r3, r0
 864 0008 FB71     		strb	r3, [r7, #7]
 947:.\Generated_Source\PSoC5/USBFS.c ****     return (USBFS_EP[epNumber].apiEpState);
 865              		.loc 1 947 0
 866 000a FA79     		ldrb	r2, [r7, #7]	@ zero_extendqisi2
 867 000c 0649     		ldr	r1, .L43
 868 000e 1346     		mov	r3, r2
 869 0010 5B00     		lsls	r3, r3, #1
 870 0012 1344     		add	r3, r3, r2
 871 0014 9B00     		lsls	r3, r3, #2
 872 0016 0B44     		add	r3, r3, r1
 873 0018 5B78     		ldrb	r3, [r3, #1]
 874 001a DBB2     		uxtb	r3, r3
 948:.\Generated_Source\PSoC5/USBFS.c **** }
 875              		.loc 1 948 0
 876 001c 1846     		mov	r0, r3
ARM GAS  C:\Users\LUKASC~1\AppData\Local\Temp\ccEgAQpP.s 			page 33


 877 001e 0C37     		adds	r7, r7, #12
 878              		.cfi_def_cfa_offset 4
 879 0020 BD46     		mov	sp, r7
 880              		.cfi_def_cfa_register 13
 881              		@ sp needed
 882 0022 5DF8047B 		ldr	r7, [sp], #4
 883              		.cfi_restore 7
 884              		.cfi_def_cfa_offset 0
 885 0026 7047     		bx	lr
 886              	.L44:
 887              		.align	2
 888              	.L43:
 889 0028 00000000 		.word	USBFS_EP
 890              		.cfi_endproc
 891              	.LFE9:
 892              		.size	USBFS_GetEPState, .-USBFS_GetEPState
 893              		.section	.text.USBFS_GetEPCount,"ax",%progbits
 894              		.align	2
 895              		.global	USBFS_GetEPCount
 896              		.thumb
 897              		.thumb_func
 898              		.type	USBFS_GetEPCount, %function
 899              	USBFS_GetEPCount:
 900              	.LFB10:
 949:.\Generated_Source\PSoC5/USBFS.c **** 
 950:.\Generated_Source\PSoC5/USBFS.c **** 
 951:.\Generated_Source\PSoC5/USBFS.c **** /*******************************************************************************
 952:.\Generated_Source\PSoC5/USBFS.c **** * Function Name: USBFS_GetEPCount
 953:.\Generated_Source\PSoC5/USBFS.c **** ****************************************************************************//**
 954:.\Generated_Source\PSoC5/USBFS.c **** *
 955:.\Generated_Source\PSoC5/USBFS.c **** *  This function supports Data Endpoints only(EP1-EP8).
 956:.\Generated_Source\PSoC5/USBFS.c **** *  Returns the transfer count for the requested endpoint.  The value from
 957:.\Generated_Source\PSoC5/USBFS.c **** *  the count registers includes 2 counts for the two byte checksum of the
 958:.\Generated_Source\PSoC5/USBFS.c **** *  packet.  This function subtracts the two counts.
 959:.\Generated_Source\PSoC5/USBFS.c **** *
 960:.\Generated_Source\PSoC5/USBFS.c **** *  \param epNumber Data Endpoint Number.
 961:.\Generated_Source\PSoC5/USBFS.c **** *                   Valid values are between 1 and 8.
 962:.\Generated_Source\PSoC5/USBFS.c **** *
 963:.\Generated_Source\PSoC5/USBFS.c **** * \return
 964:.\Generated_Source\PSoC5/USBFS.c **** *  Returns the current byte count from the specified endpoint or 0 for an
 965:.\Generated_Source\PSoC5/USBFS.c **** *  invalid endpoint.
 966:.\Generated_Source\PSoC5/USBFS.c **** *
 967:.\Generated_Source\PSoC5/USBFS.c **** *******************************************************************************/
 968:.\Generated_Source\PSoC5/USBFS.c **** uint16 USBFS_GetEPCount(uint8 epNumber) 
 969:.\Generated_Source\PSoC5/USBFS.c **** {
 901              		.loc 1 969 0
 902              		.cfi_startproc
 903              		@ args = 0, pretend = 0, frame = 16
 904              		@ frame_needed = 1, uses_anonymous_args = 0
 905              		@ link register save eliminated.
 906 0000 80B4     		push	{r7}
 907              		.cfi_def_cfa_offset 4
 908              		.cfi_offset 7, -4
 909 0002 85B0     		sub	sp, sp, #20
 910              		.cfi_def_cfa_offset 24
 911 0004 00AF     		add	r7, sp, #0
 912              		.cfi_def_cfa_register 7
ARM GAS  C:\Users\LUKASC~1\AppData\Local\Temp\ccEgAQpP.s 			page 34


 913 0006 0346     		mov	r3, r0
 914 0008 FB71     		strb	r3, [r7, #7]
 970:.\Generated_Source\PSoC5/USBFS.c ****     uint16 cntr = 0u;
 915              		.loc 1 970 0
 916 000a 0023     		movs	r3, #0
 917 000c FB81     		strh	r3, [r7, #14]	@ movhi
 971:.\Generated_Source\PSoC5/USBFS.c **** 
 972:.\Generated_Source\PSoC5/USBFS.c ****     if ((epNumber > USBFS_EP0) && (epNumber < USBFS_MAX_EP))
 918              		.loc 1 972 0
 919 000e FB79     		ldrb	r3, [r7, #7]	@ zero_extendqisi2
 920 0010 002B     		cmp	r3, #0
 921 0012 1BD0     		beq	.L46
 922              		.loc 1 972 0 is_stmt 0 discriminator 1
 923 0014 FB79     		ldrb	r3, [r7, #7]	@ zero_extendqisi2
 924 0016 082B     		cmp	r3, #8
 925 0018 18D8     		bhi	.L46
 973:.\Generated_Source\PSoC5/USBFS.c ****     {
 974:.\Generated_Source\PSoC5/USBFS.c ****         /* Get 11-bits EP counter where epCnt0 - 3 bits MSB and epCnt1 - 8 bits LSB. */
 975:.\Generated_Source\PSoC5/USBFS.c ****         cntr  = ((uint16) USBFS_SIE_EP_BASE.sieEp[epNumber].epCnt0) & USBFS_EPX_CNT0_MASK;
 926              		.loc 1 975 0 is_stmt 1
 927 001a 104A     		ldr	r2, .L48
 928 001c FB79     		ldrb	r3, [r7, #7]	@ zero_extendqisi2
 929 001e 1B01     		lsls	r3, r3, #4
 930 0020 1344     		add	r3, r3, r2
 931 0022 1B78     		ldrb	r3, [r3]
 932 0024 DBB2     		uxtb	r3, r3
 933 0026 9BB2     		uxth	r3, r3
 934 0028 03F00F03 		and	r3, r3, #15
 935 002c FB81     		strh	r3, [r7, #14]	@ movhi
 976:.\Generated_Source\PSoC5/USBFS.c ****         cntr  = ((uint16) (cntr << 8u)) | ((uint16) USBFS_SIE_EP_BASE.sieEp[epNumber].epCnt1);
 936              		.loc 1 976 0
 937 002e FB89     		ldrh	r3, [r7, #14]	@ movhi
 938 0030 1B02     		lsls	r3, r3, #8
 939 0032 9AB2     		uxth	r2, r3
 940 0034 0949     		ldr	r1, .L48
 941 0036 FB79     		ldrb	r3, [r7, #7]	@ zero_extendqisi2
 942 0038 1B01     		lsls	r3, r3, #4
 943 003a 0B44     		add	r3, r3, r1
 944 003c 5B78     		ldrb	r3, [r3, #1]
 945 003e DBB2     		uxtb	r3, r3
 946 0040 9BB2     		uxth	r3, r3
 947 0042 1343     		orrs	r3, r3, r2
 948 0044 FB81     		strh	r3, [r7, #14]	@ movhi
 977:.\Generated_Source\PSoC5/USBFS.c ****         cntr -= USBFS_EPX_CNTX_CRC_COUNT;
 949              		.loc 1 977 0
 950 0046 FB89     		ldrh	r3, [r7, #14]	@ movhi
 951 0048 023B     		subs	r3, r3, #2
 952 004a FB81     		strh	r3, [r7, #14]	@ movhi
 953              	.L46:
 978:.\Generated_Source\PSoC5/USBFS.c ****     }
 979:.\Generated_Source\PSoC5/USBFS.c **** 
 980:.\Generated_Source\PSoC5/USBFS.c ****     return (cntr);
 954              		.loc 1 980 0
 955 004c FB89     		ldrh	r3, [r7, #14]
 981:.\Generated_Source\PSoC5/USBFS.c **** }
 956              		.loc 1 981 0
 957 004e 1846     		mov	r0, r3
ARM GAS  C:\Users\LUKASC~1\AppData\Local\Temp\ccEgAQpP.s 			page 35


 958 0050 1437     		adds	r7, r7, #20
 959              		.cfi_def_cfa_offset 4
 960 0052 BD46     		mov	sp, r7
 961              		.cfi_def_cfa_register 13
 962              		@ sp needed
 963 0054 5DF8047B 		ldr	r7, [sp], #4
 964              		.cfi_restore 7
 965              		.cfi_def_cfa_offset 0
 966 0058 7047     		bx	lr
 967              	.L49:
 968 005a 00BF     		.align	2
 969              	.L48:
 970 005c FC5F0040 		.word	1073766396
 971              		.cfi_endproc
 972              	.LFE10:
 973              		.size	USBFS_GetEPCount, .-USBFS_GetEPCount
 974              		.section	.text.USBFS_LoadInEP,"ax",%progbits
 975              		.align	2
 976              		.global	USBFS_LoadInEP
 977              		.thumb
 978              		.thumb_func
 979              		.type	USBFS_LoadInEP, %function
 980              	USBFS_LoadInEP:
 981              	.LFB11:
 982:.\Generated_Source\PSoC5/USBFS.c **** 
 983:.\Generated_Source\PSoC5/USBFS.c **** 
 984:.\Generated_Source\PSoC5/USBFS.c **** #if (USBFS_EP_MANAGEMENT_DMA)
 985:.\Generated_Source\PSoC5/USBFS.c **** #if (CY_PSOC4)
 986:.\Generated_Source\PSoC5/USBFS.c ****     /*******************************************************************************
 987:.\Generated_Source\PSoC5/USBFS.c ****     * Function Name: USBFS_InitEpDma
 988:.\Generated_Source\PSoC5/USBFS.c ****     ****************************************************************************//**
 989:.\Generated_Source\PSoC5/USBFS.c ****     *
 990:.\Generated_Source\PSoC5/USBFS.c ****     *  This function configures priority for all DMA channels utilized by the
 991:.\Generated_Source\PSoC5/USBFS.c ****     *  component. Also sets callbacks for DMA auto mode.
 992:.\Generated_Source\PSoC5/USBFS.c ****     *
 993:.\Generated_Source\PSoC5/USBFS.c ****     *******************************************************************************/
 994:.\Generated_Source\PSoC5/USBFS.c ****     static void USBFS_InitEpDma(void)
 995:.\Generated_Source\PSoC5/USBFS.c ****     {
 996:.\Generated_Source\PSoC5/USBFS.c ****     #if (USBFS_DMA1_ACTIVE)
 997:.\Generated_Source\PSoC5/USBFS.c ****         CYDMA_CH_CTL_BASE.ctl[USBFS_ep1_dma_CHANNEL] = USBFS_ep1_dma_CHANNEL_CFG;
 998:.\Generated_Source\PSoC5/USBFS.c ****     #endif /* (USBFS_DMA1_ACTIVE) */
 999:.\Generated_Source\PSoC5/USBFS.c **** 
1000:.\Generated_Source\PSoC5/USBFS.c ****     #if (USBFS_DMA2_ACTIVE)
1001:.\Generated_Source\PSoC5/USBFS.c ****         CYDMA_CH_CTL_BASE.ctl[USBFS_ep2_dma_CHANNEL] = USBFS_ep2_dma_CHANNEL_CFG;
1002:.\Generated_Source\PSoC5/USBFS.c ****     #endif /* (USBFS_DMA2_ACTIVE) */
1003:.\Generated_Source\PSoC5/USBFS.c **** 
1004:.\Generated_Source\PSoC5/USBFS.c ****     #if (USBFS_DMA3_ACTIVE)
1005:.\Generated_Source\PSoC5/USBFS.c ****         CYDMA_CH_CTL_BASE.ctl[USBFS_ep3_dma_CHANNEL] = USBFS_ep3_dma_CHANNEL_CFG;
1006:.\Generated_Source\PSoC5/USBFS.c ****     #endif /* (USBFS_DMA3_ACTIVE) */
1007:.\Generated_Source\PSoC5/USBFS.c **** 
1008:.\Generated_Source\PSoC5/USBFS.c ****     #if (USBFS_DMA4_ACTIVE)
1009:.\Generated_Source\PSoC5/USBFS.c ****         CYDMA_CH_CTL_BASE.ctl[USBFS_ep4_dma_CHANNEL] = USBFS_ep4_dma_CHANNEL_CFG;
1010:.\Generated_Source\PSoC5/USBFS.c ****     #endif /* (USBFS_DMA4_ACTIVE) */
1011:.\Generated_Source\PSoC5/USBFS.c **** 
1012:.\Generated_Source\PSoC5/USBFS.c ****     #if (USBFS_DMA5_ACTIVE)
1013:.\Generated_Source\PSoC5/USBFS.c ****         CYDMA_CH_CTL_BASE.ctl[USBFS_ep5_dma_CHANNEL] = USBFS_ep5_dma_CHANNEL_CFG;
1014:.\Generated_Source\PSoC5/USBFS.c ****     #endif /* (USBFS_DMA5_ACTIVE) */
ARM GAS  C:\Users\LUKASC~1\AppData\Local\Temp\ccEgAQpP.s 			page 36


1015:.\Generated_Source\PSoC5/USBFS.c **** 
1016:.\Generated_Source\PSoC5/USBFS.c ****     #if (USBFS_DMA6_ACTIVE)
1017:.\Generated_Source\PSoC5/USBFS.c ****         CYDMA_CH_CTL_BASE.ctl[USBFS_ep6_dma_CHANNEL] = USBFS_ep6_dma_CHANNEL_CFG;
1018:.\Generated_Source\PSoC5/USBFS.c ****     #endif /* (USBFS_DMA6_ACTIVE) */
1019:.\Generated_Source\PSoC5/USBFS.c **** 
1020:.\Generated_Source\PSoC5/USBFS.c ****     #if (USBFS_DMA7_ACTIVE)
1021:.\Generated_Source\PSoC5/USBFS.c ****         CYDMA_CH_CTL_BASE.ctl[USBFS_ep7_dma_CHANNEL] = USBFS_ep7_dma_CHANNEL_CFG;
1022:.\Generated_Source\PSoC5/USBFS.c ****     #endif /* (USBFS_DMA7_ACTIVE) */
1023:.\Generated_Source\PSoC5/USBFS.c **** 
1024:.\Generated_Source\PSoC5/USBFS.c ****     #if (USBFS_DMA8_ACTIVE)
1025:.\Generated_Source\PSoC5/USBFS.c ****         CYDMA_CH_CTL_BASE.ctl[USBFS_ep8_dma_CHANNEL] = USBFS_ep8_dma_CHANNEL_CFG;
1026:.\Generated_Source\PSoC5/USBFS.c ****     #endif /* (USBFS_DMA8_ACTIVE) */
1027:.\Generated_Source\PSoC5/USBFS.c **** 
1028:.\Generated_Source\PSoC5/USBFS.c ****     #if (USBFS_EP_MANAGEMENT_DMA_AUTO)
1029:.\Generated_Source\PSoC5/USBFS.c ****         /* Initialize DMA channel callbacks. */
1030:.\Generated_Source\PSoC5/USBFS.c ****         #if (USBFS_DMA1_ACTIVE)
1031:.\Generated_Source\PSoC5/USBFS.c ****             (void) USBFS_ep1_dma_SetInterruptCallback(&USBFS_EP1_DMA_DONE_ISR);
1032:.\Generated_Source\PSoC5/USBFS.c ****         #endif /* (USBFS_DMA1_ACTIVE) */
1033:.\Generated_Source\PSoC5/USBFS.c **** 
1034:.\Generated_Source\PSoC5/USBFS.c ****         #if (USBFS_DMA2_ACTIVE)
1035:.\Generated_Source\PSoC5/USBFS.c ****             (void) USBFS_ep2_dma_SetInterruptCallback(&USBFS_EP2_DMA_DONE_ISR);
1036:.\Generated_Source\PSoC5/USBFS.c ****         #endif /* (USBFS_DMA2_ACTIVE) */
1037:.\Generated_Source\PSoC5/USBFS.c **** 
1038:.\Generated_Source\PSoC5/USBFS.c ****         #if (USBFS_DMA3_ACTIVE)
1039:.\Generated_Source\PSoC5/USBFS.c ****             (void) USBFS_ep3_dma_SetInterruptCallback(&USBFS_EP3_DMA_DONE_ISR);
1040:.\Generated_Source\PSoC5/USBFS.c ****         #endif /* (USBFS_DMA3_ACTIVE) */
1041:.\Generated_Source\PSoC5/USBFS.c **** 
1042:.\Generated_Source\PSoC5/USBFS.c ****         #if (USBFS_DMA4_ACTIVE)
1043:.\Generated_Source\PSoC5/USBFS.c ****             (void) USBFS_ep4_dma_SetInterruptCallback(&USBFS_EP4_DMA_DONE_ISR);
1044:.\Generated_Source\PSoC5/USBFS.c ****         #endif /* (USBFS_DMA4_ACTIVE) */
1045:.\Generated_Source\PSoC5/USBFS.c **** 
1046:.\Generated_Source\PSoC5/USBFS.c ****         #if (USBFS_DMA5_ACTIVE)
1047:.\Generated_Source\PSoC5/USBFS.c ****             (void) USBFS_ep5_dma_SetInterruptCallback(&USBFS_EP5_DMA_DONE_ISR);
1048:.\Generated_Source\PSoC5/USBFS.c ****         #endif /* (USBFS_DMA5_ACTIVE) */
1049:.\Generated_Source\PSoC5/USBFS.c **** 
1050:.\Generated_Source\PSoC5/USBFS.c ****         #if (USBFS_DMA6_ACTIVE)
1051:.\Generated_Source\PSoC5/USBFS.c ****             (void) USBFS_ep6_dma_SetInterruptCallback(&USBFS_EP6_DMA_DONE_ISR);
1052:.\Generated_Source\PSoC5/USBFS.c ****         #endif /* (USBFS_DMA6_ACTIVE) */
1053:.\Generated_Source\PSoC5/USBFS.c **** 
1054:.\Generated_Source\PSoC5/USBFS.c ****         #if (USBFS_DMA7_ACTIVE)
1055:.\Generated_Source\PSoC5/USBFS.c ****             (void) USBFS_ep7_dma_SetInterruptCallback(&USBFS_EP7_DMA_DONE_ISR);
1056:.\Generated_Source\PSoC5/USBFS.c ****         #endif /* (USBFS_DMA7_ACTIVE) */
1057:.\Generated_Source\PSoC5/USBFS.c **** 
1058:.\Generated_Source\PSoC5/USBFS.c ****         #if (USBFS_DMA8_ACTIVE)
1059:.\Generated_Source\PSoC5/USBFS.c ****             (void) USBFS_ep8_dma_SetInterruptCallback(&USBFS_EP8_DMA_DONE_ISR);
1060:.\Generated_Source\PSoC5/USBFS.c ****         #endif /* (USBFS_DMA8_ACTIVE) */
1061:.\Generated_Source\PSoC5/USBFS.c ****     #endif /* (USBFS_EP_MANAGEMENT_DMA_AUTO) */
1062:.\Generated_Source\PSoC5/USBFS.c ****     }
1063:.\Generated_Source\PSoC5/USBFS.c **** #else
1064:.\Generated_Source\PSoC5/USBFS.c **** 
1065:.\Generated_Source\PSoC5/USBFS.c **** 
1066:.\Generated_Source\PSoC5/USBFS.c ****     /***************************************************************************
1067:.\Generated_Source\PSoC5/USBFS.c ****     * Function Name: USBFS_InitEP_DMA
1068:.\Generated_Source\PSoC5/USBFS.c ****     ************************************************************************//**
1069:.\Generated_Source\PSoC5/USBFS.c ****     *
1070:.\Generated_Source\PSoC5/USBFS.c ****     *  This function allocates and initializes a DMA channel to be used by the
1071:.\Generated_Source\PSoC5/USBFS.c ****     *  USBFS_LoadInEP() or USBFS_ReadOutEP() APIs for data
ARM GAS  C:\Users\LUKASC~1\AppData\Local\Temp\ccEgAQpP.s 			page 37


1072:.\Generated_Source\PSoC5/USBFS.c ****     *  transfer. It is available when the Endpoint Memory Management parameter
1073:.\Generated_Source\PSoC5/USBFS.c ****     *  is set to DMA.
1074:.\Generated_Source\PSoC5/USBFS.c ****     *
1075:.\Generated_Source\PSoC5/USBFS.c ****     *  This function is automatically called from the USBFS_LoadInEP() and USBFS_ReadOutEP() APIs.
1076:.\Generated_Source\PSoC5/USBFS.c ****     *
1077:.\Generated_Source\PSoC5/USBFS.c ****     *  \param epNumber Contains the data endpoint number.
1078:.\Generated_Source\PSoC5/USBFS.c ****     *            Valid values are between 1 and 8.
1079:.\Generated_Source\PSoC5/USBFS.c ****     *  \param *pData Pointer to a data array that is related to the EP transfers.
1080:.\Generated_Source\PSoC5/USBFS.c ****     *
1081:.\Generated_Source\PSoC5/USBFS.c ****     * \reentrant No.
1082:.\Generated_Source\PSoC5/USBFS.c ****     *
1083:.\Generated_Source\PSoC5/USBFS.c ****     ***************************************************************************/
1084:.\Generated_Source\PSoC5/USBFS.c ****     void USBFS_InitEP_DMA(uint8 epNumber, const uint8 *pData)
1085:.\Generated_Source\PSoC5/USBFS.c ****                                                                     
1086:.\Generated_Source\PSoC5/USBFS.c ****     {
1087:.\Generated_Source\PSoC5/USBFS.c ****         uint16 src;
1088:.\Generated_Source\PSoC5/USBFS.c ****         uint16 dst;
1089:.\Generated_Source\PSoC5/USBFS.c **** 
1090:.\Generated_Source\PSoC5/USBFS.c ****     #if (CY_PSOC3)
1091:.\Generated_Source\PSoC5/USBFS.c ****         src = HI16(CYDEV_SRAM_BASE);
1092:.\Generated_Source\PSoC5/USBFS.c ****         dst = HI16(CYDEV_PERIPH_BASE);
1093:.\Generated_Source\PSoC5/USBFS.c ****         pData = pData;
1094:.\Generated_Source\PSoC5/USBFS.c ****     #else
1095:.\Generated_Source\PSoC5/USBFS.c ****         if ((USBFS_EP[epNumber].addr & USBFS_DIR_IN) != 0u)
1096:.\Generated_Source\PSoC5/USBFS.c ****         {
1097:.\Generated_Source\PSoC5/USBFS.c ****             /* IN endpoint: source is memory buffer. */
1098:.\Generated_Source\PSoC5/USBFS.c ****             src = HI16(pData);
1099:.\Generated_Source\PSoC5/USBFS.c ****             dst = HI16(CYDEV_PERIPH_BASE);
1100:.\Generated_Source\PSoC5/USBFS.c ****         }
1101:.\Generated_Source\PSoC5/USBFS.c ****         else
1102:.\Generated_Source\PSoC5/USBFS.c ****         {
1103:.\Generated_Source\PSoC5/USBFS.c ****             /* OUT endpoint: source is USB IP memory buffer. */
1104:.\Generated_Source\PSoC5/USBFS.c ****             src = HI16(CYDEV_PERIPH_BASE);
1105:.\Generated_Source\PSoC5/USBFS.c ****             dst = HI16(pData);
1106:.\Generated_Source\PSoC5/USBFS.c ****         }
1107:.\Generated_Source\PSoC5/USBFS.c ****     #endif  /* (CY_PSOC3) */
1108:.\Generated_Source\PSoC5/USBFS.c **** 
1109:.\Generated_Source\PSoC5/USBFS.c ****         switch(epNumber)
1110:.\Generated_Source\PSoC5/USBFS.c ****         {
1111:.\Generated_Source\PSoC5/USBFS.c ****     #if (USBFS_DMA1_ACTIVE)
1112:.\Generated_Source\PSoC5/USBFS.c ****         case USBFS_EP1:
1113:.\Generated_Source\PSoC5/USBFS.c ****             USBFS_DmaChan[epNumber] = USBFS_ep1_DmaInitialize(USBFS_DMA_BYTES_PER_BURST,
1114:.\Generated_Source\PSoC5/USBFS.c ****                                                                                     USBFS_DMA_REQUE
1115:.\Generated_Source\PSoC5/USBFS.c ****             break;
1116:.\Generated_Source\PSoC5/USBFS.c ****     #endif /* (USBFS_DMA1_ACTIVE) */
1117:.\Generated_Source\PSoC5/USBFS.c **** 
1118:.\Generated_Source\PSoC5/USBFS.c ****     #if (USBFS_DMA2_ACTIVE)
1119:.\Generated_Source\PSoC5/USBFS.c ****         case USBFS_EP2:
1120:.\Generated_Source\PSoC5/USBFS.c ****             USBFS_DmaChan[epNumber] = USBFS_ep2_DmaInitialize(USBFS_DMA_BYTES_PER_BURST,
1121:.\Generated_Source\PSoC5/USBFS.c ****                                                                                     USBFS_DMA_REQUE
1122:.\Generated_Source\PSoC5/USBFS.c ****             break;
1123:.\Generated_Source\PSoC5/USBFS.c ****     #endif /* (USBFS_DMA2_ACTIVE) */
1124:.\Generated_Source\PSoC5/USBFS.c **** 
1125:.\Generated_Source\PSoC5/USBFS.c ****     #if (USBFS_DMA3_ACTIVE)
1126:.\Generated_Source\PSoC5/USBFS.c ****             case USBFS_EP3:
1127:.\Generated_Source\PSoC5/USBFS.c ****                 USBFS_DmaChan[epNumber] = USBFS_ep3_DmaInitialize(USBFS_DMA_BYTES_PER_BURST,
1128:.\Generated_Source\PSoC5/USBFS.c ****                                                                                         USBFS_DMA_R
ARM GAS  C:\Users\LUKASC~1\AppData\Local\Temp\ccEgAQpP.s 			page 38


1129:.\Generated_Source\PSoC5/USBFS.c ****             break;
1130:.\Generated_Source\PSoC5/USBFS.c ****     #endif /* (USBFS_DMA3_ACTIVE) */
1131:.\Generated_Source\PSoC5/USBFS.c **** 
1132:.\Generated_Source\PSoC5/USBFS.c ****     #if (USBFS_DMA4_ACTIVE)
1133:.\Generated_Source\PSoC5/USBFS.c ****             case USBFS_EP4:
1134:.\Generated_Source\PSoC5/USBFS.c ****                 USBFS_DmaChan[epNumber] = USBFS_ep4_DmaInitialize(USBFS_DMA_BYTES_PER_BURST,
1135:.\Generated_Source\PSoC5/USBFS.c ****                                                                                         USBFS_DMA_R
1136:.\Generated_Source\PSoC5/USBFS.c ****             break;
1137:.\Generated_Source\PSoC5/USBFS.c ****     #endif /* (USBFS_DMA4_ACTIVE) */
1138:.\Generated_Source\PSoC5/USBFS.c **** 
1139:.\Generated_Source\PSoC5/USBFS.c ****     #if (USBFS_DMA5_ACTIVE)
1140:.\Generated_Source\PSoC5/USBFS.c ****             case USBFS_EP5:
1141:.\Generated_Source\PSoC5/USBFS.c ****                 USBFS_DmaChan[epNumber] = USBFS_ep5_DmaInitialize(USBFS_DMA_BYTES_PER_BURST,
1142:.\Generated_Source\PSoC5/USBFS.c ****                                                                                         USBFS_DMA_R
1143:.\Generated_Source\PSoC5/USBFS.c ****             break;
1144:.\Generated_Source\PSoC5/USBFS.c ****     #endif /* (USBFS_DMA5_ACTIVE) */
1145:.\Generated_Source\PSoC5/USBFS.c **** 
1146:.\Generated_Source\PSoC5/USBFS.c ****     #if (USBFS_DMA6_ACTIVE)
1147:.\Generated_Source\PSoC5/USBFS.c ****         case USBFS_EP6:
1148:.\Generated_Source\PSoC5/USBFS.c ****             USBFS_DmaChan[epNumber] = USBFS_ep6_DmaInitialize(USBFS_DMA_BYTES_PER_BURST,
1149:.\Generated_Source\PSoC5/USBFS.c ****                                                                                     USBFS_DMA_REQUE
1150:.\Generated_Source\PSoC5/USBFS.c ****             break;
1151:.\Generated_Source\PSoC5/USBFS.c ****     #endif /* (USBFS_DMA6_ACTIVE) */
1152:.\Generated_Source\PSoC5/USBFS.c **** 
1153:.\Generated_Source\PSoC5/USBFS.c ****     #if (USBFS_DMA7_ACTIVE)
1154:.\Generated_Source\PSoC5/USBFS.c ****         case USBFS_EP7:
1155:.\Generated_Source\PSoC5/USBFS.c ****                 USBFS_DmaChan[epNumber] = USBFS_ep7_DmaInitialize(USBFS_DMA_BYTES_PER_BURST,
1156:.\Generated_Source\PSoC5/USBFS.c ****                                                                                         USBFS_DMA_R
1157:.\Generated_Source\PSoC5/USBFS.c ****             break;
1158:.\Generated_Source\PSoC5/USBFS.c ****     #endif /* (USBFS_DMA7_ACTIVE) */
1159:.\Generated_Source\PSoC5/USBFS.c **** 
1160:.\Generated_Source\PSoC5/USBFS.c ****     #if (USBFS_DMA8_ACTIVE)
1161:.\Generated_Source\PSoC5/USBFS.c ****         case USBFS_EP8:
1162:.\Generated_Source\PSoC5/USBFS.c ****                 USBFS_DmaChan[epNumber] = USBFS_ep8_DmaInitialize(USBFS_DMA_BYTES_PER_BURST,
1163:.\Generated_Source\PSoC5/USBFS.c ****                                                                                         USBFS_DMA_R
1164:.\Generated_Source\PSoC5/USBFS.c ****             break;
1165:.\Generated_Source\PSoC5/USBFS.c ****     #endif /* (USBFS_DMA8_ACTIVE) */
1166:.\Generated_Source\PSoC5/USBFS.c **** 
1167:.\Generated_Source\PSoC5/USBFS.c ****         default:
1168:.\Generated_Source\PSoC5/USBFS.c ****             /* Do nothing for endpoints other than 1-8. */
1169:.\Generated_Source\PSoC5/USBFS.c ****             break;
1170:.\Generated_Source\PSoC5/USBFS.c ****         }
1171:.\Generated_Source\PSoC5/USBFS.c **** 
1172:.\Generated_Source\PSoC5/USBFS.c ****         if ((epNumber > USBFS_EP0) && (epNumber < USBFS_MAX_EP))
1173:.\Generated_Source\PSoC5/USBFS.c ****         {
1174:.\Generated_Source\PSoC5/USBFS.c ****             USBFS_DmaTd[epNumber] = CyDmaTdAllocate();
1175:.\Generated_Source\PSoC5/USBFS.c **** 
1176:.\Generated_Source\PSoC5/USBFS.c ****         #if (USBFS_EP_MANAGEMENT_DMA_AUTO && (USBFS_EP_DMA_AUTO_OPT == 0u))
1177:.\Generated_Source\PSoC5/USBFS.c ****             USBFS_DmaNextTd[epNumber] = CyDmaTdAllocate();
1178:.\Generated_Source\PSoC5/USBFS.c ****         #endif /* (USBFS_EP_MANAGEMENT_DMA_AUTO && (USBFS_EP_DMA_AUTO_OPT == 0u)) */
1179:.\Generated_Source\PSoC5/USBFS.c ****         }
1180:.\Generated_Source\PSoC5/USBFS.c ****     }
1181:.\Generated_Source\PSoC5/USBFS.c **** #endif /* (CY_PSOC4) */
1182:.\Generated_Source\PSoC5/USBFS.c **** 
1183:.\Generated_Source\PSoC5/USBFS.c ****     /***************************************************************************
1184:.\Generated_Source\PSoC5/USBFS.c ****     * Function Name: USBFS_Stop_DMA
1185:.\Generated_Source\PSoC5/USBFS.c ****     ************************************************************************//**
ARM GAS  C:\Users\LUKASC~1\AppData\Local\Temp\ccEgAQpP.s 			page 39


1186:.\Generated_Source\PSoC5/USBFS.c ****     *  
1187:.\Generated_Source\PSoC5/USBFS.c ****     *  This function stops DMA channel associated with endpoint. It is available 
1188:.\Generated_Source\PSoC5/USBFS.c ****     *  when the Endpoint Buffer Management parameter is set to DMA. Call this 
1189:.\Generated_Source\PSoC5/USBFS.c ****     *  function when endpoint direction is changed from IN to OUT or vice versa 
1190:.\Generated_Source\PSoC5/USBFS.c ****     *  to trigger DMA re-configuration when USBFS_LoadInEP() or 
1191:.\Generated_Source\PSoC5/USBFS.c ****     *  USBFS_ReadOutEP() functions are called the first time. 
1192:.\Generated_Source\PSoC5/USBFS.c ****     *  
1193:.\Generated_Source\PSoC5/USBFS.c ****     *  \param epNumber: The data endpoint number for which associated DMA 
1194:.\Generated_Source\PSoC5/USBFS.c ****     *  channel is stopped. The range of valid values is between 1 and 8. To stop 
1195:.\Generated_Source\PSoC5/USBFS.c ****     *  all DMAs associated with endpoints call this function with 
1196:.\Generated_Source\PSoC5/USBFS.c ****     *  USBFS_MAX_EP argument.
1197:.\Generated_Source\PSoC5/USBFS.c ****     *
1198:.\Generated_Source\PSoC5/USBFS.c ****     * \reentrant
1199:.\Generated_Source\PSoC5/USBFS.c ****     *  No.
1200:.\Generated_Source\PSoC5/USBFS.c ****     *
1201:.\Generated_Source\PSoC5/USBFS.c ****     ***************************************************************************/
1202:.\Generated_Source\PSoC5/USBFS.c ****     void USBFS_Stop_DMA(uint8 epNumber) 
1203:.\Generated_Source\PSoC5/USBFS.c ****     {
1204:.\Generated_Source\PSoC5/USBFS.c ****         uint8 i;
1205:.\Generated_Source\PSoC5/USBFS.c **** 
1206:.\Generated_Source\PSoC5/USBFS.c ****         i = (epNumber < USBFS_MAX_EP) ? epNumber : USBFS_EP1;
1207:.\Generated_Source\PSoC5/USBFS.c **** 
1208:.\Generated_Source\PSoC5/USBFS.c ****         do
1209:.\Generated_Source\PSoC5/USBFS.c ****         {
1210:.\Generated_Source\PSoC5/USBFS.c ****         #if (CY_PSOC4)
1211:.\Generated_Source\PSoC5/USBFS.c ****             if (0u != USBFS_DmaChan[i])
1212:.\Generated_Source\PSoC5/USBFS.c ****             {
1213:.\Generated_Source\PSoC5/USBFS.c ****                 USBFS_CyDmaChDisable(USBFS_DmaChan[i]);
1214:.\Generated_Source\PSoC5/USBFS.c ****             }
1215:.\Generated_Source\PSoC5/USBFS.c ****         #else
1216:.\Generated_Source\PSoC5/USBFS.c ****             if(USBFS_DmaTd[i] != DMA_INVALID_TD)
1217:.\Generated_Source\PSoC5/USBFS.c ****             {
1218:.\Generated_Source\PSoC5/USBFS.c ****                 (void) CyDmaChDisable(USBFS_DmaChan[i]);
1219:.\Generated_Source\PSoC5/USBFS.c ****                 CyDmaTdFree(USBFS_DmaTd[i]);
1220:.\Generated_Source\PSoC5/USBFS.c ****                 USBFS_DmaTd[i] = DMA_INVALID_TD;
1221:.\Generated_Source\PSoC5/USBFS.c ****             }
1222:.\Generated_Source\PSoC5/USBFS.c **** 
1223:.\Generated_Source\PSoC5/USBFS.c ****             #if (USBFS_EP_MANAGEMENT_DMA_AUTO && (USBFS_EP_DMA_AUTO_OPT == 0u))
1224:.\Generated_Source\PSoC5/USBFS.c ****                 if(USBFS_DmaNextTd[i] != DMA_INVALID_TD)
1225:.\Generated_Source\PSoC5/USBFS.c ****                 {
1226:.\Generated_Source\PSoC5/USBFS.c ****                     CyDmaTdFree(USBFS_DmaNextTd[i]);
1227:.\Generated_Source\PSoC5/USBFS.c ****                     USBFS_DmaNextTd[i] = DMA_INVALID_TD;
1228:.\Generated_Source\PSoC5/USBFS.c ****                 }
1229:.\Generated_Source\PSoC5/USBFS.c ****             #endif /* (USBFS_EP_MANAGEMENT_DMA_AUTO && (USBFS_EP_DMA_AUTO_OPT == 0u)) */
1230:.\Generated_Source\PSoC5/USBFS.c **** 
1231:.\Generated_Source\PSoC5/USBFS.c ****         #endif /* (CY_PSOC4) */
1232:.\Generated_Source\PSoC5/USBFS.c ****             i++;
1233:.\Generated_Source\PSoC5/USBFS.c ****         }
1234:.\Generated_Source\PSoC5/USBFS.c ****         while ((i < USBFS_MAX_EP) && (epNumber == USBFS_MAX_EP));
1235:.\Generated_Source\PSoC5/USBFS.c ****     }
1236:.\Generated_Source\PSoC5/USBFS.c **** #endif /* (USBFS_EP_MANAGEMENT_DMA) */
1237:.\Generated_Source\PSoC5/USBFS.c **** 
1238:.\Generated_Source\PSoC5/USBFS.c **** 
1239:.\Generated_Source\PSoC5/USBFS.c **** #if (CY_PSOC3 || CY_PSOC5)
1240:.\Generated_Source\PSoC5/USBFS.c **** #if (USBFS_EP_MANAGEMENT_DMA_AUTO && (USBFS_EP_DMA_AUTO_OPT == 0u))
1241:.\Generated_Source\PSoC5/USBFS.c ****     /***************************************************************************
1242:.\Generated_Source\PSoC5/USBFS.c ****     * Function Name: USBFS_LoadNextInEP
ARM GAS  C:\Users\LUKASC~1\AppData\Local\Temp\ccEgAQpP.s 			page 40


1243:.\Generated_Source\PSoC5/USBFS.c ****     ************************************************************************//**
1244:.\Generated_Source\PSoC5/USBFS.c ****     *
1245:.\Generated_Source\PSoC5/USBFS.c ****     * Summary:
1246:.\Generated_Source\PSoC5/USBFS.c ****     *  This internal function is used for IN endpoint DMA reconfiguration in
1247:.\Generated_Source\PSoC5/USBFS.c ****     *  Auto DMA mode.
1248:.\Generated_Source\PSoC5/USBFS.c ****     *
1249:.\Generated_Source\PSoC5/USBFS.c ****     * Parameters:
1250:.\Generated_Source\PSoC5/USBFS.c ****     *  epNumber: Contains the data endpoint number.
1251:.\Generated_Source\PSoC5/USBFS.c ****     *  mode:   0 - Configure DMA to send the the rest of data.
1252:.\Generated_Source\PSoC5/USBFS.c ****     *          1 - Configure DMA to repeat 2 last bytes of the first burst.
1253:.\Generated_Source\PSoC5/USBFS.c ****     *
1254:.\Generated_Source\PSoC5/USBFS.c ****     ***************************************************************************/
1255:.\Generated_Source\PSoC5/USBFS.c ****     void USBFS_LoadNextInEP(uint8 epNumber, uint8 mode) 
1256:.\Generated_Source\PSoC5/USBFS.c ****     {
1257:.\Generated_Source\PSoC5/USBFS.c ****         reg16 *convert;
1258:.\Generated_Source\PSoC5/USBFS.c **** 
1259:.\Generated_Source\PSoC5/USBFS.c ****         if (mode == 0u)
1260:.\Generated_Source\PSoC5/USBFS.c ****         {
1261:.\Generated_Source\PSoC5/USBFS.c ****             /* Configure DMA to send rest of data. */
1262:.\Generated_Source\PSoC5/USBFS.c ****             /* CyDmaTdSetConfiguration API is optimized to change transfer length only and configur
1263:.\Generated_Source\PSoC5/USBFS.c ****             convert = (reg16 *) &CY_DMA_TDMEM_STRUCT_PTR[USBFS_DmaTd[epNumber]].TD0[0u];
1264:.\Generated_Source\PSoC5/USBFS.c ****             /* Set transfer length. */
1265:.\Generated_Source\PSoC5/USBFS.c ****             CY_SET_REG16(convert, USBFS_inLength[epNumber] - USBFS_DMA_BYTES_PER_BURST);
1266:.\Generated_Source\PSoC5/USBFS.c ****             /* CyDmaTdSetAddress API is optimized to change source address only. */
1267:.\Generated_Source\PSoC5/USBFS.c ****             convert = (reg16 *) &CY_DMA_TDMEM_STRUCT_PTR[USBFS_DmaTd[epNumber]].TD1[0u];
1268:.\Generated_Source\PSoC5/USBFS.c ****             CY_SET_REG16(convert, LO16((uint32)USBFS_inDataPointer[epNumber] +
1269:.\Generated_Source\PSoC5/USBFS.c ****                                             USBFS_DMA_BYTES_PER_BURST));
1270:.\Generated_Source\PSoC5/USBFS.c ****             USBFS_inBufFull[epNumber] = 1u;
1271:.\Generated_Source\PSoC5/USBFS.c ****         }
1272:.\Generated_Source\PSoC5/USBFS.c ****         else
1273:.\Generated_Source\PSoC5/USBFS.c ****         {
1274:.\Generated_Source\PSoC5/USBFS.c ****             /* Configure DMA to repeat 2 last bytes of the first burst. */
1275:.\Generated_Source\PSoC5/USBFS.c ****             /* CyDmaTdSetConfiguration API is optimized to change transfer length only and configur
1276:.\Generated_Source\PSoC5/USBFS.c ****             convert = (reg16 *) &CY_DMA_TDMEM_STRUCT_PTR[USBFS_DmaTd[epNumber]].TD0[0u];
1277:.\Generated_Source\PSoC5/USBFS.c ****             /* Set transfer length. */
1278:.\Generated_Source\PSoC5/USBFS.c ****             CY_SET_REG16(convert, USBFS_DMA_BYTES_REPEAT);
1279:.\Generated_Source\PSoC5/USBFS.c ****             /* CyDmaTdSetAddress API is optimized to change source address only. */
1280:.\Generated_Source\PSoC5/USBFS.c ****             convert = (reg16 *) &CY_DMA_TDMEM_STRUCT_PTR[USBFS_DmaTd[epNumber]].TD1[0u];
1281:.\Generated_Source\PSoC5/USBFS.c ****             CY_SET_REG16(convert,  LO16((uint32)USBFS_inDataPointer[epNumber] +
1282:.\Generated_Source\PSoC5/USBFS.c ****                                    (USBFS_DMA_BYTES_PER_BURST - USBFS_DMA_BYTES_REPEAT)));
1283:.\Generated_Source\PSoC5/USBFS.c ****         }
1284:.\Generated_Source\PSoC5/USBFS.c **** 
1285:.\Generated_Source\PSoC5/USBFS.c ****         /* CyDmaChSetInitialTd API is optimized to initialize TD. */
1286:.\Generated_Source\PSoC5/USBFS.c ****         CY_DMA_CH_STRUCT_PTR[USBFS_DmaChan[epNumber]].basic_status[1u] = USBFS_DmaTd[epNumber];
1287:.\Generated_Source\PSoC5/USBFS.c ****     }
1288:.\Generated_Source\PSoC5/USBFS.c **** #endif /* (USBFS_EP_MANAGEMENT_DMA_AUTO && (USBFS_EP_DMA_AUTO_OPT == 0u)) */
1289:.\Generated_Source\PSoC5/USBFS.c **** #endif /* (CY_PSOC3 || CY_PSOC5) */
1290:.\Generated_Source\PSoC5/USBFS.c **** 
1291:.\Generated_Source\PSoC5/USBFS.c **** 
1292:.\Generated_Source\PSoC5/USBFS.c **** /*******************************************************************************
1293:.\Generated_Source\PSoC5/USBFS.c **** * Function Name: USBFS_LoadInEP
1294:.\Generated_Source\PSoC5/USBFS.c **** ****************************************************************************//**
1295:.\Generated_Source\PSoC5/USBFS.c **** *
1296:.\Generated_Source\PSoC5/USBFS.c **** *  This function performs different functionality depending on the Component’s
1297:.\Generated_Source\PSoC5/USBFS.c **** *  configured Endpoint Buffer Management. This parameter is defined in
1298:.\Generated_Source\PSoC5/USBFS.c **** *  the Descriptor Root in Component Configure window.
1299:.\Generated_Source\PSoC5/USBFS.c **** *
ARM GAS  C:\Users\LUKASC~1\AppData\Local\Temp\ccEgAQpP.s 			page 41


1300:.\Generated_Source\PSoC5/USBFS.c **** *  *Manual (Static/Dynamic Allocation):*
1301:.\Generated_Source\PSoC5/USBFS.c **** *  This function loads and enables the specified USB data endpoint for an IN
1302:.\Generated_Source\PSoC5/USBFS.c **** *  data transfer.
1303:.\Generated_Source\PSoC5/USBFS.c **** *
1304:.\Generated_Source\PSoC5/USBFS.c **** *  *DMA with Manual Buffer Management:*
1305:.\Generated_Source\PSoC5/USBFS.c **** *  Configures DMA for a data transfer from system RAM to endpoint buffer.
1306:.\Generated_Source\PSoC5/USBFS.c **** *  Generates request for a transfer.
1307:.\Generated_Source\PSoC5/USBFS.c **** *
1308:.\Generated_Source\PSoC5/USBFS.c **** *  *DMA with Automatic Buffer Management:*
1309:.\Generated_Source\PSoC5/USBFS.c **** *  Configures DMA. This is required only once, so it is done only when parameter
1310:.\Generated_Source\PSoC5/USBFS.c **** *  pData is not NULL. When the pData pointer is NULL, the function skips this
1311:.\Generated_Source\PSoC5/USBFS.c **** *  task. Sets Data ready status: This generates the first DMA transfer and
1312:.\Generated_Source\PSoC5/USBFS.c **** *  prepares data in endpoint buffer.
1313:.\Generated_Source\PSoC5/USBFS.c **** *
1314:.\Generated_Source\PSoC5/USBFS.c **** *  \param epNumber Contains the data endpoint number.
1315:.\Generated_Source\PSoC5/USBFS.c **** *            Valid values are between 1 and 8.
1316:.\Generated_Source\PSoC5/USBFS.c **** *  \param *pData A pointer to a data array from which the data for the endpoint space
1317:.\Generated_Source\PSoC5/USBFS.c **** *          is loaded.
1318:.\Generated_Source\PSoC5/USBFS.c **** *  \param length The number of bytes to transfer from the array and then send as
1319:.\Generated_Source\PSoC5/USBFS.c **** *          a result of an IN request. Valid values are between 0 and 512
1320:.\Generated_Source\PSoC5/USBFS.c **** *          (1023 for DMA with Automatic Buffer Management mode). The value 512
1321:.\Generated_Source\PSoC5/USBFS.c **** *          is applicable if only one endpoint is used.
1322:.\Generated_Source\PSoC5/USBFS.c **** *
1323:.\Generated_Source\PSoC5/USBFS.c **** *
1324:.\Generated_Source\PSoC5/USBFS.c **** * \reentrant
1325:.\Generated_Source\PSoC5/USBFS.c **** *  No.
1326:.\Generated_Source\PSoC5/USBFS.c **** *
1327:.\Generated_Source\PSoC5/USBFS.c **** *******************************************************************************/
1328:.\Generated_Source\PSoC5/USBFS.c **** void USBFS_LoadInEP(uint8 epNumber, const uint8 pData[], uint16 length)
1329:.\Generated_Source\PSoC5/USBFS.c ****                                                                         
1330:.\Generated_Source\PSoC5/USBFS.c **** {
 982              		.loc 1 1330 0
 983              		.cfi_startproc
 984              		@ args = 0, pretend = 0, frame = 16
 985              		@ frame_needed = 1, uses_anonymous_args = 0
 986              		@ link register save eliminated.
 987 0000 B0B4     		push	{r4, r5, r7}
 988              		.cfi_def_cfa_offset 12
 989              		.cfi_offset 4, -12
 990              		.cfi_offset 5, -8
 991              		.cfi_offset 7, -4
 992 0002 85B0     		sub	sp, sp, #20
 993              		.cfi_def_cfa_offset 32
 994 0004 00AF     		add	r7, sp, #0
 995              		.cfi_def_cfa_register 7
 996 0006 0346     		mov	r3, r0
 997 0008 3960     		str	r1, [r7]
 998 000a FB71     		strb	r3, [r7, #7]
 999 000c 1346     		mov	r3, r2	@ movhi
 1000 000e BB80     		strh	r3, [r7, #4]	@ movhi
1331:.\Generated_Source\PSoC5/USBFS.c ****     if ((epNumber > USBFS_EP0) && (epNumber < USBFS_MAX_EP))
 1001              		.loc 1 1331 0
 1002 0010 FB79     		ldrb	r3, [r7, #7]	@ zero_extendqisi2
 1003 0012 002B     		cmp	r3, #0
 1004 0014 66D0     		beq	.L50
 1005              		.loc 1 1331 0 is_stmt 0 discriminator 1
 1006 0016 FB79     		ldrb	r3, [r7, #7]	@ zero_extendqisi2
ARM GAS  C:\Users\LUKASC~1\AppData\Local\Temp\ccEgAQpP.s 			page 42


 1007 0018 082B     		cmp	r3, #8
 1008 001a 63D8     		bhi	.L50
1332:.\Generated_Source\PSoC5/USBFS.c ****     {
1333:.\Generated_Source\PSoC5/USBFS.c ****     #if (!USBFS_EP_MANAGEMENT_DMA_AUTO)
1334:.\Generated_Source\PSoC5/USBFS.c ****         /* Limit length to available buffer USB IP buffer size.*/
1335:.\Generated_Source\PSoC5/USBFS.c ****         if (length > (USBFS_EPX_DATA_BUF_MAX - USBFS_EP[epNumber].buffOffset))
 1009              		.loc 1 1335 0 is_stmt 1
 1010 001c B988     		ldrh	r1, [r7, #4]
 1011 001e FA79     		ldrb	r2, [r7, #7]	@ zero_extendqisi2
 1012 0020 3248     		ldr	r0, .L56
 1013 0022 1346     		mov	r3, r2
 1014 0024 5B00     		lsls	r3, r3, #1
 1015 0026 1344     		add	r3, r3, r2
 1016 0028 9B00     		lsls	r3, r3, #2
 1017 002a 0344     		add	r3, r3, r0
 1018 002c DB88     		ldrh	r3, [r3, #6]	@ movhi
 1019 002e 9BB2     		uxth	r3, r3
 1020 0030 C3F50073 		rsb	r3, r3, #512
 1021 0034 9942     		cmp	r1, r3
 1022 0036 0BD9     		bls	.L52
1336:.\Generated_Source\PSoC5/USBFS.c ****         {
1337:.\Generated_Source\PSoC5/USBFS.c ****             length = USBFS_EPX_DATA_BUF_MAX - USBFS_EP[epNumber].buffOffset;
 1023              		.loc 1 1337 0
 1024 0038 FA79     		ldrb	r2, [r7, #7]	@ zero_extendqisi2
 1025 003a 2C49     		ldr	r1, .L56
 1026 003c 1346     		mov	r3, r2
 1027 003e 5B00     		lsls	r3, r3, #1
 1028 0040 1344     		add	r3, r3, r2
 1029 0042 9B00     		lsls	r3, r3, #2
 1030 0044 0B44     		add	r3, r3, r1
 1031 0046 DB88     		ldrh	r3, [r3, #6]	@ movhi
 1032 0048 9BB2     		uxth	r3, r3
 1033 004a C3F50073 		rsb	r3, r3, #512
 1034 004e BB80     		strh	r3, [r7, #4]	@ movhi
 1035              	.L52:
1338:.\Generated_Source\PSoC5/USBFS.c ****         }
1339:.\Generated_Source\PSoC5/USBFS.c ****     #endif /* (!USBFS_EP_MANAGEMENT_DMA_AUTO) */
1340:.\Generated_Source\PSoC5/USBFS.c **** 
1341:.\Generated_Source\PSoC5/USBFS.c ****         /* Set count and data toggle. */
1342:.\Generated_Source\PSoC5/USBFS.c ****         USBFS_SIE_EP_BASE.sieEp[epNumber].epCnt0 = (uint8) HI8(length) | USBFS_EP[epNumber].epToggl
 1036              		.loc 1 1342 0
 1037 0050 274C     		ldr	r4, .L56+4
 1038 0052 F979     		ldrb	r1, [r7, #7]	@ zero_extendqisi2
 1039 0054 BB88     		ldrh	r3, [r7, #4]
 1040 0056 1B0A     		lsrs	r3, r3, #8
 1041 0058 9BB2     		uxth	r3, r3
 1042 005a D8B2     		uxtb	r0, r3
 1043 005c FA79     		ldrb	r2, [r7, #7]	@ zero_extendqisi2
 1044 005e 234D     		ldr	r5, .L56
 1045 0060 1346     		mov	r3, r2
 1046 0062 5B00     		lsls	r3, r3, #1
 1047 0064 1344     		add	r3, r3, r2
 1048 0066 9B00     		lsls	r3, r3, #2
 1049 0068 2B44     		add	r3, r3, r5
 1050 006a DB78     		ldrb	r3, [r3, #3]
 1051 006c DBB2     		uxtb	r3, r3
 1052 006e 0343     		orrs	r3, r3, r0
ARM GAS  C:\Users\LUKASC~1\AppData\Local\Temp\ccEgAQpP.s 			page 43


 1053 0070 DAB2     		uxtb	r2, r3
 1054 0072 0B01     		lsls	r3, r1, #4
 1055 0074 2344     		add	r3, r3, r4
 1056 0076 1A70     		strb	r2, [r3]
1343:.\Generated_Source\PSoC5/USBFS.c ****         USBFS_SIE_EP_BASE.sieEp[epNumber].epCnt1 = (uint8) LO8(length);
 1057              		.loc 1 1343 0
 1058 0078 1D4A     		ldr	r2, .L56+4
 1059 007a FB79     		ldrb	r3, [r7, #7]	@ zero_extendqisi2
 1060 007c B988     		ldrh	r1, [r7, #4]	@ movhi
 1061 007e C9B2     		uxtb	r1, r1
 1062 0080 1B01     		lsls	r3, r3, #4
 1063 0082 1344     		add	r3, r3, r2
 1064 0084 0A46     		mov	r2, r1
 1065 0086 5A70     		strb	r2, [r3, #1]
1344:.\Generated_Source\PSoC5/USBFS.c **** 
1345:.\Generated_Source\PSoC5/USBFS.c ****     #if (USBFS_EP_MANAGEMENT_MANUAL)
1346:.\Generated_Source\PSoC5/USBFS.c ****         if (NULL != pData)
 1066              		.loc 1 1346 0
 1067 0088 3B68     		ldr	r3, [r7]
 1068 008a 002B     		cmp	r3, #0
 1069 008c 13D0     		beq	.L53
 1070              	.LBB2:
1347:.\Generated_Source\PSoC5/USBFS.c ****         {
1348:.\Generated_Source\PSoC5/USBFS.c **** 			/* Copy data using arbiter data register. */
1349:.\Generated_Source\PSoC5/USBFS.c ****             uint16 i;
1350:.\Generated_Source\PSoC5/USBFS.c ****             for (i = 0u; i < length; ++i)
 1071              		.loc 1 1350 0
 1072 008e 0023     		movs	r3, #0
 1073 0090 FB81     		strh	r3, [r7, #14]	@ movhi
 1074 0092 0CE0     		b	.L54
 1075              	.L55:
1351:.\Generated_Source\PSoC5/USBFS.c ****             {
1352:.\Generated_Source\PSoC5/USBFS.c ****                 USBFS_ARB_EP_BASE.arbEp[epNumber].rwDr = pData[i];
 1076              		.loc 1 1352 0 discriminator 3
 1077 0094 1748     		ldr	r0, .L56+8
 1078 0096 FB79     		ldrb	r3, [r7, #7]	@ zero_extendqisi2
 1079 0098 FA89     		ldrh	r2, [r7, #14]
 1080 009a 3968     		ldr	r1, [r7]
 1081 009c 0A44     		add	r2, r2, r1
 1082 009e 1278     		ldrb	r2, [r2]	@ zero_extendqisi2
 1083 00a0 1B01     		lsls	r3, r3, #4
 1084 00a2 0344     		add	r3, r3, r0
 1085 00a4 0833     		adds	r3, r3, #8
 1086 00a6 1A70     		strb	r2, [r3]
1350:.\Generated_Source\PSoC5/USBFS.c ****             {
 1087              		.loc 1 1350 0 discriminator 3
 1088 00a8 FB89     		ldrh	r3, [r7, #14]	@ movhi
 1089 00aa 0133     		adds	r3, r3, #1
 1090 00ac FB81     		strh	r3, [r7, #14]	@ movhi
 1091              	.L54:
1350:.\Generated_Source\PSoC5/USBFS.c ****             {
 1092              		.loc 1 1350 0 is_stmt 0 discriminator 1
 1093 00ae FA89     		ldrh	r2, [r7, #14]
 1094 00b0 BB88     		ldrh	r3, [r7, #4]
 1095 00b2 9A42     		cmp	r2, r3
 1096 00b4 EED3     		bcc	.L55
 1097              	.L53:
ARM GAS  C:\Users\LUKASC~1\AppData\Local\Temp\ccEgAQpP.s 			page 44


 1098              	.LBE2:
1353:.\Generated_Source\PSoC5/USBFS.c ****             }
1354:.\Generated_Source\PSoC5/USBFS.c ****         }
1355:.\Generated_Source\PSoC5/USBFS.c **** 
1356:.\Generated_Source\PSoC5/USBFS.c ****         /* IN endpoint buffer is full - read to be read. */
1357:.\Generated_Source\PSoC5/USBFS.c ****         USBFS_EP[epNumber].apiEpState = USBFS_NO_EVENT_PENDING;
 1099              		.loc 1 1357 0 is_stmt 1
 1100 00b6 FA79     		ldrb	r2, [r7, #7]	@ zero_extendqisi2
 1101 00b8 0C49     		ldr	r1, .L56
 1102 00ba 1346     		mov	r3, r2
 1103 00bc 5B00     		lsls	r3, r3, #1
 1104 00be 1344     		add	r3, r3, r2
 1105 00c0 9B00     		lsls	r3, r3, #2
 1106 00c2 0B44     		add	r3, r3, r1
 1107 00c4 0022     		movs	r2, #0
 1108 00c6 5A70     		strb	r2, [r3, #1]
1358:.\Generated_Source\PSoC5/USBFS.c **** 
1359:.\Generated_Source\PSoC5/USBFS.c ****         /* Arm IN endpoint. */
1360:.\Generated_Source\PSoC5/USBFS.c ****         USBFS_SIE_EP_BASE.sieEp[epNumber].epCr0 = USBFS_EP[epNumber].epMode;
 1109              		.loc 1 1360 0
 1110 00c8 0948     		ldr	r0, .L56+4
 1111 00ca F979     		ldrb	r1, [r7, #7]	@ zero_extendqisi2
 1112 00cc FA79     		ldrb	r2, [r7, #7]	@ zero_extendqisi2
 1113 00ce 074C     		ldr	r4, .L56
 1114 00d0 1346     		mov	r3, r2
 1115 00d2 5B00     		lsls	r3, r3, #1
 1116 00d4 1344     		add	r3, r3, r2
 1117 00d6 9B00     		lsls	r3, r3, #2
 1118 00d8 2344     		add	r3, r3, r4
 1119 00da 5B79     		ldrb	r3, [r3, #5]
 1120 00dc DAB2     		uxtb	r2, r3
 1121 00de 0B01     		lsls	r3, r1, #4
 1122 00e0 0344     		add	r3, r3, r0
 1123 00e2 9A70     		strb	r2, [r3, #2]
 1124              	.L50:
1361:.\Generated_Source\PSoC5/USBFS.c **** 
1362:.\Generated_Source\PSoC5/USBFS.c ****     #else
1363:.\Generated_Source\PSoC5/USBFS.c **** 
1364:.\Generated_Source\PSoC5/USBFS.c ****         #if (CY_PSOC3 || CY_PSOC5LP)
1365:.\Generated_Source\PSoC5/USBFS.c ****             /* Initialize DMA if it was not initialized. */
1366:.\Generated_Source\PSoC5/USBFS.c ****             if (DMA_INVALID_TD == USBFS_DmaTd[epNumber])
1367:.\Generated_Source\PSoC5/USBFS.c ****             {
1368:.\Generated_Source\PSoC5/USBFS.c ****                 USBFS_InitEP_DMA(epNumber, pData);
1369:.\Generated_Source\PSoC5/USBFS.c ****             }
1370:.\Generated_Source\PSoC5/USBFS.c ****         #endif /* (CY_PSOC3 || CY_PSOC5LP) */
1371:.\Generated_Source\PSoC5/USBFS.c **** 
1372:.\Generated_Source\PSoC5/USBFS.c ****         #if (USBFS_EP_MANAGEMENT_DMA_MANUAL)
1373:.\Generated_Source\PSoC5/USBFS.c ****             /* IN endpoint buffer will be fully loaded by DMA shortly. */
1374:.\Generated_Source\PSoC5/USBFS.c ****             USBFS_EP[epNumber].apiEpState = USBFS_NO_EVENT_PENDING;
1375:.\Generated_Source\PSoC5/USBFS.c **** 
1376:.\Generated_Source\PSoC5/USBFS.c ****             if ((pData != NULL) && (length > 0u))
1377:.\Generated_Source\PSoC5/USBFS.c ****             {
1378:.\Generated_Source\PSoC5/USBFS.c ****             #if (CY_PSOC4)
1379:.\Generated_Source\PSoC5/USBFS.c ****                 uint32 channelNum = (uint32) USBFS_DmaChan[epNumber];
1380:.\Generated_Source\PSoC5/USBFS.c **** 
1381:.\Generated_Source\PSoC5/USBFS.c ****                 /* Disable DMA channel: start configuration. */
1382:.\Generated_Source\PSoC5/USBFS.c ****                 USBFS_CyDmaChDisable(channelNum);
ARM GAS  C:\Users\LUKASC~1\AppData\Local\Temp\ccEgAQpP.s 			page 45


1383:.\Generated_Source\PSoC5/USBFS.c **** 
1384:.\Generated_Source\PSoC5/USBFS.c ****                 /* Configure source and destination. */
1385:.\Generated_Source\PSoC5/USBFS.c ****                 USBFS_CyDmaSetSrcAddress(channelNum, USBFS_DMA_DESCR0, (void*) pData);
1386:.\Generated_Source\PSoC5/USBFS.c ****                 USBFS_CyDmaSetDstAddress(channelNum, USBFS_DMA_DESCR0, (void*) &USBFS_ARB_EP_BASE.a
1387:.\Generated_Source\PSoC5/USBFS.c **** 
1388:.\Generated_Source\PSoC5/USBFS.c ****                 /* Configure DMA descriptor. */
1389:.\Generated_Source\PSoC5/USBFS.c ****                 --length;
1390:.\Generated_Source\PSoC5/USBFS.c ****                 USBFS_CyDmaSetConfiguration(channelNum, USBFS_DMA_DESCR0, USBFS_DMA_COMMON_CFG | le
1391:.\Generated_Source\PSoC5/USBFS.c ****                                                         CYDMA_BYTE | CYDMA_ELEMENT_WORD | CYDMA_INC
1392:.\Generated_Source\PSoC5/USBFS.c **** 
1393:.\Generated_Source\PSoC5/USBFS.c ****                 /* Validate descriptor to execute on following DMA request. */
1394:.\Generated_Source\PSoC5/USBFS.c ****                 USBFS_CyDmaValidateDescriptor(channelNum, USBFS_DMA_DESCR0);
1395:.\Generated_Source\PSoC5/USBFS.c **** 
1396:.\Generated_Source\PSoC5/USBFS.c ****                 /* Enable DMA channel: configuration complete. */
1397:.\Generated_Source\PSoC5/USBFS.c ****                 USBFS_CyDmaChEnable(channelNum);
1398:.\Generated_Source\PSoC5/USBFS.c ****             #else
1399:.\Generated_Source\PSoC5/USBFS.c ****                 /* Configure DMA to transfer data. */
1400:.\Generated_Source\PSoC5/USBFS.c ****                 (void) CyDmaChDisable(USBFS_DmaChan[epNumber]);
1401:.\Generated_Source\PSoC5/USBFS.c ****                 (void) CyDmaTdSetConfiguration(USBFS_DmaTd[epNumber], length, CY_DMA_DISABLE_TD, TD
1402:.\Generated_Source\PSoC5/USBFS.c ****                 (void) CyDmaTdSetAddress(USBFS_DmaTd[epNumber], LO16((uint32) pData), LO16((uint32)
1403:.\Generated_Source\PSoC5/USBFS.c **** 
1404:.\Generated_Source\PSoC5/USBFS.c ****                 /* Enable DMA channel. */
1405:.\Generated_Source\PSoC5/USBFS.c ****                 (void) CyDmaChSetInitialTd(USBFS_DmaChan[epNumber], USBFS_DmaTd[epNumber]);
1406:.\Generated_Source\PSoC5/USBFS.c ****                 (void) CyDmaChEnable(USBFS_DmaChan[epNumber], 1u);
1407:.\Generated_Source\PSoC5/USBFS.c ****             #endif /* (CY_PSOC4) */
1408:.\Generated_Source\PSoC5/USBFS.c **** 
1409:.\Generated_Source\PSoC5/USBFS.c ****                 /* Generate DMA request. */
1410:.\Generated_Source\PSoC5/USBFS.c ****                 USBFS_ARB_EP_BASE.arbEp[epNumber].epCfg |=  (uint8)  USBFS_ARB_EPX_CFG_DMA_REQ;
1411:.\Generated_Source\PSoC5/USBFS.c ****                 USBFS_ARB_EP_BASE.arbEp[epNumber].epCfg &=  (uint8) ~USBFS_ARB_EPX_CFG_DMA_REQ;
1412:.\Generated_Source\PSoC5/USBFS.c **** 
1413:.\Generated_Source\PSoC5/USBFS.c ****                 /* IN endpoint will be armed in ARB_ISR(source: IN_BUF_FULL) after first DMA transf
1414:.\Generated_Source\PSoC5/USBFS.c ****             }
1415:.\Generated_Source\PSoC5/USBFS.c ****             else
1416:.\Generated_Source\PSoC5/USBFS.c ****             {
1417:.\Generated_Source\PSoC5/USBFS.c ****                 /* When zero-length packet: arm IN endpoint directly. */
1418:.\Generated_Source\PSoC5/USBFS.c ****                 USBFS_SIE_EP_BASE.sieEp[epNumber].epCr0 = USBFS_EP[epNumber].epMode;
1419:.\Generated_Source\PSoC5/USBFS.c ****             }
1420:.\Generated_Source\PSoC5/USBFS.c ****         #endif /* (USBFS_EP_MANAGEMENT_DMA_MANUAL) */
1421:.\Generated_Source\PSoC5/USBFS.c **** 
1422:.\Generated_Source\PSoC5/USBFS.c ****         #if (USBFS_EP_MANAGEMENT_DMA_AUTO)
1423:.\Generated_Source\PSoC5/USBFS.c ****             if (pData != NULL)
1424:.\Generated_Source\PSoC5/USBFS.c ****             {
1425:.\Generated_Source\PSoC5/USBFS.c ****             #if (CY_PSOC4)
1426:.\Generated_Source\PSoC5/USBFS.c ****                 uint32 channelNum = (uint32) USBFS_DmaChan[epNumber];
1427:.\Generated_Source\PSoC5/USBFS.c **** 
1428:.\Generated_Source\PSoC5/USBFS.c ****                 /* Store address of buffer. */
1429:.\Generated_Source\PSoC5/USBFS.c ****                 USBFS_DmaEpBufferAddrBackup[epNumber] = (uint32) pData;
1430:.\Generated_Source\PSoC5/USBFS.c **** 
1431:.\Generated_Source\PSoC5/USBFS.c ****                 /* Disable DMA channel: start configuration. */
1432:.\Generated_Source\PSoC5/USBFS.c ****                 USBFS_CyDmaChDisable(channelNum);
1433:.\Generated_Source\PSoC5/USBFS.c **** 
1434:.\Generated_Source\PSoC5/USBFS.c ****                 /* Set destination address. */
1435:.\Generated_Source\PSoC5/USBFS.c ****                 USBFS_CyDmaSetDstAddress(channelNum, USBFS_DMA_DESCR0, (void*) &USBFS_ARB_EP_BASE.a
1436:.\Generated_Source\PSoC5/USBFS.c ****                 USBFS_CyDmaSetDstAddress(channelNum, USBFS_DMA_DESCR1, (void*) &USBFS_ARB_EP_BASE.a
1437:.\Generated_Source\PSoC5/USBFS.c **** 
1438:.\Generated_Source\PSoC5/USBFS.c ****                 /* Configure DMA descriptor. */
1439:.\Generated_Source\PSoC5/USBFS.c ****                 USBFS_CyDmaSetConfiguration(channelNum, USBFS_DMA_DESCR0, USBFS_DMA_COMMON_CFG  |
ARM GAS  C:\Users\LUKASC~1\AppData\Local\Temp\ccEgAQpP.s 			page 46


1440:.\Generated_Source\PSoC5/USBFS.c ****                                                         CYDMA_BYTE | CYDMA_ELEMENT_WORD | CYDMA_INC
1441:.\Generated_Source\PSoC5/USBFS.c **** 
1442:.\Generated_Source\PSoC5/USBFS.c ****                 /* Configure DMA descriptor. */
1443:.\Generated_Source\PSoC5/USBFS.c ****                 USBFS_CyDmaSetConfiguration(channelNum, USBFS_DMA_DESCR1, USBFS_DMA_COMMON_CFG  |
1444:.\Generated_Source\PSoC5/USBFS.c ****                                                         CYDMA_BYTE | CYDMA_ELEMENT_WORD | CYDMA_INC
1445:.\Generated_Source\PSoC5/USBFS.c **** 
1446:.\Generated_Source\PSoC5/USBFS.c ****                 /* Enable interrupt from DMA channel. */
1447:.\Generated_Source\PSoC5/USBFS.c ****                 USBFS_CyDmaSetInterruptMask(channelNum);
1448:.\Generated_Source\PSoC5/USBFS.c **** 
1449:.\Generated_Source\PSoC5/USBFS.c ****                 /* Validate descriptor 1. It will not be invalided during operation. */
1450:.\Generated_Source\PSoC5/USBFS.c ****                 USBFS_CyDmaValidateDescriptor(channelNum, USBFS_DMA_DESCR1);
1451:.\Generated_Source\PSoC5/USBFS.c **** 
1452:.\Generated_Source\PSoC5/USBFS.c ****                 /* Enable DMA channel: configuration complete. */
1453:.\Generated_Source\PSoC5/USBFS.c ****                 USBFS_CyDmaChEnable(channelNum);
1454:.\Generated_Source\PSoC5/USBFS.c **** 
1455:.\Generated_Source\PSoC5/USBFS.c ****             #else
1456:.\Generated_Source\PSoC5/USBFS.c ****                 (void) CyDmaChDisable(USBFS_DmaChan[epNumber]);
1457:.\Generated_Source\PSoC5/USBFS.c **** 
1458:.\Generated_Source\PSoC5/USBFS.c ****                 #if (USBFS_EP_DMA_AUTO_OPT == 0u)
1459:.\Generated_Source\PSoC5/USBFS.c ****                     USBFS_inLength[epNumber] = length;
1460:.\Generated_Source\PSoC5/USBFS.c ****                     USBFS_inDataPointer[epNumber] = pData;
1461:.\Generated_Source\PSoC5/USBFS.c **** 
1462:.\Generated_Source\PSoC5/USBFS.c ****                     /* Configure DMA to send data only for first burst */
1463:.\Generated_Source\PSoC5/USBFS.c ****                     (void) CyDmaTdSetConfiguration(USBFS_DmaTd[epNumber],
1464:.\Generated_Source\PSoC5/USBFS.c ****                         (length > USBFS_DMA_BYTES_PER_BURST) ? USBFS_DMA_BYTES_PER_BURST : length,
1465:.\Generated_Source\PSoC5/USBFS.c ****                         USBFS_DmaNextTd[epNumber], TD_TERMIN_EN | TD_INC_SRC_ADR);
1466:.\Generated_Source\PSoC5/USBFS.c ****                     (void) CyDmaTdSetAddress(USBFS_DmaTd[epNumber], LO16((uint32) pData),
1467:.\Generated_Source\PSoC5/USBFS.c ****                                                                                LO16((uint32) &USBFS
1468:.\Generated_Source\PSoC5/USBFS.c **** 
1469:.\Generated_Source\PSoC5/USBFS.c ****                     /* The second TD will be executed only when the first one fails.
1470:.\Generated_Source\PSoC5/USBFS.c ****                     *  The intention of this TD is to generate NRQ interrupt
1471:.\Generated_Source\PSoC5/USBFS.c ****                     *  and repeat 2 last bytes of the first burst.
1472:.\Generated_Source\PSoC5/USBFS.c ****                     */
1473:.\Generated_Source\PSoC5/USBFS.c ****                     (void) CyDmaTdSetConfiguration(USBFS_DmaNextTd[epNumber], 1u,
1474:.\Generated_Source\PSoC5/USBFS.c ****                                                    USBFS_DmaNextTd[epNumber],
1475:.\Generated_Source\PSoC5/USBFS.c ****                                                    USBFS_epX_TD_TERMOUT_EN[epNumber]);
1476:.\Generated_Source\PSoC5/USBFS.c **** 
1477:.\Generated_Source\PSoC5/USBFS.c ****                     /* Configure DmaNextTd to clear Data Ready status. */
1478:.\Generated_Source\PSoC5/USBFS.c ****                     (void) CyDmaTdSetAddress(USBFS_DmaNextTd[epNumber], LO16((uint32) &clearInDataR
1479:.\Generated_Source\PSoC5/USBFS.c ****                                                                                    LO16((uint32) &U
1480:.\Generated_Source\PSoC5/USBFS.c ****                 #else
1481:.\Generated_Source\PSoC5/USBFS.c ****                     /* Configure DMA to send all data. */
1482:.\Generated_Source\PSoC5/USBFS.c ****                     (void) CyDmaTdSetConfiguration(USBFS_DmaTd[epNumber], length,
1483:.\Generated_Source\PSoC5/USBFS.c ****                                                    USBFS_DmaTd[epNumber], TD_TERMIN_EN | TD_INC_SRC
1484:.\Generated_Source\PSoC5/USBFS.c ****                     (void) CyDmaTdSetAddress(USBFS_DmaTd[epNumber], LO16((uint32) pData),
1485:.\Generated_Source\PSoC5/USBFS.c ****                                                                                LO16((uint32) &USBFS
1486:.\Generated_Source\PSoC5/USBFS.c ****                 #endif /* (USBFS_EP_DMA_AUTO_OPT == 0u) */
1487:.\Generated_Source\PSoC5/USBFS.c **** 
1488:.\Generated_Source\PSoC5/USBFS.c ****                 /* Clear any potential pending DMA requests before starting DMA channel to transfer
1489:.\Generated_Source\PSoC5/USBFS.c ****                 (void) CyDmaClearPendingDrq(USBFS_DmaChan[epNumber]);
1490:.\Generated_Source\PSoC5/USBFS.c ****                 /* Enable DMA. */
1491:.\Generated_Source\PSoC5/USBFS.c ****                 (void) CyDmaChSetInitialTd(USBFS_DmaChan[epNumber], USBFS_DmaTd[epNumber]);
1492:.\Generated_Source\PSoC5/USBFS.c ****                 (void) CyDmaChEnable(USBFS_DmaChan[epNumber], 1u);
1493:.\Generated_Source\PSoC5/USBFS.c ****             #endif /* (CY_PSOC4) */
1494:.\Generated_Source\PSoC5/USBFS.c ****             }
1495:.\Generated_Source\PSoC5/USBFS.c ****             else
1496:.\Generated_Source\PSoC5/USBFS.c ****             {
ARM GAS  C:\Users\LUKASC~1\AppData\Local\Temp\ccEgAQpP.s 			page 47


1497:.\Generated_Source\PSoC5/USBFS.c ****                 /* IN endpoint buffer (32 bytes) will shortly be preloaded by DMA. */
1498:.\Generated_Source\PSoC5/USBFS.c ****                 USBFS_EP[epNumber].apiEpState = USBFS_NO_EVENT_PENDING;
1499:.\Generated_Source\PSoC5/USBFS.c **** 
1500:.\Generated_Source\PSoC5/USBFS.c ****                 if (length > 0u)
1501:.\Generated_Source\PSoC5/USBFS.c ****                 {
1502:.\Generated_Source\PSoC5/USBFS.c ****                 #if (CY_PSOC4)
1503:.\Generated_Source\PSoC5/USBFS.c ****                     uint32 lengthDescr0, lengthDescr1;
1504:.\Generated_Source\PSoC5/USBFS.c ****                     uint32 channelNum = (uint32) USBFS_DmaChan[epNumber];
1505:.\Generated_Source\PSoC5/USBFS.c **** 
1506:.\Generated_Source\PSoC5/USBFS.c ****                     /* Get number of full bursts. */
1507:.\Generated_Source\PSoC5/USBFS.c ****                     USBFS_DmaEpBurstCnt[epNumber] = (uint8) (length / USBFS_DMA_BYTES_PER_BURST);
1508:.\Generated_Source\PSoC5/USBFS.c **** 
1509:.\Generated_Source\PSoC5/USBFS.c ****                     /* Get number of elements in the last burst. */
1510:.\Generated_Source\PSoC5/USBFS.c ****                     USBFS_DmaEpLastBurstEl[epNumber] = (uint8) (length % USBFS_DMA_BYTES_PER_BURST)
1511:.\Generated_Source\PSoC5/USBFS.c **** 
1512:.\Generated_Source\PSoC5/USBFS.c ****                     /* Get total number of bursts. */
1513:.\Generated_Source\PSoC5/USBFS.c ****                     USBFS_DmaEpBurstCnt[epNumber] += (0u != USBFS_DmaEpLastBurstEl[epNumber]) ? 1u 
1514:.\Generated_Source\PSoC5/USBFS.c **** 
1515:.\Generated_Source\PSoC5/USBFS.c ****                     /* Adjust number of data elements transferred in last burst. */
1516:.\Generated_Source\PSoC5/USBFS.c ****                     USBFS_DmaEpLastBurstEl[epNumber] = (0u != USBFS_DmaEpLastBurstEl[epNumber]) ?
1517:.\Generated_Source\PSoC5/USBFS.c ****                                                                           (USBFS_DmaEpLastBurstEl[e
1518:.\Generated_Source\PSoC5/USBFS.c ****                                                                           (USBFS_DMA_BYTES_PER_BURS
1519:.\Generated_Source\PSoC5/USBFS.c **** 
1520:.\Generated_Source\PSoC5/USBFS.c ****                     /* Get number of data elements to transfer for descriptor 0 and 1. */
1521:.\Generated_Source\PSoC5/USBFS.c ****                     lengthDescr0 = (1u == USBFS_DmaEpBurstCnt[epNumber]) ? USBFS_DmaEpLastBurstEl[e
1522:.\Generated_Source\PSoC5/USBFS.c ****                     lengthDescr1 = (2u == USBFS_DmaEpBurstCnt[epNumber]) ? USBFS_DmaEpLastBurstEl[e
1523:.\Generated_Source\PSoC5/USBFS.c **** 
1524:.\Generated_Source\PSoC5/USBFS.c **** 
1525:.\Generated_Source\PSoC5/USBFS.c ****                     /* Mark which descriptor is last one to execute. */
1526:.\Generated_Source\PSoC5/USBFS.c ****                     USBFS_DmaEpLastBurstEl[epNumber] |= (0u != (USBFS_DmaEpBurstCnt[epNumber] & 0x1
1527:.\Generated_Source\PSoC5/USBFS.c ****                                                                             USBFS_DMA_DESCR0_MASK :
1528:.\Generated_Source\PSoC5/USBFS.c **** 
1529:.\Generated_Source\PSoC5/USBFS.c ****                     /* Adjust burst counter taking to account: 2 valid descriptors and interrupt tr
1530:.\Generated_Source\PSoC5/USBFS.c ****                     USBFS_DmaEpBurstCnt[epNumber] = USBFS_DMA_GET_BURST_CNT(USBFS_DmaEpBurstCnt[epN
1531:.\Generated_Source\PSoC5/USBFS.c **** 
1532:.\Generated_Source\PSoC5/USBFS.c ****                     /* Restore DMA settings for current transfer. */
1533:.\Generated_Source\PSoC5/USBFS.c ****                     USBFS_CyDmaChDisable(channelNum);
1534:.\Generated_Source\PSoC5/USBFS.c **** 
1535:.\Generated_Source\PSoC5/USBFS.c ****                     /* Restore destination address for input endpoint. */
1536:.\Generated_Source\PSoC5/USBFS.c ****                     USBFS_CyDmaSetSrcAddress(channelNum, USBFS_DMA_DESCR0, (void*) ((uint32) USBFS_
1537:.\Generated_Source\PSoC5/USBFS.c ****                     USBFS_CyDmaSetSrcAddress(channelNum, USBFS_DMA_DESCR1, (void*) ((uint32) USBFS_
1538:.\Generated_Source\PSoC5/USBFS.c ****                                                                                                    
1539:.\Generated_Source\PSoC5/USBFS.c **** 
1540:.\Generated_Source\PSoC5/USBFS.c ****                     /* Set number of elements to transfer. */
1541:.\Generated_Source\PSoC5/USBFS.c ****                     USBFS_CyDmaSetNumDataElements(channelNum, USBFS_DMA_DESCR0, lengthDescr0);
1542:.\Generated_Source\PSoC5/USBFS.c ****                     USBFS_CyDmaSetNumDataElements(channelNum, USBFS_DMA_DESCR1, lengthDescr1);
1543:.\Generated_Source\PSoC5/USBFS.c **** 
1544:.\Generated_Source\PSoC5/USBFS.c ****                     /* Validate descriptor 0 and command to start with it. */
1545:.\Generated_Source\PSoC5/USBFS.c ****                     USBFS_CyDmaValidateDescriptor(channelNum, USBFS_DMA_DESCR0);
1546:.\Generated_Source\PSoC5/USBFS.c ****                     USBFS_CyDmaSetDescriptor0Next(channelNum);
1547:.\Generated_Source\PSoC5/USBFS.c **** 
1548:.\Generated_Source\PSoC5/USBFS.c ****                     /* Enable DMA channel: configuration complete. */
1549:.\Generated_Source\PSoC5/USBFS.c ****                     USBFS_CyDmaChEnable(channelNum);
1550:.\Generated_Source\PSoC5/USBFS.c **** 
1551:.\Generated_Source\PSoC5/USBFS.c ****                 #elif (USBFS_EP_DMA_AUTO_OPT == 0u)
1552:.\Generated_Source\PSoC5/USBFS.c ****                     USBFS_inLength[epNumber]  = length;
1553:.\Generated_Source\PSoC5/USBFS.c ****                     USBFS_inBufFull[epNumber] = 0u;
ARM GAS  C:\Users\LUKASC~1\AppData\Local\Temp\ccEgAQpP.s 			page 48


1554:.\Generated_Source\PSoC5/USBFS.c **** 
1555:.\Generated_Source\PSoC5/USBFS.c ****                     (void) CyDmaChDisable(USBFS_DmaChan[epNumber]);
1556:.\Generated_Source\PSoC5/USBFS.c ****                     /* Configure DMA to send data only for first burst. */
1557:.\Generated_Source\PSoC5/USBFS.c ****                     (void) CyDmaTdSetConfiguration(
1558:.\Generated_Source\PSoC5/USBFS.c ****                         USBFS_DmaTd[epNumber], (length > USBFS_DMA_BYTES_PER_BURST) ?
1559:.\Generated_Source\PSoC5/USBFS.c ****                         USBFS_DMA_BYTES_PER_BURST : length,
1560:.\Generated_Source\PSoC5/USBFS.c ****                         USBFS_DmaNextTd[epNumber], TD_TERMIN_EN | TD_INC_SRC_ADR );
1561:.\Generated_Source\PSoC5/USBFS.c ****                     (void) CyDmaTdSetAddress(USBFS_DmaTd[epNumber], LO16((uint32)  USBFS_inDataPoin
1562:.\Generated_Source\PSoC5/USBFS.c ****                                                                                LO16((uint32) &USBFS
1563:.\Generated_Source\PSoC5/USBFS.c ****                     /* Clear Any potential pending DMA requests before starting DMA channel to tran
1564:.\Generated_Source\PSoC5/USBFS.c ****                     (void) CyDmaClearPendingDrq(USBFS_DmaChan[epNumber]);
1565:.\Generated_Source\PSoC5/USBFS.c ****                     /* Enable DMA. */
1566:.\Generated_Source\PSoC5/USBFS.c ****                     (void) CyDmaChSetInitialTd(USBFS_DmaChan[epNumber], USBFS_DmaTd[epNumber]);
1567:.\Generated_Source\PSoC5/USBFS.c ****                     (void) CyDmaChEnable(USBFS_DmaChan[epNumber], 1u);
1568:.\Generated_Source\PSoC5/USBFS.c ****                 #endif /* (CY_PSOC4) */
1569:.\Generated_Source\PSoC5/USBFS.c **** 
1570:.\Generated_Source\PSoC5/USBFS.c ****                 #if !defined (USBFS_MANUAL_IN_EP_ARM)
1571:.\Generated_Source\PSoC5/USBFS.c ****                     /* Set IN data ready to generate DMA request to load data into endpoint buffer.
1572:.\Generated_Source\PSoC5/USBFS.c ****                     USBFS_ARB_EP_BASE.arbEp[epNumber].epCfg |= USBFS_ARB_EPX_CFG_IN_DATA_RDY;
1573:.\Generated_Source\PSoC5/USBFS.c ****                 #endif  /* (USBFS_MANUAL_IN_EP_ARM) */
1574:.\Generated_Source\PSoC5/USBFS.c **** 
1575:.\Generated_Source\PSoC5/USBFS.c ****                     /* IN endpoint will be armed in ARB_ISR(source: IN_BUF_FULL) after first DMA tr
1576:.\Generated_Source\PSoC5/USBFS.c ****                 }
1577:.\Generated_Source\PSoC5/USBFS.c ****                 else
1578:.\Generated_Source\PSoC5/USBFS.c ****                 {
1579:.\Generated_Source\PSoC5/USBFS.c ****                     /* When zero-length packet: arm IN endpoint directly. */
1580:.\Generated_Source\PSoC5/USBFS.c ****                     USBFS_SIE_EP_BASE.sieEp[epNumber].epCr0 = USBFS_EP[epNumber].epMode;
1581:.\Generated_Source\PSoC5/USBFS.c ****                 }
1582:.\Generated_Source\PSoC5/USBFS.c ****             }
1583:.\Generated_Source\PSoC5/USBFS.c ****         #endif /* (USBFS_EP_MANAGEMENT_DMA_AUTO) */
1584:.\Generated_Source\PSoC5/USBFS.c ****     #endif /* (USBFS_EP_MANAGEMENT_MANUAL) */
1585:.\Generated_Source\PSoC5/USBFS.c ****     }
1586:.\Generated_Source\PSoC5/USBFS.c **** }
 1125              		.loc 1 1586 0
 1126 00e4 1437     		adds	r7, r7, #20
 1127              		.cfi_def_cfa_offset 12
 1128 00e6 BD46     		mov	sp, r7
 1129              		.cfi_def_cfa_register 13
 1130              		@ sp needed
 1131 00e8 B0BC     		pop	{r4, r5, r7}
 1132              		.cfi_restore 7
 1133              		.cfi_restore 5
 1134              		.cfi_restore 4
 1135              		.cfi_def_cfa_offset 0
 1136 00ea 7047     		bx	lr
 1137              	.L57:
 1138              		.align	2
 1139              	.L56:
 1140 00ec 00000000 		.word	USBFS_EP
 1141 00f0 FC5F0040 		.word	1073766396
 1142 00f4 70600040 		.word	1073766512
 1143              		.cfi_endproc
 1144              	.LFE11:
 1145              		.size	USBFS_LoadInEP, .-USBFS_LoadInEP
 1146              		.section	.text.USBFS_ReadOutEP,"ax",%progbits
 1147              		.align	2
 1148              		.global	USBFS_ReadOutEP
ARM GAS  C:\Users\LUKASC~1\AppData\Local\Temp\ccEgAQpP.s 			page 49


 1149              		.thumb
 1150              		.thumb_func
 1151              		.type	USBFS_ReadOutEP, %function
 1152              	USBFS_ReadOutEP:
 1153              	.LFB12:
1587:.\Generated_Source\PSoC5/USBFS.c **** 
1588:.\Generated_Source\PSoC5/USBFS.c **** 
1589:.\Generated_Source\PSoC5/USBFS.c **** /*******************************************************************************
1590:.\Generated_Source\PSoC5/USBFS.c **** * Function Name: USBFS_ReadOutEP
1591:.\Generated_Source\PSoC5/USBFS.c **** ****************************************************************************//**
1592:.\Generated_Source\PSoC5/USBFS.c **** *
1593:.\Generated_Source\PSoC5/USBFS.c **** *   This function performs different functionality depending on the Component’s
1594:.\Generated_Source\PSoC5/USBFS.c **** *   configured Endpoint Buffer Management. This parameter is defined in the
1595:.\Generated_Source\PSoC5/USBFS.c **** *   Descriptor Root in Component Configure window.
1596:.\Generated_Source\PSoC5/USBFS.c **** *
1597:.\Generated_Source\PSoC5/USBFS.c **** *   *Manual (Static/Dynamic Allocation):*
1598:.\Generated_Source\PSoC5/USBFS.c **** *   This function moves the specified number of bytes from endpoint buffer to
1599:.\Generated_Source\PSoC5/USBFS.c **** *   system RAM. The number of bytes actually transferred from endpoint buffer to
1600:.\Generated_Source\PSoC5/USBFS.c **** *   system RAM is the lesser of the actual number of bytes sent by the host or
1601:.\Generated_Source\PSoC5/USBFS.c **** *   the number of bytes requested by the length parameter.
1602:.\Generated_Source\PSoC5/USBFS.c **** *
1603:.\Generated_Source\PSoC5/USBFS.c **** *   *DMA with Manual Buffer Management:*
1604:.\Generated_Source\PSoC5/USBFS.c **** *   Configure DMA to transfer data from endpoint buffer to system RAM. Generate
1605:.\Generated_Source\PSoC5/USBFS.c **** *   a DMA request. The firmware must wait until the DMA completes the data
1606:.\Generated_Source\PSoC5/USBFS.c **** *   transfer after calling the USBFS_ReadOutEP() API. For example,
1607:.\Generated_Source\PSoC5/USBFS.c **** *   by checking EPstate:
1608:.\Generated_Source\PSoC5/USBFS.c **** *
1609:.\Generated_Source\PSoC5/USBFS.c **** *   \snippet /USBFS_sut_02.cydsn/main.c checking EPstatey
1610:.\Generated_Source\PSoC5/USBFS.c **** *
1611:.\Generated_Source\PSoC5/USBFS.c **** *   The USBFS_EnableOutEP() has to be called to allow host to write data into
1612:.\Generated_Source\PSoC5/USBFS.c **** *   the endpoint buffer after DMA has completed transfer data from OUT endpoint
1613:.\Generated_Source\PSoC5/USBFS.c **** *   buffer to SRAM.
1614:.\Generated_Source\PSoC5/USBFS.c **** *
1615:.\Generated_Source\PSoC5/USBFS.c **** *   *DMA with Automatic Buffer Management:*
1616:.\Generated_Source\PSoC5/USBFS.c **** *   Configure DMA. This is required only once and automatically generates DMA
1617:.\Generated_Source\PSoC5/USBFS.c **** *   requests as data arrives
1618:.\Generated_Source\PSoC5/USBFS.c **** *
1619:.\Generated_Source\PSoC5/USBFS.c **** *  \param epNumber: Contains the data endpoint number.
1620:.\Generated_Source\PSoC5/USBFS.c **** *            Valid values are between 1 and 8.
1621:.\Generated_Source\PSoC5/USBFS.c **** *  \param pData: A pointer to a data array from which the data for the endpoint
1622:.\Generated_Source\PSoC5/USBFS.c **** *         space is loaded.
1623:.\Generated_Source\PSoC5/USBFS.c **** *  \param length: The number of bytes to transfer from the USB Out endpoint and
1624:.\Generated_Source\PSoC5/USBFS.c **** *          loads it into data array. Valid values are between 0 and 1023. The
1625:.\Generated_Source\PSoC5/USBFS.c **** *          function moves fewer than the requested number of bytes if the host
1626:.\Generated_Source\PSoC5/USBFS.c **** *          sends fewer bytes than requested.
1627:.\Generated_Source\PSoC5/USBFS.c **** *
1628:.\Generated_Source\PSoC5/USBFS.c **** * \return
1629:.\Generated_Source\PSoC5/USBFS.c **** *  Number of bytes received, 0 for an invalid endpoint.
1630:.\Generated_Source\PSoC5/USBFS.c **** *
1631:.\Generated_Source\PSoC5/USBFS.c **** * \reentrant
1632:.\Generated_Source\PSoC5/USBFS.c **** *  No.
1633:.\Generated_Source\PSoC5/USBFS.c **** *
1634:.\Generated_Source\PSoC5/USBFS.c **** *******************************************************************************/
1635:.\Generated_Source\PSoC5/USBFS.c **** uint16 USBFS_ReadOutEP(uint8 epNumber, uint8 pData[], uint16 length)
1636:.\Generated_Source\PSoC5/USBFS.c ****                                                                         
1637:.\Generated_Source\PSoC5/USBFS.c **** {
 1154              		.loc 1 1637 0
ARM GAS  C:\Users\LUKASC~1\AppData\Local\Temp\ccEgAQpP.s 			page 50


 1155              		.cfi_startproc
 1156              		@ args = 0, pretend = 0, frame = 16
 1157              		@ frame_needed = 1, uses_anonymous_args = 0
 1158 0000 80B5     		push	{r7, lr}
 1159              		.cfi_def_cfa_offset 8
 1160              		.cfi_offset 7, -8
 1161              		.cfi_offset 14, -4
 1162 0002 84B0     		sub	sp, sp, #16
 1163              		.cfi_def_cfa_offset 24
 1164 0004 00AF     		add	r7, sp, #0
 1165              		.cfi_def_cfa_register 7
 1166 0006 0346     		mov	r3, r0
 1167 0008 3960     		str	r1, [r7]
 1168 000a FB71     		strb	r3, [r7, #7]
 1169 000c 1346     		mov	r3, r2	@ movhi
 1170 000e BB80     		strh	r3, [r7, #4]	@ movhi
1638:.\Generated_Source\PSoC5/USBFS.c ****     if ((pData != NULL) && (epNumber > USBFS_EP0) && (epNumber < USBFS_MAX_EP))
 1171              		.loc 1 1638 0
 1172 0010 3B68     		ldr	r3, [r7]
 1173 0012 002B     		cmp	r3, #0
 1174 0014 30D0     		beq	.L59
 1175              		.loc 1 1638 0 is_stmt 0 discriminator 1
 1176 0016 FB79     		ldrb	r3, [r7, #7]	@ zero_extendqisi2
 1177 0018 002B     		cmp	r3, #0
 1178 001a 2DD0     		beq	.L59
 1179              		.loc 1 1638 0 discriminator 2
 1180 001c FB79     		ldrb	r3, [r7, #7]	@ zero_extendqisi2
 1181 001e 082B     		cmp	r3, #8
 1182 0020 2AD8     		bhi	.L59
1639:.\Generated_Source\PSoC5/USBFS.c ****     {
1640:.\Generated_Source\PSoC5/USBFS.c ****     #if (!USBFS_EP_MANAGEMENT_DMA_AUTO)
1641:.\Generated_Source\PSoC5/USBFS.c ****         /* Adjust requested length to available data. */
1642:.\Generated_Source\PSoC5/USBFS.c ****         length = (length > USBFS_GetEPCount(epNumber)) ? USBFS_GetEPCount(epNumber) : length;
 1183              		.loc 1 1642 0 is_stmt 1
 1184 0022 FB79     		ldrb	r3, [r7, #7]	@ zero_extendqisi2
 1185 0024 1846     		mov	r0, r3
 1186 0026 FFF7FEFF 		bl	USBFS_GetEPCount
 1187 002a 0346     		mov	r3, r0
 1188 002c 1A46     		mov	r2, r3
 1189 002e BB88     		ldrh	r3, [r7, #4]
 1190 0030 9342     		cmp	r3, r2
 1191 0032 05D9     		bls	.L60
 1192              		.loc 1 1642 0 is_stmt 0 discriminator 1
 1193 0034 FB79     		ldrb	r3, [r7, #7]	@ zero_extendqisi2
 1194 0036 1846     		mov	r0, r3
 1195 0038 FFF7FEFF 		bl	USBFS_GetEPCount
 1196 003c 0346     		mov	r3, r0
 1197 003e 00E0     		b	.L61
 1198              	.L60:
 1199              		.loc 1 1642 0 discriminator 2
 1200 0040 BB88     		ldrh	r3, [r7, #4]
 1201              	.L61:
 1202              		.loc 1 1642 0 discriminator 4
 1203 0042 BB80     		strh	r3, [r7, #4]	@ movhi
 1204              	.LBB3:
1643:.\Generated_Source\PSoC5/USBFS.c ****     #endif /* (!USBFS_EP_MANAGEMENT_DMA_AUTO) */
1644:.\Generated_Source\PSoC5/USBFS.c **** 
ARM GAS  C:\Users\LUKASC~1\AppData\Local\Temp\ccEgAQpP.s 			page 51


1645:.\Generated_Source\PSoC5/USBFS.c ****     #if (USBFS_EP_MANAGEMENT_MANUAL)
1646:.\Generated_Source\PSoC5/USBFS.c ****         {
1647:.\Generated_Source\PSoC5/USBFS.c ****             /* Copy data using arbiter data register. */
1648:.\Generated_Source\PSoC5/USBFS.c ****             uint16 i;
1649:.\Generated_Source\PSoC5/USBFS.c ****             for (i = 0u; i < length; ++i)
 1205              		.loc 1 1649 0 is_stmt 1 discriminator 4
 1206 0044 0023     		movs	r3, #0
 1207 0046 FB81     		strh	r3, [r7, #14]	@ movhi
 1208 0048 0DE0     		b	.L62
 1209              	.L63:
1650:.\Generated_Source\PSoC5/USBFS.c ****             {
1651:.\Generated_Source\PSoC5/USBFS.c ****                 pData[i] = (uint8) USBFS_ARB_EP_BASE.arbEp[epNumber].rwDr;
 1210              		.loc 1 1651 0 discriminator 3
 1211 004a FB89     		ldrh	r3, [r7, #14]
 1212 004c 3A68     		ldr	r2, [r7]
 1213 004e 1344     		add	r3, r3, r2
 1214 0050 0D49     		ldr	r1, .L66
 1215 0052 FA79     		ldrb	r2, [r7, #7]	@ zero_extendqisi2
 1216 0054 1201     		lsls	r2, r2, #4
 1217 0056 0A44     		add	r2, r2, r1
 1218 0058 0832     		adds	r2, r2, #8
 1219 005a 1278     		ldrb	r2, [r2]
 1220 005c D2B2     		uxtb	r2, r2
 1221 005e 1A70     		strb	r2, [r3]
1649:.\Generated_Source\PSoC5/USBFS.c ****             {
 1222              		.loc 1 1649 0 discriminator 3
 1223 0060 FB89     		ldrh	r3, [r7, #14]	@ movhi
 1224 0062 0133     		adds	r3, r3, #1
 1225 0064 FB81     		strh	r3, [r7, #14]	@ movhi
 1226              	.L62:
1649:.\Generated_Source\PSoC5/USBFS.c ****             {
 1227              		.loc 1 1649 0 is_stmt 0 discriminator 1
 1228 0066 FA89     		ldrh	r2, [r7, #14]
 1229 0068 BB88     		ldrh	r3, [r7, #4]
 1230 006a 9A42     		cmp	r2, r3
 1231 006c EDD3     		bcc	.L63
 1232              	.LBE3:
1652:.\Generated_Source\PSoC5/USBFS.c ****             }
1653:.\Generated_Source\PSoC5/USBFS.c ****         }
1654:.\Generated_Source\PSoC5/USBFS.c **** 
1655:.\Generated_Source\PSoC5/USBFS.c ****         /* Arm OUT endpoint after data has been copied from endpoint buffer. */
1656:.\Generated_Source\PSoC5/USBFS.c ****         USBFS_EnableOutEP(epNumber);
 1233              		.loc 1 1656 0 is_stmt 1
 1234 006e FB79     		ldrb	r3, [r7, #7]	@ zero_extendqisi2
 1235 0070 1846     		mov	r0, r3
 1236 0072 FFF7FEFF 		bl	USBFS_EnableOutEP
 1237 0076 01E0     		b	.L64
 1238              	.L59:
1657:.\Generated_Source\PSoC5/USBFS.c ****     #else
1658:.\Generated_Source\PSoC5/USBFS.c **** 
1659:.\Generated_Source\PSoC5/USBFS.c ****         #if (CY_PSOC3 || CY_PSOC5LP)
1660:.\Generated_Source\PSoC5/USBFS.c ****             /* Initialize DMA if it was not initialized. */
1661:.\Generated_Source\PSoC5/USBFS.c ****             if (DMA_INVALID_TD == USBFS_DmaTd[epNumber])
1662:.\Generated_Source\PSoC5/USBFS.c ****             {
1663:.\Generated_Source\PSoC5/USBFS.c ****                 USBFS_InitEP_DMA(epNumber, pData);
1664:.\Generated_Source\PSoC5/USBFS.c ****             }
1665:.\Generated_Source\PSoC5/USBFS.c ****         #endif /* (CY_PSOC3 || CY_PSOC5LP) */
ARM GAS  C:\Users\LUKASC~1\AppData\Local\Temp\ccEgAQpP.s 			page 52


1666:.\Generated_Source\PSoC5/USBFS.c **** 
1667:.\Generated_Source\PSoC5/USBFS.c ****         #if (USBFS_EP_MANAGEMENT_DMA_MANUAL)
1668:.\Generated_Source\PSoC5/USBFS.c ****         #if (CY_PSOC4)
1669:.\Generated_Source\PSoC5/USBFS.c ****         {
1670:.\Generated_Source\PSoC5/USBFS.c ****             uint32 channelNum = (uint32) USBFS_DmaChan[epNumber];
1671:.\Generated_Source\PSoC5/USBFS.c **** 
1672:.\Generated_Source\PSoC5/USBFS.c ****             /* Disable DMA channel: start configuration. */
1673:.\Generated_Source\PSoC5/USBFS.c ****             USBFS_CyDmaChDisable(channelNum);
1674:.\Generated_Source\PSoC5/USBFS.c **** 
1675:.\Generated_Source\PSoC5/USBFS.c ****             /* Configure source and destination. */
1676:.\Generated_Source\PSoC5/USBFS.c ****             USBFS_CyDmaSetSrcAddress(channelNum, USBFS_DMA_DESCR0, (void*) &USBFS_ARB_EP_BASE.arbEp
1677:.\Generated_Source\PSoC5/USBFS.c ****             USBFS_CyDmaSetDstAddress(channelNum, USBFS_DMA_DESCR0, (void*) pData);
1678:.\Generated_Source\PSoC5/USBFS.c **** 
1679:.\Generated_Source\PSoC5/USBFS.c ****             /* Configure DMA descriptor. */
1680:.\Generated_Source\PSoC5/USBFS.c ****             USBFS_CyDmaSetConfiguration(channelNum, USBFS_DMA_DESCR0, USBFS_DMA_COMMON_CFG | (uint1
1681:.\Generated_Source\PSoC5/USBFS.c ****                                                     CYDMA_BYTE | CYDMA_WORD_ELEMENT | CYDMA_INC_DST
1682:.\Generated_Source\PSoC5/USBFS.c **** 
1683:.\Generated_Source\PSoC5/USBFS.c ****             /* Validate descriptor to execute on following DMA request. */
1684:.\Generated_Source\PSoC5/USBFS.c ****             USBFS_CyDmaValidateDescriptor(channelNum, USBFS_DMA_DESCR0);
1685:.\Generated_Source\PSoC5/USBFS.c **** 
1686:.\Generated_Source\PSoC5/USBFS.c ****             /* Enable DMA channel: configuration complete. */
1687:.\Generated_Source\PSoC5/USBFS.c ****             USBFS_CyDmaChEnable(channelNum);
1688:.\Generated_Source\PSoC5/USBFS.c ****         }
1689:.\Generated_Source\PSoC5/USBFS.c ****         #else
1690:.\Generated_Source\PSoC5/USBFS.c ****             /* Configure DMA to transfer data. */
1691:.\Generated_Source\PSoC5/USBFS.c ****             (void) CyDmaChDisable(USBFS_DmaChan[epNumber]);
1692:.\Generated_Source\PSoC5/USBFS.c ****             (void) CyDmaTdSetConfiguration(USBFS_DmaTd[epNumber], length, CY_DMA_DISABLE_TD, TD_TER
1693:.\Generated_Source\PSoC5/USBFS.c ****             (void) CyDmaTdSetAddress(USBFS_DmaTd[epNumber], LO16((uint32) &USBFS_ARB_EP_BASE.arbEp[
1694:.\Generated_Source\PSoC5/USBFS.c **** 
1695:.\Generated_Source\PSoC5/USBFS.c ****             /* Enable DMA channel. */
1696:.\Generated_Source\PSoC5/USBFS.c ****             (void) CyDmaChSetInitialTd(USBFS_DmaChan[epNumber], USBFS_DmaTd[epNumber]);
1697:.\Generated_Source\PSoC5/USBFS.c ****             (void) CyDmaChEnable(USBFS_DmaChan[epNumber], 1u);
1698:.\Generated_Source\PSoC5/USBFS.c ****         #endif /* (CY_PSOC4) */
1699:.\Generated_Source\PSoC5/USBFS.c **** 
1700:.\Generated_Source\PSoC5/USBFS.c ****             /* Generate DMA request. */
1701:.\Generated_Source\PSoC5/USBFS.c ****             USBFS_ARB_EP_BASE.arbEp[epNumber].epCfg |=  (uint8)  USBFS_ARB_EPX_CFG_DMA_REQ;
1702:.\Generated_Source\PSoC5/USBFS.c ****             USBFS_ARB_EP_BASE.arbEp[epNumber].epCfg &=  (uint8) ~USBFS_ARB_EPX_CFG_DMA_REQ;
1703:.\Generated_Source\PSoC5/USBFS.c **** 
1704:.\Generated_Source\PSoC5/USBFS.c ****             /* OUT endpoint has to be armed again by user when DMA transfers have been completed.
1705:.\Generated_Source\PSoC5/USBFS.c ****             * NO_EVENT_PENDING: notifies that data has been copied from endpoint buffer.
1706:.\Generated_Source\PSoC5/USBFS.c ****             */
1707:.\Generated_Source\PSoC5/USBFS.c **** 
1708:.\Generated_Source\PSoC5/USBFS.c ****         #endif /* (USBFS_EP_MANAGEMENT_DMA_MANUAL) */
1709:.\Generated_Source\PSoC5/USBFS.c **** 
1710:.\Generated_Source\PSoC5/USBFS.c ****         #if (USBFS_EP_MANAGEMENT_DMA_AUTO)
1711:.\Generated_Source\PSoC5/USBFS.c ****         #if (CY_PSOC4)
1712:.\Generated_Source\PSoC5/USBFS.c ****         {
1713:.\Generated_Source\PSoC5/USBFS.c ****             uint32 channelNum = (uint32) USBFS_DmaChan[epNumber];
1714:.\Generated_Source\PSoC5/USBFS.c ****             uint32 lengthDescr0, lengthDescr1;
1715:.\Generated_Source\PSoC5/USBFS.c **** 
1716:.\Generated_Source\PSoC5/USBFS.c ****             /* Get number of full bursts. */
1717:.\Generated_Source\PSoC5/USBFS.c ****             USBFS_DmaEpBurstCnt[epNumber] = (uint8) (length / USBFS_DMA_BYTES_PER_BURST);
1718:.\Generated_Source\PSoC5/USBFS.c **** 
1719:.\Generated_Source\PSoC5/USBFS.c ****             /* Get number of elements in the last burst. */
1720:.\Generated_Source\PSoC5/USBFS.c ****             USBFS_DmaEpLastBurstEl[epNumber] = (uint8) (length % USBFS_DMA_BYTES_PER_BURST);
1721:.\Generated_Source\PSoC5/USBFS.c **** 
1722:.\Generated_Source\PSoC5/USBFS.c ****             /* Get total number of bursts. */
ARM GAS  C:\Users\LUKASC~1\AppData\Local\Temp\ccEgAQpP.s 			page 53


1723:.\Generated_Source\PSoC5/USBFS.c ****             USBFS_DmaEpBurstCnt[epNumber] += (0u != USBFS_DmaEpLastBurstEl[epNumber]) ? 1u : 0u;
1724:.\Generated_Source\PSoC5/USBFS.c **** 
1725:.\Generated_Source\PSoC5/USBFS.c ****             /* Adjust number of the data elements transfered in last burst. */
1726:.\Generated_Source\PSoC5/USBFS.c ****             USBFS_DmaEpLastBurstEl[epNumber] = (0u != USBFS_DmaEpLastBurstEl[epNumber]) ?
1727:.\Generated_Source\PSoC5/USBFS.c ****                                                                   (USBFS_DmaEpLastBurstEl[epNumber]
1728:.\Generated_Source\PSoC5/USBFS.c ****                                                                   (USBFS_DMA_BYTES_PER_BURST - 1u);
1729:.\Generated_Source\PSoC5/USBFS.c **** 
1730:.\Generated_Source\PSoC5/USBFS.c ****             /* Get number of data elements to transfer for descriptor 0 and 1. */
1731:.\Generated_Source\PSoC5/USBFS.c ****             lengthDescr0 = (1u == USBFS_DmaEpBurstCnt[epNumber]) ? USBFS_DmaEpLastBurstEl[epNumber]
1732:.\Generated_Source\PSoC5/USBFS.c ****             lengthDescr1 = (2u == USBFS_DmaEpBurstCnt[epNumber]) ? USBFS_DmaEpLastBurstEl[epNumber]
1733:.\Generated_Source\PSoC5/USBFS.c **** 
1734:.\Generated_Source\PSoC5/USBFS.c ****             /* Mark if revert number of data elements in descriptor after transfer completion. */
1735:.\Generated_Source\PSoC5/USBFS.c ****             USBFS_DmaEpLastBurstEl[epNumber] |= (USBFS_DmaEpBurstCnt[epNumber] > 2u) ? USBFS_DMA_DE
1736:.\Generated_Source\PSoC5/USBFS.c **** 
1737:.\Generated_Source\PSoC5/USBFS.c ****             /* Mark last descriptor to be executed. */
1738:.\Generated_Source\PSoC5/USBFS.c ****             USBFS_DmaEpLastBurstEl[epNumber] |= (0u != (USBFS_DmaEpBurstCnt[epNumber] & 0x1u)) ?
1739:.\Generated_Source\PSoC5/USBFS.c ****                                                                     USBFS_DMA_DESCR0_MASK : USBFS_D
1740:.\Generated_Source\PSoC5/USBFS.c **** 
1741:.\Generated_Source\PSoC5/USBFS.c ****             /* Adjust burst counter taking to account: 2 valid descriptors and interrupt trigger af
1742:.\Generated_Source\PSoC5/USBFS.c ****             USBFS_DmaEpBurstCnt[epNumber] = USBFS_DMA_GET_BURST_CNT(USBFS_DmaEpBurstCnt[epNumber]);
1743:.\Generated_Source\PSoC5/USBFS.c **** 
1744:.\Generated_Source\PSoC5/USBFS.c ****             /* Store address of buffer and burst counter for endpoint. */
1745:.\Generated_Source\PSoC5/USBFS.c ****             USBFS_DmaEpBufferAddrBackup[epNumber] = (uint32) pData;
1746:.\Generated_Source\PSoC5/USBFS.c ****             USBFS_DmaEpBurstCntBackup[epNumber]   = USBFS_DmaEpBurstCnt[epNumber];
1747:.\Generated_Source\PSoC5/USBFS.c **** 
1748:.\Generated_Source\PSoC5/USBFS.c ****             /* Disable DMA channel: start configuration. */
1749:.\Generated_Source\PSoC5/USBFS.c ****             USBFS_CyDmaChDisable(channelNum);
1750:.\Generated_Source\PSoC5/USBFS.c **** 
1751:.\Generated_Source\PSoC5/USBFS.c ****             /* Set destination address. */
1752:.\Generated_Source\PSoC5/USBFS.c ****             USBFS_CyDmaSetSrcAddress(channelNum, USBFS_DMA_DESCR0, (void*) &USBFS_ARB_EP_BASE.arbEp
1753:.\Generated_Source\PSoC5/USBFS.c ****             USBFS_CyDmaSetSrcAddress(channelNum, USBFS_DMA_DESCR1, (void*) &USBFS_ARB_EP_BASE.arbEp
1754:.\Generated_Source\PSoC5/USBFS.c **** 
1755:.\Generated_Source\PSoC5/USBFS.c ****             USBFS_CyDmaSetDstAddress(channelNum, USBFS_DMA_DESCR0, (void*) ((uint32) pData));
1756:.\Generated_Source\PSoC5/USBFS.c ****             USBFS_CyDmaSetDstAddress(channelNum, USBFS_DMA_DESCR1, (void*) ((uint32) pData + USBFS_
1757:.\Generated_Source\PSoC5/USBFS.c **** 
1758:.\Generated_Source\PSoC5/USBFS.c ****             /* Configure DMA descriptor. */
1759:.\Generated_Source\PSoC5/USBFS.c ****             USBFS_CyDmaSetConfiguration(channelNum, USBFS_DMA_DESCR0, USBFS_DMA_COMMON_CFG  | lengt
1760:.\Generated_Source\PSoC5/USBFS.c ****                                                     CYDMA_BYTE | CYDMA_WORD_ELEMENT | CYDMA_INC_DST
1761:.\Generated_Source\PSoC5/USBFS.c **** 
1762:.\Generated_Source\PSoC5/USBFS.c ****             /* Configure DMA descriptor. */
1763:.\Generated_Source\PSoC5/USBFS.c ****             USBFS_CyDmaSetConfiguration(channelNum, USBFS_DMA_DESCR1, USBFS_DMA_COMMON_CFG  | lengt
1764:.\Generated_Source\PSoC5/USBFS.c ****                                                     CYDMA_BYTE | CYDMA_WORD_ELEMENT | CYDMA_INC_DST
1765:.\Generated_Source\PSoC5/USBFS.c **** 
1766:.\Generated_Source\PSoC5/USBFS.c ****             /* Enable interrupt from DMA channel. */
1767:.\Generated_Source\PSoC5/USBFS.c ****             USBFS_CyDmaSetInterruptMask(channelNum);
1768:.\Generated_Source\PSoC5/USBFS.c **** 
1769:.\Generated_Source\PSoC5/USBFS.c ****             /* Validate DMA descriptor 0 and 1. */
1770:.\Generated_Source\PSoC5/USBFS.c ****             USBFS_CyDmaValidateDescriptor(channelNum, USBFS_DMA_DESCR0);
1771:.\Generated_Source\PSoC5/USBFS.c ****             USBFS_CyDmaValidateDescriptor(channelNum, USBFS_DMA_DESCR1);
1772:.\Generated_Source\PSoC5/USBFS.c **** 
1773:.\Generated_Source\PSoC5/USBFS.c ****             /* Enable DMA channel: configuration complete. */
1774:.\Generated_Source\PSoC5/USBFS.c ****             USBFS_CyDmaChEnable(channelNum);
1775:.\Generated_Source\PSoC5/USBFS.c ****         }
1776:.\Generated_Source\PSoC5/USBFS.c ****         #else
1777:.\Generated_Source\PSoC5/USBFS.c ****             (void) CyDmaChDisable(USBFS_DmaChan[epNumber]);
1778:.\Generated_Source\PSoC5/USBFS.c ****             (void) CyDmaTdSetConfiguration(USBFS_DmaTd[epNumber], length,  USBFS_DmaTd[epNumber], T
1779:.\Generated_Source\PSoC5/USBFS.c ****             (void) CyDmaTdSetAddress(USBFS_DmaTd[epNumber], LO16((uint32) &USBFS_ARB_EP_BASE.arbEp[
ARM GAS  C:\Users\LUKASC~1\AppData\Local\Temp\ccEgAQpP.s 			page 54


1780:.\Generated_Source\PSoC5/USBFS.c **** 
1781:.\Generated_Source\PSoC5/USBFS.c ****             /* Clear Any potential pending DMA requests before starting DMA channel to transfer dat
1782:.\Generated_Source\PSoC5/USBFS.c ****             (void) CyDmaClearPendingDrq(USBFS_DmaChan[epNumber]);
1783:.\Generated_Source\PSoC5/USBFS.c **** 
1784:.\Generated_Source\PSoC5/USBFS.c ****             /* Enable DMA channel. */
1785:.\Generated_Source\PSoC5/USBFS.c ****             (void) CyDmaChSetInitialTd(USBFS_DmaChan[epNumber], USBFS_DmaTd[epNumber]);
1786:.\Generated_Source\PSoC5/USBFS.c ****             (void) CyDmaChEnable(USBFS_DmaChan[epNumber], 1u);
1787:.\Generated_Source\PSoC5/USBFS.c ****         #endif /* (CY_PSOC4) */
1788:.\Generated_Source\PSoC5/USBFS.c **** 
1789:.\Generated_Source\PSoC5/USBFS.c ****             /* OUT endpoint has to be armed again by user when DMA transfers have been completed.
1790:.\Generated_Source\PSoC5/USBFS.c ****             * NO_EVENT_PENDING: notifies that data has been copied from endpoint buffer.
1791:.\Generated_Source\PSoC5/USBFS.c ****             */
1792:.\Generated_Source\PSoC5/USBFS.c **** 
1793:.\Generated_Source\PSoC5/USBFS.c ****         #endif /* (USBFS_EP_MANAGEMENT_DMA_AUTO) */
1794:.\Generated_Source\PSoC5/USBFS.c ****     #endif /* (USBFS_EP_MANAGEMENT_MANUAL) */
1795:.\Generated_Source\PSoC5/USBFS.c ****     }
1796:.\Generated_Source\PSoC5/USBFS.c ****     else
1797:.\Generated_Source\PSoC5/USBFS.c ****     {
1798:.\Generated_Source\PSoC5/USBFS.c ****         length = 0u;
 1239              		.loc 1 1798 0
 1240 0078 0023     		movs	r3, #0
 1241 007a BB80     		strh	r3, [r7, #4]	@ movhi
 1242              	.L64:
1799:.\Generated_Source\PSoC5/USBFS.c ****     }
1800:.\Generated_Source\PSoC5/USBFS.c **** 
1801:.\Generated_Source\PSoC5/USBFS.c ****     return (length);
 1243              		.loc 1 1801 0
 1244 007c BB88     		ldrh	r3, [r7, #4]
1802:.\Generated_Source\PSoC5/USBFS.c **** }
 1245              		.loc 1 1802 0
 1246 007e 1846     		mov	r0, r3
 1247 0080 1037     		adds	r7, r7, #16
 1248              		.cfi_def_cfa_offset 8
 1249 0082 BD46     		mov	sp, r7
 1250              		.cfi_def_cfa_register 13
 1251              		@ sp needed
 1252 0084 80BD     		pop	{r7, pc}
 1253              	.L67:
 1254 0086 00BF     		.align	2
 1255              	.L66:
 1256 0088 70600040 		.word	1073766512
 1257              		.cfi_endproc
 1258              	.LFE12:
 1259              		.size	USBFS_ReadOutEP, .-USBFS_ReadOutEP
 1260              		.section	.text.USBFS_EnableOutEP,"ax",%progbits
 1261              		.align	2
 1262              		.global	USBFS_EnableOutEP
 1263              		.thumb
 1264              		.thumb_func
 1265              		.type	USBFS_EnableOutEP, %function
 1266              	USBFS_EnableOutEP:
 1267              	.LFB13:
1803:.\Generated_Source\PSoC5/USBFS.c **** 
1804:.\Generated_Source\PSoC5/USBFS.c **** 
1805:.\Generated_Source\PSoC5/USBFS.c **** #if (USBFS_16BITS_EP_ACCESS_ENABLE)
1806:.\Generated_Source\PSoC5/USBFS.c **** /*******************************************************************************
1807:.\Generated_Source\PSoC5/USBFS.c **** * Function Name: USBFS_LoadInEP16
ARM GAS  C:\Users\LUKASC~1\AppData\Local\Temp\ccEgAQpP.s 			page 55


1808:.\Generated_Source\PSoC5/USBFS.c **** ****************************************************************************//**
1809:.\Generated_Source\PSoC5/USBFS.c **** *
1810:.\Generated_Source\PSoC5/USBFS.c **** *  This function performs different functionality depending on the Component’s
1811:.\Generated_Source\PSoC5/USBFS.c **** *  configured Endpoint Buffer Management. This parameter is defined in
1812:.\Generated_Source\PSoC5/USBFS.c **** *  the Descriptor Root in Component Configure window.
1813:.\Generated_Source\PSoC5/USBFS.c **** *
1814:.\Generated_Source\PSoC5/USBFS.c **** *  *Manual (Static/Dynamic Allocation):*
1815:.\Generated_Source\PSoC5/USBFS.c **** *  This function loads and enables the specified USB data endpoint for an IN
1816:.\Generated_Source\PSoC5/USBFS.c **** *  data transfer.
1817:.\Generated_Source\PSoC5/USBFS.c **** *
1818:.\Generated_Source\PSoC5/USBFS.c **** *  *DMA with Manual Buffer Management:*
1819:.\Generated_Source\PSoC5/USBFS.c **** *  Configures DMA for a data transfer from system RAM to endpoint buffer.
1820:.\Generated_Source\PSoC5/USBFS.c **** *  Generates request for a transfer.
1821:.\Generated_Source\PSoC5/USBFS.c **** *
1822:.\Generated_Source\PSoC5/USBFS.c **** *  *DMA with Automatic Buffer Management:*
1823:.\Generated_Source\PSoC5/USBFS.c **** *  Configures DMA. This is required only once, so it is done only when parameter
1824:.\Generated_Source\PSoC5/USBFS.c **** *  pData is not NULL. When the pData pointer is NULL, the function skips this
1825:.\Generated_Source\PSoC5/USBFS.c **** *  task. Sets Data ready status: This generates the first DMA transfer and
1826:.\Generated_Source\PSoC5/USBFS.c **** *  prepares data in endpoint buffer.
1827:.\Generated_Source\PSoC5/USBFS.c **** *
1828:.\Generated_Source\PSoC5/USBFS.c **** *  \param epNumber Contains the data endpoint number.
1829:.\Generated_Source\PSoC5/USBFS.c **** *        Valid values are between 1 and 8.
1830:.\Generated_Source\PSoC5/USBFS.c **** *  \param *pData A pointer to a data array from which the data for the endpoint
1831:.\Generated_Source\PSoC5/USBFS.c **** *        space is loaded. It shall be ensured that this pointer address is even
1832:.\Generated_Source\PSoC5/USBFS.c **** *        to ensure the 16-bit transfer is aligned to even address. Else, a hard
1833:.\Generated_Source\PSoC5/USBFS.c **** *        fault condition can occur.
1834:.\Generated_Source\PSoC5/USBFS.c **** *  \param length The number of bytes to transfer from the array and then send as
1835:.\Generated_Source\PSoC5/USBFS.c **** *        a result of an IN request. Valid values are between 0 and 512 (1023 for
1836:.\Generated_Source\PSoC5/USBFS.c **** *        DMA with Automatic Buffer Management mode). The value 512 is applicable
1837:.\Generated_Source\PSoC5/USBFS.c **** *        if only one endpoint is used.
1838:.\Generated_Source\PSoC5/USBFS.c **** *
1839:.\Generated_Source\PSoC5/USBFS.c **** * \reentrant
1840:.\Generated_Source\PSoC5/USBFS.c **** *  No.
1841:.\Generated_Source\PSoC5/USBFS.c **** *
1842:.\Generated_Source\PSoC5/USBFS.c **** *******************************************************************************/
1843:.\Generated_Source\PSoC5/USBFS.c **** void USBFS_LoadInEP16(uint8 epNumber, const uint8 pData[], uint16 length)
1844:.\Generated_Source\PSoC5/USBFS.c **** {
1845:.\Generated_Source\PSoC5/USBFS.c ****     /* Check array alignment on half-word boundary. */
1846:.\Generated_Source\PSoC5/USBFS.c ****     CYASSERT(0u == (((uint32) pData) & 0x01u));
1847:.\Generated_Source\PSoC5/USBFS.c **** 
1848:.\Generated_Source\PSoC5/USBFS.c ****     if ((epNumber > USBFS_EP0) && (epNumber < USBFS_MAX_EP))
1849:.\Generated_Source\PSoC5/USBFS.c ****     {
1850:.\Generated_Source\PSoC5/USBFS.c ****     #if (!USBFS_EP_MANAGEMENT_DMA_AUTO)
1851:.\Generated_Source\PSoC5/USBFS.c ****         /* Limit length to available buffer USB IP buffer size. */
1852:.\Generated_Source\PSoC5/USBFS.c ****         if (length > (USBFS_EPX_DATA_BUF_MAX - USBFS_EP[epNumber].buffOffset))
1853:.\Generated_Source\PSoC5/USBFS.c ****         {
1854:.\Generated_Source\PSoC5/USBFS.c ****             length = USBFS_EPX_DATA_BUF_MAX - USBFS_EP[epNumber].buffOffset;
1855:.\Generated_Source\PSoC5/USBFS.c ****         }
1856:.\Generated_Source\PSoC5/USBFS.c ****     #endif /* (!USBFS_EP_MANAGEMENT_DMA_AUTO) */
1857:.\Generated_Source\PSoC5/USBFS.c **** 
1858:.\Generated_Source\PSoC5/USBFS.c ****         /* Set count and data toggle. */
1859:.\Generated_Source\PSoC5/USBFS.c ****         USBFS_SIE_EP_BASE.sieEp[epNumber].epCnt0 = (uint32) HI8(length) | USBFS_EP[epNumber].epTogg
1860:.\Generated_Source\PSoC5/USBFS.c ****         USBFS_SIE_EP_BASE.sieEp[epNumber].epCnt1 = (uint32) LO8(length);
1861:.\Generated_Source\PSoC5/USBFS.c **** 
1862:.\Generated_Source\PSoC5/USBFS.c ****         /* Adjust requested length: 2 bytes are handled at one data register access. */
1863:.\Generated_Source\PSoC5/USBFS.c ****         length += (length & 0x01u);
1864:.\Generated_Source\PSoC5/USBFS.c **** 
ARM GAS  C:\Users\LUKASC~1\AppData\Local\Temp\ccEgAQpP.s 			page 56


1865:.\Generated_Source\PSoC5/USBFS.c ****     #if (USBFS_EP_MANAGEMENT_MANUAL)
1866:.\Generated_Source\PSoC5/USBFS.c ****         if (NULL != pData)
1867:.\Generated_Source\PSoC5/USBFS.c ****         {
1868:.\Generated_Source\PSoC5/USBFS.c ****             /* Convert uint8 array to uint16. */
1869:.\Generated_Source\PSoC5/USBFS.c ****             const uint16 *dataBuf = (uint16 *) pData;
1870:.\Generated_Source\PSoC5/USBFS.c **** 
1871:.\Generated_Source\PSoC5/USBFS.c ****             /* Copy data using 16-bits arbiter data register. */
1872:.\Generated_Source\PSoC5/USBFS.c ****             uint16 i;
1873:.\Generated_Source\PSoC5/USBFS.c ****             for (i = 0u; i < (length >> 1u); ++i)
1874:.\Generated_Source\PSoC5/USBFS.c ****             {
1875:.\Generated_Source\PSoC5/USBFS.c ****                 USBFS_ARB_EP16_BASE.arbEp[epNumber].rwDr16 = dataBuf[i];
1876:.\Generated_Source\PSoC5/USBFS.c ****             }
1877:.\Generated_Source\PSoC5/USBFS.c ****         }
1878:.\Generated_Source\PSoC5/USBFS.c **** 
1879:.\Generated_Source\PSoC5/USBFS.c ****         /* IN endpoint buffer is full - read to be read. */
1880:.\Generated_Source\PSoC5/USBFS.c ****         USBFS_EP[epNumber].apiEpState = USBFS_NO_EVENT_PENDING;
1881:.\Generated_Source\PSoC5/USBFS.c **** 
1882:.\Generated_Source\PSoC5/USBFS.c ****         /* Arm IN endpoint. */
1883:.\Generated_Source\PSoC5/USBFS.c ****         USBFS_SIE_EP_BASE.sieEp[epNumber].epCr0 = USBFS_EP[epNumber].epMode;
1884:.\Generated_Source\PSoC5/USBFS.c **** 
1885:.\Generated_Source\PSoC5/USBFS.c ****     #else
1886:.\Generated_Source\PSoC5/USBFS.c **** 
1887:.\Generated_Source\PSoC5/USBFS.c ****         #if (USBFS_EP_MANAGEMENT_DMA_MANUAL)
1888:.\Generated_Source\PSoC5/USBFS.c ****             /* IN endpoint buffer will be fully loaded by DMA shortly. */
1889:.\Generated_Source\PSoC5/USBFS.c ****             USBFS_EP[epNumber].apiEpState = USBFS_NO_EVENT_PENDING;
1890:.\Generated_Source\PSoC5/USBFS.c **** 
1891:.\Generated_Source\PSoC5/USBFS.c ****             if ((pData != NULL) && (length > 0u))
1892:.\Generated_Source\PSoC5/USBFS.c ****             {
1893:.\Generated_Source\PSoC5/USBFS.c ****                 uint32 channelNum = (uint32) USBFS_DmaChan[epNumber];
1894:.\Generated_Source\PSoC5/USBFS.c **** 
1895:.\Generated_Source\PSoC5/USBFS.c ****                 /* Disable DMA channel: start configuration. */
1896:.\Generated_Source\PSoC5/USBFS.c ****                 USBFS_CyDmaChDisable(channelNum);
1897:.\Generated_Source\PSoC5/USBFS.c **** 
1898:.\Generated_Source\PSoC5/USBFS.c ****                 /* Configure source and destination. */
1899:.\Generated_Source\PSoC5/USBFS.c ****                 USBFS_CyDmaSetSrcAddress(channelNum, USBFS_DMA_DESCR0, (void*) pData);
1900:.\Generated_Source\PSoC5/USBFS.c ****                 USBFS_CyDmaSetDstAddress(channelNum, USBFS_DMA_DESCR0, (void*) &USBFS_ARB_EP16_BASE
1901:.\Generated_Source\PSoC5/USBFS.c **** 
1902:.\Generated_Source\PSoC5/USBFS.c ****                 /* Configure DMA descriptor. */
1903:.\Generated_Source\PSoC5/USBFS.c ****                 length = (length >> 1u) - 1u;
1904:.\Generated_Source\PSoC5/USBFS.c ****                 USBFS_CyDmaSetConfiguration(channelNum, USBFS_DMA_DESCR0, USBFS_DMA_COMMON_CFG | le
1905:.\Generated_Source\PSoC5/USBFS.c ****                                                         CYDMA_HALFWORD | CYDMA_ELEMENT_WORD | CYDMA
1906:.\Generated_Source\PSoC5/USBFS.c **** 
1907:.\Generated_Source\PSoC5/USBFS.c ****                 /* Validate descriptor to execute on following DMA request. */
1908:.\Generated_Source\PSoC5/USBFS.c ****                 USBFS_CyDmaValidateDescriptor(channelNum, USBFS_DMA_DESCR0);
1909:.\Generated_Source\PSoC5/USBFS.c **** 
1910:.\Generated_Source\PSoC5/USBFS.c ****                 /* Enable DMA channel: configuration complete. */
1911:.\Generated_Source\PSoC5/USBFS.c ****                 USBFS_CyDmaChEnable(channelNum);
1912:.\Generated_Source\PSoC5/USBFS.c **** 
1913:.\Generated_Source\PSoC5/USBFS.c ****                 /* Generate DMA request. */
1914:.\Generated_Source\PSoC5/USBFS.c ****                 USBFS_ARB_EP_BASE.arbEp[epNumber].epCfg |=  (uint32)  USBFS_ARB_EPX_CFG_DMA_REQ;
1915:.\Generated_Source\PSoC5/USBFS.c ****                 USBFS_ARB_EP_BASE.arbEp[epNumber].epCfg &=  (uint32) ~USBFS_ARB_EPX_CFG_DMA_REQ;
1916:.\Generated_Source\PSoC5/USBFS.c **** 
1917:.\Generated_Source\PSoC5/USBFS.c ****                 /* IN endpoint will be armed in ARB_ISR(source: IN_BUF_FULL) after first DMA transf
1918:.\Generated_Source\PSoC5/USBFS.c ****             }
1919:.\Generated_Source\PSoC5/USBFS.c ****             else
1920:.\Generated_Source\PSoC5/USBFS.c ****             {
1921:.\Generated_Source\PSoC5/USBFS.c ****                 /* When zero-length packet: arm IN endpoint directly. */
ARM GAS  C:\Users\LUKASC~1\AppData\Local\Temp\ccEgAQpP.s 			page 57


1922:.\Generated_Source\PSoC5/USBFS.c ****                 USBFS_SIE_EP_BASE.sieEp[epNumber].epCr0 = USBFS_EP[epNumber].epMode;
1923:.\Generated_Source\PSoC5/USBFS.c ****             }
1924:.\Generated_Source\PSoC5/USBFS.c ****         #endif /* (USBFS_EP_MANAGEMENT_DMA_MANUAL) */
1925:.\Generated_Source\PSoC5/USBFS.c **** 
1926:.\Generated_Source\PSoC5/USBFS.c ****         #if (USBFS_EP_MANAGEMENT_DMA_AUTO)
1927:.\Generated_Source\PSoC5/USBFS.c ****             if (pData != NULL)
1928:.\Generated_Source\PSoC5/USBFS.c ****             {
1929:.\Generated_Source\PSoC5/USBFS.c ****                 uint32 channelNum = (uint32) USBFS_DmaChan[epNumber];
1930:.\Generated_Source\PSoC5/USBFS.c **** 
1931:.\Generated_Source\PSoC5/USBFS.c ****                 /* Store address of buffer. */
1932:.\Generated_Source\PSoC5/USBFS.c ****                 USBFS_DmaEpBufferAddrBackup[epNumber] = (uint32) pData;
1933:.\Generated_Source\PSoC5/USBFS.c **** 
1934:.\Generated_Source\PSoC5/USBFS.c ****                 /* Disable DMA channel: start configuration. */
1935:.\Generated_Source\PSoC5/USBFS.c ****                 USBFS_CyDmaChDisable(channelNum);
1936:.\Generated_Source\PSoC5/USBFS.c **** 
1937:.\Generated_Source\PSoC5/USBFS.c ****                 /* Set destination address. */
1938:.\Generated_Source\PSoC5/USBFS.c ****                 USBFS_CyDmaSetDstAddress(channelNum, USBFS_DMA_DESCR0, (void*) &USBFS_ARB_EP16_BASE
1939:.\Generated_Source\PSoC5/USBFS.c ****                 USBFS_CyDmaSetDstAddress(channelNum, USBFS_DMA_DESCR1, (void*) &USBFS_ARB_EP16_BASE
1940:.\Generated_Source\PSoC5/USBFS.c **** 
1941:.\Generated_Source\PSoC5/USBFS.c ****                 /* Configure DMA descriptor. */
1942:.\Generated_Source\PSoC5/USBFS.c ****                 USBFS_CyDmaSetConfiguration(channelNum, USBFS_DMA_DESCR0, USBFS_DMA_COMMON_CFG  |
1943:.\Generated_Source\PSoC5/USBFS.c ****                                                         CYDMA_HALFWORD | CYDMA_ELEMENT_WORD | CYDMA
1944:.\Generated_Source\PSoC5/USBFS.c **** 
1945:.\Generated_Source\PSoC5/USBFS.c ****                 /* Configure DMA descriptor. */
1946:.\Generated_Source\PSoC5/USBFS.c ****                 USBFS_CyDmaSetConfiguration(channelNum, USBFS_DMA_DESCR1, USBFS_DMA_COMMON_CFG  |
1947:.\Generated_Source\PSoC5/USBFS.c ****                                                         CYDMA_HALFWORD | CYDMA_ELEMENT_WORD | CYDMA
1948:.\Generated_Source\PSoC5/USBFS.c **** 
1949:.\Generated_Source\PSoC5/USBFS.c ****                 /* Enable interrupt from DMA channel. */
1950:.\Generated_Source\PSoC5/USBFS.c ****                 USBFS_CyDmaSetInterruptMask(channelNum);
1951:.\Generated_Source\PSoC5/USBFS.c **** 
1952:.\Generated_Source\PSoC5/USBFS.c ****                 /* Validate descriptor 1. It will not be invalided during operation. */
1953:.\Generated_Source\PSoC5/USBFS.c ****                 USBFS_CyDmaValidateDescriptor(channelNum, USBFS_DMA_DESCR1);
1954:.\Generated_Source\PSoC5/USBFS.c **** 
1955:.\Generated_Source\PSoC5/USBFS.c ****                 /* Enable DMA channel: configuration complete. */
1956:.\Generated_Source\PSoC5/USBFS.c ****                 USBFS_CyDmaChEnable(channelNum);
1957:.\Generated_Source\PSoC5/USBFS.c ****             }
1958:.\Generated_Source\PSoC5/USBFS.c ****             else
1959:.\Generated_Source\PSoC5/USBFS.c ****             {
1960:.\Generated_Source\PSoC5/USBFS.c ****                 /* IN endpoint buffer (32 bytes) will shortly be preloaded by DMA. */
1961:.\Generated_Source\PSoC5/USBFS.c ****                 USBFS_EP[epNumber].apiEpState = USBFS_NO_EVENT_PENDING;
1962:.\Generated_Source\PSoC5/USBFS.c **** 
1963:.\Generated_Source\PSoC5/USBFS.c ****                 if (length > 0u)
1964:.\Generated_Source\PSoC5/USBFS.c ****                 {
1965:.\Generated_Source\PSoC5/USBFS.c ****                     uint32 lengthDescr0, lengthDescr1;
1966:.\Generated_Source\PSoC5/USBFS.c ****                     uint32 channelNum = (uint32) USBFS_DmaChan[epNumber];
1967:.\Generated_Source\PSoC5/USBFS.c **** 
1968:.\Generated_Source\PSoC5/USBFS.c ****                     /* Get number of full bursts. */
1969:.\Generated_Source\PSoC5/USBFS.c ****                     USBFS_DmaEpBurstCnt[epNumber] = (uint8) (length / USBFS_DMA_BYTES_PER_BURST);
1970:.\Generated_Source\PSoC5/USBFS.c **** 
1971:.\Generated_Source\PSoC5/USBFS.c ****                     /* Get number of elements in the last burst. */
1972:.\Generated_Source\PSoC5/USBFS.c ****                     USBFS_DmaEpLastBurstEl[epNumber] = (uint8) (length % USBFS_DMA_BYTES_PER_BURST)
1973:.\Generated_Source\PSoC5/USBFS.c **** 
1974:.\Generated_Source\PSoC5/USBFS.c ****                     /* Get total number of bursts. */
1975:.\Generated_Source\PSoC5/USBFS.c ****                     USBFS_DmaEpBurstCnt[epNumber] += (0u != USBFS_DmaEpLastBurstEl[epNumber]) ? 1u 
1976:.\Generated_Source\PSoC5/USBFS.c **** 
1977:.\Generated_Source\PSoC5/USBFS.c ****                     /* Adjust number of data elements transferred in last burst. */
1978:.\Generated_Source\PSoC5/USBFS.c ****                     USBFS_DmaEpLastBurstEl[epNumber] = (0u != USBFS_DmaEpLastBurstEl[epNumber]) ?
ARM GAS  C:\Users\LUKASC~1\AppData\Local\Temp\ccEgAQpP.s 			page 58


1979:.\Generated_Source\PSoC5/USBFS.c ****                                                                           ((USBFS_DmaEpLastBurstEl[
1980:.\Generated_Source\PSoC5/USBFS.c ****                                                                            (USBFS_DMA_HALFWORDS_PER
1981:.\Generated_Source\PSoC5/USBFS.c **** 
1982:.\Generated_Source\PSoC5/USBFS.c ****                     /* Get number of data elements to transfer for descriptor 0 and 1. */
1983:.\Generated_Source\PSoC5/USBFS.c ****                     lengthDescr0 = (1u == USBFS_DmaEpBurstCnt[epNumber]) ? USBFS_DmaEpLastBurstEl[e
1984:.\Generated_Source\PSoC5/USBFS.c ****                     lengthDescr1 = (2u == USBFS_DmaEpBurstCnt[epNumber]) ? USBFS_DmaEpLastBurstEl[e
1985:.\Generated_Source\PSoC5/USBFS.c **** 
1986:.\Generated_Source\PSoC5/USBFS.c ****                     /* Mark which descriptor is last one to execute. */
1987:.\Generated_Source\PSoC5/USBFS.c ****                     USBFS_DmaEpLastBurstEl[epNumber] |= (0u != (USBFS_DmaEpBurstCnt[epNumber] & 0x1
1988:.\Generated_Source\PSoC5/USBFS.c ****                                                                             USBFS_DMA_DESCR0_MASK :
1989:.\Generated_Source\PSoC5/USBFS.c **** 
1990:.\Generated_Source\PSoC5/USBFS.c ****                     /* Adjust burst counter taking to account: 2 valid descriptors and interrupt tr
1991:.\Generated_Source\PSoC5/USBFS.c ****                     USBFS_DmaEpBurstCnt[epNumber] = USBFS_DMA_GET_BURST_CNT(USBFS_DmaEpBurstCnt[epN
1992:.\Generated_Source\PSoC5/USBFS.c **** 
1993:.\Generated_Source\PSoC5/USBFS.c ****                     /* Restore DMA settings for current transfer. */
1994:.\Generated_Source\PSoC5/USBFS.c ****                     USBFS_CyDmaChDisable(channelNum);
1995:.\Generated_Source\PSoC5/USBFS.c **** 
1996:.\Generated_Source\PSoC5/USBFS.c ****                     /* Restore destination address for input endpoint. */
1997:.\Generated_Source\PSoC5/USBFS.c ****                     USBFS_CyDmaSetSrcAddress(channelNum, USBFS_DMA_DESCR0, (void*) ((uint32) USBFS_
1998:.\Generated_Source\PSoC5/USBFS.c ****                     USBFS_CyDmaSetSrcAddress(channelNum, USBFS_DMA_DESCR1, (void*) ((uint32) USBFS_
1999:.\Generated_Source\PSoC5/USBFS.c ****                                                                                                    
2000:.\Generated_Source\PSoC5/USBFS.c **** 
2001:.\Generated_Source\PSoC5/USBFS.c ****                     /* Set number of elements to transfer. */
2002:.\Generated_Source\PSoC5/USBFS.c ****                     USBFS_CyDmaSetNumDataElements(channelNum, USBFS_DMA_DESCR0, lengthDescr0);
2003:.\Generated_Source\PSoC5/USBFS.c ****                     USBFS_CyDmaSetNumDataElements(channelNum, USBFS_DMA_DESCR1, lengthDescr1);
2004:.\Generated_Source\PSoC5/USBFS.c **** 
2005:.\Generated_Source\PSoC5/USBFS.c ****                     /* Validate descriptor 0 and command to start with it. */
2006:.\Generated_Source\PSoC5/USBFS.c ****                     USBFS_CyDmaValidateDescriptor(channelNum, USBFS_DMA_DESCR0);
2007:.\Generated_Source\PSoC5/USBFS.c ****                     USBFS_CyDmaSetDescriptor0Next(channelNum);
2008:.\Generated_Source\PSoC5/USBFS.c **** 
2009:.\Generated_Source\PSoC5/USBFS.c ****                     /* Enable DMA channel: configuration complete. */
2010:.\Generated_Source\PSoC5/USBFS.c ****                     USBFS_CyDmaChEnable(channelNum);
2011:.\Generated_Source\PSoC5/USBFS.c **** 
2012:.\Generated_Source\PSoC5/USBFS.c ****                 #if !defined (USBFS_MANUAL_IN_EP_ARM)
2013:.\Generated_Source\PSoC5/USBFS.c ****                     /* Set IN data ready to generate DMA request to load data into endpoint buffer.
2014:.\Generated_Source\PSoC5/USBFS.c ****                     USBFS_ARB_EP_BASE.arbEp[epNumber].epCfg |= USBFS_ARB_EPX_CFG_IN_DATA_RDY;
2015:.\Generated_Source\PSoC5/USBFS.c ****                 #endif  /* (USBFS_MANUAL_IN_EP_ARM) */
2016:.\Generated_Source\PSoC5/USBFS.c **** 
2017:.\Generated_Source\PSoC5/USBFS.c ****                     /* IN endpoint will be armed in ARB_ISR(source: IN_BUF_FULL) after first DMA tr
2018:.\Generated_Source\PSoC5/USBFS.c ****                 }
2019:.\Generated_Source\PSoC5/USBFS.c ****                 else
2020:.\Generated_Source\PSoC5/USBFS.c ****                 {
2021:.\Generated_Source\PSoC5/USBFS.c ****                     /* When zero-length packet: arm IN endpoint directly. */
2022:.\Generated_Source\PSoC5/USBFS.c ****                     USBFS_SIE_EP_BASE.sieEp[epNumber].epCr0 = USBFS_EP[epNumber].epMode;
2023:.\Generated_Source\PSoC5/USBFS.c ****                 }
2024:.\Generated_Source\PSoC5/USBFS.c ****             }
2025:.\Generated_Source\PSoC5/USBFS.c ****         #endif /* (USBFS_EP_MANAGEMENT_DMA_AUTO) */
2026:.\Generated_Source\PSoC5/USBFS.c ****     #endif /* (USBFS_EP_MANAGEMENT_MANUAL) */
2027:.\Generated_Source\PSoC5/USBFS.c ****     }
2028:.\Generated_Source\PSoC5/USBFS.c **** }
2029:.\Generated_Source\PSoC5/USBFS.c **** 
2030:.\Generated_Source\PSoC5/USBFS.c **** 
2031:.\Generated_Source\PSoC5/USBFS.c **** /*******************************************************************************
2032:.\Generated_Source\PSoC5/USBFS.c **** * Function Name: USBFS_ReadOutEP16
2033:.\Generated_Source\PSoC5/USBFS.c **** ****************************************************************************//**
2034:.\Generated_Source\PSoC5/USBFS.c **** *
2035:.\Generated_Source\PSoC5/USBFS.c **** *   This function performs different functionality depending on the Component’s
ARM GAS  C:\Users\LUKASC~1\AppData\Local\Temp\ccEgAQpP.s 			page 59


2036:.\Generated_Source\PSoC5/USBFS.c **** *   configured Endpoint Buffer Management. This parameter is defined in the
2037:.\Generated_Source\PSoC5/USBFS.c **** *   Descriptor Root in Component Configure window.
2038:.\Generated_Source\PSoC5/USBFS.c **** *
2039:.\Generated_Source\PSoC5/USBFS.c **** *   *Manual (Static/Dynamic Allocation):*
2040:.\Generated_Source\PSoC5/USBFS.c **** *   This function moves the specified number of bytes from endpoint buffer to
2041:.\Generated_Source\PSoC5/USBFS.c **** *   system RAM. The number of bytes actually transferred from endpoint buffer to
2042:.\Generated_Source\PSoC5/USBFS.c **** *   system RAM is the lesser of the actual number of bytes sent by the host or
2043:.\Generated_Source\PSoC5/USBFS.c **** *   the number of bytes requested by the length parameter.
2044:.\Generated_Source\PSoC5/USBFS.c **** *
2045:.\Generated_Source\PSoC5/USBFS.c **** *   *DMA with Manual Buffer Management:*
2046:.\Generated_Source\PSoC5/USBFS.c **** *   Configure DMA to transfer data from endpoint buffer to system RAM. Generate
2047:.\Generated_Source\PSoC5/USBFS.c **** *   a DMA request. The firmware must wait until the DMA completes the data
2048:.\Generated_Source\PSoC5/USBFS.c **** *   transfer after calling the USBFS_ReadOutEP() API. For example,
2049:.\Generated_Source\PSoC5/USBFS.c **** *   by checking EPstate:
2050:.\Generated_Source\PSoC5/USBFS.c **** *
2051:.\Generated_Source\PSoC5/USBFS.c **** *   \snippet /USBFS_sut_02.cydsn/main.c checking EPstatey
2052:.\Generated_Source\PSoC5/USBFS.c **** *
2053:.\Generated_Source\PSoC5/USBFS.c **** *   The USBFS_EnableOutEP() has to be called to allow host to write data into
2054:.\Generated_Source\PSoC5/USBFS.c **** *   the endpoint buffer after DMA has completed transfer data from OUT endpoint
2055:.\Generated_Source\PSoC5/USBFS.c **** *   buffer to SRAM.
2056:.\Generated_Source\PSoC5/USBFS.c **** *
2057:.\Generated_Source\PSoC5/USBFS.c **** *   *DMA with Automatic Buffer Management:*
2058:.\Generated_Source\PSoC5/USBFS.c **** *   Configure DMA. This is required only once and automatically generates DMA
2059:.\Generated_Source\PSoC5/USBFS.c **** *   requests as data arrives
2060:.\Generated_Source\PSoC5/USBFS.c **** *
2061:.\Generated_Source\PSoC5/USBFS.c **** *  \param epNumber: Contains the data endpoint number.
2062:.\Generated_Source\PSoC5/USBFS.c **** *         Valid values are between 1 and 8.
2063:.\Generated_Source\PSoC5/USBFS.c **** *  \param pData: A pointer to a data array into which the data for the endpoint
2064:.\Generated_Source\PSoC5/USBFS.c **** *         space is copied. It shall be ensured that this pointer address is
2065:.\Generated_Source\PSoC5/USBFS.c **** *         even to ensure the 16-bit transfer is aligned to even address. Else,
2066:.\Generated_Source\PSoC5/USBFS.c **** *         a hard fault condition can occur.
2067:.\Generated_Source\PSoC5/USBFS.c **** *  \param length: The number of bytes to transfer from the USB Out endpoint and
2068:.\Generated_Source\PSoC5/USBFS.c **** *         loads it into data array. Valid values are between 0 and 1023. The
2069:.\Generated_Source\PSoC5/USBFS.c **** *         function moves fewer than the requested number of bytes if the host
2070:.\Generated_Source\PSoC5/USBFS.c **** *         sends fewer bytes than requested.
2071:.\Generated_Source\PSoC5/USBFS.c **** *
2072:.\Generated_Source\PSoC5/USBFS.c **** * \return
2073:.\Generated_Source\PSoC5/USBFS.c **** *  Number of bytes received, 0 for an invalid endpoint.
2074:.\Generated_Source\PSoC5/USBFS.c **** *
2075:.\Generated_Source\PSoC5/USBFS.c **** * \reentrant
2076:.\Generated_Source\PSoC5/USBFS.c **** *  No.
2077:.\Generated_Source\PSoC5/USBFS.c **** *
2078:.\Generated_Source\PSoC5/USBFS.c **** *******************************************************************************/
2079:.\Generated_Source\PSoC5/USBFS.c **** uint16 USBFS_ReadOutEP16(uint8 epNumber, uint8 pData[], uint16 length)
2080:.\Generated_Source\PSoC5/USBFS.c **** {
2081:.\Generated_Source\PSoC5/USBFS.c ****     uint32 adjLength;
2082:.\Generated_Source\PSoC5/USBFS.c **** 
2083:.\Generated_Source\PSoC5/USBFS.c ****     /* Check array alignment on half-word boundary */
2084:.\Generated_Source\PSoC5/USBFS.c ****     CYASSERT(0u == (((uint32) pData) & 0x01u));
2085:.\Generated_Source\PSoC5/USBFS.c **** 
2086:.\Generated_Source\PSoC5/USBFS.c ****     if ((pData != NULL) && (epNumber > USBFS_EP0) && (epNumber < USBFS_MAX_EP))
2087:.\Generated_Source\PSoC5/USBFS.c ****     {
2088:.\Generated_Source\PSoC5/USBFS.c ****     #if (!USBFS_EP_MANAGEMENT_DMA_AUTO)
2089:.\Generated_Source\PSoC5/USBFS.c ****         /* Adjust requested length to available data. */
2090:.\Generated_Source\PSoC5/USBFS.c ****         length = (length > USBFS_GetEPCount(epNumber)) ? USBFS_GetEPCount(epNumber) : length;
2091:.\Generated_Source\PSoC5/USBFS.c ****     #endif /* (!USBFS_EP_MANAGEMENT_DMA_AUTO) */
2092:.\Generated_Source\PSoC5/USBFS.c **** 
ARM GAS  C:\Users\LUKASC~1\AppData\Local\Temp\ccEgAQpP.s 			page 60


2093:.\Generated_Source\PSoC5/USBFS.c ****     /* Adjust requested length: 2 bytes are handled at one data register access. */
2094:.\Generated_Source\PSoC5/USBFS.c ****     adjLength =  length + ((uint32)length & 1u);
2095:.\Generated_Source\PSoC5/USBFS.c **** 
2096:.\Generated_Source\PSoC5/USBFS.c ****     #if (USBFS_EP_MANAGEMENT_MANUAL)
2097:.\Generated_Source\PSoC5/USBFS.c ****         {
2098:.\Generated_Source\PSoC5/USBFS.c ****             /* Convert uint8 array to uint16. */
2099:.\Generated_Source\PSoC5/USBFS.c ****             uint16 *dataBuf = (uint16 *) pData;
2100:.\Generated_Source\PSoC5/USBFS.c **** 
2101:.\Generated_Source\PSoC5/USBFS.c ****             /* Copy data using 16-bits arbiter data register. */
2102:.\Generated_Source\PSoC5/USBFS.c ****             uint16 i;
2103:.\Generated_Source\PSoC5/USBFS.c ****             for (i = 0u; i < (adjLength >> 1u); ++i)
2104:.\Generated_Source\PSoC5/USBFS.c ****             {
2105:.\Generated_Source\PSoC5/USBFS.c ****                 dataBuf[i] = (uint16) USBFS_ARB_EP16_BASE.arbEp[epNumber].rwDr16;
2106:.\Generated_Source\PSoC5/USBFS.c ****             }
2107:.\Generated_Source\PSoC5/USBFS.c ****         }
2108:.\Generated_Source\PSoC5/USBFS.c **** 
2109:.\Generated_Source\PSoC5/USBFS.c ****         /* Arm OUT endpoint after data has been read from endpoint buffer. */
2110:.\Generated_Source\PSoC5/USBFS.c ****         USBFS_EnableOutEP(epNumber);
2111:.\Generated_Source\PSoC5/USBFS.c ****     #else
2112:.\Generated_Source\PSoC5/USBFS.c **** 
2113:.\Generated_Source\PSoC5/USBFS.c ****         #if (USBFS_EP_MANAGEMENT_DMA_MANUAL)
2114:.\Generated_Source\PSoC5/USBFS.c ****         {
2115:.\Generated_Source\PSoC5/USBFS.c ****             uint32 channelNum = (uint32) USBFS_DmaChan[epNumber];
2116:.\Generated_Source\PSoC5/USBFS.c **** 
2117:.\Generated_Source\PSoC5/USBFS.c ****             /* Disable DMA channel: start configuration. */
2118:.\Generated_Source\PSoC5/USBFS.c ****             USBFS_CyDmaChDisable(channelNum);
2119:.\Generated_Source\PSoC5/USBFS.c **** 
2120:.\Generated_Source\PSoC5/USBFS.c ****             /* Configure source and destination. */
2121:.\Generated_Source\PSoC5/USBFS.c ****             USBFS_CyDmaSetSrcAddress(channelNum, USBFS_DMA_DESCR0, (void*) &USBFS_ARB_EP16_BASE.arb
2122:.\Generated_Source\PSoC5/USBFS.c ****             USBFS_CyDmaSetDstAddress(channelNum, USBFS_DMA_DESCR0, (void*) pData);
2123:.\Generated_Source\PSoC5/USBFS.c **** 
2124:.\Generated_Source\PSoC5/USBFS.c ****             /* Configure DMA descriptor. */
2125:.\Generated_Source\PSoC5/USBFS.c ****             USBFS_CyDmaSetConfiguration(channelNum, USBFS_DMA_DESCR0, USBFS_DMA_COMMON_CFG | (uint1
2126:.\Generated_Source\PSoC5/USBFS.c ****                                                     CYDMA_HALFWORD | CYDMA_WORD_ELEMENT | CYDMA_INC
2127:.\Generated_Source\PSoC5/USBFS.c **** 
2128:.\Generated_Source\PSoC5/USBFS.c ****             /* Validate descriptor to execute on following DMA request. */
2129:.\Generated_Source\PSoC5/USBFS.c ****             USBFS_CyDmaValidateDescriptor(channelNum, USBFS_DMA_DESCR0);
2130:.\Generated_Source\PSoC5/USBFS.c **** 
2131:.\Generated_Source\PSoC5/USBFS.c ****             /* Enable DMA channel: configuration complete. */
2132:.\Generated_Source\PSoC5/USBFS.c ****             USBFS_CyDmaChEnable(channelNum);
2133:.\Generated_Source\PSoC5/USBFS.c **** 
2134:.\Generated_Source\PSoC5/USBFS.c ****             /* Generate DMA request. */
2135:.\Generated_Source\PSoC5/USBFS.c ****             USBFS_ARB_EP_BASE.arbEp[epNumber].epCfg |=  (uint32)  USBFS_ARB_EPX_CFG_DMA_REQ;
2136:.\Generated_Source\PSoC5/USBFS.c ****             USBFS_ARB_EP_BASE.arbEp[epNumber].epCfg &=  (uint32) ~USBFS_ARB_EPX_CFG_DMA_REQ;
2137:.\Generated_Source\PSoC5/USBFS.c **** 
2138:.\Generated_Source\PSoC5/USBFS.c ****             /* OUT endpoint has to be armed again by user when DMA transfers have been completed.
2139:.\Generated_Source\PSoC5/USBFS.c ****             * NO_EVENT_PENDING: notifies that data has been copied from endpoint buffer.
2140:.\Generated_Source\PSoC5/USBFS.c ****             */
2141:.\Generated_Source\PSoC5/USBFS.c ****         }
2142:.\Generated_Source\PSoC5/USBFS.c ****         #endif /* (USBFS_EP_MANAGEMENT_DMA_MANUAL) */
2143:.\Generated_Source\PSoC5/USBFS.c **** 
2144:.\Generated_Source\PSoC5/USBFS.c ****         #if (USBFS_EP_MANAGEMENT_DMA_AUTO)
2145:.\Generated_Source\PSoC5/USBFS.c ****         {
2146:.\Generated_Source\PSoC5/USBFS.c ****             uint32 lengthDescr0, lengthDescr1;
2147:.\Generated_Source\PSoC5/USBFS.c ****             uint32 channelNum = (uint32) USBFS_DmaChan[epNumber];
2148:.\Generated_Source\PSoC5/USBFS.c **** 
2149:.\Generated_Source\PSoC5/USBFS.c ****             /* Get number of full bursts. */
ARM GAS  C:\Users\LUKASC~1\AppData\Local\Temp\ccEgAQpP.s 			page 61


2150:.\Generated_Source\PSoC5/USBFS.c ****             USBFS_DmaEpBurstCnt[epNumber] = (uint8) (adjLength / USBFS_DMA_BYTES_PER_BURST);
2151:.\Generated_Source\PSoC5/USBFS.c **** 
2152:.\Generated_Source\PSoC5/USBFS.c ****             /* Get number of elements in last burst. */
2153:.\Generated_Source\PSoC5/USBFS.c ****             USBFS_DmaEpLastBurstEl[epNumber] = (uint8) (adjLength % USBFS_DMA_BYTES_PER_BURST);
2154:.\Generated_Source\PSoC5/USBFS.c **** 
2155:.\Generated_Source\PSoC5/USBFS.c ****             /* Get total number of bursts. */
2156:.\Generated_Source\PSoC5/USBFS.c ****             USBFS_DmaEpBurstCnt[epNumber] += (0u != USBFS_DmaEpLastBurstEl[epNumber]) ? 1u : 0u;
2157:.\Generated_Source\PSoC5/USBFS.c **** 
2158:.\Generated_Source\PSoC5/USBFS.c ****             /* Adjust number of data elements transferred in last burst. */
2159:.\Generated_Source\PSoC5/USBFS.c ****             USBFS_DmaEpLastBurstEl[epNumber] = (0u != USBFS_DmaEpLastBurstEl[epNumber]) ?
2160:.\Generated_Source\PSoC5/USBFS.c ****                                                                   ((USBFS_DmaEpLastBurstEl[epNumber
2161:.\Generated_Source\PSoC5/USBFS.c ****                                                                    (USBFS_DMA_HALFWORDS_PER_BURST -
2162:.\Generated_Source\PSoC5/USBFS.c **** 
2163:.\Generated_Source\PSoC5/USBFS.c ****             /* Get number of data elements to transfer for descriptor 0 and 1. */
2164:.\Generated_Source\PSoC5/USBFS.c ****             lengthDescr0 = (1u == USBFS_DmaEpBurstCnt[epNumber]) ? USBFS_DmaEpLastBurstEl[epNumber]
2165:.\Generated_Source\PSoC5/USBFS.c ****             lengthDescr1 = (2u == USBFS_DmaEpBurstCnt[epNumber]) ? USBFS_DmaEpLastBurstEl[epNumber]
2166:.\Generated_Source\PSoC5/USBFS.c **** 
2167:.\Generated_Source\PSoC5/USBFS.c ****             /* Mark last descriptor to be executed. */
2168:.\Generated_Source\PSoC5/USBFS.c ****             USBFS_DmaEpLastBurstEl[epNumber] |= (0u != (USBFS_DmaEpBurstCnt[epNumber] & 0x1u)) ?
2169:.\Generated_Source\PSoC5/USBFS.c ****                                                                     USBFS_DMA_DESCR0_MASK : USBFS_D
2170:.\Generated_Source\PSoC5/USBFS.c **** 
2171:.\Generated_Source\PSoC5/USBFS.c ****             /* Mark if revert number of data elements in descriptor after transfer completion. */
2172:.\Generated_Source\PSoC5/USBFS.c ****             USBFS_DmaEpLastBurstEl[epNumber] |= (USBFS_DmaEpBurstCnt[epNumber] > 2u) ? USBFS_DMA_DE
2173:.\Generated_Source\PSoC5/USBFS.c **** 
2174:.\Generated_Source\PSoC5/USBFS.c ****             /* Mark that 16-bits access to data register is performed. */
2175:.\Generated_Source\PSoC5/USBFS.c ****             USBFS_DmaEpLastBurstEl[epNumber] |= USBFS_DMA_DESCR_16BITS;
2176:.\Generated_Source\PSoC5/USBFS.c **** 
2177:.\Generated_Source\PSoC5/USBFS.c ****             /* Adjust burst counter taking to account: 2 valid descriptors and interrupt trigger af
2178:.\Generated_Source\PSoC5/USBFS.c ****             USBFS_DmaEpBurstCnt[epNumber] = USBFS_DMA_GET_BURST_CNT(USBFS_DmaEpBurstCnt[epNumber]);
2179:.\Generated_Source\PSoC5/USBFS.c **** 
2180:.\Generated_Source\PSoC5/USBFS.c ****             /* Store address of buffer and burst counter for endpoint. */
2181:.\Generated_Source\PSoC5/USBFS.c ****             USBFS_DmaEpBufferAddrBackup[epNumber] = (uint32) pData;
2182:.\Generated_Source\PSoC5/USBFS.c ****             USBFS_DmaEpBurstCntBackup[epNumber]   = USBFS_DmaEpBurstCnt[epNumber];
2183:.\Generated_Source\PSoC5/USBFS.c **** 
2184:.\Generated_Source\PSoC5/USBFS.c ****             /* Disable DMA channel: start configuration. */
2185:.\Generated_Source\PSoC5/USBFS.c ****             USBFS_CyDmaChDisable(channelNum);
2186:.\Generated_Source\PSoC5/USBFS.c **** 
2187:.\Generated_Source\PSoC5/USBFS.c ****             /* Set destination address. */
2188:.\Generated_Source\PSoC5/USBFS.c ****             USBFS_CyDmaSetSrcAddress(channelNum, USBFS_DMA_DESCR0, (void*) &USBFS_ARB_EP16_BASE.arb
2189:.\Generated_Source\PSoC5/USBFS.c ****             USBFS_CyDmaSetSrcAddress(channelNum, USBFS_DMA_DESCR1, (void*) &USBFS_ARB_EP16_BASE.arb
2190:.\Generated_Source\PSoC5/USBFS.c **** 
2191:.\Generated_Source\PSoC5/USBFS.c ****             USBFS_CyDmaSetDstAddress(channelNum, USBFS_DMA_DESCR0, (void*) ((uint32) pData));
2192:.\Generated_Source\PSoC5/USBFS.c ****             USBFS_CyDmaSetDstAddress(channelNum, USBFS_DMA_DESCR1, (void*) ((uint32) pData + USBFS_
2193:.\Generated_Source\PSoC5/USBFS.c **** 
2194:.\Generated_Source\PSoC5/USBFS.c ****             /* Configure DMA descriptor 0. */
2195:.\Generated_Source\PSoC5/USBFS.c ****             USBFS_CyDmaSetConfiguration(channelNum, USBFS_DMA_DESCR0, USBFS_DMA_COMMON_CFG  | lengt
2196:.\Generated_Source\PSoC5/USBFS.c ****                                                     CYDMA_HALFWORD | CYDMA_WORD_ELEMENT | CYDMA_INC
2197:.\Generated_Source\PSoC5/USBFS.c **** 
2198:.\Generated_Source\PSoC5/USBFS.c ****             /* Configure DMA descriptor 1. */
2199:.\Generated_Source\PSoC5/USBFS.c ****             USBFS_CyDmaSetConfiguration(channelNum, USBFS_DMA_DESCR1, USBFS_DMA_COMMON_CFG  | lengt
2200:.\Generated_Source\PSoC5/USBFS.c ****                                                     CYDMA_HALFWORD | CYDMA_WORD_ELEMENT | CYDMA_INC
2201:.\Generated_Source\PSoC5/USBFS.c **** 
2202:.\Generated_Source\PSoC5/USBFS.c ****             /* Enable interrupt from DMA channel. */
2203:.\Generated_Source\PSoC5/USBFS.c ****             USBFS_CyDmaSetInterruptMask(channelNum);
2204:.\Generated_Source\PSoC5/USBFS.c **** 
2205:.\Generated_Source\PSoC5/USBFS.c ****             /* Validate DMA descriptor 0 and 1. */
2206:.\Generated_Source\PSoC5/USBFS.c ****             USBFS_CyDmaValidateDescriptor(channelNum, USBFS_DMA_DESCR0);
ARM GAS  C:\Users\LUKASC~1\AppData\Local\Temp\ccEgAQpP.s 			page 62


2207:.\Generated_Source\PSoC5/USBFS.c ****             USBFS_CyDmaValidateDescriptor(channelNum, USBFS_DMA_DESCR1);
2208:.\Generated_Source\PSoC5/USBFS.c **** 
2209:.\Generated_Source\PSoC5/USBFS.c ****             /* Enable DMA channel: configuration complete. */
2210:.\Generated_Source\PSoC5/USBFS.c ****             USBFS_CyDmaChEnable(channelNum);
2211:.\Generated_Source\PSoC5/USBFS.c **** 
2212:.\Generated_Source\PSoC5/USBFS.c ****             /* OUT endpoint has to be armed again by user when DMA transfers have been completed.
2213:.\Generated_Source\PSoC5/USBFS.c ****             * NO_EVENT_PENDING: notifies that data has been copied from endpoint buffer.
2214:.\Generated_Source\PSoC5/USBFS.c ****             */
2215:.\Generated_Source\PSoC5/USBFS.c ****         }
2216:.\Generated_Source\PSoC5/USBFS.c ****         #endif /* (USBFS_EP_MANAGEMENT_DMA_AUTO) */
2217:.\Generated_Source\PSoC5/USBFS.c ****     #endif /* (USBFS_EP_MANAGEMENT_MANUAL) */
2218:.\Generated_Source\PSoC5/USBFS.c ****     }
2219:.\Generated_Source\PSoC5/USBFS.c ****     else
2220:.\Generated_Source\PSoC5/USBFS.c ****     {
2221:.\Generated_Source\PSoC5/USBFS.c ****         length = 0u;
2222:.\Generated_Source\PSoC5/USBFS.c ****     }
2223:.\Generated_Source\PSoC5/USBFS.c **** 
2224:.\Generated_Source\PSoC5/USBFS.c ****     return (length);
2225:.\Generated_Source\PSoC5/USBFS.c **** }
2226:.\Generated_Source\PSoC5/USBFS.c **** #endif /* (USBFS_16BITS_EP_ACCESS_ENABLE) */
2227:.\Generated_Source\PSoC5/USBFS.c **** 
2228:.\Generated_Source\PSoC5/USBFS.c **** 
2229:.\Generated_Source\PSoC5/USBFS.c **** /*******************************************************************************
2230:.\Generated_Source\PSoC5/USBFS.c **** * Function Name: USBFS_EnableOutEP
2231:.\Generated_Source\PSoC5/USBFS.c **** ****************************************************************************//**
2232:.\Generated_Source\PSoC5/USBFS.c **** *
2233:.\Generated_Source\PSoC5/USBFS.c **** *  This function enables the specified endpoint for OUT transfers. Do not call
2234:.\Generated_Source\PSoC5/USBFS.c **** *  this function for IN endpoints.
2235:.\Generated_Source\PSoC5/USBFS.c **** *
2236:.\Generated_Source\PSoC5/USBFS.c **** *  \param epNumber: Contains the data endpoint number. Valid values are between
2237:.\Generated_Source\PSoC5/USBFS.c **** *  1 and 8.
2238:.\Generated_Source\PSoC5/USBFS.c **** *
2239:.\Generated_Source\PSoC5/USBFS.c **** * \globalvars
2240:.\Generated_Source\PSoC5/USBFS.c **** *
2241:.\Generated_Source\PSoC5/USBFS.c **** *  \ref USBFS_EP[epNumber].apiEpState - set to NO_EVENT_PENDING
2242:.\Generated_Source\PSoC5/USBFS.c **** *
2243:.\Generated_Source\PSoC5/USBFS.c **** * \reentrant
2244:.\Generated_Source\PSoC5/USBFS.c **** *  No.
2245:.\Generated_Source\PSoC5/USBFS.c **** *
2246:.\Generated_Source\PSoC5/USBFS.c **** *******************************************************************************/
2247:.\Generated_Source\PSoC5/USBFS.c **** void USBFS_EnableOutEP(uint8 epNumber) 
2248:.\Generated_Source\PSoC5/USBFS.c **** {
 1268              		.loc 1 2248 0
 1269              		.cfi_startproc
 1270              		@ args = 0, pretend = 0, frame = 8
 1271              		@ frame_needed = 1, uses_anonymous_args = 0
 1272              		@ link register save eliminated.
 1273 0000 90B4     		push	{r4, r7}
 1274              		.cfi_def_cfa_offset 8
 1275              		.cfi_offset 4, -8
 1276              		.cfi_offset 7, -4
 1277 0002 82B0     		sub	sp, sp, #8
 1278              		.cfi_def_cfa_offset 16
 1279 0004 00AF     		add	r7, sp, #0
 1280              		.cfi_def_cfa_register 7
 1281 0006 0346     		mov	r3, r0
 1282 0008 FB71     		strb	r3, [r7, #7]
ARM GAS  C:\Users\LUKASC~1\AppData\Local\Temp\ccEgAQpP.s 			page 63


2249:.\Generated_Source\PSoC5/USBFS.c ****     if ((epNumber > USBFS_EP0) && (epNumber < USBFS_MAX_EP))
 1283              		.loc 1 2249 0
 1284 000a FB79     		ldrb	r3, [r7, #7]	@ zero_extendqisi2
 1285 000c 002B     		cmp	r3, #0
 1286 000e 19D0     		beq	.L68
 1287              		.loc 1 2249 0 is_stmt 0 discriminator 1
 1288 0010 FB79     		ldrb	r3, [r7, #7]	@ zero_extendqisi2
 1289 0012 082B     		cmp	r3, #8
 1290 0014 16D8     		bhi	.L68
2250:.\Generated_Source\PSoC5/USBFS.c ****     {
2251:.\Generated_Source\PSoC5/USBFS.c ****         USBFS_EP[epNumber].apiEpState = USBFS_NO_EVENT_PENDING;
 1291              		.loc 1 2251 0 is_stmt 1
 1292 0016 FA79     		ldrb	r2, [r7, #7]	@ zero_extendqisi2
 1293 0018 0C49     		ldr	r1, .L70
 1294 001a 1346     		mov	r3, r2
 1295 001c 5B00     		lsls	r3, r3, #1
 1296 001e 1344     		add	r3, r3, r2
 1297 0020 9B00     		lsls	r3, r3, #2
 1298 0022 0B44     		add	r3, r3, r1
 1299 0024 0022     		movs	r2, #0
 1300 0026 5A70     		strb	r2, [r3, #1]
2252:.\Generated_Source\PSoC5/USBFS.c **** 
2253:.\Generated_Source\PSoC5/USBFS.c ****         /* Enable OUT endpoint to be written by Host. */
2254:.\Generated_Source\PSoC5/USBFS.c ****         USBFS_SIE_EP_BASE.sieEp[epNumber].epCr0 = USBFS_EP[epNumber].epMode;
 1301              		.loc 1 2254 0
 1302 0028 0948     		ldr	r0, .L70+4
 1303 002a F979     		ldrb	r1, [r7, #7]	@ zero_extendqisi2
 1304 002c FA79     		ldrb	r2, [r7, #7]	@ zero_extendqisi2
 1305 002e 074C     		ldr	r4, .L70
 1306 0030 1346     		mov	r3, r2
 1307 0032 5B00     		lsls	r3, r3, #1
 1308 0034 1344     		add	r3, r3, r2
 1309 0036 9B00     		lsls	r3, r3, #2
 1310 0038 2344     		add	r3, r3, r4
 1311 003a 5B79     		ldrb	r3, [r3, #5]
 1312 003c DAB2     		uxtb	r2, r3
 1313 003e 0B01     		lsls	r3, r1, #4
 1314 0040 0344     		add	r3, r3, r0
 1315 0042 9A70     		strb	r2, [r3, #2]
 1316              	.L68:
2255:.\Generated_Source\PSoC5/USBFS.c ****         
2256:.\Generated_Source\PSoC5/USBFS.c ****     }
2257:.\Generated_Source\PSoC5/USBFS.c **** }
 1317              		.loc 1 2257 0
 1318 0044 0837     		adds	r7, r7, #8
 1319              		.cfi_def_cfa_offset 8
 1320 0046 BD46     		mov	sp, r7
 1321              		.cfi_def_cfa_register 13
 1322              		@ sp needed
 1323 0048 90BC     		pop	{r4, r7}
 1324              		.cfi_restore 7
 1325              		.cfi_restore 4
 1326              		.cfi_def_cfa_offset 0
 1327 004a 7047     		bx	lr
 1328              	.L71:
 1329              		.align	2
 1330              	.L70:
ARM GAS  C:\Users\LUKASC~1\AppData\Local\Temp\ccEgAQpP.s 			page 64


 1331 004c 00000000 		.word	USBFS_EP
 1332 0050 FC5F0040 		.word	1073766396
 1333              		.cfi_endproc
 1334              	.LFE13:
 1335              		.size	USBFS_EnableOutEP, .-USBFS_EnableOutEP
 1336              		.section	.text.USBFS_DisableOutEP,"ax",%progbits
 1337              		.align	2
 1338              		.global	USBFS_DisableOutEP
 1339              		.thumb
 1340              		.thumb_func
 1341              		.type	USBFS_DisableOutEP, %function
 1342              	USBFS_DisableOutEP:
 1343              	.LFB14:
2258:.\Generated_Source\PSoC5/USBFS.c **** 
2259:.\Generated_Source\PSoC5/USBFS.c **** 
2260:.\Generated_Source\PSoC5/USBFS.c **** /*******************************************************************************
2261:.\Generated_Source\PSoC5/USBFS.c **** * Function Name: USBFS_DisableOutEP
2262:.\Generated_Source\PSoC5/USBFS.c **** ****************************************************************************//**
2263:.\Generated_Source\PSoC5/USBFS.c **** *
2264:.\Generated_Source\PSoC5/USBFS.c **** *  This function disables the specified USBFS OUT endpoint. Do not call this
2265:.\Generated_Source\PSoC5/USBFS.c **** *  function for IN endpoints.
2266:.\Generated_Source\PSoC5/USBFS.c **** *
2267:.\Generated_Source\PSoC5/USBFS.c **** *  \param epNumber: Contains the data endpoint number.
2268:.\Generated_Source\PSoC5/USBFS.c **** *            Valid values are between 1 and 8.
2269:.\Generated_Source\PSoC5/USBFS.c **** *
2270:.\Generated_Source\PSoC5/USBFS.c **** *******************************************************************************/
2271:.\Generated_Source\PSoC5/USBFS.c **** void USBFS_DisableOutEP(uint8 epNumber) 
2272:.\Generated_Source\PSoC5/USBFS.c **** {
 1344              		.loc 1 2272 0
 1345              		.cfi_startproc
 1346              		@ args = 0, pretend = 0, frame = 8
 1347              		@ frame_needed = 1, uses_anonymous_args = 0
 1348              		@ link register save eliminated.
 1349 0000 80B4     		push	{r7}
 1350              		.cfi_def_cfa_offset 4
 1351              		.cfi_offset 7, -4
 1352 0002 83B0     		sub	sp, sp, #12
 1353              		.cfi_def_cfa_offset 16
 1354 0004 00AF     		add	r7, sp, #0
 1355              		.cfi_def_cfa_register 7
 1356 0006 0346     		mov	r3, r0
 1357 0008 FB71     		strb	r3, [r7, #7]
2273:.\Generated_Source\PSoC5/USBFS.c ****     if ((epNumber > USBFS_EP0) && (epNumber < USBFS_MAX_EP))
 1358              		.loc 1 2273 0
 1359 000a FB79     		ldrb	r3, [r7, #7]	@ zero_extendqisi2
 1360 000c 002B     		cmp	r3, #0
 1361 000e 08D0     		beq	.L72
 1362              		.loc 1 2273 0 is_stmt 0 discriminator 1
 1363 0010 FB79     		ldrb	r3, [r7, #7]	@ zero_extendqisi2
 1364 0012 082B     		cmp	r3, #8
 1365 0014 05D8     		bhi	.L72
2274:.\Generated_Source\PSoC5/USBFS.c ****     {
2275:.\Generated_Source\PSoC5/USBFS.c ****         /* Set NAK response for OUT endpoint. */
2276:.\Generated_Source\PSoC5/USBFS.c ****         USBFS_SIE_EP_BASE.sieEp[epNumber].epCr0 = USBFS_MODE_NAK_OUT;
 1366              		.loc 1 2276 0 is_stmt 1
 1367 0016 054A     		ldr	r2, .L74
 1368 0018 FB79     		ldrb	r3, [r7, #7]	@ zero_extendqisi2
ARM GAS  C:\Users\LUKASC~1\AppData\Local\Temp\ccEgAQpP.s 			page 65


 1369 001a 1B01     		lsls	r3, r3, #4
 1370 001c 1344     		add	r3, r3, r2
 1371 001e 0822     		movs	r2, #8
 1372 0020 9A70     		strb	r2, [r3, #2]
 1373              	.L72:
2277:.\Generated_Source\PSoC5/USBFS.c ****     }
2278:.\Generated_Source\PSoC5/USBFS.c **** }
 1374              		.loc 1 2278 0
 1375 0022 0C37     		adds	r7, r7, #12
 1376              		.cfi_def_cfa_offset 4
 1377 0024 BD46     		mov	sp, r7
 1378              		.cfi_def_cfa_register 13
 1379              		@ sp needed
 1380 0026 5DF8047B 		ldr	r7, [sp], #4
 1381              		.cfi_restore 7
 1382              		.cfi_def_cfa_offset 0
 1383 002a 7047     		bx	lr
 1384              	.L75:
 1385              		.align	2
 1386              	.L74:
 1387 002c FC5F0040 		.word	1073766396
 1388              		.cfi_endproc
 1389              	.LFE14:
 1390              		.size	USBFS_DisableOutEP, .-USBFS_DisableOutEP
 1391              		.section	.text.USBFS_Force,"ax",%progbits
 1392              		.align	2
 1393              		.global	USBFS_Force
 1394              		.thumb
 1395              		.thumb_func
 1396              		.type	USBFS_Force, %function
 1397              	USBFS_Force:
 1398              	.LFB15:
2279:.\Generated_Source\PSoC5/USBFS.c **** 
2280:.\Generated_Source\PSoC5/USBFS.c **** 
2281:.\Generated_Source\PSoC5/USBFS.c **** /*******************************************************************************
2282:.\Generated_Source\PSoC5/USBFS.c **** * Function Name: USBFS_Force
2283:.\Generated_Source\PSoC5/USBFS.c **** ****************************************************************************//**
2284:.\Generated_Source\PSoC5/USBFS.c **** *
2285:.\Generated_Source\PSoC5/USBFS.c **** *  This function forces a USB J, K, or SE0 state on the D+/D– lines. It provides
2286:.\Generated_Source\PSoC5/USBFS.c **** *  the necessary mechanism for a USB device application to perform a USB Remote
2287:.\Generated_Source\PSoC5/USBFS.c **** *  Wakeup. For more information, see the USB 2.0 Specification for details on
2288:.\Generated_Source\PSoC5/USBFS.c **** *  Suspend and Resume.
2289:.\Generated_Source\PSoC5/USBFS.c **** *
2290:.\Generated_Source\PSoC5/USBFS.c **** *  \param state A byte indicating which of the four bus states to enable.
2291:.\Generated_Source\PSoC5/USBFS.c **** *        Symbolic names  and their associated values are listed here:
2292:.\Generated_Source\PSoC5/USBFS.c **** *    State                      |Description
2293:.\Generated_Source\PSoC5/USBFS.c **** *    ---------------------------|----------------------------------------------
2294:.\Generated_Source\PSoC5/USBFS.c **** *    USBFS_FORCE_J   | Force a J State onto the D+/D– lines
2295:.\Generated_Source\PSoC5/USBFS.c **** *    USBFS_FORCE_K   | Force a K State onto the D+/D– lines
2296:.\Generated_Source\PSoC5/USBFS.c **** *    USBFS_FORCE_SE0 | Force a Single Ended 0 onto the D+/D– lines
2297:.\Generated_Source\PSoC5/USBFS.c **** *    USBFS_FORCE_NONE| Return bus to SIE control
2298:.\Generated_Source\PSoC5/USBFS.c **** *
2299:.\Generated_Source\PSoC5/USBFS.c **** *
2300:.\Generated_Source\PSoC5/USBFS.c **** *******************************************************************************/
2301:.\Generated_Source\PSoC5/USBFS.c **** void USBFS_Force(uint8 bState) 
2302:.\Generated_Source\PSoC5/USBFS.c **** {
 1399              		.loc 1 2302 0
ARM GAS  C:\Users\LUKASC~1\AppData\Local\Temp\ccEgAQpP.s 			page 66


 1400              		.cfi_startproc
 1401              		@ args = 0, pretend = 0, frame = 8
 1402              		@ frame_needed = 1, uses_anonymous_args = 0
 1403              		@ link register save eliminated.
 1404 0000 80B4     		push	{r7}
 1405              		.cfi_def_cfa_offset 4
 1406              		.cfi_offset 7, -4
 1407 0002 83B0     		sub	sp, sp, #12
 1408              		.cfi_def_cfa_offset 16
 1409 0004 00AF     		add	r7, sp, #0
 1410              		.cfi_def_cfa_register 7
 1411 0006 0346     		mov	r3, r0
 1412 0008 FB71     		strb	r3, [r7, #7]
2303:.\Generated_Source\PSoC5/USBFS.c ****     /* This registers is used only for manual control of SIE (no masking is
2304:.\Generated_Source\PSoC5/USBFS.c ****     * needed before write into it).
2305:.\Generated_Source\PSoC5/USBFS.c ****     */
2306:.\Generated_Source\PSoC5/USBFS.c ****     USBFS_USBIO_CR0_REG = bState;
 1413              		.loc 1 2306 0
 1414 000a 044A     		ldr	r2, .L77
 1415 000c FB79     		ldrb	r3, [r7, #7]
 1416 000e 1370     		strb	r3, [r2]
2307:.\Generated_Source\PSoC5/USBFS.c **** }
 1417              		.loc 1 2307 0
 1418 0010 0C37     		adds	r7, r7, #12
 1419              		.cfi_def_cfa_offset 4
 1420 0012 BD46     		mov	sp, r7
 1421              		.cfi_def_cfa_register 13
 1422              		@ sp needed
 1423 0014 5DF8047B 		ldr	r7, [sp], #4
 1424              		.cfi_restore 7
 1425              		.cfi_def_cfa_offset 0
 1426 0018 7047     		bx	lr
 1427              	.L78:
 1428 001a 00BF     		.align	2
 1429              	.L77:
 1430 001c 10600040 		.word	1073766416
 1431              		.cfi_endproc
 1432              	.LFE15:
 1433              		.size	USBFS_Force, .-USBFS_Force
 1434              		.section	.text.USBFS_GetEPAckState,"ax",%progbits
 1435              		.align	2
 1436              		.global	USBFS_GetEPAckState
 1437              		.thumb
 1438              		.thumb_func
 1439              		.type	USBFS_GetEPAckState, %function
 1440              	USBFS_GetEPAckState:
 1441              	.LFB16:
2308:.\Generated_Source\PSoC5/USBFS.c **** 
2309:.\Generated_Source\PSoC5/USBFS.c **** 
2310:.\Generated_Source\PSoC5/USBFS.c **** /*******************************************************************************
2311:.\Generated_Source\PSoC5/USBFS.c **** * Function Name: USBFS_GetEPAckState
2312:.\Generated_Source\PSoC5/USBFS.c **** ****************************************************************************//**
2313:.\Generated_Source\PSoC5/USBFS.c **** *
2314:.\Generated_Source\PSoC5/USBFS.c **** *  This function determines whether an ACK transaction occurred on this endpoint
2315:.\Generated_Source\PSoC5/USBFS.c **** *  by reading the ACK bit in the control register of the endpoint. It does not
2316:.\Generated_Source\PSoC5/USBFS.c **** *  clear the ACK bit.
2317:.\Generated_Source\PSoC5/USBFS.c **** *
ARM GAS  C:\Users\LUKASC~1\AppData\Local\Temp\ccEgAQpP.s 			page 67


2318:.\Generated_Source\PSoC5/USBFS.c **** *  \param epNumber Contains the data endpoint number.
2319:.\Generated_Source\PSoC5/USBFS.c **** *            Valid values are between 1 and 8.
2320:.\Generated_Source\PSoC5/USBFS.c **** *
2321:.\Generated_Source\PSoC5/USBFS.c **** *  \return
2322:.\Generated_Source\PSoC5/USBFS.c **** *  If an ACKed transaction occurred, this function returns a non-zero value.
2323:.\Generated_Source\PSoC5/USBFS.c **** *  Otherwise, it returns zero.
2324:.\Generated_Source\PSoC5/USBFS.c **** *
2325:.\Generated_Source\PSoC5/USBFS.c **** *******************************************************************************/
2326:.\Generated_Source\PSoC5/USBFS.c **** uint8 USBFS_GetEPAckState(uint8 epNumber) 
2327:.\Generated_Source\PSoC5/USBFS.c **** {
 1442              		.loc 1 2327 0
 1443              		.cfi_startproc
 1444              		@ args = 0, pretend = 0, frame = 16
 1445              		@ frame_needed = 1, uses_anonymous_args = 0
 1446              		@ link register save eliminated.
 1447 0000 80B4     		push	{r7}
 1448              		.cfi_def_cfa_offset 4
 1449              		.cfi_offset 7, -4
 1450 0002 85B0     		sub	sp, sp, #20
 1451              		.cfi_def_cfa_offset 24
 1452 0004 00AF     		add	r7, sp, #0
 1453              		.cfi_def_cfa_register 7
 1454 0006 0346     		mov	r3, r0
 1455 0008 FB71     		strb	r3, [r7, #7]
2328:.\Generated_Source\PSoC5/USBFS.c ****     uint8 cr = 0u;
 1456              		.loc 1 2328 0
 1457 000a 0023     		movs	r3, #0
 1458 000c FB73     		strb	r3, [r7, #15]
2329:.\Generated_Source\PSoC5/USBFS.c **** 
2330:.\Generated_Source\PSoC5/USBFS.c ****     if ((epNumber > USBFS_EP0) && (epNumber < USBFS_MAX_EP))
 1459              		.loc 1 2330 0
 1460 000e FB79     		ldrb	r3, [r7, #7]	@ zero_extendqisi2
 1461 0010 002B     		cmp	r3, #0
 1462 0012 0BD0     		beq	.L80
 1463              		.loc 1 2330 0 is_stmt 0 discriminator 1
 1464 0014 FB79     		ldrb	r3, [r7, #7]	@ zero_extendqisi2
 1465 0016 082B     		cmp	r3, #8
 1466 0018 08D8     		bhi	.L80
2331:.\Generated_Source\PSoC5/USBFS.c ****     {
2332:.\Generated_Source\PSoC5/USBFS.c ****         cr = USBFS_SIE_EP_BASE.sieEp[epNumber].epCr0 & USBFS_MODE_ACKD;
 1467              		.loc 1 2332 0 is_stmt 1
 1468 001a 084A     		ldr	r2, .L82
 1469 001c FB79     		ldrb	r3, [r7, #7]	@ zero_extendqisi2
 1470 001e 1B01     		lsls	r3, r3, #4
 1471 0020 1344     		add	r3, r3, r2
 1472 0022 9B78     		ldrb	r3, [r3, #2]
 1473 0024 DBB2     		uxtb	r3, r3
 1474 0026 03F01003 		and	r3, r3, #16
 1475 002a FB73     		strb	r3, [r7, #15]
 1476              	.L80:
2333:.\Generated_Source\PSoC5/USBFS.c ****     }
2334:.\Generated_Source\PSoC5/USBFS.c **** 
2335:.\Generated_Source\PSoC5/USBFS.c ****     return ((uint8) cr);
 1477              		.loc 1 2335 0
 1478 002c FB7B     		ldrb	r3, [r7, #15]	@ zero_extendqisi2
2336:.\Generated_Source\PSoC5/USBFS.c **** }
 1479              		.loc 1 2336 0
ARM GAS  C:\Users\LUKASC~1\AppData\Local\Temp\ccEgAQpP.s 			page 68


 1480 002e 1846     		mov	r0, r3
 1481 0030 1437     		adds	r7, r7, #20
 1482              		.cfi_def_cfa_offset 4
 1483 0032 BD46     		mov	sp, r7
 1484              		.cfi_def_cfa_register 13
 1485              		@ sp needed
 1486 0034 5DF8047B 		ldr	r7, [sp], #4
 1487              		.cfi_restore 7
 1488              		.cfi_def_cfa_offset 0
 1489 0038 7047     		bx	lr
 1490              	.L83:
 1491 003a 00BF     		.align	2
 1492              	.L82:
 1493 003c FC5F0040 		.word	1073766396
 1494              		.cfi_endproc
 1495              	.LFE16:
 1496              		.size	USBFS_GetEPAckState, .-USBFS_GetEPAckState
 1497              		.section	.text.USBFS_SetPowerStatus,"ax",%progbits
 1498              		.align	2
 1499              		.global	USBFS_SetPowerStatus
 1500              		.thumb
 1501              		.thumb_func
 1502              		.type	USBFS_SetPowerStatus, %function
 1503              	USBFS_SetPowerStatus:
 1504              	.LFB17:
2337:.\Generated_Source\PSoC5/USBFS.c **** 
2338:.\Generated_Source\PSoC5/USBFS.c **** 
2339:.\Generated_Source\PSoC5/USBFS.c **** /*******************************************************************************
2340:.\Generated_Source\PSoC5/USBFS.c **** * Function Name: USBFS_SetPowerStatus
2341:.\Generated_Source\PSoC5/USBFS.c **** ****************************************************************************//**
2342:.\Generated_Source\PSoC5/USBFS.c **** *
2343:.\Generated_Source\PSoC5/USBFS.c **** *  This function sets the current power status. The device replies to USB
2344:.\Generated_Source\PSoC5/USBFS.c **** *  GET_STATUS requests based on this value. This allows the device to properly
2345:.\Generated_Source\PSoC5/USBFS.c **** *  report its status for USB Chapter 9 compliance. Devices can change their
2346:.\Generated_Source\PSoC5/USBFS.c **** *  power source from self powered to bus powered at any time and report their
2347:.\Generated_Source\PSoC5/USBFS.c **** *  current power source as part of the device status. You should call this
2348:.\Generated_Source\PSoC5/USBFS.c **** *  function any time your device changes from self powered to bus powered or
2349:.\Generated_Source\PSoC5/USBFS.c **** *  vice versa, and set the status appropriately.
2350:.\Generated_Source\PSoC5/USBFS.c **** *
2351:.\Generated_Source\PSoC5/USBFS.c **** *  \param powerStatus: Contains the desired power status, one for self powered
2352:.\Generated_Source\PSoC5/USBFS.c **** *        or zero for bus powered. Symbolic names and their associated values are
2353:.\Generated_Source\PSoC5/USBFS.c **** *        given here:
2354:.\Generated_Source\PSoC5/USBFS.c **** *  Power Status                                |Description
2355:.\Generated_Source\PSoC5/USBFS.c **** *  --------------------------------------------|---------------------------
2356:.\Generated_Source\PSoC5/USBFS.c **** *  USBFS_DEVICE_STATUS_BUS_POWERED  | Set the device to bus powered
2357:.\Generated_Source\PSoC5/USBFS.c **** *  USBFS_DEVICE_STATUS_SELF_POWERED | Set the device to self powered
2358:.\Generated_Source\PSoC5/USBFS.c **** *
2359:.\Generated_Source\PSoC5/USBFS.c **** * \globalvars
2360:.\Generated_Source\PSoC5/USBFS.c **** *
2361:.\Generated_Source\PSoC5/USBFS.c **** *  \ref USBFS_deviceStatus - set power status
2362:.\Generated_Source\PSoC5/USBFS.c **** *
2363:.\Generated_Source\PSoC5/USBFS.c **** * \reentrant
2364:.\Generated_Source\PSoC5/USBFS.c **** *  No.
2365:.\Generated_Source\PSoC5/USBFS.c **** *
2366:.\Generated_Source\PSoC5/USBFS.c **** *******************************************************************************/
2367:.\Generated_Source\PSoC5/USBFS.c **** void USBFS_SetPowerStatus(uint8 powerStatus) 
2368:.\Generated_Source\PSoC5/USBFS.c **** {
ARM GAS  C:\Users\LUKASC~1\AppData\Local\Temp\ccEgAQpP.s 			page 69


 1505              		.loc 1 2368 0
 1506              		.cfi_startproc
 1507              		@ args = 0, pretend = 0, frame = 8
 1508              		@ frame_needed = 1, uses_anonymous_args = 0
 1509              		@ link register save eliminated.
 1510 0000 80B4     		push	{r7}
 1511              		.cfi_def_cfa_offset 4
 1512              		.cfi_offset 7, -4
 1513 0002 83B0     		sub	sp, sp, #12
 1514              		.cfi_def_cfa_offset 16
 1515 0004 00AF     		add	r7, sp, #0
 1516              		.cfi_def_cfa_register 7
 1517 0006 0346     		mov	r3, r0
 1518 0008 FB71     		strb	r3, [r7, #7]
2369:.\Generated_Source\PSoC5/USBFS.c ****     if (powerStatus != USBFS_DEVICE_STATUS_BUS_POWERED)
 1519              		.loc 1 2369 0
 1520 000a FB79     		ldrb	r3, [r7, #7]	@ zero_extendqisi2
 1521 000c 002B     		cmp	r3, #0
 1522 000e 08D0     		beq	.L85
2370:.\Generated_Source\PSoC5/USBFS.c ****     {
2371:.\Generated_Source\PSoC5/USBFS.c ****         USBFS_deviceStatus |= (uint8)  USBFS_DEVICE_STATUS_SELF_POWERED;
 1523              		.loc 1 2371 0
 1524 0010 0A4B     		ldr	r3, .L87
 1525 0012 1B78     		ldrb	r3, [r3]
 1526 0014 DBB2     		uxtb	r3, r3
 1527 0016 43F00103 		orr	r3, r3, #1
 1528 001a DAB2     		uxtb	r2, r3
 1529 001c 074B     		ldr	r3, .L87
 1530 001e 1A70     		strb	r2, [r3]
 1531 0020 07E0     		b	.L84
 1532              	.L85:
2372:.\Generated_Source\PSoC5/USBFS.c ****     }
2373:.\Generated_Source\PSoC5/USBFS.c ****     else
2374:.\Generated_Source\PSoC5/USBFS.c ****     {
2375:.\Generated_Source\PSoC5/USBFS.c ****         USBFS_deviceStatus &= (uint8) ~USBFS_DEVICE_STATUS_SELF_POWERED;
 1533              		.loc 1 2375 0
 1534 0022 064B     		ldr	r3, .L87
 1535 0024 1B78     		ldrb	r3, [r3]
 1536 0026 DBB2     		uxtb	r3, r3
 1537 0028 23F00103 		bic	r3, r3, #1
 1538 002c DAB2     		uxtb	r2, r3
 1539 002e 034B     		ldr	r3, .L87
 1540 0030 1A70     		strb	r2, [r3]
 1541              	.L84:
2376:.\Generated_Source\PSoC5/USBFS.c ****     }
2377:.\Generated_Source\PSoC5/USBFS.c **** }
 1542              		.loc 1 2377 0
 1543 0032 0C37     		adds	r7, r7, #12
 1544              		.cfi_def_cfa_offset 4
 1545 0034 BD46     		mov	sp, r7
 1546              		.cfi_def_cfa_register 13
 1547              		@ sp needed
 1548 0036 5DF8047B 		ldr	r7, [sp], #4
 1549              		.cfi_restore 7
 1550              		.cfi_def_cfa_offset 0
 1551 003a 7047     		bx	lr
 1552              	.L88:
ARM GAS  C:\Users\LUKASC~1\AppData\Local\Temp\ccEgAQpP.s 			page 70


 1553              		.align	2
 1554              	.L87:
 1555 003c 00000000 		.word	USBFS_deviceStatus
 1556              		.cfi_endproc
 1557              	.LFE17:
 1558              		.size	USBFS_SetPowerStatus, .-USBFS_SetPowerStatus
 1559              		.section	.text.USBFS_RWUEnabled,"ax",%progbits
 1560              		.align	2
 1561              		.global	USBFS_RWUEnabled
 1562              		.thumb
 1563              		.thumb_func
 1564              		.type	USBFS_RWUEnabled, %function
 1565              	USBFS_RWUEnabled:
 1566              	.LFB18:
2378:.\Generated_Source\PSoC5/USBFS.c **** 
2379:.\Generated_Source\PSoC5/USBFS.c **** 
2380:.\Generated_Source\PSoC5/USBFS.c **** #if (USBFS_VBUS_MONITORING_ENABLE)
2381:.\Generated_Source\PSoC5/USBFS.c ****     /***************************************************************************
2382:.\Generated_Source\PSoC5/USBFS.c ****     * Function Name: USBFS_VBusPresent
2383:.\Generated_Source\PSoC5/USBFS.c ****     ************************************************************************//**
2384:.\Generated_Source\PSoC5/USBFS.c ****     *
2385:.\Generated_Source\PSoC5/USBFS.c ****     *  Determines VBUS presence for self-powered devices. This function is
2386:.\Generated_Source\PSoC5/USBFS.c ****     *  available when the VBUS Monitoring option is enabled in the Advanced tab.
2387:.\Generated_Source\PSoC5/USBFS.c ****     *
2388:.\Generated_Source\PSoC5/USBFS.c ****     * \return
2389:.\Generated_Source\PSoC5/USBFS.c ****     *  The return value can be the following:
2390:.\Generated_Source\PSoC5/USBFS.c ****     *  Return Value | Description
2391:.\Generated_Source\PSoC5/USBFS.c ****     *  -------------|-----------------
2392:.\Generated_Source\PSoC5/USBFS.c ****     *  1            | VBUS is present
2393:.\Generated_Source\PSoC5/USBFS.c ****     *  0            | VBUS is absent
2394:.\Generated_Source\PSoC5/USBFS.c ****     *
2395:.\Generated_Source\PSoC5/USBFS.c ****     *
2396:.\Generated_Source\PSoC5/USBFS.c ****     ***************************************************************************/
2397:.\Generated_Source\PSoC5/USBFS.c ****     uint8 USBFS_VBusPresent(void) 
2398:.\Generated_Source\PSoC5/USBFS.c ****     {
2399:.\Generated_Source\PSoC5/USBFS.c ****         return ((0u != (USBFS_VBUS_STATUS_REG & USBFS_VBUS_VALID)) ? (uint8) 1u : (uint8) 0u);
2400:.\Generated_Source\PSoC5/USBFS.c ****     }
2401:.\Generated_Source\PSoC5/USBFS.c **** #endif /* (USBFS_VBUS_MONITORING_ENABLE) */
2402:.\Generated_Source\PSoC5/USBFS.c **** 
2403:.\Generated_Source\PSoC5/USBFS.c **** 
2404:.\Generated_Source\PSoC5/USBFS.c **** /*******************************************************************************
2405:.\Generated_Source\PSoC5/USBFS.c **** * Function Name: USBFS_RWUEnabled
2406:.\Generated_Source\PSoC5/USBFS.c **** ****************************************************************************//**
2407:.\Generated_Source\PSoC5/USBFS.c **** *
2408:.\Generated_Source\PSoC5/USBFS.c **** *  This function returns the current remote wakeup status.
2409:.\Generated_Source\PSoC5/USBFS.c **** *  If the device supports remote wakeup, the application should use this
2410:.\Generated_Source\PSoC5/USBFS.c **** *  function to determine if remote wakeup was enabled by the host. When the
2411:.\Generated_Source\PSoC5/USBFS.c **** *  device is suspended and it determines the conditions to initiate a remote
2412:.\Generated_Source\PSoC5/USBFS.c **** *  wakeup are met, the application should use the USBFS_Force() function to
2413:.\Generated_Source\PSoC5/USBFS.c **** *  force the appropriate J and K states onto the USB bus, signaling a remote
2414:.\Generated_Source\PSoC5/USBFS.c **** *  wakeup.
2415:.\Generated_Source\PSoC5/USBFS.c **** *
2416:.\Generated_Source\PSoC5/USBFS.c **** *
2417:.\Generated_Source\PSoC5/USBFS.c **** * \return
2418:.\Generated_Source\PSoC5/USBFS.c **** *  Returns non-zero value if remote wakeup is enabled and zero otherwise.
2419:.\Generated_Source\PSoC5/USBFS.c **** *
2420:.\Generated_Source\PSoC5/USBFS.c **** * \globalvars
ARM GAS  C:\Users\LUKASC~1\AppData\Local\Temp\ccEgAQpP.s 			page 71


2421:.\Generated_Source\PSoC5/USBFS.c **** *  USBFS_deviceStatus - checked to determine remote status
2422:.\Generated_Source\PSoC5/USBFS.c **** *
2423:.\Generated_Source\PSoC5/USBFS.c **** *******************************************************************************/
2424:.\Generated_Source\PSoC5/USBFS.c **** uint8 USBFS_RWUEnabled(void) 
2425:.\Generated_Source\PSoC5/USBFS.c **** {
 1567              		.loc 1 2425 0
 1568              		.cfi_startproc
 1569              		@ args = 0, pretend = 0, frame = 8
 1570              		@ frame_needed = 1, uses_anonymous_args = 0
 1571              		@ link register save eliminated.
 1572 0000 80B4     		push	{r7}
 1573              		.cfi_def_cfa_offset 4
 1574              		.cfi_offset 7, -4
 1575 0002 83B0     		sub	sp, sp, #12
 1576              		.cfi_def_cfa_offset 16
 1577 0004 00AF     		add	r7, sp, #0
 1578              		.cfi_def_cfa_register 7
2426:.\Generated_Source\PSoC5/USBFS.c ****     uint8 result = USBFS_FALSE;
 1579              		.loc 1 2426 0
 1580 0006 0023     		movs	r3, #0
 1581 0008 FB71     		strb	r3, [r7, #7]
2427:.\Generated_Source\PSoC5/USBFS.c **** 
2428:.\Generated_Source\PSoC5/USBFS.c ****     if (0u != (USBFS_deviceStatus & USBFS_DEVICE_STATUS_REMOTE_WAKEUP))
 1582              		.loc 1 2428 0
 1583 000a 084B     		ldr	r3, .L92
 1584 000c 1B78     		ldrb	r3, [r3]
 1585 000e DBB2     		uxtb	r3, r3
 1586 0010 03F00203 		and	r3, r3, #2
 1587 0014 002B     		cmp	r3, #0
 1588 0016 01D0     		beq	.L90
2429:.\Generated_Source\PSoC5/USBFS.c ****     {
2430:.\Generated_Source\PSoC5/USBFS.c ****         result = USBFS_TRUE;
 1589              		.loc 1 2430 0
 1590 0018 0123     		movs	r3, #1
 1591 001a FB71     		strb	r3, [r7, #7]
 1592              	.L90:
2431:.\Generated_Source\PSoC5/USBFS.c ****     }
2432:.\Generated_Source\PSoC5/USBFS.c **** 
2433:.\Generated_Source\PSoC5/USBFS.c ****     return (result);
 1593              		.loc 1 2433 0
 1594 001c FB79     		ldrb	r3, [r7, #7]	@ zero_extendqisi2
2434:.\Generated_Source\PSoC5/USBFS.c **** }
 1595              		.loc 1 2434 0
 1596 001e 1846     		mov	r0, r3
 1597 0020 0C37     		adds	r7, r7, #12
 1598              		.cfi_def_cfa_offset 4
 1599 0022 BD46     		mov	sp, r7
 1600              		.cfi_def_cfa_register 13
 1601              		@ sp needed
 1602 0024 5DF8047B 		ldr	r7, [sp], #4
 1603              		.cfi_restore 7
 1604              		.cfi_def_cfa_offset 0
 1605 0028 7047     		bx	lr
 1606              	.L93:
 1607 002a 00BF     		.align	2
 1608              	.L92:
 1609 002c 00000000 		.word	USBFS_deviceStatus
ARM GAS  C:\Users\LUKASC~1\AppData\Local\Temp\ccEgAQpP.s 			page 72


 1610              		.cfi_endproc
 1611              	.LFE18:
 1612              		.size	USBFS_RWUEnabled, .-USBFS_RWUEnabled
 1613              		.section	.text.USBFS_GetDeviceAddress,"ax",%progbits
 1614              		.align	2
 1615              		.global	USBFS_GetDeviceAddress
 1616              		.thumb
 1617              		.thumb_func
 1618              		.type	USBFS_GetDeviceAddress, %function
 1619              	USBFS_GetDeviceAddress:
 1620              	.LFB19:
2435:.\Generated_Source\PSoC5/USBFS.c **** 
2436:.\Generated_Source\PSoC5/USBFS.c **** 
2437:.\Generated_Source\PSoC5/USBFS.c **** /*******************************************************************************
2438:.\Generated_Source\PSoC5/USBFS.c **** * Function Name: USBFS_GetDeviceAddress
2439:.\Generated_Source\PSoC5/USBFS.c **** ****************************************************************************//**
2440:.\Generated_Source\PSoC5/USBFS.c **** *
2441:.\Generated_Source\PSoC5/USBFS.c **** *  This function returns the currently assigned address for the USB device.
2442:.\Generated_Source\PSoC5/USBFS.c **** *
2443:.\Generated_Source\PSoC5/USBFS.c **** * \return
2444:.\Generated_Source\PSoC5/USBFS.c **** *  Returns the currently assigned address.
2445:.\Generated_Source\PSoC5/USBFS.c **** *  Returns 0 if the device has not yet been assigned an address.
2446:.\Generated_Source\PSoC5/USBFS.c **** *
2447:.\Generated_Source\PSoC5/USBFS.c **** *******************************************************************************/
2448:.\Generated_Source\PSoC5/USBFS.c **** uint8 USBFS_GetDeviceAddress(void) 
2449:.\Generated_Source\PSoC5/USBFS.c **** {
 1621              		.loc 1 2449 0
 1622              		.cfi_startproc
 1623              		@ args = 0, pretend = 0, frame = 0
 1624              		@ frame_needed = 1, uses_anonymous_args = 0
 1625              		@ link register save eliminated.
 1626 0000 80B4     		push	{r7}
 1627              		.cfi_def_cfa_offset 4
 1628              		.cfi_offset 7, -4
 1629 0002 00AF     		add	r7, sp, #0
 1630              		.cfi_def_cfa_register 7
2450:.\Generated_Source\PSoC5/USBFS.c ****     return (uint8)(USBFS_CR0_REG & USBFS_CR0_DEVICE_ADDRESS_MASK);
 1631              		.loc 1 2450 0
 1632 0004 054B     		ldr	r3, .L96
 1633 0006 1B78     		ldrb	r3, [r3]
 1634 0008 DBB2     		uxtb	r3, r3
 1635 000a 03F07F03 		and	r3, r3, #127
 1636 000e DBB2     		uxtb	r3, r3
2451:.\Generated_Source\PSoC5/USBFS.c **** }
 1637              		.loc 1 2451 0
 1638 0010 1846     		mov	r0, r3
 1639 0012 BD46     		mov	sp, r7
 1640              		.cfi_def_cfa_register 13
 1641              		@ sp needed
 1642 0014 5DF8047B 		ldr	r7, [sp], #4
 1643              		.cfi_restore 7
 1644              		.cfi_def_cfa_offset 0
 1645 0018 7047     		bx	lr
 1646              	.L97:
 1647 001a 00BF     		.align	2
 1648              	.L96:
 1649 001c 08600040 		.word	1073766408
ARM GAS  C:\Users\LUKASC~1\AppData\Local\Temp\ccEgAQpP.s 			page 73


 1650              		.cfi_endproc
 1651              	.LFE19:
 1652              		.size	USBFS_GetDeviceAddress, .-USBFS_GetDeviceAddress
 1653              		.section	.text.USBFS_EnableSofInt,"ax",%progbits
 1654              		.align	2
 1655              		.global	USBFS_EnableSofInt
 1656              		.thumb
 1657              		.thumb_func
 1658              		.type	USBFS_EnableSofInt, %function
 1659              	USBFS_EnableSofInt:
 1660              	.LFB20:
2452:.\Generated_Source\PSoC5/USBFS.c **** 
2453:.\Generated_Source\PSoC5/USBFS.c **** 
2454:.\Generated_Source\PSoC5/USBFS.c **** /*******************************************************************************
2455:.\Generated_Source\PSoC5/USBFS.c **** * Function Name: USBFS_EnableSofInt
2456:.\Generated_Source\PSoC5/USBFS.c **** ****************************************************************************//**
2457:.\Generated_Source\PSoC5/USBFS.c **** *
2458:.\Generated_Source\PSoC5/USBFS.c **** *  This function enables interrupt generation when a Start-of-Frame (SOF)
2459:.\Generated_Source\PSoC5/USBFS.c **** *  packet is received from the host.
2460:.\Generated_Source\PSoC5/USBFS.c **** *
2461:.\Generated_Source\PSoC5/USBFS.c **** *******************************************************************************/
2462:.\Generated_Source\PSoC5/USBFS.c **** void USBFS_EnableSofInt(void) 
2463:.\Generated_Source\PSoC5/USBFS.c **** {
 1661              		.loc 1 2463 0
 1662              		.cfi_startproc
 1663              		@ args = 0, pretend = 0, frame = 0
 1664              		@ frame_needed = 1, uses_anonymous_args = 0
 1665              		@ link register save eliminated.
 1666 0000 80B4     		push	{r7}
 1667              		.cfi_def_cfa_offset 4
 1668              		.cfi_offset 7, -4
 1669 0002 00AF     		add	r7, sp, #0
 1670              		.cfi_def_cfa_register 7
2464:.\Generated_Source\PSoC5/USBFS.c **** #if (CY_PSOC4)
2465:.\Generated_Source\PSoC5/USBFS.c ****     /* Enable SOF interrupt interrupt source. */
2466:.\Generated_Source\PSoC5/USBFS.c ****     USBFS_INTR_SIE_MASK_REG |= (uint32) USBFS_INTR_SIE_SOF_INTR;
2467:.\Generated_Source\PSoC5/USBFS.c **** #else
2468:.\Generated_Source\PSoC5/USBFS.c ****     /* Enable SOF interrupt if it is present. */
2469:.\Generated_Source\PSoC5/USBFS.c ****     #if (USBFS_SOF_ISR_ACTIVE)
2470:.\Generated_Source\PSoC5/USBFS.c ****         CyIntEnable(USBFS_SOF_VECT_NUM);
2471:.\Generated_Source\PSoC5/USBFS.c ****     #endif /* (USBFS_SOF_ISR_ACTIVE) */
2472:.\Generated_Source\PSoC5/USBFS.c **** #endif /* (CY_PSOC4) */
2473:.\Generated_Source\PSoC5/USBFS.c **** }
 1671              		.loc 1 2473 0
 1672 0004 BD46     		mov	sp, r7
 1673              		.cfi_def_cfa_register 13
 1674              		@ sp needed
 1675 0006 5DF8047B 		ldr	r7, [sp], #4
 1676              		.cfi_restore 7
 1677              		.cfi_def_cfa_offset 0
 1678 000a 7047     		bx	lr
 1679              		.cfi_endproc
 1680              	.LFE20:
 1681              		.size	USBFS_EnableSofInt, .-USBFS_EnableSofInt
 1682              		.section	.text.USBFS_DisableSofInt,"ax",%progbits
 1683              		.align	2
 1684              		.global	USBFS_DisableSofInt
ARM GAS  C:\Users\LUKASC~1\AppData\Local\Temp\ccEgAQpP.s 			page 74


 1685              		.thumb
 1686              		.thumb_func
 1687              		.type	USBFS_DisableSofInt, %function
 1688              	USBFS_DisableSofInt:
 1689              	.LFB21:
2474:.\Generated_Source\PSoC5/USBFS.c **** 
2475:.\Generated_Source\PSoC5/USBFS.c **** 
2476:.\Generated_Source\PSoC5/USBFS.c **** /*******************************************************************************
2477:.\Generated_Source\PSoC5/USBFS.c **** * Function Name: USBFS_DisableSofInt
2478:.\Generated_Source\PSoC5/USBFS.c **** ****************************************************************************//**
2479:.\Generated_Source\PSoC5/USBFS.c **** *
2480:.\Generated_Source\PSoC5/USBFS.c **** *  This function disables interrupt generation when a Start-of-Frame (SOF)
2481:.\Generated_Source\PSoC5/USBFS.c **** *  packet is received from the host.
2482:.\Generated_Source\PSoC5/USBFS.c **** *
2483:.\Generated_Source\PSoC5/USBFS.c **** *******************************************************************************/
2484:.\Generated_Source\PSoC5/USBFS.c **** void USBFS_DisableSofInt(void) 
2485:.\Generated_Source\PSoC5/USBFS.c **** {
 1690              		.loc 1 2485 0
 1691              		.cfi_startproc
 1692              		@ args = 0, pretend = 0, frame = 0
 1693              		@ frame_needed = 1, uses_anonymous_args = 0
 1694              		@ link register save eliminated.
 1695 0000 80B4     		push	{r7}
 1696              		.cfi_def_cfa_offset 4
 1697              		.cfi_offset 7, -4
 1698 0002 00AF     		add	r7, sp, #0
 1699              		.cfi_def_cfa_register 7
2486:.\Generated_Source\PSoC5/USBFS.c **** #if (CY_PSOC4)
2487:.\Generated_Source\PSoC5/USBFS.c ****     /* Disable SOF interrupt interrupt source. */
2488:.\Generated_Source\PSoC5/USBFS.c ****     USBFS_INTR_SIE_MASK_REG &= (uint32) ~USBFS_INTR_SIE_SOF_INTR;
2489:.\Generated_Source\PSoC5/USBFS.c **** #else
2490:.\Generated_Source\PSoC5/USBFS.c ****     /* Disable SOF interrupt if it is present. */
2491:.\Generated_Source\PSoC5/USBFS.c ****     #if (USBFS_SOF_ISR_ACTIVE)
2492:.\Generated_Source\PSoC5/USBFS.c ****         CyIntDisable(USBFS_SOF_VECT_NUM);
2493:.\Generated_Source\PSoC5/USBFS.c ****     #endif /* (USBFS_SOF_ISR_ACTIVE) */
2494:.\Generated_Source\PSoC5/USBFS.c **** #endif /* (CY_PSOC4) */
2495:.\Generated_Source\PSoC5/USBFS.c **** }
 1700              		.loc 1 2495 0
 1701 0004 BD46     		mov	sp, r7
 1702              		.cfi_def_cfa_register 13
 1703              		@ sp needed
 1704 0006 5DF8047B 		ldr	r7, [sp], #4
 1705              		.cfi_restore 7
 1706              		.cfi_def_cfa_offset 0
 1707 000a 7047     		bx	lr
 1708              		.cfi_endproc
 1709              	.LFE21:
 1710              		.size	USBFS_DisableSofInt, .-USBFS_DisableSofInt
 1711              		.text
 1712              	.Letext0:
 1713              		.file 2 ".\\Generated_Source\\PSoC5\\cytypes.h"
 1714              		.file 3 ".\\Generated_Source\\PSoC5\\USBFS.h"
 1715              		.file 4 ".\\Generated_Source\\PSoC5\\USBFS_pvt.h"
 1716              		.section	.debug_info,"",%progbits
 1717              	.Ldebug_info0:
 1718 0000 07070000 		.4byte	0x707
 1719 0004 0400     		.2byte	0x4
ARM GAS  C:\Users\LUKASC~1\AppData\Local\Temp\ccEgAQpP.s 			page 75


 1720 0006 00000000 		.4byte	.Ldebug_abbrev0
 1721 000a 04       		.byte	0x4
 1722 000b 01       		.uleb128 0x1
 1723 000c C6020000 		.4byte	.LASF91
 1724 0010 01       		.byte	0x1
 1725 0011 AB000000 		.4byte	.LASF92
 1726 0015 60040000 		.4byte	.LASF93
 1727 0019 00000000 		.4byte	.Ldebug_ranges0+0
 1728 001d 00000000 		.4byte	0
 1729 0021 00000000 		.4byte	.Ldebug_line0
 1730 0025 02       		.uleb128 0x2
 1731 0026 01       		.byte	0x1
 1732 0027 06       		.byte	0x6
 1733 0028 9F000000 		.4byte	.LASF0
 1734 002c 02       		.uleb128 0x2
 1735 002d 01       		.byte	0x1
 1736 002e 08       		.byte	0x8
 1737 002f C2030000 		.4byte	.LASF1
 1738 0033 02       		.uleb128 0x2
 1739 0034 02       		.byte	0x2
 1740 0035 05       		.byte	0x5
 1741 0036 D0030000 		.4byte	.LASF2
 1742 003a 02       		.uleb128 0x2
 1743 003b 02       		.byte	0x2
 1744 003c 07       		.byte	0x7
 1745 003d 1F020000 		.4byte	.LASF3
 1746 0041 02       		.uleb128 0x2
 1747 0042 04       		.byte	0x4
 1748 0043 05       		.byte	0x5
 1749 0044 48010000 		.4byte	.LASF4
 1750 0048 02       		.uleb128 0x2
 1751 0049 04       		.byte	0x4
 1752 004a 07       		.byte	0x7
 1753 004b F6010000 		.4byte	.LASF5
 1754 004f 02       		.uleb128 0x2
 1755 0050 08       		.byte	0x8
 1756 0051 05       		.byte	0x5
 1757 0052 91000000 		.4byte	.LASF6
 1758 0056 02       		.uleb128 0x2
 1759 0057 08       		.byte	0x8
 1760 0058 07       		.byte	0x7
 1761 0059 21000000 		.4byte	.LASF7
 1762 005d 03       		.uleb128 0x3
 1763 005e 04       		.byte	0x4
 1764 005f 05       		.byte	0x5
 1765 0060 696E7400 		.ascii	"int\000"
 1766 0064 02       		.uleb128 0x2
 1767 0065 04       		.byte	0x4
 1768 0066 07       		.byte	0x7
 1769 0067 E9010000 		.4byte	.LASF8
 1770 006b 04       		.uleb128 0x4
 1771 006c 68010000 		.4byte	.LASF9
 1772 0070 02       		.byte	0x2
 1773 0071 9201     		.2byte	0x192
 1774 0073 2C000000 		.4byte	0x2c
 1775 0077 04       		.uleb128 0x4
 1776 0078 00000000 		.4byte	.LASF10
ARM GAS  C:\Users\LUKASC~1\AppData\Local\Temp\ccEgAQpP.s 			page 76


 1777 007c 02       		.byte	0x2
 1778 007d 9301     		.2byte	0x193
 1779 007f 3A000000 		.4byte	0x3a
 1780 0083 04       		.uleb128 0x4
 1781 0084 94010000 		.4byte	.LASF11
 1782 0088 02       		.byte	0x2
 1783 0089 9401     		.2byte	0x194
 1784 008b 48000000 		.4byte	0x48
 1785 008f 02       		.uleb128 0x2
 1786 0090 04       		.byte	0x4
 1787 0091 04       		.byte	0x4
 1788 0092 70030000 		.4byte	.LASF12
 1789 0096 02       		.uleb128 0x2
 1790 0097 08       		.byte	0x8
 1791 0098 04       		.byte	0x4
 1792 0099 7C010000 		.4byte	.LASF13
 1793 009d 02       		.uleb128 0x2
 1794 009e 01       		.byte	0x1
 1795 009f 08       		.byte	0x8
 1796 00a0 BD040000 		.4byte	.LASF14
 1797 00a4 04       		.uleb128 0x4
 1798 00a5 A9030000 		.4byte	.LASF15
 1799 00a9 02       		.byte	0x2
 1800 00aa 3C02     		.2byte	0x23c
 1801 00ac B0000000 		.4byte	0xb0
 1802 00b0 05       		.uleb128 0x5
 1803 00b1 6B000000 		.4byte	0x6b
 1804 00b5 04       		.uleb128 0x4
 1805 00b6 78020000 		.4byte	.LASF16
 1806 00ba 02       		.byte	0x2
 1807 00bb 3E02     		.2byte	0x23e
 1808 00bd C1000000 		.4byte	0xc1
 1809 00c1 05       		.uleb128 0x5
 1810 00c2 83000000 		.4byte	0x83
 1811 00c6 02       		.uleb128 0x2
 1812 00c7 04       		.byte	0x4
 1813 00c8 07       		.byte	0x7
 1814 00c9 B0020000 		.4byte	.LASF17
 1815 00cd 06       		.uleb128 0x6
 1816 00ce 0C       		.byte	0xc
 1817 00cf 03       		.byte	0x3
 1818 00d0 8C       		.byte	0x8c
 1819 00d1 42010000 		.4byte	0x142
 1820 00d5 07       		.uleb128 0x7
 1821 00d6 BF020000 		.4byte	.LASF18
 1822 00da 03       		.byte	0x3
 1823 00db 8E       		.byte	0x8e
 1824 00dc 6B000000 		.4byte	0x6b
 1825 00e0 00       		.byte	0
 1826 00e1 07       		.uleb128 0x7
 1827 00e2 76030000 		.4byte	.LASF19
 1828 00e6 03       		.byte	0x3
 1829 00e7 8F       		.byte	0x8f
 1830 00e8 6B000000 		.4byte	0x6b
 1831 00ec 01       		.byte	0x1
 1832 00ed 07       		.uleb128 0x7
 1833 00ee 91020000 		.4byte	.LASF20
ARM GAS  C:\Users\LUKASC~1\AppData\Local\Temp\ccEgAQpP.s 			page 77


 1834 00f2 03       		.byte	0x3
 1835 00f3 90       		.byte	0x90
 1836 00f4 6B000000 		.4byte	0x6b
 1837 00f8 02       		.byte	0x2
 1838 00f9 07       		.uleb128 0x7
 1839 00fa 6E010000 		.4byte	.LASF21
 1840 00fe 03       		.byte	0x3
 1841 00ff 91       		.byte	0x91
 1842 0100 6B000000 		.4byte	0x6b
 1843 0104 03       		.byte	0x3
 1844 0105 07       		.uleb128 0x7
 1845 0106 4C000000 		.4byte	.LASF22
 1846 010a 03       		.byte	0x3
 1847 010b 92       		.byte	0x92
 1848 010c 6B000000 		.4byte	0x6b
 1849 0110 04       		.byte	0x4
 1850 0111 07       		.uleb128 0x7
 1851 0112 C9010000 		.4byte	.LASF23
 1852 0116 03       		.byte	0x3
 1853 0117 93       		.byte	0x93
 1854 0118 6B000000 		.4byte	0x6b
 1855 011c 05       		.byte	0x5
 1856 011d 07       		.uleb128 0x7
 1857 011e DE040000 		.4byte	.LASF24
 1858 0122 03       		.byte	0x3
 1859 0123 94       		.byte	0x94
 1860 0124 77000000 		.4byte	0x77
 1861 0128 06       		.byte	0x6
 1862 0129 07       		.uleb128 0x7
 1863 012a C7040000 		.4byte	.LASF25
 1864 012e 03       		.byte	0x3
 1865 012f 95       		.byte	0x95
 1866 0130 77000000 		.4byte	0x77
 1867 0134 08       		.byte	0x8
 1868 0135 07       		.uleb128 0x7
 1869 0136 4C020000 		.4byte	.LASF26
 1870 013a 03       		.byte	0x3
 1871 013b 96       		.byte	0x96
 1872 013c 6B000000 		.4byte	0x6b
 1873 0140 0A       		.byte	0xa
 1874 0141 00       		.byte	0
 1875 0142 08       		.uleb128 0x8
 1876 0143 37040000 		.4byte	.LASF27
 1877 0147 03       		.byte	0x3
 1878 0148 97       		.byte	0x97
 1879 0149 CD000000 		.4byte	0xcd
 1880 014d 06       		.uleb128 0x6
 1881 014e 10       		.byte	0x10
 1882 014f 03       		.byte	0x3
 1883 0150 D3       		.byte	0xd3
 1884 0151 86010000 		.4byte	0x186
 1885 0155 07       		.uleb128 0x7
 1886 0156 5C030000 		.4byte	.LASF28
 1887 015a 03       		.byte	0x3
 1888 015b D5       		.byte	0xd5
 1889 015c 6B000000 		.4byte	0x6b
 1890 0160 00       		.byte	0
ARM GAS  C:\Users\LUKASC~1\AppData\Local\Temp\ccEgAQpP.s 			page 78


 1891 0161 07       		.uleb128 0x7
 1892 0162 63030000 		.4byte	.LASF29
 1893 0166 03       		.byte	0x3
 1894 0167 D6       		.byte	0xd6
 1895 0168 6B000000 		.4byte	0x6b
 1896 016c 01       		.byte	0x1
 1897 016d 07       		.uleb128 0x7
 1898 016e 6A030000 		.4byte	.LASF30
 1899 0172 03       		.byte	0x3
 1900 0173 D7       		.byte	0xd7
 1901 0174 6B000000 		.4byte	0x6b
 1902 0178 02       		.byte	0x2
 1903 0179 09       		.uleb128 0x9
 1904 017a 67617000 		.ascii	"gap\000"
 1905 017e 03       		.byte	0x3
 1906 017f D8       		.byte	0xd8
 1907 0180 86010000 		.4byte	0x186
 1908 0184 03       		.byte	0x3
 1909 0185 00       		.byte	0
 1910 0186 0A       		.uleb128 0xa
 1911 0187 6B000000 		.4byte	0x6b
 1912 018b 96010000 		.4byte	0x196
 1913 018f 0B       		.uleb128 0xb
 1914 0190 C6000000 		.4byte	0xc6
 1915 0194 0C       		.byte	0xc
 1916 0195 00       		.byte	0
 1917 0196 08       		.uleb128 0x8
 1918 0197 32020000 		.4byte	.LASF31
 1919 019b 03       		.byte	0x3
 1920 019c D9       		.byte	0xd9
 1921 019d 4D010000 		.4byte	0x14d
 1922 01a1 06       		.uleb128 0x6
 1923 01a2 10       		.byte	0x10
 1924 01a3 03       		.byte	0x3
 1925 01a4 E5       		.byte	0xe5
 1926 01a5 22020000 		.4byte	0x222
 1927 01a9 07       		.uleb128 0x7
 1928 01aa 51000000 		.4byte	.LASF32
 1929 01ae 03       		.byte	0x3
 1930 01af E7       		.byte	0xe7
 1931 01b0 6B000000 		.4byte	0x6b
 1932 01b4 00       		.byte	0
 1933 01b5 07       		.uleb128 0x7
 1934 01b6 87050000 		.4byte	.LASF33
 1935 01ba 03       		.byte	0x3
 1936 01bb E8       		.byte	0xe8
 1937 01bc 6B000000 		.4byte	0x6b
 1938 01c0 01       		.byte	0x1
 1939 01c1 07       		.uleb128 0x7
 1940 01c2 8F010000 		.4byte	.LASF34
 1941 01c6 03       		.byte	0x3
 1942 01c7 E9       		.byte	0xe9
 1943 01c8 6B000000 		.4byte	0x6b
 1944 01cc 02       		.byte	0x2
 1945 01cd 07       		.uleb128 0x7
 1946 01ce D0010000 		.4byte	.LASF35
 1947 01d2 03       		.byte	0x3
ARM GAS  C:\Users\LUKASC~1\AppData\Local\Temp\ccEgAQpP.s 			page 79


 1948 01d3 EA       		.byte	0xea
 1949 01d4 6B000000 		.4byte	0x6b
 1950 01d8 03       		.byte	0x3
 1951 01d9 07       		.uleb128 0x7
 1952 01da 77010000 		.4byte	.LASF36
 1953 01de 03       		.byte	0x3
 1954 01df EB       		.byte	0xeb
 1955 01e0 6B000000 		.4byte	0x6b
 1956 01e4 04       		.byte	0x4
 1957 01e5 07       		.uleb128 0x7
 1958 01e6 7F050000 		.4byte	.LASF37
 1959 01ea 03       		.byte	0x3
 1960 01eb EC       		.byte	0xec
 1961 01ec 6B000000 		.4byte	0x6b
 1962 01f0 05       		.byte	0x5
 1963 01f1 07       		.uleb128 0x7
 1964 01f2 1B040000 		.4byte	.LASF38
 1965 01f6 03       		.byte	0x3
 1966 01f7 ED       		.byte	0xed
 1967 01f8 6B000000 		.4byte	0x6b
 1968 01fc 06       		.byte	0x6
 1969 01fd 07       		.uleb128 0x7
 1970 01fe 54030000 		.4byte	.LASF39
 1971 0202 03       		.byte	0x3
 1972 0203 EE       		.byte	0xee
 1973 0204 6B000000 		.4byte	0x6b
 1974 0208 07       		.byte	0x7
 1975 0209 07       		.uleb128 0x7
 1976 020a 58050000 		.4byte	.LASF40
 1977 020e 03       		.byte	0x3
 1978 020f EF       		.byte	0xef
 1979 0210 6B000000 		.4byte	0x6b
 1980 0214 08       		.byte	0x8
 1981 0215 09       		.uleb128 0x9
 1982 0216 67617000 		.ascii	"gap\000"
 1983 021a 03       		.byte	0x3
 1984 021b F0       		.byte	0xf0
 1985 021c 22020000 		.4byte	0x222
 1986 0220 09       		.byte	0x9
 1987 0221 00       		.byte	0
 1988 0222 0A       		.uleb128 0xa
 1989 0223 6B000000 		.4byte	0x6b
 1990 0227 32020000 		.4byte	0x232
 1991 022b 0B       		.uleb128 0xb
 1992 022c C6000000 		.4byte	0xc6
 1993 0230 06       		.byte	0x6
 1994 0231 00       		.byte	0
 1995 0232 08       		.uleb128 0x8
 1996 0233 24010000 		.4byte	.LASF41
 1997 0237 03       		.byte	0x3
 1998 0238 F1       		.byte	0xf1
 1999 0239 A1010000 		.4byte	0x1a1
 2000 023d 0C       		.uleb128 0xc
 2001 023e 90       		.byte	0x90
 2002 023f 03       		.byte	0x3
 2003 0240 0D01     		.2byte	0x10d
 2004 0242 54020000 		.4byte	0x254
ARM GAS  C:\Users\LUKASC~1\AppData\Local\Temp\ccEgAQpP.s 			page 80


 2005 0246 0D       		.uleb128 0xd
 2006 0247 B9020000 		.4byte	.LASF42
 2007 024b 03       		.byte	0x3
 2008 024c 0F01     		.2byte	0x10f
 2009 024e 54020000 		.4byte	0x254
 2010 0252 00       		.byte	0
 2011 0253 00       		.byte	0
 2012 0254 0A       		.uleb128 0xa
 2013 0255 96010000 		.4byte	0x196
 2014 0259 64020000 		.4byte	0x264
 2015 025d 0B       		.uleb128 0xb
 2016 025e C6000000 		.4byte	0xc6
 2017 0262 08       		.byte	0x8
 2018 0263 00       		.byte	0
 2019 0264 04       		.uleb128 0x4
 2020 0265 57000000 		.4byte	.LASF43
 2021 0269 03       		.byte	0x3
 2022 026a 1001     		.2byte	0x110
 2023 026c 3D020000 		.4byte	0x23d
 2024 0270 0C       		.uleb128 0xc
 2025 0271 90       		.byte	0x90
 2026 0272 03       		.byte	0x3
 2027 0273 1301     		.2byte	0x113
 2028 0275 87020000 		.4byte	0x287
 2029 0279 0D       		.uleb128 0xd
 2030 027a 46020000 		.4byte	.LASF44
 2031 027e 03       		.byte	0x3
 2032 027f 1501     		.2byte	0x115
 2033 0281 87020000 		.4byte	0x287
 2034 0285 00       		.byte	0
 2035 0286 00       		.byte	0
 2036 0287 0A       		.uleb128 0xa
 2037 0288 32020000 		.4byte	0x232
 2038 028c 97020000 		.4byte	0x297
 2039 0290 0B       		.uleb128 0xb
 2040 0291 C6000000 		.4byte	0xc6
 2041 0295 08       		.byte	0x8
 2042 0296 00       		.byte	0
 2043 0297 04       		.uleb128 0x4
 2044 0298 6C000000 		.4byte	.LASF45
 2045 029c 03       		.byte	0x3
 2046 029d 1601     		.2byte	0x116
 2047 029f 70020000 		.4byte	0x270
 2048 02a3 0E       		.uleb128 0xe
 2049 02a4 D2040000 		.4byte	.LASF48
 2050 02a8 01       		.byte	0x1
 2051 02a9 B9       		.byte	0xb9
 2052 02aa 00000000 		.4byte	.LFB0
 2053 02ae 38000000 		.4byte	.LFE0-.LFB0
 2054 02b2 01       		.uleb128 0x1
 2055 02b3 9C       		.byte	0x9c
 2056 02b4 D5020000 		.4byte	0x2d5
 2057 02b8 0F       		.uleb128 0xf
 2058 02b9 8A000000 		.4byte	.LASF46
 2059 02bd 01       		.byte	0x1
 2060 02be B9       		.byte	0xb9
 2061 02bf 6B000000 		.4byte	0x6b
ARM GAS  C:\Users\LUKASC~1\AppData\Local\Temp\ccEgAQpP.s 			page 81


 2062 02c3 02       		.uleb128 0x2
 2063 02c4 91       		.byte	0x91
 2064 02c5 77       		.sleb128 -9
 2065 02c6 0F       		.uleb128 0xf
 2066 02c7 C2040000 		.4byte	.LASF47
 2067 02cb 01       		.byte	0x1
 2068 02cc B9       		.byte	0xb9
 2069 02cd 6B000000 		.4byte	0x6b
 2070 02d1 02       		.uleb128 0x2
 2071 02d2 91       		.byte	0x91
 2072 02d3 76       		.sleb128 -10
 2073 02d4 00       		.byte	0
 2074 02d5 0E       		.uleb128 0xe
 2075 02d6 8A030000 		.4byte	.LASF49
 2076 02da 01       		.byte	0x1
 2077 02db D2       		.byte	0xd2
 2078 02dc 00000000 		.4byte	.LFB1
 2079 02e0 78010000 		.4byte	.LFE1-.LFB1
 2080 02e4 01       		.uleb128 0x1
 2081 02e5 9C       		.byte	0x9c
 2082 02e6 F9020000 		.4byte	0x2f9
 2083 02ea 10       		.uleb128 0x10
 2084 02eb 33050000 		.4byte	.LASF52
 2085 02ef 01       		.byte	0x1
 2086 02f0 F9       		.byte	0xf9
 2087 02f1 6B000000 		.4byte	0x6b
 2088 02f5 02       		.uleb128 0x2
 2089 02f6 91       		.byte	0x91
 2090 02f7 77       		.sleb128 -9
 2091 02f8 00       		.byte	0
 2092 02f9 11       		.uleb128 0x11
 2093 02fa 9B010000 		.4byte	.LASF50
 2094 02fe 01       		.byte	0x1
 2095 02ff CB01     		.2byte	0x1cb
 2096 0301 00000000 		.4byte	.LFB2
 2097 0305 F0000000 		.4byte	.LFE2-.LFB2
 2098 0309 01       		.uleb128 0x1
 2099 030a 9C       		.byte	0x9c
 2100 030b 2E030000 		.4byte	0x32e
 2101 030f 12       		.uleb128 0x12
 2102 0310 8A000000 		.4byte	.LASF46
 2103 0314 01       		.byte	0x1
 2104 0315 CB01     		.2byte	0x1cb
 2105 0317 6B000000 		.4byte	0x6b
 2106 031b 02       		.uleb128 0x2
 2107 031c 91       		.byte	0x91
 2108 031d 77       		.sleb128 -9
 2109 031e 12       		.uleb128 0x12
 2110 031f C2040000 		.4byte	.LASF47
 2111 0323 01       		.byte	0x1
 2112 0324 CB01     		.2byte	0x1cb
 2113 0326 6B000000 		.4byte	0x6b
 2114 032a 02       		.uleb128 0x2
 2115 032b 91       		.byte	0x91
 2116 032c 76       		.sleb128 -10
 2117 032d 00       		.byte	0
 2118 032e 13       		.uleb128 0x13
ARM GAS  C:\Users\LUKASC~1\AppData\Local\Temp\ccEgAQpP.s 			page 82


 2119 032f 1D050000 		.4byte	.LASF77
 2120 0333 01       		.byte	0x1
 2121 0334 9E02     		.2byte	0x29e
 2122 0336 00000000 		.4byte	.LFB3
 2123 033a 68000000 		.4byte	.LFE3-.LFB3
 2124 033e 01       		.uleb128 0x1
 2125 033f 9C       		.byte	0x9c
 2126 0340 11       		.uleb128 0x11
 2127 0341 3D010000 		.4byte	.LASF51
 2128 0345 01       		.byte	0x1
 2129 0346 D802     		.2byte	0x2d8
 2130 0348 00000000 		.4byte	.LFB4
 2131 034c C8000000 		.4byte	.LFE4-.LFB4
 2132 0350 01       		.uleb128 0x1
 2133 0351 9C       		.byte	0x9c
 2134 0352 66030000 		.4byte	0x366
 2135 0356 14       		.uleb128 0x14
 2136 0357 33050000 		.4byte	.LASF52
 2137 035b 01       		.byte	0x1
 2138 035c DA02     		.2byte	0x2da
 2139 035e 6B000000 		.4byte	0x6b
 2140 0362 02       		.uleb128 0x2
 2141 0363 91       		.byte	0x91
 2142 0364 77       		.sleb128 -9
 2143 0365 00       		.byte	0
 2144 0366 15       		.uleb128 0x15
 2145 0367 44050000 		.4byte	.LASF54
 2146 036b 01       		.byte	0x1
 2147 036c 4303     		.2byte	0x343
 2148 036e 6B000000 		.4byte	0x6b
 2149 0372 00000000 		.4byte	.LFB5
 2150 0376 38000000 		.4byte	.LFE5-.LFB5
 2151 037a 01       		.uleb128 0x1
 2152 037b 9C       		.byte	0x9c
 2153 037c 90030000 		.4byte	0x390
 2154 0380 14       		.uleb128 0x14
 2155 0381 56020000 		.4byte	.LASF53
 2156 0385 01       		.byte	0x1
 2157 0386 4503     		.2byte	0x345
 2158 0388 6B000000 		.4byte	0x6b
 2159 038c 02       		.uleb128 0x2
 2160 038d 91       		.byte	0x91
 2161 038e 77       		.sleb128 -9
 2162 038f 00       		.byte	0
 2163 0390 16       		.uleb128 0x16
 2164 0391 51010000 		.4byte	.LASF75
 2165 0395 01       		.byte	0x1
 2166 0396 5A03     		.2byte	0x35a
 2167 0398 6B000000 		.4byte	0x6b
 2168 039c 00000000 		.4byte	.LFB6
 2169 03a0 18000000 		.4byte	.LFE6-.LFB6
 2170 03a4 01       		.uleb128 0x1
 2171 03a5 9C       		.byte	0x9c
 2172 03a6 15       		.uleb128 0x15
 2173 03a7 CC000000 		.4byte	.LASF55
 2174 03ab 01       		.byte	0x1
 2175 03ac 7403     		.2byte	0x374
ARM GAS  C:\Users\LUKASC~1\AppData\Local\Temp\ccEgAQpP.s 			page 83


 2176 03ae 6B000000 		.4byte	0x6b
 2177 03b2 00000000 		.4byte	.LFB7
 2178 03b6 34000000 		.4byte	.LFE7-.LFB7
 2179 03ba 01       		.uleb128 0x1
 2180 03bb 9C       		.byte	0x9c
 2181 03bc D0030000 		.4byte	0x3d0
 2182 03c0 17       		.uleb128 0x17
 2183 03c1 72657300 		.ascii	"res\000"
 2184 03c5 01       		.byte	0x1
 2185 03c6 7603     		.2byte	0x376
 2186 03c8 6B000000 		.4byte	0x6b
 2187 03cc 02       		.uleb128 0x2
 2188 03cd 91       		.byte	0x91
 2189 03ce 77       		.sleb128 -9
 2190 03cf 00       		.byte	0
 2191 03d0 15       		.uleb128 0x15
 2192 03d1 01040000 		.4byte	.LASF56
 2193 03d5 01       		.byte	0x1
 2194 03d6 9103     		.2byte	0x391
 2195 03d8 6B000000 		.4byte	0x6b
 2196 03dc 00000000 		.4byte	.LFB8
 2197 03e0 24000000 		.4byte	.LFE8-.LFB8
 2198 03e4 01       		.uleb128 0x1
 2199 03e5 9C       		.byte	0x9c
 2200 03e6 FA030000 		.4byte	0x3fa
 2201 03ea 12       		.uleb128 0x12
 2202 03eb E9040000 		.4byte	.LASF57
 2203 03ef 01       		.byte	0x1
 2204 03f0 9103     		.2byte	0x391
 2205 03f2 6B000000 		.4byte	0x6b
 2206 03f6 02       		.uleb128 0x2
 2207 03f7 91       		.byte	0x91
 2208 03f8 77       		.sleb128 -9
 2209 03f9 00       		.byte	0
 2210 03fa 15       		.uleb128 0x15
 2211 03fb 0C050000 		.4byte	.LASF58
 2212 03ff 01       		.byte	0x1
 2213 0400 B103     		.2byte	0x3b1
 2214 0402 6B000000 		.4byte	0x6b
 2215 0406 00000000 		.4byte	.LFB9
 2216 040a 2C000000 		.4byte	.LFE9-.LFB9
 2217 040e 01       		.uleb128 0x1
 2218 040f 9C       		.byte	0x9c
 2219 0410 24040000 		.4byte	0x424
 2220 0414 12       		.uleb128 0x12
 2221 0415 81000000 		.4byte	.LASF59
 2222 0419 01       		.byte	0x1
 2223 041a B103     		.2byte	0x3b1
 2224 041c 6B000000 		.4byte	0x6b
 2225 0420 02       		.uleb128 0x2
 2226 0421 91       		.byte	0x91
 2227 0422 77       		.sleb128 -9
 2228 0423 00       		.byte	0
 2229 0424 15       		.uleb128 0x15
 2230 0425 8F050000 		.4byte	.LASF60
 2231 0429 01       		.byte	0x1
 2232 042a C803     		.2byte	0x3c8
ARM GAS  C:\Users\LUKASC~1\AppData\Local\Temp\ccEgAQpP.s 			page 84


 2233 042c 77000000 		.4byte	0x77
 2234 0430 00000000 		.4byte	.LFB10
 2235 0434 60000000 		.4byte	.LFE10-.LFB10
 2236 0438 01       		.uleb128 0x1
 2237 0439 9C       		.byte	0x9c
 2238 043a 5D040000 		.4byte	0x45d
 2239 043e 12       		.uleb128 0x12
 2240 043f 81000000 		.4byte	.LASF59
 2241 0443 01       		.byte	0x1
 2242 0444 C803     		.2byte	0x3c8
 2243 0446 6B000000 		.4byte	0x6b
 2244 044a 02       		.uleb128 0x2
 2245 044b 91       		.byte	0x91
 2246 044c 6F       		.sleb128 -17
 2247 044d 14       		.uleb128 0x14
 2248 044e 38010000 		.4byte	.LASF61
 2249 0452 01       		.byte	0x1
 2250 0453 CA03     		.2byte	0x3ca
 2251 0455 77000000 		.4byte	0x77
 2252 0459 02       		.uleb128 0x2
 2253 045a 91       		.byte	0x91
 2254 045b 76       		.sleb128 -10
 2255 045c 00       		.byte	0
 2256 045d 18       		.uleb128 0x18
 2257 045e 70050000 		.4byte	.LASF62
 2258 0462 01       		.byte	0x1
 2259 0463 3005     		.2byte	0x530
 2260 0465 00000000 		.4byte	.LFB11
 2261 0469 F8000000 		.4byte	.LFE11-.LFB11
 2262 046d 01       		.uleb128 0x1
 2263 046e 9C       		.byte	0x9c
 2264 046f B8040000 		.4byte	0x4b8
 2265 0473 12       		.uleb128 0x12
 2266 0474 81000000 		.4byte	.LASF59
 2267 0478 01       		.byte	0x1
 2268 0479 3005     		.2byte	0x530
 2269 047b 6B000000 		.4byte	0x6b
 2270 047f 02       		.uleb128 0x2
 2271 0480 91       		.byte	0x91
 2272 0481 67       		.sleb128 -25
 2273 0482 12       		.uleb128 0x12
 2274 0483 AF010000 		.4byte	.LASF63
 2275 0487 01       		.byte	0x1
 2276 0488 3005     		.2byte	0x530
 2277 048a B8040000 		.4byte	0x4b8
 2278 048e 02       		.uleb128 0x2
 2279 048f 91       		.byte	0x91
 2280 0490 60       		.sleb128 -32
 2281 0491 12       		.uleb128 0x12
 2282 0492 B6040000 		.4byte	.LASF64
 2283 0496 01       		.byte	0x1
 2284 0497 3005     		.2byte	0x530
 2285 0499 77000000 		.4byte	0x77
 2286 049d 02       		.uleb128 0x2
 2287 049e 91       		.byte	0x91
 2288 049f 64       		.sleb128 -28
 2289 04a0 19       		.uleb128 0x19
ARM GAS  C:\Users\LUKASC~1\AppData\Local\Temp\ccEgAQpP.s 			page 85


 2290 04a1 8E000000 		.4byte	.LBB2
 2291 04a5 28000000 		.4byte	.LBE2-.LBB2
 2292 04a9 17       		.uleb128 0x17
 2293 04aa 6900     		.ascii	"i\000"
 2294 04ac 01       		.byte	0x1
 2295 04ad 4505     		.2byte	0x545
 2296 04af 77000000 		.4byte	0x77
 2297 04b3 02       		.uleb128 0x2
 2298 04b4 91       		.byte	0x91
 2299 04b5 6E       		.sleb128 -18
 2300 04b6 00       		.byte	0
 2301 04b7 00       		.byte	0
 2302 04b8 1A       		.uleb128 0x1a
 2303 04b9 04       		.byte	0x4
 2304 04ba BE040000 		.4byte	0x4be
 2305 04be 1B       		.uleb128 0x1b
 2306 04bf 6B000000 		.4byte	0x6b
 2307 04c3 1C       		.uleb128 0x1c
 2308 04c4 D9010000 		.4byte	.LASF65
 2309 04c8 01       		.byte	0x1
 2310 04c9 6306     		.2byte	0x663
 2311 04cb 77000000 		.4byte	0x77
 2312 04cf 00000000 		.4byte	.LFB12
 2313 04d3 8C000000 		.4byte	.LFE12-.LFB12
 2314 04d7 01       		.uleb128 0x1
 2315 04d8 9C       		.byte	0x9c
 2316 04d9 22050000 		.4byte	0x522
 2317 04dd 12       		.uleb128 0x12
 2318 04de 81000000 		.4byte	.LASF59
 2319 04e2 01       		.byte	0x1
 2320 04e3 6306     		.2byte	0x663
 2321 04e5 6B000000 		.4byte	0x6b
 2322 04e9 02       		.uleb128 0x2
 2323 04ea 91       		.byte	0x91
 2324 04eb 6F       		.sleb128 -17
 2325 04ec 12       		.uleb128 0x12
 2326 04ed AF010000 		.4byte	.LASF63
 2327 04f1 01       		.byte	0x1
 2328 04f2 6306     		.2byte	0x663
 2329 04f4 22050000 		.4byte	0x522
 2330 04f8 02       		.uleb128 0x2
 2331 04f9 91       		.byte	0x91
 2332 04fa 68       		.sleb128 -24
 2333 04fb 12       		.uleb128 0x12
 2334 04fc B6040000 		.4byte	.LASF64
 2335 0500 01       		.byte	0x1
 2336 0501 6306     		.2byte	0x663
 2337 0503 77000000 		.4byte	0x77
 2338 0507 02       		.uleb128 0x2
 2339 0508 91       		.byte	0x91
 2340 0509 6C       		.sleb128 -20
 2341 050a 19       		.uleb128 0x19
 2342 050b 44000000 		.4byte	.LBB3
 2343 050f 2A000000 		.4byte	.LBE3-.LBB3
 2344 0513 17       		.uleb128 0x17
 2345 0514 6900     		.ascii	"i\000"
 2346 0516 01       		.byte	0x1
ARM GAS  C:\Users\LUKASC~1\AppData\Local\Temp\ccEgAQpP.s 			page 86


 2347 0517 7006     		.2byte	0x670
 2348 0519 77000000 		.4byte	0x77
 2349 051d 02       		.uleb128 0x2
 2350 051e 91       		.byte	0x91
 2351 051f 76       		.sleb128 -10
 2352 0520 00       		.byte	0
 2353 0521 00       		.byte	0
 2354 0522 1A       		.uleb128 0x1a
 2355 0523 04       		.byte	0x4
 2356 0524 6B000000 		.4byte	0x6b
 2357 0528 18       		.uleb128 0x18
 2358 0529 EF030000 		.4byte	.LASF66
 2359 052d 01       		.byte	0x1
 2360 052e C708     		.2byte	0x8c7
 2361 0530 00000000 		.4byte	.LFB13
 2362 0534 54000000 		.4byte	.LFE13-.LFB13
 2363 0538 01       		.uleb128 0x1
 2364 0539 9C       		.byte	0x9c
 2365 053a 4E050000 		.4byte	0x54e
 2366 053e 12       		.uleb128 0x12
 2367 053f 81000000 		.4byte	.LASF59
 2368 0543 01       		.byte	0x1
 2369 0544 C708     		.2byte	0x8c7
 2370 0546 6B000000 		.4byte	0x6b
 2371 054a 02       		.uleb128 0x2
 2372 054b 91       		.byte	0x91
 2373 054c 77       		.sleb128 -9
 2374 054d 00       		.byte	0
 2375 054e 18       		.uleb128 0x18
 2376 054f 5D050000 		.4byte	.LASF67
 2377 0553 01       		.byte	0x1
 2378 0554 DF08     		.2byte	0x8df
 2379 0556 00000000 		.4byte	.LFB14
 2380 055a 30000000 		.4byte	.LFE14-.LFB14
 2381 055e 01       		.uleb128 0x1
 2382 055f 9C       		.byte	0x9c
 2383 0560 74050000 		.4byte	0x574
 2384 0564 12       		.uleb128 0x12
 2385 0565 81000000 		.4byte	.LASF59
 2386 0569 01       		.byte	0x1
 2387 056a DF08     		.2byte	0x8df
 2388 056c 6B000000 		.4byte	0x6b
 2389 0570 02       		.uleb128 0x2
 2390 0571 91       		.byte	0x91
 2391 0572 77       		.sleb128 -9
 2392 0573 00       		.byte	0
 2393 0574 18       		.uleb128 0x18
 2394 0575 15000000 		.4byte	.LASF68
 2395 0579 01       		.byte	0x1
 2396 057a FD08     		.2byte	0x8fd
 2397 057c 00000000 		.4byte	.LFB15
 2398 0580 20000000 		.4byte	.LFE15-.LFB15
 2399 0584 01       		.uleb128 0x1
 2400 0585 9C       		.byte	0x9c
 2401 0586 9A050000 		.4byte	0x59a
 2402 058a 12       		.uleb128 0x12
 2403 058b 59040000 		.4byte	.LASF69
ARM GAS  C:\Users\LUKASC~1\AppData\Local\Temp\ccEgAQpP.s 			page 87


 2404 058f 01       		.byte	0x1
 2405 0590 FD08     		.2byte	0x8fd
 2406 0592 6B000000 		.4byte	0x6b
 2407 0596 02       		.uleb128 0x2
 2408 0597 91       		.byte	0x91
 2409 0598 77       		.sleb128 -9
 2410 0599 00       		.byte	0
 2411 059a 15       		.uleb128 0x15
 2412 059b 38000000 		.4byte	.LASF70
 2413 059f 01       		.byte	0x1
 2414 05a0 1609     		.2byte	0x916
 2415 05a2 6B000000 		.4byte	0x6b
 2416 05a6 00000000 		.4byte	.LFB16
 2417 05aa 40000000 		.4byte	.LFE16-.LFB16
 2418 05ae 01       		.uleb128 0x1
 2419 05af 9C       		.byte	0x9c
 2420 05b0 D2050000 		.4byte	0x5d2
 2421 05b4 12       		.uleb128 0x12
 2422 05b5 81000000 		.4byte	.LASF59
 2423 05b9 01       		.byte	0x1
 2424 05ba 1609     		.2byte	0x916
 2425 05bc 6B000000 		.4byte	0x6b
 2426 05c0 02       		.uleb128 0x2
 2427 05c1 91       		.byte	0x91
 2428 05c2 6F       		.sleb128 -17
 2429 05c3 17       		.uleb128 0x17
 2430 05c4 637200   		.ascii	"cr\000"
 2431 05c7 01       		.byte	0x1
 2432 05c8 1809     		.2byte	0x918
 2433 05ca 6B000000 		.4byte	0x6b
 2434 05ce 02       		.uleb128 0x2
 2435 05cf 91       		.byte	0x91
 2436 05d0 77       		.sleb128 -9
 2437 05d1 00       		.byte	0
 2438 05d2 18       		.uleb128 0x18
 2439 05d3 9B020000 		.4byte	.LASF71
 2440 05d7 01       		.byte	0x1
 2441 05d8 3F09     		.2byte	0x93f
 2442 05da 00000000 		.4byte	.LFB17
 2443 05de 40000000 		.4byte	.LFE17-.LFB17
 2444 05e2 01       		.uleb128 0x1
 2445 05e3 9C       		.byte	0x9c
 2446 05e4 F8050000 		.4byte	0x5f8
 2447 05e8 12       		.uleb128 0x12
 2448 05e9 83010000 		.4byte	.LASF72
 2449 05ed 01       		.byte	0x1
 2450 05ee 3F09     		.2byte	0x93f
 2451 05f0 6B000000 		.4byte	0x6b
 2452 05f4 02       		.uleb128 0x2
 2453 05f5 91       		.byte	0x91
 2454 05f6 77       		.sleb128 -9
 2455 05f7 00       		.byte	0
 2456 05f8 15       		.uleb128 0x15
 2457 05f9 13010000 		.4byte	.LASF73
 2458 05fd 01       		.byte	0x1
 2459 05fe 7809     		.2byte	0x978
 2460 0600 6B000000 		.4byte	0x6b
ARM GAS  C:\Users\LUKASC~1\AppData\Local\Temp\ccEgAQpP.s 			page 88


 2461 0604 00000000 		.4byte	.LFB18
 2462 0608 30000000 		.4byte	.LFE18-.LFB18
 2463 060c 01       		.uleb128 0x1
 2464 060d 9C       		.byte	0x9c
 2465 060e 22060000 		.4byte	0x622
 2466 0612 14       		.uleb128 0x14
 2467 0613 A0050000 		.4byte	.LASF74
 2468 0617 01       		.byte	0x1
 2469 0618 7A09     		.2byte	0x97a
 2470 061a 6B000000 		.4byte	0x6b
 2471 061e 02       		.uleb128 0x2
 2472 061f 91       		.byte	0x91
 2473 0620 77       		.sleb128 -9
 2474 0621 00       		.byte	0
 2475 0622 16       		.uleb128 0x16
 2476 0623 08020000 		.4byte	.LASF76
 2477 0627 01       		.byte	0x1
 2478 0628 9009     		.2byte	0x990
 2479 062a 6B000000 		.4byte	0x6b
 2480 062e 00000000 		.4byte	.LFB19
 2481 0632 20000000 		.4byte	.LFE19-.LFB19
 2482 0636 01       		.uleb128 0x1
 2483 0637 9C       		.byte	0x9c
 2484 0638 13       		.uleb128 0x13
 2485 0639 7E020000 		.4byte	.LASF78
 2486 063d 01       		.byte	0x1
 2487 063e 9E09     		.2byte	0x99e
 2488 0640 00000000 		.4byte	.LFB20
 2489 0644 0C000000 		.4byte	.LFE20-.LFB20
 2490 0648 01       		.uleb128 0x1
 2491 0649 9C       		.byte	0x9c
 2492 064a 13       		.uleb128 0x13
 2493 064b 95030000 		.4byte	.LASF79
 2494 064f 01       		.byte	0x1
 2495 0650 B409     		.2byte	0x9b4
 2496 0652 00000000 		.4byte	.LFB21
 2497 0656 0C000000 		.4byte	.LFE21-.LFB21
 2498 065a 01       		.uleb128 0x1
 2499 065b 9C       		.byte	0x9c
 2500 065c 1D       		.uleb128 0x1d
 2501 065d 07000000 		.4byte	.LASF80
 2502 0661 01       		.byte	0x1
 2503 0662 27       		.byte	0x27
 2504 0663 6B000000 		.4byte	0x6b
 2505 0667 05       		.uleb128 0x5
 2506 0668 03       		.byte	0x3
 2507 0669 00000000 		.4byte	USBFS_initVar
 2508 066d 1E       		.uleb128 0x1e
 2509 066e 4C040000 		.4byte	.LASF81
 2510 0672 03       		.byte	0x3
 2511 0673 D102     		.2byte	0x2d1
 2512 0675 B0000000 		.4byte	0xb0
 2513 0679 1E       		.uleb128 0x1e
 2514 067a AE030000 		.4byte	.LASF82
 2515 067e 03       		.byte	0x3
 2516 067f D202     		.2byte	0x2d2
 2517 0681 B0000000 		.4byte	0xb0
ARM GAS  C:\Users\LUKASC~1\AppData\Local\Temp\ccEgAQpP.s 			page 89


 2518 0685 1E       		.uleb128 0x1e
 2519 0686 B5010000 		.4byte	.LASF83
 2520 068a 03       		.byte	0x3
 2521 068b D302     		.2byte	0x2d3
 2522 068d B0000000 		.4byte	0xb0
 2523 0691 1E       		.uleb128 0x1e
 2524 0692 5D020000 		.4byte	.LASF84
 2525 0696 03       		.byte	0x3
 2526 0697 D402     		.2byte	0x2d4
 2527 0699 B0000000 		.4byte	0xb0
 2528 069d 1E       		.uleb128 0x1e
 2529 069e F9040000 		.4byte	.LASF85
 2530 06a2 03       		.byte	0x3
 2531 06a3 D502     		.2byte	0x2d5
 2532 06a5 B0000000 		.4byte	0xb0
 2533 06a9 1F       		.uleb128 0x1f
 2534 06aa FD000000 		.4byte	.LASF86
 2535 06ae 04       		.byte	0x4
 2536 06af 71       		.byte	0x71
 2537 06b0 B0000000 		.4byte	0xb0
 2538 06b4 0A       		.uleb128 0xa
 2539 06b5 6B000000 		.4byte	0x6b
 2540 06b9 C4060000 		.4byte	0x6c4
 2541 06bd 0B       		.uleb128 0xb
 2542 06be C6000000 		.4byte	0xc6
 2543 06c2 01       		.byte	0x1
 2544 06c3 00       		.byte	0
 2545 06c4 1F       		.uleb128 0x1f
 2546 06c5 20040000 		.4byte	.LASF87
 2547 06c9 04       		.byte	0x4
 2548 06ca 72       		.byte	0x72
 2549 06cb CF060000 		.4byte	0x6cf
 2550 06cf 05       		.uleb128 0x5
 2551 06d0 B4060000 		.4byte	0x6b4
 2552 06d4 1F       		.uleb128 0x1f
 2553 06d5 E9000000 		.4byte	.LASF88
 2554 06d9 04       		.byte	0x4
 2555 06da 74       		.byte	0x74
 2556 06db B0000000 		.4byte	0xb0
 2557 06df 0A       		.uleb128 0xa
 2558 06e0 42010000 		.4byte	0x142
 2559 06e4 EF060000 		.4byte	0x6ef
 2560 06e8 0B       		.uleb128 0xb
 2561 06e9 C6000000 		.4byte	0xc6
 2562 06ed 08       		.byte	0x8
 2563 06ee 00       		.byte	0
 2564 06ef 1F       		.uleb128 0x1f
 2565 06f0 81030000 		.4byte	.LASF89
 2566 06f4 04       		.byte	0x4
 2567 06f5 78       		.byte	0x78
 2568 06f6 FA060000 		.4byte	0x6fa
 2569 06fa 05       		.uleb128 0x5
 2570 06fb DF060000 		.4byte	0x6df
 2571 06ff 1F       		.uleb128 0x1f
 2572 0700 DA030000 		.4byte	.LASF90
 2573 0704 04       		.byte	0x4
 2574 0705 9A       		.byte	0x9a
ARM GAS  C:\Users\LUKASC~1\AppData\Local\Temp\ccEgAQpP.s 			page 90


 2575 0706 B0000000 		.4byte	0xb0
 2576 070a 00       		.byte	0
 2577              		.section	.debug_abbrev,"",%progbits
 2578              	.Ldebug_abbrev0:
 2579 0000 01       		.uleb128 0x1
 2580 0001 11       		.uleb128 0x11
 2581 0002 01       		.byte	0x1
 2582 0003 25       		.uleb128 0x25
 2583 0004 0E       		.uleb128 0xe
 2584 0005 13       		.uleb128 0x13
 2585 0006 0B       		.uleb128 0xb
 2586 0007 03       		.uleb128 0x3
 2587 0008 0E       		.uleb128 0xe
 2588 0009 1B       		.uleb128 0x1b
 2589 000a 0E       		.uleb128 0xe
 2590 000b 55       		.uleb128 0x55
 2591 000c 17       		.uleb128 0x17
 2592 000d 11       		.uleb128 0x11
 2593 000e 01       		.uleb128 0x1
 2594 000f 10       		.uleb128 0x10
 2595 0010 17       		.uleb128 0x17
 2596 0011 00       		.byte	0
 2597 0012 00       		.byte	0
 2598 0013 02       		.uleb128 0x2
 2599 0014 24       		.uleb128 0x24
 2600 0015 00       		.byte	0
 2601 0016 0B       		.uleb128 0xb
 2602 0017 0B       		.uleb128 0xb
 2603 0018 3E       		.uleb128 0x3e
 2604 0019 0B       		.uleb128 0xb
 2605 001a 03       		.uleb128 0x3
 2606 001b 0E       		.uleb128 0xe
 2607 001c 00       		.byte	0
 2608 001d 00       		.byte	0
 2609 001e 03       		.uleb128 0x3
 2610 001f 24       		.uleb128 0x24
 2611 0020 00       		.byte	0
 2612 0021 0B       		.uleb128 0xb
 2613 0022 0B       		.uleb128 0xb
 2614 0023 3E       		.uleb128 0x3e
 2615 0024 0B       		.uleb128 0xb
 2616 0025 03       		.uleb128 0x3
 2617 0026 08       		.uleb128 0x8
 2618 0027 00       		.byte	0
 2619 0028 00       		.byte	0
 2620 0029 04       		.uleb128 0x4
 2621 002a 16       		.uleb128 0x16
 2622 002b 00       		.byte	0
 2623 002c 03       		.uleb128 0x3
 2624 002d 0E       		.uleb128 0xe
 2625 002e 3A       		.uleb128 0x3a
 2626 002f 0B       		.uleb128 0xb
 2627 0030 3B       		.uleb128 0x3b
 2628 0031 05       		.uleb128 0x5
 2629 0032 49       		.uleb128 0x49
 2630 0033 13       		.uleb128 0x13
 2631 0034 00       		.byte	0
ARM GAS  C:\Users\LUKASC~1\AppData\Local\Temp\ccEgAQpP.s 			page 91


 2632 0035 00       		.byte	0
 2633 0036 05       		.uleb128 0x5
 2634 0037 35       		.uleb128 0x35
 2635 0038 00       		.byte	0
 2636 0039 49       		.uleb128 0x49
 2637 003a 13       		.uleb128 0x13
 2638 003b 00       		.byte	0
 2639 003c 00       		.byte	0
 2640 003d 06       		.uleb128 0x6
 2641 003e 13       		.uleb128 0x13
 2642 003f 01       		.byte	0x1
 2643 0040 0B       		.uleb128 0xb
 2644 0041 0B       		.uleb128 0xb
 2645 0042 3A       		.uleb128 0x3a
 2646 0043 0B       		.uleb128 0xb
 2647 0044 3B       		.uleb128 0x3b
 2648 0045 0B       		.uleb128 0xb
 2649 0046 01       		.uleb128 0x1
 2650 0047 13       		.uleb128 0x13
 2651 0048 00       		.byte	0
 2652 0049 00       		.byte	0
 2653 004a 07       		.uleb128 0x7
 2654 004b 0D       		.uleb128 0xd
 2655 004c 00       		.byte	0
 2656 004d 03       		.uleb128 0x3
 2657 004e 0E       		.uleb128 0xe
 2658 004f 3A       		.uleb128 0x3a
 2659 0050 0B       		.uleb128 0xb
 2660 0051 3B       		.uleb128 0x3b
 2661 0052 0B       		.uleb128 0xb
 2662 0053 49       		.uleb128 0x49
 2663 0054 13       		.uleb128 0x13
 2664 0055 38       		.uleb128 0x38
 2665 0056 0B       		.uleb128 0xb
 2666 0057 00       		.byte	0
 2667 0058 00       		.byte	0
 2668 0059 08       		.uleb128 0x8
 2669 005a 16       		.uleb128 0x16
 2670 005b 00       		.byte	0
 2671 005c 03       		.uleb128 0x3
 2672 005d 0E       		.uleb128 0xe
 2673 005e 3A       		.uleb128 0x3a
 2674 005f 0B       		.uleb128 0xb
 2675 0060 3B       		.uleb128 0x3b
 2676 0061 0B       		.uleb128 0xb
 2677 0062 49       		.uleb128 0x49
 2678 0063 13       		.uleb128 0x13
 2679 0064 00       		.byte	0
 2680 0065 00       		.byte	0
 2681 0066 09       		.uleb128 0x9
 2682 0067 0D       		.uleb128 0xd
 2683 0068 00       		.byte	0
 2684 0069 03       		.uleb128 0x3
 2685 006a 08       		.uleb128 0x8
 2686 006b 3A       		.uleb128 0x3a
 2687 006c 0B       		.uleb128 0xb
 2688 006d 3B       		.uleb128 0x3b
ARM GAS  C:\Users\LUKASC~1\AppData\Local\Temp\ccEgAQpP.s 			page 92


 2689 006e 0B       		.uleb128 0xb
 2690 006f 49       		.uleb128 0x49
 2691 0070 13       		.uleb128 0x13
 2692 0071 38       		.uleb128 0x38
 2693 0072 0B       		.uleb128 0xb
 2694 0073 00       		.byte	0
 2695 0074 00       		.byte	0
 2696 0075 0A       		.uleb128 0xa
 2697 0076 01       		.uleb128 0x1
 2698 0077 01       		.byte	0x1
 2699 0078 49       		.uleb128 0x49
 2700 0079 13       		.uleb128 0x13
 2701 007a 01       		.uleb128 0x1
 2702 007b 13       		.uleb128 0x13
 2703 007c 00       		.byte	0
 2704 007d 00       		.byte	0
 2705 007e 0B       		.uleb128 0xb
 2706 007f 21       		.uleb128 0x21
 2707 0080 00       		.byte	0
 2708 0081 49       		.uleb128 0x49
 2709 0082 13       		.uleb128 0x13
 2710 0083 2F       		.uleb128 0x2f
 2711 0084 0B       		.uleb128 0xb
 2712 0085 00       		.byte	0
 2713 0086 00       		.byte	0
 2714 0087 0C       		.uleb128 0xc
 2715 0088 13       		.uleb128 0x13
 2716 0089 01       		.byte	0x1
 2717 008a 0B       		.uleb128 0xb
 2718 008b 0B       		.uleb128 0xb
 2719 008c 3A       		.uleb128 0x3a
 2720 008d 0B       		.uleb128 0xb
 2721 008e 3B       		.uleb128 0x3b
 2722 008f 05       		.uleb128 0x5
 2723 0090 01       		.uleb128 0x1
 2724 0091 13       		.uleb128 0x13
 2725 0092 00       		.byte	0
 2726 0093 00       		.byte	0
 2727 0094 0D       		.uleb128 0xd
 2728 0095 0D       		.uleb128 0xd
 2729 0096 00       		.byte	0
 2730 0097 03       		.uleb128 0x3
 2731 0098 0E       		.uleb128 0xe
 2732 0099 3A       		.uleb128 0x3a
 2733 009a 0B       		.uleb128 0xb
 2734 009b 3B       		.uleb128 0x3b
 2735 009c 05       		.uleb128 0x5
 2736 009d 49       		.uleb128 0x49
 2737 009e 13       		.uleb128 0x13
 2738 009f 38       		.uleb128 0x38
 2739 00a0 0B       		.uleb128 0xb
 2740 00a1 00       		.byte	0
 2741 00a2 00       		.byte	0
 2742 00a3 0E       		.uleb128 0xe
 2743 00a4 2E       		.uleb128 0x2e
 2744 00a5 01       		.byte	0x1
 2745 00a6 3F       		.uleb128 0x3f
ARM GAS  C:\Users\LUKASC~1\AppData\Local\Temp\ccEgAQpP.s 			page 93


 2746 00a7 19       		.uleb128 0x19
 2747 00a8 03       		.uleb128 0x3
 2748 00a9 0E       		.uleb128 0xe
 2749 00aa 3A       		.uleb128 0x3a
 2750 00ab 0B       		.uleb128 0xb
 2751 00ac 3B       		.uleb128 0x3b
 2752 00ad 0B       		.uleb128 0xb
 2753 00ae 27       		.uleb128 0x27
 2754 00af 19       		.uleb128 0x19
 2755 00b0 11       		.uleb128 0x11
 2756 00b1 01       		.uleb128 0x1
 2757 00b2 12       		.uleb128 0x12
 2758 00b3 06       		.uleb128 0x6
 2759 00b4 40       		.uleb128 0x40
 2760 00b5 18       		.uleb128 0x18
 2761 00b6 9642     		.uleb128 0x2116
 2762 00b8 19       		.uleb128 0x19
 2763 00b9 01       		.uleb128 0x1
 2764 00ba 13       		.uleb128 0x13
 2765 00bb 00       		.byte	0
 2766 00bc 00       		.byte	0
 2767 00bd 0F       		.uleb128 0xf
 2768 00be 05       		.uleb128 0x5
 2769 00bf 00       		.byte	0
 2770 00c0 03       		.uleb128 0x3
 2771 00c1 0E       		.uleb128 0xe
 2772 00c2 3A       		.uleb128 0x3a
 2773 00c3 0B       		.uleb128 0xb
 2774 00c4 3B       		.uleb128 0x3b
 2775 00c5 0B       		.uleb128 0xb
 2776 00c6 49       		.uleb128 0x49
 2777 00c7 13       		.uleb128 0x13
 2778 00c8 02       		.uleb128 0x2
 2779 00c9 18       		.uleb128 0x18
 2780 00ca 00       		.byte	0
 2781 00cb 00       		.byte	0
 2782 00cc 10       		.uleb128 0x10
 2783 00cd 34       		.uleb128 0x34
 2784 00ce 00       		.byte	0
 2785 00cf 03       		.uleb128 0x3
 2786 00d0 0E       		.uleb128 0xe
 2787 00d1 3A       		.uleb128 0x3a
 2788 00d2 0B       		.uleb128 0xb
 2789 00d3 3B       		.uleb128 0x3b
 2790 00d4 0B       		.uleb128 0xb
 2791 00d5 49       		.uleb128 0x49
 2792 00d6 13       		.uleb128 0x13
 2793 00d7 02       		.uleb128 0x2
 2794 00d8 18       		.uleb128 0x18
 2795 00d9 00       		.byte	0
 2796 00da 00       		.byte	0
 2797 00db 11       		.uleb128 0x11
 2798 00dc 2E       		.uleb128 0x2e
 2799 00dd 01       		.byte	0x1
 2800 00de 3F       		.uleb128 0x3f
 2801 00df 19       		.uleb128 0x19
 2802 00e0 03       		.uleb128 0x3
ARM GAS  C:\Users\LUKASC~1\AppData\Local\Temp\ccEgAQpP.s 			page 94


 2803 00e1 0E       		.uleb128 0xe
 2804 00e2 3A       		.uleb128 0x3a
 2805 00e3 0B       		.uleb128 0xb
 2806 00e4 3B       		.uleb128 0x3b
 2807 00e5 05       		.uleb128 0x5
 2808 00e6 27       		.uleb128 0x27
 2809 00e7 19       		.uleb128 0x19
 2810 00e8 11       		.uleb128 0x11
 2811 00e9 01       		.uleb128 0x1
 2812 00ea 12       		.uleb128 0x12
 2813 00eb 06       		.uleb128 0x6
 2814 00ec 40       		.uleb128 0x40
 2815 00ed 18       		.uleb128 0x18
 2816 00ee 9642     		.uleb128 0x2116
 2817 00f0 19       		.uleb128 0x19
 2818 00f1 01       		.uleb128 0x1
 2819 00f2 13       		.uleb128 0x13
 2820 00f3 00       		.byte	0
 2821 00f4 00       		.byte	0
 2822 00f5 12       		.uleb128 0x12
 2823 00f6 05       		.uleb128 0x5
 2824 00f7 00       		.byte	0
 2825 00f8 03       		.uleb128 0x3
 2826 00f9 0E       		.uleb128 0xe
 2827 00fa 3A       		.uleb128 0x3a
 2828 00fb 0B       		.uleb128 0xb
 2829 00fc 3B       		.uleb128 0x3b
 2830 00fd 05       		.uleb128 0x5
 2831 00fe 49       		.uleb128 0x49
 2832 00ff 13       		.uleb128 0x13
 2833 0100 02       		.uleb128 0x2
 2834 0101 18       		.uleb128 0x18
 2835 0102 00       		.byte	0
 2836 0103 00       		.byte	0
 2837 0104 13       		.uleb128 0x13
 2838 0105 2E       		.uleb128 0x2e
 2839 0106 00       		.byte	0
 2840 0107 3F       		.uleb128 0x3f
 2841 0108 19       		.uleb128 0x19
 2842 0109 03       		.uleb128 0x3
 2843 010a 0E       		.uleb128 0xe
 2844 010b 3A       		.uleb128 0x3a
 2845 010c 0B       		.uleb128 0xb
 2846 010d 3B       		.uleb128 0x3b
 2847 010e 05       		.uleb128 0x5
 2848 010f 27       		.uleb128 0x27
 2849 0110 19       		.uleb128 0x19
 2850 0111 11       		.uleb128 0x11
 2851 0112 01       		.uleb128 0x1
 2852 0113 12       		.uleb128 0x12
 2853 0114 06       		.uleb128 0x6
 2854 0115 40       		.uleb128 0x40
 2855 0116 18       		.uleb128 0x18
 2856 0117 9742     		.uleb128 0x2117
 2857 0119 19       		.uleb128 0x19
 2858 011a 00       		.byte	0
 2859 011b 00       		.byte	0
ARM GAS  C:\Users\LUKASC~1\AppData\Local\Temp\ccEgAQpP.s 			page 95


 2860 011c 14       		.uleb128 0x14
 2861 011d 34       		.uleb128 0x34
 2862 011e 00       		.byte	0
 2863 011f 03       		.uleb128 0x3
 2864 0120 0E       		.uleb128 0xe
 2865 0121 3A       		.uleb128 0x3a
 2866 0122 0B       		.uleb128 0xb
 2867 0123 3B       		.uleb128 0x3b
 2868 0124 05       		.uleb128 0x5
 2869 0125 49       		.uleb128 0x49
 2870 0126 13       		.uleb128 0x13
 2871 0127 02       		.uleb128 0x2
 2872 0128 18       		.uleb128 0x18
 2873 0129 00       		.byte	0
 2874 012a 00       		.byte	0
 2875 012b 15       		.uleb128 0x15
 2876 012c 2E       		.uleb128 0x2e
 2877 012d 01       		.byte	0x1
 2878 012e 3F       		.uleb128 0x3f
 2879 012f 19       		.uleb128 0x19
 2880 0130 03       		.uleb128 0x3
 2881 0131 0E       		.uleb128 0xe
 2882 0132 3A       		.uleb128 0x3a
 2883 0133 0B       		.uleb128 0xb
 2884 0134 3B       		.uleb128 0x3b
 2885 0135 05       		.uleb128 0x5
 2886 0136 27       		.uleb128 0x27
 2887 0137 19       		.uleb128 0x19
 2888 0138 49       		.uleb128 0x49
 2889 0139 13       		.uleb128 0x13
 2890 013a 11       		.uleb128 0x11
 2891 013b 01       		.uleb128 0x1
 2892 013c 12       		.uleb128 0x12
 2893 013d 06       		.uleb128 0x6
 2894 013e 40       		.uleb128 0x40
 2895 013f 18       		.uleb128 0x18
 2896 0140 9742     		.uleb128 0x2117
 2897 0142 19       		.uleb128 0x19
 2898 0143 01       		.uleb128 0x1
 2899 0144 13       		.uleb128 0x13
 2900 0145 00       		.byte	0
 2901 0146 00       		.byte	0
 2902 0147 16       		.uleb128 0x16
 2903 0148 2E       		.uleb128 0x2e
 2904 0149 00       		.byte	0
 2905 014a 3F       		.uleb128 0x3f
 2906 014b 19       		.uleb128 0x19
 2907 014c 03       		.uleb128 0x3
 2908 014d 0E       		.uleb128 0xe
 2909 014e 3A       		.uleb128 0x3a
 2910 014f 0B       		.uleb128 0xb
 2911 0150 3B       		.uleb128 0x3b
 2912 0151 05       		.uleb128 0x5
 2913 0152 27       		.uleb128 0x27
 2914 0153 19       		.uleb128 0x19
 2915 0154 49       		.uleb128 0x49
 2916 0155 13       		.uleb128 0x13
ARM GAS  C:\Users\LUKASC~1\AppData\Local\Temp\ccEgAQpP.s 			page 96


 2917 0156 11       		.uleb128 0x11
 2918 0157 01       		.uleb128 0x1
 2919 0158 12       		.uleb128 0x12
 2920 0159 06       		.uleb128 0x6
 2921 015a 40       		.uleb128 0x40
 2922 015b 18       		.uleb128 0x18
 2923 015c 9742     		.uleb128 0x2117
 2924 015e 19       		.uleb128 0x19
 2925 015f 00       		.byte	0
 2926 0160 00       		.byte	0
 2927 0161 17       		.uleb128 0x17
 2928 0162 34       		.uleb128 0x34
 2929 0163 00       		.byte	0
 2930 0164 03       		.uleb128 0x3
 2931 0165 08       		.uleb128 0x8
 2932 0166 3A       		.uleb128 0x3a
 2933 0167 0B       		.uleb128 0xb
 2934 0168 3B       		.uleb128 0x3b
 2935 0169 05       		.uleb128 0x5
 2936 016a 49       		.uleb128 0x49
 2937 016b 13       		.uleb128 0x13
 2938 016c 02       		.uleb128 0x2
 2939 016d 18       		.uleb128 0x18
 2940 016e 00       		.byte	0
 2941 016f 00       		.byte	0
 2942 0170 18       		.uleb128 0x18
 2943 0171 2E       		.uleb128 0x2e
 2944 0172 01       		.byte	0x1
 2945 0173 3F       		.uleb128 0x3f
 2946 0174 19       		.uleb128 0x19
 2947 0175 03       		.uleb128 0x3
 2948 0176 0E       		.uleb128 0xe
 2949 0177 3A       		.uleb128 0x3a
 2950 0178 0B       		.uleb128 0xb
 2951 0179 3B       		.uleb128 0x3b
 2952 017a 05       		.uleb128 0x5
 2953 017b 27       		.uleb128 0x27
 2954 017c 19       		.uleb128 0x19
 2955 017d 11       		.uleb128 0x11
 2956 017e 01       		.uleb128 0x1
 2957 017f 12       		.uleb128 0x12
 2958 0180 06       		.uleb128 0x6
 2959 0181 40       		.uleb128 0x40
 2960 0182 18       		.uleb128 0x18
 2961 0183 9742     		.uleb128 0x2117
 2962 0185 19       		.uleb128 0x19
 2963 0186 01       		.uleb128 0x1
 2964 0187 13       		.uleb128 0x13
 2965 0188 00       		.byte	0
 2966 0189 00       		.byte	0
 2967 018a 19       		.uleb128 0x19
 2968 018b 0B       		.uleb128 0xb
 2969 018c 01       		.byte	0x1
 2970 018d 11       		.uleb128 0x11
 2971 018e 01       		.uleb128 0x1
 2972 018f 12       		.uleb128 0x12
 2973 0190 06       		.uleb128 0x6
ARM GAS  C:\Users\LUKASC~1\AppData\Local\Temp\ccEgAQpP.s 			page 97


 2974 0191 00       		.byte	0
 2975 0192 00       		.byte	0
 2976 0193 1A       		.uleb128 0x1a
 2977 0194 0F       		.uleb128 0xf
 2978 0195 00       		.byte	0
 2979 0196 0B       		.uleb128 0xb
 2980 0197 0B       		.uleb128 0xb
 2981 0198 49       		.uleb128 0x49
 2982 0199 13       		.uleb128 0x13
 2983 019a 00       		.byte	0
 2984 019b 00       		.byte	0
 2985 019c 1B       		.uleb128 0x1b
 2986 019d 26       		.uleb128 0x26
 2987 019e 00       		.byte	0
 2988 019f 49       		.uleb128 0x49
 2989 01a0 13       		.uleb128 0x13
 2990 01a1 00       		.byte	0
 2991 01a2 00       		.byte	0
 2992 01a3 1C       		.uleb128 0x1c
 2993 01a4 2E       		.uleb128 0x2e
 2994 01a5 01       		.byte	0x1
 2995 01a6 3F       		.uleb128 0x3f
 2996 01a7 19       		.uleb128 0x19
 2997 01a8 03       		.uleb128 0x3
 2998 01a9 0E       		.uleb128 0xe
 2999 01aa 3A       		.uleb128 0x3a
 3000 01ab 0B       		.uleb128 0xb
 3001 01ac 3B       		.uleb128 0x3b
 3002 01ad 05       		.uleb128 0x5
 3003 01ae 27       		.uleb128 0x27
 3004 01af 19       		.uleb128 0x19
 3005 01b0 49       		.uleb128 0x49
 3006 01b1 13       		.uleb128 0x13
 3007 01b2 11       		.uleb128 0x11
 3008 01b3 01       		.uleb128 0x1
 3009 01b4 12       		.uleb128 0x12
 3010 01b5 06       		.uleb128 0x6
 3011 01b6 40       		.uleb128 0x40
 3012 01b7 18       		.uleb128 0x18
 3013 01b8 9642     		.uleb128 0x2116
 3014 01ba 19       		.uleb128 0x19
 3015 01bb 01       		.uleb128 0x1
 3016 01bc 13       		.uleb128 0x13
 3017 01bd 00       		.byte	0
 3018 01be 00       		.byte	0
 3019 01bf 1D       		.uleb128 0x1d
 3020 01c0 34       		.uleb128 0x34
 3021 01c1 00       		.byte	0
 3022 01c2 03       		.uleb128 0x3
 3023 01c3 0E       		.uleb128 0xe
 3024 01c4 3A       		.uleb128 0x3a
 3025 01c5 0B       		.uleb128 0xb
 3026 01c6 3B       		.uleb128 0x3b
 3027 01c7 0B       		.uleb128 0xb
 3028 01c8 49       		.uleb128 0x49
 3029 01c9 13       		.uleb128 0x13
 3030 01ca 3F       		.uleb128 0x3f
ARM GAS  C:\Users\LUKASC~1\AppData\Local\Temp\ccEgAQpP.s 			page 98


 3031 01cb 19       		.uleb128 0x19
 3032 01cc 02       		.uleb128 0x2
 3033 01cd 18       		.uleb128 0x18
 3034 01ce 00       		.byte	0
 3035 01cf 00       		.byte	0
 3036 01d0 1E       		.uleb128 0x1e
 3037 01d1 34       		.uleb128 0x34
 3038 01d2 00       		.byte	0
 3039 01d3 03       		.uleb128 0x3
 3040 01d4 0E       		.uleb128 0xe
 3041 01d5 3A       		.uleb128 0x3a
 3042 01d6 0B       		.uleb128 0xb
 3043 01d7 3B       		.uleb128 0x3b
 3044 01d8 05       		.uleb128 0x5
 3045 01d9 49       		.uleb128 0x49
 3046 01da 13       		.uleb128 0x13
 3047 01db 3F       		.uleb128 0x3f
 3048 01dc 19       		.uleb128 0x19
 3049 01dd 3C       		.uleb128 0x3c
 3050 01de 19       		.uleb128 0x19
 3051 01df 00       		.byte	0
 3052 01e0 00       		.byte	0
 3053 01e1 1F       		.uleb128 0x1f
 3054 01e2 34       		.uleb128 0x34
 3055 01e3 00       		.byte	0
 3056 01e4 03       		.uleb128 0x3
 3057 01e5 0E       		.uleb128 0xe
 3058 01e6 3A       		.uleb128 0x3a
 3059 01e7 0B       		.uleb128 0xb
 3060 01e8 3B       		.uleb128 0x3b
 3061 01e9 0B       		.uleb128 0xb
 3062 01ea 49       		.uleb128 0x49
 3063 01eb 13       		.uleb128 0x13
 3064 01ec 3F       		.uleb128 0x3f
 3065 01ed 19       		.uleb128 0x19
 3066 01ee 3C       		.uleb128 0x3c
 3067 01ef 19       		.uleb128 0x19
 3068 01f0 00       		.byte	0
 3069 01f1 00       		.byte	0
 3070 01f2 00       		.byte	0
 3071              		.section	.debug_aranges,"",%progbits
 3072 0000 C4000000 		.4byte	0xc4
 3073 0004 0200     		.2byte	0x2
 3074 0006 00000000 		.4byte	.Ldebug_info0
 3075 000a 04       		.byte	0x4
 3076 000b 00       		.byte	0
 3077 000c 0000     		.2byte	0
 3078 000e 0000     		.2byte	0
 3079 0010 00000000 		.4byte	.LFB0
 3080 0014 38000000 		.4byte	.LFE0-.LFB0
 3081 0018 00000000 		.4byte	.LFB1
 3082 001c 78010000 		.4byte	.LFE1-.LFB1
 3083 0020 00000000 		.4byte	.LFB2
 3084 0024 F0000000 		.4byte	.LFE2-.LFB2
 3085 0028 00000000 		.4byte	.LFB3
 3086 002c 68000000 		.4byte	.LFE3-.LFB3
 3087 0030 00000000 		.4byte	.LFB4
ARM GAS  C:\Users\LUKASC~1\AppData\Local\Temp\ccEgAQpP.s 			page 99


 3088 0034 C8000000 		.4byte	.LFE4-.LFB4
 3089 0038 00000000 		.4byte	.LFB5
 3090 003c 38000000 		.4byte	.LFE5-.LFB5
 3091 0040 00000000 		.4byte	.LFB6
 3092 0044 18000000 		.4byte	.LFE6-.LFB6
 3093 0048 00000000 		.4byte	.LFB7
 3094 004c 34000000 		.4byte	.LFE7-.LFB7
 3095 0050 00000000 		.4byte	.LFB8
 3096 0054 24000000 		.4byte	.LFE8-.LFB8
 3097 0058 00000000 		.4byte	.LFB9
 3098 005c 2C000000 		.4byte	.LFE9-.LFB9
 3099 0060 00000000 		.4byte	.LFB10
 3100 0064 60000000 		.4byte	.LFE10-.LFB10
 3101 0068 00000000 		.4byte	.LFB11
 3102 006c F8000000 		.4byte	.LFE11-.LFB11
 3103 0070 00000000 		.4byte	.LFB12
 3104 0074 8C000000 		.4byte	.LFE12-.LFB12
 3105 0078 00000000 		.4byte	.LFB13
 3106 007c 54000000 		.4byte	.LFE13-.LFB13
 3107 0080 00000000 		.4byte	.LFB14
 3108 0084 30000000 		.4byte	.LFE14-.LFB14
 3109 0088 00000000 		.4byte	.LFB15
 3110 008c 20000000 		.4byte	.LFE15-.LFB15
 3111 0090 00000000 		.4byte	.LFB16
 3112 0094 40000000 		.4byte	.LFE16-.LFB16
 3113 0098 00000000 		.4byte	.LFB17
 3114 009c 40000000 		.4byte	.LFE17-.LFB17
 3115 00a0 00000000 		.4byte	.LFB18
 3116 00a4 30000000 		.4byte	.LFE18-.LFB18
 3117 00a8 00000000 		.4byte	.LFB19
 3118 00ac 20000000 		.4byte	.LFE19-.LFB19
 3119 00b0 00000000 		.4byte	.LFB20
 3120 00b4 0C000000 		.4byte	.LFE20-.LFB20
 3121 00b8 00000000 		.4byte	.LFB21
 3122 00bc 0C000000 		.4byte	.LFE21-.LFB21
 3123 00c0 00000000 		.4byte	0
 3124 00c4 00000000 		.4byte	0
 3125              		.section	.debug_ranges,"",%progbits
 3126              	.Ldebug_ranges0:
 3127 0000 00000000 		.4byte	.LFB0
 3128 0004 38000000 		.4byte	.LFE0
 3129 0008 00000000 		.4byte	.LFB1
 3130 000c 78010000 		.4byte	.LFE1
 3131 0010 00000000 		.4byte	.LFB2
 3132 0014 F0000000 		.4byte	.LFE2
 3133 0018 00000000 		.4byte	.LFB3
 3134 001c 68000000 		.4byte	.LFE3
 3135 0020 00000000 		.4byte	.LFB4
 3136 0024 C8000000 		.4byte	.LFE4
 3137 0028 00000000 		.4byte	.LFB5
 3138 002c 38000000 		.4byte	.LFE5
 3139 0030 00000000 		.4byte	.LFB6
 3140 0034 18000000 		.4byte	.LFE6
 3141 0038 00000000 		.4byte	.LFB7
 3142 003c 34000000 		.4byte	.LFE7
 3143 0040 00000000 		.4byte	.LFB8
 3144 0044 24000000 		.4byte	.LFE8
ARM GAS  C:\Users\LUKASC~1\AppData\Local\Temp\ccEgAQpP.s 			page 100


 3145 0048 00000000 		.4byte	.LFB9
 3146 004c 2C000000 		.4byte	.LFE9
 3147 0050 00000000 		.4byte	.LFB10
 3148 0054 60000000 		.4byte	.LFE10
 3149 0058 00000000 		.4byte	.LFB11
 3150 005c F8000000 		.4byte	.LFE11
 3151 0060 00000000 		.4byte	.LFB12
 3152 0064 8C000000 		.4byte	.LFE12
 3153 0068 00000000 		.4byte	.LFB13
 3154 006c 54000000 		.4byte	.LFE13
 3155 0070 00000000 		.4byte	.LFB14
 3156 0074 30000000 		.4byte	.LFE14
 3157 0078 00000000 		.4byte	.LFB15
 3158 007c 20000000 		.4byte	.LFE15
 3159 0080 00000000 		.4byte	.LFB16
 3160 0084 40000000 		.4byte	.LFE16
 3161 0088 00000000 		.4byte	.LFB17
 3162 008c 40000000 		.4byte	.LFE17
 3163 0090 00000000 		.4byte	.LFB18
 3164 0094 30000000 		.4byte	.LFE18
 3165 0098 00000000 		.4byte	.LFB19
 3166 009c 20000000 		.4byte	.LFE19
 3167 00a0 00000000 		.4byte	.LFB20
 3168 00a4 0C000000 		.4byte	.LFE20
 3169 00a8 00000000 		.4byte	.LFB21
 3170 00ac 0C000000 		.4byte	.LFE21
 3171 00b0 00000000 		.4byte	0
 3172 00b4 00000000 		.4byte	0
 3173              		.section	.debug_line,"",%progbits
 3174              	.Ldebug_line0:
 3175 0000 FB020000 		.section	.debug_str,"MS",%progbits,1
 3175      02005E00 
 3175      00000201 
 3175      FB0E0D00 
 3175      01010101 
 3176              	.LASF10:
 3177 0000 75696E74 		.ascii	"uint16\000"
 3177      313600
 3178              	.LASF80:
 3179 0007 55534246 		.ascii	"USBFS_initVar\000"
 3179      535F696E 
 3179      69745661 
 3179      7200
 3180              	.LASF68:
 3181 0015 55534246 		.ascii	"USBFS_Force\000"
 3181      535F466F 
 3181      72636500 
 3182              	.LASF7:
 3183 0021 6C6F6E67 		.ascii	"long long unsigned int\000"
 3183      206C6F6E 
 3183      6720756E 
 3183      7369676E 
 3183      65642069 
 3184              	.LASF70:
 3185 0038 55534246 		.ascii	"USBFS_GetEPAckState\000"
 3185      535F4765 
 3185      74455041 
ARM GAS  C:\Users\LUKASC~1\AppData\Local\Temp\ccEgAQpP.s 			page 101


 3185      636B5374 
 3185      61746500 
 3186              	.LASF22:
 3187 004c 61646472 		.ascii	"addr\000"
 3187      00
 3188              	.LASF32:
 3189 0051 65704366 		.ascii	"epCfg\000"
 3189      6700
 3190              	.LASF43:
 3191 0057 55534246 		.ascii	"USBFS_sie_eps_struct\000"
 3191      535F7369 
 3191      655F6570 
 3191      735F7374 
 3191      72756374 
 3192              	.LASF45:
 3193 006c 55534246 		.ascii	"USBFS_arb_eps_struct\000"
 3193      535F6172 
 3193      625F6570 
 3193      735F7374 
 3193      72756374 
 3194              	.LASF59:
 3195 0081 65704E75 		.ascii	"epNumber\000"
 3195      6D626572 
 3195      00
 3196              	.LASF46:
 3197 008a 64657669 		.ascii	"device\000"
 3197      636500
 3198              	.LASF6:
 3199 0091 6C6F6E67 		.ascii	"long long int\000"
 3199      206C6F6E 
 3199      6720696E 
 3199      7400
 3200              	.LASF0:
 3201 009f 7369676E 		.ascii	"signed char\000"
 3201      65642063 
 3201      68617200 
 3202              	.LASF92:
 3203 00ab 2E5C4765 		.ascii	".\\Generated_Source\\PSoC5\\USBFS.c\000"
 3203      6E657261 
 3203      7465645F 
 3203      536F7572 
 3203      63655C50 
 3204              	.LASF55:
 3205 00cc 55534246 		.ascii	"USBFS_IsConfigurationChanged\000"
 3205      535F4973 
 3205      436F6E66 
 3205      69677572 
 3205      6174696F 
 3206              	.LASF88:
 3207 00e9 55534246 		.ascii	"USBFS_deviceAddress\000"
 3207      535F6465 
 3207      76696365 
 3207      41646472 
 3207      65737300 
 3208              	.LASF86:
 3209 00fd 55534246 		.ascii	"USBFS_interfaceNumber\000"
 3209      535F696E 
ARM GAS  C:\Users\LUKASC~1\AppData\Local\Temp\ccEgAQpP.s 			page 102


 3209      74657266 
 3209      6163654E 
 3209      756D6265 
 3210              	.LASF73:
 3211 0113 55534246 		.ascii	"USBFS_RWUEnabled\000"
 3211      535F5257 
 3211      55456E61 
 3211      626C6564 
 3211      00
 3212              	.LASF41:
 3213 0124 55534246 		.ascii	"USBFS_arb_ep_struct\000"
 3213      535F6172 
 3213      625F6570 
 3213      5F737472 
 3213      75637400 
 3214              	.LASF61:
 3215 0138 636E7472 		.ascii	"cntr\000"
 3215      00
 3216              	.LASF51:
 3217 013d 55534246 		.ascii	"USBFS_Stop\000"
 3217      535F5374 
 3217      6F7000
 3218              	.LASF4:
 3219 0148 6C6F6E67 		.ascii	"long int\000"
 3219      20696E74 
 3219      00
 3220              	.LASF75:
 3221 0151 55534246 		.ascii	"USBFS_GetConfiguration\000"
 3221      535F4765 
 3221      74436F6E 
 3221      66696775 
 3221      72617469 
 3222              	.LASF9:
 3223 0168 75696E74 		.ascii	"uint8\000"
 3223      3800
 3224              	.LASF21:
 3225 016e 6570546F 		.ascii	"epToggle\000"
 3225      67676C65 
 3225      00
 3226              	.LASF36:
 3227 0177 72775761 		.ascii	"rwWa\000"
 3227      00
 3228              	.LASF13:
 3229 017c 646F7562 		.ascii	"double\000"
 3229      6C6500
 3230              	.LASF72:
 3231 0183 706F7765 		.ascii	"powerStatus\000"
 3231      72537461 
 3231      74757300 
 3232              	.LASF34:
 3233 018f 65705372 		.ascii	"epSr\000"
 3233      00
 3234              	.LASF11:
 3235 0194 75696E74 		.ascii	"uint32\000"
 3235      333200
 3236              	.LASF50:
 3237 019b 55534246 		.ascii	"USBFS_InitComponent\000"
ARM GAS  C:\Users\LUKASC~1\AppData\Local\Temp\ccEgAQpP.s 			page 103


 3237      535F496E 
 3237      6974436F 
 3237      6D706F6E 
 3237      656E7400 
 3238              	.LASF63:
 3239 01af 70446174 		.ascii	"pData\000"
 3239      6100
 3240              	.LASF83:
 3241 01b5 55534246 		.ascii	"USBFS_configuration\000"
 3241      535F636F 
 3241      6E666967 
 3241      75726174 
 3241      696F6E00 
 3242              	.LASF23:
 3243 01c9 65704D6F 		.ascii	"epMode\000"
 3243      646500
 3244              	.LASF35:
 3245 01d0 72657365 		.ascii	"reserved\000"
 3245      72766564 
 3245      00
 3246              	.LASF65:
 3247 01d9 55534246 		.ascii	"USBFS_ReadOutEP\000"
 3247      535F5265 
 3247      61644F75 
 3247      74455000 
 3248              	.LASF8:
 3249 01e9 756E7369 		.ascii	"unsigned int\000"
 3249      676E6564 
 3249      20696E74 
 3249      00
 3250              	.LASF5:
 3251 01f6 6C6F6E67 		.ascii	"long unsigned int\000"
 3251      20756E73 
 3251      69676E65 
 3251      6420696E 
 3251      7400
 3252              	.LASF76:
 3253 0208 55534246 		.ascii	"USBFS_GetDeviceAddress\000"
 3253      535F4765 
 3253      74446576 
 3253      69636541 
 3253      64647265 
 3254              	.LASF3:
 3255 021f 73686F72 		.ascii	"short unsigned int\000"
 3255      7420756E 
 3255      7369676E 
 3255      65642069 
 3255      6E7400
 3256              	.LASF31:
 3257 0232 55534246 		.ascii	"USBFS_sie_ep_struct\000"
 3257      535F7369 
 3257      655F6570 
 3257      5F737472 
 3257      75637400 
 3258              	.LASF44:
 3259 0246 61726245 		.ascii	"arbEp\000"
 3259      7000
ARM GAS  C:\Users\LUKASC~1\AppData\Local\Temp\ccEgAQpP.s 			page 104


 3260              	.LASF26:
 3261 024c 696E7465 		.ascii	"interface\000"
 3261      72666163 
 3261      6500
 3262              	.LASF53:
 3263 0256 63723152 		.ascii	"cr1Reg\000"
 3263      656700
 3264              	.LASF84:
 3265 025d 55534246 		.ascii	"USBFS_configurationChanged\000"
 3265      535F636F 
 3265      6E666967 
 3265      75726174 
 3265      696F6E43 
 3266              	.LASF16:
 3267 0278 72656733 		.ascii	"reg32\000"
 3267      3200
 3268              	.LASF78:
 3269 027e 55534246 		.ascii	"USBFS_EnableSofInt\000"
 3269      535F456E 
 3269      61626C65 
 3269      536F6649 
 3269      6E7400
 3270              	.LASF20:
 3271 0291 68774570 		.ascii	"hwEpState\000"
 3271      53746174 
 3271      6500
 3272              	.LASF71:
 3273 029b 55534246 		.ascii	"USBFS_SetPowerStatus\000"
 3273      535F5365 
 3273      74506F77 
 3273      65725374 
 3273      61747573 
 3274              	.LASF17:
 3275 02b0 73697A65 		.ascii	"sizetype\000"
 3275      74797065 
 3275      00
 3276              	.LASF42:
 3277 02b9 73696545 		.ascii	"sieEp\000"
 3277      7000
 3278              	.LASF18:
 3279 02bf 61747472 		.ascii	"attrib\000"
 3279      696200
 3280              	.LASF91:
 3281 02c6 474E5520 		.ascii	"GNU C 4.9.3 20150303 (release) [ARM/embedded-4_9-br"
 3281      4320342E 
 3281      392E3320 
 3281      32303135 
 3281      30333033 
 3282 02f9 616E6368 		.ascii	"anch revision 221220] -mcpu=cortex-m3 -mthumb -g -O"
 3282      20726576 
 3282      6973696F 
 3282      6E203232 
 3282      31323230 
 3283 032c 30202D66 		.ascii	"0 -ffunction-sections -ffat-lto-objects\000"
 3283      66756E63 
 3283      74696F6E 
 3283      2D736563 
ARM GAS  C:\Users\LUKASC~1\AppData\Local\Temp\ccEgAQpP.s 			page 105


 3283      74696F6E 
 3284              	.LASF39:
 3285 0354 72775261 		.ascii	"rwRaMsb\000"
 3285      4D736200 
 3286              	.LASF28:
 3287 035c 6570436E 		.ascii	"epCnt0\000"
 3287      743000
 3288              	.LASF29:
 3289 0363 6570436E 		.ascii	"epCnt1\000"
 3289      743100
 3290              	.LASF30:
 3291 036a 65704372 		.ascii	"epCr0\000"
 3291      3000
 3292              	.LASF12:
 3293 0370 666C6F61 		.ascii	"float\000"
 3293      7400
 3294              	.LASF19:
 3295 0376 61706945 		.ascii	"apiEpState\000"
 3295      70537461 
 3295      746500
 3296              	.LASF89:
 3297 0381 55534246 		.ascii	"USBFS_EP\000"
 3297      535F4550 
 3297      00
 3298              	.LASF49:
 3299 038a 55534246 		.ascii	"USBFS_Init\000"
 3299      535F496E 
 3299      697400
 3300              	.LASF79:
 3301 0395 55534246 		.ascii	"USBFS_DisableSofInt\000"
 3301      535F4469 
 3301      7361626C 
 3301      65536F66 
 3301      496E7400 
 3302              	.LASF15:
 3303 03a9 72656738 		.ascii	"reg8\000"
 3303      00
 3304              	.LASF82:
 3305 03ae 55534246 		.ascii	"USBFS_transferState\000"
 3305      535F7472 
 3305      616E7366 
 3305      65725374 
 3305      61746500 
 3306              	.LASF1:
 3307 03c2 756E7369 		.ascii	"unsigned char\000"
 3307      676E6564 
 3307      20636861 
 3307      7200
 3308              	.LASF2:
 3309 03d0 73686F72 		.ascii	"short int\000"
 3309      7420696E 
 3309      7400
 3310              	.LASF90:
 3311 03da 55534246 		.ascii	"USBFS_lastPacketSize\000"
 3311      535F6C61 
 3311      73745061 
 3311      636B6574 
ARM GAS  C:\Users\LUKASC~1\AppData\Local\Temp\ccEgAQpP.s 			page 106


 3311      53697A65 
 3312              	.LASF66:
 3313 03ef 55534246 		.ascii	"USBFS_EnableOutEP\000"
 3313      535F456E 
 3313      61626C65 
 3313      4F757445 
 3313      5000
 3314              	.LASF56:
 3315 0401 55534246 		.ascii	"USBFS_GetInterfaceSetting\000"
 3315      535F4765 
 3315      74496E74 
 3315      65726661 
 3315      63655365 
 3316              	.LASF38:
 3317 041b 72775261 		.ascii	"rwRa\000"
 3317      00
 3318              	.LASF87:
 3319 0420 55534246 		.ascii	"USBFS_interfaceSetting\000"
 3319      535F696E 
 3319      74657266 
 3319      61636553 
 3319      65747469 
 3320              	.LASF27:
 3321 0437 545F5553 		.ascii	"T_USBFS_EP_CTL_BLOCK\000"
 3321      4246535F 
 3321      45505F43 
 3321      544C5F42 
 3321      4C4F434B 
 3322              	.LASF81:
 3323 044c 55534246 		.ascii	"USBFS_device\000"
 3323      535F6465 
 3323      76696365 
 3323      00
 3324              	.LASF69:
 3325 0459 62537461 		.ascii	"bState\000"
 3325      746500
 3326              	.LASF93:
 3327 0460 433A5C55 		.ascii	"C:\\Users\\Lukas Creutzburg\\Documents\\GitHub\\fre"
 3327      73657273 
 3327      5C4C756B 
 3327      61732043 
 3327      72657574 
 3328 048e 65445350 		.ascii	"eDSPPSoC-I2C\\PSoC5_SPI_Master_DSP.cydsn\000"
 3328      50536F43 
 3328      2D493243 
 3328      5C50536F 
 3328      43355F53 
 3329              	.LASF64:
 3330 04b6 6C656E67 		.ascii	"length\000"
 3330      746800
 3331              	.LASF14:
 3332 04bd 63686172 		.ascii	"char\000"
 3332      00
 3333              	.LASF47:
 3334 04c2 6D6F6465 		.ascii	"mode\000"
 3334      00
 3335              	.LASF25:
ARM GAS  C:\Users\LUKASC~1\AppData\Local\Temp\ccEgAQpP.s 			page 107


 3336 04c7 62756666 		.ascii	"bufferSize\000"
 3336      65725369 
 3336      7A6500
 3337              	.LASF48:
 3338 04d2 55534246 		.ascii	"USBFS_Start\000"
 3338      535F5374 
 3338      61727400 
 3339              	.LASF24:
 3340 04de 62756666 		.ascii	"buffOffset\000"
 3340      4F666673 
 3340      657400
 3341              	.LASF57:
 3342 04e9 696E7465 		.ascii	"interfaceNumber\000"
 3342      72666163 
 3342      654E756D 
 3342      62657200 
 3343              	.LASF85:
 3344 04f9 55534246 		.ascii	"USBFS_deviceStatus\000"
 3344      535F6465 
 3344      76696365 
 3344      53746174 
 3344      757300
 3345              	.LASF58:
 3346 050c 55534246 		.ascii	"USBFS_GetEPState\000"
 3346      535F4765 
 3346      74455053 
 3346      74617465 
 3346      00
 3347              	.LASF77:
 3348 051d 55534246 		.ascii	"USBFS_ReInitComponent\000"
 3348      535F5265 
 3348      496E6974 
 3348      436F6D70 
 3348      6F6E656E 
 3349              	.LASF52:
 3350 0533 656E6162 		.ascii	"enableInterrupts\000"
 3350      6C65496E 
 3350      74657272 
 3350      75707473 
 3350      00
 3351              	.LASF54:
 3352 0544 55534246 		.ascii	"USBFS_CheckActivity\000"
 3352      535F4368 
 3352      65636B41 
 3352      63746976 
 3352      69747900 
 3353              	.LASF40:
 3354 0558 72774472 		.ascii	"rwDr\000"
 3354      00
 3355              	.LASF67:
 3356 055d 55534246 		.ascii	"USBFS_DisableOutEP\000"
 3356      535F4469 
 3356      7361626C 
 3356      654F7574 
 3356      455000
 3357              	.LASF62:
 3358 0570 55534246 		.ascii	"USBFS_LoadInEP\000"
ARM GAS  C:\Users\LUKASC~1\AppData\Local\Temp\ccEgAQpP.s 			page 108


 3358      535F4C6F 
 3358      6164496E 
 3358      455000
 3359              	.LASF37:
 3360 057f 72775761 		.ascii	"rwWaMsb\000"
 3360      4D736200 
 3361              	.LASF33:
 3362 0587 6570496E 		.ascii	"epIntEn\000"
 3362      74456E00 
 3363              	.LASF60:
 3364 058f 55534246 		.ascii	"USBFS_GetEPCount\000"
 3364      535F4765 
 3364      74455043 
 3364      6F756E74 
 3364      00
 3365              	.LASF74:
 3366 05a0 72657375 		.ascii	"result\000"
 3366      6C7400
 3367              		.ident	"GCC: (GNU Tools for ARM Embedded Processors) 4.9.3 20150303 (release) [ARM/embedded-4_9-br
