ARM GAS  C:\Users\LUKASC~1\AppData\Local\Temp\ccwNUHtE.s 			page 1


   1              		.syntax unified
   2              		.cpu cortex-m3
   3              		.fpu softvfp
   4              		.eabi_attribute 20, 1
   5              		.eabi_attribute 21, 1
   6              		.eabi_attribute 23, 3
   7              		.eabi_attribute 24, 1
   8              		.eabi_attribute 25, 1
   9              		.eabi_attribute 26, 1
  10              		.eabi_attribute 30, 6
  11              		.eabi_attribute 34, 1
  12              		.eabi_attribute 18, 4
  13              		.thumb
  14              		.file	"USBUART.c"
  15              		.text
  16              	.Ltext0:
  17              		.cfi_sections	.debug_frame
  18              		.global	USBUART_initVar
  19              		.bss
  20              		.type	USBUART_initVar, %object
  21              		.size	USBUART_initVar, 1
  22              	USBUART_initVar:
  23 0000 00       		.space	1
  24              		.section	.text.USBUART_Start,"ax",%progbits
  25              		.align	2
  26              		.global	USBUART_Start
  27              		.thumb
  28              		.thumb_func
  29              		.type	USBUART_Start, %function
  30              	USBUART_Start:
  31              	.LFB0:
  32              		.file 1 ".\\Generated_Source\\PSoC5\\USBUART.c"
   1:.\Generated_Source\PSoC5/USBUART.c **** /***************************************************************************//**
   2:.\Generated_Source\PSoC5/USBUART.c **** * \file USBUART.c
   3:.\Generated_Source\PSoC5/USBUART.c **** * \version 3.0
   4:.\Generated_Source\PSoC5/USBUART.c **** *
   5:.\Generated_Source\PSoC5/USBUART.c **** * \brief
   6:.\Generated_Source\PSoC5/USBUART.c **** *  This file contains the global USBFS API functions.
   7:.\Generated_Source\PSoC5/USBUART.c **** *
   8:.\Generated_Source\PSoC5/USBUART.c **** * Note:
   9:.\Generated_Source\PSoC5/USBUART.c **** *  Many of the functions use an endpoint number. SRAM arrays are sized with 9
  10:.\Generated_Source\PSoC5/USBUART.c **** *  elements, so they are indexed directly by epNumber.  The SIE and ARB
  11:.\Generated_Source\PSoC5/USBUART.c **** *  registers are indexed by variations of epNumber - 1.
  12:.\Generated_Source\PSoC5/USBUART.c **** *
  13:.\Generated_Source\PSoC5/USBUART.c **** ********************************************************************************
  14:.\Generated_Source\PSoC5/USBUART.c **** * \copyright
  15:.\Generated_Source\PSoC5/USBUART.c **** * Copyright 2008-2015, Cypress Semiconductor Corporation.  All rights reserved.
  16:.\Generated_Source\PSoC5/USBUART.c **** * You may use this file only in accordance with the license, terms, conditions,
  17:.\Generated_Source\PSoC5/USBUART.c **** * disclaimers, and limitations in the end user license agreement accompanying
  18:.\Generated_Source\PSoC5/USBUART.c **** * the software package with which this file was provided.
  19:.\Generated_Source\PSoC5/USBUART.c **** *******************************************************************************/
  20:.\Generated_Source\PSoC5/USBUART.c **** 
  21:.\Generated_Source\PSoC5/USBUART.c **** #include "USBUART_pvt.h"
  22:.\Generated_Source\PSoC5/USBUART.c **** #include "USBUART_cydmac.h"
  23:.\Generated_Source\PSoC5/USBUART.c **** #include "USBUART_hid.h"
  24:.\Generated_Source\PSoC5/USBUART.c **** 
  25:.\Generated_Source\PSoC5/USBUART.c **** 
ARM GAS  C:\Users\LUKASC~1\AppData\Local\Temp\ccwNUHtE.s 			page 2


  26:.\Generated_Source\PSoC5/USBUART.c **** /***************************************
  27:.\Generated_Source\PSoC5/USBUART.c **** * Global data allocation
  28:.\Generated_Source\PSoC5/USBUART.c **** ***************************************/
  29:.\Generated_Source\PSoC5/USBUART.c **** 
  30:.\Generated_Source\PSoC5/USBUART.c **** /** Indicates whether the USBFS has been initialized. The variable is
  31:.\Generated_Source\PSoC5/USBUART.c **** * initialized to 0 after device reset and set to 1 the first time USBFS_Start()
  32:.\Generated_Source\PSoC5/USBUART.c **** * is called. This allows the Component to restart without reinitialization after
  33:.\Generated_Source\PSoC5/USBUART.c **** * the first call to the USBFS_Start() routine.
  34:.\Generated_Source\PSoC5/USBUART.c **** * If re-initialization of the Component is required, the variable should be set
  35:.\Generated_Source\PSoC5/USBUART.c **** * to 0 before the USBFS_Start() routine is called. Alternatively, the USBFS can
  36:.\Generated_Source\PSoC5/USBUART.c **** * be reinitialized by calling both USBFS_Init() and USBFS_InitComponent()
  37:.\Generated_Source\PSoC5/USBUART.c **** * functions.
  38:.\Generated_Source\PSoC5/USBUART.c **** */
  39:.\Generated_Source\PSoC5/USBUART.c **** uint8 USBUART_initVar = 0u;
  40:.\Generated_Source\PSoC5/USBUART.c **** 
  41:.\Generated_Source\PSoC5/USBUART.c **** #if (USBUART_EP_MANAGEMENT_DMA)
  42:.\Generated_Source\PSoC5/USBUART.c ****     #if (CY_PSOC4)
  43:.\Generated_Source\PSoC5/USBUART.c ****         static void USBUART_InitEpDma(void);
  44:.\Generated_Source\PSoC5/USBUART.c **** 
  45:.\Generated_Source\PSoC5/USBUART.c ****         /* DMA chanels assigend for endpoints. */
  46:.\Generated_Source\PSoC5/USBUART.c ****         const uint8 USBUART_DmaChan[USBUART_MAX_EP] =
  47:.\Generated_Source\PSoC5/USBUART.c ****         {
  48:.\Generated_Source\PSoC5/USBUART.c ****             0u,
  49:.\Generated_Source\PSoC5/USBUART.c ****             0u,
  50:.\Generated_Source\PSoC5/USBUART.c ****             0u,
  51:.\Generated_Source\PSoC5/USBUART.c ****             0u,
  52:.\Generated_Source\PSoC5/USBUART.c ****             0u,
  53:.\Generated_Source\PSoC5/USBUART.c ****             0u,
  54:.\Generated_Source\PSoC5/USBUART.c ****             0u,
  55:.\Generated_Source\PSoC5/USBUART.c ****             0u,
  56:.\Generated_Source\PSoC5/USBUART.c ****             0u,
  57:.\Generated_Source\PSoC5/USBUART.c ****         };        
  58:.\Generated_Source\PSoC5/USBUART.c ****     #else
  59:.\Generated_Source\PSoC5/USBUART.c ****         /* DMA chanels assigend for endpoints. */
  60:.\Generated_Source\PSoC5/USBUART.c ****         uint8 USBUART_DmaChan[USBUART_MAX_EP];
  61:.\Generated_Source\PSoC5/USBUART.c ****         
  62:.\Generated_Source\PSoC5/USBUART.c ****         /* DMA TDs require for PSoC 3/5LP operation. */
  63:.\Generated_Source\PSoC5/USBUART.c ****         uint8 USBUART_DmaTd[USBUART_MAX_EP];
  64:.\Generated_Source\PSoC5/USBUART.c ****     #endif /* (CY_PSOC4) */
  65:.\Generated_Source\PSoC5/USBUART.c **** #endif /* (USBUART_EP_MANAGEMENT_DMA) */
  66:.\Generated_Source\PSoC5/USBUART.c **** 
  67:.\Generated_Source\PSoC5/USBUART.c **** #if (USBUART_EP_MANAGEMENT_DMA_AUTO)
  68:.\Generated_Source\PSoC5/USBUART.c **** #if (CY_PSOC4)
  69:.\Generated_Source\PSoC5/USBUART.c ****     /* Number of DMA bursts. */
  70:.\Generated_Source\PSoC5/USBUART.c ****     uint8  USBUART_DmaEpBurstCnt   [USBUART_MAX_EP];
  71:.\Generated_Source\PSoC5/USBUART.c ****     
  72:.\Generated_Source\PSoC5/USBUART.c ****     /* Number of bytes to transfer in last DMA burst. */
  73:.\Generated_Source\PSoC5/USBUART.c ****     uint8  USBUART_DmaEpLastBurstEl[USBUART_MAX_EP];
  74:.\Generated_Source\PSoC5/USBUART.c **** 
  75:.\Generated_Source\PSoC5/USBUART.c ****     /* Storage for arrays above. */
  76:.\Generated_Source\PSoC5/USBUART.c ****     uint8  USBUART_DmaEpBurstCntBackup  [USBUART_MAX_EP];
  77:.\Generated_Source\PSoC5/USBUART.c ****     uint32 USBUART_DmaEpBufferAddrBackup[USBUART_MAX_EP];
  78:.\Generated_Source\PSoC5/USBUART.c ****      
  79:.\Generated_Source\PSoC5/USBUART.c ****     /* DMA trigger mux output for usb.dma_req[0-7]. */
  80:.\Generated_Source\PSoC5/USBUART.c ****     const uint8 USBUART_DmaReqOut[USBUART_MAX_EP] =
  81:.\Generated_Source\PSoC5/USBUART.c ****     {
  82:.\Generated_Source\PSoC5/USBUART.c ****         0u,
ARM GAS  C:\Users\LUKASC~1\AppData\Local\Temp\ccwNUHtE.s 			page 3


  83:.\Generated_Source\PSoC5/USBUART.c ****         USBUART_ep1_dma__TR_OUTPUT,
  84:.\Generated_Source\PSoC5/USBUART.c ****         USBUART_ep2_dma__TR_OUTPUT,
  85:.\Generated_Source\PSoC5/USBUART.c ****         USBUART_ep3_dma__TR_OUTPUT,
  86:.\Generated_Source\PSoC5/USBUART.c ****         0u,
  87:.\Generated_Source\PSoC5/USBUART.c ****         0u,
  88:.\Generated_Source\PSoC5/USBUART.c ****         0u,
  89:.\Generated_Source\PSoC5/USBUART.c ****         0u,
  90:.\Generated_Source\PSoC5/USBUART.c ****         0u,
  91:.\Generated_Source\PSoC5/USBUART.c ****     };
  92:.\Generated_Source\PSoC5/USBUART.c **** 
  93:.\Generated_Source\PSoC5/USBUART.c ****     /* DMA trigger mux output for usb.dma_burstend[0-7]. */
  94:.\Generated_Source\PSoC5/USBUART.c ****     const uint8 USBUART_DmaBurstEndOut[USBUART_MAX_EP] =
  95:.\Generated_Source\PSoC5/USBUART.c ****     {
  96:.\Generated_Source\PSoC5/USBUART.c ****         0u,
  97:.\Generated_Source\PSoC5/USBUART.c ****         USBUART_BURSTEND_0_TR_OUTPUT,
  98:.\Generated_Source\PSoC5/USBUART.c ****         USBUART_BURSTEND_1_TR_OUTPUT,
  99:.\Generated_Source\PSoC5/USBUART.c ****         USBUART_BURSTEND_2_TR_OUTPUT,
 100:.\Generated_Source\PSoC5/USBUART.c ****         USBUART_BURSTEND_3_TR_OUTPUT,
 101:.\Generated_Source\PSoC5/USBUART.c ****         USBUART_BURSTEND_4_TR_OUTPUT,
 102:.\Generated_Source\PSoC5/USBUART.c ****         USBUART_BURSTEND_5_TR_OUTPUT,
 103:.\Generated_Source\PSoC5/USBUART.c ****         USBUART_BURSTEND_6_TR_OUTPUT,
 104:.\Generated_Source\PSoC5/USBUART.c ****         USBUART_BURSTEND_7_TR_OUTPUT
 105:.\Generated_Source\PSoC5/USBUART.c ****     };
 106:.\Generated_Source\PSoC5/USBUART.c ****     
 107:.\Generated_Source\PSoC5/USBUART.c **** #else
 108:.\Generated_Source\PSoC5/USBUART.c ****     #if (USBUART_EP_DMA_AUTO_OPT == 0u)
 109:.\Generated_Source\PSoC5/USBUART.c ****         static uint8 clearInDataRdyStatus = USBUART_ARB_EPX_CFG_DEFAULT;
 110:.\Generated_Source\PSoC5/USBUART.c ****         uint8 USBUART_DmaNextTd[USBUART_MAX_EP];
 111:.\Generated_Source\PSoC5/USBUART.c ****         const uint8 USBUART_epX_TD_TERMOUT_EN[USBUART_MAX_EP] =
 112:.\Generated_Source\PSoC5/USBUART.c ****         {
 113:.\Generated_Source\PSoC5/USBUART.c ****             0u,
 114:.\Generated_Source\PSoC5/USBUART.c ****             0u,
 115:.\Generated_Source\PSoC5/USBUART.c ****             0u,
 116:.\Generated_Source\PSoC5/USBUART.c ****             0u,
 117:.\Generated_Source\PSoC5/USBUART.c ****             0u,
 118:.\Generated_Source\PSoC5/USBUART.c ****             0u,
 119:.\Generated_Source\PSoC5/USBUART.c ****             0u,
 120:.\Generated_Source\PSoC5/USBUART.c ****             0u,
 121:.\Generated_Source\PSoC5/USBUART.c ****             0u,
 122:.\Generated_Source\PSoC5/USBUART.c ****         };
 123:.\Generated_Source\PSoC5/USBUART.c **** 
 124:.\Generated_Source\PSoC5/USBUART.c ****         volatile uint16 USBUART_inLength[USBUART_MAX_EP];
 125:.\Generated_Source\PSoC5/USBUART.c ****         const uint8 *USBUART_inDataPointer[USBUART_MAX_EP];
 126:.\Generated_Source\PSoC5/USBUART.c ****         volatile uint8 USBUART_inBufFull[USBUART_MAX_EP];
 127:.\Generated_Source\PSoC5/USBUART.c ****     #endif /* (USBUART_EP_DMA_AUTO_OPT == 0u) */
 128:.\Generated_Source\PSoC5/USBUART.c **** #endif /* (CY_PSOC4) */
 129:.\Generated_Source\PSoC5/USBUART.c **** #endif /* (USBUART_EP_MANAGEMENT_DMA_AUTO) */
 130:.\Generated_Source\PSoC5/USBUART.c **** 
 131:.\Generated_Source\PSoC5/USBUART.c **** 
 132:.\Generated_Source\PSoC5/USBUART.c **** /*******************************************************************************
 133:.\Generated_Source\PSoC5/USBUART.c **** * Function Name: USBUART_Start
 134:.\Generated_Source\PSoC5/USBUART.c **** ****************************************************************************//**
 135:.\Generated_Source\PSoC5/USBUART.c **** *
 136:.\Generated_Source\PSoC5/USBUART.c **** *   This function performs all required initialization for the USBFS component.
 137:.\Generated_Source\PSoC5/USBUART.c **** *   After this function call, the USB device initiates communication with the
 138:.\Generated_Source\PSoC5/USBUART.c **** *   host by pull-up D+ line. This is the preferred method to begin component
 139:.\Generated_Source\PSoC5/USBUART.c **** *   operation.
ARM GAS  C:\Users\LUKASC~1\AppData\Local\Temp\ccwNUHtE.s 			page 4


 140:.\Generated_Source\PSoC5/USBUART.c **** *
 141:.\Generated_Source\PSoC5/USBUART.c **** *   Note that global interrupts have to be enabled because interrupts are
 142:.\Generated_Source\PSoC5/USBUART.c **** *   required for USBFS component operation.
 143:.\Generated_Source\PSoC5/USBUART.c **** *
 144:.\Generated_Source\PSoC5/USBUART.c **** *   PSoC 4200L devices: when USBFS component configured to DMA with Automatic
 145:.\Generated_Source\PSoC5/USBUART.c **** *   Buffer Management, the DMA interrupt priority is changed to the highest
 146:.\Generated_Source\PSoC5/USBUART.c **** *   (priority 0) inside this function.
 147:.\Generated_Source\PSoC5/USBUART.c **** *
 148:.\Generated_Source\PSoC5/USBUART.c **** *   PSoC 3/PSoC 5LP devices: when USBFS component configured to DMA with
 149:.\Generated_Source\PSoC5/USBUART.c **** *   Automatic Buffer Management, the Arbiter interrupt priority is changed to
 150:.\Generated_Source\PSoC5/USBUART.c **** *   the highest (priority 0) inside this function.
 151:.\Generated_Source\PSoC5/USBUART.c **** *
 152:.\Generated_Source\PSoC5/USBUART.c **** *  \param device
 153:.\Generated_Source\PSoC5/USBUART.c **** *          Contains the device number of the desired device descriptor.
 154:.\Generated_Source\PSoC5/USBUART.c **** *          The device number can be found in the Device Descriptor Tab of
 155:.\Generated_Source\PSoC5/USBUART.c **** *          "Configure" dialog, under the settings of desired Device Descriptor,
 156:.\Generated_Source\PSoC5/USBUART.c **** *          in the "Device Number" field.
 157:.\Generated_Source\PSoC5/USBUART.c **** *  \param mode:
 158:.\Generated_Source\PSoC5/USBUART.c **** *   The operating voltage. This determines whether the voltage regulator
 159:.\Generated_Source\PSoC5/USBUART.c **** *   is enabled for 5V operation or if pass through mode is used for 3.3V
 160:.\Generated_Source\PSoC5/USBUART.c **** *   operation. Symbolic names and their associated values are given in the
 161:.\Generated_Source\PSoC5/USBUART.c **** *   following list.
 162:.\Generated_Source\PSoC5/USBUART.c **** *
 163:.\Generated_Source\PSoC5/USBUART.c **** *       *USBUART_3V_OPERATION* - Disable voltage regulator and pass-
 164:.\Generated_Source\PSoC5/USBUART.c **** *                                      through Vcc for pull-up
 165:.\Generated_Source\PSoC5/USBUART.c **** *
 166:.\Generated_Source\PSoC5/USBUART.c **** *       *USBUART_5V_OPERATION* - Enable voltage regulator and use
 167:.\Generated_Source\PSoC5/USBUART.c **** *                                      regulator for pull-up
 168:.\Generated_Source\PSoC5/USBUART.c **** *
 169:.\Generated_Source\PSoC5/USBUART.c **** *       *USBUART_DWR_POWER_OPERATION* - Enable or disable the voltage
 170:.\Generated_Source\PSoC5/USBUART.c **** *                                      regulator depending on the power supply
 171:.\Generated_Source\PSoC5/USBUART.c **** *                                      voltage configuration in the DWR tab.
 172:.\Generated_Source\PSoC5/USBUART.c **** *                                      For PSoC 3/5LP devices, the VDDD supply
 173:.\Generated_Source\PSoC5/USBUART.c **** *                                      voltage is considered and for PSoC 4A-L,
 174:.\Generated_Source\PSoC5/USBUART.c **** *                                      the VBUS supply voltage is considered.*
 175:.\Generated_Source\PSoC5/USBUART.c **** * \globalvars
 176:.\Generated_Source\PSoC5/USBUART.c **** *  \ref USBUART_initVar
 177:.\Generated_Source\PSoC5/USBUART.c **** *
 178:.\Generated_Source\PSoC5/USBUART.c **** * \sideeffect
 179:.\Generated_Source\PSoC5/USBUART.c **** *   This function will reset all communication states to default.
 180:.\Generated_Source\PSoC5/USBUART.c **** *
 181:.\Generated_Source\PSoC5/USBUART.c **** * \reentrant
 182:.\Generated_Source\PSoC5/USBUART.c **** *  No.
 183:.\Generated_Source\PSoC5/USBUART.c **** *
 184:.\Generated_Source\PSoC5/USBUART.c **** *******************************************************************************/
 185:.\Generated_Source\PSoC5/USBUART.c **** void USBUART_Start(uint8 device, uint8 mode) 
 186:.\Generated_Source\PSoC5/USBUART.c **** {
  33              		.loc 1 186 0
  34              		.cfi_startproc
  35              		@ args = 0, pretend = 0, frame = 8
  36              		@ frame_needed = 1, uses_anonymous_args = 0
  37 0000 80B5     		push	{r7, lr}
  38              		.cfi_def_cfa_offset 8
  39              		.cfi_offset 7, -8
  40              		.cfi_offset 14, -4
  41 0002 82B0     		sub	sp, sp, #8
  42              		.cfi_def_cfa_offset 16
ARM GAS  C:\Users\LUKASC~1\AppData\Local\Temp\ccwNUHtE.s 			page 5


  43 0004 00AF     		add	r7, sp, #0
  44              		.cfi_def_cfa_register 7
  45 0006 0346     		mov	r3, r0
  46 0008 0A46     		mov	r2, r1
  47 000a FB71     		strb	r3, [r7, #7]
  48 000c 1346     		mov	r3, r2
  49 000e BB71     		strb	r3, [r7, #6]
 187:.\Generated_Source\PSoC5/USBUART.c ****     if (0u == USBUART_initVar)
  50              		.loc 1 187 0
  51 0010 084B     		ldr	r3, .L3
  52 0012 1B78     		ldrb	r3, [r3]	@ zero_extendqisi2
  53 0014 002B     		cmp	r3, #0
  54 0016 04D1     		bne	.L2
 188:.\Generated_Source\PSoC5/USBUART.c ****     {
 189:.\Generated_Source\PSoC5/USBUART.c ****         USBUART_Init();
  55              		.loc 1 189 0
  56 0018 FFF7FEFF 		bl	USBUART_Init
 190:.\Generated_Source\PSoC5/USBUART.c ****         USBUART_initVar = 1u;
  57              		.loc 1 190 0
  58 001c 054B     		ldr	r3, .L3
  59 001e 0122     		movs	r2, #1
  60 0020 1A70     		strb	r2, [r3]
  61              	.L2:
 191:.\Generated_Source\PSoC5/USBUART.c ****     }
 192:.\Generated_Source\PSoC5/USBUART.c **** 
 193:.\Generated_Source\PSoC5/USBUART.c ****     USBUART_InitComponent(device, mode);
  62              		.loc 1 193 0
  63 0022 FA79     		ldrb	r2, [r7, #7]	@ zero_extendqisi2
  64 0024 BB79     		ldrb	r3, [r7, #6]	@ zero_extendqisi2
  65 0026 1046     		mov	r0, r2
  66 0028 1946     		mov	r1, r3
  67 002a FFF7FEFF 		bl	USBUART_InitComponent
 194:.\Generated_Source\PSoC5/USBUART.c **** }
  68              		.loc 1 194 0
  69 002e 0837     		adds	r7, r7, #8
  70              		.cfi_def_cfa_offset 8
  71 0030 BD46     		mov	sp, r7
  72              		.cfi_def_cfa_register 13
  73              		@ sp needed
  74 0032 80BD     		pop	{r7, pc}
  75              	.L4:
  76              		.align	2
  77              	.L3:
  78 0034 00000000 		.word	USBUART_initVar
  79              		.cfi_endproc
  80              	.LFE0:
  81              		.size	USBUART_Start, .-USBUART_Start
  82              		.section	.text.USBUART_Init,"ax",%progbits
  83              		.align	2
  84              		.global	USBUART_Init
  85              		.thumb
  86              		.thumb_func
  87              		.type	USBUART_Init, %function
  88              	USBUART_Init:
  89              	.LFB1:
 195:.\Generated_Source\PSoC5/USBUART.c **** 
 196:.\Generated_Source\PSoC5/USBUART.c **** 
ARM GAS  C:\Users\LUKASC~1\AppData\Local\Temp\ccwNUHtE.s 			page 6


 197:.\Generated_Source\PSoC5/USBUART.c **** /*******************************************************************************
 198:.\Generated_Source\PSoC5/USBUART.c **** * Function Name: USBUART_Init
 199:.\Generated_Source\PSoC5/USBUART.c **** ****************************************************************************//**
 200:.\Generated_Source\PSoC5/USBUART.c **** *
 201:.\Generated_Source\PSoC5/USBUART.c **** * This function initializes or restores the component according to the
 202:.\Generated_Source\PSoC5/USBUART.c **** * customizer Configure dialog settings. It is not necessary to call
 203:.\Generated_Source\PSoC5/USBUART.c **** * USBUART_Init() because the USBUART_Start() routine calls
 204:.\Generated_Source\PSoC5/USBUART.c **** * this function and is the preferred method to begin component operation.
 205:.\Generated_Source\PSoC5/USBUART.c **** *
 206:.\Generated_Source\PSoC5/USBUART.c **** * \reentrant
 207:.\Generated_Source\PSoC5/USBUART.c **** *  No.
 208:.\Generated_Source\PSoC5/USBUART.c **** *
 209:.\Generated_Source\PSoC5/USBUART.c **** *******************************************************************************/
 210:.\Generated_Source\PSoC5/USBUART.c **** void USBUART_Init(void) 
 211:.\Generated_Source\PSoC5/USBUART.c **** {
  90              		.loc 1 211 0
  91              		.cfi_startproc
  92              		@ args = 0, pretend = 0, frame = 8
  93              		@ frame_needed = 1, uses_anonymous_args = 0
  94 0000 80B5     		push	{r7, lr}
  95              		.cfi_def_cfa_offset 8
  96              		.cfi_offset 7, -8
  97              		.cfi_offset 14, -4
  98 0002 82B0     		sub	sp, sp, #8
  99              		.cfi_def_cfa_offset 16
 100 0004 00AF     		add	r7, sp, #0
 101              		.cfi_def_cfa_register 7
 212:.\Generated_Source\PSoC5/USBUART.c **** #if (CY_PSOC4)
 213:.\Generated_Source\PSoC5/USBUART.c ****     /* Enable clock to USB IP. */
 214:.\Generated_Source\PSoC5/USBUART.c ****     USBUART_USB_CLK_EN_REG = USBUART_USB_CLK_CSR_CLK_EN;
 215:.\Generated_Source\PSoC5/USBUART.c **** 
 216:.\Generated_Source\PSoC5/USBUART.c ****     /* The internal regulator (CR1.REG_ENABLE) is enabled in
 217:.\Generated_Source\PSoC5/USBUART.c ****     * USBUART_InitComponent() if it is required.
 218:.\Generated_Source\PSoC5/USBUART.c ****     */
 219:.\Generated_Source\PSoC5/USBUART.c **** 
 220:.\Generated_Source\PSoC5/USBUART.c ****     /* Enable USBIO control on drive mode of D+ and D- pins. */
 221:.\Generated_Source\PSoC5/USBUART.c ****     USBUART_USBIO_CR1_REG &= ~ (uint32) USBUART_USBIO_CR1_IOMODE;
 222:.\Generated_Source\PSoC5/USBUART.c **** 
 223:.\Generated_Source\PSoC5/USBUART.c ****     /* Set number of LF CLK to detect UBS bus reset. */
 224:.\Generated_Source\PSoC5/USBUART.c ****     USBUART_BUS_RST_CNT_REG = USBUART_DEFUALT_BUS_RST_CNT;
 225:.\Generated_Source\PSoC5/USBUART.c **** 
 226:.\Generated_Source\PSoC5/USBUART.c ****     /* Select VBUS detection source and clear PHY isolate. The application level
 227:.\Generated_Source\PSoC5/USBUART.c ****     * must ensure that VBUS is valid. There is no need to wait 2us before VBUS is valid.
 228:.\Generated_Source\PSoC5/USBUART.c ****     */
 229:.\Generated_Source\PSoC5/USBUART.c ****     USBUART_POWER_CTRL_REG = USBUART_DEFAULT_POWER_CTRL_VBUS;
 230:.\Generated_Source\PSoC5/USBUART.c **** 
 231:.\Generated_Source\PSoC5/USBUART.c ****     /* Enable PHY detector and single-ended and differential receivers. */
 232:.\Generated_Source\PSoC5/USBUART.c ****     USBUART_POWER_CTRL_REG |= USBUART_DEFAULT_POWER_CTRL_PHY;
 233:.\Generated_Source\PSoC5/USBUART.c **** 
 234:.\Generated_Source\PSoC5/USBUART.c ****     /* Suspend clear sequence. */
 235:.\Generated_Source\PSoC5/USBUART.c ****     USBUART_POWER_CTRL_REG &= (uint32) ~USBUART_POWER_CTRL_SUSPEND;
 236:.\Generated_Source\PSoC5/USBUART.c ****     CyDelayUs(USBUART_WAIT_SUSPEND_DEL_DISABLE);
 237:.\Generated_Source\PSoC5/USBUART.c ****     USBUART_POWER_CTRL_REG &= (uint32) ~USBUART_POWER_CTRL_SUSPEND_DEL;
 238:.\Generated_Source\PSoC5/USBUART.c **** 
 239:.\Generated_Source\PSoC5/USBUART.c ****     /* Sets IMO lock options and clear all other bits. */
 240:.\Generated_Source\PSoC5/USBUART.c ****     USBUART_CR1_REG = USBUART_DEFUALT_CR1;
 241:.\Generated_Source\PSoC5/USBUART.c **** 
ARM GAS  C:\Users\LUKASC~1\AppData\Local\Temp\ccwNUHtE.s 			page 7


 242:.\Generated_Source\PSoC5/USBUART.c ****     /* Configure level (hi, lo, med) for each interrupt source. */
 243:.\Generated_Source\PSoC5/USBUART.c ****     USBUART_INTR_LVL_SEL_REG = USBUART_DEFAULT_INTR_LVL_SEL;
 244:.\Generated_Source\PSoC5/USBUART.c **** 
 245:.\Generated_Source\PSoC5/USBUART.c ****     /* Configure interrupt sources from: SOF, Bus Reset and EP0. */
 246:.\Generated_Source\PSoC5/USBUART.c ****     USBUART_INTR_SIE_MASK_REG = USBUART_DEFAULT_INTR_SIE_MASK;
 247:.\Generated_Source\PSoC5/USBUART.c **** 
 248:.\Generated_Source\PSoC5/USBUART.c **** #else
 249:.\Generated_Source\PSoC5/USBUART.c ****     uint8 enableInterrupts = CyEnterCriticalSection();
 102              		.loc 1 249 0
 103 0006 FFF7FEFF 		bl	CyEnterCriticalSection
 104 000a 0346     		mov	r3, r0
 105 000c FB71     		strb	r3, [r7, #7]
 250:.\Generated_Source\PSoC5/USBUART.c **** 
 251:.\Generated_Source\PSoC5/USBUART.c **** #if (USBUART_EP_MANAGEMENT_DMA)
 252:.\Generated_Source\PSoC5/USBUART.c ****     uint16 i;
 253:.\Generated_Source\PSoC5/USBUART.c **** #endif /* (USBUART_EP_MANAGEMENT_DMA) */
 254:.\Generated_Source\PSoC5/USBUART.c **** 
 255:.\Generated_Source\PSoC5/USBUART.c ****     /* Enable USB block. */
 256:.\Generated_Source\PSoC5/USBUART.c ****     USBUART_PM_ACT_CFG_REG |= USBUART_PM_ACT_EN_FSUSB;
 106              		.loc 1 256 0
 107 000e 534A     		ldr	r2, .L6
 108 0010 524B     		ldr	r3, .L6
 109 0012 1B78     		ldrb	r3, [r3]
 110 0014 DBB2     		uxtb	r3, r3
 111 0016 43F00103 		orr	r3, r3, #1
 112 001a DBB2     		uxtb	r3, r3
 113 001c 1370     		strb	r3, [r2]
 257:.\Generated_Source\PSoC5/USBUART.c ****     /* Enable USB block for Standby Power Mode. */
 258:.\Generated_Source\PSoC5/USBUART.c ****     USBUART_PM_STBY_CFG_REG |= USBUART_PM_STBY_EN_FSUSB;
 114              		.loc 1 258 0
 115 001e 504A     		ldr	r2, .L6+4
 116 0020 4F4B     		ldr	r3, .L6+4
 117 0022 1B78     		ldrb	r3, [r3]
 118 0024 DBB2     		uxtb	r3, r3
 119 0026 43F00103 		orr	r3, r3, #1
 120 002a DBB2     		uxtb	r3, r3
 121 002c 1370     		strb	r3, [r2]
 259:.\Generated_Source\PSoC5/USBUART.c **** 
 260:.\Generated_Source\PSoC5/USBUART.c ****     /* Enable core clock. */
 261:.\Generated_Source\PSoC5/USBUART.c ****     USBUART_USB_CLK_EN_REG = USBUART_USB_CLK_ENABLE;
 122              		.loc 1 261 0
 123 002e 4D4B     		ldr	r3, .L6+8
 124 0030 0122     		movs	r2, #1
 125 0032 1A70     		strb	r2, [r3]
 262:.\Generated_Source\PSoC5/USBUART.c **** 
 263:.\Generated_Source\PSoC5/USBUART.c ****     USBUART_CR1_REG = USBUART_CR1_ENABLE_LOCK;
 126              		.loc 1 263 0
 127 0034 4C4B     		ldr	r3, .L6+12
 128 0036 0222     		movs	r2, #2
 129 0038 1A70     		strb	r2, [r3]
 264:.\Generated_Source\PSoC5/USBUART.c **** 
 265:.\Generated_Source\PSoC5/USBUART.c ****     /* ENABLING USBIO PADS IN USB MODE FROM I/O MODE. */
 266:.\Generated_Source\PSoC5/USBUART.c ****     /* Ensure USB transmit enable is low (USB_USBIO_CR0.ten). - Manual Transmission - Disabled. */
 267:.\Generated_Source\PSoC5/USBUART.c ****     USBUART_USBIO_CR0_REG &= (uint8) ~USBUART_USBIO_CR0_TEN;
 130              		.loc 1 267 0
 131 003a 4C4A     		ldr	r2, .L6+16
 132 003c 4B4B     		ldr	r3, .L6+16
ARM GAS  C:\Users\LUKASC~1\AppData\Local\Temp\ccwNUHtE.s 			page 8


 133 003e 1B78     		ldrb	r3, [r3]
 134 0040 DBB2     		uxtb	r3, r3
 135 0042 03F07F03 		and	r3, r3, #127
 136 0046 DBB2     		uxtb	r3, r3
 137 0048 1370     		strb	r3, [r2]
 268:.\Generated_Source\PSoC5/USBUART.c ****     CyDelayUs(USBUART_WAIT_REG_STABILITY_50NS);  /* ~50ns delay. */
 138              		.loc 1 268 0
 139 004a 0020     		movs	r0, #0
 140 004c FFF7FEFF 		bl	CyDelayUs
 269:.\Generated_Source\PSoC5/USBUART.c ****     /* Disable USBIO by asserting PM.USB_CR0.fsusbio_pd_n(Inverted.
 270:.\Generated_Source\PSoC5/USBUART.c ****     *  high. These bits will be set low by the power manager out-of-reset.
 271:.\Generated_Source\PSoC5/USBUART.c ****     *  Also confirm USBIO pull-up is disabled.
 272:.\Generated_Source\PSoC5/USBUART.c ****     */
 273:.\Generated_Source\PSoC5/USBUART.c ****     USBUART_PM_USB_CR0_REG &= (uint8) ~(USBUART_PM_USB_CR0_PD_N |
 141              		.loc 1 273 0
 142 0050 474A     		ldr	r2, .L6+20
 143 0052 474B     		ldr	r3, .L6+20
 144 0054 1B78     		ldrb	r3, [r3]
 145 0056 DBB2     		uxtb	r3, r3
 146 0058 23F00603 		bic	r3, r3, #6
 147 005c DBB2     		uxtb	r3, r3
 148 005e 1370     		strb	r3, [r2]
 274:.\Generated_Source\PSoC5/USBUART.c ****                                                  USBUART_PM_USB_CR0_PD_PULLUP_N);
 275:.\Generated_Source\PSoC5/USBUART.c **** 
 276:.\Generated_Source\PSoC5/USBUART.c ****     /* Select IOMODE to USB mode. */
 277:.\Generated_Source\PSoC5/USBUART.c ****     USBUART_USBIO_CR1_REG &= (uint8) ~USBUART_USBIO_CR1_IOMODE;
 149              		.loc 1 277 0
 150 0060 444A     		ldr	r2, .L6+24
 151 0062 444B     		ldr	r3, .L6+24
 152 0064 1B78     		ldrb	r3, [r3]
 153 0066 DBB2     		uxtb	r3, r3
 154 0068 23F02003 		bic	r3, r3, #32
 155 006c DBB2     		uxtb	r3, r3
 156 006e 1370     		strb	r3, [r2]
 278:.\Generated_Source\PSoC5/USBUART.c **** 
 279:.\Generated_Source\PSoC5/USBUART.c ****     /* Enable USBIO reference by setting PM.USB_CR0.fsusbio_ref_en. */
 280:.\Generated_Source\PSoC5/USBUART.c ****     USBUART_PM_USB_CR0_REG |= USBUART_PM_USB_CR0_REF_EN;
 157              		.loc 1 280 0
 158 0070 3F4A     		ldr	r2, .L6+20
 159 0072 3F4B     		ldr	r3, .L6+20
 160 0074 1B78     		ldrb	r3, [r3]
 161 0076 DBB2     		uxtb	r3, r3
 162 0078 43F00103 		orr	r3, r3, #1
 163 007c DBB2     		uxtb	r3, r3
 164 007e 1370     		strb	r3, [r2]
 281:.\Generated_Source\PSoC5/USBUART.c ****     /* Reference is available for 1us after regulator is enabled. */
 282:.\Generated_Source\PSoC5/USBUART.c ****     CyDelayUs(USBUART_WAIT_REG_STABILITY_1US);
 165              		.loc 1 282 0
 166 0080 0120     		movs	r0, #1
 167 0082 FFF7FEFF 		bl	CyDelayUs
 283:.\Generated_Source\PSoC5/USBUART.c ****     /* OR 40us after power is restored. */
 284:.\Generated_Source\PSoC5/USBUART.c ****     CyDelayUs(USBUART_WAIT_VREF_RESTORE);
 168              		.loc 1 284 0
 169 0086 2820     		movs	r0, #40
 170 0088 FFF7FEFF 		bl	CyDelayUs
 285:.\Generated_Source\PSoC5/USBUART.c ****     /* Ensure single-ended disable bits are low (PRT15.INP_DIS[7:6])(input receiver enabled). */
 286:.\Generated_Source\PSoC5/USBUART.c ****     USBUART_DM_INP_DIS_REG &= (uint8) ~USBUART_DM_MASK;
ARM GAS  C:\Users\LUKASC~1\AppData\Local\Temp\ccwNUHtE.s 			page 9


 171              		.loc 1 286 0
 172 008c 3A4A     		ldr	r2, .L6+28
 173 008e 3A4B     		ldr	r3, .L6+28
 174 0090 1B78     		ldrb	r3, [r3]
 175 0092 DBB2     		uxtb	r3, r3
 176 0094 03F07F03 		and	r3, r3, #127
 177 0098 DBB2     		uxtb	r3, r3
 178 009a 1370     		strb	r3, [r2]
 287:.\Generated_Source\PSoC5/USBUART.c ****     USBUART_DP_INP_DIS_REG &= (uint8) ~USBUART_DP_MASK;
 179              		.loc 1 287 0
 180 009c 364A     		ldr	r2, .L6+28
 181 009e 364B     		ldr	r3, .L6+28
 182 00a0 1B78     		ldrb	r3, [r3]
 183 00a2 DBB2     		uxtb	r3, r3
 184 00a4 23F04003 		bic	r3, r3, #64
 185 00a8 DBB2     		uxtb	r3, r3
 186 00aa 1370     		strb	r3, [r2]
 288:.\Generated_Source\PSoC5/USBUART.c **** 
 289:.\Generated_Source\PSoC5/USBUART.c ****     /* Enable USBIO. */
 290:.\Generated_Source\PSoC5/USBUART.c ****     USBUART_PM_USB_CR0_REG |= USBUART_PM_USB_CR0_PD_N;
 187              		.loc 1 290 0
 188 00ac 304A     		ldr	r2, .L6+20
 189 00ae 304B     		ldr	r3, .L6+20
 190 00b0 1B78     		ldrb	r3, [r3]
 191 00b2 DBB2     		uxtb	r3, r3
 192 00b4 43F00203 		orr	r3, r3, #2
 193 00b8 DBB2     		uxtb	r3, r3
 194 00ba 1370     		strb	r3, [r2]
 291:.\Generated_Source\PSoC5/USBUART.c ****     CyDelayUs(USBUART_WAIT_PD_PULLUP_N_ENABLE);
 195              		.loc 1 291 0
 196 00bc 0220     		movs	r0, #2
 197 00be FFF7FEFF 		bl	CyDelayUs
 292:.\Generated_Source\PSoC5/USBUART.c ****     /* Set USBIO pull-up enable. */
 293:.\Generated_Source\PSoC5/USBUART.c ****     USBUART_PM_USB_CR0_REG |= USBUART_PM_USB_CR0_PD_PULLUP_N;
 198              		.loc 1 293 0
 199 00c2 2B4A     		ldr	r2, .L6+20
 200 00c4 2A4B     		ldr	r3, .L6+20
 201 00c6 1B78     		ldrb	r3, [r3]
 202 00c8 DBB2     		uxtb	r3, r3
 203 00ca 43F00403 		orr	r3, r3, #4
 204 00ce DBB2     		uxtb	r3, r3
 205 00d0 1370     		strb	r3, [r2]
 294:.\Generated_Source\PSoC5/USBUART.c **** 
 295:.\Generated_Source\PSoC5/USBUART.c ****     /* Reset Arbiter Write Address register for endpoint 1. */
 296:.\Generated_Source\PSoC5/USBUART.c ****     CY_SET_REG8(USBUART_ARB_RW1_WA_PTR,     0u);
 206              		.loc 1 296 0
 207 00d2 2A4B     		ldr	r3, .L6+32
 208 00d4 0022     		movs	r2, #0
 209 00d6 1A70     		strb	r2, [r3]
 297:.\Generated_Source\PSoC5/USBUART.c ****     CY_SET_REG8(USBUART_ARB_RW1_WA_MSB_PTR, 0u);
 210              		.loc 1 297 0
 211 00d8 294B     		ldr	r3, .L6+36
 212 00da 0022     		movs	r2, #0
 213 00dc 1A70     		strb	r2, [r3]
 298:.\Generated_Source\PSoC5/USBUART.c **** 
 299:.\Generated_Source\PSoC5/USBUART.c **** #if (USBUART_EP_MANAGEMENT_DMA)
 300:.\Generated_Source\PSoC5/USBUART.c ****     /* Initialize transfer descriptor. This will be used to detect DMA state - initialized or not. 
ARM GAS  C:\Users\LUKASC~1\AppData\Local\Temp\ccwNUHtE.s 			page 10


 301:.\Generated_Source\PSoC5/USBUART.c ****     for (i = 0u; i < USBUART_MAX_EP; ++i)
 302:.\Generated_Source\PSoC5/USBUART.c ****     {
 303:.\Generated_Source\PSoC5/USBUART.c ****         USBUART_DmaTd[i] = DMA_INVALID_TD;
 304:.\Generated_Source\PSoC5/USBUART.c **** 
 305:.\Generated_Source\PSoC5/USBUART.c ****     #if (USBUART_EP_MANAGEMENT_DMA_AUTO && (USBUART_EP_DMA_AUTO_OPT == 0u))
 306:.\Generated_Source\PSoC5/USBUART.c ****         USBUART_DmaNextTd[i] = DMA_INVALID_TD;
 307:.\Generated_Source\PSoC5/USBUART.c ****     #endif /* (USBUART_EP_MANAGEMENT_DMA_AUTO && (USBUART_EP_DMA_AUTO_OPT == 0u)) */
 308:.\Generated_Source\PSoC5/USBUART.c ****     }
 309:.\Generated_Source\PSoC5/USBUART.c **** #endif /* (USBUART_EP_MANAGEMENT_DMA) */
 310:.\Generated_Source\PSoC5/USBUART.c **** 
 311:.\Generated_Source\PSoC5/USBUART.c ****     CyExitCriticalSection(enableInterrupts);
 214              		.loc 1 311 0
 215 00de FB79     		ldrb	r3, [r7, #7]	@ zero_extendqisi2
 216 00e0 1846     		mov	r0, r3
 217 00e2 FFF7FEFF 		bl	CyExitCriticalSection
 312:.\Generated_Source\PSoC5/USBUART.c **** #endif /* (CY_PSOC4) */
 313:.\Generated_Source\PSoC5/USBUART.c **** 
 314:.\Generated_Source\PSoC5/USBUART.c ****     /* Configure interrupts from USB block. */
 315:.\Generated_Source\PSoC5/USBUART.c **** #if (CY_PSOC4)
 316:.\Generated_Source\PSoC5/USBUART.c ****     /* Configure hi_int: set handler and priority. */
 317:.\Generated_Source\PSoC5/USBUART.c ****     CyIntSetPriority     (USBUART_INTR_HI_VECT_NUM,  USBUART_INTR_HI_PRIORITY);
 318:.\Generated_Source\PSoC5/USBUART.c ****     (void) CyIntSetVector(USBUART_INTR_HI_VECT_NUM, &USBUART_INTR_HI_ISR);
 319:.\Generated_Source\PSoC5/USBUART.c **** 
 320:.\Generated_Source\PSoC5/USBUART.c ****     /* Configure lo_int: set handler and priority. */
 321:.\Generated_Source\PSoC5/USBUART.c ****     CyIntSetPriority     (USBUART_INTR_LO_VECT_NUM,  USBUART_INTR_LO_PRIORITY);
 322:.\Generated_Source\PSoC5/USBUART.c ****     (void) CyIntSetVector(USBUART_INTR_LO_VECT_NUM, &USBUART_INTR_LO_ISR);
 323:.\Generated_Source\PSoC5/USBUART.c **** 
 324:.\Generated_Source\PSoC5/USBUART.c ****     /* Configure med_int: set handler and priority (routed through DSI). */
 325:.\Generated_Source\PSoC5/USBUART.c ****     CyIntSetPriority     (USBUART_INTR_MED_VECT_NUM,  USBUART_INTR_MED_PRIORITY);
 326:.\Generated_Source\PSoC5/USBUART.c ****     (void) CyIntSetVector(USBUART_INTR_MED_VECT_NUM, &USBUART_INTR_MED_ISR);
 327:.\Generated_Source\PSoC5/USBUART.c **** 
 328:.\Generated_Source\PSoC5/USBUART.c **** #else
 329:.\Generated_Source\PSoC5/USBUART.c ****     /* Set bus reset interrupt. */
 330:.\Generated_Source\PSoC5/USBUART.c ****     CyIntSetPriority(USBUART_BUS_RESET_VECT_NUM, USBUART_BUS_RESET_PRIOR);
 218              		.loc 1 330 0
 219 00e6 1720     		movs	r0, #23
 220 00e8 0721     		movs	r1, #7
 221 00ea FFF7FEFF 		bl	CyIntSetPriority
 331:.\Generated_Source\PSoC5/USBUART.c ****     (void) CyIntSetVector(USBUART_BUS_RESET_VECT_NUM,   &USBUART_BUS_RESET_ISR);
 222              		.loc 1 331 0
 223 00ee 1720     		movs	r0, #23
 224 00f0 2449     		ldr	r1, .L6+40
 225 00f2 FFF7FEFF 		bl	CyIntSetVector
 332:.\Generated_Source\PSoC5/USBUART.c **** 
 333:.\Generated_Source\PSoC5/USBUART.c ****     /* Set Control Endpoint Interrupt. */
 334:.\Generated_Source\PSoC5/USBUART.c ****     CyIntSetPriority(USBUART_EP_0_VECT_NUM, USBUART_EP_0_PRIOR);
 226              		.loc 1 334 0
 227 00f6 1820     		movs	r0, #24
 228 00f8 0721     		movs	r1, #7
 229 00fa FFF7FEFF 		bl	CyIntSetPriority
 335:.\Generated_Source\PSoC5/USBUART.c ****     (void) CyIntSetVector(USBUART_EP_0_VECT_NUM,   &USBUART_EP_0_ISR);
 230              		.loc 1 335 0
 231 00fe 1820     		movs	r0, #24
 232 0100 2149     		ldr	r1, .L6+44
 233 0102 FFF7FEFF 		bl	CyIntSetVector
 336:.\Generated_Source\PSoC5/USBUART.c **** 
 337:.\Generated_Source\PSoC5/USBUART.c ****     /* Set SOF interrupt. */
ARM GAS  C:\Users\LUKASC~1\AppData\Local\Temp\ccwNUHtE.s 			page 11


 338:.\Generated_Source\PSoC5/USBUART.c ****     #if (USBUART_SOF_ISR_ACTIVE)
 339:.\Generated_Source\PSoC5/USBUART.c ****         CyIntSetPriority     (USBUART_SOF_VECT_NUM,  USBUART_SOF_PRIOR);
 234              		.loc 1 339 0
 235 0106 1520     		movs	r0, #21
 236 0108 0721     		movs	r1, #7
 237 010a FFF7FEFF 		bl	CyIntSetPriority
 340:.\Generated_Source\PSoC5/USBUART.c ****         (void) CyIntSetVector(USBUART_SOF_VECT_NUM, &USBUART_SOF_ISR);
 238              		.loc 1 340 0
 239 010e 1520     		movs	r0, #21
 240 0110 1E49     		ldr	r1, .L6+48
 241 0112 FFF7FEFF 		bl	CyIntSetVector
 341:.\Generated_Source\PSoC5/USBUART.c ****     #endif /* (USBUART_SOF_ISR_ACTIVE) */
 342:.\Generated_Source\PSoC5/USBUART.c **** 
 343:.\Generated_Source\PSoC5/USBUART.c ****     /* Set Data Endpoint 1 Interrupt. */
 344:.\Generated_Source\PSoC5/USBUART.c ****     #if (USBUART_EP1_ISR_ACTIVE)
 345:.\Generated_Source\PSoC5/USBUART.c ****         CyIntSetPriority     (USBUART_EP_1_VECT_NUM,  USBUART_EP_1_PRIOR);
 242              		.loc 1 345 0
 243 0116 0420     		movs	r0, #4
 244 0118 0721     		movs	r1, #7
 245 011a FFF7FEFF 		bl	CyIntSetPriority
 346:.\Generated_Source\PSoC5/USBUART.c ****         (void) CyIntSetVector(USBUART_EP_1_VECT_NUM,  &USBUART_EP_1_ISR);
 246              		.loc 1 346 0
 247 011e 0420     		movs	r0, #4
 248 0120 1B49     		ldr	r1, .L6+52
 249 0122 FFF7FEFF 		bl	CyIntSetVector
 347:.\Generated_Source\PSoC5/USBUART.c ****     #endif /* (USBUART_EP1_ISR_ACTIVE) */
 348:.\Generated_Source\PSoC5/USBUART.c **** 
 349:.\Generated_Source\PSoC5/USBUART.c ****     /* Set Data Endpoint 2 Interrupt. */
 350:.\Generated_Source\PSoC5/USBUART.c ****     #if (USBUART_EP2_ISR_ACTIVE)
 351:.\Generated_Source\PSoC5/USBUART.c ****         CyIntSetPriority     (USBUART_EP_2_VECT_NUM,  USBUART_EP_2_PRIOR);
 250              		.loc 1 351 0
 251 0126 0520     		movs	r0, #5
 252 0128 0721     		movs	r1, #7
 253 012a FFF7FEFF 		bl	CyIntSetPriority
 352:.\Generated_Source\PSoC5/USBUART.c ****         (void) CyIntSetVector(USBUART_EP_2_VECT_NUM, &USBUART_EP_2_ISR);
 254              		.loc 1 352 0
 255 012e 0520     		movs	r0, #5
 256 0130 1849     		ldr	r1, .L6+56
 257 0132 FFF7FEFF 		bl	CyIntSetVector
 353:.\Generated_Source\PSoC5/USBUART.c ****     #endif /* (USBUART_EP2_ISR_ACTIVE) */
 354:.\Generated_Source\PSoC5/USBUART.c **** 
 355:.\Generated_Source\PSoC5/USBUART.c ****     /* Set Data Endpoint 3 Interrupt. */
 356:.\Generated_Source\PSoC5/USBUART.c ****     #if (USBUART_EP3_ISR_ACTIVE)
 357:.\Generated_Source\PSoC5/USBUART.c ****         CyIntSetPriority     (USBUART_EP_3_VECT_NUM,  USBUART_EP_3_PRIOR);
 258              		.loc 1 357 0
 259 0136 0620     		movs	r0, #6
 260 0138 0721     		movs	r1, #7
 261 013a FFF7FEFF 		bl	CyIntSetPriority
 358:.\Generated_Source\PSoC5/USBUART.c ****         (void) CyIntSetVector(USBUART_EP_3_VECT_NUM, &USBUART_EP_3_ISR);
 262              		.loc 1 358 0
 263 013e 0620     		movs	r0, #6
 264 0140 1549     		ldr	r1, .L6+60
 265 0142 FFF7FEFF 		bl	CyIntSetVector
 359:.\Generated_Source\PSoC5/USBUART.c ****     #endif /* (USBUART_EP3_ISR_ACTIVE) */
 360:.\Generated_Source\PSoC5/USBUART.c **** 
 361:.\Generated_Source\PSoC5/USBUART.c ****     /* Set Data Endpoint 4 Interrupt. */
 362:.\Generated_Source\PSoC5/USBUART.c ****     #if (USBUART_EP4_ISR_ACTIVE)
ARM GAS  C:\Users\LUKASC~1\AppData\Local\Temp\ccwNUHtE.s 			page 12


 363:.\Generated_Source\PSoC5/USBUART.c ****         CyIntSetPriority     (USBUART_EP_4_VECT_NUM,  USBUART_EP_4_PRIOR);
 364:.\Generated_Source\PSoC5/USBUART.c ****         (void) CyIntSetVector(USBUART_EP_4_VECT_NUM, &USBUART_EP_4_ISR);
 365:.\Generated_Source\PSoC5/USBUART.c ****     #endif /* (USBUART_EP4_ISR_ACTIVE) */
 366:.\Generated_Source\PSoC5/USBUART.c **** 
 367:.\Generated_Source\PSoC5/USBUART.c ****     /* Set Data Endpoint 5 Interrupt. */
 368:.\Generated_Source\PSoC5/USBUART.c ****     #if (USBUART_EP5_ISR_ACTIVE)
 369:.\Generated_Source\PSoC5/USBUART.c ****         CyIntSetPriority     (USBUART_EP_5_VECT_NUM,  USBUART_EP_5_PRIOR);
 370:.\Generated_Source\PSoC5/USBUART.c ****         (void) CyIntSetVector(USBUART_EP_5_VECT_NUM, &USBUART_EP_5_ISR);
 371:.\Generated_Source\PSoC5/USBUART.c ****     #endif /* (USBUART_EP5_ISR_ACTIVE) */
 372:.\Generated_Source\PSoC5/USBUART.c **** 
 373:.\Generated_Source\PSoC5/USBUART.c ****     /* Set Data Endpoint 6 Interrupt. */
 374:.\Generated_Source\PSoC5/USBUART.c ****     #if (USBUART_EP6_ISR_ACTIVE)
 375:.\Generated_Source\PSoC5/USBUART.c ****         CyIntSetPriority     (USBUART_EP_6_VECT_NUM,  USBUART_EP_6_PRIOR);
 376:.\Generated_Source\PSoC5/USBUART.c ****         (void) CyIntSetVector(USBUART_EP_6_VECT_NUM, &USBUART_EP_6_ISR);
 377:.\Generated_Source\PSoC5/USBUART.c ****     #endif /* (USBUART_EP6_ISR_ACTIVE) */
 378:.\Generated_Source\PSoC5/USBUART.c **** 
 379:.\Generated_Source\PSoC5/USBUART.c ****      /* Set Data Endpoint 7 Interrupt. */
 380:.\Generated_Source\PSoC5/USBUART.c ****     #if (USBUART_EP7_ISR_ACTIVE)
 381:.\Generated_Source\PSoC5/USBUART.c ****         CyIntSetPriority     (USBUART_EP_7_VECT_NUM,  USBUART_EP_7_PRIOR);
 382:.\Generated_Source\PSoC5/USBUART.c ****         (void) CyIntSetVector(USBUART_EP_7_VECT_NUM, &USBUART_EP_7_ISR);
 383:.\Generated_Source\PSoC5/USBUART.c ****     #endif /* (USBUART_EP7_ISR_ACTIVE) */
 384:.\Generated_Source\PSoC5/USBUART.c **** 
 385:.\Generated_Source\PSoC5/USBUART.c ****     /* Set Data Endpoint 8 Interrupt. */
 386:.\Generated_Source\PSoC5/USBUART.c ****     #if (USBUART_EP8_ISR_ACTIVE)
 387:.\Generated_Source\PSoC5/USBUART.c ****         CyIntSetPriority     (USBUART_EP_8_VECT_NUM,  USBUART_EP_8_PRIOR);
 388:.\Generated_Source\PSoC5/USBUART.c ****         (void) CyIntSetVector(USBUART_EP_8_VECT_NUM, &USBUART_EP_8_ISR);
 389:.\Generated_Source\PSoC5/USBUART.c ****     #endif /* (USBUART_EP8_ISR_ACTIVE) */
 390:.\Generated_Source\PSoC5/USBUART.c **** 
 391:.\Generated_Source\PSoC5/USBUART.c ****     /* Set ARB Interrupt. */
 392:.\Generated_Source\PSoC5/USBUART.c ****     #if (USBUART_EP_MANAGEMENT_DMA && USBUART_ARB_ISR_ACTIVE)
 393:.\Generated_Source\PSoC5/USBUART.c ****         CyIntSetPriority     (USBUART_ARB_VECT_NUM,  USBUART_ARB_PRIOR);
 394:.\Generated_Source\PSoC5/USBUART.c ****         (void) CyIntSetVector(USBUART_ARB_VECT_NUM, &USBUART_ARB_ISR);
 395:.\Generated_Source\PSoC5/USBUART.c ****     #endif /* (USBUART_EP_MANAGEMENT_DMA && USBUART_ARB_ISR_ACTIVE) */
 396:.\Generated_Source\PSoC5/USBUART.c **** #endif /* (CY_PSOC4) */
 397:.\Generated_Source\PSoC5/USBUART.c **** 
 398:.\Generated_Source\PSoC5/USBUART.c ****     /* Common: Configure GPIO interrupt for wakeup. */
 399:.\Generated_Source\PSoC5/USBUART.c **** #if (USBUART_DP_ISR_ACTIVE)
 400:.\Generated_Source\PSoC5/USBUART.c ****     CyIntSetPriority     (USBUART_DP_INTC_VECT_NUM,  USBUART_DP_INTC_PRIORITY);
 266              		.loc 1 400 0
 267 0146 0C20     		movs	r0, #12
 268 0148 0721     		movs	r1, #7
 269 014a FFF7FEFF 		bl	CyIntSetPriority
 401:.\Generated_Source\PSoC5/USBUART.c ****     (void) CyIntSetVector(USBUART_DP_INTC_VECT_NUM, &USBUART_DP_ISR);
 270              		.loc 1 401 0
 271 014e 0C20     		movs	r0, #12
 272 0150 1249     		ldr	r1, .L6+64
 273 0152 FFF7FEFF 		bl	CyIntSetVector
 402:.\Generated_Source\PSoC5/USBUART.c **** #endif /* (USBUART_DP_ISR_ACTIVE) */
 403:.\Generated_Source\PSoC5/USBUART.c **** 
 404:.\Generated_Source\PSoC5/USBUART.c **** #if (USBUART_EP_MANAGEMENT_DMA && CY_PSOC4)
 405:.\Generated_Source\PSoC5/USBUART.c ****     /* Initialize DMA channels. */
 406:.\Generated_Source\PSoC5/USBUART.c ****     USBUART_InitEpDma();
 407:.\Generated_Source\PSoC5/USBUART.c **** #endif /* (USBUART_EP_MANAGEMENT_DMA && CY_PSOC4) */
 408:.\Generated_Source\PSoC5/USBUART.c **** }
 274              		.loc 1 408 0
 275 0156 0837     		adds	r7, r7, #8
 276              		.cfi_def_cfa_offset 8
ARM GAS  C:\Users\LUKASC~1\AppData\Local\Temp\ccwNUHtE.s 			page 13


 277 0158 BD46     		mov	sp, r7
 278              		.cfi_def_cfa_register 13
 279              		@ sp needed
 280 015a 80BD     		pop	{r7, pc}
 281              	.L7:
 282              		.align	2
 283              	.L6:
 284 015c A5430040 		.word	1073759141
 285 0160 B5430040 		.word	1073759157
 286 0164 9D600040 		.word	1073766557
 287 0168 09600040 		.word	1073766409
 288 016c 10600040 		.word	1073766416
 289 0170 94430040 		.word	1073759124
 290 0174 12600040 		.word	1073766418
 291 0178 F8510040 		.word	1073762808
 292 017c 84600040 		.word	1073766532
 293 0180 85600040 		.word	1073766533
 294 0184 00000000 		.word	USBUART_BUS_RESET_ISR
 295 0188 00000000 		.word	USBUART_EP_0_ISR
 296 018c 00000000 		.word	USBUART_SOF_ISR
 297 0190 00000000 		.word	USBUART_EP_1_ISR
 298 0194 00000000 		.word	USBUART_EP_2_ISR
 299 0198 00000000 		.word	USBUART_EP_3_ISR
 300 019c 00000000 		.word	USBUART_DP_ISR
 301              		.cfi_endproc
 302              	.LFE1:
 303              		.size	USBUART_Init, .-USBUART_Init
 304              		.section	.text.USBUART_InitComponent,"ax",%progbits
 305              		.align	2
 306              		.global	USBUART_InitComponent
 307              		.thumb
 308              		.thumb_func
 309              		.type	USBUART_InitComponent, %function
 310              	USBUART_InitComponent:
 311              	.LFB2:
 409:.\Generated_Source\PSoC5/USBUART.c **** 
 410:.\Generated_Source\PSoC5/USBUART.c **** 
 411:.\Generated_Source\PSoC5/USBUART.c **** /*******************************************************************************
 412:.\Generated_Source\PSoC5/USBUART.c **** * Function Name: USBUART_InitComponent
 413:.\Generated_Source\PSoC5/USBUART.c **** ****************************************************************************//**
 414:.\Generated_Source\PSoC5/USBUART.c **** *
 415:.\Generated_Source\PSoC5/USBUART.c **** *   This function initializes the component’s global variables and initiates
 416:.\Generated_Source\PSoC5/USBUART.c **** *   communication with the host by pull-up D+ line.
 417:.\Generated_Source\PSoC5/USBUART.c **** *
 418:.\Generated_Source\PSoC5/USBUART.c **** * \param device:
 419:.\Generated_Source\PSoC5/USBUART.c **** *   Contains the device number of the desired device descriptor. The device
 420:.\Generated_Source\PSoC5/USBUART.c **** *   number can be found in the Device Descriptor Tab of "Configure" dialog,
 421:.\Generated_Source\PSoC5/USBUART.c **** *   under the settings of desired Device Descriptor, in the *Device Number*
 422:.\Generated_Source\PSoC5/USBUART.c **** *   field.
 423:.\Generated_Source\PSoC5/USBUART.c **** *  \param mode:
 424:.\Generated_Source\PSoC5/USBUART.c **** *   The operating voltage. This determines whether the voltage regulator
 425:.\Generated_Source\PSoC5/USBUART.c **** *   is enabled for 5V operation or if pass through mode is used for 3.3V
 426:.\Generated_Source\PSoC5/USBUART.c **** *   operation. Symbolic names and their associated values are given in the
 427:.\Generated_Source\PSoC5/USBUART.c **** *   following list.
 428:.\Generated_Source\PSoC5/USBUART.c **** *
 429:.\Generated_Source\PSoC5/USBUART.c **** *       *USBUART_3V_OPERATION* - Disable voltage regulator and pass-
 430:.\Generated_Source\PSoC5/USBUART.c **** *                                      through Vcc for pull-up
ARM GAS  C:\Users\LUKASC~1\AppData\Local\Temp\ccwNUHtE.s 			page 14


 431:.\Generated_Source\PSoC5/USBUART.c **** *
 432:.\Generated_Source\PSoC5/USBUART.c **** *       *USBUART_5V_OPERATION* - Enable voltage regulator and use
 433:.\Generated_Source\PSoC5/USBUART.c **** *                                      regulator for pull-up
 434:.\Generated_Source\PSoC5/USBUART.c **** *
 435:.\Generated_Source\PSoC5/USBUART.c **** *       *USBUART_DWR_POWER_OPERATION* - Enable or disable the voltage
 436:.\Generated_Source\PSoC5/USBUART.c **** *                                      regulator depending on the power supply
 437:.\Generated_Source\PSoC5/USBUART.c **** *                                      voltage configuration in the DWR tab.
 438:.\Generated_Source\PSoC5/USBUART.c **** *                                      For PSoC 3/5LP devices, the VDDD supply
 439:.\Generated_Source\PSoC5/USBUART.c **** *                                      voltage is considered and for PSoC 4A-L,
 440:.\Generated_Source\PSoC5/USBUART.c **** *                                      the VBUS supply voltage is considered.
 441:.\Generated_Source\PSoC5/USBUART.c **** *
 442:.\Generated_Source\PSoC5/USBUART.c **** * \globalvars
 443:.\Generated_Source\PSoC5/USBUART.c **** *   \ref USBUART_device
 444:.\Generated_Source\PSoC5/USBUART.c **** *   \ref USBUART_transferState
 445:.\Generated_Source\PSoC5/USBUART.c **** *   \ref USBUART_configuration
 446:.\Generated_Source\PSoC5/USBUART.c **** *   \ref USBUART_deviceStatus
 447:.\Generated_Source\PSoC5/USBUART.c **** *
 448:.\Generated_Source\PSoC5/USBUART.c **** *   \ref USBUART_deviceAddress - Contains the current device address. This
 449:.\Generated_Source\PSoC5/USBUART.c **** *       variable is initialized to zero in this API. The Host starts to communicate
 450:.\Generated_Source\PSoC5/USBUART.c **** *      to the device with address 0 and then sets it to a whatever value using a
 451:.\Generated_Source\PSoC5/USBUART.c **** *      SET_ADDRESS request.
 452:.\Generated_Source\PSoC5/USBUART.c **** *
 453:.\Generated_Source\PSoC5/USBUART.c **** *   \ref USBUART_lastPacketSize - Initialized to 0;
 454:.\Generated_Source\PSoC5/USBUART.c **** *
 455:.\Generated_Source\PSoC5/USBUART.c **** * \reentrant
 456:.\Generated_Source\PSoC5/USBUART.c **** *  No.
 457:.\Generated_Source\PSoC5/USBUART.c **** *
 458:.\Generated_Source\PSoC5/USBUART.c **** *******************************************************************************/
 459:.\Generated_Source\PSoC5/USBUART.c **** void USBUART_InitComponent(uint8 device, uint8 mode) 
 460:.\Generated_Source\PSoC5/USBUART.c **** {
 312              		.loc 1 460 0
 313              		.cfi_startproc
 314              		@ args = 0, pretend = 0, frame = 16
 315              		@ frame_needed = 1, uses_anonymous_args = 0
 316 0000 80B5     		push	{r7, lr}
 317              		.cfi_def_cfa_offset 8
 318              		.cfi_offset 7, -8
 319              		.cfi_offset 14, -4
 320 0002 84B0     		sub	sp, sp, #16
 321              		.cfi_def_cfa_offset 24
 322 0004 00AF     		add	r7, sp, #0
 323              		.cfi_def_cfa_register 7
 324 0006 0346     		mov	r3, r0
 325 0008 0A46     		mov	r2, r1
 326 000a FB71     		strb	r3, [r7, #7]
 327 000c 1346     		mov	r3, r2
 328 000e BB71     		strb	r3, [r7, #6]
 461:.\Generated_Source\PSoC5/USBUART.c ****     /* Initialize _hidProtocol variable to comply with
 462:.\Generated_Source\PSoC5/USBUART.c ****     *  HID 7.2.6 Set_Protocol Request:
 463:.\Generated_Source\PSoC5/USBUART.c ****     *  "When initialized, all devices default to report protocol."
 464:.\Generated_Source\PSoC5/USBUART.c ****     */
 465:.\Generated_Source\PSoC5/USBUART.c **** #if defined(USBUART_ENABLE_HID_CLASS)
 466:.\Generated_Source\PSoC5/USBUART.c ****     uint8 i;
 467:.\Generated_Source\PSoC5/USBUART.c **** 
 468:.\Generated_Source\PSoC5/USBUART.c ****     for (i = 0u; i < USBUART_MAX_INTERFACES_NUMBER; i++)
 329              		.loc 1 468 0
 330 0010 0023     		movs	r3, #0
ARM GAS  C:\Users\LUKASC~1\AppData\Local\Temp\ccwNUHtE.s 			page 15


 331 0012 FB73     		strb	r3, [r7, #15]
 332 0014 06E0     		b	.L9
 333              	.L10:
 469:.\Generated_Source\PSoC5/USBUART.c ****     {
 470:.\Generated_Source\PSoC5/USBUART.c ****         USBUART_hidProtocol[i] = USBUART_PROTOCOL_REPORT;
 334              		.loc 1 470 0 discriminator 3
 335 0016 FB7B     		ldrb	r3, [r7, #15]	@ zero_extendqisi2
 336 0018 324A     		ldr	r2, .L16
 337 001a 0121     		movs	r1, #1
 338 001c D154     		strb	r1, [r2, r3]
 468:.\Generated_Source\PSoC5/USBUART.c ****     {
 339              		.loc 1 468 0 discriminator 3
 340 001e FB7B     		ldrb	r3, [r7, #15]	@ zero_extendqisi2
 341 0020 0133     		adds	r3, r3, #1
 342 0022 FB73     		strb	r3, [r7, #15]
 343              	.L9:
 468:.\Generated_Source\PSoC5/USBUART.c ****     {
 344              		.loc 1 468 0 is_stmt 0 discriminator 1
 345 0024 FB7B     		ldrb	r3, [r7, #15]	@ zero_extendqisi2
 346 0026 012B     		cmp	r3, #1
 347 0028 F5D9     		bls	.L10
 471:.\Generated_Source\PSoC5/USBUART.c ****     }
 472:.\Generated_Source\PSoC5/USBUART.c **** #endif /* USBUART_ENABLE_HID_CLASS */
 473:.\Generated_Source\PSoC5/USBUART.c **** 
 474:.\Generated_Source\PSoC5/USBUART.c ****     /* Store device number to access descriptor. */
 475:.\Generated_Source\PSoC5/USBUART.c ****     USBUART_device = device;
 348              		.loc 1 475 0 is_stmt 1
 349 002a 2F4A     		ldr	r2, .L16+4
 350 002c FB79     		ldrb	r3, [r7, #7]
 351 002e 1370     		strb	r3, [r2]
 476:.\Generated_Source\PSoC5/USBUART.c **** 
 477:.\Generated_Source\PSoC5/USBUART.c ****     /* Reset component internal variables. */
 478:.\Generated_Source\PSoC5/USBUART.c ****     USBUART_transferState   = USBUART_TRANS_STATE_IDLE;
 352              		.loc 1 478 0
 353 0030 2E4B     		ldr	r3, .L16+8
 354 0032 0022     		movs	r2, #0
 355 0034 1A70     		strb	r2, [r3]
 479:.\Generated_Source\PSoC5/USBUART.c ****     USBUART_configurationChanged = 0u;
 356              		.loc 1 479 0
 357 0036 2E4B     		ldr	r3, .L16+12
 358 0038 0022     		movs	r2, #0
 359 003a 1A70     		strb	r2, [r3]
 480:.\Generated_Source\PSoC5/USBUART.c ****     USBUART_configuration   = 0u;
 360              		.loc 1 480 0
 361 003c 2D4B     		ldr	r3, .L16+16
 362 003e 0022     		movs	r2, #0
 363 0040 1A70     		strb	r2, [r3]
 481:.\Generated_Source\PSoC5/USBUART.c ****     USBUART_interfaceNumber = 0u;
 364              		.loc 1 481 0
 365 0042 2D4B     		ldr	r3, .L16+20
 366 0044 0022     		movs	r2, #0
 367 0046 1A70     		strb	r2, [r3]
 482:.\Generated_Source\PSoC5/USBUART.c ****     USBUART_deviceAddress   = 0u;
 368              		.loc 1 482 0
 369 0048 2C4B     		ldr	r3, .L16+24
 370 004a 0022     		movs	r2, #0
 371 004c 1A70     		strb	r2, [r3]
ARM GAS  C:\Users\LUKASC~1\AppData\Local\Temp\ccwNUHtE.s 			page 16


 483:.\Generated_Source\PSoC5/USBUART.c ****     USBUART_deviceStatus    = 0u;
 372              		.loc 1 483 0
 373 004e 2C4B     		ldr	r3, .L16+28
 374 0050 0022     		movs	r2, #0
 375 0052 1A70     		strb	r2, [r3]
 484:.\Generated_Source\PSoC5/USBUART.c ****     USBUART_lastPacketSize  = 0u;
 376              		.loc 1 484 0
 377 0054 2B4B     		ldr	r3, .L16+32
 378 0056 0022     		movs	r2, #0
 379 0058 1A70     		strb	r2, [r3]
 485:.\Generated_Source\PSoC5/USBUART.c **** 
 486:.\Generated_Source\PSoC5/USBUART.c ****     /* Enable component interrupts. */
 487:.\Generated_Source\PSoC5/USBUART.c **** #if (CY_PSOC4)
 488:.\Generated_Source\PSoC5/USBUART.c ****     CyIntEnable(USBUART_INTR_HI_VECT_NUM);
 489:.\Generated_Source\PSoC5/USBUART.c ****     CyIntEnable(USBUART_INTR_MED_VECT_NUM);
 490:.\Generated_Source\PSoC5/USBUART.c ****     CyIntEnable(USBUART_INTR_LO_VECT_NUM);
 491:.\Generated_Source\PSoC5/USBUART.c **** #else
 492:.\Generated_Source\PSoC5/USBUART.c ****     CyIntEnable(USBUART_BUS_RESET_VECT_NUM);
 380              		.loc 1 492 0
 381 005a 2B4B     		ldr	r3, .L16+36
 382 005c 4FF40002 		mov	r2, #8388608
 383 0060 1A60     		str	r2, [r3]
 493:.\Generated_Source\PSoC5/USBUART.c ****     CyIntEnable(USBUART_EP_0_VECT_NUM);
 384              		.loc 1 493 0
 385 0062 294B     		ldr	r3, .L16+36
 386 0064 4FF08072 		mov	r2, #16777216
 387 0068 1A60     		str	r2, [r3]
 494:.\Generated_Source\PSoC5/USBUART.c **** 
 495:.\Generated_Source\PSoC5/USBUART.c ****     #if (USBUART_SOF_ISR_ACTIVE)
 496:.\Generated_Source\PSoC5/USBUART.c ****         CyIntEnable(USBUART_SOF_VECT_NUM);
 388              		.loc 1 496 0
 389 006a 274B     		ldr	r3, .L16+36
 390 006c 4FF40012 		mov	r2, #2097152
 391 0070 1A60     		str	r2, [r3]
 497:.\Generated_Source\PSoC5/USBUART.c ****     #endif /* (USBUART_SOF_ISR_ACTIVE) */
 498:.\Generated_Source\PSoC5/USBUART.c **** 
 499:.\Generated_Source\PSoC5/USBUART.c ****     #if (USBUART_EP1_ISR_ACTIVE)
 500:.\Generated_Source\PSoC5/USBUART.c ****         CyIntEnable(USBUART_EP_1_VECT_NUM);
 392              		.loc 1 500 0
 393 0072 254B     		ldr	r3, .L16+36
 394 0074 1022     		movs	r2, #16
 395 0076 1A60     		str	r2, [r3]
 501:.\Generated_Source\PSoC5/USBUART.c ****     #endif /* (USBUART_EP1_ISR_ACTIVE) */
 502:.\Generated_Source\PSoC5/USBUART.c **** 
 503:.\Generated_Source\PSoC5/USBUART.c ****     #if (USBUART_EP2_ISR_ACTIVE)
 504:.\Generated_Source\PSoC5/USBUART.c ****         CyIntEnable(USBUART_EP_2_VECT_NUM);
 396              		.loc 1 504 0
 397 0078 234B     		ldr	r3, .L16+36
 398 007a 2022     		movs	r2, #32
 399 007c 1A60     		str	r2, [r3]
 505:.\Generated_Source\PSoC5/USBUART.c ****     #endif /* (USBUART_EP5_ISR_ACTIVE) */
 506:.\Generated_Source\PSoC5/USBUART.c **** 
 507:.\Generated_Source\PSoC5/USBUART.c ****     #if (USBUART_EP3_ISR_ACTIVE)
 508:.\Generated_Source\PSoC5/USBUART.c ****         CyIntEnable(USBUART_EP_3_VECT_NUM);
 400              		.loc 1 508 0
 401 007e 224B     		ldr	r3, .L16+36
 402 0080 4022     		movs	r2, #64
ARM GAS  C:\Users\LUKASC~1\AppData\Local\Temp\ccwNUHtE.s 			page 17


 403 0082 1A60     		str	r2, [r3]
 509:.\Generated_Source\PSoC5/USBUART.c ****     #endif /* (USBUART_EP5_ISR_ACTIVE) */
 510:.\Generated_Source\PSoC5/USBUART.c **** 
 511:.\Generated_Source\PSoC5/USBUART.c ****     #if (USBUART_EP4_ISR_ACTIVE)
 512:.\Generated_Source\PSoC5/USBUART.c ****         CyIntEnable(USBUART_EP_4_VECT_NUM);
 513:.\Generated_Source\PSoC5/USBUART.c ****     #endif /* (USBUART_EP5_ISR_ACTIVE) */
 514:.\Generated_Source\PSoC5/USBUART.c **** 
 515:.\Generated_Source\PSoC5/USBUART.c ****     #if (USBUART_EP5_ISR_ACTIVE)
 516:.\Generated_Source\PSoC5/USBUART.c ****         CyIntEnable(USBUART_EP_5_VECT_NUM);
 517:.\Generated_Source\PSoC5/USBUART.c ****     #endif /* (USBUART_EP5_ISR_ACTIVE) */
 518:.\Generated_Source\PSoC5/USBUART.c **** 
 519:.\Generated_Source\PSoC5/USBUART.c ****     #if (USBUART_EP6_ISR_ACTIVE)
 520:.\Generated_Source\PSoC5/USBUART.c ****         CyIntEnable(USBUART_EP_6_VECT_NUM);
 521:.\Generated_Source\PSoC5/USBUART.c ****     #endif /* USBUART_EP6_ISR_REMOVE */
 522:.\Generated_Source\PSoC5/USBUART.c **** 
 523:.\Generated_Source\PSoC5/USBUART.c ****     #if (USBUART_EP7_ISR_ACTIVE)
 524:.\Generated_Source\PSoC5/USBUART.c ****         CyIntEnable(USBUART_EP_7_VECT_NUM);
 525:.\Generated_Source\PSoC5/USBUART.c ****     #endif /* (USBUART_EP7_ISR_ACTIVE) */
 526:.\Generated_Source\PSoC5/USBUART.c **** 
 527:.\Generated_Source\PSoC5/USBUART.c ****     #if (USBUART_EP8_ISR_ACTIVE)
 528:.\Generated_Source\PSoC5/USBUART.c ****         CyIntEnable(USBUART_EP_8_VECT_NUM);
 529:.\Generated_Source\PSoC5/USBUART.c ****     #endif /* (USBUART_EP8_ISR_ACTIVE) */
 530:.\Generated_Source\PSoC5/USBUART.c **** #endif /* (CY_PSOC4) */
 531:.\Generated_Source\PSoC5/USBUART.c **** 
 532:.\Generated_Source\PSoC5/USBUART.c **** #if (USBUART_EP_MANAGEMENT_DMA && USBUART_ARB_ISR_ACTIVE)
 533:.\Generated_Source\PSoC5/USBUART.c ****     /* Enable ARB EP interrupt sources. */
 534:.\Generated_Source\PSoC5/USBUART.c ****     USBUART_ARB_INT_EN_REG = USBUART_DEFAULT_ARB_INT_EN;
 535:.\Generated_Source\PSoC5/USBUART.c **** 
 536:.\Generated_Source\PSoC5/USBUART.c ****     #if (CY_PSOC3 || CY_PSOC5)
 537:.\Generated_Source\PSoC5/USBUART.c ****         CyIntEnable(USBUART_ARB_VECT_NUM);
 538:.\Generated_Source\PSoC5/USBUART.c ****     #endif /* (CY_PSOC3 || CY_PSOC5) */
 539:.\Generated_Source\PSoC5/USBUART.c **** #endif   /* (USBUART_EP_MANAGEMENT_DMA && USBUART_ARB_ISR_ACTIVE) */
 540:.\Generated_Source\PSoC5/USBUART.c **** 
 541:.\Generated_Source\PSoC5/USBUART.c **** /* Arbiter configuration for DMA transfers. */
 542:.\Generated_Source\PSoC5/USBUART.c **** #if (USBUART_EP_MANAGEMENT_DMA)
 543:.\Generated_Source\PSoC5/USBUART.c ****     /* Configure Arbiter for Manual or Auto DMA operation and clear configuration completion. */
 544:.\Generated_Source\PSoC5/USBUART.c ****     USBUART_ARB_CFG_REG = USBUART_DEFAULT_ARB_CFG;
 545:.\Generated_Source\PSoC5/USBUART.c **** 
 546:.\Generated_Source\PSoC5/USBUART.c ****     #if (CY_PSOC4)
 547:.\Generated_Source\PSoC5/USBUART.c ****         /* Enable DMA operation. */
 548:.\Generated_Source\PSoC5/USBUART.c ****         CyDmaEnable();
 549:.\Generated_Source\PSoC5/USBUART.c **** 
 550:.\Generated_Source\PSoC5/USBUART.c ****         #if (USBUART_EP_MANAGEMENT_DMA_AUTO)
 551:.\Generated_Source\PSoC5/USBUART.c ****             /* Change DMA priority to be highest. */
 552:.\Generated_Source\PSoC5/USBUART.c ****              CyIntSetPriority(CYDMA_INTR_NUMBER, USBUART_DMA_AUTO_INTR_PRIO);
 553:.\Generated_Source\PSoC5/USBUART.c ****         #endif /* (USBUART_EP_MANAGEMENT_DMA_AUTO) */
 554:.\Generated_Source\PSoC5/USBUART.c ****     #endif /* (CY_PSOC4) */
 555:.\Generated_Source\PSoC5/USBUART.c **** 
 556:.\Generated_Source\PSoC5/USBUART.c ****     #if (USBUART_EP_MANAGEMENT_DMA_AUTO)
 557:.\Generated_Source\PSoC5/USBUART.c ****         #if (CY_PSOC4)
 558:.\Generated_Source\PSoC5/USBUART.c ****             /* Enable DMA interrupt to handle DMA management. */
 559:.\Generated_Source\PSoC5/USBUART.c ****             CyIntEnable(CYDMA_INTR_NUMBER);
 560:.\Generated_Source\PSoC5/USBUART.c ****         #else
 561:.\Generated_Source\PSoC5/USBUART.c ****             #if (USBUART_EP_DMA_AUTO_OPT == 0u)
 562:.\Generated_Source\PSoC5/USBUART.c ****                 /* Initialize interrupts which handle verification of successful DMA transaction. *
 563:.\Generated_Source\PSoC5/USBUART.c ****                 USBUART_EP_DMA_Done_isr_StartEx(&USBUART_EP_DMA_DONE_ISR);
 564:.\Generated_Source\PSoC5/USBUART.c ****                 USBUART_EP17_DMA_Done_SR_InterruptEnable();
ARM GAS  C:\Users\LUKASC~1\AppData\Local\Temp\ccwNUHtE.s 			page 18


 565:.\Generated_Source\PSoC5/USBUART.c ****                 USBUART_EP8_DMA_Done_SR_InterruptEnable();
 566:.\Generated_Source\PSoC5/USBUART.c ****             #endif /* (USBUART_EP_DMA_AUTO_OPT == 0u) */
 567:.\Generated_Source\PSoC5/USBUART.c ****         #endif /* (CY_PSOC4) */
 568:.\Generated_Source\PSoC5/USBUART.c ****     #endif /* (USBUART_EP_MANAGEMENT_DMA_AUTO) */
 569:.\Generated_Source\PSoC5/USBUART.c **** #endif /* (USBUART_EP_MANAGEMENT_DMA) */
 570:.\Generated_Source\PSoC5/USBUART.c **** 
 571:.\Generated_Source\PSoC5/USBUART.c ****     /* Enable USB regulator depends on operation voltage. IMO Locking is enabled in Init(). */
 572:.\Generated_Source\PSoC5/USBUART.c ****     switch(mode)
 404              		.loc 1 572 0
 405 0084 BB79     		ldrb	r3, [r7, #6]	@ zero_extendqisi2
 406 0086 002B     		cmp	r3, #0
 407 0088 02D0     		beq	.L12
 408 008a 012B     		cmp	r3, #1
 409 008c 09D0     		beq	.L13
 410 008e 11E0     		b	.L15
 411              	.L12:
 573:.\Generated_Source\PSoC5/USBUART.c ****     {
 574:.\Generated_Source\PSoC5/USBUART.c ****     case USBUART_3V_OPERATION:
 575:.\Generated_Source\PSoC5/USBUART.c ****         /* Disable regulator for 3V operation. */
 576:.\Generated_Source\PSoC5/USBUART.c ****         USBUART_CR1_REG &= (uint8) ~USBUART_CR1_REG_ENABLE;
 412              		.loc 1 576 0
 413 0090 1E4A     		ldr	r2, .L16+40
 414 0092 1E4B     		ldr	r3, .L16+40
 415 0094 1B78     		ldrb	r3, [r3]
 416 0096 DBB2     		uxtb	r3, r3
 417 0098 23F00103 		bic	r3, r3, #1
 418 009c DBB2     		uxtb	r3, r3
 419 009e 1370     		strb	r3, [r2]
 577:.\Generated_Source\PSoC5/USBUART.c ****         break;
 420              		.loc 1 577 0
 421 00a0 11E0     		b	.L14
 422              	.L13:
 578:.\Generated_Source\PSoC5/USBUART.c **** 
 579:.\Generated_Source\PSoC5/USBUART.c ****     case USBUART_5V_OPERATION:
 580:.\Generated_Source\PSoC5/USBUART.c ****         /* Enable regulator for 5V operation. */
 581:.\Generated_Source\PSoC5/USBUART.c ****         USBUART_CR1_REG |= (uint8)  USBUART_CR1_REG_ENABLE;
 423              		.loc 1 581 0
 424 00a2 1A4A     		ldr	r2, .L16+40
 425 00a4 194B     		ldr	r3, .L16+40
 426 00a6 1B78     		ldrb	r3, [r3]
 427 00a8 DBB2     		uxtb	r3, r3
 428 00aa 43F00103 		orr	r3, r3, #1
 429 00ae DBB2     		uxtb	r3, r3
 430 00b0 1370     		strb	r3, [r2]
 582:.\Generated_Source\PSoC5/USBUART.c ****         break;
 431              		.loc 1 582 0
 432 00b2 08E0     		b	.L14
 433              	.L15:
 583:.\Generated_Source\PSoC5/USBUART.c **** 
 584:.\Generated_Source\PSoC5/USBUART.c ****     default: /* Check DWR settings of USB power supply. */
 585:.\Generated_Source\PSoC5/USBUART.c ****     #if (USBUART_VDDD_MV < USBUART_3500MV)
 586:.\Generated_Source\PSoC5/USBUART.c ****         /* Disable regulator for 3V operation. */
 587:.\Generated_Source\PSoC5/USBUART.c ****         USBUART_CR1_REG &= (uint8) ~USBUART_CR1_REG_ENABLE;
 588:.\Generated_Source\PSoC5/USBUART.c ****     #else
 589:.\Generated_Source\PSoC5/USBUART.c ****         /* Enable regulator for 5V operation. */
 590:.\Generated_Source\PSoC5/USBUART.c ****         USBUART_CR1_REG |= (uint8)  USBUART_CR1_REG_ENABLE;
 434              		.loc 1 590 0
ARM GAS  C:\Users\LUKASC~1\AppData\Local\Temp\ccwNUHtE.s 			page 19


 435 00b4 154A     		ldr	r2, .L16+40
 436 00b6 154B     		ldr	r3, .L16+40
 437 00b8 1B78     		ldrb	r3, [r3]
 438 00ba DBB2     		uxtb	r3, r3
 439 00bc 43F00103 		orr	r3, r3, #1
 440 00c0 DBB2     		uxtb	r3, r3
 441 00c2 1370     		strb	r3, [r2]
 591:.\Generated_Source\PSoC5/USBUART.c ****     #endif /* (USBUART_VDDD_MV < USBUART_3500MV) */
 592:.\Generated_Source\PSoC5/USBUART.c ****         break;
 442              		.loc 1 592 0
 443 00c4 00BF     		nop
 444              	.L14:
 593:.\Generated_Source\PSoC5/USBUART.c ****     }
 594:.\Generated_Source\PSoC5/USBUART.c **** 
 595:.\Generated_Source\PSoC5/USBUART.c **** #if (CY_PSOC4)
 596:.\Generated_Source\PSoC5/USBUART.c ****     /* Clear bus activity. */
 597:.\Generated_Source\PSoC5/USBUART.c ****     USBUART_CR1_REG &= (uint32) ~USBUART_CR1_BUS_ACTIVITY;
 598:.\Generated_Source\PSoC5/USBUART.c **** 
 599:.\Generated_Source\PSoC5/USBUART.c ****     /* Clear EP0 count register. */
 600:.\Generated_Source\PSoC5/USBUART.c ****     USBUART_EP0_CNT_REG = USBUART_CLEAR_REG;
 601:.\Generated_Source\PSoC5/USBUART.c **** 
 602:.\Generated_Source\PSoC5/USBUART.c ****     /* Set EP0.CR: ACK Setup, NAK IN/OUT. */
 603:.\Generated_Source\PSoC5/USBUART.c ****     USBUART_EP0_CR_REG = USBUART_MODE_NAK_IN_OUT;
 604:.\Generated_Source\PSoC5/USBUART.c **** 
 605:.\Generated_Source\PSoC5/USBUART.c ****     #if (USBUART_LPM_ACTIVE)
 606:.\Generated_Source\PSoC5/USBUART.c ****         if (NULL != USBUART_GetBOSPtr())
 607:.\Generated_Source\PSoC5/USBUART.c ****         {
 608:.\Generated_Source\PSoC5/USBUART.c ****             /* Enable LPM and acknowledge LPM packets for active device.
 609:.\Generated_Source\PSoC5/USBUART.c ****             * Reset NYET_EN and SUB_RESP bits in the LPM_CTRL register.
 610:.\Generated_Source\PSoC5/USBUART.c ****             */
 611:.\Generated_Source\PSoC5/USBUART.c ****             USBUART_LPM_CTRL_REG = (USBUART_LPM_CTRL_LPM_EN | \
 612:.\Generated_Source\PSoC5/USBUART.c ****                                              USBUART_LPM_CTRL_LPM_ACK_RESP);
 613:.\Generated_Source\PSoC5/USBUART.c ****         }
 614:.\Generated_Source\PSoC5/USBUART.c ****         else
 615:.\Generated_Source\PSoC5/USBUART.c ****         {
 616:.\Generated_Source\PSoC5/USBUART.c ****             /* Disable LPM for active device. */
 617:.\Generated_Source\PSoC5/USBUART.c ****             USBUART_LPM_CTRL_REG &= (uint32) ~USBUART_LPM_CTRL_LPM_EN;
 618:.\Generated_Source\PSoC5/USBUART.c ****         }
 619:.\Generated_Source\PSoC5/USBUART.c ****     #endif /* (USBUART_LPM_ACTIVE) */
 620:.\Generated_Source\PSoC5/USBUART.c **** 
 621:.\Generated_Source\PSoC5/USBUART.c ****     /* Enable device to responds to USB traffic with address 0. */
 622:.\Generated_Source\PSoC5/USBUART.c ****     USBUART_CR0_REG = USBUART_DEFUALT_CR0;
 623:.\Generated_Source\PSoC5/USBUART.c **** 
 624:.\Generated_Source\PSoC5/USBUART.c **** #else
 625:.\Generated_Source\PSoC5/USBUART.c ****     /* Set EP0.CR: ACK Setup, STALL IN/OUT. */
 626:.\Generated_Source\PSoC5/USBUART.c ****     USBUART_EP0_CR_REG = USBUART_MODE_STALL_IN_OUT;
 445              		.loc 1 626 0
 446 00c6 124B     		ldr	r3, .L16+44
 447 00c8 0322     		movs	r2, #3
 448 00ca 1A70     		strb	r2, [r3]
 627:.\Generated_Source\PSoC5/USBUART.c **** 
 628:.\Generated_Source\PSoC5/USBUART.c ****     /* Enable device to respond to USB traffic with address 0. */
 629:.\Generated_Source\PSoC5/USBUART.c ****     USBUART_CR0_REG = USBUART_DEFUALT_CR0;
 449              		.loc 1 629 0
 450 00cc 114B     		ldr	r3, .L16+48
 451 00ce 8022     		movs	r2, #128
 452 00d0 1A70     		strb	r2, [r3]
ARM GAS  C:\Users\LUKASC~1\AppData\Local\Temp\ccwNUHtE.s 			page 20


 630:.\Generated_Source\PSoC5/USBUART.c ****     CyDelayCycles(USBUART_WAIT_CR0_REG_STABILITY);
 453              		.loc 1 630 0
 454 00d2 0120     		movs	r0, #1
 455 00d4 FFF7FEFF 		bl	CyDelayCycles
 631:.\Generated_Source\PSoC5/USBUART.c **** #endif /* (CY_PSOC4) */
 632:.\Generated_Source\PSoC5/USBUART.c **** 
 633:.\Generated_Source\PSoC5/USBUART.c ****     /* Enable D+ pull-up and keep USB control on IO. */
 634:.\Generated_Source\PSoC5/USBUART.c ****     USBUART_USBIO_CR1_REG = USBUART_USBIO_CR1_USBPUEN;
 456              		.loc 1 634 0
 457 00d8 0F4B     		ldr	r3, .L16+52
 458 00da 0422     		movs	r2, #4
 459 00dc 1A70     		strb	r2, [r3]
 635:.\Generated_Source\PSoC5/USBUART.c **** }
 460              		.loc 1 635 0
 461 00de 1037     		adds	r7, r7, #16
 462              		.cfi_def_cfa_offset 8
 463 00e0 BD46     		mov	sp, r7
 464              		.cfi_def_cfa_register 13
 465              		@ sp needed
 466 00e2 80BD     		pop	{r7, pc}
 467              	.L17:
 468              		.align	2
 469              	.L16:
 470 00e4 00000000 		.word	USBUART_hidProtocol
 471 00e8 00000000 		.word	USBUART_device
 472 00ec 00000000 		.word	USBUART_transferState
 473 00f0 00000000 		.word	USBUART_configurationChanged
 474 00f4 00000000 		.word	USBUART_configuration
 475 00f8 00000000 		.word	USBUART_interfaceNumber
 476 00fc 00000000 		.word	USBUART_deviceAddress
 477 0100 00000000 		.word	USBUART_deviceStatus
 478 0104 00000000 		.word	USBUART_lastPacketSize
 479 0108 00E100E0 		.word	-536813312
 480 010c 09600040 		.word	1073766409
 481 0110 28600040 		.word	1073766440
 482 0114 08600040 		.word	1073766408
 483 0118 12600040 		.word	1073766418
 484              		.cfi_endproc
 485              	.LFE2:
 486              		.size	USBUART_InitComponent, .-USBUART_InitComponent
 487              		.section	.text.USBUART_ReInitComponent,"ax",%progbits
 488              		.align	2
 489              		.global	USBUART_ReInitComponent
 490              		.thumb
 491              		.thumb_func
 492              		.type	USBUART_ReInitComponent, %function
 493              	USBUART_ReInitComponent:
 494              	.LFB3:
 636:.\Generated_Source\PSoC5/USBUART.c **** 
 637:.\Generated_Source\PSoC5/USBUART.c **** 
 638:.\Generated_Source\PSoC5/USBUART.c **** /*******************************************************************************
 639:.\Generated_Source\PSoC5/USBUART.c **** * Function Name: USBUART_ReInitComponent
 640:.\Generated_Source\PSoC5/USBUART.c **** ****************************************************************************//**
 641:.\Generated_Source\PSoC5/USBUART.c **** *
 642:.\Generated_Source\PSoC5/USBUART.c **** *  This function reinitialize the component configuration and is
 643:.\Generated_Source\PSoC5/USBUART.c **** *  intend to be called from the Reset interrupt.
 644:.\Generated_Source\PSoC5/USBUART.c **** *
ARM GAS  C:\Users\LUKASC~1\AppData\Local\Temp\ccwNUHtE.s 			page 21


 645:.\Generated_Source\PSoC5/USBUART.c **** * \globalvars
 646:.\Generated_Source\PSoC5/USBUART.c **** *   USBUART_device - Contains the device number of the desired Device
 647:.\Generated_Source\PSoC5/USBUART.c **** *        Descriptor. The device number can be found in the Device Descriptor tab
 648:.\Generated_Source\PSoC5/USBUART.c **** *       of the Configure dialog, under the settings of the desired Device Descriptor,
 649:.\Generated_Source\PSoC5/USBUART.c **** *       in the Device Number field.
 650:.\Generated_Source\PSoC5/USBUART.c **** *   USBUART_transferState - This variable is used by the communication
 651:.\Generated_Source\PSoC5/USBUART.c **** *       functions to handle the current transfer state. Initialized to
 652:.\Generated_Source\PSoC5/USBUART.c **** *       TRANS_STATE_IDLE in this API.
 653:.\Generated_Source\PSoC5/USBUART.c **** *   USBUART_configuration - Contains the current configuration number
 654:.\Generated_Source\PSoC5/USBUART.c **** *       set by the Host using a SET_CONFIGURATION request.
 655:.\Generated_Source\PSoC5/USBUART.c **** *       Initialized to zero in this API.
 656:.\Generated_Source\PSoC5/USBUART.c **** *   USBUART_deviceAddress - Contains the current device address. This
 657:.\Generated_Source\PSoC5/USBUART.c **** *       variable is initialized to zero in this API. The Host starts to communicate
 658:.\Generated_Source\PSoC5/USBUART.c **** *      to the device with address 0 and then sets it to a whatever value using
 659:.\Generated_Source\PSoC5/USBUART.c **** *      a SET_ADDRESS request.
 660:.\Generated_Source\PSoC5/USBUART.c **** *   USBUART_deviceStatus - Initialized to 0.
 661:.\Generated_Source\PSoC5/USBUART.c **** *       This is a two-bit variable which contains the power status in the first bit
 662:.\Generated_Source\PSoC5/USBUART.c **** *       (DEVICE_STATUS_BUS_POWERED or DEVICE_STATUS_SELF_POWERED) and the remote
 663:.\Generated_Source\PSoC5/USBUART.c **** *       wakeup status (DEVICE_STATUS_REMOTE_WAKEUP) in the second bit.
 664:.\Generated_Source\PSoC5/USBUART.c **** *   USBUART_lastPacketSize - Initialized to 0;
 665:.\Generated_Source\PSoC5/USBUART.c **** *
 666:.\Generated_Source\PSoC5/USBUART.c **** * \reentrant
 667:.\Generated_Source\PSoC5/USBUART.c **** *  No.
 668:.\Generated_Source\PSoC5/USBUART.c **** *
 669:.\Generated_Source\PSoC5/USBUART.c **** *******************************************************************************/
 670:.\Generated_Source\PSoC5/USBUART.c **** void USBUART_ReInitComponent(void) 
 671:.\Generated_Source\PSoC5/USBUART.c **** {
 495              		.loc 1 671 0
 496              		.cfi_startproc
 497              		@ args = 0, pretend = 0, frame = 8
 498              		@ frame_needed = 1, uses_anonymous_args = 0
 499              		@ link register save eliminated.
 500 0000 80B4     		push	{r7}
 501              		.cfi_def_cfa_offset 4
 502              		.cfi_offset 7, -4
 503 0002 83B0     		sub	sp, sp, #12
 504              		.cfi_def_cfa_offset 16
 505 0004 00AF     		add	r7, sp, #0
 506              		.cfi_def_cfa_register 7
 672:.\Generated_Source\PSoC5/USBUART.c ****     /* Initialize _hidProtocol variable to comply with HID 7.2.6 Set_Protocol
 673:.\Generated_Source\PSoC5/USBUART.c ****     *  Request: "When initialized, all devices default to report protocol."
 674:.\Generated_Source\PSoC5/USBUART.c ****     */
 675:.\Generated_Source\PSoC5/USBUART.c **** #if defined(USBUART_ENABLE_HID_CLASS)
 676:.\Generated_Source\PSoC5/USBUART.c ****     uint8 i;
 677:.\Generated_Source\PSoC5/USBUART.c **** 
 678:.\Generated_Source\PSoC5/USBUART.c ****     for (i = 0u; i < USBUART_MAX_INTERFACES_NUMBER; i++)
 507              		.loc 1 678 0
 508 0006 0023     		movs	r3, #0
 509 0008 FB71     		strb	r3, [r7, #7]
 510 000a 06E0     		b	.L19
 511              	.L20:
 679:.\Generated_Source\PSoC5/USBUART.c ****     {
 680:.\Generated_Source\PSoC5/USBUART.c ****         USBUART_hidProtocol[i] = USBUART_PROTOCOL_REPORT;
 512              		.loc 1 680 0 discriminator 3
 513 000c FB79     		ldrb	r3, [r7, #7]	@ zero_extendqisi2
 514 000e 144A     		ldr	r2, .L21
 515 0010 0121     		movs	r1, #1
ARM GAS  C:\Users\LUKASC~1\AppData\Local\Temp\ccwNUHtE.s 			page 22


 516 0012 D154     		strb	r1, [r2, r3]
 678:.\Generated_Source\PSoC5/USBUART.c ****     {
 517              		.loc 1 678 0 discriminator 3
 518 0014 FB79     		ldrb	r3, [r7, #7]	@ zero_extendqisi2
 519 0016 0133     		adds	r3, r3, #1
 520 0018 FB71     		strb	r3, [r7, #7]
 521              	.L19:
 678:.\Generated_Source\PSoC5/USBUART.c ****     {
 522              		.loc 1 678 0 is_stmt 0 discriminator 1
 523 001a FB79     		ldrb	r3, [r7, #7]	@ zero_extendqisi2
 524 001c 012B     		cmp	r3, #1
 525 001e F5D9     		bls	.L20
 681:.\Generated_Source\PSoC5/USBUART.c ****     }
 682:.\Generated_Source\PSoC5/USBUART.c **** #endif /* USBUART_ENABLE_HID_CLASS */
 683:.\Generated_Source\PSoC5/USBUART.c **** 
 684:.\Generated_Source\PSoC5/USBUART.c ****     /* Reset component internal variables. */
 685:.\Generated_Source\PSoC5/USBUART.c ****     USBUART_transferState   = USBUART_TRANS_STATE_IDLE;
 526              		.loc 1 685 0 is_stmt 1
 527 0020 104B     		ldr	r3, .L21+4
 528 0022 0022     		movs	r2, #0
 529 0024 1A70     		strb	r2, [r3]
 686:.\Generated_Source\PSoC5/USBUART.c ****     USBUART_configurationChanged = 0u;
 530              		.loc 1 686 0
 531 0026 104B     		ldr	r3, .L21+8
 532 0028 0022     		movs	r2, #0
 533 002a 1A70     		strb	r2, [r3]
 687:.\Generated_Source\PSoC5/USBUART.c ****     USBUART_configuration   = 0u;
 534              		.loc 1 687 0
 535 002c 0F4B     		ldr	r3, .L21+12
 536 002e 0022     		movs	r2, #0
 537 0030 1A70     		strb	r2, [r3]
 688:.\Generated_Source\PSoC5/USBUART.c ****     USBUART_interfaceNumber = 0u;
 538              		.loc 1 688 0
 539 0032 0F4B     		ldr	r3, .L21+16
 540 0034 0022     		movs	r2, #0
 541 0036 1A70     		strb	r2, [r3]
 689:.\Generated_Source\PSoC5/USBUART.c ****     USBUART_deviceAddress   = 0u;
 542              		.loc 1 689 0
 543 0038 0E4B     		ldr	r3, .L21+20
 544 003a 0022     		movs	r2, #0
 545 003c 1A70     		strb	r2, [r3]
 690:.\Generated_Source\PSoC5/USBUART.c ****     USBUART_deviceStatus    = 0u;
 546              		.loc 1 690 0
 547 003e 0E4B     		ldr	r3, .L21+24
 548 0040 0022     		movs	r2, #0
 549 0042 1A70     		strb	r2, [r3]
 691:.\Generated_Source\PSoC5/USBUART.c ****     USBUART_lastPacketSize  = 0u;
 550              		.loc 1 691 0
 551 0044 0D4B     		ldr	r3, .L21+28
 552 0046 0022     		movs	r2, #0
 553 0048 1A70     		strb	r2, [r3]
 692:.\Generated_Source\PSoC5/USBUART.c **** 
 693:.\Generated_Source\PSoC5/USBUART.c **** #if (CY_PSOC4)
 694:.\Generated_Source\PSoC5/USBUART.c ****     /* Set EP0.CR: ACK Setup, NAK IN/OUT. */
 695:.\Generated_Source\PSoC5/USBUART.c ****     USBUART_EP0_CR_REG = USBUART_MODE_NAK_IN_OUT;
 696:.\Generated_Source\PSoC5/USBUART.c **** #else
 697:.\Generated_Source\PSoC5/USBUART.c ****     /* Set EP0.CR: ACK Setup, STALL IN/OUT. */
ARM GAS  C:\Users\LUKASC~1\AppData\Local\Temp\ccwNUHtE.s 			page 23


 698:.\Generated_Source\PSoC5/USBUART.c ****     USBUART_EP0_CR_REG = USBUART_MODE_STALL_IN_OUT;
 554              		.loc 1 698 0
 555 004a 0D4B     		ldr	r3, .L21+32
 556 004c 0322     		movs	r2, #3
 557 004e 1A70     		strb	r2, [r3]
 699:.\Generated_Source\PSoC5/USBUART.c **** #endif /* (CY_PSOC4) */
 700:.\Generated_Source\PSoC5/USBUART.c **** 
 701:.\Generated_Source\PSoC5/USBUART.c ****     /* Enable device to respond to USB traffic with address 0. */
 702:.\Generated_Source\PSoC5/USBUART.c ****     USBUART_CR0_REG = USBUART_DEFUALT_CR0;
 558              		.loc 1 702 0
 559 0050 0C4B     		ldr	r3, .L21+36
 560 0052 8022     		movs	r2, #128
 561 0054 1A70     		strb	r2, [r3]
 703:.\Generated_Source\PSoC5/USBUART.c **** }
 562              		.loc 1 703 0
 563 0056 0C37     		adds	r7, r7, #12
 564              		.cfi_def_cfa_offset 4
 565 0058 BD46     		mov	sp, r7
 566              		.cfi_def_cfa_register 13
 567              		@ sp needed
 568 005a 5DF8047B 		ldr	r7, [sp], #4
 569              		.cfi_restore 7
 570              		.cfi_def_cfa_offset 0
 571 005e 7047     		bx	lr
 572              	.L22:
 573              		.align	2
 574              	.L21:
 575 0060 00000000 		.word	USBUART_hidProtocol
 576 0064 00000000 		.word	USBUART_transferState
 577 0068 00000000 		.word	USBUART_configurationChanged
 578 006c 00000000 		.word	USBUART_configuration
 579 0070 00000000 		.word	USBUART_interfaceNumber
 580 0074 00000000 		.word	USBUART_deviceAddress
 581 0078 00000000 		.word	USBUART_deviceStatus
 582 007c 00000000 		.word	USBUART_lastPacketSize
 583 0080 28600040 		.word	1073766440
 584 0084 08600040 		.word	1073766408
 585              		.cfi_endproc
 586              	.LFE3:
 587              		.size	USBUART_ReInitComponent, .-USBUART_ReInitComponent
 588              		.section	.text.USBUART_Stop,"ax",%progbits
 589              		.align	2
 590              		.global	USBUART_Stop
 591              		.thumb
 592              		.thumb_func
 593              		.type	USBUART_Stop, %function
 594              	USBUART_Stop:
 595              	.LFB4:
 704:.\Generated_Source\PSoC5/USBUART.c **** 
 705:.\Generated_Source\PSoC5/USBUART.c **** 
 706:.\Generated_Source\PSoC5/USBUART.c **** /*******************************************************************************
 707:.\Generated_Source\PSoC5/USBUART.c **** * Function Name: USBUART_Stop
 708:.\Generated_Source\PSoC5/USBUART.c **** ****************************************************************************//**
 709:.\Generated_Source\PSoC5/USBUART.c **** *
 710:.\Generated_Source\PSoC5/USBUART.c **** *  This function shuts down the USB function including to release
 711:.\Generated_Source\PSoC5/USBUART.c **** *  the D+ pull-up and disabling the SIE.
 712:.\Generated_Source\PSoC5/USBUART.c **** *
ARM GAS  C:\Users\LUKASC~1\AppData\Local\Temp\ccwNUHtE.s 			page 24


 713:.\Generated_Source\PSoC5/USBUART.c **** * \globalvars
 714:.\Generated_Source\PSoC5/USBUART.c **** *   \ref USBUART_configuration
 715:.\Generated_Source\PSoC5/USBUART.c **** *
 716:.\Generated_Source\PSoC5/USBUART.c **** *   USBUART_deviceAddress - Contains the current device address. This
 717:.\Generated_Source\PSoC5/USBUART.c **** *       variable is initialized to zero in this API. The Host starts to communicate
 718:.\Generated_Source\PSoC5/USBUART.c **** *      to the device with address 0 and then sets it to a whatever value using
 719:.\Generated_Source\PSoC5/USBUART.c **** *      a SET_ADDRESS request.
 720:.\Generated_Source\PSoC5/USBUART.c **** *
 721:.\Generated_Source\PSoC5/USBUART.c **** *   \ref USBUART_deviceStatus
 722:.\Generated_Source\PSoC5/USBUART.c **** *
 723:.\Generated_Source\PSoC5/USBUART.c **** *   \ref USBUART_configurationChanged
 724:.\Generated_Source\PSoC5/USBUART.c **** *
 725:.\Generated_Source\PSoC5/USBUART.c **** *   USBUART_intiVar -  This variable is set to zero
 726:.\Generated_Source\PSoC5/USBUART.c **** *
 727:.\Generated_Source\PSoC5/USBUART.c **** *******************************************************************************/
 728:.\Generated_Source\PSoC5/USBUART.c **** void USBUART_Stop(void) 
 729:.\Generated_Source\PSoC5/USBUART.c **** {
 596              		.loc 1 729 0
 597              		.cfi_startproc
 598              		@ args = 0, pretend = 0, frame = 8
 599              		@ frame_needed = 1, uses_anonymous_args = 0
 600 0000 80B5     		push	{r7, lr}
 601              		.cfi_def_cfa_offset 8
 602              		.cfi_offset 7, -8
 603              		.cfi_offset 14, -4
 604 0002 82B0     		sub	sp, sp, #8
 605              		.cfi_def_cfa_offset 16
 606 0004 00AF     		add	r7, sp, #0
 607              		.cfi_def_cfa_register 7
 730:.\Generated_Source\PSoC5/USBUART.c ****     uint8 enableInterrupts;
 731:.\Generated_Source\PSoC5/USBUART.c **** 
 732:.\Generated_Source\PSoC5/USBUART.c **** #if (USBUART_EP_MANAGEMENT_DMA)
 733:.\Generated_Source\PSoC5/USBUART.c ****     /* Stop all DMA channels. */
 734:.\Generated_Source\PSoC5/USBUART.c ****     USBUART_Stop_DMA(USBUART_MAX_EP);
 735:.\Generated_Source\PSoC5/USBUART.c **** #endif /* (USBUART_EP_MANAGEMENT_DMA) */
 736:.\Generated_Source\PSoC5/USBUART.c **** 
 737:.\Generated_Source\PSoC5/USBUART.c ****     enableInterrupts = CyEnterCriticalSection();
 608              		.loc 1 737 0
 609 0006 FFF7FEFF 		bl	CyEnterCriticalSection
 610 000a 0346     		mov	r3, r0
 611 000c FB71     		strb	r3, [r7, #7]
 738:.\Generated_Source\PSoC5/USBUART.c **** 
 739:.\Generated_Source\PSoC5/USBUART.c ****     /* Disable USB IP to respond to USB traffic. */
 740:.\Generated_Source\PSoC5/USBUART.c ****     USBUART_CR0_REG &= (uint8) ~USBUART_CR0_ENABLE;
 612              		.loc 1 740 0
 613 000e 274A     		ldr	r2, .L24
 614 0010 264B     		ldr	r3, .L24
 615 0012 1B78     		ldrb	r3, [r3]
 616 0014 DBB2     		uxtb	r3, r3
 617 0016 03F07F03 		and	r3, r3, #127
 618 001a DBB2     		uxtb	r3, r3
 619 001c 1370     		strb	r3, [r2]
 741:.\Generated_Source\PSoC5/USBUART.c **** 
 742:.\Generated_Source\PSoC5/USBUART.c ****     /* Disable D+ pull-up. */
 743:.\Generated_Source\PSoC5/USBUART.c ****     USBUART_USBIO_CR1_REG &= (uint8) ~ USBUART_USBIO_CR1_USBPUEN;
 620              		.loc 1 743 0
 621 001e 244A     		ldr	r2, .L24+4
ARM GAS  C:\Users\LUKASC~1\AppData\Local\Temp\ccwNUHtE.s 			page 25


 622 0020 234B     		ldr	r3, .L24+4
 623 0022 1B78     		ldrb	r3, [r3]
 624 0024 DBB2     		uxtb	r3, r3
 625 0026 23F00403 		bic	r3, r3, #4
 626 002a DBB2     		uxtb	r3, r3
 627 002c 1370     		strb	r3, [r2]
 744:.\Generated_Source\PSoC5/USBUART.c **** 
 745:.\Generated_Source\PSoC5/USBUART.c **** #if (CY_PSOC4)
 746:.\Generated_Source\PSoC5/USBUART.c ****     /* Disable USBFS block. */
 747:.\Generated_Source\PSoC5/USBUART.c ****     USBUART_POWER_CTRL_REG &= (uint32) ~USBUART_POWER_CTRL_ENABLE;
 748:.\Generated_Source\PSoC5/USBUART.c **** #else
 749:.\Generated_Source\PSoC5/USBUART.c ****     /* Clear power active and standby mode templates. */
 750:.\Generated_Source\PSoC5/USBUART.c ****     USBUART_PM_ACT_CFG_REG  &= (uint8) ~USBUART_PM_ACT_EN_FSUSB;
 628              		.loc 1 750 0
 629 002e 214A     		ldr	r2, .L24+8
 630 0030 204B     		ldr	r3, .L24+8
 631 0032 1B78     		ldrb	r3, [r3]
 632 0034 DBB2     		uxtb	r3, r3
 633 0036 23F00103 		bic	r3, r3, #1
 634 003a DBB2     		uxtb	r3, r3
 635 003c 1370     		strb	r3, [r2]
 751:.\Generated_Source\PSoC5/USBUART.c ****     USBUART_PM_STBY_CFG_REG &= (uint8) ~USBUART_PM_STBY_EN_FSUSB;
 636              		.loc 1 751 0
 637 003e 1E4A     		ldr	r2, .L24+12
 638 0040 1D4B     		ldr	r3, .L24+12
 639 0042 1B78     		ldrb	r3, [r3]
 640 0044 DBB2     		uxtb	r3, r3
 641 0046 23F00103 		bic	r3, r3, #1
 642 004a DBB2     		uxtb	r3, r3
 643 004c 1370     		strb	r3, [r2]
 752:.\Generated_Source\PSoC5/USBUART.c **** #endif /* (CY_PSOC4) */
 753:.\Generated_Source\PSoC5/USBUART.c **** 
 754:.\Generated_Source\PSoC5/USBUART.c ****     CyExitCriticalSection(enableInterrupts);
 644              		.loc 1 754 0
 645 004e FB79     		ldrb	r3, [r7, #7]	@ zero_extendqisi2
 646 0050 1846     		mov	r0, r3
 647 0052 FFF7FEFF 		bl	CyExitCriticalSection
 755:.\Generated_Source\PSoC5/USBUART.c **** 
 756:.\Generated_Source\PSoC5/USBUART.c ****     /* Disable component interrupts. */
 757:.\Generated_Source\PSoC5/USBUART.c **** #if (CY_PSOC4)
 758:.\Generated_Source\PSoC5/USBUART.c ****     CyIntDisable(USBUART_INTR_HI_VECT_NUM);
 759:.\Generated_Source\PSoC5/USBUART.c ****     CyIntDisable(USBUART_INTR_LO_VECT_NUM);
 760:.\Generated_Source\PSoC5/USBUART.c ****     CyIntDisable(USBUART_INTR_MED_VECT_NUM);
 761:.\Generated_Source\PSoC5/USBUART.c **** #else
 762:.\Generated_Source\PSoC5/USBUART.c **** 
 763:.\Generated_Source\PSoC5/USBUART.c ****     CyIntDisable(USBUART_BUS_RESET_VECT_NUM);
 648              		.loc 1 763 0
 649 0056 194B     		ldr	r3, .L24+16
 650 0058 4FF40002 		mov	r2, #8388608
 651 005c 1A60     		str	r2, [r3]
 764:.\Generated_Source\PSoC5/USBUART.c ****     CyIntDisable(USBUART_EP_0_VECT_NUM);
 652              		.loc 1 764 0
 653 005e 174B     		ldr	r3, .L24+16
 654 0060 4FF08072 		mov	r2, #16777216
 655 0064 1A60     		str	r2, [r3]
 765:.\Generated_Source\PSoC5/USBUART.c **** 
 766:.\Generated_Source\PSoC5/USBUART.c ****     #if (USBUART_SOF_ISR_ACTIVE)
ARM GAS  C:\Users\LUKASC~1\AppData\Local\Temp\ccwNUHtE.s 			page 26


 767:.\Generated_Source\PSoC5/USBUART.c ****         CyIntDisable(USBUART_SOF_VECT_NUM);
 656              		.loc 1 767 0
 657 0066 154B     		ldr	r3, .L24+16
 658 0068 4FF40012 		mov	r2, #2097152
 659 006c 1A60     		str	r2, [r3]
 768:.\Generated_Source\PSoC5/USBUART.c ****     #endif /* (USBUART_SOF_ISR_ACTIVE) */
 769:.\Generated_Source\PSoC5/USBUART.c **** 
 770:.\Generated_Source\PSoC5/USBUART.c ****     #if (USBUART_EP1_ISR_ACTIVE)
 771:.\Generated_Source\PSoC5/USBUART.c ****         CyIntDisable(USBUART_EP_1_VECT_NUM);
 660              		.loc 1 771 0
 661 006e 134B     		ldr	r3, .L24+16
 662 0070 1022     		movs	r2, #16
 663 0072 1A60     		str	r2, [r3]
 772:.\Generated_Source\PSoC5/USBUART.c ****     #endif /* (USBUART_EP1_ISR_ACTIVE) */
 773:.\Generated_Source\PSoC5/USBUART.c **** 
 774:.\Generated_Source\PSoC5/USBUART.c ****     #if (USBUART_EP2_ISR_ACTIVE)
 775:.\Generated_Source\PSoC5/USBUART.c ****         CyIntDisable(USBUART_EP_2_VECT_NUM);
 664              		.loc 1 775 0
 665 0074 114B     		ldr	r3, .L24+16
 666 0076 2022     		movs	r2, #32
 667 0078 1A60     		str	r2, [r3]
 776:.\Generated_Source\PSoC5/USBUART.c ****     #endif /* (USBUART_EP2_ISR_ACTIVE) */
 777:.\Generated_Source\PSoC5/USBUART.c **** 
 778:.\Generated_Source\PSoC5/USBUART.c ****     #if (USBUART_EP3_ISR_ACTIVE)
 779:.\Generated_Source\PSoC5/USBUART.c ****         CyIntDisable(USBUART_EP_3_VECT_NUM);
 668              		.loc 1 779 0
 669 007a 104B     		ldr	r3, .L24+16
 670 007c 4022     		movs	r2, #64
 671 007e 1A60     		str	r2, [r3]
 780:.\Generated_Source\PSoC5/USBUART.c ****     #endif /* (USBUART_EP3_ISR_ACTIVE) */
 781:.\Generated_Source\PSoC5/USBUART.c **** 
 782:.\Generated_Source\PSoC5/USBUART.c ****     #if (USBUART_EP4_ISR_ACTIVE)
 783:.\Generated_Source\PSoC5/USBUART.c ****         CyIntDisable(USBUART_EP_4_VECT_NUM);
 784:.\Generated_Source\PSoC5/USBUART.c ****     #endif /* (USBUART_EP4_ISR_ACTIVE) */
 785:.\Generated_Source\PSoC5/USBUART.c **** 
 786:.\Generated_Source\PSoC5/USBUART.c ****     #if (USBUART_EP5_ISR_ACTIVE)
 787:.\Generated_Source\PSoC5/USBUART.c ****         CyIntDisable(USBUART_EP_5_VECT_NUM);
 788:.\Generated_Source\PSoC5/USBUART.c ****     #endif /* (USBUART_EP5_ISR_ACTIVE) */
 789:.\Generated_Source\PSoC5/USBUART.c **** 
 790:.\Generated_Source\PSoC5/USBUART.c ****     #if (USBUART_EP6_ISR_ACTIVE)
 791:.\Generated_Source\PSoC5/USBUART.c ****         CyIntDisable(USBUART_EP_6_VECT_NUM);
 792:.\Generated_Source\PSoC5/USBUART.c ****     #endif /* USBUART_EP6_ISR_REMOVE */
 793:.\Generated_Source\PSoC5/USBUART.c **** 
 794:.\Generated_Source\PSoC5/USBUART.c ****     #if (USBUART_EP7_ISR_ACTIVE)
 795:.\Generated_Source\PSoC5/USBUART.c ****         CyIntDisable(USBUART_EP_7_VECT_NUM);
 796:.\Generated_Source\PSoC5/USBUART.c ****     #endif /* (USBUART_EP7_ISR_ACTIVE) */
 797:.\Generated_Source\PSoC5/USBUART.c **** 
 798:.\Generated_Source\PSoC5/USBUART.c ****     #if (USBUART_EP8_ISR_ACTIVE)
 799:.\Generated_Source\PSoC5/USBUART.c ****         CyIntDisable(USBUART_EP_8_VECT_NUM);
 800:.\Generated_Source\PSoC5/USBUART.c ****     #endif /* (USBUART_EP8_ISR_ACTIVE) */
 801:.\Generated_Source\PSoC5/USBUART.c **** #endif /* (CY_PSOC4) */
 802:.\Generated_Source\PSoC5/USBUART.c **** 
 803:.\Generated_Source\PSoC5/USBUART.c ****     /* Reset component internal variables. */
 804:.\Generated_Source\PSoC5/USBUART.c ****     USBUART_configurationChanged = 0u;
 672              		.loc 1 804 0
 673 0080 0F4B     		ldr	r3, .L24+20
 674 0082 0022     		movs	r2, #0
ARM GAS  C:\Users\LUKASC~1\AppData\Local\Temp\ccwNUHtE.s 			page 27


 675 0084 1A70     		strb	r2, [r3]
 805:.\Generated_Source\PSoC5/USBUART.c ****     USBUART_configuration   = 0u;
 676              		.loc 1 805 0
 677 0086 0F4B     		ldr	r3, .L24+24
 678 0088 0022     		movs	r2, #0
 679 008a 1A70     		strb	r2, [r3]
 806:.\Generated_Source\PSoC5/USBUART.c ****     USBUART_interfaceNumber = 0u;
 680              		.loc 1 806 0
 681 008c 0E4B     		ldr	r3, .L24+28
 682 008e 0022     		movs	r2, #0
 683 0090 1A70     		strb	r2, [r3]
 807:.\Generated_Source\PSoC5/USBUART.c ****     USBUART_deviceAddress   = 0u;
 684              		.loc 1 807 0
 685 0092 0E4B     		ldr	r3, .L24+32
 686 0094 0022     		movs	r2, #0
 687 0096 1A70     		strb	r2, [r3]
 808:.\Generated_Source\PSoC5/USBUART.c ****     USBUART_deviceStatus    = 0u;
 688              		.loc 1 808 0
 689 0098 0D4B     		ldr	r3, .L24+36
 690 009a 0022     		movs	r2, #0
 691 009c 1A70     		strb	r2, [r3]
 809:.\Generated_Source\PSoC5/USBUART.c **** 
 810:.\Generated_Source\PSoC5/USBUART.c ****     /* It is mandatory for correct device startup. */
 811:.\Generated_Source\PSoC5/USBUART.c ****     USBUART_initVar = 0u;
 692              		.loc 1 811 0
 693 009e 0D4B     		ldr	r3, .L24+40
 694 00a0 0022     		movs	r2, #0
 695 00a2 1A70     		strb	r2, [r3]
 812:.\Generated_Source\PSoC5/USBUART.c **** }
 696              		.loc 1 812 0
 697 00a4 0837     		adds	r7, r7, #8
 698              		.cfi_def_cfa_offset 8
 699 00a6 BD46     		mov	sp, r7
 700              		.cfi_def_cfa_register 13
 701              		@ sp needed
 702 00a8 80BD     		pop	{r7, pc}
 703              	.L25:
 704 00aa 00BF     		.align	2
 705              	.L24:
 706 00ac 08600040 		.word	1073766408
 707 00b0 12600040 		.word	1073766418
 708 00b4 A5430040 		.word	1073759141
 709 00b8 B5430040 		.word	1073759157
 710 00bc 80E100E0 		.word	-536813184
 711 00c0 00000000 		.word	USBUART_configurationChanged
 712 00c4 00000000 		.word	USBUART_configuration
 713 00c8 00000000 		.word	USBUART_interfaceNumber
 714 00cc 00000000 		.word	USBUART_deviceAddress
 715 00d0 00000000 		.word	USBUART_deviceStatus
 716 00d4 00000000 		.word	USBUART_initVar
 717              		.cfi_endproc
 718              	.LFE4:
 719              		.size	USBUART_Stop, .-USBUART_Stop
 720              		.section	.text.USBUART_CheckActivity,"ax",%progbits
 721              		.align	2
 722              		.global	USBUART_CheckActivity
 723              		.thumb
ARM GAS  C:\Users\LUKASC~1\AppData\Local\Temp\ccwNUHtE.s 			page 28


 724              		.thumb_func
 725              		.type	USBUART_CheckActivity, %function
 726              	USBUART_CheckActivity:
 727              	.LFB5:
 813:.\Generated_Source\PSoC5/USBUART.c **** 
 814:.\Generated_Source\PSoC5/USBUART.c **** 
 815:.\Generated_Source\PSoC5/USBUART.c **** /*******************************************************************************
 816:.\Generated_Source\PSoC5/USBUART.c **** * Function Name: USBUART_CheckActivity
 817:.\Generated_Source\PSoC5/USBUART.c **** ****************************************************************************//**
 818:.\Generated_Source\PSoC5/USBUART.c **** *
 819:.\Generated_Source\PSoC5/USBUART.c **** *  This function returns the activity status of the bus. It clears the hardware
 820:.\Generated_Source\PSoC5/USBUART.c **** *  status to provide updated status on the next call of this function. It
 821:.\Generated_Source\PSoC5/USBUART.c **** *  provides a way to determine whether any USB bus activity occurred. The
 822:.\Generated_Source\PSoC5/USBUART.c **** *  application should use this function to determine if the USB suspend
 823:.\Generated_Source\PSoC5/USBUART.c **** *  conditions are met.
 824:.\Generated_Source\PSoC5/USBUART.c **** *
 825:.\Generated_Source\PSoC5/USBUART.c **** *
 826:.\Generated_Source\PSoC5/USBUART.c **** * \return
 827:.\Generated_Source\PSoC5/USBUART.c **** *  cystatus: Status of the bus since the last call of the function.
 828:.\Generated_Source\PSoC5/USBUART.c **** *  Return Value |   Description
 829:.\Generated_Source\PSoC5/USBUART.c **** *  -------------|---------------------------------------------------------------
 830:.\Generated_Source\PSoC5/USBUART.c **** *  1            |Bus activity was detected since the last call to this function
 831:.\Generated_Source\PSoC5/USBUART.c **** *  0            |Bus activity was not detected since the last call to this function
 832:.\Generated_Source\PSoC5/USBUART.c **** *
 833:.\Generated_Source\PSoC5/USBUART.c **** *
 834:.\Generated_Source\PSoC5/USBUART.c **** *******************************************************************************/
 835:.\Generated_Source\PSoC5/USBUART.c **** uint8 USBUART_CheckActivity(void) 
 836:.\Generated_Source\PSoC5/USBUART.c **** {
 728              		.loc 1 836 0
 729              		.cfi_startproc
 730              		@ args = 0, pretend = 0, frame = 8
 731              		@ frame_needed = 1, uses_anonymous_args = 0
 732              		@ link register save eliminated.
 733 0000 80B4     		push	{r7}
 734              		.cfi_def_cfa_offset 4
 735              		.cfi_offset 7, -4
 736 0002 83B0     		sub	sp, sp, #12
 737              		.cfi_def_cfa_offset 16
 738 0004 00AF     		add	r7, sp, #0
 739              		.cfi_def_cfa_register 7
 837:.\Generated_Source\PSoC5/USBUART.c ****     uint8 cr1Reg = USBUART_CR1_REG;
 740              		.loc 1 837 0
 741 0006 0B4B     		ldr	r3, .L30
 742 0008 1B78     		ldrb	r3, [r3]
 743 000a FB71     		strb	r3, [r7, #7]
 838:.\Generated_Source\PSoC5/USBUART.c **** 
 839:.\Generated_Source\PSoC5/USBUART.c ****     /* Clear bus activity. */
 840:.\Generated_Source\PSoC5/USBUART.c ****     USBUART_CR1_REG = (cr1Reg & (uint8) ~USBUART_CR1_BUS_ACTIVITY);
 744              		.loc 1 840 0
 745 000c 094A     		ldr	r2, .L30
 746 000e FB79     		ldrb	r3, [r7, #7]
 747 0010 23F00403 		bic	r3, r3, #4
 748 0014 DBB2     		uxtb	r3, r3
 749 0016 1370     		strb	r3, [r2]
 841:.\Generated_Source\PSoC5/USBUART.c **** 
 842:.\Generated_Source\PSoC5/USBUART.c ****     /* Get bus activity. */
 843:.\Generated_Source\PSoC5/USBUART.c ****     return ((0u != (cr1Reg & USBUART_CR1_BUS_ACTIVITY)) ? (1u) : (0u));
ARM GAS  C:\Users\LUKASC~1\AppData\Local\Temp\ccwNUHtE.s 			page 29


 750              		.loc 1 843 0
 751 0018 FB79     		ldrb	r3, [r7, #7]	@ zero_extendqisi2
 752 001a 03F00403 		and	r3, r3, #4
 753 001e 002B     		cmp	r3, #0
 754 0020 01D0     		beq	.L27
 755              		.loc 1 843 0 is_stmt 0 discriminator 1
 756 0022 0123     		movs	r3, #1
 757 0024 00E0     		b	.L28
 758              	.L27:
 759              		.loc 1 843 0 discriminator 2
 760 0026 0023     		movs	r3, #0
 761              	.L28:
 844:.\Generated_Source\PSoC5/USBUART.c **** }
 762              		.loc 1 844 0 is_stmt 1 discriminator 4
 763 0028 1846     		mov	r0, r3
 764 002a 0C37     		adds	r7, r7, #12
 765              		.cfi_def_cfa_offset 4
 766 002c BD46     		mov	sp, r7
 767              		.cfi_def_cfa_register 13
 768              		@ sp needed
 769 002e 5DF8047B 		ldr	r7, [sp], #4
 770              		.cfi_restore 7
 771              		.cfi_def_cfa_offset 0
 772 0032 7047     		bx	lr
 773              	.L31:
 774              		.align	2
 775              	.L30:
 776 0034 09600040 		.word	1073766409
 777              		.cfi_endproc
 778              	.LFE5:
 779              		.size	USBUART_CheckActivity, .-USBUART_CheckActivity
 780              		.section	.text.USBUART_GetConfiguration,"ax",%progbits
 781              		.align	2
 782              		.global	USBUART_GetConfiguration
 783              		.thumb
 784              		.thumb_func
 785              		.type	USBUART_GetConfiguration, %function
 786              	USBUART_GetConfiguration:
 787              	.LFB6:
 845:.\Generated_Source\PSoC5/USBUART.c **** 
 846:.\Generated_Source\PSoC5/USBUART.c **** 
 847:.\Generated_Source\PSoC5/USBUART.c **** /*******************************************************************************
 848:.\Generated_Source\PSoC5/USBUART.c **** * Function Name: USBUART_GetConfiguration
 849:.\Generated_Source\PSoC5/USBUART.c **** ****************************************************************************//**
 850:.\Generated_Source\PSoC5/USBUART.c **** *
 851:.\Generated_Source\PSoC5/USBUART.c **** *  This function gets the current configuration of the USB device.
 852:.\Generated_Source\PSoC5/USBUART.c **** *
 853:.\Generated_Source\PSoC5/USBUART.c **** * \return
 854:.\Generated_Source\PSoC5/USBUART.c **** *  Returns the currently assigned configuration. Returns 0 if the device
 855:.\Generated_Source\PSoC5/USBUART.c **** *  is not configured
 856:.\Generated_Source\PSoC5/USBUART.c **** *
 857:.\Generated_Source\PSoC5/USBUART.c **** *******************************************************************************/
 858:.\Generated_Source\PSoC5/USBUART.c **** uint8 USBUART_GetConfiguration(void) 
 859:.\Generated_Source\PSoC5/USBUART.c **** {
 788              		.loc 1 859 0
 789              		.cfi_startproc
 790              		@ args = 0, pretend = 0, frame = 0
ARM GAS  C:\Users\LUKASC~1\AppData\Local\Temp\ccwNUHtE.s 			page 30


 791              		@ frame_needed = 1, uses_anonymous_args = 0
 792              		@ link register save eliminated.
 793 0000 80B4     		push	{r7}
 794              		.cfi_def_cfa_offset 4
 795              		.cfi_offset 7, -4
 796 0002 00AF     		add	r7, sp, #0
 797              		.cfi_def_cfa_register 7
 860:.\Generated_Source\PSoC5/USBUART.c ****     return (USBUART_configuration);
 798              		.loc 1 860 0
 799 0004 034B     		ldr	r3, .L34
 800 0006 1B78     		ldrb	r3, [r3]
 801 0008 DBB2     		uxtb	r3, r3
 861:.\Generated_Source\PSoC5/USBUART.c **** }
 802              		.loc 1 861 0
 803 000a 1846     		mov	r0, r3
 804 000c BD46     		mov	sp, r7
 805              		.cfi_def_cfa_register 13
 806              		@ sp needed
 807 000e 5DF8047B 		ldr	r7, [sp], #4
 808              		.cfi_restore 7
 809              		.cfi_def_cfa_offset 0
 810 0012 7047     		bx	lr
 811              	.L35:
 812              		.align	2
 813              	.L34:
 814 0014 00000000 		.word	USBUART_configuration
 815              		.cfi_endproc
 816              	.LFE6:
 817              		.size	USBUART_GetConfiguration, .-USBUART_GetConfiguration
 818              		.section	.text.USBUART_IsConfigurationChanged,"ax",%progbits
 819              		.align	2
 820              		.global	USBUART_IsConfigurationChanged
 821              		.thumb
 822              		.thumb_func
 823              		.type	USBUART_IsConfigurationChanged, %function
 824              	USBUART_IsConfigurationChanged:
 825              	.LFB7:
 862:.\Generated_Source\PSoC5/USBUART.c **** 
 863:.\Generated_Source\PSoC5/USBUART.c **** 
 864:.\Generated_Source\PSoC5/USBUART.c **** /*******************************************************************************
 865:.\Generated_Source\PSoC5/USBUART.c **** * Function Name: USBUART_IsConfigurationChanged
 866:.\Generated_Source\PSoC5/USBUART.c **** ****************************************************************************//**
 867:.\Generated_Source\PSoC5/USBUART.c **** *
 868:.\Generated_Source\PSoC5/USBUART.c **** *  This function returns the clear-on-read configuration state.  It is useful
 869:.\Generated_Source\PSoC5/USBUART.c **** *  when the host sends double SET_CONFIGURATION request with the same 
 870:.\Generated_Source\PSoC5/USBUART.c **** *  configuration number or changes alternate settings of the interface. 
 871:.\Generated_Source\PSoC5/USBUART.c **** *  After configuration has been changed the OUT endpoints must be enabled and IN 
 872:.\Generated_Source\PSoC5/USBUART.c **** *  endpoint must be loaded with data to start communication with the host.
 873:.\Generated_Source\PSoC5/USBUART.c **** *
 874:.\Generated_Source\PSoC5/USBUART.c **** * \return
 875:.\Generated_Source\PSoC5/USBUART.c **** *  None-zero value when new configuration has been changed, otherwise zero is
 876:.\Generated_Source\PSoC5/USBUART.c **** *  returned.
 877:.\Generated_Source\PSoC5/USBUART.c **** *
 878:.\Generated_Source\PSoC5/USBUART.c **** * \globalvars
 879:.\Generated_Source\PSoC5/USBUART.c **** *
 880:.\Generated_Source\PSoC5/USBUART.c **** *  \ref USBUART_configurationChanged - This variable is set to 1 after
 881:.\Generated_Source\PSoC5/USBUART.c **** *   a SET_CONFIGURATION request and cleared in this function.
ARM GAS  C:\Users\LUKASC~1\AppData\Local\Temp\ccwNUHtE.s 			page 31


 882:.\Generated_Source\PSoC5/USBUART.c **** *
 883:.\Generated_Source\PSoC5/USBUART.c **** *******************************************************************************/
 884:.\Generated_Source\PSoC5/USBUART.c **** uint8 USBUART_IsConfigurationChanged(void) 
 885:.\Generated_Source\PSoC5/USBUART.c **** {
 826              		.loc 1 885 0
 827              		.cfi_startproc
 828              		@ args = 0, pretend = 0, frame = 8
 829              		@ frame_needed = 1, uses_anonymous_args = 0
 830              		@ link register save eliminated.
 831 0000 80B4     		push	{r7}
 832              		.cfi_def_cfa_offset 4
 833              		.cfi_offset 7, -4
 834 0002 83B0     		sub	sp, sp, #12
 835              		.cfi_def_cfa_offset 16
 836 0004 00AF     		add	r7, sp, #0
 837              		.cfi_def_cfa_register 7
 886:.\Generated_Source\PSoC5/USBUART.c ****     uint8 res = 0u;
 838              		.loc 1 886 0
 839 0006 0023     		movs	r3, #0
 840 0008 FB71     		strb	r3, [r7, #7]
 887:.\Generated_Source\PSoC5/USBUART.c **** 
 888:.\Generated_Source\PSoC5/USBUART.c ****     if (USBUART_configurationChanged != 0u)
 841              		.loc 1 888 0
 842 000a 094B     		ldr	r3, .L39
 843 000c 1B78     		ldrb	r3, [r3]
 844 000e DBB2     		uxtb	r3, r3
 845 0010 002B     		cmp	r3, #0
 846 0012 05D0     		beq	.L37
 889:.\Generated_Source\PSoC5/USBUART.c ****     {
 890:.\Generated_Source\PSoC5/USBUART.c ****         res = USBUART_configurationChanged;
 847              		.loc 1 890 0
 848 0014 064B     		ldr	r3, .L39
 849 0016 1B78     		ldrb	r3, [r3]
 850 0018 FB71     		strb	r3, [r7, #7]
 891:.\Generated_Source\PSoC5/USBUART.c ****         USBUART_configurationChanged = 0u;
 851              		.loc 1 891 0
 852 001a 054B     		ldr	r3, .L39
 853 001c 0022     		movs	r2, #0
 854 001e 1A70     		strb	r2, [r3]
 855              	.L37:
 892:.\Generated_Source\PSoC5/USBUART.c ****     }
 893:.\Generated_Source\PSoC5/USBUART.c **** 
 894:.\Generated_Source\PSoC5/USBUART.c ****     return (res);
 856              		.loc 1 894 0
 857 0020 FB79     		ldrb	r3, [r7, #7]	@ zero_extendqisi2
 895:.\Generated_Source\PSoC5/USBUART.c **** }
 858              		.loc 1 895 0
 859 0022 1846     		mov	r0, r3
 860 0024 0C37     		adds	r7, r7, #12
 861              		.cfi_def_cfa_offset 4
 862 0026 BD46     		mov	sp, r7
 863              		.cfi_def_cfa_register 13
 864              		@ sp needed
 865 0028 5DF8047B 		ldr	r7, [sp], #4
 866              		.cfi_restore 7
 867              		.cfi_def_cfa_offset 0
 868 002c 7047     		bx	lr
ARM GAS  C:\Users\LUKASC~1\AppData\Local\Temp\ccwNUHtE.s 			page 32


 869              	.L40:
 870 002e 00BF     		.align	2
 871              	.L39:
 872 0030 00000000 		.word	USBUART_configurationChanged
 873              		.cfi_endproc
 874              	.LFE7:
 875              		.size	USBUART_IsConfigurationChanged, .-USBUART_IsConfigurationChanged
 876              		.section	.text.USBUART_GetInterfaceSetting,"ax",%progbits
 877              		.align	2
 878              		.global	USBUART_GetInterfaceSetting
 879              		.thumb
 880              		.thumb_func
 881              		.type	USBUART_GetInterfaceSetting, %function
 882              	USBUART_GetInterfaceSetting:
 883              	.LFB8:
 896:.\Generated_Source\PSoC5/USBUART.c **** 
 897:.\Generated_Source\PSoC5/USBUART.c **** 
 898:.\Generated_Source\PSoC5/USBUART.c **** /*******************************************************************************
 899:.\Generated_Source\PSoC5/USBUART.c **** * Function Name: USBUART_GetInterfaceSetting
 900:.\Generated_Source\PSoC5/USBUART.c **** ****************************************************************************//**
 901:.\Generated_Source\PSoC5/USBUART.c **** *
 902:.\Generated_Source\PSoC5/USBUART.c **** *  This function gets the current alternate setting for the specified interface.
 903:.\Generated_Source\PSoC5/USBUART.c **** *  It is useful to identify which alternate settings are active in the specified 
 904:.\Generated_Source\PSoC5/USBUART.c **** *  interface.
 905:.\Generated_Source\PSoC5/USBUART.c **** *
 906:.\Generated_Source\PSoC5/USBUART.c **** *  \param
 907:.\Generated_Source\PSoC5/USBUART.c **** *  interfaceNumber interface number
 908:.\Generated_Source\PSoC5/USBUART.c **** *
 909:.\Generated_Source\PSoC5/USBUART.c **** * \return
 910:.\Generated_Source\PSoC5/USBUART.c **** *  Returns the current alternate setting for the specified interface.
 911:.\Generated_Source\PSoC5/USBUART.c **** *
 912:.\Generated_Source\PSoC5/USBUART.c **** *******************************************************************************/
 913:.\Generated_Source\PSoC5/USBUART.c **** uint8  USBUART_GetInterfaceSetting(uint8 interfaceNumber)
 914:.\Generated_Source\PSoC5/USBUART.c ****                                                     
 915:.\Generated_Source\PSoC5/USBUART.c **** {
 884              		.loc 1 915 0
 885              		.cfi_startproc
 886              		@ args = 0, pretend = 0, frame = 8
 887              		@ frame_needed = 1, uses_anonymous_args = 0
 888              		@ link register save eliminated.
 889 0000 80B4     		push	{r7}
 890              		.cfi_def_cfa_offset 4
 891              		.cfi_offset 7, -4
 892 0002 83B0     		sub	sp, sp, #12
 893              		.cfi_def_cfa_offset 16
 894 0004 00AF     		add	r7, sp, #0
 895              		.cfi_def_cfa_register 7
 896 0006 0346     		mov	r3, r0
 897 0008 FB71     		strb	r3, [r7, #7]
 916:.\Generated_Source\PSoC5/USBUART.c ****     return (USBUART_interfaceSetting[interfaceNumber]);
 898              		.loc 1 916 0
 899 000a FB79     		ldrb	r3, [r7, #7]	@ zero_extendqisi2
 900 000c 044A     		ldr	r2, .L43
 901 000e D35C     		ldrb	r3, [r2, r3]
 902 0010 DBB2     		uxtb	r3, r3
 917:.\Generated_Source\PSoC5/USBUART.c **** }
 903              		.loc 1 917 0
ARM GAS  C:\Users\LUKASC~1\AppData\Local\Temp\ccwNUHtE.s 			page 33


 904 0012 1846     		mov	r0, r3
 905 0014 0C37     		adds	r7, r7, #12
 906              		.cfi_def_cfa_offset 4
 907 0016 BD46     		mov	sp, r7
 908              		.cfi_def_cfa_register 13
 909              		@ sp needed
 910 0018 5DF8047B 		ldr	r7, [sp], #4
 911              		.cfi_restore 7
 912              		.cfi_def_cfa_offset 0
 913 001c 7047     		bx	lr
 914              	.L44:
 915 001e 00BF     		.align	2
 916              	.L43:
 917 0020 00000000 		.word	USBUART_interfaceSetting
 918              		.cfi_endproc
 919              	.LFE8:
 920              		.size	USBUART_GetInterfaceSetting, .-USBUART_GetInterfaceSetting
 921              		.section	.text.USBUART_GetEPState,"ax",%progbits
 922              		.align	2
 923              		.global	USBUART_GetEPState
 924              		.thumb
 925              		.thumb_func
 926              		.type	USBUART_GetEPState, %function
 927              	USBUART_GetEPState:
 928              	.LFB9:
 918:.\Generated_Source\PSoC5/USBUART.c **** 
 919:.\Generated_Source\PSoC5/USBUART.c **** 
 920:.\Generated_Source\PSoC5/USBUART.c **** /*******************************************************************************
 921:.\Generated_Source\PSoC5/USBUART.c **** * Function Name: USBUART_GetEPState
 922:.\Generated_Source\PSoC5/USBUART.c **** ****************************************************************************//**
 923:.\Generated_Source\PSoC5/USBUART.c **** *
 924:.\Generated_Source\PSoC5/USBUART.c **** *  This function returns the state of the requested endpoint.
 925:.\Generated_Source\PSoC5/USBUART.c **** *
 926:.\Generated_Source\PSoC5/USBUART.c **** * \param epNumber Data endpoint number
 927:.\Generated_Source\PSoC5/USBUART.c **** *
 928:.\Generated_Source\PSoC5/USBUART.c **** * \return
 929:.\Generated_Source\PSoC5/USBUART.c **** *  Returns the current state of the specified USBFS endpoint. Symbolic names and
 930:.\Generated_Source\PSoC5/USBUART.c **** *  their associated values are given in the following table. Use these constants
 931:.\Generated_Source\PSoC5/USBUART.c **** *  whenever you write code to change the state of the endpoints, such as ISR
 932:.\Generated_Source\PSoC5/USBUART.c **** *  code, to handle data sent or received.
 933:.\Generated_Source\PSoC5/USBUART.c **** *
 934:.\Generated_Source\PSoC5/USBUART.c **** *  Return Value           | Description
 935:.\Generated_Source\PSoC5/USBUART.c **** *  -----------------------|-----------------------------------------------------
 936:.\Generated_Source\PSoC5/USBUART.c **** *  USBFS_NO_EVENT_PENDING |The endpoint is awaiting SIE action
 937:.\Generated_Source\PSoC5/USBUART.c **** *  USBFS_EVENT_PENDING    |The endpoint is awaiting CPU action
 938:.\Generated_Source\PSoC5/USBUART.c **** *  USBFS_NO_EVENT_ALLOWED |The endpoint is locked from access
 939:.\Generated_Source\PSoC5/USBUART.c **** *  USBFS_IN_BUFFER_FULL   |The IN endpoint is loaded and the mode is set to ACK IN
 940:.\Generated_Source\PSoC5/USBUART.c **** *  USBFS_IN_BUFFER_EMPTY  |An IN transaction occurred and more data can be loaded
 941:.\Generated_Source\PSoC5/USBUART.c **** *  USBFS_OUT_BUFFER_EMPTY |The OUT endpoint is set to ACK OUT and is waiting for data
 942:.\Generated_Source\PSoC5/USBUART.c **** *  USBFS_OUT_BUFFER_FULL  |An OUT transaction has occurred and data can be read
 943:.\Generated_Source\PSoC5/USBUART.c **** *
 944:.\Generated_Source\PSoC5/USBUART.c **** *******************************************************************************/
 945:.\Generated_Source\PSoC5/USBUART.c **** uint8 USBUART_GetEPState(uint8 epNumber) 
 946:.\Generated_Source\PSoC5/USBUART.c **** {
 929              		.loc 1 946 0
 930              		.cfi_startproc
 931              		@ args = 0, pretend = 0, frame = 8
ARM GAS  C:\Users\LUKASC~1\AppData\Local\Temp\ccwNUHtE.s 			page 34


 932              		@ frame_needed = 1, uses_anonymous_args = 0
 933              		@ link register save eliminated.
 934 0000 80B4     		push	{r7}
 935              		.cfi_def_cfa_offset 4
 936              		.cfi_offset 7, -4
 937 0002 83B0     		sub	sp, sp, #12
 938              		.cfi_def_cfa_offset 16
 939 0004 00AF     		add	r7, sp, #0
 940              		.cfi_def_cfa_register 7
 941 0006 0346     		mov	r3, r0
 942 0008 FB71     		strb	r3, [r7, #7]
 947:.\Generated_Source\PSoC5/USBUART.c ****     return (USBUART_EP[epNumber].apiEpState);
 943              		.loc 1 947 0
 944 000a FA79     		ldrb	r2, [r7, #7]	@ zero_extendqisi2
 945 000c 0649     		ldr	r1, .L47
 946 000e 1346     		mov	r3, r2
 947 0010 5B00     		lsls	r3, r3, #1
 948 0012 1344     		add	r3, r3, r2
 949 0014 9B00     		lsls	r3, r3, #2
 950 0016 0B44     		add	r3, r3, r1
 951 0018 5B78     		ldrb	r3, [r3, #1]
 952 001a DBB2     		uxtb	r3, r3
 948:.\Generated_Source\PSoC5/USBUART.c **** }
 953              		.loc 1 948 0
 954 001c 1846     		mov	r0, r3
 955 001e 0C37     		adds	r7, r7, #12
 956              		.cfi_def_cfa_offset 4
 957 0020 BD46     		mov	sp, r7
 958              		.cfi_def_cfa_register 13
 959              		@ sp needed
 960 0022 5DF8047B 		ldr	r7, [sp], #4
 961              		.cfi_restore 7
 962              		.cfi_def_cfa_offset 0
 963 0026 7047     		bx	lr
 964              	.L48:
 965              		.align	2
 966              	.L47:
 967 0028 00000000 		.word	USBUART_EP
 968              		.cfi_endproc
 969              	.LFE9:
 970              		.size	USBUART_GetEPState, .-USBUART_GetEPState
 971              		.section	.text.USBUART_GetEPCount,"ax",%progbits
 972              		.align	2
 973              		.global	USBUART_GetEPCount
 974              		.thumb
 975              		.thumb_func
 976              		.type	USBUART_GetEPCount, %function
 977              	USBUART_GetEPCount:
 978              	.LFB10:
 949:.\Generated_Source\PSoC5/USBUART.c **** 
 950:.\Generated_Source\PSoC5/USBUART.c **** 
 951:.\Generated_Source\PSoC5/USBUART.c **** /*******************************************************************************
 952:.\Generated_Source\PSoC5/USBUART.c **** * Function Name: USBUART_GetEPCount
 953:.\Generated_Source\PSoC5/USBUART.c **** ****************************************************************************//**
 954:.\Generated_Source\PSoC5/USBUART.c **** *
 955:.\Generated_Source\PSoC5/USBUART.c **** *  This function supports Data Endpoints only(EP1-EP8).
 956:.\Generated_Source\PSoC5/USBUART.c **** *  Returns the transfer count for the requested endpoint.  The value from
ARM GAS  C:\Users\LUKASC~1\AppData\Local\Temp\ccwNUHtE.s 			page 35


 957:.\Generated_Source\PSoC5/USBUART.c **** *  the count registers includes 2 counts for the two byte checksum of the
 958:.\Generated_Source\PSoC5/USBUART.c **** *  packet.  This function subtracts the two counts.
 959:.\Generated_Source\PSoC5/USBUART.c **** *
 960:.\Generated_Source\PSoC5/USBUART.c **** *  \param epNumber Data Endpoint Number.
 961:.\Generated_Source\PSoC5/USBUART.c **** *                   Valid values are between 1 and 8.
 962:.\Generated_Source\PSoC5/USBUART.c **** *
 963:.\Generated_Source\PSoC5/USBUART.c **** * \return
 964:.\Generated_Source\PSoC5/USBUART.c **** *  Returns the current byte count from the specified endpoint or 0 for an
 965:.\Generated_Source\PSoC5/USBUART.c **** *  invalid endpoint.
 966:.\Generated_Source\PSoC5/USBUART.c **** *
 967:.\Generated_Source\PSoC5/USBUART.c **** *******************************************************************************/
 968:.\Generated_Source\PSoC5/USBUART.c **** uint16 USBUART_GetEPCount(uint8 epNumber) 
 969:.\Generated_Source\PSoC5/USBUART.c **** {
 979              		.loc 1 969 0
 980              		.cfi_startproc
 981              		@ args = 0, pretend = 0, frame = 16
 982              		@ frame_needed = 1, uses_anonymous_args = 0
 983              		@ link register save eliminated.
 984 0000 80B4     		push	{r7}
 985              		.cfi_def_cfa_offset 4
 986              		.cfi_offset 7, -4
 987 0002 85B0     		sub	sp, sp, #20
 988              		.cfi_def_cfa_offset 24
 989 0004 00AF     		add	r7, sp, #0
 990              		.cfi_def_cfa_register 7
 991 0006 0346     		mov	r3, r0
 992 0008 FB71     		strb	r3, [r7, #7]
 970:.\Generated_Source\PSoC5/USBUART.c ****     uint16 cntr = 0u;
 993              		.loc 1 970 0
 994 000a 0023     		movs	r3, #0
 995 000c FB81     		strh	r3, [r7, #14]	@ movhi
 971:.\Generated_Source\PSoC5/USBUART.c **** 
 972:.\Generated_Source\PSoC5/USBUART.c ****     if ((epNumber > USBUART_EP0) && (epNumber < USBUART_MAX_EP))
 996              		.loc 1 972 0
 997 000e FB79     		ldrb	r3, [r7, #7]	@ zero_extendqisi2
 998 0010 002B     		cmp	r3, #0
 999 0012 1BD0     		beq	.L50
 1000              		.loc 1 972 0 is_stmt 0 discriminator 1
 1001 0014 FB79     		ldrb	r3, [r7, #7]	@ zero_extendqisi2
 1002 0016 082B     		cmp	r3, #8
 1003 0018 18D8     		bhi	.L50
 973:.\Generated_Source\PSoC5/USBUART.c ****     {
 974:.\Generated_Source\PSoC5/USBUART.c ****         /* Get 11-bits EP counter where epCnt0 - 3 bits MSB and epCnt1 - 8 bits LSB. */
 975:.\Generated_Source\PSoC5/USBUART.c ****         cntr  = ((uint16) USBUART_SIE_EP_BASE.sieEp[epNumber].epCnt0) & USBUART_EPX_CNT0_MASK;
 1004              		.loc 1 975 0 is_stmt 1
 1005 001a 104A     		ldr	r2, .L52
 1006 001c FB79     		ldrb	r3, [r7, #7]	@ zero_extendqisi2
 1007 001e 1B01     		lsls	r3, r3, #4
 1008 0020 1344     		add	r3, r3, r2
 1009 0022 1B78     		ldrb	r3, [r3]
 1010 0024 DBB2     		uxtb	r3, r3
 1011 0026 9BB2     		uxth	r3, r3
 1012 0028 03F00F03 		and	r3, r3, #15
 1013 002c FB81     		strh	r3, [r7, #14]	@ movhi
 976:.\Generated_Source\PSoC5/USBUART.c ****         cntr  = ((uint16) (cntr << 8u)) | ((uint16) USBUART_SIE_EP_BASE.sieEp[epNumber].epCnt1);
 1014              		.loc 1 976 0
 1015 002e FB89     		ldrh	r3, [r7, #14]	@ movhi
ARM GAS  C:\Users\LUKASC~1\AppData\Local\Temp\ccwNUHtE.s 			page 36


 1016 0030 1B02     		lsls	r3, r3, #8
 1017 0032 9AB2     		uxth	r2, r3
 1018 0034 0949     		ldr	r1, .L52
 1019 0036 FB79     		ldrb	r3, [r7, #7]	@ zero_extendqisi2
 1020 0038 1B01     		lsls	r3, r3, #4
 1021 003a 0B44     		add	r3, r3, r1
 1022 003c 5B78     		ldrb	r3, [r3, #1]
 1023 003e DBB2     		uxtb	r3, r3
 1024 0040 9BB2     		uxth	r3, r3
 1025 0042 1343     		orrs	r3, r3, r2
 1026 0044 FB81     		strh	r3, [r7, #14]	@ movhi
 977:.\Generated_Source\PSoC5/USBUART.c ****         cntr -= USBUART_EPX_CNTX_CRC_COUNT;
 1027              		.loc 1 977 0
 1028 0046 FB89     		ldrh	r3, [r7, #14]	@ movhi
 1029 0048 023B     		subs	r3, r3, #2
 1030 004a FB81     		strh	r3, [r7, #14]	@ movhi
 1031              	.L50:
 978:.\Generated_Source\PSoC5/USBUART.c ****     }
 979:.\Generated_Source\PSoC5/USBUART.c **** 
 980:.\Generated_Source\PSoC5/USBUART.c ****     return (cntr);
 1032              		.loc 1 980 0
 1033 004c FB89     		ldrh	r3, [r7, #14]
 981:.\Generated_Source\PSoC5/USBUART.c **** }
 1034              		.loc 1 981 0
 1035 004e 1846     		mov	r0, r3
 1036 0050 1437     		adds	r7, r7, #20
 1037              		.cfi_def_cfa_offset 4
 1038 0052 BD46     		mov	sp, r7
 1039              		.cfi_def_cfa_register 13
 1040              		@ sp needed
 1041 0054 5DF8047B 		ldr	r7, [sp], #4
 1042              		.cfi_restore 7
 1043              		.cfi_def_cfa_offset 0
 1044 0058 7047     		bx	lr
 1045              	.L53:
 1046 005a 00BF     		.align	2
 1047              	.L52:
 1048 005c FC5F0040 		.word	1073766396
 1049              		.cfi_endproc
 1050              	.LFE10:
 1051              		.size	USBUART_GetEPCount, .-USBUART_GetEPCount
 1052              		.section	.text.USBUART_LoadInEP,"ax",%progbits
 1053              		.align	2
 1054              		.global	USBUART_LoadInEP
 1055              		.thumb
 1056              		.thumb_func
 1057              		.type	USBUART_LoadInEP, %function
 1058              	USBUART_LoadInEP:
 1059              	.LFB11:
 982:.\Generated_Source\PSoC5/USBUART.c **** 
 983:.\Generated_Source\PSoC5/USBUART.c **** 
 984:.\Generated_Source\PSoC5/USBUART.c **** #if (USBUART_EP_MANAGEMENT_DMA)
 985:.\Generated_Source\PSoC5/USBUART.c **** #if (CY_PSOC4)
 986:.\Generated_Source\PSoC5/USBUART.c ****     /*******************************************************************************
 987:.\Generated_Source\PSoC5/USBUART.c ****     * Function Name: USBUART_InitEpDma
 988:.\Generated_Source\PSoC5/USBUART.c ****     ****************************************************************************//**
 989:.\Generated_Source\PSoC5/USBUART.c ****     *
ARM GAS  C:\Users\LUKASC~1\AppData\Local\Temp\ccwNUHtE.s 			page 37


 990:.\Generated_Source\PSoC5/USBUART.c ****     *  This function configures priority for all DMA channels utilized by the
 991:.\Generated_Source\PSoC5/USBUART.c ****     *  component. Also sets callbacks for DMA auto mode.
 992:.\Generated_Source\PSoC5/USBUART.c ****     *
 993:.\Generated_Source\PSoC5/USBUART.c ****     *******************************************************************************/
 994:.\Generated_Source\PSoC5/USBUART.c ****     static void USBUART_InitEpDma(void)
 995:.\Generated_Source\PSoC5/USBUART.c ****     {
 996:.\Generated_Source\PSoC5/USBUART.c ****     #if (USBUART_DMA1_ACTIVE)
 997:.\Generated_Source\PSoC5/USBUART.c ****         CYDMA_CH_CTL_BASE.ctl[USBUART_ep1_dma_CHANNEL] = USBUART_ep1_dma_CHANNEL_CFG;
 998:.\Generated_Source\PSoC5/USBUART.c ****     #endif /* (USBUART_DMA1_ACTIVE) */
 999:.\Generated_Source\PSoC5/USBUART.c **** 
1000:.\Generated_Source\PSoC5/USBUART.c ****     #if (USBUART_DMA2_ACTIVE)
1001:.\Generated_Source\PSoC5/USBUART.c ****         CYDMA_CH_CTL_BASE.ctl[USBUART_ep2_dma_CHANNEL] = USBUART_ep2_dma_CHANNEL_CFG;
1002:.\Generated_Source\PSoC5/USBUART.c ****     #endif /* (USBUART_DMA2_ACTIVE) */
1003:.\Generated_Source\PSoC5/USBUART.c **** 
1004:.\Generated_Source\PSoC5/USBUART.c ****     #if (USBUART_DMA3_ACTIVE)
1005:.\Generated_Source\PSoC5/USBUART.c ****         CYDMA_CH_CTL_BASE.ctl[USBUART_ep3_dma_CHANNEL] = USBUART_ep3_dma_CHANNEL_CFG;
1006:.\Generated_Source\PSoC5/USBUART.c ****     #endif /* (USBUART_DMA3_ACTIVE) */
1007:.\Generated_Source\PSoC5/USBUART.c **** 
1008:.\Generated_Source\PSoC5/USBUART.c ****     #if (USBUART_DMA4_ACTIVE)
1009:.\Generated_Source\PSoC5/USBUART.c ****         CYDMA_CH_CTL_BASE.ctl[USBUART_ep4_dma_CHANNEL] = USBUART_ep4_dma_CHANNEL_CFG;
1010:.\Generated_Source\PSoC5/USBUART.c ****     #endif /* (USBUART_DMA4_ACTIVE) */
1011:.\Generated_Source\PSoC5/USBUART.c **** 
1012:.\Generated_Source\PSoC5/USBUART.c ****     #if (USBUART_DMA5_ACTIVE)
1013:.\Generated_Source\PSoC5/USBUART.c ****         CYDMA_CH_CTL_BASE.ctl[USBUART_ep5_dma_CHANNEL] = USBUART_ep5_dma_CHANNEL_CFG;
1014:.\Generated_Source\PSoC5/USBUART.c ****     #endif /* (USBUART_DMA5_ACTIVE) */
1015:.\Generated_Source\PSoC5/USBUART.c **** 
1016:.\Generated_Source\PSoC5/USBUART.c ****     #if (USBUART_DMA6_ACTIVE)
1017:.\Generated_Source\PSoC5/USBUART.c ****         CYDMA_CH_CTL_BASE.ctl[USBUART_ep6_dma_CHANNEL] = USBUART_ep6_dma_CHANNEL_CFG;
1018:.\Generated_Source\PSoC5/USBUART.c ****     #endif /* (USBUART_DMA6_ACTIVE) */
1019:.\Generated_Source\PSoC5/USBUART.c **** 
1020:.\Generated_Source\PSoC5/USBUART.c ****     #if (USBUART_DMA7_ACTIVE)
1021:.\Generated_Source\PSoC5/USBUART.c ****         CYDMA_CH_CTL_BASE.ctl[USBUART_ep7_dma_CHANNEL] = USBUART_ep7_dma_CHANNEL_CFG;
1022:.\Generated_Source\PSoC5/USBUART.c ****     #endif /* (USBUART_DMA7_ACTIVE) */
1023:.\Generated_Source\PSoC5/USBUART.c **** 
1024:.\Generated_Source\PSoC5/USBUART.c ****     #if (USBUART_DMA8_ACTIVE)
1025:.\Generated_Source\PSoC5/USBUART.c ****         CYDMA_CH_CTL_BASE.ctl[USBUART_ep8_dma_CHANNEL] = USBUART_ep8_dma_CHANNEL_CFG;
1026:.\Generated_Source\PSoC5/USBUART.c ****     #endif /* (USBUART_DMA8_ACTIVE) */
1027:.\Generated_Source\PSoC5/USBUART.c **** 
1028:.\Generated_Source\PSoC5/USBUART.c ****     #if (USBUART_EP_MANAGEMENT_DMA_AUTO)
1029:.\Generated_Source\PSoC5/USBUART.c ****         /* Initialize DMA channel callbacks. */
1030:.\Generated_Source\PSoC5/USBUART.c ****         #if (USBUART_DMA1_ACTIVE)
1031:.\Generated_Source\PSoC5/USBUART.c ****             (void) USBUART_ep1_dma_SetInterruptCallback(&USBUART_EP1_DMA_DONE_ISR);
1032:.\Generated_Source\PSoC5/USBUART.c ****         #endif /* (USBUART_DMA1_ACTIVE) */
1033:.\Generated_Source\PSoC5/USBUART.c **** 
1034:.\Generated_Source\PSoC5/USBUART.c ****         #if (USBUART_DMA2_ACTIVE)
1035:.\Generated_Source\PSoC5/USBUART.c ****             (void) USBUART_ep2_dma_SetInterruptCallback(&USBUART_EP2_DMA_DONE_ISR);
1036:.\Generated_Source\PSoC5/USBUART.c ****         #endif /* (USBUART_DMA2_ACTIVE) */
1037:.\Generated_Source\PSoC5/USBUART.c **** 
1038:.\Generated_Source\PSoC5/USBUART.c ****         #if (USBUART_DMA3_ACTIVE)
1039:.\Generated_Source\PSoC5/USBUART.c ****             (void) USBUART_ep3_dma_SetInterruptCallback(&USBUART_EP3_DMA_DONE_ISR);
1040:.\Generated_Source\PSoC5/USBUART.c ****         #endif /* (USBUART_DMA3_ACTIVE) */
1041:.\Generated_Source\PSoC5/USBUART.c **** 
1042:.\Generated_Source\PSoC5/USBUART.c ****         #if (USBUART_DMA4_ACTIVE)
1043:.\Generated_Source\PSoC5/USBUART.c ****             (void) USBUART_ep4_dma_SetInterruptCallback(&USBUART_EP4_DMA_DONE_ISR);
1044:.\Generated_Source\PSoC5/USBUART.c ****         #endif /* (USBUART_DMA4_ACTIVE) */
1045:.\Generated_Source\PSoC5/USBUART.c **** 
1046:.\Generated_Source\PSoC5/USBUART.c ****         #if (USBUART_DMA5_ACTIVE)
ARM GAS  C:\Users\LUKASC~1\AppData\Local\Temp\ccwNUHtE.s 			page 38


1047:.\Generated_Source\PSoC5/USBUART.c ****             (void) USBUART_ep5_dma_SetInterruptCallback(&USBUART_EP5_DMA_DONE_ISR);
1048:.\Generated_Source\PSoC5/USBUART.c ****         #endif /* (USBUART_DMA5_ACTIVE) */
1049:.\Generated_Source\PSoC5/USBUART.c **** 
1050:.\Generated_Source\PSoC5/USBUART.c ****         #if (USBUART_DMA6_ACTIVE)
1051:.\Generated_Source\PSoC5/USBUART.c ****             (void) USBUART_ep6_dma_SetInterruptCallback(&USBUART_EP6_DMA_DONE_ISR);
1052:.\Generated_Source\PSoC5/USBUART.c ****         #endif /* (USBUART_DMA6_ACTIVE) */
1053:.\Generated_Source\PSoC5/USBUART.c **** 
1054:.\Generated_Source\PSoC5/USBUART.c ****         #if (USBUART_DMA7_ACTIVE)
1055:.\Generated_Source\PSoC5/USBUART.c ****             (void) USBUART_ep7_dma_SetInterruptCallback(&USBUART_EP7_DMA_DONE_ISR);
1056:.\Generated_Source\PSoC5/USBUART.c ****         #endif /* (USBUART_DMA7_ACTIVE) */
1057:.\Generated_Source\PSoC5/USBUART.c **** 
1058:.\Generated_Source\PSoC5/USBUART.c ****         #if (USBUART_DMA8_ACTIVE)
1059:.\Generated_Source\PSoC5/USBUART.c ****             (void) USBUART_ep8_dma_SetInterruptCallback(&USBUART_EP8_DMA_DONE_ISR);
1060:.\Generated_Source\PSoC5/USBUART.c ****         #endif /* (USBUART_DMA8_ACTIVE) */
1061:.\Generated_Source\PSoC5/USBUART.c ****     #endif /* (USBUART_EP_MANAGEMENT_DMA_AUTO) */
1062:.\Generated_Source\PSoC5/USBUART.c ****     }
1063:.\Generated_Source\PSoC5/USBUART.c **** #else
1064:.\Generated_Source\PSoC5/USBUART.c **** 
1065:.\Generated_Source\PSoC5/USBUART.c **** 
1066:.\Generated_Source\PSoC5/USBUART.c ****     /***************************************************************************
1067:.\Generated_Source\PSoC5/USBUART.c ****     * Function Name: USBUART_InitEP_DMA
1068:.\Generated_Source\PSoC5/USBUART.c ****     ************************************************************************//**
1069:.\Generated_Source\PSoC5/USBUART.c ****     *
1070:.\Generated_Source\PSoC5/USBUART.c ****     *  This function allocates and initializes a DMA channel to be used by the
1071:.\Generated_Source\PSoC5/USBUART.c ****     *  USBUART_LoadInEP() or USBUART_ReadOutEP() APIs for data
1072:.\Generated_Source\PSoC5/USBUART.c ****     *  transfer. It is available when the Endpoint Memory Management parameter
1073:.\Generated_Source\PSoC5/USBUART.c ****     *  is set to DMA.
1074:.\Generated_Source\PSoC5/USBUART.c ****     *
1075:.\Generated_Source\PSoC5/USBUART.c ****     *  This function is automatically called from the USBFS_LoadInEP() and USBFS_ReadOutEP() APIs.
1076:.\Generated_Source\PSoC5/USBUART.c ****     *
1077:.\Generated_Source\PSoC5/USBUART.c ****     *  \param epNumber Contains the data endpoint number.
1078:.\Generated_Source\PSoC5/USBUART.c ****     *            Valid values are between 1 and 8.
1079:.\Generated_Source\PSoC5/USBUART.c ****     *  \param *pData Pointer to a data array that is related to the EP transfers.
1080:.\Generated_Source\PSoC5/USBUART.c ****     *
1081:.\Generated_Source\PSoC5/USBUART.c ****     * \reentrant No.
1082:.\Generated_Source\PSoC5/USBUART.c ****     *
1083:.\Generated_Source\PSoC5/USBUART.c ****     ***************************************************************************/
1084:.\Generated_Source\PSoC5/USBUART.c ****     void USBUART_InitEP_DMA(uint8 epNumber, const uint8 *pData)
1085:.\Generated_Source\PSoC5/USBUART.c ****                                                                     
1086:.\Generated_Source\PSoC5/USBUART.c ****     {
1087:.\Generated_Source\PSoC5/USBUART.c ****         uint16 src;
1088:.\Generated_Source\PSoC5/USBUART.c ****         uint16 dst;
1089:.\Generated_Source\PSoC5/USBUART.c **** 
1090:.\Generated_Source\PSoC5/USBUART.c ****     #if (CY_PSOC3)
1091:.\Generated_Source\PSoC5/USBUART.c ****         src = HI16(CYDEV_SRAM_BASE);
1092:.\Generated_Source\PSoC5/USBUART.c ****         dst = HI16(CYDEV_PERIPH_BASE);
1093:.\Generated_Source\PSoC5/USBUART.c ****         pData = pData;
1094:.\Generated_Source\PSoC5/USBUART.c ****     #else
1095:.\Generated_Source\PSoC5/USBUART.c ****         if ((USBUART_EP[epNumber].addr & USBUART_DIR_IN) != 0u)
1096:.\Generated_Source\PSoC5/USBUART.c ****         {
1097:.\Generated_Source\PSoC5/USBUART.c ****             /* IN endpoint: source is memory buffer. */
1098:.\Generated_Source\PSoC5/USBUART.c ****             src = HI16(pData);
1099:.\Generated_Source\PSoC5/USBUART.c ****             dst = HI16(CYDEV_PERIPH_BASE);
1100:.\Generated_Source\PSoC5/USBUART.c ****         }
1101:.\Generated_Source\PSoC5/USBUART.c ****         else
1102:.\Generated_Source\PSoC5/USBUART.c ****         {
1103:.\Generated_Source\PSoC5/USBUART.c ****             /* OUT endpoint: source is USB IP memory buffer. */
ARM GAS  C:\Users\LUKASC~1\AppData\Local\Temp\ccwNUHtE.s 			page 39


1104:.\Generated_Source\PSoC5/USBUART.c ****             src = HI16(CYDEV_PERIPH_BASE);
1105:.\Generated_Source\PSoC5/USBUART.c ****             dst = HI16(pData);
1106:.\Generated_Source\PSoC5/USBUART.c ****         }
1107:.\Generated_Source\PSoC5/USBUART.c ****     #endif  /* (CY_PSOC3) */
1108:.\Generated_Source\PSoC5/USBUART.c **** 
1109:.\Generated_Source\PSoC5/USBUART.c ****         switch(epNumber)
1110:.\Generated_Source\PSoC5/USBUART.c ****         {
1111:.\Generated_Source\PSoC5/USBUART.c ****     #if (USBUART_DMA1_ACTIVE)
1112:.\Generated_Source\PSoC5/USBUART.c ****         case USBUART_EP1:
1113:.\Generated_Source\PSoC5/USBUART.c ****             USBUART_DmaChan[epNumber] = USBUART_ep1_DmaInitialize(USBUART_DMA_BYTES_PER_BURST,
1114:.\Generated_Source\PSoC5/USBUART.c ****                                                                                     USBUART_DMA_REQ
1115:.\Generated_Source\PSoC5/USBUART.c ****             break;
1116:.\Generated_Source\PSoC5/USBUART.c ****     #endif /* (USBUART_DMA1_ACTIVE) */
1117:.\Generated_Source\PSoC5/USBUART.c **** 
1118:.\Generated_Source\PSoC5/USBUART.c ****     #if (USBUART_DMA2_ACTIVE)
1119:.\Generated_Source\PSoC5/USBUART.c ****         case USBUART_EP2:
1120:.\Generated_Source\PSoC5/USBUART.c ****             USBUART_DmaChan[epNumber] = USBUART_ep2_DmaInitialize(USBUART_DMA_BYTES_PER_BURST,
1121:.\Generated_Source\PSoC5/USBUART.c ****                                                                                     USBUART_DMA_REQ
1122:.\Generated_Source\PSoC5/USBUART.c ****             break;
1123:.\Generated_Source\PSoC5/USBUART.c ****     #endif /* (USBUART_DMA2_ACTIVE) */
1124:.\Generated_Source\PSoC5/USBUART.c **** 
1125:.\Generated_Source\PSoC5/USBUART.c ****     #if (USBUART_DMA3_ACTIVE)
1126:.\Generated_Source\PSoC5/USBUART.c ****             case USBUART_EP3:
1127:.\Generated_Source\PSoC5/USBUART.c ****                 USBUART_DmaChan[epNumber] = USBUART_ep3_DmaInitialize(USBUART_DMA_BYTES_PER_BURST,
1128:.\Generated_Source\PSoC5/USBUART.c ****                                                                                         USBUART_DMA
1129:.\Generated_Source\PSoC5/USBUART.c ****             break;
1130:.\Generated_Source\PSoC5/USBUART.c ****     #endif /* (USBUART_DMA3_ACTIVE) */
1131:.\Generated_Source\PSoC5/USBUART.c **** 
1132:.\Generated_Source\PSoC5/USBUART.c ****     #if (USBUART_DMA4_ACTIVE)
1133:.\Generated_Source\PSoC5/USBUART.c ****             case USBUART_EP4:
1134:.\Generated_Source\PSoC5/USBUART.c ****                 USBUART_DmaChan[epNumber] = USBUART_ep4_DmaInitialize(USBUART_DMA_BYTES_PER_BURST,
1135:.\Generated_Source\PSoC5/USBUART.c ****                                                                                         USBUART_DMA
1136:.\Generated_Source\PSoC5/USBUART.c ****             break;
1137:.\Generated_Source\PSoC5/USBUART.c ****     #endif /* (USBUART_DMA4_ACTIVE) */
1138:.\Generated_Source\PSoC5/USBUART.c **** 
1139:.\Generated_Source\PSoC5/USBUART.c ****     #if (USBUART_DMA5_ACTIVE)
1140:.\Generated_Source\PSoC5/USBUART.c ****             case USBUART_EP5:
1141:.\Generated_Source\PSoC5/USBUART.c ****                 USBUART_DmaChan[epNumber] = USBUART_ep5_DmaInitialize(USBUART_DMA_BYTES_PER_BURST,
1142:.\Generated_Source\PSoC5/USBUART.c ****                                                                                         USBUART_DMA
1143:.\Generated_Source\PSoC5/USBUART.c ****             break;
1144:.\Generated_Source\PSoC5/USBUART.c ****     #endif /* (USBUART_DMA5_ACTIVE) */
1145:.\Generated_Source\PSoC5/USBUART.c **** 
1146:.\Generated_Source\PSoC5/USBUART.c ****     #if (USBUART_DMA6_ACTIVE)
1147:.\Generated_Source\PSoC5/USBUART.c ****         case USBUART_EP6:
1148:.\Generated_Source\PSoC5/USBUART.c ****             USBUART_DmaChan[epNumber] = USBUART_ep6_DmaInitialize(USBUART_DMA_BYTES_PER_BURST,
1149:.\Generated_Source\PSoC5/USBUART.c ****                                                                                     USBUART_DMA_REQ
1150:.\Generated_Source\PSoC5/USBUART.c ****             break;
1151:.\Generated_Source\PSoC5/USBUART.c ****     #endif /* (USBUART_DMA6_ACTIVE) */
1152:.\Generated_Source\PSoC5/USBUART.c **** 
1153:.\Generated_Source\PSoC5/USBUART.c ****     #if (USBUART_DMA7_ACTIVE)
1154:.\Generated_Source\PSoC5/USBUART.c ****         case USBUART_EP7:
1155:.\Generated_Source\PSoC5/USBUART.c ****                 USBUART_DmaChan[epNumber] = USBUART_ep7_DmaInitialize(USBUART_DMA_BYTES_PER_BURST,
1156:.\Generated_Source\PSoC5/USBUART.c ****                                                                                         USBUART_DMA
1157:.\Generated_Source\PSoC5/USBUART.c ****             break;
1158:.\Generated_Source\PSoC5/USBUART.c ****     #endif /* (USBUART_DMA7_ACTIVE) */
1159:.\Generated_Source\PSoC5/USBUART.c **** 
1160:.\Generated_Source\PSoC5/USBUART.c ****     #if (USBUART_DMA8_ACTIVE)
ARM GAS  C:\Users\LUKASC~1\AppData\Local\Temp\ccwNUHtE.s 			page 40


1161:.\Generated_Source\PSoC5/USBUART.c ****         case USBUART_EP8:
1162:.\Generated_Source\PSoC5/USBUART.c ****                 USBUART_DmaChan[epNumber] = USBUART_ep8_DmaInitialize(USBUART_DMA_BYTES_PER_BURST,
1163:.\Generated_Source\PSoC5/USBUART.c ****                                                                                         USBUART_DMA
1164:.\Generated_Source\PSoC5/USBUART.c ****             break;
1165:.\Generated_Source\PSoC5/USBUART.c ****     #endif /* (USBUART_DMA8_ACTIVE) */
1166:.\Generated_Source\PSoC5/USBUART.c **** 
1167:.\Generated_Source\PSoC5/USBUART.c ****         default:
1168:.\Generated_Source\PSoC5/USBUART.c ****             /* Do nothing for endpoints other than 1-8. */
1169:.\Generated_Source\PSoC5/USBUART.c ****             break;
1170:.\Generated_Source\PSoC5/USBUART.c ****         }
1171:.\Generated_Source\PSoC5/USBUART.c **** 
1172:.\Generated_Source\PSoC5/USBUART.c ****         if ((epNumber > USBUART_EP0) && (epNumber < USBUART_MAX_EP))
1173:.\Generated_Source\PSoC5/USBUART.c ****         {
1174:.\Generated_Source\PSoC5/USBUART.c ****             USBUART_DmaTd[epNumber] = CyDmaTdAllocate();
1175:.\Generated_Source\PSoC5/USBUART.c **** 
1176:.\Generated_Source\PSoC5/USBUART.c ****         #if (USBUART_EP_MANAGEMENT_DMA_AUTO && (USBUART_EP_DMA_AUTO_OPT == 0u))
1177:.\Generated_Source\PSoC5/USBUART.c ****             USBUART_DmaNextTd[epNumber] = CyDmaTdAllocate();
1178:.\Generated_Source\PSoC5/USBUART.c ****         #endif /* (USBUART_EP_MANAGEMENT_DMA_AUTO && (USBUART_EP_DMA_AUTO_OPT == 0u)) */
1179:.\Generated_Source\PSoC5/USBUART.c ****         }
1180:.\Generated_Source\PSoC5/USBUART.c ****     }
1181:.\Generated_Source\PSoC5/USBUART.c **** #endif /* (CY_PSOC4) */
1182:.\Generated_Source\PSoC5/USBUART.c **** 
1183:.\Generated_Source\PSoC5/USBUART.c ****     /***************************************************************************
1184:.\Generated_Source\PSoC5/USBUART.c ****     * Function Name: USBUART_Stop_DMA
1185:.\Generated_Source\PSoC5/USBUART.c ****     ************************************************************************//**
1186:.\Generated_Source\PSoC5/USBUART.c ****     *  
1187:.\Generated_Source\PSoC5/USBUART.c ****     *  This function stops DMA channel associated with endpoint. It is available 
1188:.\Generated_Source\PSoC5/USBUART.c ****     *  when the Endpoint Buffer Management parameter is set to DMA. Call this 
1189:.\Generated_Source\PSoC5/USBUART.c ****     *  function when endpoint direction is changed from IN to OUT or vice versa 
1190:.\Generated_Source\PSoC5/USBUART.c ****     *  to trigger DMA re-configuration when USBUART_LoadInEP() or 
1191:.\Generated_Source\PSoC5/USBUART.c ****     *  USBUART_ReadOutEP() functions are called the first time. 
1192:.\Generated_Source\PSoC5/USBUART.c ****     *  
1193:.\Generated_Source\PSoC5/USBUART.c ****     *  \param epNumber: The data endpoint number for which associated DMA 
1194:.\Generated_Source\PSoC5/USBUART.c ****     *  channel is stopped. The range of valid values is between 1 and 8. To stop 
1195:.\Generated_Source\PSoC5/USBUART.c ****     *  all DMAs associated with endpoints call this function with 
1196:.\Generated_Source\PSoC5/USBUART.c ****     *  USBUART_MAX_EP argument.
1197:.\Generated_Source\PSoC5/USBUART.c ****     *
1198:.\Generated_Source\PSoC5/USBUART.c ****     * \reentrant
1199:.\Generated_Source\PSoC5/USBUART.c ****     *  No.
1200:.\Generated_Source\PSoC5/USBUART.c ****     *
1201:.\Generated_Source\PSoC5/USBUART.c ****     ***************************************************************************/
1202:.\Generated_Source\PSoC5/USBUART.c ****     void USBUART_Stop_DMA(uint8 epNumber) 
1203:.\Generated_Source\PSoC5/USBUART.c ****     {
1204:.\Generated_Source\PSoC5/USBUART.c ****         uint8 i;
1205:.\Generated_Source\PSoC5/USBUART.c **** 
1206:.\Generated_Source\PSoC5/USBUART.c ****         i = (epNumber < USBUART_MAX_EP) ? epNumber : USBUART_EP1;
1207:.\Generated_Source\PSoC5/USBUART.c **** 
1208:.\Generated_Source\PSoC5/USBUART.c ****         do
1209:.\Generated_Source\PSoC5/USBUART.c ****         {
1210:.\Generated_Source\PSoC5/USBUART.c ****         #if (CY_PSOC4)
1211:.\Generated_Source\PSoC5/USBUART.c ****             if (0u != USBUART_DmaChan[i])
1212:.\Generated_Source\PSoC5/USBUART.c ****             {
1213:.\Generated_Source\PSoC5/USBUART.c ****                 USBUART_CyDmaChDisable(USBUART_DmaChan[i]);
1214:.\Generated_Source\PSoC5/USBUART.c ****             }
1215:.\Generated_Source\PSoC5/USBUART.c ****         #else
1216:.\Generated_Source\PSoC5/USBUART.c ****             if(USBUART_DmaTd[i] != DMA_INVALID_TD)
1217:.\Generated_Source\PSoC5/USBUART.c ****             {
ARM GAS  C:\Users\LUKASC~1\AppData\Local\Temp\ccwNUHtE.s 			page 41


1218:.\Generated_Source\PSoC5/USBUART.c ****                 (void) CyDmaChDisable(USBUART_DmaChan[i]);
1219:.\Generated_Source\PSoC5/USBUART.c ****                 CyDmaTdFree(USBUART_DmaTd[i]);
1220:.\Generated_Source\PSoC5/USBUART.c ****                 USBUART_DmaTd[i] = DMA_INVALID_TD;
1221:.\Generated_Source\PSoC5/USBUART.c ****             }
1222:.\Generated_Source\PSoC5/USBUART.c **** 
1223:.\Generated_Source\PSoC5/USBUART.c ****             #if (USBUART_EP_MANAGEMENT_DMA_AUTO && (USBUART_EP_DMA_AUTO_OPT == 0u))
1224:.\Generated_Source\PSoC5/USBUART.c ****                 if(USBUART_DmaNextTd[i] != DMA_INVALID_TD)
1225:.\Generated_Source\PSoC5/USBUART.c ****                 {
1226:.\Generated_Source\PSoC5/USBUART.c ****                     CyDmaTdFree(USBUART_DmaNextTd[i]);
1227:.\Generated_Source\PSoC5/USBUART.c ****                     USBUART_DmaNextTd[i] = DMA_INVALID_TD;
1228:.\Generated_Source\PSoC5/USBUART.c ****                 }
1229:.\Generated_Source\PSoC5/USBUART.c ****             #endif /* (USBUART_EP_MANAGEMENT_DMA_AUTO && (USBUART_EP_DMA_AUTO_OPT == 0u)) */
1230:.\Generated_Source\PSoC5/USBUART.c **** 
1231:.\Generated_Source\PSoC5/USBUART.c ****         #endif /* (CY_PSOC4) */
1232:.\Generated_Source\PSoC5/USBUART.c ****             i++;
1233:.\Generated_Source\PSoC5/USBUART.c ****         }
1234:.\Generated_Source\PSoC5/USBUART.c ****         while ((i < USBUART_MAX_EP) && (epNumber == USBUART_MAX_EP));
1235:.\Generated_Source\PSoC5/USBUART.c ****     }
1236:.\Generated_Source\PSoC5/USBUART.c **** #endif /* (USBUART_EP_MANAGEMENT_DMA) */
1237:.\Generated_Source\PSoC5/USBUART.c **** 
1238:.\Generated_Source\PSoC5/USBUART.c **** 
1239:.\Generated_Source\PSoC5/USBUART.c **** #if (CY_PSOC3 || CY_PSOC5)
1240:.\Generated_Source\PSoC5/USBUART.c **** #if (USBUART_EP_MANAGEMENT_DMA_AUTO && (USBUART_EP_DMA_AUTO_OPT == 0u))
1241:.\Generated_Source\PSoC5/USBUART.c ****     /***************************************************************************
1242:.\Generated_Source\PSoC5/USBUART.c ****     * Function Name: USBUART_LoadNextInEP
1243:.\Generated_Source\PSoC5/USBUART.c ****     ************************************************************************//**
1244:.\Generated_Source\PSoC5/USBUART.c ****     *
1245:.\Generated_Source\PSoC5/USBUART.c ****     * Summary:
1246:.\Generated_Source\PSoC5/USBUART.c ****     *  This internal function is used for IN endpoint DMA reconfiguration in
1247:.\Generated_Source\PSoC5/USBUART.c ****     *  Auto DMA mode.
1248:.\Generated_Source\PSoC5/USBUART.c ****     *
1249:.\Generated_Source\PSoC5/USBUART.c ****     * Parameters:
1250:.\Generated_Source\PSoC5/USBUART.c ****     *  epNumber: Contains the data endpoint number.
1251:.\Generated_Source\PSoC5/USBUART.c ****     *  mode:   0 - Configure DMA to send the the rest of data.
1252:.\Generated_Source\PSoC5/USBUART.c ****     *          1 - Configure DMA to repeat 2 last bytes of the first burst.
1253:.\Generated_Source\PSoC5/USBUART.c ****     *
1254:.\Generated_Source\PSoC5/USBUART.c ****     ***************************************************************************/
1255:.\Generated_Source\PSoC5/USBUART.c ****     void USBUART_LoadNextInEP(uint8 epNumber, uint8 mode) 
1256:.\Generated_Source\PSoC5/USBUART.c ****     {
1257:.\Generated_Source\PSoC5/USBUART.c ****         reg16 *convert;
1258:.\Generated_Source\PSoC5/USBUART.c **** 
1259:.\Generated_Source\PSoC5/USBUART.c ****         if (mode == 0u)
1260:.\Generated_Source\PSoC5/USBUART.c ****         {
1261:.\Generated_Source\PSoC5/USBUART.c ****             /* Configure DMA to send rest of data. */
1262:.\Generated_Source\PSoC5/USBUART.c ****             /* CyDmaTdSetConfiguration API is optimized to change transfer length only and configur
1263:.\Generated_Source\PSoC5/USBUART.c ****             convert = (reg16 *) &CY_DMA_TDMEM_STRUCT_PTR[USBUART_DmaTd[epNumber]].TD0[0u];
1264:.\Generated_Source\PSoC5/USBUART.c ****             /* Set transfer length. */
1265:.\Generated_Source\PSoC5/USBUART.c ****             CY_SET_REG16(convert, USBUART_inLength[epNumber] - USBUART_DMA_BYTES_PER_BURST);
1266:.\Generated_Source\PSoC5/USBUART.c ****             /* CyDmaTdSetAddress API is optimized to change source address only. */
1267:.\Generated_Source\PSoC5/USBUART.c ****             convert = (reg16 *) &CY_DMA_TDMEM_STRUCT_PTR[USBUART_DmaTd[epNumber]].TD1[0u];
1268:.\Generated_Source\PSoC5/USBUART.c ****             CY_SET_REG16(convert, LO16((uint32)USBUART_inDataPointer[epNumber] +
1269:.\Generated_Source\PSoC5/USBUART.c ****                                             USBUART_DMA_BYTES_PER_BURST));
1270:.\Generated_Source\PSoC5/USBUART.c ****             USBUART_inBufFull[epNumber] = 1u;
1271:.\Generated_Source\PSoC5/USBUART.c ****         }
1272:.\Generated_Source\PSoC5/USBUART.c ****         else
1273:.\Generated_Source\PSoC5/USBUART.c ****         {
1274:.\Generated_Source\PSoC5/USBUART.c ****             /* Configure DMA to repeat 2 last bytes of the first burst. */
ARM GAS  C:\Users\LUKASC~1\AppData\Local\Temp\ccwNUHtE.s 			page 42


1275:.\Generated_Source\PSoC5/USBUART.c ****             /* CyDmaTdSetConfiguration API is optimized to change transfer length only and configur
1276:.\Generated_Source\PSoC5/USBUART.c ****             convert = (reg16 *) &CY_DMA_TDMEM_STRUCT_PTR[USBUART_DmaTd[epNumber]].TD0[0u];
1277:.\Generated_Source\PSoC5/USBUART.c ****             /* Set transfer length. */
1278:.\Generated_Source\PSoC5/USBUART.c ****             CY_SET_REG16(convert, USBUART_DMA_BYTES_REPEAT);
1279:.\Generated_Source\PSoC5/USBUART.c ****             /* CyDmaTdSetAddress API is optimized to change source address only. */
1280:.\Generated_Source\PSoC5/USBUART.c ****             convert = (reg16 *) &CY_DMA_TDMEM_STRUCT_PTR[USBUART_DmaTd[epNumber]].TD1[0u];
1281:.\Generated_Source\PSoC5/USBUART.c ****             CY_SET_REG16(convert,  LO16((uint32)USBUART_inDataPointer[epNumber] +
1282:.\Generated_Source\PSoC5/USBUART.c ****                                    (USBUART_DMA_BYTES_PER_BURST - USBUART_DMA_BYTES_REPEAT)));
1283:.\Generated_Source\PSoC5/USBUART.c ****         }
1284:.\Generated_Source\PSoC5/USBUART.c **** 
1285:.\Generated_Source\PSoC5/USBUART.c ****         /* CyDmaChSetInitialTd API is optimized to initialize TD. */
1286:.\Generated_Source\PSoC5/USBUART.c ****         CY_DMA_CH_STRUCT_PTR[USBUART_DmaChan[epNumber]].basic_status[1u] = USBUART_DmaTd[epNumber];
1287:.\Generated_Source\PSoC5/USBUART.c ****     }
1288:.\Generated_Source\PSoC5/USBUART.c **** #endif /* (USBUART_EP_MANAGEMENT_DMA_AUTO && (USBUART_EP_DMA_AUTO_OPT == 0u)) */
1289:.\Generated_Source\PSoC5/USBUART.c **** #endif /* (CY_PSOC3 || CY_PSOC5) */
1290:.\Generated_Source\PSoC5/USBUART.c **** 
1291:.\Generated_Source\PSoC5/USBUART.c **** 
1292:.\Generated_Source\PSoC5/USBUART.c **** /*******************************************************************************
1293:.\Generated_Source\PSoC5/USBUART.c **** * Function Name: USBUART_LoadInEP
1294:.\Generated_Source\PSoC5/USBUART.c **** ****************************************************************************//**
1295:.\Generated_Source\PSoC5/USBUART.c **** *
1296:.\Generated_Source\PSoC5/USBUART.c **** *  This function performs different functionality depending on the Component’s
1297:.\Generated_Source\PSoC5/USBUART.c **** *  configured Endpoint Buffer Management. This parameter is defined in
1298:.\Generated_Source\PSoC5/USBUART.c **** *  the Descriptor Root in Component Configure window.
1299:.\Generated_Source\PSoC5/USBUART.c **** *
1300:.\Generated_Source\PSoC5/USBUART.c **** *  *Manual (Static/Dynamic Allocation):*
1301:.\Generated_Source\PSoC5/USBUART.c **** *  This function loads and enables the specified USB data endpoint for an IN
1302:.\Generated_Source\PSoC5/USBUART.c **** *  data transfer.
1303:.\Generated_Source\PSoC5/USBUART.c **** *
1304:.\Generated_Source\PSoC5/USBUART.c **** *  *DMA with Manual Buffer Management:*
1305:.\Generated_Source\PSoC5/USBUART.c **** *  Configures DMA for a data transfer from system RAM to endpoint buffer.
1306:.\Generated_Source\PSoC5/USBUART.c **** *  Generates request for a transfer.
1307:.\Generated_Source\PSoC5/USBUART.c **** *
1308:.\Generated_Source\PSoC5/USBUART.c **** *  *DMA with Automatic Buffer Management:*
1309:.\Generated_Source\PSoC5/USBUART.c **** *  Configures DMA. This is required only once, so it is done only when parameter
1310:.\Generated_Source\PSoC5/USBUART.c **** *  pData is not NULL. When the pData pointer is NULL, the function skips this
1311:.\Generated_Source\PSoC5/USBUART.c **** *  task. Sets Data ready status: This generates the first DMA transfer and
1312:.\Generated_Source\PSoC5/USBUART.c **** *  prepares data in endpoint buffer.
1313:.\Generated_Source\PSoC5/USBUART.c **** *
1314:.\Generated_Source\PSoC5/USBUART.c **** *  \param epNumber Contains the data endpoint number.
1315:.\Generated_Source\PSoC5/USBUART.c **** *            Valid values are between 1 and 8.
1316:.\Generated_Source\PSoC5/USBUART.c **** *  \param *pData A pointer to a data array from which the data for the endpoint space
1317:.\Generated_Source\PSoC5/USBUART.c **** *          is loaded.
1318:.\Generated_Source\PSoC5/USBUART.c **** *  \param length The number of bytes to transfer from the array and then send as
1319:.\Generated_Source\PSoC5/USBUART.c **** *          a result of an IN request. Valid values are between 0 and 512
1320:.\Generated_Source\PSoC5/USBUART.c **** *          (1023 for DMA with Automatic Buffer Management mode). The value 512
1321:.\Generated_Source\PSoC5/USBUART.c **** *          is applicable if only one endpoint is used.
1322:.\Generated_Source\PSoC5/USBUART.c **** *
1323:.\Generated_Source\PSoC5/USBUART.c **** *
1324:.\Generated_Source\PSoC5/USBUART.c **** * \reentrant
1325:.\Generated_Source\PSoC5/USBUART.c **** *  No.
1326:.\Generated_Source\PSoC5/USBUART.c **** *
1327:.\Generated_Source\PSoC5/USBUART.c **** *******************************************************************************/
1328:.\Generated_Source\PSoC5/USBUART.c **** void USBUART_LoadInEP(uint8 epNumber, const uint8 pData[], uint16 length)
1329:.\Generated_Source\PSoC5/USBUART.c ****                                                                         
1330:.\Generated_Source\PSoC5/USBUART.c **** {
 1060              		.loc 1 1330 0
ARM GAS  C:\Users\LUKASC~1\AppData\Local\Temp\ccwNUHtE.s 			page 43


 1061              		.cfi_startproc
 1062              		@ args = 0, pretend = 0, frame = 16
 1063              		@ frame_needed = 1, uses_anonymous_args = 0
 1064              		@ link register save eliminated.
 1065 0000 B0B4     		push	{r4, r5, r7}
 1066              		.cfi_def_cfa_offset 12
 1067              		.cfi_offset 4, -12
 1068              		.cfi_offset 5, -8
 1069              		.cfi_offset 7, -4
 1070 0002 85B0     		sub	sp, sp, #20
 1071              		.cfi_def_cfa_offset 32
 1072 0004 00AF     		add	r7, sp, #0
 1073              		.cfi_def_cfa_register 7
 1074 0006 0346     		mov	r3, r0
 1075 0008 3960     		str	r1, [r7]
 1076 000a FB71     		strb	r3, [r7, #7]
 1077 000c 1346     		mov	r3, r2	@ movhi
 1078 000e BB80     		strh	r3, [r7, #4]	@ movhi
1331:.\Generated_Source\PSoC5/USBUART.c ****     if ((epNumber > USBUART_EP0) && (epNumber < USBUART_MAX_EP))
 1079              		.loc 1 1331 0
 1080 0010 FB79     		ldrb	r3, [r7, #7]	@ zero_extendqisi2
 1081 0012 002B     		cmp	r3, #0
 1082 0014 66D0     		beq	.L54
 1083              		.loc 1 1331 0 is_stmt 0 discriminator 1
 1084 0016 FB79     		ldrb	r3, [r7, #7]	@ zero_extendqisi2
 1085 0018 082B     		cmp	r3, #8
 1086 001a 63D8     		bhi	.L54
1332:.\Generated_Source\PSoC5/USBUART.c ****     {
1333:.\Generated_Source\PSoC5/USBUART.c ****     #if (!USBUART_EP_MANAGEMENT_DMA_AUTO)
1334:.\Generated_Source\PSoC5/USBUART.c ****         /* Limit length to available buffer USB IP buffer size.*/
1335:.\Generated_Source\PSoC5/USBUART.c ****         if (length > (USBUART_EPX_DATA_BUF_MAX - USBUART_EP[epNumber].buffOffset))
 1087              		.loc 1 1335 0 is_stmt 1
 1088 001c B988     		ldrh	r1, [r7, #4]
 1089 001e FA79     		ldrb	r2, [r7, #7]	@ zero_extendqisi2
 1090 0020 3248     		ldr	r0, .L60
 1091 0022 1346     		mov	r3, r2
 1092 0024 5B00     		lsls	r3, r3, #1
 1093 0026 1344     		add	r3, r3, r2
 1094 0028 9B00     		lsls	r3, r3, #2
 1095 002a 0344     		add	r3, r3, r0
 1096 002c DB88     		ldrh	r3, [r3, #6]	@ movhi
 1097 002e 9BB2     		uxth	r3, r3
 1098 0030 C3F50073 		rsb	r3, r3, #512
 1099 0034 9942     		cmp	r1, r3
 1100 0036 0BD9     		bls	.L56
1336:.\Generated_Source\PSoC5/USBUART.c ****         {
1337:.\Generated_Source\PSoC5/USBUART.c ****             length = USBUART_EPX_DATA_BUF_MAX - USBUART_EP[epNumber].buffOffset;
 1101              		.loc 1 1337 0
 1102 0038 FA79     		ldrb	r2, [r7, #7]	@ zero_extendqisi2
 1103 003a 2C49     		ldr	r1, .L60
 1104 003c 1346     		mov	r3, r2
 1105 003e 5B00     		lsls	r3, r3, #1
 1106 0040 1344     		add	r3, r3, r2
 1107 0042 9B00     		lsls	r3, r3, #2
 1108 0044 0B44     		add	r3, r3, r1
 1109 0046 DB88     		ldrh	r3, [r3, #6]	@ movhi
 1110 0048 9BB2     		uxth	r3, r3
ARM GAS  C:\Users\LUKASC~1\AppData\Local\Temp\ccwNUHtE.s 			page 44


 1111 004a C3F50073 		rsb	r3, r3, #512
 1112 004e BB80     		strh	r3, [r7, #4]	@ movhi
 1113              	.L56:
1338:.\Generated_Source\PSoC5/USBUART.c ****         }
1339:.\Generated_Source\PSoC5/USBUART.c ****     #endif /* (!USBUART_EP_MANAGEMENT_DMA_AUTO) */
1340:.\Generated_Source\PSoC5/USBUART.c **** 
1341:.\Generated_Source\PSoC5/USBUART.c ****         /* Set count and data toggle. */
1342:.\Generated_Source\PSoC5/USBUART.c ****         USBUART_SIE_EP_BASE.sieEp[epNumber].epCnt0 = (uint8) HI8(length) | USBUART_EP[epNumber].epT
 1114              		.loc 1 1342 0
 1115 0050 274C     		ldr	r4, .L60+4
 1116 0052 F979     		ldrb	r1, [r7, #7]	@ zero_extendqisi2
 1117 0054 BB88     		ldrh	r3, [r7, #4]
 1118 0056 1B0A     		lsrs	r3, r3, #8
 1119 0058 9BB2     		uxth	r3, r3
 1120 005a D8B2     		uxtb	r0, r3
 1121 005c FA79     		ldrb	r2, [r7, #7]	@ zero_extendqisi2
 1122 005e 234D     		ldr	r5, .L60
 1123 0060 1346     		mov	r3, r2
 1124 0062 5B00     		lsls	r3, r3, #1
 1125 0064 1344     		add	r3, r3, r2
 1126 0066 9B00     		lsls	r3, r3, #2
 1127 0068 2B44     		add	r3, r3, r5
 1128 006a DB78     		ldrb	r3, [r3, #3]
 1129 006c DBB2     		uxtb	r3, r3
 1130 006e 0343     		orrs	r3, r3, r0
 1131 0070 DAB2     		uxtb	r2, r3
 1132 0072 0B01     		lsls	r3, r1, #4
 1133 0074 2344     		add	r3, r3, r4
 1134 0076 1A70     		strb	r2, [r3]
1343:.\Generated_Source\PSoC5/USBUART.c ****         USBUART_SIE_EP_BASE.sieEp[epNumber].epCnt1 = (uint8) LO8(length);
 1135              		.loc 1 1343 0
 1136 0078 1D4A     		ldr	r2, .L60+4
 1137 007a FB79     		ldrb	r3, [r7, #7]	@ zero_extendqisi2
 1138 007c B988     		ldrh	r1, [r7, #4]	@ movhi
 1139 007e C9B2     		uxtb	r1, r1
 1140 0080 1B01     		lsls	r3, r3, #4
 1141 0082 1344     		add	r3, r3, r2
 1142 0084 0A46     		mov	r2, r1
 1143 0086 5A70     		strb	r2, [r3, #1]
1344:.\Generated_Source\PSoC5/USBUART.c **** 
1345:.\Generated_Source\PSoC5/USBUART.c ****     #if (USBUART_EP_MANAGEMENT_MANUAL)
1346:.\Generated_Source\PSoC5/USBUART.c ****         if (NULL != pData)
 1144              		.loc 1 1346 0
 1145 0088 3B68     		ldr	r3, [r7]
 1146 008a 002B     		cmp	r3, #0
 1147 008c 13D0     		beq	.L57
 1148              	.LBB2:
1347:.\Generated_Source\PSoC5/USBUART.c ****         {
1348:.\Generated_Source\PSoC5/USBUART.c **** 			/* Copy data using arbiter data register. */
1349:.\Generated_Source\PSoC5/USBUART.c ****             uint16 i;
1350:.\Generated_Source\PSoC5/USBUART.c ****             for (i = 0u; i < length; ++i)
 1149              		.loc 1 1350 0
 1150 008e 0023     		movs	r3, #0
 1151 0090 FB81     		strh	r3, [r7, #14]	@ movhi
 1152 0092 0CE0     		b	.L58
 1153              	.L59:
1351:.\Generated_Source\PSoC5/USBUART.c ****             {
ARM GAS  C:\Users\LUKASC~1\AppData\Local\Temp\ccwNUHtE.s 			page 45


1352:.\Generated_Source\PSoC5/USBUART.c ****                 USBUART_ARB_EP_BASE.arbEp[epNumber].rwDr = pData[i];
 1154              		.loc 1 1352 0 discriminator 3
 1155 0094 1748     		ldr	r0, .L60+8
 1156 0096 FB79     		ldrb	r3, [r7, #7]	@ zero_extendqisi2
 1157 0098 FA89     		ldrh	r2, [r7, #14]
 1158 009a 3968     		ldr	r1, [r7]
 1159 009c 0A44     		add	r2, r2, r1
 1160 009e 1278     		ldrb	r2, [r2]	@ zero_extendqisi2
 1161 00a0 1B01     		lsls	r3, r3, #4
 1162 00a2 0344     		add	r3, r3, r0
 1163 00a4 0833     		adds	r3, r3, #8
 1164 00a6 1A70     		strb	r2, [r3]
1350:.\Generated_Source\PSoC5/USBUART.c ****             {
 1165              		.loc 1 1350 0 discriminator 3
 1166 00a8 FB89     		ldrh	r3, [r7, #14]	@ movhi
 1167 00aa 0133     		adds	r3, r3, #1
 1168 00ac FB81     		strh	r3, [r7, #14]	@ movhi
 1169              	.L58:
1350:.\Generated_Source\PSoC5/USBUART.c ****             {
 1170              		.loc 1 1350 0 is_stmt 0 discriminator 1
 1171 00ae FA89     		ldrh	r2, [r7, #14]
 1172 00b0 BB88     		ldrh	r3, [r7, #4]
 1173 00b2 9A42     		cmp	r2, r3
 1174 00b4 EED3     		bcc	.L59
 1175              	.L57:
 1176              	.LBE2:
1353:.\Generated_Source\PSoC5/USBUART.c ****             }
1354:.\Generated_Source\PSoC5/USBUART.c ****         }
1355:.\Generated_Source\PSoC5/USBUART.c **** 
1356:.\Generated_Source\PSoC5/USBUART.c ****         /* IN endpoint buffer is full - read to be read. */
1357:.\Generated_Source\PSoC5/USBUART.c ****         USBUART_EP[epNumber].apiEpState = USBUART_NO_EVENT_PENDING;
 1177              		.loc 1 1357 0 is_stmt 1
 1178 00b6 FA79     		ldrb	r2, [r7, #7]	@ zero_extendqisi2
 1179 00b8 0C49     		ldr	r1, .L60
 1180 00ba 1346     		mov	r3, r2
 1181 00bc 5B00     		lsls	r3, r3, #1
 1182 00be 1344     		add	r3, r3, r2
 1183 00c0 9B00     		lsls	r3, r3, #2
 1184 00c2 0B44     		add	r3, r3, r1
 1185 00c4 0022     		movs	r2, #0
 1186 00c6 5A70     		strb	r2, [r3, #1]
1358:.\Generated_Source\PSoC5/USBUART.c **** 
1359:.\Generated_Source\PSoC5/USBUART.c ****         /* Arm IN endpoint. */
1360:.\Generated_Source\PSoC5/USBUART.c ****         USBUART_SIE_EP_BASE.sieEp[epNumber].epCr0 = USBUART_EP[epNumber].epMode;
 1187              		.loc 1 1360 0
 1188 00c8 0948     		ldr	r0, .L60+4
 1189 00ca F979     		ldrb	r1, [r7, #7]	@ zero_extendqisi2
 1190 00cc FA79     		ldrb	r2, [r7, #7]	@ zero_extendqisi2
 1191 00ce 074C     		ldr	r4, .L60
 1192 00d0 1346     		mov	r3, r2
 1193 00d2 5B00     		lsls	r3, r3, #1
 1194 00d4 1344     		add	r3, r3, r2
 1195 00d6 9B00     		lsls	r3, r3, #2
 1196 00d8 2344     		add	r3, r3, r4
 1197 00da 5B79     		ldrb	r3, [r3, #5]
 1198 00dc DAB2     		uxtb	r2, r3
 1199 00de 0B01     		lsls	r3, r1, #4
ARM GAS  C:\Users\LUKASC~1\AppData\Local\Temp\ccwNUHtE.s 			page 46


 1200 00e0 0344     		add	r3, r3, r0
 1201 00e2 9A70     		strb	r2, [r3, #2]
 1202              	.L54:
1361:.\Generated_Source\PSoC5/USBUART.c **** 
1362:.\Generated_Source\PSoC5/USBUART.c ****     #else
1363:.\Generated_Source\PSoC5/USBUART.c **** 
1364:.\Generated_Source\PSoC5/USBUART.c ****         #if (CY_PSOC3 || CY_PSOC5LP)
1365:.\Generated_Source\PSoC5/USBUART.c ****             /* Initialize DMA if it was not initialized. */
1366:.\Generated_Source\PSoC5/USBUART.c ****             if (DMA_INVALID_TD == USBUART_DmaTd[epNumber])
1367:.\Generated_Source\PSoC5/USBUART.c ****             {
1368:.\Generated_Source\PSoC5/USBUART.c ****                 USBUART_InitEP_DMA(epNumber, pData);
1369:.\Generated_Source\PSoC5/USBUART.c ****             }
1370:.\Generated_Source\PSoC5/USBUART.c ****         #endif /* (CY_PSOC3 || CY_PSOC5LP) */
1371:.\Generated_Source\PSoC5/USBUART.c **** 
1372:.\Generated_Source\PSoC5/USBUART.c ****         #if (USBUART_EP_MANAGEMENT_DMA_MANUAL)
1373:.\Generated_Source\PSoC5/USBUART.c ****             /* IN endpoint buffer will be fully loaded by DMA shortly. */
1374:.\Generated_Source\PSoC5/USBUART.c ****             USBUART_EP[epNumber].apiEpState = USBUART_NO_EVENT_PENDING;
1375:.\Generated_Source\PSoC5/USBUART.c **** 
1376:.\Generated_Source\PSoC5/USBUART.c ****             if ((pData != NULL) && (length > 0u))
1377:.\Generated_Source\PSoC5/USBUART.c ****             {
1378:.\Generated_Source\PSoC5/USBUART.c ****             #if (CY_PSOC4)
1379:.\Generated_Source\PSoC5/USBUART.c ****                 uint32 channelNum = (uint32) USBUART_DmaChan[epNumber];
1380:.\Generated_Source\PSoC5/USBUART.c **** 
1381:.\Generated_Source\PSoC5/USBUART.c ****                 /* Disable DMA channel: start configuration. */
1382:.\Generated_Source\PSoC5/USBUART.c ****                 USBUART_CyDmaChDisable(channelNum);
1383:.\Generated_Source\PSoC5/USBUART.c **** 
1384:.\Generated_Source\PSoC5/USBUART.c ****                 /* Configure source and destination. */
1385:.\Generated_Source\PSoC5/USBUART.c ****                 USBUART_CyDmaSetSrcAddress(channelNum, USBUART_DMA_DESCR0, (void*) pData);
1386:.\Generated_Source\PSoC5/USBUART.c ****                 USBUART_CyDmaSetDstAddress(channelNum, USBUART_DMA_DESCR0, (void*) &USBUART_ARB_EP_
1387:.\Generated_Source\PSoC5/USBUART.c **** 
1388:.\Generated_Source\PSoC5/USBUART.c ****                 /* Configure DMA descriptor. */
1389:.\Generated_Source\PSoC5/USBUART.c ****                 --length;
1390:.\Generated_Source\PSoC5/USBUART.c ****                 USBUART_CyDmaSetConfiguration(channelNum, USBUART_DMA_DESCR0, USBUART_DMA_COMMON_CF
1391:.\Generated_Source\PSoC5/USBUART.c ****                                                         CYDMA_BYTE | CYDMA_ELEMENT_WORD | CYDMA_INC
1392:.\Generated_Source\PSoC5/USBUART.c **** 
1393:.\Generated_Source\PSoC5/USBUART.c ****                 /* Validate descriptor to execute on following DMA request. */
1394:.\Generated_Source\PSoC5/USBUART.c ****                 USBUART_CyDmaValidateDescriptor(channelNum, USBUART_DMA_DESCR0);
1395:.\Generated_Source\PSoC5/USBUART.c **** 
1396:.\Generated_Source\PSoC5/USBUART.c ****                 /* Enable DMA channel: configuration complete. */
1397:.\Generated_Source\PSoC5/USBUART.c ****                 USBUART_CyDmaChEnable(channelNum);
1398:.\Generated_Source\PSoC5/USBUART.c ****             #else
1399:.\Generated_Source\PSoC5/USBUART.c ****                 /* Configure DMA to transfer data. */
1400:.\Generated_Source\PSoC5/USBUART.c ****                 (void) CyDmaChDisable(USBUART_DmaChan[epNumber]);
1401:.\Generated_Source\PSoC5/USBUART.c ****                 (void) CyDmaTdSetConfiguration(USBUART_DmaTd[epNumber], length, CY_DMA_DISABLE_TD, 
1402:.\Generated_Source\PSoC5/USBUART.c ****                 (void) CyDmaTdSetAddress(USBUART_DmaTd[epNumber], LO16((uint32) pData), LO16((uint3
1403:.\Generated_Source\PSoC5/USBUART.c **** 
1404:.\Generated_Source\PSoC5/USBUART.c ****                 /* Enable DMA channel. */
1405:.\Generated_Source\PSoC5/USBUART.c ****                 (void) CyDmaChSetInitialTd(USBUART_DmaChan[epNumber], USBUART_DmaTd[epNumber]);
1406:.\Generated_Source\PSoC5/USBUART.c ****                 (void) CyDmaChEnable(USBUART_DmaChan[epNumber], 1u);
1407:.\Generated_Source\PSoC5/USBUART.c ****             #endif /* (CY_PSOC4) */
1408:.\Generated_Source\PSoC5/USBUART.c **** 
1409:.\Generated_Source\PSoC5/USBUART.c ****                 /* Generate DMA request. */
1410:.\Generated_Source\PSoC5/USBUART.c ****                 USBUART_ARB_EP_BASE.arbEp[epNumber].epCfg |=  (uint8)  USBUART_ARB_EPX_CFG_DMA_REQ;
1411:.\Generated_Source\PSoC5/USBUART.c ****                 USBUART_ARB_EP_BASE.arbEp[epNumber].epCfg &=  (uint8) ~USBUART_ARB_EPX_CFG_DMA_REQ;
1412:.\Generated_Source\PSoC5/USBUART.c **** 
1413:.\Generated_Source\PSoC5/USBUART.c ****                 /* IN endpoint will be armed in ARB_ISR(source: IN_BUF_FULL) after first DMA transf
1414:.\Generated_Source\PSoC5/USBUART.c ****             }
ARM GAS  C:\Users\LUKASC~1\AppData\Local\Temp\ccwNUHtE.s 			page 47


1415:.\Generated_Source\PSoC5/USBUART.c ****             else
1416:.\Generated_Source\PSoC5/USBUART.c ****             {
1417:.\Generated_Source\PSoC5/USBUART.c ****                 /* When zero-length packet: arm IN endpoint directly. */
1418:.\Generated_Source\PSoC5/USBUART.c ****                 USBUART_SIE_EP_BASE.sieEp[epNumber].epCr0 = USBUART_EP[epNumber].epMode;
1419:.\Generated_Source\PSoC5/USBUART.c ****             }
1420:.\Generated_Source\PSoC5/USBUART.c ****         #endif /* (USBUART_EP_MANAGEMENT_DMA_MANUAL) */
1421:.\Generated_Source\PSoC5/USBUART.c **** 
1422:.\Generated_Source\PSoC5/USBUART.c ****         #if (USBUART_EP_MANAGEMENT_DMA_AUTO)
1423:.\Generated_Source\PSoC5/USBUART.c ****             if (pData != NULL)
1424:.\Generated_Source\PSoC5/USBUART.c ****             {
1425:.\Generated_Source\PSoC5/USBUART.c ****             #if (CY_PSOC4)
1426:.\Generated_Source\PSoC5/USBUART.c ****                 uint32 channelNum = (uint32) USBUART_DmaChan[epNumber];
1427:.\Generated_Source\PSoC5/USBUART.c **** 
1428:.\Generated_Source\PSoC5/USBUART.c ****                 /* Store address of buffer. */
1429:.\Generated_Source\PSoC5/USBUART.c ****                 USBUART_DmaEpBufferAddrBackup[epNumber] = (uint32) pData;
1430:.\Generated_Source\PSoC5/USBUART.c **** 
1431:.\Generated_Source\PSoC5/USBUART.c ****                 /* Disable DMA channel: start configuration. */
1432:.\Generated_Source\PSoC5/USBUART.c ****                 USBUART_CyDmaChDisable(channelNum);
1433:.\Generated_Source\PSoC5/USBUART.c **** 
1434:.\Generated_Source\PSoC5/USBUART.c ****                 /* Set destination address. */
1435:.\Generated_Source\PSoC5/USBUART.c ****                 USBUART_CyDmaSetDstAddress(channelNum, USBUART_DMA_DESCR0, (void*) &USBUART_ARB_EP_
1436:.\Generated_Source\PSoC5/USBUART.c ****                 USBUART_CyDmaSetDstAddress(channelNum, USBUART_DMA_DESCR1, (void*) &USBUART_ARB_EP_
1437:.\Generated_Source\PSoC5/USBUART.c **** 
1438:.\Generated_Source\PSoC5/USBUART.c ****                 /* Configure DMA descriptor. */
1439:.\Generated_Source\PSoC5/USBUART.c ****                 USBUART_CyDmaSetConfiguration(channelNum, USBUART_DMA_DESCR0, USBUART_DMA_COMMON_CF
1440:.\Generated_Source\PSoC5/USBUART.c ****                                                         CYDMA_BYTE | CYDMA_ELEMENT_WORD | CYDMA_INC
1441:.\Generated_Source\PSoC5/USBUART.c **** 
1442:.\Generated_Source\PSoC5/USBUART.c ****                 /* Configure DMA descriptor. */
1443:.\Generated_Source\PSoC5/USBUART.c ****                 USBUART_CyDmaSetConfiguration(channelNum, USBUART_DMA_DESCR1, USBUART_DMA_COMMON_CF
1444:.\Generated_Source\PSoC5/USBUART.c ****                                                         CYDMA_BYTE | CYDMA_ELEMENT_WORD | CYDMA_INC
1445:.\Generated_Source\PSoC5/USBUART.c **** 
1446:.\Generated_Source\PSoC5/USBUART.c ****                 /* Enable interrupt from DMA channel. */
1447:.\Generated_Source\PSoC5/USBUART.c ****                 USBUART_CyDmaSetInterruptMask(channelNum);
1448:.\Generated_Source\PSoC5/USBUART.c **** 
1449:.\Generated_Source\PSoC5/USBUART.c ****                 /* Validate descriptor 1. It will not be invalided during operation. */
1450:.\Generated_Source\PSoC5/USBUART.c ****                 USBUART_CyDmaValidateDescriptor(channelNum, USBUART_DMA_DESCR1);
1451:.\Generated_Source\PSoC5/USBUART.c **** 
1452:.\Generated_Source\PSoC5/USBUART.c ****                 /* Enable DMA channel: configuration complete. */
1453:.\Generated_Source\PSoC5/USBUART.c ****                 USBUART_CyDmaChEnable(channelNum);
1454:.\Generated_Source\PSoC5/USBUART.c **** 
1455:.\Generated_Source\PSoC5/USBUART.c ****             #else
1456:.\Generated_Source\PSoC5/USBUART.c ****                 (void) CyDmaChDisable(USBUART_DmaChan[epNumber]);
1457:.\Generated_Source\PSoC5/USBUART.c **** 
1458:.\Generated_Source\PSoC5/USBUART.c ****                 #if (USBUART_EP_DMA_AUTO_OPT == 0u)
1459:.\Generated_Source\PSoC5/USBUART.c ****                     USBUART_inLength[epNumber] = length;
1460:.\Generated_Source\PSoC5/USBUART.c ****                     USBUART_inDataPointer[epNumber] = pData;
1461:.\Generated_Source\PSoC5/USBUART.c **** 
1462:.\Generated_Source\PSoC5/USBUART.c ****                     /* Configure DMA to send data only for first burst */
1463:.\Generated_Source\PSoC5/USBUART.c ****                     (void) CyDmaTdSetConfiguration(USBUART_DmaTd[epNumber],
1464:.\Generated_Source\PSoC5/USBUART.c ****                         (length > USBUART_DMA_BYTES_PER_BURST) ? USBUART_DMA_BYTES_PER_BURST : leng
1465:.\Generated_Source\PSoC5/USBUART.c ****                         USBUART_DmaNextTd[epNumber], TD_TERMIN_EN | TD_INC_SRC_ADR);
1466:.\Generated_Source\PSoC5/USBUART.c ****                     (void) CyDmaTdSetAddress(USBUART_DmaTd[epNumber], LO16((uint32) pData),
1467:.\Generated_Source\PSoC5/USBUART.c ****                                                                                LO16((uint32) &USBUA
1468:.\Generated_Source\PSoC5/USBUART.c **** 
1469:.\Generated_Source\PSoC5/USBUART.c ****                     /* The second TD will be executed only when the first one fails.
1470:.\Generated_Source\PSoC5/USBUART.c ****                     *  The intention of this TD is to generate NRQ interrupt
1471:.\Generated_Source\PSoC5/USBUART.c ****                     *  and repeat 2 last bytes of the first burst.
ARM GAS  C:\Users\LUKASC~1\AppData\Local\Temp\ccwNUHtE.s 			page 48


1472:.\Generated_Source\PSoC5/USBUART.c ****                     */
1473:.\Generated_Source\PSoC5/USBUART.c ****                     (void) CyDmaTdSetConfiguration(USBUART_DmaNextTd[epNumber], 1u,
1474:.\Generated_Source\PSoC5/USBUART.c ****                                                    USBUART_DmaNextTd[epNumber],
1475:.\Generated_Source\PSoC5/USBUART.c ****                                                    USBUART_epX_TD_TERMOUT_EN[epNumber]);
1476:.\Generated_Source\PSoC5/USBUART.c **** 
1477:.\Generated_Source\PSoC5/USBUART.c ****                     /* Configure DmaNextTd to clear Data Ready status. */
1478:.\Generated_Source\PSoC5/USBUART.c ****                     (void) CyDmaTdSetAddress(USBUART_DmaNextTd[epNumber], LO16((uint32) &clearInDat
1479:.\Generated_Source\PSoC5/USBUART.c ****                                                                                    LO16((uint32) &U
1480:.\Generated_Source\PSoC5/USBUART.c ****                 #else
1481:.\Generated_Source\PSoC5/USBUART.c ****                     /* Configure DMA to send all data. */
1482:.\Generated_Source\PSoC5/USBUART.c ****                     (void) CyDmaTdSetConfiguration(USBUART_DmaTd[epNumber], length,
1483:.\Generated_Source\PSoC5/USBUART.c ****                                                    USBUART_DmaTd[epNumber], TD_TERMIN_EN | TD_INC_S
1484:.\Generated_Source\PSoC5/USBUART.c ****                     (void) CyDmaTdSetAddress(USBUART_DmaTd[epNumber], LO16((uint32) pData),
1485:.\Generated_Source\PSoC5/USBUART.c ****                                                                                LO16((uint32) &USBUA
1486:.\Generated_Source\PSoC5/USBUART.c ****                 #endif /* (USBUART_EP_DMA_AUTO_OPT == 0u) */
1487:.\Generated_Source\PSoC5/USBUART.c **** 
1488:.\Generated_Source\PSoC5/USBUART.c ****                 /* Clear any potential pending DMA requests before starting DMA channel to transfer
1489:.\Generated_Source\PSoC5/USBUART.c ****                 (void) CyDmaClearPendingDrq(USBUART_DmaChan[epNumber]);
1490:.\Generated_Source\PSoC5/USBUART.c ****                 /* Enable DMA. */
1491:.\Generated_Source\PSoC5/USBUART.c ****                 (void) CyDmaChSetInitialTd(USBUART_DmaChan[epNumber], USBUART_DmaTd[epNumber]);
1492:.\Generated_Source\PSoC5/USBUART.c ****                 (void) CyDmaChEnable(USBUART_DmaChan[epNumber], 1u);
1493:.\Generated_Source\PSoC5/USBUART.c ****             #endif /* (CY_PSOC4) */
1494:.\Generated_Source\PSoC5/USBUART.c ****             }
1495:.\Generated_Source\PSoC5/USBUART.c ****             else
1496:.\Generated_Source\PSoC5/USBUART.c ****             {
1497:.\Generated_Source\PSoC5/USBUART.c ****                 /* IN endpoint buffer (32 bytes) will shortly be preloaded by DMA. */
1498:.\Generated_Source\PSoC5/USBUART.c ****                 USBUART_EP[epNumber].apiEpState = USBUART_NO_EVENT_PENDING;
1499:.\Generated_Source\PSoC5/USBUART.c **** 
1500:.\Generated_Source\PSoC5/USBUART.c ****                 if (length > 0u)
1501:.\Generated_Source\PSoC5/USBUART.c ****                 {
1502:.\Generated_Source\PSoC5/USBUART.c ****                 #if (CY_PSOC4)
1503:.\Generated_Source\PSoC5/USBUART.c ****                     uint32 lengthDescr0, lengthDescr1;
1504:.\Generated_Source\PSoC5/USBUART.c ****                     uint32 channelNum = (uint32) USBUART_DmaChan[epNumber];
1505:.\Generated_Source\PSoC5/USBUART.c **** 
1506:.\Generated_Source\PSoC5/USBUART.c ****                     /* Get number of full bursts. */
1507:.\Generated_Source\PSoC5/USBUART.c ****                     USBUART_DmaEpBurstCnt[epNumber] = (uint8) (length / USBUART_DMA_BYTES_PER_BURST
1508:.\Generated_Source\PSoC5/USBUART.c **** 
1509:.\Generated_Source\PSoC5/USBUART.c ****                     /* Get number of elements in the last burst. */
1510:.\Generated_Source\PSoC5/USBUART.c ****                     USBUART_DmaEpLastBurstEl[epNumber] = (uint8) (length % USBUART_DMA_BYTES_PER_BU
1511:.\Generated_Source\PSoC5/USBUART.c **** 
1512:.\Generated_Source\PSoC5/USBUART.c ****                     /* Get total number of bursts. */
1513:.\Generated_Source\PSoC5/USBUART.c ****                     USBUART_DmaEpBurstCnt[epNumber] += (0u != USBUART_DmaEpLastBurstEl[epNumber]) ?
1514:.\Generated_Source\PSoC5/USBUART.c **** 
1515:.\Generated_Source\PSoC5/USBUART.c ****                     /* Adjust number of data elements transferred in last burst. */
1516:.\Generated_Source\PSoC5/USBUART.c ****                     USBUART_DmaEpLastBurstEl[epNumber] = (0u != USBUART_DmaEpLastBurstEl[epNumber])
1517:.\Generated_Source\PSoC5/USBUART.c ****                                                                           (USBUART_DmaEpLastBurstEl
1518:.\Generated_Source\PSoC5/USBUART.c ****                                                                           (USBUART_DMA_BYTES_PER_BU
1519:.\Generated_Source\PSoC5/USBUART.c **** 
1520:.\Generated_Source\PSoC5/USBUART.c ****                     /* Get number of data elements to transfer for descriptor 0 and 1. */
1521:.\Generated_Source\PSoC5/USBUART.c ****                     lengthDescr0 = (1u == USBUART_DmaEpBurstCnt[epNumber]) ? USBUART_DmaEpLastBurst
1522:.\Generated_Source\PSoC5/USBUART.c ****                     lengthDescr1 = (2u == USBUART_DmaEpBurstCnt[epNumber]) ? USBUART_DmaEpLastBurst
1523:.\Generated_Source\PSoC5/USBUART.c **** 
1524:.\Generated_Source\PSoC5/USBUART.c **** 
1525:.\Generated_Source\PSoC5/USBUART.c ****                     /* Mark which descriptor is last one to execute. */
1526:.\Generated_Source\PSoC5/USBUART.c ****                     USBUART_DmaEpLastBurstEl[epNumber] |= (0u != (USBUART_DmaEpBurstCnt[epNumber] &
1527:.\Generated_Source\PSoC5/USBUART.c ****                                                                             USBUART_DMA_DESCR0_MASK
1528:.\Generated_Source\PSoC5/USBUART.c **** 
ARM GAS  C:\Users\LUKASC~1\AppData\Local\Temp\ccwNUHtE.s 			page 49


1529:.\Generated_Source\PSoC5/USBUART.c ****                     /* Adjust burst counter taking to account: 2 valid descriptors and interrupt tr
1530:.\Generated_Source\PSoC5/USBUART.c ****                     USBUART_DmaEpBurstCnt[epNumber] = USBUART_DMA_GET_BURST_CNT(USBUART_DmaEpBurstC
1531:.\Generated_Source\PSoC5/USBUART.c **** 
1532:.\Generated_Source\PSoC5/USBUART.c ****                     /* Restore DMA settings for current transfer. */
1533:.\Generated_Source\PSoC5/USBUART.c ****                     USBUART_CyDmaChDisable(channelNum);
1534:.\Generated_Source\PSoC5/USBUART.c **** 
1535:.\Generated_Source\PSoC5/USBUART.c ****                     /* Restore destination address for input endpoint. */
1536:.\Generated_Source\PSoC5/USBUART.c ****                     USBUART_CyDmaSetSrcAddress(channelNum, USBUART_DMA_DESCR0, (void*) ((uint32) US
1537:.\Generated_Source\PSoC5/USBUART.c ****                     USBUART_CyDmaSetSrcAddress(channelNum, USBUART_DMA_DESCR1, (void*) ((uint32) US
1538:.\Generated_Source\PSoC5/USBUART.c ****                                                                                                    
1539:.\Generated_Source\PSoC5/USBUART.c **** 
1540:.\Generated_Source\PSoC5/USBUART.c ****                     /* Set number of elements to transfer. */
1541:.\Generated_Source\PSoC5/USBUART.c ****                     USBUART_CyDmaSetNumDataElements(channelNum, USBUART_DMA_DESCR0, lengthDescr0);
1542:.\Generated_Source\PSoC5/USBUART.c ****                     USBUART_CyDmaSetNumDataElements(channelNum, USBUART_DMA_DESCR1, lengthDescr1);
1543:.\Generated_Source\PSoC5/USBUART.c **** 
1544:.\Generated_Source\PSoC5/USBUART.c ****                     /* Validate descriptor 0 and command to start with it. */
1545:.\Generated_Source\PSoC5/USBUART.c ****                     USBUART_CyDmaValidateDescriptor(channelNum, USBUART_DMA_DESCR0);
1546:.\Generated_Source\PSoC5/USBUART.c ****                     USBUART_CyDmaSetDescriptor0Next(channelNum);
1547:.\Generated_Source\PSoC5/USBUART.c **** 
1548:.\Generated_Source\PSoC5/USBUART.c ****                     /* Enable DMA channel: configuration complete. */
1549:.\Generated_Source\PSoC5/USBUART.c ****                     USBUART_CyDmaChEnable(channelNum);
1550:.\Generated_Source\PSoC5/USBUART.c **** 
1551:.\Generated_Source\PSoC5/USBUART.c ****                 #elif (USBUART_EP_DMA_AUTO_OPT == 0u)
1552:.\Generated_Source\PSoC5/USBUART.c ****                     USBUART_inLength[epNumber]  = length;
1553:.\Generated_Source\PSoC5/USBUART.c ****                     USBUART_inBufFull[epNumber] = 0u;
1554:.\Generated_Source\PSoC5/USBUART.c **** 
1555:.\Generated_Source\PSoC5/USBUART.c ****                     (void) CyDmaChDisable(USBUART_DmaChan[epNumber]);
1556:.\Generated_Source\PSoC5/USBUART.c ****                     /* Configure DMA to send data only for first burst. */
1557:.\Generated_Source\PSoC5/USBUART.c ****                     (void) CyDmaTdSetConfiguration(
1558:.\Generated_Source\PSoC5/USBUART.c ****                         USBUART_DmaTd[epNumber], (length > USBUART_DMA_BYTES_PER_BURST) ?
1559:.\Generated_Source\PSoC5/USBUART.c ****                         USBUART_DMA_BYTES_PER_BURST : length,
1560:.\Generated_Source\PSoC5/USBUART.c ****                         USBUART_DmaNextTd[epNumber], TD_TERMIN_EN | TD_INC_SRC_ADR );
1561:.\Generated_Source\PSoC5/USBUART.c ****                     (void) CyDmaTdSetAddress(USBUART_DmaTd[epNumber], LO16((uint32)  USBUART_inData
1562:.\Generated_Source\PSoC5/USBUART.c ****                                                                                LO16((uint32) &USBUA
1563:.\Generated_Source\PSoC5/USBUART.c ****                     /* Clear Any potential pending DMA requests before starting DMA channel to tran
1564:.\Generated_Source\PSoC5/USBUART.c ****                     (void) CyDmaClearPendingDrq(USBUART_DmaChan[epNumber]);
1565:.\Generated_Source\PSoC5/USBUART.c ****                     /* Enable DMA. */
1566:.\Generated_Source\PSoC5/USBUART.c ****                     (void) CyDmaChSetInitialTd(USBUART_DmaChan[epNumber], USBUART_DmaTd[epNumber]);
1567:.\Generated_Source\PSoC5/USBUART.c ****                     (void) CyDmaChEnable(USBUART_DmaChan[epNumber], 1u);
1568:.\Generated_Source\PSoC5/USBUART.c ****                 #endif /* (CY_PSOC4) */
1569:.\Generated_Source\PSoC5/USBUART.c **** 
1570:.\Generated_Source\PSoC5/USBUART.c ****                 #if !defined (USBUART_MANUAL_IN_EP_ARM)
1571:.\Generated_Source\PSoC5/USBUART.c ****                     /* Set IN data ready to generate DMA request to load data into endpoint buffer.
1572:.\Generated_Source\PSoC5/USBUART.c ****                     USBUART_ARB_EP_BASE.arbEp[epNumber].epCfg |= USBUART_ARB_EPX_CFG_IN_DATA_RDY;
1573:.\Generated_Source\PSoC5/USBUART.c ****                 #endif  /* (USBUART_MANUAL_IN_EP_ARM) */
1574:.\Generated_Source\PSoC5/USBUART.c **** 
1575:.\Generated_Source\PSoC5/USBUART.c ****                     /* IN endpoint will be armed in ARB_ISR(source: IN_BUF_FULL) after first DMA tr
1576:.\Generated_Source\PSoC5/USBUART.c ****                 }
1577:.\Generated_Source\PSoC5/USBUART.c ****                 else
1578:.\Generated_Source\PSoC5/USBUART.c ****                 {
1579:.\Generated_Source\PSoC5/USBUART.c ****                     /* When zero-length packet: arm IN endpoint directly. */
1580:.\Generated_Source\PSoC5/USBUART.c ****                     USBUART_SIE_EP_BASE.sieEp[epNumber].epCr0 = USBUART_EP[epNumber].epMode;
1581:.\Generated_Source\PSoC5/USBUART.c ****                 }
1582:.\Generated_Source\PSoC5/USBUART.c ****             }
1583:.\Generated_Source\PSoC5/USBUART.c ****         #endif /* (USBUART_EP_MANAGEMENT_DMA_AUTO) */
1584:.\Generated_Source\PSoC5/USBUART.c ****     #endif /* (USBUART_EP_MANAGEMENT_MANUAL) */
1585:.\Generated_Source\PSoC5/USBUART.c ****     }
ARM GAS  C:\Users\LUKASC~1\AppData\Local\Temp\ccwNUHtE.s 			page 50


1586:.\Generated_Source\PSoC5/USBUART.c **** }
 1203              		.loc 1 1586 0
 1204 00e4 1437     		adds	r7, r7, #20
 1205              		.cfi_def_cfa_offset 12
 1206 00e6 BD46     		mov	sp, r7
 1207              		.cfi_def_cfa_register 13
 1208              		@ sp needed
 1209 00e8 B0BC     		pop	{r4, r5, r7}
 1210              		.cfi_restore 7
 1211              		.cfi_restore 5
 1212              		.cfi_restore 4
 1213              		.cfi_def_cfa_offset 0
 1214 00ea 7047     		bx	lr
 1215              	.L61:
 1216              		.align	2
 1217              	.L60:
 1218 00ec 00000000 		.word	USBUART_EP
 1219 00f0 FC5F0040 		.word	1073766396
 1220 00f4 70600040 		.word	1073766512
 1221              		.cfi_endproc
 1222              	.LFE11:
 1223              		.size	USBUART_LoadInEP, .-USBUART_LoadInEP
 1224              		.section	.text.USBUART_ReadOutEP,"ax",%progbits
 1225              		.align	2
 1226              		.global	USBUART_ReadOutEP
 1227              		.thumb
 1228              		.thumb_func
 1229              		.type	USBUART_ReadOutEP, %function
 1230              	USBUART_ReadOutEP:
 1231              	.LFB12:
1587:.\Generated_Source\PSoC5/USBUART.c **** 
1588:.\Generated_Source\PSoC5/USBUART.c **** 
1589:.\Generated_Source\PSoC5/USBUART.c **** /*******************************************************************************
1590:.\Generated_Source\PSoC5/USBUART.c **** * Function Name: USBUART_ReadOutEP
1591:.\Generated_Source\PSoC5/USBUART.c **** ****************************************************************************//**
1592:.\Generated_Source\PSoC5/USBUART.c **** *
1593:.\Generated_Source\PSoC5/USBUART.c **** *   This function performs different functionality depending on the Component’s
1594:.\Generated_Source\PSoC5/USBUART.c **** *   configured Endpoint Buffer Management. This parameter is defined in the
1595:.\Generated_Source\PSoC5/USBUART.c **** *   Descriptor Root in Component Configure window.
1596:.\Generated_Source\PSoC5/USBUART.c **** *
1597:.\Generated_Source\PSoC5/USBUART.c **** *   *Manual (Static/Dynamic Allocation):*
1598:.\Generated_Source\PSoC5/USBUART.c **** *   This function moves the specified number of bytes from endpoint buffer to
1599:.\Generated_Source\PSoC5/USBUART.c **** *   system RAM. The number of bytes actually transferred from endpoint buffer to
1600:.\Generated_Source\PSoC5/USBUART.c **** *   system RAM is the lesser of the actual number of bytes sent by the host or
1601:.\Generated_Source\PSoC5/USBUART.c **** *   the number of bytes requested by the length parameter.
1602:.\Generated_Source\PSoC5/USBUART.c **** *
1603:.\Generated_Source\PSoC5/USBUART.c **** *   *DMA with Manual Buffer Management:*
1604:.\Generated_Source\PSoC5/USBUART.c **** *   Configure DMA to transfer data from endpoint buffer to system RAM. Generate
1605:.\Generated_Source\PSoC5/USBUART.c **** *   a DMA request. The firmware must wait until the DMA completes the data
1606:.\Generated_Source\PSoC5/USBUART.c **** *   transfer after calling the USBUART_ReadOutEP() API. For example,
1607:.\Generated_Source\PSoC5/USBUART.c **** *   by checking EPstate:
1608:.\Generated_Source\PSoC5/USBUART.c **** *
1609:.\Generated_Source\PSoC5/USBUART.c **** *   \snippet /USBFS_sut_02.cydsn/main.c checking EPstatey
1610:.\Generated_Source\PSoC5/USBUART.c **** *
1611:.\Generated_Source\PSoC5/USBUART.c **** *   The USBFS_EnableOutEP() has to be called to allow host to write data into
1612:.\Generated_Source\PSoC5/USBUART.c **** *   the endpoint buffer after DMA has completed transfer data from OUT endpoint
1613:.\Generated_Source\PSoC5/USBUART.c **** *   buffer to SRAM.
ARM GAS  C:\Users\LUKASC~1\AppData\Local\Temp\ccwNUHtE.s 			page 51


1614:.\Generated_Source\PSoC5/USBUART.c **** *
1615:.\Generated_Source\PSoC5/USBUART.c **** *   *DMA with Automatic Buffer Management:*
1616:.\Generated_Source\PSoC5/USBUART.c **** *   Configure DMA. This is required only once and automatically generates DMA
1617:.\Generated_Source\PSoC5/USBUART.c **** *   requests as data arrives
1618:.\Generated_Source\PSoC5/USBUART.c **** *
1619:.\Generated_Source\PSoC5/USBUART.c **** *  \param epNumber: Contains the data endpoint number.
1620:.\Generated_Source\PSoC5/USBUART.c **** *            Valid values are between 1 and 8.
1621:.\Generated_Source\PSoC5/USBUART.c **** *  \param pData: A pointer to a data array from which the data for the endpoint
1622:.\Generated_Source\PSoC5/USBUART.c **** *         space is loaded.
1623:.\Generated_Source\PSoC5/USBUART.c **** *  \param length: The number of bytes to transfer from the USB Out endpoint and
1624:.\Generated_Source\PSoC5/USBUART.c **** *          loads it into data array. Valid values are between 0 and 1023. The
1625:.\Generated_Source\PSoC5/USBUART.c **** *          function moves fewer than the requested number of bytes if the host
1626:.\Generated_Source\PSoC5/USBUART.c **** *          sends fewer bytes than requested.
1627:.\Generated_Source\PSoC5/USBUART.c **** *
1628:.\Generated_Source\PSoC5/USBUART.c **** * \return
1629:.\Generated_Source\PSoC5/USBUART.c **** *  Number of bytes received, 0 for an invalid endpoint.
1630:.\Generated_Source\PSoC5/USBUART.c **** *
1631:.\Generated_Source\PSoC5/USBUART.c **** * \reentrant
1632:.\Generated_Source\PSoC5/USBUART.c **** *  No.
1633:.\Generated_Source\PSoC5/USBUART.c **** *
1634:.\Generated_Source\PSoC5/USBUART.c **** *******************************************************************************/
1635:.\Generated_Source\PSoC5/USBUART.c **** uint16 USBUART_ReadOutEP(uint8 epNumber, uint8 pData[], uint16 length)
1636:.\Generated_Source\PSoC5/USBUART.c ****                                                                         
1637:.\Generated_Source\PSoC5/USBUART.c **** {
 1232              		.loc 1 1637 0
 1233              		.cfi_startproc
 1234              		@ args = 0, pretend = 0, frame = 16
 1235              		@ frame_needed = 1, uses_anonymous_args = 0
 1236 0000 80B5     		push	{r7, lr}
 1237              		.cfi_def_cfa_offset 8
 1238              		.cfi_offset 7, -8
 1239              		.cfi_offset 14, -4
 1240 0002 84B0     		sub	sp, sp, #16
 1241              		.cfi_def_cfa_offset 24
 1242 0004 00AF     		add	r7, sp, #0
 1243              		.cfi_def_cfa_register 7
 1244 0006 0346     		mov	r3, r0
 1245 0008 3960     		str	r1, [r7]
 1246 000a FB71     		strb	r3, [r7, #7]
 1247 000c 1346     		mov	r3, r2	@ movhi
 1248 000e BB80     		strh	r3, [r7, #4]	@ movhi
1638:.\Generated_Source\PSoC5/USBUART.c ****     if ((pData != NULL) && (epNumber > USBUART_EP0) && (epNumber < USBUART_MAX_EP))
 1249              		.loc 1 1638 0
 1250 0010 3B68     		ldr	r3, [r7]
 1251 0012 002B     		cmp	r3, #0
 1252 0014 30D0     		beq	.L63
 1253              		.loc 1 1638 0 is_stmt 0 discriminator 1
 1254 0016 FB79     		ldrb	r3, [r7, #7]	@ zero_extendqisi2
 1255 0018 002B     		cmp	r3, #0
 1256 001a 2DD0     		beq	.L63
 1257              		.loc 1 1638 0 discriminator 2
 1258 001c FB79     		ldrb	r3, [r7, #7]	@ zero_extendqisi2
 1259 001e 082B     		cmp	r3, #8
 1260 0020 2AD8     		bhi	.L63
1639:.\Generated_Source\PSoC5/USBUART.c ****     {
1640:.\Generated_Source\PSoC5/USBUART.c ****     #if (!USBUART_EP_MANAGEMENT_DMA_AUTO)
1641:.\Generated_Source\PSoC5/USBUART.c ****         /* Adjust requested length to available data. */
ARM GAS  C:\Users\LUKASC~1\AppData\Local\Temp\ccwNUHtE.s 			page 52


1642:.\Generated_Source\PSoC5/USBUART.c ****         length = (length > USBUART_GetEPCount(epNumber)) ? USBUART_GetEPCount(epNumber) : length;
 1261              		.loc 1 1642 0 is_stmt 1
 1262 0022 FB79     		ldrb	r3, [r7, #7]	@ zero_extendqisi2
 1263 0024 1846     		mov	r0, r3
 1264 0026 FFF7FEFF 		bl	USBUART_GetEPCount
 1265 002a 0346     		mov	r3, r0
 1266 002c 1A46     		mov	r2, r3
 1267 002e BB88     		ldrh	r3, [r7, #4]
 1268 0030 9342     		cmp	r3, r2
 1269 0032 05D9     		bls	.L64
 1270              		.loc 1 1642 0 is_stmt 0 discriminator 1
 1271 0034 FB79     		ldrb	r3, [r7, #7]	@ zero_extendqisi2
 1272 0036 1846     		mov	r0, r3
 1273 0038 FFF7FEFF 		bl	USBUART_GetEPCount
 1274 003c 0346     		mov	r3, r0
 1275 003e 00E0     		b	.L65
 1276              	.L64:
 1277              		.loc 1 1642 0 discriminator 2
 1278 0040 BB88     		ldrh	r3, [r7, #4]
 1279              	.L65:
 1280              		.loc 1 1642 0 discriminator 4
 1281 0042 BB80     		strh	r3, [r7, #4]	@ movhi
 1282              	.LBB3:
1643:.\Generated_Source\PSoC5/USBUART.c ****     #endif /* (!USBUART_EP_MANAGEMENT_DMA_AUTO) */
1644:.\Generated_Source\PSoC5/USBUART.c **** 
1645:.\Generated_Source\PSoC5/USBUART.c ****     #if (USBUART_EP_MANAGEMENT_MANUAL)
1646:.\Generated_Source\PSoC5/USBUART.c ****         {
1647:.\Generated_Source\PSoC5/USBUART.c ****             /* Copy data using arbiter data register. */
1648:.\Generated_Source\PSoC5/USBUART.c ****             uint16 i;
1649:.\Generated_Source\PSoC5/USBUART.c ****             for (i = 0u; i < length; ++i)
 1283              		.loc 1 1649 0 is_stmt 1 discriminator 4
 1284 0044 0023     		movs	r3, #0
 1285 0046 FB81     		strh	r3, [r7, #14]	@ movhi
 1286 0048 0DE0     		b	.L66
 1287              	.L67:
1650:.\Generated_Source\PSoC5/USBUART.c ****             {
1651:.\Generated_Source\PSoC5/USBUART.c ****                 pData[i] = (uint8) USBUART_ARB_EP_BASE.arbEp[epNumber].rwDr;
 1288              		.loc 1 1651 0 discriminator 3
 1289 004a FB89     		ldrh	r3, [r7, #14]
 1290 004c 3A68     		ldr	r2, [r7]
 1291 004e 1344     		add	r3, r3, r2
 1292 0050 0D49     		ldr	r1, .L70
 1293 0052 FA79     		ldrb	r2, [r7, #7]	@ zero_extendqisi2
 1294 0054 1201     		lsls	r2, r2, #4
 1295 0056 0A44     		add	r2, r2, r1
 1296 0058 0832     		adds	r2, r2, #8
 1297 005a 1278     		ldrb	r2, [r2]
 1298 005c D2B2     		uxtb	r2, r2
 1299 005e 1A70     		strb	r2, [r3]
1649:.\Generated_Source\PSoC5/USBUART.c ****             {
 1300              		.loc 1 1649 0 discriminator 3
 1301 0060 FB89     		ldrh	r3, [r7, #14]	@ movhi
 1302 0062 0133     		adds	r3, r3, #1
 1303 0064 FB81     		strh	r3, [r7, #14]	@ movhi
 1304              	.L66:
1649:.\Generated_Source\PSoC5/USBUART.c ****             {
 1305              		.loc 1 1649 0 is_stmt 0 discriminator 1
ARM GAS  C:\Users\LUKASC~1\AppData\Local\Temp\ccwNUHtE.s 			page 53


 1306 0066 FA89     		ldrh	r2, [r7, #14]
 1307 0068 BB88     		ldrh	r3, [r7, #4]
 1308 006a 9A42     		cmp	r2, r3
 1309 006c EDD3     		bcc	.L67
 1310              	.LBE3:
1652:.\Generated_Source\PSoC5/USBUART.c ****             }
1653:.\Generated_Source\PSoC5/USBUART.c ****         }
1654:.\Generated_Source\PSoC5/USBUART.c **** 
1655:.\Generated_Source\PSoC5/USBUART.c ****         /* Arm OUT endpoint after data has been copied from endpoint buffer. */
1656:.\Generated_Source\PSoC5/USBUART.c ****         USBUART_EnableOutEP(epNumber);
 1311              		.loc 1 1656 0 is_stmt 1
 1312 006e FB79     		ldrb	r3, [r7, #7]	@ zero_extendqisi2
 1313 0070 1846     		mov	r0, r3
 1314 0072 FFF7FEFF 		bl	USBUART_EnableOutEP
 1315 0076 01E0     		b	.L68
 1316              	.L63:
1657:.\Generated_Source\PSoC5/USBUART.c ****     #else
1658:.\Generated_Source\PSoC5/USBUART.c **** 
1659:.\Generated_Source\PSoC5/USBUART.c ****         #if (CY_PSOC3 || CY_PSOC5LP)
1660:.\Generated_Source\PSoC5/USBUART.c ****             /* Initialize DMA if it was not initialized. */
1661:.\Generated_Source\PSoC5/USBUART.c ****             if (DMA_INVALID_TD == USBUART_DmaTd[epNumber])
1662:.\Generated_Source\PSoC5/USBUART.c ****             {
1663:.\Generated_Source\PSoC5/USBUART.c ****                 USBUART_InitEP_DMA(epNumber, pData);
1664:.\Generated_Source\PSoC5/USBUART.c ****             }
1665:.\Generated_Source\PSoC5/USBUART.c ****         #endif /* (CY_PSOC3 || CY_PSOC5LP) */
1666:.\Generated_Source\PSoC5/USBUART.c **** 
1667:.\Generated_Source\PSoC5/USBUART.c ****         #if (USBUART_EP_MANAGEMENT_DMA_MANUAL)
1668:.\Generated_Source\PSoC5/USBUART.c ****         #if (CY_PSOC4)
1669:.\Generated_Source\PSoC5/USBUART.c ****         {
1670:.\Generated_Source\PSoC5/USBUART.c ****             uint32 channelNum = (uint32) USBUART_DmaChan[epNumber];
1671:.\Generated_Source\PSoC5/USBUART.c **** 
1672:.\Generated_Source\PSoC5/USBUART.c ****             /* Disable DMA channel: start configuration. */
1673:.\Generated_Source\PSoC5/USBUART.c ****             USBUART_CyDmaChDisable(channelNum);
1674:.\Generated_Source\PSoC5/USBUART.c **** 
1675:.\Generated_Source\PSoC5/USBUART.c ****             /* Configure source and destination. */
1676:.\Generated_Source\PSoC5/USBUART.c ****             USBUART_CyDmaSetSrcAddress(channelNum, USBUART_DMA_DESCR0, (void*) &USBUART_ARB_EP_BASE
1677:.\Generated_Source\PSoC5/USBUART.c ****             USBUART_CyDmaSetDstAddress(channelNum, USBUART_DMA_DESCR0, (void*) pData);
1678:.\Generated_Source\PSoC5/USBUART.c **** 
1679:.\Generated_Source\PSoC5/USBUART.c ****             /* Configure DMA descriptor. */
1680:.\Generated_Source\PSoC5/USBUART.c ****             USBUART_CyDmaSetConfiguration(channelNum, USBUART_DMA_DESCR0, USBUART_DMA_COMMON_CFG | 
1681:.\Generated_Source\PSoC5/USBUART.c ****                                                     CYDMA_BYTE | CYDMA_WORD_ELEMENT | CYDMA_INC_DST
1682:.\Generated_Source\PSoC5/USBUART.c **** 
1683:.\Generated_Source\PSoC5/USBUART.c ****             /* Validate descriptor to execute on following DMA request. */
1684:.\Generated_Source\PSoC5/USBUART.c ****             USBUART_CyDmaValidateDescriptor(channelNum, USBUART_DMA_DESCR0);
1685:.\Generated_Source\PSoC5/USBUART.c **** 
1686:.\Generated_Source\PSoC5/USBUART.c ****             /* Enable DMA channel: configuration complete. */
1687:.\Generated_Source\PSoC5/USBUART.c ****             USBUART_CyDmaChEnable(channelNum);
1688:.\Generated_Source\PSoC5/USBUART.c ****         }
1689:.\Generated_Source\PSoC5/USBUART.c ****         #else
1690:.\Generated_Source\PSoC5/USBUART.c ****             /* Configure DMA to transfer data. */
1691:.\Generated_Source\PSoC5/USBUART.c ****             (void) CyDmaChDisable(USBUART_DmaChan[epNumber]);
1692:.\Generated_Source\PSoC5/USBUART.c ****             (void) CyDmaTdSetConfiguration(USBUART_DmaTd[epNumber], length, CY_DMA_DISABLE_TD, TD_T
1693:.\Generated_Source\PSoC5/USBUART.c ****             (void) CyDmaTdSetAddress(USBUART_DmaTd[epNumber], LO16((uint32) &USBUART_ARB_EP_BASE.ar
1694:.\Generated_Source\PSoC5/USBUART.c **** 
1695:.\Generated_Source\PSoC5/USBUART.c ****             /* Enable DMA channel. */
1696:.\Generated_Source\PSoC5/USBUART.c ****             (void) CyDmaChSetInitialTd(USBUART_DmaChan[epNumber], USBUART_DmaTd[epNumber]);
1697:.\Generated_Source\PSoC5/USBUART.c ****             (void) CyDmaChEnable(USBUART_DmaChan[epNumber], 1u);
ARM GAS  C:\Users\LUKASC~1\AppData\Local\Temp\ccwNUHtE.s 			page 54


1698:.\Generated_Source\PSoC5/USBUART.c ****         #endif /* (CY_PSOC4) */
1699:.\Generated_Source\PSoC5/USBUART.c **** 
1700:.\Generated_Source\PSoC5/USBUART.c ****             /* Generate DMA request. */
1701:.\Generated_Source\PSoC5/USBUART.c ****             USBUART_ARB_EP_BASE.arbEp[epNumber].epCfg |=  (uint8)  USBUART_ARB_EPX_CFG_DMA_REQ;
1702:.\Generated_Source\PSoC5/USBUART.c ****             USBUART_ARB_EP_BASE.arbEp[epNumber].epCfg &=  (uint8) ~USBUART_ARB_EPX_CFG_DMA_REQ;
1703:.\Generated_Source\PSoC5/USBUART.c **** 
1704:.\Generated_Source\PSoC5/USBUART.c ****             /* OUT endpoint has to be armed again by user when DMA transfers have been completed.
1705:.\Generated_Source\PSoC5/USBUART.c ****             * NO_EVENT_PENDING: notifies that data has been copied from endpoint buffer.
1706:.\Generated_Source\PSoC5/USBUART.c ****             */
1707:.\Generated_Source\PSoC5/USBUART.c **** 
1708:.\Generated_Source\PSoC5/USBUART.c ****         #endif /* (USBUART_EP_MANAGEMENT_DMA_MANUAL) */
1709:.\Generated_Source\PSoC5/USBUART.c **** 
1710:.\Generated_Source\PSoC5/USBUART.c ****         #if (USBUART_EP_MANAGEMENT_DMA_AUTO)
1711:.\Generated_Source\PSoC5/USBUART.c ****         #if (CY_PSOC4)
1712:.\Generated_Source\PSoC5/USBUART.c ****         {
1713:.\Generated_Source\PSoC5/USBUART.c ****             uint32 channelNum = (uint32) USBUART_DmaChan[epNumber];
1714:.\Generated_Source\PSoC5/USBUART.c ****             uint32 lengthDescr0, lengthDescr1;
1715:.\Generated_Source\PSoC5/USBUART.c **** 
1716:.\Generated_Source\PSoC5/USBUART.c ****             /* Get number of full bursts. */
1717:.\Generated_Source\PSoC5/USBUART.c ****             USBUART_DmaEpBurstCnt[epNumber] = (uint8) (length / USBUART_DMA_BYTES_PER_BURST);
1718:.\Generated_Source\PSoC5/USBUART.c **** 
1719:.\Generated_Source\PSoC5/USBUART.c ****             /* Get number of elements in the last burst. */
1720:.\Generated_Source\PSoC5/USBUART.c ****             USBUART_DmaEpLastBurstEl[epNumber] = (uint8) (length % USBUART_DMA_BYTES_PER_BURST);
1721:.\Generated_Source\PSoC5/USBUART.c **** 
1722:.\Generated_Source\PSoC5/USBUART.c ****             /* Get total number of bursts. */
1723:.\Generated_Source\PSoC5/USBUART.c ****             USBUART_DmaEpBurstCnt[epNumber] += (0u != USBUART_DmaEpLastBurstEl[epNumber]) ? 1u : 0u
1724:.\Generated_Source\PSoC5/USBUART.c **** 
1725:.\Generated_Source\PSoC5/USBUART.c ****             /* Adjust number of the data elements transfered in last burst. */
1726:.\Generated_Source\PSoC5/USBUART.c ****             USBUART_DmaEpLastBurstEl[epNumber] = (0u != USBUART_DmaEpLastBurstEl[epNumber]) ?
1727:.\Generated_Source\PSoC5/USBUART.c ****                                                                   (USBUART_DmaEpLastBurstEl[epNumbe
1728:.\Generated_Source\PSoC5/USBUART.c ****                                                                   (USBUART_DMA_BYTES_PER_BURST - 1u
1729:.\Generated_Source\PSoC5/USBUART.c **** 
1730:.\Generated_Source\PSoC5/USBUART.c ****             /* Get number of data elements to transfer for descriptor 0 and 1. */
1731:.\Generated_Source\PSoC5/USBUART.c ****             lengthDescr0 = (1u == USBUART_DmaEpBurstCnt[epNumber]) ? USBUART_DmaEpLastBurstEl[epNum
1732:.\Generated_Source\PSoC5/USBUART.c ****             lengthDescr1 = (2u == USBUART_DmaEpBurstCnt[epNumber]) ? USBUART_DmaEpLastBurstEl[epNum
1733:.\Generated_Source\PSoC5/USBUART.c **** 
1734:.\Generated_Source\PSoC5/USBUART.c ****             /* Mark if revert number of data elements in descriptor after transfer completion. */
1735:.\Generated_Source\PSoC5/USBUART.c ****             USBUART_DmaEpLastBurstEl[epNumber] |= (USBUART_DmaEpBurstCnt[epNumber] > 2u) ? USBUART_
1736:.\Generated_Source\PSoC5/USBUART.c **** 
1737:.\Generated_Source\PSoC5/USBUART.c ****             /* Mark last descriptor to be executed. */
1738:.\Generated_Source\PSoC5/USBUART.c ****             USBUART_DmaEpLastBurstEl[epNumber] |= (0u != (USBUART_DmaEpBurstCnt[epNumber] & 0x1u)) 
1739:.\Generated_Source\PSoC5/USBUART.c ****                                                                     USBUART_DMA_DESCR0_MASK : USBUA
1740:.\Generated_Source\PSoC5/USBUART.c **** 
1741:.\Generated_Source\PSoC5/USBUART.c ****             /* Adjust burst counter taking to account: 2 valid descriptors and interrupt trigger af
1742:.\Generated_Source\PSoC5/USBUART.c ****             USBUART_DmaEpBurstCnt[epNumber] = USBUART_DMA_GET_BURST_CNT(USBUART_DmaEpBurstCnt[epNum
1743:.\Generated_Source\PSoC5/USBUART.c **** 
1744:.\Generated_Source\PSoC5/USBUART.c ****             /* Store address of buffer and burst counter for endpoint. */
1745:.\Generated_Source\PSoC5/USBUART.c ****             USBUART_DmaEpBufferAddrBackup[epNumber] = (uint32) pData;
1746:.\Generated_Source\PSoC5/USBUART.c ****             USBUART_DmaEpBurstCntBackup[epNumber]   = USBUART_DmaEpBurstCnt[epNumber];
1747:.\Generated_Source\PSoC5/USBUART.c **** 
1748:.\Generated_Source\PSoC5/USBUART.c ****             /* Disable DMA channel: start configuration. */
1749:.\Generated_Source\PSoC5/USBUART.c ****             USBUART_CyDmaChDisable(channelNum);
1750:.\Generated_Source\PSoC5/USBUART.c **** 
1751:.\Generated_Source\PSoC5/USBUART.c ****             /* Set destination address. */
1752:.\Generated_Source\PSoC5/USBUART.c ****             USBUART_CyDmaSetSrcAddress(channelNum, USBUART_DMA_DESCR0, (void*) &USBUART_ARB_EP_BASE
1753:.\Generated_Source\PSoC5/USBUART.c ****             USBUART_CyDmaSetSrcAddress(channelNum, USBUART_DMA_DESCR1, (void*) &USBUART_ARB_EP_BASE
1754:.\Generated_Source\PSoC5/USBUART.c **** 
ARM GAS  C:\Users\LUKASC~1\AppData\Local\Temp\ccwNUHtE.s 			page 55


1755:.\Generated_Source\PSoC5/USBUART.c ****             USBUART_CyDmaSetDstAddress(channelNum, USBUART_DMA_DESCR0, (void*) ((uint32) pData));
1756:.\Generated_Source\PSoC5/USBUART.c ****             USBUART_CyDmaSetDstAddress(channelNum, USBUART_DMA_DESCR1, (void*) ((uint32) pData + US
1757:.\Generated_Source\PSoC5/USBUART.c **** 
1758:.\Generated_Source\PSoC5/USBUART.c ****             /* Configure DMA descriptor. */
1759:.\Generated_Source\PSoC5/USBUART.c ****             USBUART_CyDmaSetConfiguration(channelNum, USBUART_DMA_DESCR0, USBUART_DMA_COMMON_CFG  |
1760:.\Generated_Source\PSoC5/USBUART.c ****                                                     CYDMA_BYTE | CYDMA_WORD_ELEMENT | CYDMA_INC_DST
1761:.\Generated_Source\PSoC5/USBUART.c **** 
1762:.\Generated_Source\PSoC5/USBUART.c ****             /* Configure DMA descriptor. */
1763:.\Generated_Source\PSoC5/USBUART.c ****             USBUART_CyDmaSetConfiguration(channelNum, USBUART_DMA_DESCR1, USBUART_DMA_COMMON_CFG  |
1764:.\Generated_Source\PSoC5/USBUART.c ****                                                     CYDMA_BYTE | CYDMA_WORD_ELEMENT | CYDMA_INC_DST
1765:.\Generated_Source\PSoC5/USBUART.c **** 
1766:.\Generated_Source\PSoC5/USBUART.c ****             /* Enable interrupt from DMA channel. */
1767:.\Generated_Source\PSoC5/USBUART.c ****             USBUART_CyDmaSetInterruptMask(channelNum);
1768:.\Generated_Source\PSoC5/USBUART.c **** 
1769:.\Generated_Source\PSoC5/USBUART.c ****             /* Validate DMA descriptor 0 and 1. */
1770:.\Generated_Source\PSoC5/USBUART.c ****             USBUART_CyDmaValidateDescriptor(channelNum, USBUART_DMA_DESCR0);
1771:.\Generated_Source\PSoC5/USBUART.c ****             USBUART_CyDmaValidateDescriptor(channelNum, USBUART_DMA_DESCR1);
1772:.\Generated_Source\PSoC5/USBUART.c **** 
1773:.\Generated_Source\PSoC5/USBUART.c ****             /* Enable DMA channel: configuration complete. */
1774:.\Generated_Source\PSoC5/USBUART.c ****             USBUART_CyDmaChEnable(channelNum);
1775:.\Generated_Source\PSoC5/USBUART.c ****         }
1776:.\Generated_Source\PSoC5/USBUART.c ****         #else
1777:.\Generated_Source\PSoC5/USBUART.c ****             (void) CyDmaChDisable(USBUART_DmaChan[epNumber]);
1778:.\Generated_Source\PSoC5/USBUART.c ****             (void) CyDmaTdSetConfiguration(USBUART_DmaTd[epNumber], length,  USBUART_DmaTd[epNumber
1779:.\Generated_Source\PSoC5/USBUART.c ****             (void) CyDmaTdSetAddress(USBUART_DmaTd[epNumber], LO16((uint32) &USBUART_ARB_EP_BASE.ar
1780:.\Generated_Source\PSoC5/USBUART.c **** 
1781:.\Generated_Source\PSoC5/USBUART.c ****             /* Clear Any potential pending DMA requests before starting DMA channel to transfer dat
1782:.\Generated_Source\PSoC5/USBUART.c ****             (void) CyDmaClearPendingDrq(USBUART_DmaChan[epNumber]);
1783:.\Generated_Source\PSoC5/USBUART.c **** 
1784:.\Generated_Source\PSoC5/USBUART.c ****             /* Enable DMA channel. */
1785:.\Generated_Source\PSoC5/USBUART.c ****             (void) CyDmaChSetInitialTd(USBUART_DmaChan[epNumber], USBUART_DmaTd[epNumber]);
1786:.\Generated_Source\PSoC5/USBUART.c ****             (void) CyDmaChEnable(USBUART_DmaChan[epNumber], 1u);
1787:.\Generated_Source\PSoC5/USBUART.c ****         #endif /* (CY_PSOC4) */
1788:.\Generated_Source\PSoC5/USBUART.c **** 
1789:.\Generated_Source\PSoC5/USBUART.c ****             /* OUT endpoint has to be armed again by user when DMA transfers have been completed.
1790:.\Generated_Source\PSoC5/USBUART.c ****             * NO_EVENT_PENDING: notifies that data has been copied from endpoint buffer.
1791:.\Generated_Source\PSoC5/USBUART.c ****             */
1792:.\Generated_Source\PSoC5/USBUART.c **** 
1793:.\Generated_Source\PSoC5/USBUART.c ****         #endif /* (USBUART_EP_MANAGEMENT_DMA_AUTO) */
1794:.\Generated_Source\PSoC5/USBUART.c ****     #endif /* (USBUART_EP_MANAGEMENT_MANUAL) */
1795:.\Generated_Source\PSoC5/USBUART.c ****     }
1796:.\Generated_Source\PSoC5/USBUART.c ****     else
1797:.\Generated_Source\PSoC5/USBUART.c ****     {
1798:.\Generated_Source\PSoC5/USBUART.c ****         length = 0u;
 1317              		.loc 1 1798 0
 1318 0078 0023     		movs	r3, #0
 1319 007a BB80     		strh	r3, [r7, #4]	@ movhi
 1320              	.L68:
1799:.\Generated_Source\PSoC5/USBUART.c ****     }
1800:.\Generated_Source\PSoC5/USBUART.c **** 
1801:.\Generated_Source\PSoC5/USBUART.c ****     return (length);
 1321              		.loc 1 1801 0
 1322 007c BB88     		ldrh	r3, [r7, #4]
1802:.\Generated_Source\PSoC5/USBUART.c **** }
 1323              		.loc 1 1802 0
 1324 007e 1846     		mov	r0, r3
 1325 0080 1037     		adds	r7, r7, #16
ARM GAS  C:\Users\LUKASC~1\AppData\Local\Temp\ccwNUHtE.s 			page 56


 1326              		.cfi_def_cfa_offset 8
 1327 0082 BD46     		mov	sp, r7
 1328              		.cfi_def_cfa_register 13
 1329              		@ sp needed
 1330 0084 80BD     		pop	{r7, pc}
 1331              	.L71:
 1332 0086 00BF     		.align	2
 1333              	.L70:
 1334 0088 70600040 		.word	1073766512
 1335              		.cfi_endproc
 1336              	.LFE12:
 1337              		.size	USBUART_ReadOutEP, .-USBUART_ReadOutEP
 1338              		.section	.text.USBUART_EnableOutEP,"ax",%progbits
 1339              		.align	2
 1340              		.global	USBUART_EnableOutEP
 1341              		.thumb
 1342              		.thumb_func
 1343              		.type	USBUART_EnableOutEP, %function
 1344              	USBUART_EnableOutEP:
 1345              	.LFB13:
1803:.\Generated_Source\PSoC5/USBUART.c **** 
1804:.\Generated_Source\PSoC5/USBUART.c **** 
1805:.\Generated_Source\PSoC5/USBUART.c **** #if (USBUART_16BITS_EP_ACCESS_ENABLE)
1806:.\Generated_Source\PSoC5/USBUART.c **** /*******************************************************************************
1807:.\Generated_Source\PSoC5/USBUART.c **** * Function Name: USBUART_LoadInEP16
1808:.\Generated_Source\PSoC5/USBUART.c **** ****************************************************************************//**
1809:.\Generated_Source\PSoC5/USBUART.c **** *
1810:.\Generated_Source\PSoC5/USBUART.c **** *  This function performs different functionality depending on the Component’s
1811:.\Generated_Source\PSoC5/USBUART.c **** *  configured Endpoint Buffer Management. This parameter is defined in
1812:.\Generated_Source\PSoC5/USBUART.c **** *  the Descriptor Root in Component Configure window.
1813:.\Generated_Source\PSoC5/USBUART.c **** *
1814:.\Generated_Source\PSoC5/USBUART.c **** *  *Manual (Static/Dynamic Allocation):*
1815:.\Generated_Source\PSoC5/USBUART.c **** *  This function loads and enables the specified USB data endpoint for an IN
1816:.\Generated_Source\PSoC5/USBUART.c **** *  data transfer.
1817:.\Generated_Source\PSoC5/USBUART.c **** *
1818:.\Generated_Source\PSoC5/USBUART.c **** *  *DMA with Manual Buffer Management:*
1819:.\Generated_Source\PSoC5/USBUART.c **** *  Configures DMA for a data transfer from system RAM to endpoint buffer.
1820:.\Generated_Source\PSoC5/USBUART.c **** *  Generates request for a transfer.
1821:.\Generated_Source\PSoC5/USBUART.c **** *
1822:.\Generated_Source\PSoC5/USBUART.c **** *  *DMA with Automatic Buffer Management:*
1823:.\Generated_Source\PSoC5/USBUART.c **** *  Configures DMA. This is required only once, so it is done only when parameter
1824:.\Generated_Source\PSoC5/USBUART.c **** *  pData is not NULL. When the pData pointer is NULL, the function skips this
1825:.\Generated_Source\PSoC5/USBUART.c **** *  task. Sets Data ready status: This generates the first DMA transfer and
1826:.\Generated_Source\PSoC5/USBUART.c **** *  prepares data in endpoint buffer.
1827:.\Generated_Source\PSoC5/USBUART.c **** *
1828:.\Generated_Source\PSoC5/USBUART.c **** *  \param epNumber Contains the data endpoint number.
1829:.\Generated_Source\PSoC5/USBUART.c **** *        Valid values are between 1 and 8.
1830:.\Generated_Source\PSoC5/USBUART.c **** *  \param *pData A pointer to a data array from which the data for the endpoint
1831:.\Generated_Source\PSoC5/USBUART.c **** *        space is loaded. It shall be ensured that this pointer address is even
1832:.\Generated_Source\PSoC5/USBUART.c **** *        to ensure the 16-bit transfer is aligned to even address. Else, a hard
1833:.\Generated_Source\PSoC5/USBUART.c **** *        fault condition can occur.
1834:.\Generated_Source\PSoC5/USBUART.c **** *  \param length The number of bytes to transfer from the array and then send as
1835:.\Generated_Source\PSoC5/USBUART.c **** *        a result of an IN request. Valid values are between 0 and 512 (1023 for
1836:.\Generated_Source\PSoC5/USBUART.c **** *        DMA with Automatic Buffer Management mode). The value 512 is applicable
1837:.\Generated_Source\PSoC5/USBUART.c **** *        if only one endpoint is used.
1838:.\Generated_Source\PSoC5/USBUART.c **** *
1839:.\Generated_Source\PSoC5/USBUART.c **** * \reentrant
ARM GAS  C:\Users\LUKASC~1\AppData\Local\Temp\ccwNUHtE.s 			page 57


1840:.\Generated_Source\PSoC5/USBUART.c **** *  No.
1841:.\Generated_Source\PSoC5/USBUART.c **** *
1842:.\Generated_Source\PSoC5/USBUART.c **** *******************************************************************************/
1843:.\Generated_Source\PSoC5/USBUART.c **** void USBUART_LoadInEP16(uint8 epNumber, const uint8 pData[], uint16 length)
1844:.\Generated_Source\PSoC5/USBUART.c **** {
1845:.\Generated_Source\PSoC5/USBUART.c ****     /* Check array alignment on half-word boundary. */
1846:.\Generated_Source\PSoC5/USBUART.c ****     CYASSERT(0u == (((uint32) pData) & 0x01u));
1847:.\Generated_Source\PSoC5/USBUART.c **** 
1848:.\Generated_Source\PSoC5/USBUART.c ****     if ((epNumber > USBUART_EP0) && (epNumber < USBUART_MAX_EP))
1849:.\Generated_Source\PSoC5/USBUART.c ****     {
1850:.\Generated_Source\PSoC5/USBUART.c ****     #if (!USBUART_EP_MANAGEMENT_DMA_AUTO)
1851:.\Generated_Source\PSoC5/USBUART.c ****         /* Limit length to available buffer USB IP buffer size. */
1852:.\Generated_Source\PSoC5/USBUART.c ****         if (length > (USBUART_EPX_DATA_BUF_MAX - USBUART_EP[epNumber].buffOffset))
1853:.\Generated_Source\PSoC5/USBUART.c ****         {
1854:.\Generated_Source\PSoC5/USBUART.c ****             length = USBUART_EPX_DATA_BUF_MAX - USBUART_EP[epNumber].buffOffset;
1855:.\Generated_Source\PSoC5/USBUART.c ****         }
1856:.\Generated_Source\PSoC5/USBUART.c ****     #endif /* (!USBUART_EP_MANAGEMENT_DMA_AUTO) */
1857:.\Generated_Source\PSoC5/USBUART.c **** 
1858:.\Generated_Source\PSoC5/USBUART.c ****         /* Set count and data toggle. */
1859:.\Generated_Source\PSoC5/USBUART.c ****         USBUART_SIE_EP_BASE.sieEp[epNumber].epCnt0 = (uint32) HI8(length) | USBUART_EP[epNumber].ep
1860:.\Generated_Source\PSoC5/USBUART.c ****         USBUART_SIE_EP_BASE.sieEp[epNumber].epCnt1 = (uint32) LO8(length);
1861:.\Generated_Source\PSoC5/USBUART.c **** 
1862:.\Generated_Source\PSoC5/USBUART.c ****         /* Adjust requested length: 2 bytes are handled at one data register access. */
1863:.\Generated_Source\PSoC5/USBUART.c ****         length += (length & 0x01u);
1864:.\Generated_Source\PSoC5/USBUART.c **** 
1865:.\Generated_Source\PSoC5/USBUART.c ****     #if (USBUART_EP_MANAGEMENT_MANUAL)
1866:.\Generated_Source\PSoC5/USBUART.c ****         if (NULL != pData)
1867:.\Generated_Source\PSoC5/USBUART.c ****         {
1868:.\Generated_Source\PSoC5/USBUART.c ****             /* Convert uint8 array to uint16. */
1869:.\Generated_Source\PSoC5/USBUART.c ****             const uint16 *dataBuf = (uint16 *) pData;
1870:.\Generated_Source\PSoC5/USBUART.c **** 
1871:.\Generated_Source\PSoC5/USBUART.c ****             /* Copy data using 16-bits arbiter data register. */
1872:.\Generated_Source\PSoC5/USBUART.c ****             uint16 i;
1873:.\Generated_Source\PSoC5/USBUART.c ****             for (i = 0u; i < (length >> 1u); ++i)
1874:.\Generated_Source\PSoC5/USBUART.c ****             {
1875:.\Generated_Source\PSoC5/USBUART.c ****                 USBUART_ARB_EP16_BASE.arbEp[epNumber].rwDr16 = dataBuf[i];
1876:.\Generated_Source\PSoC5/USBUART.c ****             }
1877:.\Generated_Source\PSoC5/USBUART.c ****         }
1878:.\Generated_Source\PSoC5/USBUART.c **** 
1879:.\Generated_Source\PSoC5/USBUART.c ****         /* IN endpoint buffer is full - read to be read. */
1880:.\Generated_Source\PSoC5/USBUART.c ****         USBUART_EP[epNumber].apiEpState = USBUART_NO_EVENT_PENDING;
1881:.\Generated_Source\PSoC5/USBUART.c **** 
1882:.\Generated_Source\PSoC5/USBUART.c ****         /* Arm IN endpoint. */
1883:.\Generated_Source\PSoC5/USBUART.c ****         USBUART_SIE_EP_BASE.sieEp[epNumber].epCr0 = USBUART_EP[epNumber].epMode;
1884:.\Generated_Source\PSoC5/USBUART.c **** 
1885:.\Generated_Source\PSoC5/USBUART.c ****     #else
1886:.\Generated_Source\PSoC5/USBUART.c **** 
1887:.\Generated_Source\PSoC5/USBUART.c ****         #if (USBUART_EP_MANAGEMENT_DMA_MANUAL)
1888:.\Generated_Source\PSoC5/USBUART.c ****             /* IN endpoint buffer will be fully loaded by DMA shortly. */
1889:.\Generated_Source\PSoC5/USBUART.c ****             USBUART_EP[epNumber].apiEpState = USBUART_NO_EVENT_PENDING;
1890:.\Generated_Source\PSoC5/USBUART.c **** 
1891:.\Generated_Source\PSoC5/USBUART.c ****             if ((pData != NULL) && (length > 0u))
1892:.\Generated_Source\PSoC5/USBUART.c ****             {
1893:.\Generated_Source\PSoC5/USBUART.c ****                 uint32 channelNum = (uint32) USBUART_DmaChan[epNumber];
1894:.\Generated_Source\PSoC5/USBUART.c **** 
1895:.\Generated_Source\PSoC5/USBUART.c ****                 /* Disable DMA channel: start configuration. */
1896:.\Generated_Source\PSoC5/USBUART.c ****                 USBUART_CyDmaChDisable(channelNum);
ARM GAS  C:\Users\LUKASC~1\AppData\Local\Temp\ccwNUHtE.s 			page 58


1897:.\Generated_Source\PSoC5/USBUART.c **** 
1898:.\Generated_Source\PSoC5/USBUART.c ****                 /* Configure source and destination. */
1899:.\Generated_Source\PSoC5/USBUART.c ****                 USBUART_CyDmaSetSrcAddress(channelNum, USBUART_DMA_DESCR0, (void*) pData);
1900:.\Generated_Source\PSoC5/USBUART.c ****                 USBUART_CyDmaSetDstAddress(channelNum, USBUART_DMA_DESCR0, (void*) &USBUART_ARB_EP1
1901:.\Generated_Source\PSoC5/USBUART.c **** 
1902:.\Generated_Source\PSoC5/USBUART.c ****                 /* Configure DMA descriptor. */
1903:.\Generated_Source\PSoC5/USBUART.c ****                 length = (length >> 1u) - 1u;
1904:.\Generated_Source\PSoC5/USBUART.c ****                 USBUART_CyDmaSetConfiguration(channelNum, USBUART_DMA_DESCR0, USBUART_DMA_COMMON_CF
1905:.\Generated_Source\PSoC5/USBUART.c ****                                                         CYDMA_HALFWORD | CYDMA_ELEMENT_WORD | CYDMA
1906:.\Generated_Source\PSoC5/USBUART.c **** 
1907:.\Generated_Source\PSoC5/USBUART.c ****                 /* Validate descriptor to execute on following DMA request. */
1908:.\Generated_Source\PSoC5/USBUART.c ****                 USBUART_CyDmaValidateDescriptor(channelNum, USBUART_DMA_DESCR0);
1909:.\Generated_Source\PSoC5/USBUART.c **** 
1910:.\Generated_Source\PSoC5/USBUART.c ****                 /* Enable DMA channel: configuration complete. */
1911:.\Generated_Source\PSoC5/USBUART.c ****                 USBUART_CyDmaChEnable(channelNum);
1912:.\Generated_Source\PSoC5/USBUART.c **** 
1913:.\Generated_Source\PSoC5/USBUART.c ****                 /* Generate DMA request. */
1914:.\Generated_Source\PSoC5/USBUART.c ****                 USBUART_ARB_EP_BASE.arbEp[epNumber].epCfg |=  (uint32)  USBUART_ARB_EPX_CFG_DMA_REQ
1915:.\Generated_Source\PSoC5/USBUART.c ****                 USBUART_ARB_EP_BASE.arbEp[epNumber].epCfg &=  (uint32) ~USBUART_ARB_EPX_CFG_DMA_REQ
1916:.\Generated_Source\PSoC5/USBUART.c **** 
1917:.\Generated_Source\PSoC5/USBUART.c ****                 /* IN endpoint will be armed in ARB_ISR(source: IN_BUF_FULL) after first DMA transf
1918:.\Generated_Source\PSoC5/USBUART.c ****             }
1919:.\Generated_Source\PSoC5/USBUART.c ****             else
1920:.\Generated_Source\PSoC5/USBUART.c ****             {
1921:.\Generated_Source\PSoC5/USBUART.c ****                 /* When zero-length packet: arm IN endpoint directly. */
1922:.\Generated_Source\PSoC5/USBUART.c ****                 USBUART_SIE_EP_BASE.sieEp[epNumber].epCr0 = USBUART_EP[epNumber].epMode;
1923:.\Generated_Source\PSoC5/USBUART.c ****             }
1924:.\Generated_Source\PSoC5/USBUART.c ****         #endif /* (USBUART_EP_MANAGEMENT_DMA_MANUAL) */
1925:.\Generated_Source\PSoC5/USBUART.c **** 
1926:.\Generated_Source\PSoC5/USBUART.c ****         #if (USBUART_EP_MANAGEMENT_DMA_AUTO)
1927:.\Generated_Source\PSoC5/USBUART.c ****             if (pData != NULL)
1928:.\Generated_Source\PSoC5/USBUART.c ****             {
1929:.\Generated_Source\PSoC5/USBUART.c ****                 uint32 channelNum = (uint32) USBUART_DmaChan[epNumber];
1930:.\Generated_Source\PSoC5/USBUART.c **** 
1931:.\Generated_Source\PSoC5/USBUART.c ****                 /* Store address of buffer. */
1932:.\Generated_Source\PSoC5/USBUART.c ****                 USBUART_DmaEpBufferAddrBackup[epNumber] = (uint32) pData;
1933:.\Generated_Source\PSoC5/USBUART.c **** 
1934:.\Generated_Source\PSoC5/USBUART.c ****                 /* Disable DMA channel: start configuration. */
1935:.\Generated_Source\PSoC5/USBUART.c ****                 USBUART_CyDmaChDisable(channelNum);
1936:.\Generated_Source\PSoC5/USBUART.c **** 
1937:.\Generated_Source\PSoC5/USBUART.c ****                 /* Set destination address. */
1938:.\Generated_Source\PSoC5/USBUART.c ****                 USBUART_CyDmaSetDstAddress(channelNum, USBUART_DMA_DESCR0, (void*) &USBUART_ARB_EP1
1939:.\Generated_Source\PSoC5/USBUART.c ****                 USBUART_CyDmaSetDstAddress(channelNum, USBUART_DMA_DESCR1, (void*) &USBUART_ARB_EP1
1940:.\Generated_Source\PSoC5/USBUART.c **** 
1941:.\Generated_Source\PSoC5/USBUART.c ****                 /* Configure DMA descriptor. */
1942:.\Generated_Source\PSoC5/USBUART.c ****                 USBUART_CyDmaSetConfiguration(channelNum, USBUART_DMA_DESCR0, USBUART_DMA_COMMON_CF
1943:.\Generated_Source\PSoC5/USBUART.c ****                                                         CYDMA_HALFWORD | CYDMA_ELEMENT_WORD | CYDMA
1944:.\Generated_Source\PSoC5/USBUART.c **** 
1945:.\Generated_Source\PSoC5/USBUART.c ****                 /* Configure DMA descriptor. */
1946:.\Generated_Source\PSoC5/USBUART.c ****                 USBUART_CyDmaSetConfiguration(channelNum, USBUART_DMA_DESCR1, USBUART_DMA_COMMON_CF
1947:.\Generated_Source\PSoC5/USBUART.c ****                                                         CYDMA_HALFWORD | CYDMA_ELEMENT_WORD | CYDMA
1948:.\Generated_Source\PSoC5/USBUART.c **** 
1949:.\Generated_Source\PSoC5/USBUART.c ****                 /* Enable interrupt from DMA channel. */
1950:.\Generated_Source\PSoC5/USBUART.c ****                 USBUART_CyDmaSetInterruptMask(channelNum);
1951:.\Generated_Source\PSoC5/USBUART.c **** 
1952:.\Generated_Source\PSoC5/USBUART.c ****                 /* Validate descriptor 1. It will not be invalided during operation. */
1953:.\Generated_Source\PSoC5/USBUART.c ****                 USBUART_CyDmaValidateDescriptor(channelNum, USBUART_DMA_DESCR1);
ARM GAS  C:\Users\LUKASC~1\AppData\Local\Temp\ccwNUHtE.s 			page 59


1954:.\Generated_Source\PSoC5/USBUART.c **** 
1955:.\Generated_Source\PSoC5/USBUART.c ****                 /* Enable DMA channel: configuration complete. */
1956:.\Generated_Source\PSoC5/USBUART.c ****                 USBUART_CyDmaChEnable(channelNum);
1957:.\Generated_Source\PSoC5/USBUART.c ****             }
1958:.\Generated_Source\PSoC5/USBUART.c ****             else
1959:.\Generated_Source\PSoC5/USBUART.c ****             {
1960:.\Generated_Source\PSoC5/USBUART.c ****                 /* IN endpoint buffer (32 bytes) will shortly be preloaded by DMA. */
1961:.\Generated_Source\PSoC5/USBUART.c ****                 USBUART_EP[epNumber].apiEpState = USBUART_NO_EVENT_PENDING;
1962:.\Generated_Source\PSoC5/USBUART.c **** 
1963:.\Generated_Source\PSoC5/USBUART.c ****                 if (length > 0u)
1964:.\Generated_Source\PSoC5/USBUART.c ****                 {
1965:.\Generated_Source\PSoC5/USBUART.c ****                     uint32 lengthDescr0, lengthDescr1;
1966:.\Generated_Source\PSoC5/USBUART.c ****                     uint32 channelNum = (uint32) USBUART_DmaChan[epNumber];
1967:.\Generated_Source\PSoC5/USBUART.c **** 
1968:.\Generated_Source\PSoC5/USBUART.c ****                     /* Get number of full bursts. */
1969:.\Generated_Source\PSoC5/USBUART.c ****                     USBUART_DmaEpBurstCnt[epNumber] = (uint8) (length / USBUART_DMA_BYTES_PER_BURST
1970:.\Generated_Source\PSoC5/USBUART.c **** 
1971:.\Generated_Source\PSoC5/USBUART.c ****                     /* Get number of elements in the last burst. */
1972:.\Generated_Source\PSoC5/USBUART.c ****                     USBUART_DmaEpLastBurstEl[epNumber] = (uint8) (length % USBUART_DMA_BYTES_PER_BU
1973:.\Generated_Source\PSoC5/USBUART.c **** 
1974:.\Generated_Source\PSoC5/USBUART.c ****                     /* Get total number of bursts. */
1975:.\Generated_Source\PSoC5/USBUART.c ****                     USBUART_DmaEpBurstCnt[epNumber] += (0u != USBUART_DmaEpLastBurstEl[epNumber]) ?
1976:.\Generated_Source\PSoC5/USBUART.c **** 
1977:.\Generated_Source\PSoC5/USBUART.c ****                     /* Adjust number of data elements transferred in last burst. */
1978:.\Generated_Source\PSoC5/USBUART.c ****                     USBUART_DmaEpLastBurstEl[epNumber] = (0u != USBUART_DmaEpLastBurstEl[epNumber])
1979:.\Generated_Source\PSoC5/USBUART.c ****                                                                           ((USBUART_DmaEpLastBurstE
1980:.\Generated_Source\PSoC5/USBUART.c ****                                                                            (USBUART_DMA_HALFWORDS_P
1981:.\Generated_Source\PSoC5/USBUART.c **** 
1982:.\Generated_Source\PSoC5/USBUART.c ****                     /* Get number of data elements to transfer for descriptor 0 and 1. */
1983:.\Generated_Source\PSoC5/USBUART.c ****                     lengthDescr0 = (1u == USBUART_DmaEpBurstCnt[epNumber]) ? USBUART_DmaEpLastBurst
1984:.\Generated_Source\PSoC5/USBUART.c ****                     lengthDescr1 = (2u == USBUART_DmaEpBurstCnt[epNumber]) ? USBUART_DmaEpLastBurst
1985:.\Generated_Source\PSoC5/USBUART.c **** 
1986:.\Generated_Source\PSoC5/USBUART.c ****                     /* Mark which descriptor is last one to execute. */
1987:.\Generated_Source\PSoC5/USBUART.c ****                     USBUART_DmaEpLastBurstEl[epNumber] |= (0u != (USBUART_DmaEpBurstCnt[epNumber] &
1988:.\Generated_Source\PSoC5/USBUART.c ****                                                                             USBUART_DMA_DESCR0_MASK
1989:.\Generated_Source\PSoC5/USBUART.c **** 
1990:.\Generated_Source\PSoC5/USBUART.c ****                     /* Adjust burst counter taking to account: 2 valid descriptors and interrupt tr
1991:.\Generated_Source\PSoC5/USBUART.c ****                     USBUART_DmaEpBurstCnt[epNumber] = USBUART_DMA_GET_BURST_CNT(USBUART_DmaEpBurstC
1992:.\Generated_Source\PSoC5/USBUART.c **** 
1993:.\Generated_Source\PSoC5/USBUART.c ****                     /* Restore DMA settings for current transfer. */
1994:.\Generated_Source\PSoC5/USBUART.c ****                     USBUART_CyDmaChDisable(channelNum);
1995:.\Generated_Source\PSoC5/USBUART.c **** 
1996:.\Generated_Source\PSoC5/USBUART.c ****                     /* Restore destination address for input endpoint. */
1997:.\Generated_Source\PSoC5/USBUART.c ****                     USBUART_CyDmaSetSrcAddress(channelNum, USBUART_DMA_DESCR0, (void*) ((uint32) US
1998:.\Generated_Source\PSoC5/USBUART.c ****                     USBUART_CyDmaSetSrcAddress(channelNum, USBUART_DMA_DESCR1, (void*) ((uint32) US
1999:.\Generated_Source\PSoC5/USBUART.c ****                                                                                                    
2000:.\Generated_Source\PSoC5/USBUART.c **** 
2001:.\Generated_Source\PSoC5/USBUART.c ****                     /* Set number of elements to transfer. */
2002:.\Generated_Source\PSoC5/USBUART.c ****                     USBUART_CyDmaSetNumDataElements(channelNum, USBUART_DMA_DESCR0, lengthDescr0);
2003:.\Generated_Source\PSoC5/USBUART.c ****                     USBUART_CyDmaSetNumDataElements(channelNum, USBUART_DMA_DESCR1, lengthDescr1);
2004:.\Generated_Source\PSoC5/USBUART.c **** 
2005:.\Generated_Source\PSoC5/USBUART.c ****                     /* Validate descriptor 0 and command to start with it. */
2006:.\Generated_Source\PSoC5/USBUART.c ****                     USBUART_CyDmaValidateDescriptor(channelNum, USBUART_DMA_DESCR0);
2007:.\Generated_Source\PSoC5/USBUART.c ****                     USBUART_CyDmaSetDescriptor0Next(channelNum);
2008:.\Generated_Source\PSoC5/USBUART.c **** 
2009:.\Generated_Source\PSoC5/USBUART.c ****                     /* Enable DMA channel: configuration complete. */
2010:.\Generated_Source\PSoC5/USBUART.c ****                     USBUART_CyDmaChEnable(channelNum);
ARM GAS  C:\Users\LUKASC~1\AppData\Local\Temp\ccwNUHtE.s 			page 60


2011:.\Generated_Source\PSoC5/USBUART.c **** 
2012:.\Generated_Source\PSoC5/USBUART.c ****                 #if !defined (USBUART_MANUAL_IN_EP_ARM)
2013:.\Generated_Source\PSoC5/USBUART.c ****                     /* Set IN data ready to generate DMA request to load data into endpoint buffer.
2014:.\Generated_Source\PSoC5/USBUART.c ****                     USBUART_ARB_EP_BASE.arbEp[epNumber].epCfg |= USBUART_ARB_EPX_CFG_IN_DATA_RDY;
2015:.\Generated_Source\PSoC5/USBUART.c ****                 #endif  /* (USBUART_MANUAL_IN_EP_ARM) */
2016:.\Generated_Source\PSoC5/USBUART.c **** 
2017:.\Generated_Source\PSoC5/USBUART.c ****                     /* IN endpoint will be armed in ARB_ISR(source: IN_BUF_FULL) after first DMA tr
2018:.\Generated_Source\PSoC5/USBUART.c ****                 }
2019:.\Generated_Source\PSoC5/USBUART.c ****                 else
2020:.\Generated_Source\PSoC5/USBUART.c ****                 {
2021:.\Generated_Source\PSoC5/USBUART.c ****                     /* When zero-length packet: arm IN endpoint directly. */
2022:.\Generated_Source\PSoC5/USBUART.c ****                     USBUART_SIE_EP_BASE.sieEp[epNumber].epCr0 = USBUART_EP[epNumber].epMode;
2023:.\Generated_Source\PSoC5/USBUART.c ****                 }
2024:.\Generated_Source\PSoC5/USBUART.c ****             }
2025:.\Generated_Source\PSoC5/USBUART.c ****         #endif /* (USBUART_EP_MANAGEMENT_DMA_AUTO) */
2026:.\Generated_Source\PSoC5/USBUART.c ****     #endif /* (USBUART_EP_MANAGEMENT_MANUAL) */
2027:.\Generated_Source\PSoC5/USBUART.c ****     }
2028:.\Generated_Source\PSoC5/USBUART.c **** }
2029:.\Generated_Source\PSoC5/USBUART.c **** 
2030:.\Generated_Source\PSoC5/USBUART.c **** 
2031:.\Generated_Source\PSoC5/USBUART.c **** /*******************************************************************************
2032:.\Generated_Source\PSoC5/USBUART.c **** * Function Name: USBUART_ReadOutEP16
2033:.\Generated_Source\PSoC5/USBUART.c **** ****************************************************************************//**
2034:.\Generated_Source\PSoC5/USBUART.c **** *
2035:.\Generated_Source\PSoC5/USBUART.c **** *   This function performs different functionality depending on the Component’s
2036:.\Generated_Source\PSoC5/USBUART.c **** *   configured Endpoint Buffer Management. This parameter is defined in the
2037:.\Generated_Source\PSoC5/USBUART.c **** *   Descriptor Root in Component Configure window.
2038:.\Generated_Source\PSoC5/USBUART.c **** *
2039:.\Generated_Source\PSoC5/USBUART.c **** *   *Manual (Static/Dynamic Allocation):*
2040:.\Generated_Source\PSoC5/USBUART.c **** *   This function moves the specified number of bytes from endpoint buffer to
2041:.\Generated_Source\PSoC5/USBUART.c **** *   system RAM. The number of bytes actually transferred from endpoint buffer to
2042:.\Generated_Source\PSoC5/USBUART.c **** *   system RAM is the lesser of the actual number of bytes sent by the host or
2043:.\Generated_Source\PSoC5/USBUART.c **** *   the number of bytes requested by the length parameter.
2044:.\Generated_Source\PSoC5/USBUART.c **** *
2045:.\Generated_Source\PSoC5/USBUART.c **** *   *DMA with Manual Buffer Management:*
2046:.\Generated_Source\PSoC5/USBUART.c **** *   Configure DMA to transfer data from endpoint buffer to system RAM. Generate
2047:.\Generated_Source\PSoC5/USBUART.c **** *   a DMA request. The firmware must wait until the DMA completes the data
2048:.\Generated_Source\PSoC5/USBUART.c **** *   transfer after calling the USBUART_ReadOutEP() API. For example,
2049:.\Generated_Source\PSoC5/USBUART.c **** *   by checking EPstate:
2050:.\Generated_Source\PSoC5/USBUART.c **** *
2051:.\Generated_Source\PSoC5/USBUART.c **** *   \snippet /USBFS_sut_02.cydsn/main.c checking EPstatey
2052:.\Generated_Source\PSoC5/USBUART.c **** *
2053:.\Generated_Source\PSoC5/USBUART.c **** *   The USBFS_EnableOutEP() has to be called to allow host to write data into
2054:.\Generated_Source\PSoC5/USBUART.c **** *   the endpoint buffer after DMA has completed transfer data from OUT endpoint
2055:.\Generated_Source\PSoC5/USBUART.c **** *   buffer to SRAM.
2056:.\Generated_Source\PSoC5/USBUART.c **** *
2057:.\Generated_Source\PSoC5/USBUART.c **** *   *DMA with Automatic Buffer Management:*
2058:.\Generated_Source\PSoC5/USBUART.c **** *   Configure DMA. This is required only once and automatically generates DMA
2059:.\Generated_Source\PSoC5/USBUART.c **** *   requests as data arrives
2060:.\Generated_Source\PSoC5/USBUART.c **** *
2061:.\Generated_Source\PSoC5/USBUART.c **** *  \param epNumber: Contains the data endpoint number.
2062:.\Generated_Source\PSoC5/USBUART.c **** *         Valid values are between 1 and 8.
2063:.\Generated_Source\PSoC5/USBUART.c **** *  \param pData: A pointer to a data array into which the data for the endpoint
2064:.\Generated_Source\PSoC5/USBUART.c **** *         space is copied. It shall be ensured that this pointer address is
2065:.\Generated_Source\PSoC5/USBUART.c **** *         even to ensure the 16-bit transfer is aligned to even address. Else,
2066:.\Generated_Source\PSoC5/USBUART.c **** *         a hard fault condition can occur.
2067:.\Generated_Source\PSoC5/USBUART.c **** *  \param length: The number of bytes to transfer from the USB Out endpoint and
ARM GAS  C:\Users\LUKASC~1\AppData\Local\Temp\ccwNUHtE.s 			page 61


2068:.\Generated_Source\PSoC5/USBUART.c **** *         loads it into data array. Valid values are between 0 and 1023. The
2069:.\Generated_Source\PSoC5/USBUART.c **** *         function moves fewer than the requested number of bytes if the host
2070:.\Generated_Source\PSoC5/USBUART.c **** *         sends fewer bytes than requested.
2071:.\Generated_Source\PSoC5/USBUART.c **** *
2072:.\Generated_Source\PSoC5/USBUART.c **** * \return
2073:.\Generated_Source\PSoC5/USBUART.c **** *  Number of bytes received, 0 for an invalid endpoint.
2074:.\Generated_Source\PSoC5/USBUART.c **** *
2075:.\Generated_Source\PSoC5/USBUART.c **** * \reentrant
2076:.\Generated_Source\PSoC5/USBUART.c **** *  No.
2077:.\Generated_Source\PSoC5/USBUART.c **** *
2078:.\Generated_Source\PSoC5/USBUART.c **** *******************************************************************************/
2079:.\Generated_Source\PSoC5/USBUART.c **** uint16 USBUART_ReadOutEP16(uint8 epNumber, uint8 pData[], uint16 length)
2080:.\Generated_Source\PSoC5/USBUART.c **** {
2081:.\Generated_Source\PSoC5/USBUART.c ****     uint32 adjLength;
2082:.\Generated_Source\PSoC5/USBUART.c **** 
2083:.\Generated_Source\PSoC5/USBUART.c ****     /* Check array alignment on half-word boundary */
2084:.\Generated_Source\PSoC5/USBUART.c ****     CYASSERT(0u == (((uint32) pData) & 0x01u));
2085:.\Generated_Source\PSoC5/USBUART.c **** 
2086:.\Generated_Source\PSoC5/USBUART.c ****     if ((pData != NULL) && (epNumber > USBUART_EP0) && (epNumber < USBUART_MAX_EP))
2087:.\Generated_Source\PSoC5/USBUART.c ****     {
2088:.\Generated_Source\PSoC5/USBUART.c ****     #if (!USBUART_EP_MANAGEMENT_DMA_AUTO)
2089:.\Generated_Source\PSoC5/USBUART.c ****         /* Adjust requested length to available data. */
2090:.\Generated_Source\PSoC5/USBUART.c ****         length = (length > USBUART_GetEPCount(epNumber)) ? USBUART_GetEPCount(epNumber) : length;
2091:.\Generated_Source\PSoC5/USBUART.c ****     #endif /* (!USBUART_EP_MANAGEMENT_DMA_AUTO) */
2092:.\Generated_Source\PSoC5/USBUART.c **** 
2093:.\Generated_Source\PSoC5/USBUART.c ****     /* Adjust requested length: 2 bytes are handled at one data register access. */
2094:.\Generated_Source\PSoC5/USBUART.c ****     adjLength =  length + ((uint32)length & 1u);
2095:.\Generated_Source\PSoC5/USBUART.c **** 
2096:.\Generated_Source\PSoC5/USBUART.c ****     #if (USBUART_EP_MANAGEMENT_MANUAL)
2097:.\Generated_Source\PSoC5/USBUART.c ****         {
2098:.\Generated_Source\PSoC5/USBUART.c ****             /* Convert uint8 array to uint16. */
2099:.\Generated_Source\PSoC5/USBUART.c ****             uint16 *dataBuf = (uint16 *) pData;
2100:.\Generated_Source\PSoC5/USBUART.c **** 
2101:.\Generated_Source\PSoC5/USBUART.c ****             /* Copy data using 16-bits arbiter data register. */
2102:.\Generated_Source\PSoC5/USBUART.c ****             uint16 i;
2103:.\Generated_Source\PSoC5/USBUART.c ****             for (i = 0u; i < (adjLength >> 1u); ++i)
2104:.\Generated_Source\PSoC5/USBUART.c ****             {
2105:.\Generated_Source\PSoC5/USBUART.c ****                 dataBuf[i] = (uint16) USBUART_ARB_EP16_BASE.arbEp[epNumber].rwDr16;
2106:.\Generated_Source\PSoC5/USBUART.c ****             }
2107:.\Generated_Source\PSoC5/USBUART.c ****         }
2108:.\Generated_Source\PSoC5/USBUART.c **** 
2109:.\Generated_Source\PSoC5/USBUART.c ****         /* Arm OUT endpoint after data has been read from endpoint buffer. */
2110:.\Generated_Source\PSoC5/USBUART.c ****         USBUART_EnableOutEP(epNumber);
2111:.\Generated_Source\PSoC5/USBUART.c ****     #else
2112:.\Generated_Source\PSoC5/USBUART.c **** 
2113:.\Generated_Source\PSoC5/USBUART.c ****         #if (USBUART_EP_MANAGEMENT_DMA_MANUAL)
2114:.\Generated_Source\PSoC5/USBUART.c ****         {
2115:.\Generated_Source\PSoC5/USBUART.c ****             uint32 channelNum = (uint32) USBUART_DmaChan[epNumber];
2116:.\Generated_Source\PSoC5/USBUART.c **** 
2117:.\Generated_Source\PSoC5/USBUART.c ****             /* Disable DMA channel: start configuration. */
2118:.\Generated_Source\PSoC5/USBUART.c ****             USBUART_CyDmaChDisable(channelNum);
2119:.\Generated_Source\PSoC5/USBUART.c **** 
2120:.\Generated_Source\PSoC5/USBUART.c ****             /* Configure source and destination. */
2121:.\Generated_Source\PSoC5/USBUART.c ****             USBUART_CyDmaSetSrcAddress(channelNum, USBUART_DMA_DESCR0, (void*) &USBUART_ARB_EP16_BA
2122:.\Generated_Source\PSoC5/USBUART.c ****             USBUART_CyDmaSetDstAddress(channelNum, USBUART_DMA_DESCR0, (void*) pData);
2123:.\Generated_Source\PSoC5/USBUART.c **** 
2124:.\Generated_Source\PSoC5/USBUART.c ****             /* Configure DMA descriptor. */
ARM GAS  C:\Users\LUKASC~1\AppData\Local\Temp\ccwNUHtE.s 			page 62


2125:.\Generated_Source\PSoC5/USBUART.c ****             USBUART_CyDmaSetConfiguration(channelNum, USBUART_DMA_DESCR0, USBUART_DMA_COMMON_CFG | 
2126:.\Generated_Source\PSoC5/USBUART.c ****                                                     CYDMA_HALFWORD | CYDMA_WORD_ELEMENT | CYDMA_INC
2127:.\Generated_Source\PSoC5/USBUART.c **** 
2128:.\Generated_Source\PSoC5/USBUART.c ****             /* Validate descriptor to execute on following DMA request. */
2129:.\Generated_Source\PSoC5/USBUART.c ****             USBUART_CyDmaValidateDescriptor(channelNum, USBUART_DMA_DESCR0);
2130:.\Generated_Source\PSoC5/USBUART.c **** 
2131:.\Generated_Source\PSoC5/USBUART.c ****             /* Enable DMA channel: configuration complete. */
2132:.\Generated_Source\PSoC5/USBUART.c ****             USBUART_CyDmaChEnable(channelNum);
2133:.\Generated_Source\PSoC5/USBUART.c **** 
2134:.\Generated_Source\PSoC5/USBUART.c ****             /* Generate DMA request. */
2135:.\Generated_Source\PSoC5/USBUART.c ****             USBUART_ARB_EP_BASE.arbEp[epNumber].epCfg |=  (uint32)  USBUART_ARB_EPX_CFG_DMA_REQ;
2136:.\Generated_Source\PSoC5/USBUART.c ****             USBUART_ARB_EP_BASE.arbEp[epNumber].epCfg &=  (uint32) ~USBUART_ARB_EPX_CFG_DMA_REQ;
2137:.\Generated_Source\PSoC5/USBUART.c **** 
2138:.\Generated_Source\PSoC5/USBUART.c ****             /* OUT endpoint has to be armed again by user when DMA transfers have been completed.
2139:.\Generated_Source\PSoC5/USBUART.c ****             * NO_EVENT_PENDING: notifies that data has been copied from endpoint buffer.
2140:.\Generated_Source\PSoC5/USBUART.c ****             */
2141:.\Generated_Source\PSoC5/USBUART.c ****         }
2142:.\Generated_Source\PSoC5/USBUART.c ****         #endif /* (USBUART_EP_MANAGEMENT_DMA_MANUAL) */
2143:.\Generated_Source\PSoC5/USBUART.c **** 
2144:.\Generated_Source\PSoC5/USBUART.c ****         #if (USBUART_EP_MANAGEMENT_DMA_AUTO)
2145:.\Generated_Source\PSoC5/USBUART.c ****         {
2146:.\Generated_Source\PSoC5/USBUART.c ****             uint32 lengthDescr0, lengthDescr1;
2147:.\Generated_Source\PSoC5/USBUART.c ****             uint32 channelNum = (uint32) USBUART_DmaChan[epNumber];
2148:.\Generated_Source\PSoC5/USBUART.c **** 
2149:.\Generated_Source\PSoC5/USBUART.c ****             /* Get number of full bursts. */
2150:.\Generated_Source\PSoC5/USBUART.c ****             USBUART_DmaEpBurstCnt[epNumber] = (uint8) (adjLength / USBUART_DMA_BYTES_PER_BURST);
2151:.\Generated_Source\PSoC5/USBUART.c **** 
2152:.\Generated_Source\PSoC5/USBUART.c ****             /* Get number of elements in last burst. */
2153:.\Generated_Source\PSoC5/USBUART.c ****             USBUART_DmaEpLastBurstEl[epNumber] = (uint8) (adjLength % USBUART_DMA_BYTES_PER_BURST);
2154:.\Generated_Source\PSoC5/USBUART.c **** 
2155:.\Generated_Source\PSoC5/USBUART.c ****             /* Get total number of bursts. */
2156:.\Generated_Source\PSoC5/USBUART.c ****             USBUART_DmaEpBurstCnt[epNumber] += (0u != USBUART_DmaEpLastBurstEl[epNumber]) ? 1u : 0u
2157:.\Generated_Source\PSoC5/USBUART.c **** 
2158:.\Generated_Source\PSoC5/USBUART.c ****             /* Adjust number of data elements transferred in last burst. */
2159:.\Generated_Source\PSoC5/USBUART.c ****             USBUART_DmaEpLastBurstEl[epNumber] = (0u != USBUART_DmaEpLastBurstEl[epNumber]) ?
2160:.\Generated_Source\PSoC5/USBUART.c ****                                                                   ((USBUART_DmaEpLastBurstEl[epNumb
2161:.\Generated_Source\PSoC5/USBUART.c ****                                                                    (USBUART_DMA_HALFWORDS_PER_BURST
2162:.\Generated_Source\PSoC5/USBUART.c **** 
2163:.\Generated_Source\PSoC5/USBUART.c ****             /* Get number of data elements to transfer for descriptor 0 and 1. */
2164:.\Generated_Source\PSoC5/USBUART.c ****             lengthDescr0 = (1u == USBUART_DmaEpBurstCnt[epNumber]) ? USBUART_DmaEpLastBurstEl[epNum
2165:.\Generated_Source\PSoC5/USBUART.c ****             lengthDescr1 = (2u == USBUART_DmaEpBurstCnt[epNumber]) ? USBUART_DmaEpLastBurstEl[epNum
2166:.\Generated_Source\PSoC5/USBUART.c **** 
2167:.\Generated_Source\PSoC5/USBUART.c ****             /* Mark last descriptor to be executed. */
2168:.\Generated_Source\PSoC5/USBUART.c ****             USBUART_DmaEpLastBurstEl[epNumber] |= (0u != (USBUART_DmaEpBurstCnt[epNumber] & 0x1u)) 
2169:.\Generated_Source\PSoC5/USBUART.c ****                                                                     USBUART_DMA_DESCR0_MASK : USBUA
2170:.\Generated_Source\PSoC5/USBUART.c **** 
2171:.\Generated_Source\PSoC5/USBUART.c ****             /* Mark if revert number of data elements in descriptor after transfer completion. */
2172:.\Generated_Source\PSoC5/USBUART.c ****             USBUART_DmaEpLastBurstEl[epNumber] |= (USBUART_DmaEpBurstCnt[epNumber] > 2u) ? USBUART_
2173:.\Generated_Source\PSoC5/USBUART.c **** 
2174:.\Generated_Source\PSoC5/USBUART.c ****             /* Mark that 16-bits access to data register is performed. */
2175:.\Generated_Source\PSoC5/USBUART.c ****             USBUART_DmaEpLastBurstEl[epNumber] |= USBUART_DMA_DESCR_16BITS;
2176:.\Generated_Source\PSoC5/USBUART.c **** 
2177:.\Generated_Source\PSoC5/USBUART.c ****             /* Adjust burst counter taking to account: 2 valid descriptors and interrupt trigger af
2178:.\Generated_Source\PSoC5/USBUART.c ****             USBUART_DmaEpBurstCnt[epNumber] = USBUART_DMA_GET_BURST_CNT(USBUART_DmaEpBurstCnt[epNum
2179:.\Generated_Source\PSoC5/USBUART.c **** 
2180:.\Generated_Source\PSoC5/USBUART.c ****             /* Store address of buffer and burst counter for endpoint. */
2181:.\Generated_Source\PSoC5/USBUART.c ****             USBUART_DmaEpBufferAddrBackup[epNumber] = (uint32) pData;
ARM GAS  C:\Users\LUKASC~1\AppData\Local\Temp\ccwNUHtE.s 			page 63


2182:.\Generated_Source\PSoC5/USBUART.c ****             USBUART_DmaEpBurstCntBackup[epNumber]   = USBUART_DmaEpBurstCnt[epNumber];
2183:.\Generated_Source\PSoC5/USBUART.c **** 
2184:.\Generated_Source\PSoC5/USBUART.c ****             /* Disable DMA channel: start configuration. */
2185:.\Generated_Source\PSoC5/USBUART.c ****             USBUART_CyDmaChDisable(channelNum);
2186:.\Generated_Source\PSoC5/USBUART.c **** 
2187:.\Generated_Source\PSoC5/USBUART.c ****             /* Set destination address. */
2188:.\Generated_Source\PSoC5/USBUART.c ****             USBUART_CyDmaSetSrcAddress(channelNum, USBUART_DMA_DESCR0, (void*) &USBUART_ARB_EP16_BA
2189:.\Generated_Source\PSoC5/USBUART.c ****             USBUART_CyDmaSetSrcAddress(channelNum, USBUART_DMA_DESCR1, (void*) &USBUART_ARB_EP16_BA
2190:.\Generated_Source\PSoC5/USBUART.c **** 
2191:.\Generated_Source\PSoC5/USBUART.c ****             USBUART_CyDmaSetDstAddress(channelNum, USBUART_DMA_DESCR0, (void*) ((uint32) pData));
2192:.\Generated_Source\PSoC5/USBUART.c ****             USBUART_CyDmaSetDstAddress(channelNum, USBUART_DMA_DESCR1, (void*) ((uint32) pData + US
2193:.\Generated_Source\PSoC5/USBUART.c **** 
2194:.\Generated_Source\PSoC5/USBUART.c ****             /* Configure DMA descriptor 0. */
2195:.\Generated_Source\PSoC5/USBUART.c ****             USBUART_CyDmaSetConfiguration(channelNum, USBUART_DMA_DESCR0, USBUART_DMA_COMMON_CFG  |
2196:.\Generated_Source\PSoC5/USBUART.c ****                                                     CYDMA_HALFWORD | CYDMA_WORD_ELEMENT | CYDMA_INC
2197:.\Generated_Source\PSoC5/USBUART.c **** 
2198:.\Generated_Source\PSoC5/USBUART.c ****             /* Configure DMA descriptor 1. */
2199:.\Generated_Source\PSoC5/USBUART.c ****             USBUART_CyDmaSetConfiguration(channelNum, USBUART_DMA_DESCR1, USBUART_DMA_COMMON_CFG  |
2200:.\Generated_Source\PSoC5/USBUART.c ****                                                     CYDMA_HALFWORD | CYDMA_WORD_ELEMENT | CYDMA_INC
2201:.\Generated_Source\PSoC5/USBUART.c **** 
2202:.\Generated_Source\PSoC5/USBUART.c ****             /* Enable interrupt from DMA channel. */
2203:.\Generated_Source\PSoC5/USBUART.c ****             USBUART_CyDmaSetInterruptMask(channelNum);
2204:.\Generated_Source\PSoC5/USBUART.c **** 
2205:.\Generated_Source\PSoC5/USBUART.c ****             /* Validate DMA descriptor 0 and 1. */
2206:.\Generated_Source\PSoC5/USBUART.c ****             USBUART_CyDmaValidateDescriptor(channelNum, USBUART_DMA_DESCR0);
2207:.\Generated_Source\PSoC5/USBUART.c ****             USBUART_CyDmaValidateDescriptor(channelNum, USBUART_DMA_DESCR1);
2208:.\Generated_Source\PSoC5/USBUART.c **** 
2209:.\Generated_Source\PSoC5/USBUART.c ****             /* Enable DMA channel: configuration complete. */
2210:.\Generated_Source\PSoC5/USBUART.c ****             USBUART_CyDmaChEnable(channelNum);
2211:.\Generated_Source\PSoC5/USBUART.c **** 
2212:.\Generated_Source\PSoC5/USBUART.c ****             /* OUT endpoint has to be armed again by user when DMA transfers have been completed.
2213:.\Generated_Source\PSoC5/USBUART.c ****             * NO_EVENT_PENDING: notifies that data has been copied from endpoint buffer.
2214:.\Generated_Source\PSoC5/USBUART.c ****             */
2215:.\Generated_Source\PSoC5/USBUART.c ****         }
2216:.\Generated_Source\PSoC5/USBUART.c ****         #endif /* (USBUART_EP_MANAGEMENT_DMA_AUTO) */
2217:.\Generated_Source\PSoC5/USBUART.c ****     #endif /* (USBUART_EP_MANAGEMENT_MANUAL) */
2218:.\Generated_Source\PSoC5/USBUART.c ****     }
2219:.\Generated_Source\PSoC5/USBUART.c ****     else
2220:.\Generated_Source\PSoC5/USBUART.c ****     {
2221:.\Generated_Source\PSoC5/USBUART.c ****         length = 0u;
2222:.\Generated_Source\PSoC5/USBUART.c ****     }
