ARM GAS  C:\Users\LUKASC~1\AppData\Local\Temp\ccGg2PUd.s 			page 1


   1              		.cpu cortex-m0
   2              		.fpu softvfp
   3              		.eabi_attribute 20, 1
   4              		.eabi_attribute 21, 1
   5              		.eabi_attribute 23, 3
   6              		.eabi_attribute 24, 1
   7              		.eabi_attribute 25, 1
   8              		.eabi_attribute 26, 1
   9              		.eabi_attribute 30, 6
  10              		.eabi_attribute 34, 0
  11              		.eabi_attribute 18, 4
  12              		.code	16
  13              		.file	"I2CM_I2C_INT.c"
  14              		.text
  15              	.Ltext0:
  16              		.cfi_sections	.debug_frame
  17              		.section	.text.I2CM_I2C_ISR,"ax",%progbits
  18              		.align	2
  19              		.global	I2CM_I2C_ISR
  20              		.code	16
  21              		.thumb_func
  22              		.type	I2CM_I2C_ISR, %function
  23              	I2CM_I2C_ISR:
  24              	.LFB0:
  25              		.file 1 ".\\Generated_Source\\PSoC4\\I2CM_I2C_INT.c"
   1:.\Generated_Source\PSoC4/I2CM_I2C_INT.c **** /*******************************************************************************
   2:.\Generated_Source\PSoC4/I2CM_I2C_INT.c **** * File Name: I2CM_I2C_INT.c
   3:.\Generated_Source\PSoC4/I2CM_I2C_INT.c **** * Version 3.10
   4:.\Generated_Source\PSoC4/I2CM_I2C_INT.c **** *
   5:.\Generated_Source\PSoC4/I2CM_I2C_INT.c **** * Description:
   6:.\Generated_Source\PSoC4/I2CM_I2C_INT.c **** *  This file provides the source code to the Interrupt Service Routine for
   7:.\Generated_Source\PSoC4/I2CM_I2C_INT.c **** *  the SCB Component in I2C mode.
   8:.\Generated_Source\PSoC4/I2CM_I2C_INT.c **** *
   9:.\Generated_Source\PSoC4/I2CM_I2C_INT.c **** * Note:
  10:.\Generated_Source\PSoC4/I2CM_I2C_INT.c **** *
  11:.\Generated_Source\PSoC4/I2CM_I2C_INT.c **** ********************************************************************************
  12:.\Generated_Source\PSoC4/I2CM_I2C_INT.c **** * Copyright 2013-2015, Cypress Semiconductor Corporation.  All rights reserved.
  13:.\Generated_Source\PSoC4/I2CM_I2C_INT.c **** * You may use this file only in accordance with the license, terms, conditions,
  14:.\Generated_Source\PSoC4/I2CM_I2C_INT.c **** * disclaimers, and limitations in the end user license agreement accompanying
  15:.\Generated_Source\PSoC4/I2CM_I2C_INT.c **** * the software package with which this file was provided.
  16:.\Generated_Source\PSoC4/I2CM_I2C_INT.c **** *******************************************************************************/
  17:.\Generated_Source\PSoC4/I2CM_I2C_INT.c **** 
  18:.\Generated_Source\PSoC4/I2CM_I2C_INT.c **** #include "I2CM_PVT.h"
  19:.\Generated_Source\PSoC4/I2CM_I2C_INT.c **** #include "I2CM_I2C_PVT.h"
  20:.\Generated_Source\PSoC4/I2CM_I2C_INT.c **** #include "cyapicallbacks.h"
  21:.\Generated_Source\PSoC4/I2CM_I2C_INT.c **** 
  22:.\Generated_Source\PSoC4/I2CM_I2C_INT.c **** 
  23:.\Generated_Source\PSoC4/I2CM_I2C_INT.c **** /*******************************************************************************
  24:.\Generated_Source\PSoC4/I2CM_I2C_INT.c **** * Function Name: I2CM_I2C_ISR
  25:.\Generated_Source\PSoC4/I2CM_I2C_INT.c **** ********************************************************************************
  26:.\Generated_Source\PSoC4/I2CM_I2C_INT.c **** *
  27:.\Generated_Source\PSoC4/I2CM_I2C_INT.c **** * Summary:
  28:.\Generated_Source\PSoC4/I2CM_I2C_INT.c **** *  Handles the Interrupt Service Routine for the SCB I2C mode.
  29:.\Generated_Source\PSoC4/I2CM_I2C_INT.c **** *
  30:.\Generated_Source\PSoC4/I2CM_I2C_INT.c **** * Parameters:
  31:.\Generated_Source\PSoC4/I2CM_I2C_INT.c **** *  None
  32:.\Generated_Source\PSoC4/I2CM_I2C_INT.c **** *
ARM GAS  C:\Users\LUKASC~1\AppData\Local\Temp\ccGg2PUd.s 			page 2


  33:.\Generated_Source\PSoC4/I2CM_I2C_INT.c **** * Return:
  34:.\Generated_Source\PSoC4/I2CM_I2C_INT.c **** *  None
  35:.\Generated_Source\PSoC4/I2CM_I2C_INT.c **** *
  36:.\Generated_Source\PSoC4/I2CM_I2C_INT.c **** *******************************************************************************/
  37:.\Generated_Source\PSoC4/I2CM_I2C_INT.c **** CY_ISR(I2CM_I2C_ISR)
  38:.\Generated_Source\PSoC4/I2CM_I2C_INT.c **** {
  26              		.loc 1 38 0
  27              		.cfi_startproc
  28 0000 80B5     		push	{r7, lr}
  29              		.cfi_def_cfa_offset 8
  30              		.cfi_offset 7, -8
  31              		.cfi_offset 14, -4
  32 0002 82B0     		sub	sp, sp, #8
  33              		.cfi_def_cfa_offset 16
  34 0004 00AF     		add	r7, sp, #0
  35              		.cfi_def_cfa_register 7
  39:.\Generated_Source\PSoC4/I2CM_I2C_INT.c ****     uint32 diffCount;
  40:.\Generated_Source\PSoC4/I2CM_I2C_INT.c ****     uint32 endTransfer;
  41:.\Generated_Source\PSoC4/I2CM_I2C_INT.c **** 
  42:.\Generated_Source\PSoC4/I2CM_I2C_INT.c **** #ifdef I2CM_I2C_ISR_ENTRY_CALLBACK
  43:.\Generated_Source\PSoC4/I2CM_I2C_INT.c ****     I2CM_I2C_ISR_EntryCallback();
  44:.\Generated_Source\PSoC4/I2CM_I2C_INT.c **** #endif /* I2CM_I2C_ISR_ENTRY_CALLBACK */
  45:.\Generated_Source\PSoC4/I2CM_I2C_INT.c ****     
  46:.\Generated_Source\PSoC4/I2CM_I2C_INT.c **** #if (I2CM_I2C_CUSTOM_ADDRESS_HANDLER_CONST)
  47:.\Generated_Source\PSoC4/I2CM_I2C_INT.c ****     uint32 response;
  48:.\Generated_Source\PSoC4/I2CM_I2C_INT.c **** 
  49:.\Generated_Source\PSoC4/I2CM_I2C_INT.c ****     response = I2CM_I2C_ACK_ADDR;
  50:.\Generated_Source\PSoC4/I2CM_I2C_INT.c **** #endif /* (I2CM_I2C_CUSTOM_ADDRESS_HANDLER_CONST) */
  51:.\Generated_Source\PSoC4/I2CM_I2C_INT.c **** 
  52:.\Generated_Source\PSoC4/I2CM_I2C_INT.c ****     endTransfer = 0u; /* Continue active transfer */
  36              		.loc 1 52 0
  37 0006 0023     		mov	r3, #0
  38 0008 3B60     		str	r3, [r7]
  53:.\Generated_Source\PSoC4/I2CM_I2C_INT.c **** 
  54:.\Generated_Source\PSoC4/I2CM_I2C_INT.c ****     /* Calls customer routine if registered */
  55:.\Generated_Source\PSoC4/I2CM_I2C_INT.c ****     if(NULL != I2CM_customIntrHandler)
  39              		.loc 1 55 0
  40 000a BE4B     		ldr	r3, .L43
  41 000c 1B68     		ldr	r3, [r3]
  42 000e 002B     		cmp	r3, #0
  43 0010 02D0     		beq	.L2
  56:.\Generated_Source\PSoC4/I2CM_I2C_INT.c ****     {
  57:.\Generated_Source\PSoC4/I2CM_I2C_INT.c ****         I2CM_customIntrHandler();
  44              		.loc 1 57 0
  45 0012 BC4B     		ldr	r3, .L43
  46 0014 1B68     		ldr	r3, [r3]
  47 0016 9847     		blx	r3
  48              	.L2:
  58:.\Generated_Source\PSoC4/I2CM_I2C_INT.c ****     }
  59:.\Generated_Source\PSoC4/I2CM_I2C_INT.c **** 
  60:.\Generated_Source\PSoC4/I2CM_I2C_INT.c ****     if(I2CM_CHECK_INTR_I2C_EC_MASKED(I2CM_INTR_I2C_EC_WAKE_UP))
  49              		.loc 1 60 0
  50 0018 BB4B     		ldr	r3, .L43+4
  51 001a 1B68     		ldr	r3, [r3]
  52 001c 0122     		mov	r2, #1
  53 001e 1340     		and	r3, r2
  54 0020 02D0     		beq	.L3
ARM GAS  C:\Users\LUKASC~1\AppData\Local\Temp\ccGg2PUd.s 			page 3


  61:.\Generated_Source\PSoC4/I2CM_I2C_INT.c ****     {
  62:.\Generated_Source\PSoC4/I2CM_I2C_INT.c ****         /* Mask-off after wakeup */
  63:.\Generated_Source\PSoC4/I2CM_I2C_INT.c ****         I2CM_SetI2CExtClkInterruptMode(I2CM_NO_INTR_SOURCES);
  55              		.loc 1 63 0
  56 0022 BA4B     		ldr	r3, .L43+8
  57 0024 0022     		mov	r2, #0
  58 0026 1A60     		str	r2, [r3]
  59              	.L3:
  64:.\Generated_Source\PSoC4/I2CM_I2C_INT.c ****     }
  65:.\Generated_Source\PSoC4/I2CM_I2C_INT.c **** 
  66:.\Generated_Source\PSoC4/I2CM_I2C_INT.c ****     /* Master and Slave error tracking:
  67:.\Generated_Source\PSoC4/I2CM_I2C_INT.c ****     * Add the master state check to track only the master errors when the master is active or
  68:.\Generated_Source\PSoC4/I2CM_I2C_INT.c ****     * track slave errors when the slave is active or idle.
  69:.\Generated_Source\PSoC4/I2CM_I2C_INT.c ****     * A special MMS case: in the address phase with misplaced Start: the master sets the LOST_ARB a
  70:.\Generated_Source\PSoC4/I2CM_I2C_INT.c ****     * slave BUS_ERR. The valid event is LOST_ARB comes from the master.
  71:.\Generated_Source\PSoC4/I2CM_I2C_INT.c ****     */
  72:.\Generated_Source\PSoC4/I2CM_I2C_INT.c ****     if(I2CM_CHECK_I2C_FSM_MASTER)
  60              		.loc 1 72 0
  61 0028 B94B     		ldr	r3, .L43+12
  62 002a 1B78     		ldrb	r3, [r3]
  63 002c DBB2     		uxtb	r3, r3
  64 002e 2022     		mov	r2, #32
  65 0030 1340     		and	r3, r2
  66 0032 DBB2     		uxtb	r3, r3
  67 0034 002B     		cmp	r3, #0
  68 0036 38D0     		beq	.L4
  73:.\Generated_Source\PSoC4/I2CM_I2C_INT.c ****     {
  74:.\Generated_Source\PSoC4/I2CM_I2C_INT.c ****         #if(I2CM_I2C_MASTER)
  75:.\Generated_Source\PSoC4/I2CM_I2C_INT.c ****         {
  76:.\Generated_Source\PSoC4/I2CM_I2C_INT.c ****             /* INTR_MASTER_I2C_BUS_ERROR:
  77:.\Generated_Source\PSoC4/I2CM_I2C_INT.c ****             * A misplaced Start or Stop condition occurred on the bus: complete the transaction.
  78:.\Generated_Source\PSoC4/I2CM_I2C_INT.c ****             * The interrupt is cleared in I2C_FSM_EXIT_IDLE.
  79:.\Generated_Source\PSoC4/I2CM_I2C_INT.c ****             */
  80:.\Generated_Source\PSoC4/I2CM_I2C_INT.c ****             if(I2CM_CHECK_INTR_MASTER_MASKED(I2CM_INTR_MASTER_I2C_BUS_ERROR))
  69              		.loc 1 80 0
  70 0038 B64B     		ldr	r3, .L43+16
  71 003a 1A68     		ldr	r2, [r3]
  72 003c 8023     		mov	r3, #128
  73 003e 5B00     		lsl	r3, r3, #1
  74 0040 1340     		and	r3, r2
  75 0042 0AD0     		beq	.L5
  81:.\Generated_Source\PSoC4/I2CM_I2C_INT.c ****             {
  82:.\Generated_Source\PSoC4/I2CM_I2C_INT.c ****                 I2CM_mstrStatus |= (uint16) (I2CM_I2C_MSTAT_ERR_XFER |
  76              		.loc 1 82 0
  77 0044 B44B     		ldr	r3, .L43+20
  78 0046 1B88     		ldrh	r3, [r3]
  79 0048 9BB2     		uxth	r3, r3
  80 004a C022     		mov	r2, #192
  81 004c 9200     		lsl	r2, r2, #2
  82 004e 1343     		orr	r3, r2
  83 0050 9AB2     		uxth	r2, r3
  84 0052 B14B     		ldr	r3, .L43+20
  85 0054 1A80     		strh	r2, [r3]
  83:.\Generated_Source\PSoC4/I2CM_I2C_INT.c ****                                                          I2CM_I2C_MSTAT_ERR_BUS_ERROR);
  84:.\Generated_Source\PSoC4/I2CM_I2C_INT.c **** 
  85:.\Generated_Source\PSoC4/I2CM_I2C_INT.c ****                 endTransfer = I2CM_I2C_CMPLT_ANY_TRANSFER;
  86              		.loc 1 85 0
ARM GAS  C:\Users\LUKASC~1\AppData\Local\Temp\ccGg2PUd.s 			page 4


  87 0056 0123     		mov	r3, #1
  88 0058 3B60     		str	r3, [r7]
  89              	.L5:
  86:.\Generated_Source\PSoC4/I2CM_I2C_INT.c ****             }
  87:.\Generated_Source\PSoC4/I2CM_I2C_INT.c **** 
  88:.\Generated_Source\PSoC4/I2CM_I2C_INT.c ****             /* INTR_MASTER_I2C_ARB_LOST:
  89:.\Generated_Source\PSoC4/I2CM_I2C_INT.c ****             * The MultiMaster lost arbitrage during transaction.
  90:.\Generated_Source\PSoC4/I2CM_I2C_INT.c ****             * A Misplaced Start or Stop condition is treated as lost arbitration when the master dr
  91:.\Generated_Source\PSoC4/I2CM_I2C_INT.c ****             * The interrupt source is cleared in I2C_FSM_EXIT_IDLE.
  92:.\Generated_Source\PSoC4/I2CM_I2C_INT.c ****             */
  93:.\Generated_Source\PSoC4/I2CM_I2C_INT.c ****             if(I2CM_CHECK_INTR_MASTER_MASKED(I2CM_INTR_MASTER_I2C_ARB_LOST))
  90              		.loc 1 93 0
  91 005a AE4B     		ldr	r3, .L43+16
  92 005c 1B68     		ldr	r3, [r3]
  93 005e 0122     		mov	r2, #1
  94 0060 1340     		and	r3, r2
  95 0062 0AD0     		beq	.L6
  94:.\Generated_Source\PSoC4/I2CM_I2C_INT.c ****             {
  95:.\Generated_Source\PSoC4/I2CM_I2C_INT.c ****                 I2CM_mstrStatus |= (uint16) (I2CM_I2C_MSTAT_ERR_XFER |
  96              		.loc 1 95 0
  97 0064 AC4B     		ldr	r3, .L43+20
  98 0066 1B88     		ldrh	r3, [r3]
  99 0068 9BB2     		uxth	r3, r3
 100 006a 9022     		mov	r2, #144
 101 006c 9200     		lsl	r2, r2, #2
 102 006e 1343     		orr	r3, r2
 103 0070 9AB2     		uxth	r2, r3
 104 0072 A94B     		ldr	r3, .L43+20
 105 0074 1A80     		strh	r2, [r3]
  96:.\Generated_Source\PSoC4/I2CM_I2C_INT.c ****                                                          I2CM_I2C_MSTAT_ERR_ARB_LOST);
  97:.\Generated_Source\PSoC4/I2CM_I2C_INT.c **** 
  98:.\Generated_Source\PSoC4/I2CM_I2C_INT.c ****                 endTransfer = I2CM_I2C_CMPLT_ANY_TRANSFER;
 106              		.loc 1 98 0
 107 0076 0123     		mov	r3, #1
 108 0078 3B60     		str	r3, [r7]
 109              	.L6:
  99:.\Generated_Source\PSoC4/I2CM_I2C_INT.c ****             }
 100:.\Generated_Source\PSoC4/I2CM_I2C_INT.c **** 
 101:.\Generated_Source\PSoC4/I2CM_I2C_INT.c ****             #if(I2CM_I2C_MULTI_MASTER_SLAVE)
 102:.\Generated_Source\PSoC4/I2CM_I2C_INT.c ****             {
 103:.\Generated_Source\PSoC4/I2CM_I2C_INT.c ****                 /* I2C_MASTER_CMD_M_START_ON_IDLE:
 104:.\Generated_Source\PSoC4/I2CM_I2C_INT.c ****                 * MultiMaster-Slave does not generate start, because Slave was addressed.
 105:.\Generated_Source\PSoC4/I2CM_I2C_INT.c ****                 * Pass control to slave.
 106:.\Generated_Source\PSoC4/I2CM_I2C_INT.c ****                 */
 107:.\Generated_Source\PSoC4/I2CM_I2C_INT.c ****                 if(I2CM_CHECK_I2C_MASTER_CMD(I2CM_I2C_MASTER_CMD_M_START_ON_IDLE))
 108:.\Generated_Source\PSoC4/I2CM_I2C_INT.c ****                 {
 109:.\Generated_Source\PSoC4/I2CM_I2C_INT.c ****                     I2CM_mstrStatus |= (uint16) (I2CM_I2C_MSTAT_ERR_XFER |
 110:.\Generated_Source\PSoC4/I2CM_I2C_INT.c ****                                                              I2CM_I2C_MSTAT_ERR_ABORT_XFER);
 111:.\Generated_Source\PSoC4/I2CM_I2C_INT.c **** 
 112:.\Generated_Source\PSoC4/I2CM_I2C_INT.c ****                     endTransfer = I2CM_I2C_CMPLT_ANY_TRANSFER;
 113:.\Generated_Source\PSoC4/I2CM_I2C_INT.c ****                 }
 114:.\Generated_Source\PSoC4/I2CM_I2C_INT.c ****             }
 115:.\Generated_Source\PSoC4/I2CM_I2C_INT.c ****             #endif
 116:.\Generated_Source\PSoC4/I2CM_I2C_INT.c **** 
 117:.\Generated_Source\PSoC4/I2CM_I2C_INT.c ****             /* The error handling common part:
 118:.\Generated_Source\PSoC4/I2CM_I2C_INT.c ****             * Sets a completion flag of the master transaction and passes control to:
 119:.\Generated_Source\PSoC4/I2CM_I2C_INT.c ****             *  - I2C_FSM_EXIT_IDLE - to complete transaction in case of: ARB_LOST or BUS_ERR.
ARM GAS  C:\Users\LUKASC~1\AppData\Local\Temp\ccGg2PUd.s 			page 5


 120:.\Generated_Source\PSoC4/I2CM_I2C_INT.c ****             *  - I2C_FSM_IDLE      - to take chance for the slave to process incoming transaction.
 121:.\Generated_Source\PSoC4/I2CM_I2C_INT.c ****             */
 122:.\Generated_Source\PSoC4/I2CM_I2C_INT.c ****             if(0u != endTransfer)
 110              		.loc 1 122 0
 111 007a 3B68     		ldr	r3, [r7]
 112 007c 002B     		cmp	r3, #0
 113 007e 14D0     		beq	.L4
 123:.\Generated_Source\PSoC4/I2CM_I2C_INT.c ****             {
 124:.\Generated_Source\PSoC4/I2CM_I2C_INT.c ****                 /* Set completion flags for master */
 125:.\Generated_Source\PSoC4/I2CM_I2C_INT.c ****                 I2CM_mstrStatus |= (uint16) I2CM_GET_I2C_MSTAT_CMPLT;
 114              		.loc 1 125 0
 115 0080 A34B     		ldr	r3, .L43+12
 116 0082 1B78     		ldrb	r3, [r3]
 117 0084 DBB2     		uxtb	r3, r3
 118 0086 0122     		mov	r2, #1
 119 0088 1340     		and	r3, r2
 120 008a DBB2     		uxtb	r3, r3
 121 008c 002B     		cmp	r3, #0
 122 008e 01D0     		beq	.L8
 123              		.loc 1 125 0 is_stmt 0 discriminator 1
 124 0090 0123     		mov	r3, #1
 125 0092 00E0     		b	.L9
 126              	.L8:
 127              		.loc 1 125 0 discriminator 2
 128 0094 0223     		mov	r3, #2
 129              	.L9:
 130              		.loc 1 125 0 discriminator 4
 131 0096 A04A     		ldr	r2, .L43+20
 132 0098 1288     		ldrh	r2, [r2]
 133 009a 92B2     		uxth	r2, r2
 134 009c 1343     		orr	r3, r2
 135 009e 9AB2     		uxth	r2, r3
 136 00a0 9D4B     		ldr	r3, .L43+20
 137 00a2 1A80     		strh	r2, [r3]
 126:.\Generated_Source\PSoC4/I2CM_I2C_INT.c **** 
 127:.\Generated_Source\PSoC4/I2CM_I2C_INT.c ****                 #if(I2CM_I2C_MULTI_MASTER_SLAVE)
 128:.\Generated_Source\PSoC4/I2CM_I2C_INT.c ****                 {
 129:.\Generated_Source\PSoC4/I2CM_I2C_INT.c ****                     if(I2CM_CHECK_I2C_FSM_ADDR)
 130:.\Generated_Source\PSoC4/I2CM_I2C_INT.c ****                     {
 131:.\Generated_Source\PSoC4/I2CM_I2C_INT.c ****                         /* Start generation is set after another master starts accessing Slave.
 132:.\Generated_Source\PSoC4/I2CM_I2C_INT.c ****                         * Clean-up master and turn to slave. Set state to IDLE.
 133:.\Generated_Source\PSoC4/I2CM_I2C_INT.c ****                         */
 134:.\Generated_Source\PSoC4/I2CM_I2C_INT.c ****                         if(I2CM_CHECK_I2C_MASTER_CMD(I2CM_I2C_MASTER_CMD_M_START_ON_IDLE))
 135:.\Generated_Source\PSoC4/I2CM_I2C_INT.c ****                         {
 136:.\Generated_Source\PSoC4/I2CM_I2C_INT.c ****                             I2CM_I2C_MASTER_CLEAR_START;
 137:.\Generated_Source\PSoC4/I2CM_I2C_INT.c **** 
 138:.\Generated_Source\PSoC4/I2CM_I2C_INT.c ****                             endTransfer = I2CM_I2C_CMPLT_ANY_TRANSFER; /* Pass control to Slave */
 139:.\Generated_Source\PSoC4/I2CM_I2C_INT.c ****                         }
 140:.\Generated_Source\PSoC4/I2CM_I2C_INT.c ****                         /* Valid arbitration lost on the address phase happens only when: master LO
 141:.\Generated_Source\PSoC4/I2CM_I2C_INT.c ****                         * slave BUS_ERR is cleared. Only in that case set the state to IDLE without
 142:.\Generated_Source\PSoC4/I2CM_I2C_INT.c ****                         */
 143:.\Generated_Source\PSoC4/I2CM_I2C_INT.c ****                         else if((!I2CM_CHECK_INTR_SLAVE_MASKED(I2CM_INTR_SLAVE_I2C_BUS_ERROR))
 144:.\Generated_Source\PSoC4/I2CM_I2C_INT.c ****                                && I2CM_CHECK_INTR_MASTER_MASKED(I2CM_INTR_MASTER_I2C_ARB_LOST))
 145:.\Generated_Source\PSoC4/I2CM_I2C_INT.c ****                         {
 146:.\Generated_Source\PSoC4/I2CM_I2C_INT.c ****                             endTransfer = I2CM_I2C_CMPLT_ANY_TRANSFER; /* Pass control to Slave */
 147:.\Generated_Source\PSoC4/I2CM_I2C_INT.c ****                         }
 148:.\Generated_Source\PSoC4/I2CM_I2C_INT.c ****                         else
ARM GAS  C:\Users\LUKASC~1\AppData\Local\Temp\ccGg2PUd.s 			page 6


 149:.\Generated_Source\PSoC4/I2CM_I2C_INT.c ****                         {
 150:.\Generated_Source\PSoC4/I2CM_I2C_INT.c ****                             endTransfer = 0u; /* Causes I2C_FSM_EXIT_IDLE to be set below */
 151:.\Generated_Source\PSoC4/I2CM_I2C_INT.c ****                         }
 152:.\Generated_Source\PSoC4/I2CM_I2C_INT.c **** 
 153:.\Generated_Source\PSoC4/I2CM_I2C_INT.c ****                         if(0u != endTransfer) /* Clean-up master to proceed with slave */
 154:.\Generated_Source\PSoC4/I2CM_I2C_INT.c ****                         {
 155:.\Generated_Source\PSoC4/I2CM_I2C_INT.c ****                             I2CM_CLEAR_TX_FIFO; /* Shifter keeps address, clear it */
 156:.\Generated_Source\PSoC4/I2CM_I2C_INT.c **** 
 157:.\Generated_Source\PSoC4/I2CM_I2C_INT.c ****                             I2CM_DISABLE_MASTER_AUTO_DATA_ACK; /* In case of reading disable autoAC
 158:.\Generated_Source\PSoC4/I2CM_I2C_INT.c **** 
 159:.\Generated_Source\PSoC4/I2CM_I2C_INT.c ****                             /* Clean-up master interrupt sources */
 160:.\Generated_Source\PSoC4/I2CM_I2C_INT.c ****                             I2CM_ClearMasterInterruptSource(I2CM_INTR_MASTER_ALL);
 161:.\Generated_Source\PSoC4/I2CM_I2C_INT.c **** 
 162:.\Generated_Source\PSoC4/I2CM_I2C_INT.c ****                             /* Disable data processing interrupts: they have to be cleared before *
 163:.\Generated_Source\PSoC4/I2CM_I2C_INT.c ****                             I2CM_SetRxInterruptMode(I2CM_NO_INTR_SOURCES);
 164:.\Generated_Source\PSoC4/I2CM_I2C_INT.c ****                             I2CM_SetTxInterruptMode(I2CM_NO_INTR_SOURCES);
 165:.\Generated_Source\PSoC4/I2CM_I2C_INT.c **** 
 166:.\Generated_Source\PSoC4/I2CM_I2C_INT.c ****                             I2CM_state = I2CM_I2C_FSM_IDLE;
 167:.\Generated_Source\PSoC4/I2CM_I2C_INT.c ****                         }
 168:.\Generated_Source\PSoC4/I2CM_I2C_INT.c ****                         else
 169:.\Generated_Source\PSoC4/I2CM_I2C_INT.c ****                         {
 170:.\Generated_Source\PSoC4/I2CM_I2C_INT.c ****                             /* Set I2C_FSM_EXIT_IDLE for BUS_ERR and ARB_LOST (that is really bus e
 171:.\Generated_Source\PSoC4/I2CM_I2C_INT.c ****                             I2CM_state = I2CM_I2C_FSM_EXIT_IDLE;
 172:.\Generated_Source\PSoC4/I2CM_I2C_INT.c ****                         }
 173:.\Generated_Source\PSoC4/I2CM_I2C_INT.c ****                     }
 174:.\Generated_Source\PSoC4/I2CM_I2C_INT.c ****                     else
 175:.\Generated_Source\PSoC4/I2CM_I2C_INT.c ****                     {
 176:.\Generated_Source\PSoC4/I2CM_I2C_INT.c ****                         /* Set I2C_FSM_EXIT_IDLE if any other state than address */
 177:.\Generated_Source\PSoC4/I2CM_I2C_INT.c ****                         I2CM_state = I2CM_I2C_FSM_EXIT_IDLE;
 178:.\Generated_Source\PSoC4/I2CM_I2C_INT.c ****                     }
 179:.\Generated_Source\PSoC4/I2CM_I2C_INT.c ****                 }
 180:.\Generated_Source\PSoC4/I2CM_I2C_INT.c ****                 #else
 181:.\Generated_Source\PSoC4/I2CM_I2C_INT.c ****                 {
 182:.\Generated_Source\PSoC4/I2CM_I2C_INT.c ****                     /* In case of LOST*/
 183:.\Generated_Source\PSoC4/I2CM_I2C_INT.c ****                     I2CM_state = I2CM_I2C_FSM_EXIT_IDLE;
 138              		.loc 1 183 0 is_stmt 1 discriminator 4
 139 00a4 9A4B     		ldr	r3, .L43+12
 140 00a6 0022     		mov	r2, #0
 141 00a8 1A70     		strb	r2, [r3]
 142              	.L4:
 184:.\Generated_Source\PSoC4/I2CM_I2C_INT.c ****                 }
 185:.\Generated_Source\PSoC4/I2CM_I2C_INT.c ****                 #endif
 186:.\Generated_Source\PSoC4/I2CM_I2C_INT.c ****             }
 187:.\Generated_Source\PSoC4/I2CM_I2C_INT.c ****         }
 188:.\Generated_Source\PSoC4/I2CM_I2C_INT.c ****         #endif
 189:.\Generated_Source\PSoC4/I2CM_I2C_INT.c ****     }
 190:.\Generated_Source\PSoC4/I2CM_I2C_INT.c ****     else /* (I2CM_CHECK_I2C_FSM_SLAVE) */
 191:.\Generated_Source\PSoC4/I2CM_I2C_INT.c ****     {
 192:.\Generated_Source\PSoC4/I2CM_I2C_INT.c ****         #if(I2CM_I2C_SLAVE)
 193:.\Generated_Source\PSoC4/I2CM_I2C_INT.c ****         {
 194:.\Generated_Source\PSoC4/I2CM_I2C_INT.c ****             /* INTR_SLAVE_I2C_BUS_ERROR or I2CM_INTR_SLAVE_I2C_ARB_LOST:
 195:.\Generated_Source\PSoC4/I2CM_I2C_INT.c ****             * A Misplaced Start or Stop condition occurred on the bus: set a flag
 196:.\Generated_Source\PSoC4/I2CM_I2C_INT.c ****             * to notify an error condition.
 197:.\Generated_Source\PSoC4/I2CM_I2C_INT.c ****             */
 198:.\Generated_Source\PSoC4/I2CM_I2C_INT.c ****             if(I2CM_CHECK_INTR_SLAVE_MASKED(I2CM_INTR_SLAVE_I2C_BUS_ERROR |
 199:.\Generated_Source\PSoC4/I2CM_I2C_INT.c ****                                                         I2CM_INTR_SLAVE_I2C_ARB_LOST))
 200:.\Generated_Source\PSoC4/I2CM_I2C_INT.c ****             {
ARM GAS  C:\Users\LUKASC~1\AppData\Local\Temp\ccGg2PUd.s 			page 7


 201:.\Generated_Source\PSoC4/I2CM_I2C_INT.c ****                 if(I2CM_CHECK_I2C_FSM_RD)
 202:.\Generated_Source\PSoC4/I2CM_I2C_INT.c ****                 {
 203:.\Generated_Source\PSoC4/I2CM_I2C_INT.c ****                     /* TX direction: master reads from slave */
 204:.\Generated_Source\PSoC4/I2CM_I2C_INT.c ****                     I2CM_slStatus &= (uint8) ~I2CM_I2C_SSTAT_RD_BUSY;
 205:.\Generated_Source\PSoC4/I2CM_I2C_INT.c ****                     I2CM_slStatus |= (uint8) (I2CM_I2C_SSTAT_RD_ERR |
 206:.\Generated_Source\PSoC4/I2CM_I2C_INT.c ****                                                           I2CM_I2C_SSTAT_RD_CMPLT);
 207:.\Generated_Source\PSoC4/I2CM_I2C_INT.c ****                 }
 208:.\Generated_Source\PSoC4/I2CM_I2C_INT.c ****                 else
 209:.\Generated_Source\PSoC4/I2CM_I2C_INT.c ****                 {
 210:.\Generated_Source\PSoC4/I2CM_I2C_INT.c ****                     /* RX direction: master writes into slave */
 211:.\Generated_Source\PSoC4/I2CM_I2C_INT.c ****                     I2CM_slStatus &= (uint8) ~I2CM_I2C_SSTAT_WR_BUSY;
 212:.\Generated_Source\PSoC4/I2CM_I2C_INT.c ****                     I2CM_slStatus |= (uint8) (I2CM_I2C_SSTAT_WR_ERR |
 213:.\Generated_Source\PSoC4/I2CM_I2C_INT.c ****                                                           I2CM_I2C_SSTAT_WR_CMPLT);
 214:.\Generated_Source\PSoC4/I2CM_I2C_INT.c ****                 }
 215:.\Generated_Source\PSoC4/I2CM_I2C_INT.c **** 
 216:.\Generated_Source\PSoC4/I2CM_I2C_INT.c ****                 I2CM_state = I2CM_I2C_FSM_EXIT_IDLE;
 217:.\Generated_Source\PSoC4/I2CM_I2C_INT.c ****             }
 218:.\Generated_Source\PSoC4/I2CM_I2C_INT.c ****         }
 219:.\Generated_Source\PSoC4/I2CM_I2C_INT.c ****         #endif
 220:.\Generated_Source\PSoC4/I2CM_I2C_INT.c ****     }
 221:.\Generated_Source\PSoC4/I2CM_I2C_INT.c **** 
 222:.\Generated_Source\PSoC4/I2CM_I2C_INT.c ****     /* States description:
 223:.\Generated_Source\PSoC4/I2CM_I2C_INT.c ****     * Any Master operation starts from: the ADDR_RD/WR state as the master generates traffic on the
 224:.\Generated_Source\PSoC4/I2CM_I2C_INT.c ****     * Any Slave operation starts from: the IDLE state as the slave always waits for actions from th
 225:.\Generated_Source\PSoC4/I2CM_I2C_INT.c ****     */
 226:.\Generated_Source\PSoC4/I2CM_I2C_INT.c **** 
 227:.\Generated_Source\PSoC4/I2CM_I2C_INT.c ****     /* FSM Master */
 228:.\Generated_Source\PSoC4/I2CM_I2C_INT.c ****     if(I2CM_CHECK_I2C_FSM_MASTER)
 143              		.loc 1 228 0
 144 00aa 994B     		ldr	r3, .L43+12
 145 00ac 1B78     		ldrb	r3, [r3]
 146 00ae DBB2     		uxtb	r3, r3
 147 00b0 2022     		mov	r2, #32
 148 00b2 1340     		and	r3, r2
 149 00b4 DBB2     		uxtb	r3, r3
 150 00b6 002B     		cmp	r3, #0
 151 00b8 00D1     		bne	.LCB119
 152 00ba A2E1     		b	.L10	@long jump
 153              	.LCB119:
 229:.\Generated_Source\PSoC4/I2CM_I2C_INT.c ****     {
 230:.\Generated_Source\PSoC4/I2CM_I2C_INT.c ****         #if(I2CM_I2C_MASTER)
 231:.\Generated_Source\PSoC4/I2CM_I2C_INT.c ****         {
 232:.\Generated_Source\PSoC4/I2CM_I2C_INT.c ****             /* INTR_MASTER_I2C_STOP:
 233:.\Generated_Source\PSoC4/I2CM_I2C_INT.c ****             * A Stop condition was generated by the master: the end of the transaction.
 234:.\Generated_Source\PSoC4/I2CM_I2C_INT.c ****             * Set completion flags to notify the API.
 235:.\Generated_Source\PSoC4/I2CM_I2C_INT.c ****             */
 236:.\Generated_Source\PSoC4/I2CM_I2C_INT.c ****             if(I2CM_CHECK_INTR_MASTER_MASKED(I2CM_INTR_MASTER_I2C_STOP))
 154              		.loc 1 236 0
 155 00bc 954B     		ldr	r3, .L43+16
 156 00be 1B68     		ldr	r3, [r3]
 157 00c0 1022     		mov	r2, #16
 158 00c2 1340     		and	r3, r2
 159 00c4 18D0     		beq	.L11
 237:.\Generated_Source\PSoC4/I2CM_I2C_INT.c ****             {
 238:.\Generated_Source\PSoC4/I2CM_I2C_INT.c ****                 I2CM_ClearMasterInterruptSource(I2CM_INTR_MASTER_I2C_STOP);
 160              		.loc 1 238 0
 161 00c6 954B     		ldr	r3, .L43+24
ARM GAS  C:\Users\LUKASC~1\AppData\Local\Temp\ccGg2PUd.s 			page 8


 162 00c8 1022     		mov	r2, #16
 163 00ca 1A60     		str	r2, [r3]
 239:.\Generated_Source\PSoC4/I2CM_I2C_INT.c **** 
 240:.\Generated_Source\PSoC4/I2CM_I2C_INT.c ****                 I2CM_mstrStatus |= (uint16) I2CM_GET_I2C_MSTAT_CMPLT;
 164              		.loc 1 240 0
 165 00cc 904B     		ldr	r3, .L43+12
 166 00ce 1B78     		ldrb	r3, [r3]
 167 00d0 DBB2     		uxtb	r3, r3
 168 00d2 0122     		mov	r2, #1
 169 00d4 1340     		and	r3, r2
 170 00d6 DBB2     		uxtb	r3, r3
 171 00d8 002B     		cmp	r3, #0
 172 00da 01D0     		beq	.L12
 173              		.loc 1 240 0 is_stmt 0 discriminator 1
 174 00dc 0123     		mov	r3, #1
 175 00de 00E0     		b	.L13
 176              	.L12:
 177              		.loc 1 240 0 discriminator 2
 178 00e0 0223     		mov	r3, #2
 179              	.L13:
 180              		.loc 1 240 0 discriminator 4
 181 00e2 8D4A     		ldr	r2, .L43+20
 182 00e4 1288     		ldrh	r2, [r2]
 183 00e6 92B2     		uxth	r2, r2
 184 00e8 1343     		orr	r3, r2
 185 00ea 9AB2     		uxth	r2, r3
 186 00ec 8A4B     		ldr	r3, .L43+20
 187 00ee 1A80     		strh	r2, [r3]
 241:.\Generated_Source\PSoC4/I2CM_I2C_INT.c ****                 I2CM_state       = I2CM_I2C_FSM_IDLE;
 188              		.loc 1 241 0 is_stmt 1 discriminator 4
 189 00f0 874B     		ldr	r3, .L43+12
 190 00f2 1022     		mov	r2, #16
 191 00f4 1A70     		strb	r2, [r3]
 192 00f6 BAE1     		b	.L1
 193              	.L11:
 242:.\Generated_Source\PSoC4/I2CM_I2C_INT.c ****             }
 243:.\Generated_Source\PSoC4/I2CM_I2C_INT.c ****             else
 244:.\Generated_Source\PSoC4/I2CM_I2C_INT.c ****             {
 245:.\Generated_Source\PSoC4/I2CM_I2C_INT.c ****                 if(I2CM_CHECK_I2C_FSM_ADDR) /* Address stage */
 194              		.loc 1 245 0
 195 00f8 854B     		ldr	r3, .L43+12
 196 00fa 1B78     		ldrb	r3, [r3]
 197 00fc DBB2     		uxtb	r3, r3
 198 00fe 0822     		mov	r2, #8
 199 0100 1340     		and	r3, r2
 200 0102 DBB2     		uxtb	r3, r3
 201 0104 002B     		cmp	r3, #0
 202 0106 29D0     		beq	.L15
 246:.\Generated_Source\PSoC4/I2CM_I2C_INT.c ****                 {
 247:.\Generated_Source\PSoC4/I2CM_I2C_INT.c ****                     /* INTR_MASTER_I2C_NACK:
 248:.\Generated_Source\PSoC4/I2CM_I2C_INT.c ****                     * The master sent an address but it was NACKed by the slave. Complete transacti
 249:.\Generated_Source\PSoC4/I2CM_I2C_INT.c ****                     */
 250:.\Generated_Source\PSoC4/I2CM_I2C_INT.c ****                     if(I2CM_CHECK_INTR_MASTER_MASKED(I2CM_INTR_MASTER_I2C_NACK))
 203              		.loc 1 250 0
 204 0108 824B     		ldr	r3, .L43+16
 205 010a 1B68     		ldr	r3, [r3]
 206 010c 0222     		mov	r2, #2
ARM GAS  C:\Users\LUKASC~1\AppData\Local\Temp\ccGg2PUd.s 			page 9


 207 010e 1340     		and	r3, r2
 208 0110 0ED0     		beq	.L16
 251:.\Generated_Source\PSoC4/I2CM_I2C_INT.c ****                     {
 252:.\Generated_Source\PSoC4/I2CM_I2C_INT.c ****                         I2CM_ClearMasterInterruptSource(I2CM_INTR_MASTER_I2C_NACK);
 209              		.loc 1 252 0
 210 0112 824B     		ldr	r3, .L43+24
 211 0114 0222     		mov	r2, #2
 212 0116 1A60     		str	r2, [r3]
 253:.\Generated_Source\PSoC4/I2CM_I2C_INT.c **** 
 254:.\Generated_Source\PSoC4/I2CM_I2C_INT.c ****                         I2CM_mstrStatus |= (uint16) (I2CM_I2C_MSTAT_ERR_XFER |
 213              		.loc 1 254 0
 214 0118 7F4B     		ldr	r3, .L43+20
 215 011a 1B88     		ldrh	r3, [r3]
 216 011c 9BB2     		uxth	r3, r3
 217 011e 8822     		mov	r2, #136
 218 0120 9200     		lsl	r2, r2, #2
 219 0122 1343     		orr	r3, r2
 220 0124 9AB2     		uxth	r2, r3
 221 0126 7C4B     		ldr	r3, .L43+20
 222 0128 1A80     		strh	r2, [r3]
 255:.\Generated_Source\PSoC4/I2CM_I2C_INT.c ****                                                                  I2CM_I2C_MSTAT_ERR_ADDR_NAK);
 256:.\Generated_Source\PSoC4/I2CM_I2C_INT.c **** 
 257:.\Generated_Source\PSoC4/I2CM_I2C_INT.c ****                         endTransfer = I2CM_I2C_CMPLT_ANY_TRANSFER;
 223              		.loc 1 257 0
 224 012a 0123     		mov	r3, #1
 225 012c 3B60     		str	r3, [r7]
 226 012e 15E0     		b	.L15
 227              	.L16:
 258:.\Generated_Source\PSoC4/I2CM_I2C_INT.c ****                     }
 259:.\Generated_Source\PSoC4/I2CM_I2C_INT.c ****                     /* INTR_TX_UNDERFLOW. The master sent an address:
 260:.\Generated_Source\PSoC4/I2CM_I2C_INT.c ****                     *  - TX direction: the clock is stretched after the ACK phase, because the TX F
 261:.\Generated_Source\PSoC4/I2CM_I2C_INT.c ****                     *    EMPTY. The TX EMPTY cleans all the TX interrupt sources.
 262:.\Generated_Source\PSoC4/I2CM_I2C_INT.c ****                     *  - RX direction: the 1st byte is received, but there is no ACK permission,
 263:.\Generated_Source\PSoC4/I2CM_I2C_INT.c ****                     *    the clock is stretched after 1 byte is received.
 264:.\Generated_Source\PSoC4/I2CM_I2C_INT.c ****                     */
 265:.\Generated_Source\PSoC4/I2CM_I2C_INT.c ****                     else
 266:.\Generated_Source\PSoC4/I2CM_I2C_INT.c ****                     {
 267:.\Generated_Source\PSoC4/I2CM_I2C_INT.c ****                         if(I2CM_CHECK_I2C_FSM_RD) /* Reading */
 228              		.loc 1 267 0
 229 0130 774B     		ldr	r3, .L43+12
 230 0132 1B78     		ldrb	r3, [r3]
 231 0134 DBB2     		uxtb	r3, r3
 232 0136 0122     		mov	r2, #1
 233 0138 1340     		and	r3, r2
 234 013a DBB2     		uxtb	r3, r3
 235 013c 002B     		cmp	r3, #0
 236 013e 03D0     		beq	.L17
 268:.\Generated_Source\PSoC4/I2CM_I2C_INT.c ****                         {
 269:.\Generated_Source\PSoC4/I2CM_I2C_INT.c ****                             I2CM_state = I2CM_I2C_FSM_MSTR_RD_DATA;
 237              		.loc 1 269 0
 238 0140 734B     		ldr	r3, .L43+12
 239 0142 2522     		mov	r2, #37
 240 0144 1A70     		strb	r2, [r3]
 241 0146 09E0     		b	.L15
 242              	.L17:
 270:.\Generated_Source\PSoC4/I2CM_I2C_INT.c ****                         }
 271:.\Generated_Source\PSoC4/I2CM_I2C_INT.c ****                         else /* Writing */
ARM GAS  C:\Users\LUKASC~1\AppData\Local\Temp\ccGg2PUd.s 			page 10


 272:.\Generated_Source\PSoC4/I2CM_I2C_INT.c ****                         {
 273:.\Generated_Source\PSoC4/I2CM_I2C_INT.c ****                             I2CM_state = I2CM_I2C_FSM_MSTR_WR_DATA;
 243              		.loc 1 273 0
 244 0148 714B     		ldr	r3, .L43+12
 245 014a 2422     		mov	r2, #36
 246 014c 1A70     		strb	r2, [r3]
 274:.\Generated_Source\PSoC4/I2CM_I2C_INT.c ****                             if(0u != I2CM_mstrWrBufSize)
 247              		.loc 1 274 0
 248 014e 744B     		ldr	r3, .L43+28
 249 0150 1B68     		ldr	r3, [r3]
 250 0152 002B     		cmp	r3, #0
 251 0154 02D0     		beq	.L15
 275:.\Generated_Source\PSoC4/I2CM_I2C_INT.c ****                             {
 276:.\Generated_Source\PSoC4/I2CM_I2C_INT.c ****                                 /* Enable INTR.TX_EMPTY if there is data to transmit */
 277:.\Generated_Source\PSoC4/I2CM_I2C_INT.c ****                                 I2CM_SetTxInterruptMode(I2CM_INTR_TX_EMPTY);
 252              		.loc 1 277 0
 253 0156 734B     		ldr	r3, .L43+32
 254 0158 1022     		mov	r2, #16
 255 015a 1A60     		str	r2, [r3]
 256              	.L15:
 278:.\Generated_Source\PSoC4/I2CM_I2C_INT.c ****                             }
 279:.\Generated_Source\PSoC4/I2CM_I2C_INT.c ****                         }
 280:.\Generated_Source\PSoC4/I2CM_I2C_INT.c ****                     }
 281:.\Generated_Source\PSoC4/I2CM_I2C_INT.c ****                 }
 282:.\Generated_Source\PSoC4/I2CM_I2C_INT.c **** 
 283:.\Generated_Source\PSoC4/I2CM_I2C_INT.c ****                 if(I2CM_CHECK_I2C_FSM_DATA) /* Data phase */
 257              		.loc 1 283 0
 258 015c 6C4B     		ldr	r3, .L43+12
 259 015e 1B78     		ldrb	r3, [r3]
 260 0160 DBB2     		uxtb	r3, r3
 261 0162 0422     		mov	r2, #4
 262 0164 1340     		and	r3, r2
 263 0166 DBB2     		uxtb	r3, r3
 264 0168 002B     		cmp	r3, #0
 265 016a 00D1     		bne	.LCB225
 266 016c 11E1     		b	.L18	@long jump
 267              	.LCB225:
 284:.\Generated_Source\PSoC4/I2CM_I2C_INT.c ****                 {
 285:.\Generated_Source\PSoC4/I2CM_I2C_INT.c ****                     if(I2CM_CHECK_I2C_FSM_RD) /* Reading */
 268              		.loc 1 285 0
 269 016e 684B     		ldr	r3, .L43+12
 270 0170 1B78     		ldrb	r3, [r3]
 271 0172 DBB2     		uxtb	r3, r3
 272 0174 0122     		mov	r2, #1
 273 0176 1340     		and	r3, r2
 274 0178 DBB2     		uxtb	r3, r3
 275 017a 002B     		cmp	r3, #0
 276 017c 5BD0     		beq	.L19
 286:.\Generated_Source\PSoC4/I2CM_I2C_INT.c ****                     {
 287:.\Generated_Source\PSoC4/I2CM_I2C_INT.c ****                         /* INTR_RX_FULL:
 288:.\Generated_Source\PSoC4/I2CM_I2C_INT.c ****                         * RX direction: the master received 8 bytes.
 289:.\Generated_Source\PSoC4/I2CM_I2C_INT.c ****                         * Get data from RX FIFO and decide whether to ACK or  NACK the following by
 290:.\Generated_Source\PSoC4/I2CM_I2C_INT.c ****                         */
 291:.\Generated_Source\PSoC4/I2CM_I2C_INT.c ****                         if(I2CM_CHECK_INTR_RX_MASKED(I2CM_INTR_RX_FULL))
 277              		.loc 1 291 0
 278 017e 6A4B     		ldr	r3, .L43+36
 279 0180 1B68     		ldr	r3, [r3]
ARM GAS  C:\Users\LUKASC~1\AppData\Local\Temp\ccGg2PUd.s 			page 11


 280 0182 0822     		mov	r2, #8
 281 0184 1340     		and	r3, r2
 282 0186 33D0     		beq	.L20
 292:.\Generated_Source\PSoC4/I2CM_I2C_INT.c ****                         {
 293:.\Generated_Source\PSoC4/I2CM_I2C_INT.c ****                             /* Calculate difference */
 294:.\Generated_Source\PSoC4/I2CM_I2C_INT.c ****                             diffCount =  I2CM_mstrRdBufSize -
 283              		.loc 1 294 0
 284 0188 684B     		ldr	r3, .L43+40
 285 018a 1A68     		ldr	r2, [r3]
 295:.\Generated_Source\PSoC4/I2CM_I2C_INT.c ****                                         (I2CM_mstrRdBufIndex + I2CM_GET_RX_FIFO_ENTRIES);
 286              		.loc 1 295 0
 287 018c 684B     		ldr	r3, .L43+44
 288 018e 1B68     		ldr	r3, [r3]
 289 0190 0F21     		mov	r1, #15
 290 0192 1940     		and	r1, r3
 291 0194 674B     		ldr	r3, .L43+48
 292 0196 1B68     		ldr	r3, [r3]
 293 0198 CB18     		add	r3, r1, r3
 294:.\Generated_Source\PSoC4/I2CM_I2C_INT.c ****                                         (I2CM_mstrRdBufIndex + I2CM_GET_RX_FIFO_ENTRIES);
 294              		.loc 1 294 0
 295 019a D31A     		sub	r3, r2, r3
 296 019c 7B60     		str	r3, [r7, #4]
 296:.\Generated_Source\PSoC4/I2CM_I2C_INT.c **** 
 297:.\Generated_Source\PSoC4/I2CM_I2C_INT.c ****                             /* Proceed transaction or end it when RX FIFO becomes FULL again */
 298:.\Generated_Source\PSoC4/I2CM_I2C_INT.c ****                             if(diffCount > I2CM_I2C_FIFO_SIZE)
 297              		.loc 1 298 0
 298 019e 7B68     		ldr	r3, [r7, #4]
 299 01a0 082B     		cmp	r3, #8
 300 01a2 02D9     		bls	.L21
 299:.\Generated_Source\PSoC4/I2CM_I2C_INT.c ****                             {
 300:.\Generated_Source\PSoC4/I2CM_I2C_INT.c ****                                 diffCount = I2CM_I2C_FIFO_SIZE;
 301              		.loc 1 300 0
 302 01a4 0823     		mov	r3, #8
 303 01a6 7B60     		str	r3, [r7, #4]
 304 01a8 0CE0     		b	.L22
 305              	.L21:
 301:.\Generated_Source\PSoC4/I2CM_I2C_INT.c ****                             }
 302:.\Generated_Source\PSoC4/I2CM_I2C_INT.c ****                             else
 303:.\Generated_Source\PSoC4/I2CM_I2C_INT.c ****                             {
 304:.\Generated_Source\PSoC4/I2CM_I2C_INT.c ****                                 if(0u == diffCount)
 306              		.loc 1 304 0
 307 01aa 7B68     		ldr	r3, [r7, #4]
 308 01ac 002B     		cmp	r3, #0
 309 01ae 09D1     		bne	.L22
 305:.\Generated_Source\PSoC4/I2CM_I2C_INT.c ****                                 {
 306:.\Generated_Source\PSoC4/I2CM_I2C_INT.c ****                                     I2CM_DISABLE_MASTER_AUTO_DATA_ACK;
 310              		.loc 1 306 0
 311 01b0 614B     		ldr	r3, .L43+52
 312 01b2 614A     		ldr	r2, .L43+52
 313 01b4 1268     		ldr	r2, [r2]
 314 01b6 6149     		ldr	r1, .L43+56
 315 01b8 0A40     		and	r2, r1
 316 01ba 1A60     		str	r2, [r3]
 307:.\Generated_Source\PSoC4/I2CM_I2C_INT.c **** 
 308:.\Generated_Source\PSoC4/I2CM_I2C_INT.c ****                                     diffCount   = I2CM_I2C_FIFO_SIZE;
 317              		.loc 1 308 0
 318 01bc 0823     		mov	r3, #8
ARM GAS  C:\Users\LUKASC~1\AppData\Local\Temp\ccGg2PUd.s 			page 12


 319 01be 7B60     		str	r3, [r7, #4]
 309:.\Generated_Source\PSoC4/I2CM_I2C_INT.c ****                                     endTransfer = I2CM_I2C_CMPLT_ANY_TRANSFER;
 320              		.loc 1 309 0
 321 01c0 0123     		mov	r3, #1
 322 01c2 3B60     		str	r3, [r7]
 323              	.L22:
 310:.\Generated_Source\PSoC4/I2CM_I2C_INT.c ****                                 }
 311:.\Generated_Source\PSoC4/I2CM_I2C_INT.c ****                             }
 312:.\Generated_Source\PSoC4/I2CM_I2C_INT.c **** 
 313:.\Generated_Source\PSoC4/I2CM_I2C_INT.c ****                             for(; (0u != diffCount); diffCount--)
 324              		.loc 1 313 0
 325 01c4 10E0     		b	.L23
 326              	.L24:
 314:.\Generated_Source\PSoC4/I2CM_I2C_INT.c ****                             {
 315:.\Generated_Source\PSoC4/I2CM_I2C_INT.c ****                                 I2CM_mstrRdBufPtr[I2CM_mstrRdBufIndex] = (uint8)
 327              		.loc 1 315 0 discriminator 2
 328 01c6 5E4B     		ldr	r3, .L43+60
 329 01c8 1A68     		ldr	r2, [r3]
 330 01ca 5A4B     		ldr	r3, .L43+48
 331 01cc 1B68     		ldr	r3, [r3]
 332 01ce D218     		add	r2, r2, r3
 316:.\Generated_Source\PSoC4/I2CM_I2C_INT.c ****                                                                                         I2CM_RX_FIF
 333              		.loc 1 316 0 discriminator 2
 334 01d0 5C4B     		ldr	r3, .L43+64
 335 01d2 1B68     		ldr	r3, [r3]
 315:.\Generated_Source\PSoC4/I2CM_I2C_INT.c ****                                                                                         I2CM_RX_FIF
 336              		.loc 1 315 0 discriminator 2
 337 01d4 DBB2     		uxtb	r3, r3
 338 01d6 1370     		strb	r3, [r2]
 317:.\Generated_Source\PSoC4/I2CM_I2C_INT.c ****                                 I2CM_mstrRdBufIndex++;
 339              		.loc 1 317 0 discriminator 2
 340 01d8 564B     		ldr	r3, .L43+48
 341 01da 1B68     		ldr	r3, [r3]
 342 01dc 5A1C     		add	r2, r3, #1
 343 01de 554B     		ldr	r3, .L43+48
 344 01e0 1A60     		str	r2, [r3]
 313:.\Generated_Source\PSoC4/I2CM_I2C_INT.c ****                             {
 345              		.loc 1 313 0 discriminator 2
 346 01e2 7B68     		ldr	r3, [r7, #4]
 347 01e4 013B     		sub	r3, r3, #1
 348 01e6 7B60     		str	r3, [r7, #4]
 349              	.L23:
 313:.\Generated_Source\PSoC4/I2CM_I2C_INT.c ****                             {
 350              		.loc 1 313 0 is_stmt 0 discriminator 1
 351 01e8 7B68     		ldr	r3, [r7, #4]
 352 01ea 002B     		cmp	r3, #0
 353 01ec EBD1     		bne	.L24
 354 01ee 1EE0     		b	.L25
 355              	.L20:
 318:.\Generated_Source\PSoC4/I2CM_I2C_INT.c ****                             }
 319:.\Generated_Source\PSoC4/I2CM_I2C_INT.c ****                         }
 320:.\Generated_Source\PSoC4/I2CM_I2C_INT.c ****                         /* INTR_RX_NOT_EMPTY:
 321:.\Generated_Source\PSoC4/I2CM_I2C_INT.c ****                         * RX direction: the master received one data byte, ACK or NACK it.
 322:.\Generated_Source\PSoC4/I2CM_I2C_INT.c ****                         * The last byte is stored and NACKed by the master. The NACK and Stop is
 323:.\Generated_Source\PSoC4/I2CM_I2C_INT.c ****                         * generated by one command generate Stop.
 324:.\Generated_Source\PSoC4/I2CM_I2C_INT.c ****                         */
 325:.\Generated_Source\PSoC4/I2CM_I2C_INT.c ****                         else if(I2CM_CHECK_INTR_RX_MASKED(I2CM_INTR_RX_NOT_EMPTY))
ARM GAS  C:\Users\LUKASC~1\AppData\Local\Temp\ccGg2PUd.s 			page 13


 356              		.loc 1 325 0 is_stmt 1
 357 01f0 4D4B     		ldr	r3, .L43+36
 358 01f2 1B68     		ldr	r3, [r3]
 359 01f4 0422     		mov	r2, #4
 360 01f6 1340     		and	r3, r2
 361 01f8 19D0     		beq	.L25
 326:.\Generated_Source\PSoC4/I2CM_I2C_INT.c ****                         {
 327:.\Generated_Source\PSoC4/I2CM_I2C_INT.c ****                             /* Put data in component buffer */
 328:.\Generated_Source\PSoC4/I2CM_I2C_INT.c ****                             I2CM_mstrRdBufPtr[I2CM_mstrRdBufIndex] = (uint8) I2CM_RX_FIFO_RD_REG;
 362              		.loc 1 328 0
 363 01fa 514B     		ldr	r3, .L43+60
 364 01fc 1A68     		ldr	r2, [r3]
 365 01fe 4D4B     		ldr	r3, .L43+48
 366 0200 1B68     		ldr	r3, [r3]
 367 0202 D218     		add	r2, r2, r3
 368 0204 4F4B     		ldr	r3, .L43+64
 369 0206 1B68     		ldr	r3, [r3]
 370 0208 DBB2     		uxtb	r3, r3
 371 020a 1370     		strb	r3, [r2]
 329:.\Generated_Source\PSoC4/I2CM_I2C_INT.c ****                             I2CM_mstrRdBufIndex++;
 372              		.loc 1 329 0
 373 020c 494B     		ldr	r3, .L43+48
 374 020e 1B68     		ldr	r3, [r3]
 375 0210 5A1C     		add	r2, r3, #1
 376 0212 484B     		ldr	r3, .L43+48
 377 0214 1A60     		str	r2, [r3]
 330:.\Generated_Source\PSoC4/I2CM_I2C_INT.c **** 
 331:.\Generated_Source\PSoC4/I2CM_I2C_INT.c ****                             if(I2CM_mstrRdBufIndex < I2CM_mstrRdBufSize)
 378              		.loc 1 331 0
 379 0216 474B     		ldr	r3, .L43+48
 380 0218 1A68     		ldr	r2, [r3]
 381 021a 444B     		ldr	r3, .L43+40
 382 021c 1B68     		ldr	r3, [r3]
 383 021e 9A42     		cmp	r2, r3
 384 0220 03D2     		bcs	.L26
 332:.\Generated_Source\PSoC4/I2CM_I2C_INT.c ****                             {
 333:.\Generated_Source\PSoC4/I2CM_I2C_INT.c ****                                 I2CM_I2C_MASTER_GENERATE_ACK;
 385              		.loc 1 333 0
 386 0222 494B     		ldr	r3, .L43+68
 387 0224 0422     		mov	r2, #4
 388 0226 1A60     		str	r2, [r3]
 389 0228 01E0     		b	.L25
 390              	.L26:
 334:.\Generated_Source\PSoC4/I2CM_I2C_INT.c ****                             }
 335:.\Generated_Source\PSoC4/I2CM_I2C_INT.c ****                             else
 336:.\Generated_Source\PSoC4/I2CM_I2C_INT.c ****                             {
 337:.\Generated_Source\PSoC4/I2CM_I2C_INT.c ****                                endTransfer = I2CM_I2C_CMPLT_ANY_TRANSFER;
 391              		.loc 1 337 0
 392 022a 0123     		mov	r3, #1
 393 022c 3B60     		str	r3, [r7]
 394              	.L25:
 338:.\Generated_Source\PSoC4/I2CM_I2C_INT.c ****                             }
 339:.\Generated_Source\PSoC4/I2CM_I2C_INT.c ****                         }
 340:.\Generated_Source\PSoC4/I2CM_I2C_INT.c ****                         else
 341:.\Generated_Source\PSoC4/I2CM_I2C_INT.c ****                         {
 342:.\Generated_Source\PSoC4/I2CM_I2C_INT.c ****                             /* Do nothing */
 343:.\Generated_Source\PSoC4/I2CM_I2C_INT.c ****                         }
ARM GAS  C:\Users\LUKASC~1\AppData\Local\Temp\ccGg2PUd.s 			page 14


 344:.\Generated_Source\PSoC4/I2CM_I2C_INT.c **** 
 345:.\Generated_Source\PSoC4/I2CM_I2C_INT.c ****                         I2CM_ClearRxInterruptSource(I2CM_INTR_RX_ALL);
 395              		.loc 1 345 0
 396 022e 474B     		ldr	r3, .L43+72
 397 0230 474A     		ldr	r2, .L43+76
 398 0232 1A60     		str	r2, [r3]
 399 0234 ADE0     		b	.L18
 400              	.L19:
 346:.\Generated_Source\PSoC4/I2CM_I2C_INT.c ****                     }
 347:.\Generated_Source\PSoC4/I2CM_I2C_INT.c ****                     else /* Writing */
 348:.\Generated_Source\PSoC4/I2CM_I2C_INT.c ****                     {
 349:.\Generated_Source\PSoC4/I2CM_I2C_INT.c ****                         /* INTR_MASTER_I2C_NACK :
 350:.\Generated_Source\PSoC4/I2CM_I2C_INT.c ****                         * The master writes data to the slave and NACK was received: not all the by
 351:.\Generated_Source\PSoC4/I2CM_I2C_INT.c ****                         * written to the slave from the TX FIFO. Revert the index if there is data 
 352:.\Generated_Source\PSoC4/I2CM_I2C_INT.c ****                         * the TX FIFO and pass control to a complete transfer.
 353:.\Generated_Source\PSoC4/I2CM_I2C_INT.c ****                         */
 354:.\Generated_Source\PSoC4/I2CM_I2C_INT.c ****                         if(I2CM_CHECK_INTR_MASTER_MASKED(I2CM_INTR_MASTER_I2C_NACK))
 401              		.loc 1 354 0
 402 0236 374B     		ldr	r3, .L43+16
 403 0238 1B68     		ldr	r3, [r3]
 404 023a 0222     		mov	r2, #2
 405 023c 1340     		and	r3, r2
 406 023e 32D0     		beq	.L28
 355:.\Generated_Source\PSoC4/I2CM_I2C_INT.c ****                         {
 356:.\Generated_Source\PSoC4/I2CM_I2C_INT.c ****                             I2CM_ClearMasterInterruptSource(I2CM_INTR_MASTER_I2C_NACK);
 407              		.loc 1 356 0
 408 0240 364B     		ldr	r3, .L43+24
 409 0242 0222     		mov	r2, #2
 410 0244 1A60     		str	r2, [r3]
 357:.\Generated_Source\PSoC4/I2CM_I2C_INT.c **** 
 358:.\Generated_Source\PSoC4/I2CM_I2C_INT.c ****                             /* Rollback write buffer index: NACKed byte remains in shifter */
 359:.\Generated_Source\PSoC4/I2CM_I2C_INT.c ****                             I2CM_mstrWrBufIndexTmp -= (I2CM_GET_TX_FIFO_ENTRIES +
 411              		.loc 1 359 0
 412 0246 434B     		ldr	r3, .L43+80
 413 0248 1B68     		ldr	r3, [r3]
 414 024a 0F22     		mov	r2, #15
 415 024c 1A40     		and	r2, r3
 360:.\Generated_Source\PSoC4/I2CM_I2C_INT.c ****                                                                    I2CM_GET_TX_FIFO_SR_VALID);
 416              		.loc 1 360 0
 417 024e 414B     		ldr	r3, .L43+80
 418 0250 1968     		ldr	r1, [r3]
 419 0252 8023     		mov	r3, #128
 420 0254 1B02     		lsl	r3, r3, #8
 421 0256 0B40     		and	r3, r1
 359:.\Generated_Source\PSoC4/I2CM_I2C_INT.c ****                                                                    I2CM_GET_TX_FIFO_SR_VALID);
 422              		.loc 1 359 0
 423 0258 01D0     		beq	.L29
 359:.\Generated_Source\PSoC4/I2CM_I2C_INT.c ****                                                                    I2CM_GET_TX_FIFO_SR_VALID);
 424              		.loc 1 359 0 is_stmt 0 discriminator 1
 425 025a 0123     		mov	r3, #1
 426 025c 00E0     		b	.L30
 427              	.L29:
 359:.\Generated_Source\PSoC4/I2CM_I2C_INT.c ****                                                                    I2CM_GET_TX_FIFO_SR_VALID);
 428              		.loc 1 359 0 discriminator 2
 429 025e 0023     		mov	r3, #0
 430              	.L30:
 359:.\Generated_Source\PSoC4/I2CM_I2C_INT.c ****                                                                    I2CM_GET_TX_FIFO_SR_VALID);
ARM GAS  C:\Users\LUKASC~1\AppData\Local\Temp\ccGg2PUd.s 			page 15


 431              		.loc 1 359 0 discriminator 4
 432 0260 D218     		add	r2, r2, r3
 433 0262 3D4B     		ldr	r3, .L43+84
 434 0264 1B68     		ldr	r3, [r3]
 435 0266 9A1A     		sub	r2, r3, r2
 436 0268 3B4B     		ldr	r3, .L43+84
 437 026a 1A60     		str	r2, [r3]
 361:.\Generated_Source\PSoC4/I2CM_I2C_INT.c **** 
 362:.\Generated_Source\PSoC4/I2CM_I2C_INT.c ****                             /* Update number of transferred bytes */
 363:.\Generated_Source\PSoC4/I2CM_I2C_INT.c ****                             I2CM_mstrWrBufIndex = I2CM_mstrWrBufIndexTmp;
 438              		.loc 1 363 0 is_stmt 1 discriminator 4
 439 026c 3A4B     		ldr	r3, .L43+84
 440 026e 1A68     		ldr	r2, [r3]
 441 0270 3A4B     		ldr	r3, .L43+88
 442 0272 1A60     		str	r2, [r3]
 364:.\Generated_Source\PSoC4/I2CM_I2C_INT.c **** 
 365:.\Generated_Source\PSoC4/I2CM_I2C_INT.c ****                             I2CM_mstrStatus |= (uint16) (I2CM_I2C_MSTAT_ERR_XFER |
 443              		.loc 1 365 0 discriminator 4
 444 0274 284B     		ldr	r3, .L43+20
 445 0276 1B88     		ldrh	r3, [r3]
 446 0278 9BB2     		uxth	r3, r3
 447 027a 8422     		mov	r2, #132
 448 027c 9200     		lsl	r2, r2, #2
 449 027e 1343     		orr	r3, r2
 450 0280 9AB2     		uxth	r2, r3
 451 0282 254B     		ldr	r3, .L43+20
 452 0284 1A80     		strh	r2, [r3]
 366:.\Generated_Source\PSoC4/I2CM_I2C_INT.c ****                                                                      I2CM_I2C_MSTAT_ERR_SHORT_XFER)
 367:.\Generated_Source\PSoC4/I2CM_I2C_INT.c **** 
 368:.\Generated_Source\PSoC4/I2CM_I2C_INT.c ****                             I2CM_CLEAR_TX_FIFO;
 453              		.loc 1 368 0 discriminator 4
 454 0286 364B     		ldr	r3, .L43+92
 455 0288 354A     		ldr	r2, .L43+92
 456 028a 1268     		ldr	r2, [r2]
 457 028c 8021     		mov	r1, #128
 458 028e 4902     		lsl	r1, r1, #9
 459 0290 0A43     		orr	r2, r1
 460 0292 1A60     		str	r2, [r3]
 461 0294 324B     		ldr	r3, .L43+92
 462 0296 324A     		ldr	r2, .L43+92
 463 0298 1268     		ldr	r2, [r2]
 464 029a 3249     		ldr	r1, .L43+96
 465 029c 0A40     		and	r2, r1
 466 029e 1A60     		str	r2, [r3]
 369:.\Generated_Source\PSoC4/I2CM_I2C_INT.c **** 
 370:.\Generated_Source\PSoC4/I2CM_I2C_INT.c ****                             endTransfer = I2CM_I2C_CMPLT_ANY_TRANSFER;
 467              		.loc 1 370 0 discriminator 4
 468 02a0 0123     		mov	r3, #1
 469 02a2 3B60     		str	r3, [r7]
 470 02a4 75E0     		b	.L18
 471              	.L28:
 371:.\Generated_Source\PSoC4/I2CM_I2C_INT.c ****                         }
 372:.\Generated_Source\PSoC4/I2CM_I2C_INT.c ****                         /* INTR_TX_EMPTY :
 373:.\Generated_Source\PSoC4/I2CM_I2C_INT.c ****                         * TX direction: the TX FIFO is EMPTY, the data from the buffer needs to be 
 374:.\Generated_Source\PSoC4/I2CM_I2C_INT.c ****                         * When there is no data in the component buffer, the underflow interrupt is
 375:.\Generated_Source\PSoC4/I2CM_I2C_INT.c ****                         * enabled to catch when all the data has been transferred.
 376:.\Generated_Source\PSoC4/I2CM_I2C_INT.c ****                         */
ARM GAS  C:\Users\LUKASC~1\AppData\Local\Temp\ccGg2PUd.s 			page 16


 377:.\Generated_Source\PSoC4/I2CM_I2C_INT.c ****                         else if(I2CM_CHECK_INTR_TX_MASKED(I2CM_INTR_TX_EMPTY))
 472              		.loc 1 377 0
 473 02a6 304B     		ldr	r3, .L43+100
 474 02a8 1B68     		ldr	r3, [r3]
 475 02aa 1022     		mov	r2, #16
 476 02ac 1340     		and	r3, r2
 477 02ae 65D0     		beq	.L31
 378:.\Generated_Source\PSoC4/I2CM_I2C_INT.c ****                         {
 379:.\Generated_Source\PSoC4/I2CM_I2C_INT.c ****                             while(I2CM_I2C_FIFO_SIZE != I2CM_GET_TX_FIFO_ENTRIES)
 478              		.loc 1 379 0
 479 02b0 15E0     		b	.L32
 480              	.L35:
 380:.\Generated_Source\PSoC4/I2CM_I2C_INT.c ****                             {
 381:.\Generated_Source\PSoC4/I2CM_I2C_INT.c ****                                 /* The temporary mstrWrBufIndexTmp is used because slave could NACK
 382:.\Generated_Source\PSoC4/I2CM_I2C_INT.c ****                                 * roll-back required in this case. The mstrWrBufIndex is updated at
 383:.\Generated_Source\PSoC4/I2CM_I2C_INT.c ****                                 */
 384:.\Generated_Source\PSoC4/I2CM_I2C_INT.c ****                                 if(I2CM_mstrWrBufIndexTmp < I2CM_mstrWrBufSize)
 481              		.loc 1 384 0
 482 02b2 294B     		ldr	r3, .L43+84
 483 02b4 1A68     		ldr	r2, [r3]
 484 02b6 1A4B     		ldr	r3, .L43+28
 485 02b8 1B68     		ldr	r3, [r3]
 486 02ba 9A42     		cmp	r2, r3
 487 02bc 0ED2     		bcs	.L33
 385:.\Generated_Source\PSoC4/I2CM_I2C_INT.c ****                                 {
 386:.\Generated_Source\PSoC4/I2CM_I2C_INT.c ****                                 #if(!I2CM_CY_SCBIP_V0)
 387:.\Generated_Source\PSoC4/I2CM_I2C_INT.c ****                                    /* Clear INTR_TX.UNDERFLOW before putting the last byte into TX 
 388:.\Generated_Source\PSoC4/I2CM_I2C_INT.c ****                                     * a proper trigger at the end of transaction when INTR_TX.UNDER
 389:.\Generated_Source\PSoC4/I2CM_I2C_INT.c ****                                     * event. Ticket ID# 156735.
 390:.\Generated_Source\PSoC4/I2CM_I2C_INT.c ****                                     */
 391:.\Generated_Source\PSoC4/I2CM_I2C_INT.c ****                                     if(I2CM_mstrWrBufIndexTmp == (I2CM_mstrWrBufSize - 1u))
 392:.\Generated_Source\PSoC4/I2CM_I2C_INT.c ****                                     {
 393:.\Generated_Source\PSoC4/I2CM_I2C_INT.c ****                                         I2CM_ClearTxInterruptSource(I2CM_INTR_TX_UNDERFLOW);
 394:.\Generated_Source\PSoC4/I2CM_I2C_INT.c ****                                         I2CM_SetTxInterruptMode(I2CM_INTR_TX_UNDERFLOW);
 395:.\Generated_Source\PSoC4/I2CM_I2C_INT.c ****                                     }
 396:.\Generated_Source\PSoC4/I2CM_I2C_INT.c ****                                  #endif /* (!I2CM_CY_SCBIP_V0) */
 397:.\Generated_Source\PSoC4/I2CM_I2C_INT.c **** 
 398:.\Generated_Source\PSoC4/I2CM_I2C_INT.c ****                                     /* Put data into TX FIFO */
 399:.\Generated_Source\PSoC4/I2CM_I2C_INT.c ****                                     I2CM_TX_FIFO_WR_REG = (uint32) I2CM_mstrWrBufPtr[I2CM_mstrWrBuf
 488              		.loc 1 399 0
 489 02be 2B4A     		ldr	r2, .L43+104
 490 02c0 2B4B     		ldr	r3, .L43+108
 491 02c2 1968     		ldr	r1, [r3]
 492 02c4 244B     		ldr	r3, .L43+84
 493 02c6 1B68     		ldr	r3, [r3]
 494 02c8 CB18     		add	r3, r1, r3
 495 02ca 1B78     		ldrb	r3, [r3]
 496 02cc DBB2     		uxtb	r3, r3
 497 02ce 1360     		str	r3, [r2]
 400:.\Generated_Source\PSoC4/I2CM_I2C_INT.c ****                                     I2CM_mstrWrBufIndexTmp++;
 498              		.loc 1 400 0
 499 02d0 214B     		ldr	r3, .L43+84
 500 02d2 1B68     		ldr	r3, [r3]
 501 02d4 5A1C     		add	r2, r3, #1
 502 02d6 204B     		ldr	r3, .L43+84
 503 02d8 1A60     		str	r2, [r3]
 504 02da 00E0     		b	.L32
ARM GAS  C:\Users\LUKASC~1\AppData\Local\Temp\ccGg2PUd.s 			page 17


 505              	.L33:
 401:.\Generated_Source\PSoC4/I2CM_I2C_INT.c ****                                 }
 402:.\Generated_Source\PSoC4/I2CM_I2C_INT.c ****                                 else
 403:.\Generated_Source\PSoC4/I2CM_I2C_INT.c ****                                 {
 404:.\Generated_Source\PSoC4/I2CM_I2C_INT.c ****                                     break; /* No more data to put */
 506              		.loc 1 404 0
 507 02dc 05E0     		b	.L34
 508              	.L32:
 379:.\Generated_Source\PSoC4/I2CM_I2C_INT.c ****                             {
 509              		.loc 1 379 0
 510 02de 1D4B     		ldr	r3, .L43+80
 511 02e0 1B68     		ldr	r3, [r3]
 512 02e2 0F22     		mov	r2, #15
 513 02e4 1340     		and	r3, r2
 514 02e6 082B     		cmp	r3, #8
 515 02e8 E3D1     		bne	.L35
 516              	.L34:
 405:.\Generated_Source\PSoC4/I2CM_I2C_INT.c ****                                 }
 406:.\Generated_Source\PSoC4/I2CM_I2C_INT.c ****                             }
 407:.\Generated_Source\PSoC4/I2CM_I2C_INT.c **** 
 408:.\Generated_Source\PSoC4/I2CM_I2C_INT.c ****                         #if(I2CM_CY_SCBIP_V0)
 409:.\Generated_Source\PSoC4/I2CM_I2C_INT.c ****                             if(I2CM_mstrWrBufIndexTmp == I2CM_mstrWrBufSize)
 517              		.loc 1 409 0
 518 02ea 1B4B     		ldr	r3, .L43+84
 519 02ec 1A68     		ldr	r2, [r3]
 520 02ee 0C4B     		ldr	r3, .L43+28
 521 02f0 1B68     		ldr	r3, [r3]
 522 02f2 9A42     		cmp	r2, r3
 523 02f4 02D1     		bne	.L36
 410:.\Generated_Source\PSoC4/I2CM_I2C_INT.c ****                             {
 411:.\Generated_Source\PSoC4/I2CM_I2C_INT.c ****                                 I2CM_SetTxInterruptMode(I2CM_INTR_TX_UNDERFLOW);
 524              		.loc 1 411 0
 525 02f6 0B4B     		ldr	r3, .L43+32
 526 02f8 4022     		mov	r2, #64
 527 02fa 1A60     		str	r2, [r3]
 528              	.L36:
 412:.\Generated_Source\PSoC4/I2CM_I2C_INT.c ****                             }
 413:.\Generated_Source\PSoC4/I2CM_I2C_INT.c **** 
 414:.\Generated_Source\PSoC4/I2CM_I2C_INT.c ****                             I2CM_ClearTxInterruptSource(I2CM_INTR_TX_ALL);
 529              		.loc 1 414 0
 530 02fc 1D4B     		ldr	r3, .L43+112
 531 02fe 1E4A     		ldr	r2, .L43+116
 532 0300 1A60     		str	r2, [r3]
 533 0302 46E0     		b	.L18
 534              	.L44:
 535              		.align	2
 536              	.L43:
 537 0304 00000000 		.word	I2CM_customIntrHandler
 538 0308 8C0E0740 		.word	1074204300
 539 030c 880E0740 		.word	1074204296
 540 0310 00000000 		.word	I2CM_state
 541 0314 0C0F0740 		.word	1074204428
 542 0318 00000000 		.word	I2CM_mstrStatus
 543 031c 000F0740 		.word	1074204416
 544 0320 00000000 		.word	I2CM_mstrWrBufSize
 545 0324 880F0740 		.word	1074204552
 546 0328 CC0F0740 		.word	1074204620
ARM GAS  C:\Users\LUKASC~1\AppData\Local\Temp\ccGg2PUd.s 			page 18


 547 032c 00000000 		.word	I2CM_mstrRdBufSize
 548 0330 08030740 		.word	1074201352
 549 0334 00000000 		.word	I2CM_mstrRdBufIndex
 550 0338 60000740 		.word	1074200672
 551 033c FFFEFFFF 		.word	-257
 552 0340 00000000 		.word	I2CM_mstrRdBufPtr
 553 0344 40030740 		.word	1074201408
 554 0348 68000740 		.word	1074200680
 555 034c C00F0740 		.word	1074204608
 556 0350 ED0F0000 		.word	4077
 557 0354 08020740 		.word	1074201096
 558 0358 00000000 		.word	I2CM_mstrWrBufIndexTmp
 559 035c 00000000 		.word	I2CM_mstrWrBufIndex
 560 0360 04020740 		.word	1074201092
 561 0364 FFFFFEFF 		.word	-65537
 562 0368 8C0F0740 		.word	1074204556
 563 036c 40020740 		.word	1074201152
 564 0370 00000000 		.word	I2CM_mstrWrBufPtr
 565 0374 800F0740 		.word	1074204544
 566 0378 F3070000 		.word	2035
 567              	.L31:
 415:.\Generated_Source\PSoC4/I2CM_I2C_INT.c ****                         #else
 416:.\Generated_Source\PSoC4/I2CM_I2C_INT.c ****                             I2CM_ClearTxInterruptSource(I2CM_INTR_TX_EMPTY);
 417:.\Generated_Source\PSoC4/I2CM_I2C_INT.c ****                         #endif /* (I2CM_CY_SCBIP_V0) */
 418:.\Generated_Source\PSoC4/I2CM_I2C_INT.c ****                         }
 419:.\Generated_Source\PSoC4/I2CM_I2C_INT.c ****                         /* INTR_TX_UNDERFLOW:
 420:.\Generated_Source\PSoC4/I2CM_I2C_INT.c ****                         * TX direction: all data from the TX FIFO was transferred to the slave.
 421:.\Generated_Source\PSoC4/I2CM_I2C_INT.c ****                         * The transaction needs to be completed.
 422:.\Generated_Source\PSoC4/I2CM_I2C_INT.c ****                         */
 423:.\Generated_Source\PSoC4/I2CM_I2C_INT.c ****                         else if(I2CM_CHECK_INTR_TX_MASKED(I2CM_INTR_TX_UNDERFLOW))
 568              		.loc 1 423 0
 569 037c 3D4B     		ldr	r3, .L45
 570 037e 1B68     		ldr	r3, [r3]
 571 0380 4022     		mov	r2, #64
 572 0382 1340     		and	r3, r2
 573 0384 05D0     		beq	.L18
 424:.\Generated_Source\PSoC4/I2CM_I2C_INT.c ****                         {
 425:.\Generated_Source\PSoC4/I2CM_I2C_INT.c ****                             /* Update number of transferred bytes */
 426:.\Generated_Source\PSoC4/I2CM_I2C_INT.c ****                             I2CM_mstrWrBufIndex = I2CM_mstrWrBufIndexTmp;
 574              		.loc 1 426 0
 575 0386 3C4B     		ldr	r3, .L45+4
 576 0388 1A68     		ldr	r2, [r3]
 577 038a 3C4B     		ldr	r3, .L45+8
 578 038c 1A60     		str	r2, [r3]
 427:.\Generated_Source\PSoC4/I2CM_I2C_INT.c **** 
 428:.\Generated_Source\PSoC4/I2CM_I2C_INT.c ****                             endTransfer = I2CM_I2C_CMPLT_ANY_TRANSFER;
 579              		.loc 1 428 0
 580 038e 0123     		mov	r3, #1
 581 0390 3B60     		str	r3, [r7]
 582              	.L18:
 429:.\Generated_Source\PSoC4/I2CM_I2C_INT.c ****                         }
 430:.\Generated_Source\PSoC4/I2CM_I2C_INT.c ****                         else
 431:.\Generated_Source\PSoC4/I2CM_I2C_INT.c ****                         {
 432:.\Generated_Source\PSoC4/I2CM_I2C_INT.c ****                             /* Do nothing */
 433:.\Generated_Source\PSoC4/I2CM_I2C_INT.c ****                         }
 434:.\Generated_Source\PSoC4/I2CM_I2C_INT.c ****                     }
 435:.\Generated_Source\PSoC4/I2CM_I2C_INT.c ****                 }
ARM GAS  C:\Users\LUKASC~1\AppData\Local\Temp\ccGg2PUd.s 			page 19


 436:.\Generated_Source\PSoC4/I2CM_I2C_INT.c **** 
 437:.\Generated_Source\PSoC4/I2CM_I2C_INT.c ****                 if(0u != endTransfer) /* Complete transfer */
 583              		.loc 1 437 0
 584 0392 3B68     		ldr	r3, [r7]
 585 0394 002B     		cmp	r3, #0
 586 0396 6AD0     		beq	.L1
 438:.\Generated_Source\PSoC4/I2CM_I2C_INT.c ****                 {
 439:.\Generated_Source\PSoC4/I2CM_I2C_INT.c ****                     /* Clean-up master after reading: only in case of NACK */
 440:.\Generated_Source\PSoC4/I2CM_I2C_INT.c ****                     I2CM_DISABLE_MASTER_AUTO_DATA_ACK;
 587              		.loc 1 440 0
 588 0398 394B     		ldr	r3, .L45+12
 589 039a 394A     		ldr	r2, .L45+12
 590 039c 1268     		ldr	r2, [r2]
 591 039e 3949     		ldr	r1, .L45+16
 592 03a0 0A40     		and	r2, r1
 593 03a2 1A60     		str	r2, [r3]
 441:.\Generated_Source\PSoC4/I2CM_I2C_INT.c **** 
 442:.\Generated_Source\PSoC4/I2CM_I2C_INT.c ****                     /* Disable data processing interrupts: they have to be cleared before */
 443:.\Generated_Source\PSoC4/I2CM_I2C_INT.c ****                     I2CM_SetRxInterruptMode(I2CM_NO_INTR_SOURCES);
 594              		.loc 1 443 0
 595 03a4 384B     		ldr	r3, .L45+20
 596 03a6 0022     		mov	r2, #0
 597 03a8 1A60     		str	r2, [r3]
 444:.\Generated_Source\PSoC4/I2CM_I2C_INT.c ****                     I2CM_SetTxInterruptMode(I2CM_NO_INTR_SOURCES);
 598              		.loc 1 444 0
 599 03aa 384B     		ldr	r3, .L45+24
 600 03ac 0022     		mov	r2, #0
 601 03ae 1A60     		str	r2, [r3]
 445:.\Generated_Source\PSoC4/I2CM_I2C_INT.c **** 
 446:.\Generated_Source\PSoC4/I2CM_I2C_INT.c ****                     if(I2CM_CHECK_I2C_MODE_NO_STOP(I2CM_mstrControl))
 602              		.loc 1 446 0
 603 03b0 374B     		ldr	r3, .L45+28
 604 03b2 1B78     		ldrb	r3, [r3]
 605 03b4 DBB2     		uxtb	r3, r3
 606 03b6 0222     		mov	r2, #2
 607 03b8 1340     		and	r3, r2
 608 03ba DBB2     		uxtb	r3, r3
 609 03bc 002B     		cmp	r3, #0
 610 03be 15D0     		beq	.L37
 447:.\Generated_Source\PSoC4/I2CM_I2C_INT.c ****                     {
 448:.\Generated_Source\PSoC4/I2CM_I2C_INT.c ****                         /* On-going transaction is suspended: the ReStart is generated by the API r
 449:.\Generated_Source\PSoC4/I2CM_I2C_INT.c ****                         I2CM_mstrStatus |= (uint16) (I2CM_I2C_MSTAT_XFER_HALT |
 450:.\Generated_Source\PSoC4/I2CM_I2C_INT.c ****                                                                  I2CM_GET_I2C_MSTAT_CMPLT);
 611              		.loc 1 450 0
 612 03c0 344B     		ldr	r3, .L45+32
 613 03c2 1B78     		ldrb	r3, [r3]
 614 03c4 DBB2     		uxtb	r3, r3
 615 03c6 0122     		mov	r2, #1
 616 03c8 1340     		and	r3, r2
 617 03ca DBB2     		uxtb	r3, r3
 449:.\Generated_Source\PSoC4/I2CM_I2C_INT.c ****                                                                  I2CM_GET_I2C_MSTAT_CMPLT);
 618              		.loc 1 449 0
 619 03cc 002B     		cmp	r3, #0
 620 03ce 01D0     		beq	.L38
 449:.\Generated_Source\PSoC4/I2CM_I2C_INT.c ****                                                                  I2CM_GET_I2C_MSTAT_CMPLT);
 621              		.loc 1 449 0 is_stmt 0 discriminator 1
 622 03d0 0923     		mov	r3, #9
ARM GAS  C:\Users\LUKASC~1\AppData\Local\Temp\ccGg2PUd.s 			page 20


 623 03d2 00E0     		b	.L39
 624              	.L38:
 449:.\Generated_Source\PSoC4/I2CM_I2C_INT.c ****                                                                  I2CM_GET_I2C_MSTAT_CMPLT);
 625              		.loc 1 449 0 discriminator 2
 626 03d4 0A23     		mov	r3, #10
 627              	.L39:
 449:.\Generated_Source\PSoC4/I2CM_I2C_INT.c ****                                                                  I2CM_GET_I2C_MSTAT_CMPLT);
 628              		.loc 1 449 0 discriminator 4
 629 03d6 304A     		ldr	r2, .L45+36
 630 03d8 1288     		ldrh	r2, [r2]
 631 03da 92B2     		uxth	r2, r2
 632 03dc 1343     		orr	r3, r2
 633 03de 9AB2     		uxth	r2, r3
 634 03e0 2D4B     		ldr	r3, .L45+36
 635 03e2 1A80     		strh	r2, [r3]
 451:.\Generated_Source\PSoC4/I2CM_I2C_INT.c **** 
 452:.\Generated_Source\PSoC4/I2CM_I2C_INT.c ****                         I2CM_state = I2CM_I2C_FSM_MSTR_HALT;
 636              		.loc 1 452 0 is_stmt 1 discriminator 4
 637 03e4 2B4B     		ldr	r3, .L45+32
 638 03e6 6022     		mov	r2, #96
 639 03e8 1A70     		strb	r2, [r3]
 640 03ea 40E0     		b	.L1
 641              	.L37:
 453:.\Generated_Source\PSoC4/I2CM_I2C_INT.c ****                     }
 454:.\Generated_Source\PSoC4/I2CM_I2C_INT.c ****                     else
 455:.\Generated_Source\PSoC4/I2CM_I2C_INT.c ****                     {
 456:.\Generated_Source\PSoC4/I2CM_I2C_INT.c ****                         /* Complete transaction: exclude the data processing state and generate Sto
 457:.\Generated_Source\PSoC4/I2CM_I2C_INT.c ****                         * The completion status will be set after Stop generation.
 458:.\Generated_Source\PSoC4/I2CM_I2C_INT.c ****                         * A special case is read: because NACK and Stop are generated by the comman
 459:.\Generated_Source\PSoC4/I2CM_I2C_INT.c ****                         * Lost arbitration can occur during NACK generation when
 460:.\Generated_Source\PSoC4/I2CM_I2C_INT.c ****                         * the other master is still reading from the slave.
 461:.\Generated_Source\PSoC4/I2CM_I2C_INT.c ****                         */
 462:.\Generated_Source\PSoC4/I2CM_I2C_INT.c ****                         I2CM_I2C_MASTER_GENERATE_STOP;
 642              		.loc 1 462 0
 643 03ec 2B4B     		ldr	r3, .L45+40
 644 03ee 2C4A     		ldr	r2, .L45+44
 645 03f0 1268     		ldr	r2, [r2]
 646 03f2 2021     		mov	r1, #32
 647 03f4 0A40     		and	r2, r1
 648 03f6 01D0     		beq	.L40
 649              		.loc 1 462 0 is_stmt 0 discriminator 1
 650 03f8 1822     		mov	r2, #24
 651 03fa 00E0     		b	.L41
 652              	.L40:
 653              		.loc 1 462 0 discriminator 2
 654 03fc 1022     		mov	r2, #16
 655              	.L41:
 656              		.loc 1 462 0 discriminator 4
 657 03fe 1A60     		str	r2, [r3]
 658 0400 35E0     		b	.L1
 659              	.L10:
 463:.\Generated_Source\PSoC4/I2CM_I2C_INT.c ****                     }
 464:.\Generated_Source\PSoC4/I2CM_I2C_INT.c ****                 }
 465:.\Generated_Source\PSoC4/I2CM_I2C_INT.c ****             }
 466:.\Generated_Source\PSoC4/I2CM_I2C_INT.c **** 
 467:.\Generated_Source\PSoC4/I2CM_I2C_INT.c ****         } /* (I2CM_I2C_MASTER) */
 468:.\Generated_Source\PSoC4/I2CM_I2C_INT.c ****         #endif
ARM GAS  C:\Users\LUKASC~1\AppData\Local\Temp\ccGg2PUd.s 			page 21


 469:.\Generated_Source\PSoC4/I2CM_I2C_INT.c **** 
 470:.\Generated_Source\PSoC4/I2CM_I2C_INT.c ****     } /* (I2CM_CHECK_I2C_FSM_MASTER) */
 471:.\Generated_Source\PSoC4/I2CM_I2C_INT.c **** 
 472:.\Generated_Source\PSoC4/I2CM_I2C_INT.c **** 
 473:.\Generated_Source\PSoC4/I2CM_I2C_INT.c ****     /* FSM Slave */
 474:.\Generated_Source\PSoC4/I2CM_I2C_INT.c ****     else if(I2CM_CHECK_I2C_FSM_SLAVE)
 660              		.loc 1 474 0 is_stmt 1
 661 0402 244B     		ldr	r3, .L45+32
 662 0404 1B78     		ldrb	r3, [r3]
 663 0406 DBB2     		uxtb	r3, r3
 664 0408 1022     		mov	r2, #16
 665 040a 1340     		and	r3, r2
 666 040c DBB2     		uxtb	r3, r3
 667 040e 002B     		cmp	r3, #0
 668 0410 2DD1     		bne	.L1
 475:.\Generated_Source\PSoC4/I2CM_I2C_INT.c ****     {
 476:.\Generated_Source\PSoC4/I2CM_I2C_INT.c ****         #if(I2CM_I2C_SLAVE)
 477:.\Generated_Source\PSoC4/I2CM_I2C_INT.c ****         {
 478:.\Generated_Source\PSoC4/I2CM_I2C_INT.c ****             /* INTR_SLAVE_NACK:
 479:.\Generated_Source\PSoC4/I2CM_I2C_INT.c ****             * The master completes reading the slave: the appropriate flags have to be set.
 480:.\Generated_Source\PSoC4/I2CM_I2C_INT.c ****             * The TX FIFO is cleared after an overflow condition is set.
 481:.\Generated_Source\PSoC4/I2CM_I2C_INT.c ****             */
 482:.\Generated_Source\PSoC4/I2CM_I2C_INT.c ****             if(I2CM_CHECK_INTR_SLAVE_MASKED(I2CM_INTR_SLAVE_I2C_NACK))
 483:.\Generated_Source\PSoC4/I2CM_I2C_INT.c ****             {
 484:.\Generated_Source\PSoC4/I2CM_I2C_INT.c ****                 I2CM_ClearSlaveInterruptSource(I2CM_INTR_SLAVE_I2C_NACK);
 485:.\Generated_Source\PSoC4/I2CM_I2C_INT.c **** 
 486:.\Generated_Source\PSoC4/I2CM_I2C_INT.c ****                 /* All entries that remain in TX FIFO max value is 9: 8 (FIFO) + 1 (SHIFTER) */
 487:.\Generated_Source\PSoC4/I2CM_I2C_INT.c ****                 diffCount = (I2CM_GET_TX_FIFO_ENTRIES + I2CM_GET_TX_FIFO_SR_VALID);
 488:.\Generated_Source\PSoC4/I2CM_I2C_INT.c **** 
 489:.\Generated_Source\PSoC4/I2CM_I2C_INT.c ****                 if(I2CM_slOverFlowCount > diffCount) /* Overflow */
 490:.\Generated_Source\PSoC4/I2CM_I2C_INT.c ****                 {
 491:.\Generated_Source\PSoC4/I2CM_I2C_INT.c ****                     I2CM_slStatus |= (uint8) I2CM_I2C_SSTAT_RD_OVFL;
 492:.\Generated_Source\PSoC4/I2CM_I2C_INT.c ****                 }
 493:.\Generated_Source\PSoC4/I2CM_I2C_INT.c ****                 else /* No Overflow */
 494:.\Generated_Source\PSoC4/I2CM_I2C_INT.c ****                 {
 495:.\Generated_Source\PSoC4/I2CM_I2C_INT.c ****                     /* Roll-back temporary index */
 496:.\Generated_Source\PSoC4/I2CM_I2C_INT.c ****                     I2CM_slRdBufIndexTmp -= (diffCount - I2CM_slOverFlowCount);
 497:.\Generated_Source\PSoC4/I2CM_I2C_INT.c ****                 }
 498:.\Generated_Source\PSoC4/I2CM_I2C_INT.c **** 
 499:.\Generated_Source\PSoC4/I2CM_I2C_INT.c ****                 /* Update slave of transferred bytes */
 500:.\Generated_Source\PSoC4/I2CM_I2C_INT.c ****                 I2CM_slRdBufIndex = I2CM_slRdBufIndexTmp;
 501:.\Generated_Source\PSoC4/I2CM_I2C_INT.c **** 
 502:.\Generated_Source\PSoC4/I2CM_I2C_INT.c ****                 /* Clean-up TX FIFO */
 503:.\Generated_Source\PSoC4/I2CM_I2C_INT.c ****                 I2CM_SetTxInterruptMode(I2CM_NO_INTR_SOURCES);
 504:.\Generated_Source\PSoC4/I2CM_I2C_INT.c ****                 I2CM_slOverFlowCount = 0u;
 505:.\Generated_Source\PSoC4/I2CM_I2C_INT.c ****                 I2CM_CLEAR_TX_FIFO;
 506:.\Generated_Source\PSoC4/I2CM_I2C_INT.c **** 
 507:.\Generated_Source\PSoC4/I2CM_I2C_INT.c ****                 /* Complete master reading */
 508:.\Generated_Source\PSoC4/I2CM_I2C_INT.c ****                 I2CM_slStatus &= (uint8) ~I2CM_I2C_SSTAT_RD_BUSY;
 509:.\Generated_Source\PSoC4/I2CM_I2C_INT.c ****                 I2CM_slStatus |= (uint8)  I2CM_I2C_SSTAT_RD_CMPLT;
 510:.\Generated_Source\PSoC4/I2CM_I2C_INT.c ****                 I2CM_state     =  I2CM_I2C_FSM_IDLE;
 511:.\Generated_Source\PSoC4/I2CM_I2C_INT.c ****             }
 512:.\Generated_Source\PSoC4/I2CM_I2C_INT.c **** 
 513:.\Generated_Source\PSoC4/I2CM_I2C_INT.c **** 
 514:.\Generated_Source\PSoC4/I2CM_I2C_INT.c ****             /* INTR_SLAVE_I2C_WRITE_STOP:
 515:.\Generated_Source\PSoC4/I2CM_I2C_INT.c ****             * The master completes writing to the slave: the appropriate flags have to be set.
 516:.\Generated_Source\PSoC4/I2CM_I2C_INT.c ****             * The RX FIFO contains 1-8 bytes from the previous transaction which needs to be read.
ARM GAS  C:\Users\LUKASC~1\AppData\Local\Temp\ccGg2PUd.s 			page 22


 517:.\Generated_Source\PSoC4/I2CM_I2C_INT.c ****             * There is a possibility that RX FIFO contains an address, it needs to leave it there.
 518:.\Generated_Source\PSoC4/I2CM_I2C_INT.c ****             */
 519:.\Generated_Source\PSoC4/I2CM_I2C_INT.c ****             if(I2CM_CHECK_INTR_SLAVE_MASKED(I2CM_INTR_SLAVE_I2C_WRITE_STOP))
 520:.\Generated_Source\PSoC4/I2CM_I2C_INT.c ****             {
 521:.\Generated_Source\PSoC4/I2CM_I2C_INT.c ****                 I2CM_ClearSlaveInterruptSource(I2CM_INTR_SLAVE_I2C_WRITE_STOP);
 522:.\Generated_Source\PSoC4/I2CM_I2C_INT.c **** 
 523:.\Generated_Source\PSoC4/I2CM_I2C_INT.c ****                 /* Read bytes from RX FIFO when auto data ACK receive logic is enabled. Otherwise a
 524:.\Generated_Source\PSoC4/I2CM_I2C_INT.c ****                 * were already read from the RX FIFO except for address byte which has to stay here
 525:.\Generated_Source\PSoC4/I2CM_I2C_INT.c ****                 * I2C_ADDR_MATCH.
 526:.\Generated_Source\PSoC4/I2CM_I2C_INT.c ****                 */
 527:.\Generated_Source\PSoC4/I2CM_I2C_INT.c ****                 if (0u != (I2CM_I2C_CTRL_REG & I2CM_I2C_CTRL_S_READY_DATA_ACK))
 528:.\Generated_Source\PSoC4/I2CM_I2C_INT.c ****                 {
 529:.\Generated_Source\PSoC4/I2CM_I2C_INT.c ****                     while(0u != I2CM_GET_RX_FIFO_ENTRIES)
 530:.\Generated_Source\PSoC4/I2CM_I2C_INT.c ****                     {
 531:.\Generated_Source\PSoC4/I2CM_I2C_INT.c ****                         #if(I2CM_CHECK_I2C_ACCEPT_ADDRESS)
 532:.\Generated_Source\PSoC4/I2CM_I2C_INT.c ****                         {
 533:.\Generated_Source\PSoC4/I2CM_I2C_INT.c ****                             if((1u == I2CM_GET_RX_FIFO_ENTRIES) &&
 534:.\Generated_Source\PSoC4/I2CM_I2C_INT.c ****                                (I2CM_CHECK_INTR_SLAVE_MASKED(I2CM_INTR_SLAVE_I2C_ADDR_MATCH)))
 535:.\Generated_Source\PSoC4/I2CM_I2C_INT.c ****                             {
 536:.\Generated_Source\PSoC4/I2CM_I2C_INT.c ****                                 break; /* Leave address in RX FIFO */
 537:.\Generated_Source\PSoC4/I2CM_I2C_INT.c ****                             }
 538:.\Generated_Source\PSoC4/I2CM_I2C_INT.c ****                         }
 539:.\Generated_Source\PSoC4/I2CM_I2C_INT.c ****                         #endif
 540:.\Generated_Source\PSoC4/I2CM_I2C_INT.c **** 
 541:.\Generated_Source\PSoC4/I2CM_I2C_INT.c ****                         /* Put data in component buffer */
 542:.\Generated_Source\PSoC4/I2CM_I2C_INT.c ****                         I2CM_slWrBufPtr[I2CM_slWrBufIndex] = (uint8) I2CM_RX_FIFO_RD_REG;
 543:.\Generated_Source\PSoC4/I2CM_I2C_INT.c ****                         I2CM_slWrBufIndex++;
 544:.\Generated_Source\PSoC4/I2CM_I2C_INT.c ****                     }
 545:.\Generated_Source\PSoC4/I2CM_I2C_INT.c **** 
 546:.\Generated_Source\PSoC4/I2CM_I2C_INT.c ****                     I2CM_DISABLE_SLAVE_AUTO_DATA;
 547:.\Generated_Source\PSoC4/I2CM_I2C_INT.c ****                 }
 548:.\Generated_Source\PSoC4/I2CM_I2C_INT.c **** 
 549:.\Generated_Source\PSoC4/I2CM_I2C_INT.c ****                 if(I2CM_CHECK_INTR_RX(I2CM_INTR_RX_OVERFLOW))
 550:.\Generated_Source\PSoC4/I2CM_I2C_INT.c ****                 {
 551:.\Generated_Source\PSoC4/I2CM_I2C_INT.c ****                     I2CM_slStatus |= (uint8) I2CM_I2C_SSTAT_WR_OVFL;
 552:.\Generated_Source\PSoC4/I2CM_I2C_INT.c ****                 }
 553:.\Generated_Source\PSoC4/I2CM_I2C_INT.c **** 
 554:.\Generated_Source\PSoC4/I2CM_I2C_INT.c ****                 /* Clears RX interrupt sources triggered on data receiving */
 555:.\Generated_Source\PSoC4/I2CM_I2C_INT.c ****                 I2CM_SetRxInterruptMode(I2CM_NO_INTR_SOURCES);
 556:.\Generated_Source\PSoC4/I2CM_I2C_INT.c ****                 I2CM_ClearRxInterruptSource(I2CM_INTR_RX_ALL);
 557:.\Generated_Source\PSoC4/I2CM_I2C_INT.c **** 
 558:.\Generated_Source\PSoC4/I2CM_I2C_INT.c ****                 /* Complete master writing */
 559:.\Generated_Source\PSoC4/I2CM_I2C_INT.c ****                 I2CM_slStatus &= (uint8) ~I2CM_I2C_SSTAT_WR_BUSY;
 560:.\Generated_Source\PSoC4/I2CM_I2C_INT.c ****                 I2CM_slStatus |= (uint8)  I2CM_I2C_SSTAT_WR_CMPLT;
 561:.\Generated_Source\PSoC4/I2CM_I2C_INT.c ****                 I2CM_state     =  I2CM_I2C_FSM_IDLE;
 562:.\Generated_Source\PSoC4/I2CM_I2C_INT.c ****             }
 563:.\Generated_Source\PSoC4/I2CM_I2C_INT.c **** 
 564:.\Generated_Source\PSoC4/I2CM_I2C_INT.c **** 
 565:.\Generated_Source\PSoC4/I2CM_I2C_INT.c ****             /* INTR_SLAVE_I2C_ADDR_MATCH or INTR_SLAVE_I2C_GENERAL:
 566:.\Generated_Source\PSoC4/I2CM_I2C_INT.c ****             * The address match or general call address event starts the slave operation:
 567:.\Generated_Source\PSoC4/I2CM_I2C_INT.c ****             * after leaving the TX or RX direction has to be chosen.
 568:.\Generated_Source\PSoC4/I2CM_I2C_INT.c ****             * The wakeup interrupt must be cleared only after an address match is set.
 569:.\Generated_Source\PSoC4/I2CM_I2C_INT.c ****             */
 570:.\Generated_Source\PSoC4/I2CM_I2C_INT.c ****         #if (I2CM_I2C_CUSTOM_ADDRESS_HANDLER_CONST)
 571:.\Generated_Source\PSoC4/I2CM_I2C_INT.c ****             if (I2CM_CHECK_INTR_SLAVE_MASKED(I2CM_INTR_SLAVE_I2C_ADDR_MATCH |
 572:.\Generated_Source\PSoC4/I2CM_I2C_INT.c ****                                                          I2CM_INTR_SLAVE_I2C_GENERAL))
 573:.\Generated_Source\PSoC4/I2CM_I2C_INT.c ****         #else
ARM GAS  C:\Users\LUKASC~1\AppData\Local\Temp\ccGg2PUd.s 			page 23


 574:.\Generated_Source\PSoC4/I2CM_I2C_INT.c ****             if (I2CM_CHECK_INTR_SLAVE_MASKED(I2CM_INTR_SLAVE_I2C_ADDR_MATCH))
 575:.\Generated_Source\PSoC4/I2CM_I2C_INT.c ****         #endif /* (I2CM_I2C_CUSTOM_ADDRESS_HANDLER_CONST) */
 576:.\Generated_Source\PSoC4/I2CM_I2C_INT.c ****             {
 577:.\Generated_Source\PSoC4/I2CM_I2C_INT.c ****                 /* Clear externally clocked address match interrupt source when internally clocked 
 578:.\Generated_Source\PSoC4/I2CM_I2C_INT.c ****                 I2CM_ClearI2CExtClkInterruptSource(I2CM_INTR_I2C_EC_WAKE_UP);
 579:.\Generated_Source\PSoC4/I2CM_I2C_INT.c **** 
 580:.\Generated_Source\PSoC4/I2CM_I2C_INT.c ****                 #if (I2CM_I2C_CUSTOM_ADDRESS_HANDLER)
 581:.\Generated_Source\PSoC4/I2CM_I2C_INT.c ****                 {
 582:.\Generated_Source\PSoC4/I2CM_I2C_INT.c ****                     if (NULL != I2CM_customAddressHandler)
 583:.\Generated_Source\PSoC4/I2CM_I2C_INT.c ****                     {
 584:.\Generated_Source\PSoC4/I2CM_I2C_INT.c ****                         /* Call custom address handler */
 585:.\Generated_Source\PSoC4/I2CM_I2C_INT.c ****                         response = I2CM_customAddressHandler();
 586:.\Generated_Source\PSoC4/I2CM_I2C_INT.c ****                     }
 587:.\Generated_Source\PSoC4/I2CM_I2C_INT.c ****                     else
 588:.\Generated_Source\PSoC4/I2CM_I2C_INT.c ****                     {
 589:.\Generated_Source\PSoC4/I2CM_I2C_INT.c ****                         /* Read address from the RX FIFO. If there is no address underflow triggers
 590:.\Generated_Source\PSoC4/I2CM_I2C_INT.c ****                         * componnet does not use that source. */
 591:.\Generated_Source\PSoC4/I2CM_I2C_INT.c ****                         (void) I2CM_RX_FIFO_RD_REG;
 592:.\Generated_Source\PSoC4/I2CM_I2C_INT.c ****                         response = I2CM_I2C_ACK_ADDR;
 593:.\Generated_Source\PSoC4/I2CM_I2C_INT.c ****                     }
 594:.\Generated_Source\PSoC4/I2CM_I2C_INT.c **** 
 595:.\Generated_Source\PSoC4/I2CM_I2C_INT.c ****                     /* Clears RX sources after address was received in the RX FIFO */
 596:.\Generated_Source\PSoC4/I2CM_I2C_INT.c ****                     I2CM_ClearRxInterruptSource(I2CM_INTR_RX_ALL);
 597:.\Generated_Source\PSoC4/I2CM_I2C_INT.c ****                 }
 598:.\Generated_Source\PSoC4/I2CM_I2C_INT.c ****                 #endif
 599:.\Generated_Source\PSoC4/I2CM_I2C_INT.c **** 
 600:.\Generated_Source\PSoC4/I2CM_I2C_INT.c ****             #if (I2CM_I2C_CUSTOM_ADDRESS_HANDLER_CONST)
 601:.\Generated_Source\PSoC4/I2CM_I2C_INT.c ****                 if (response == I2CM_I2C_NAK_ADDR)
 602:.\Generated_Source\PSoC4/I2CM_I2C_INT.c ****                 {
 603:.\Generated_Source\PSoC4/I2CM_I2C_INT.c ****                 #if (!I2CM_CY_SCBIP_V0)
 604:.\Generated_Source\PSoC4/I2CM_I2C_INT.c ****                     /* Disable write stop interrupt source as it triggers after address was NACKed.
 605:.\Generated_Source\PSoC4/I2CM_I2C_INT.c ****                     I2CM_DISABLE_INTR_SLAVE(I2CM_INTR_SLAVE_I2C_WRITE_STOP);
 606:.\Generated_Source\PSoC4/I2CM_I2C_INT.c ****                 #endif /* (!I2CM_CY_SCBIP_V0) */
 607:.\Generated_Source\PSoC4/I2CM_I2C_INT.c **** 
 608:.\Generated_Source\PSoC4/I2CM_I2C_INT.c ****                     /* Clear address match and stop history */
 609:.\Generated_Source\PSoC4/I2CM_I2C_INT.c ****                     I2CM_ClearSlaveInterruptSource(I2CM_INTR_SLAVE_ALL);
 610:.\Generated_Source\PSoC4/I2CM_I2C_INT.c **** 
 611:.\Generated_Source\PSoC4/I2CM_I2C_INT.c ****                     /* ACK the address byte */
 612:.\Generated_Source\PSoC4/I2CM_I2C_INT.c ****                     I2CM_I2C_SLAVE_GENERATE_NACK;
 613:.\Generated_Source\PSoC4/I2CM_I2C_INT.c ****                 }
 614:.\Generated_Source\PSoC4/I2CM_I2C_INT.c ****                 else
 615:.\Generated_Source\PSoC4/I2CM_I2C_INT.c ****             #endif /* (I2CM_I2C_CUSTOM_ADDRESS_HANDLER_CONST) */
 616:.\Generated_Source\PSoC4/I2CM_I2C_INT.c ****                 {
 617:.\Generated_Source\PSoC4/I2CM_I2C_INT.c ****                     if(I2CM_CHECK_I2C_STATUS(I2CM_I2C_STATUS_S_READ))
 618:.\Generated_Source\PSoC4/I2CM_I2C_INT.c ****                     /* TX direction: master reads from slave */
 619:.\Generated_Source\PSoC4/I2CM_I2C_INT.c ****                     {
 620:.\Generated_Source\PSoC4/I2CM_I2C_INT.c ****                         I2CM_SetTxInterruptMode(I2CM_INTR_TX_EMPTY);
 621:.\Generated_Source\PSoC4/I2CM_I2C_INT.c **** 
 622:.\Generated_Source\PSoC4/I2CM_I2C_INT.c ****                         /* Set temporary index to address buffer clear from API */
 623:.\Generated_Source\PSoC4/I2CM_I2C_INT.c ****                         I2CM_slRdBufIndexTmp = I2CM_slRdBufIndex;
 624:.\Generated_Source\PSoC4/I2CM_I2C_INT.c **** 
 625:.\Generated_Source\PSoC4/I2CM_I2C_INT.c ****                         /* Start master reading */
 626:.\Generated_Source\PSoC4/I2CM_I2C_INT.c ****                         I2CM_slStatus |= (uint8) I2CM_I2C_SSTAT_RD_BUSY;
 627:.\Generated_Source\PSoC4/I2CM_I2C_INT.c ****                         I2CM_state     = I2CM_I2C_FSM_SL_RD;
 628:.\Generated_Source\PSoC4/I2CM_I2C_INT.c ****                     }
 629:.\Generated_Source\PSoC4/I2CM_I2C_INT.c ****                     else
 630:.\Generated_Source\PSoC4/I2CM_I2C_INT.c ****                     /* RX direction: master writes into slave */
ARM GAS  C:\Users\LUKASC~1\AppData\Local\Temp\ccGg2PUd.s 			page 24


 631:.\Generated_Source\PSoC4/I2CM_I2C_INT.c ****                     {
 632:.\Generated_Source\PSoC4/I2CM_I2C_INT.c ****                         /* Calculate available buffer size */
 633:.\Generated_Source\PSoC4/I2CM_I2C_INT.c ****                         diffCount = (I2CM_slWrBufSize - I2CM_slWrBufIndex);
 634:.\Generated_Source\PSoC4/I2CM_I2C_INT.c **** 
 635:.\Generated_Source\PSoC4/I2CM_I2C_INT.c ****                     #if (I2CM_CY_SCBIP_V0)
 636:.\Generated_Source\PSoC4/I2CM_I2C_INT.c ****                         if(diffCount < I2CM_I2C_FIFO_SIZE)
 637:.\Generated_Source\PSoC4/I2CM_I2C_INT.c ****                         /* Receive data: byte-by-byte */
 638:.\Generated_Source\PSoC4/I2CM_I2C_INT.c ****                         {
 639:.\Generated_Source\PSoC4/I2CM_I2C_INT.c ****                             I2CM_SetRxInterruptMode(I2CM_INTR_RX_NOT_EMPTY);
 640:.\Generated_Source\PSoC4/I2CM_I2C_INT.c ****                         }
 641:.\Generated_Source\PSoC4/I2CM_I2C_INT.c ****                         else
 642:.\Generated_Source\PSoC4/I2CM_I2C_INT.c ****                         /* Receive data: into RX FIFO */
 643:.\Generated_Source\PSoC4/I2CM_I2C_INT.c ****                         {
 644:.\Generated_Source\PSoC4/I2CM_I2C_INT.c ****                             if(diffCount == I2CM_I2C_FIFO_SIZE)
 645:.\Generated_Source\PSoC4/I2CM_I2C_INT.c ****                             {
 646:.\Generated_Source\PSoC4/I2CM_I2C_INT.c ****                                 /* NACK when RX FIFO become FULL */
 647:.\Generated_Source\PSoC4/I2CM_I2C_INT.c ****                                 I2CM_ENABLE_SLAVE_AUTO_DATA;
 648:.\Generated_Source\PSoC4/I2CM_I2C_INT.c ****                             }
 649:.\Generated_Source\PSoC4/I2CM_I2C_INT.c ****                             else
 650:.\Generated_Source\PSoC4/I2CM_I2C_INT.c ****                             {
 651:.\Generated_Source\PSoC4/I2CM_I2C_INT.c ****                                 /* Stretch clock when RX FIFO becomes FULL */
 652:.\Generated_Source\PSoC4/I2CM_I2C_INT.c ****                                 I2CM_ENABLE_SLAVE_AUTO_DATA_ACK;
 653:.\Generated_Source\PSoC4/I2CM_I2C_INT.c ****                                 I2CM_SetRxInterruptMode(I2CM_INTR_RX_FULL);
 654:.\Generated_Source\PSoC4/I2CM_I2C_INT.c ****                             }
 655:.\Generated_Source\PSoC4/I2CM_I2C_INT.c ****                         }
 656:.\Generated_Source\PSoC4/I2CM_I2C_INT.c **** 
 657:.\Generated_Source\PSoC4/I2CM_I2C_INT.c ****                     #else
 658:.\Generated_Source\PSoC4/I2CM_I2C_INT.c ****                         #if(I2CM_CHECK_I2C_ACCEPT_ADDRESS)
 659:.\Generated_Source\PSoC4/I2CM_I2C_INT.c ****                         {
 660:.\Generated_Source\PSoC4/I2CM_I2C_INT.c ****                             /* Enable RX.NOT_EMPTY interrupt source to receive byte by byte.
 661:.\Generated_Source\PSoC4/I2CM_I2C_INT.c ****                             * The byte by byte receive is always chosen for the case when an addres
 662:.\Generated_Source\PSoC4/I2CM_I2C_INT.c ****                             * in RX FIFO. Ticket ID#175559.
 663:.\Generated_Source\PSoC4/I2CM_I2C_INT.c ****                             */
 664:.\Generated_Source\PSoC4/I2CM_I2C_INT.c ****                             I2CM_SetRxInterruptMode(I2CM_INTR_RX_NOT_EMPTY);
 665:.\Generated_Source\PSoC4/I2CM_I2C_INT.c ****                         }
 666:.\Generated_Source\PSoC4/I2CM_I2C_INT.c ****                         #else
 667:.\Generated_Source\PSoC4/I2CM_I2C_INT.c ****                         {
 668:.\Generated_Source\PSoC4/I2CM_I2C_INT.c ****                             if(diffCount < I2CM_I2C_FIFO_SIZE)
 669:.\Generated_Source\PSoC4/I2CM_I2C_INT.c ****                             /* Receive data: byte-by-byte */
 670:.\Generated_Source\PSoC4/I2CM_I2C_INT.c ****                             {
 671:.\Generated_Source\PSoC4/I2CM_I2C_INT.c ****                                 I2CM_SetRxInterruptMode(I2CM_INTR_RX_NOT_EMPTY);
 672:.\Generated_Source\PSoC4/I2CM_I2C_INT.c ****                             }
 673:.\Generated_Source\PSoC4/I2CM_I2C_INT.c ****                             else
 674:.\Generated_Source\PSoC4/I2CM_I2C_INT.c ****                             /* Receive data: into RX FIFO */
 675:.\Generated_Source\PSoC4/I2CM_I2C_INT.c ****                             {
 676:.\Generated_Source\PSoC4/I2CM_I2C_INT.c ****                                 if(diffCount == I2CM_I2C_FIFO_SIZE)
 677:.\Generated_Source\PSoC4/I2CM_I2C_INT.c ****                                 {
 678:.\Generated_Source\PSoC4/I2CM_I2C_INT.c ****                                     /* NACK when RX FIFO become FULL */
 679:.\Generated_Source\PSoC4/I2CM_I2C_INT.c ****                                     I2CM_ENABLE_SLAVE_AUTO_DATA;
 680:.\Generated_Source\PSoC4/I2CM_I2C_INT.c ****                                 }
 681:.\Generated_Source\PSoC4/I2CM_I2C_INT.c ****                                 else
 682:.\Generated_Source\PSoC4/I2CM_I2C_INT.c ****                                 {
 683:.\Generated_Source\PSoC4/I2CM_I2C_INT.c ****                                     /* Stretch clock when RX FIFO becomes FULL */
 684:.\Generated_Source\PSoC4/I2CM_I2C_INT.c ****                                     I2CM_ENABLE_SLAVE_AUTO_DATA_ACK;
 685:.\Generated_Source\PSoC4/I2CM_I2C_INT.c ****                                     I2CM_SetRxInterruptMode(I2CM_INTR_RX_FULL);
 686:.\Generated_Source\PSoC4/I2CM_I2C_INT.c ****                                 }
 687:.\Generated_Source\PSoC4/I2CM_I2C_INT.c ****                             }
ARM GAS  C:\Users\LUKASC~1\AppData\Local\Temp\ccGg2PUd.s 			page 25


 688:.\Generated_Source\PSoC4/I2CM_I2C_INT.c ****                         }
 689:.\Generated_Source\PSoC4/I2CM_I2C_INT.c ****                         #endif
 690:.\Generated_Source\PSoC4/I2CM_I2C_INT.c ****                     #endif /* (I2CM_CY_SCBIP_V0) */
 691:.\Generated_Source\PSoC4/I2CM_I2C_INT.c **** 
 692:.\Generated_Source\PSoC4/I2CM_I2C_INT.c ****                         /* Start master reading */
 693:.\Generated_Source\PSoC4/I2CM_I2C_INT.c ****                         I2CM_slStatus |= (uint8) I2CM_I2C_SSTAT_WR_BUSY;
 694:.\Generated_Source\PSoC4/I2CM_I2C_INT.c ****                         I2CM_state     = I2CM_I2C_FSM_SL_WR;
 695:.\Generated_Source\PSoC4/I2CM_I2C_INT.c ****                     }
 696:.\Generated_Source\PSoC4/I2CM_I2C_INT.c **** 
 697:.\Generated_Source\PSoC4/I2CM_I2C_INT.c ****                     /* Clear address match and stop history */
 698:.\Generated_Source\PSoC4/I2CM_I2C_INT.c ****                     I2CM_ClearSlaveInterruptSource(I2CM_INTR_SLAVE_ALL);
 699:.\Generated_Source\PSoC4/I2CM_I2C_INT.c **** 
 700:.\Generated_Source\PSoC4/I2CM_I2C_INT.c ****                 #if (!I2CM_CY_SCBIP_V0)
 701:.\Generated_Source\PSoC4/I2CM_I2C_INT.c ****                     /* Enable write stop interrupt source as it triggers after address was NACKed. 
 702:.\Generated_Source\PSoC4/I2CM_I2C_INT.c ****                     I2CM_ENABLE_INTR_SLAVE(I2CM_INTR_SLAVE_I2C_WRITE_STOP);
 703:.\Generated_Source\PSoC4/I2CM_I2C_INT.c ****                 #endif /* (!I2CM_CY_SCBIP_V0) */
 704:.\Generated_Source\PSoC4/I2CM_I2C_INT.c **** 
 705:.\Generated_Source\PSoC4/I2CM_I2C_INT.c ****                     /* ACK the address byte */
 706:.\Generated_Source\PSoC4/I2CM_I2C_INT.c ****                     I2CM_I2C_SLAVE_GENERATE_ACK;
 707:.\Generated_Source\PSoC4/I2CM_I2C_INT.c ****                 }
 708:.\Generated_Source\PSoC4/I2CM_I2C_INT.c ****             }
 709:.\Generated_Source\PSoC4/I2CM_I2C_INT.c **** 
 710:.\Generated_Source\PSoC4/I2CM_I2C_INT.c ****             /* I2CM_INTR_RX_FULL:
 711:.\Generated_Source\PSoC4/I2CM_I2C_INT.c ****             * Get data from the RX FIFO and decide whether to ACK or NACK the following bytes
 712:.\Generated_Source\PSoC4/I2CM_I2C_INT.c ****             */
 713:.\Generated_Source\PSoC4/I2CM_I2C_INT.c ****             if(I2CM_CHECK_INTR_RX_MASKED(I2CM_INTR_RX_FULL))
 714:.\Generated_Source\PSoC4/I2CM_I2C_INT.c ****             {
 715:.\Generated_Source\PSoC4/I2CM_I2C_INT.c ****                 /* Calculate available buffer size to take into account that RX FIFO is FULL */
 716:.\Generated_Source\PSoC4/I2CM_I2C_INT.c ****                 diffCount =  I2CM_slWrBufSize -
 717:.\Generated_Source\PSoC4/I2CM_I2C_INT.c ****                             (I2CM_slWrBufIndex + I2CM_I2C_FIFO_SIZE);
 718:.\Generated_Source\PSoC4/I2CM_I2C_INT.c **** 
 719:.\Generated_Source\PSoC4/I2CM_I2C_INT.c ****                 if(diffCount > I2CM_I2C_FIFO_SIZE) /* Proceed transaction */
 720:.\Generated_Source\PSoC4/I2CM_I2C_INT.c ****                 {
 721:.\Generated_Source\PSoC4/I2CM_I2C_INT.c ****                     diffCount   = I2CM_I2C_FIFO_SIZE;
 722:.\Generated_Source\PSoC4/I2CM_I2C_INT.c ****                     endTransfer = 0u;  /* Continue active transfer */
 723:.\Generated_Source\PSoC4/I2CM_I2C_INT.c ****                 }
 724:.\Generated_Source\PSoC4/I2CM_I2C_INT.c ****                 else /* End when FIFO becomes FULL again */
 725:.\Generated_Source\PSoC4/I2CM_I2C_INT.c ****                 {
 726:.\Generated_Source\PSoC4/I2CM_I2C_INT.c ****                     endTransfer = I2CM_I2C_CMPLT_ANY_TRANSFER;
 727:.\Generated_Source\PSoC4/I2CM_I2C_INT.c ****                 }
 728:.\Generated_Source\PSoC4/I2CM_I2C_INT.c **** 
 729:.\Generated_Source\PSoC4/I2CM_I2C_INT.c ****                 for(; (0u != diffCount); diffCount--)
 730:.\Generated_Source\PSoC4/I2CM_I2C_INT.c ****                 {
 731:.\Generated_Source\PSoC4/I2CM_I2C_INT.c ****                     /* Put data in component buffer */
 732:.\Generated_Source\PSoC4/I2CM_I2C_INT.c ****                     I2CM_slWrBufPtr[I2CM_slWrBufIndex] = (uint8) I2CM_RX_FIFO_RD_REG;
 733:.\Generated_Source\PSoC4/I2CM_I2C_INT.c ****                     I2CM_slWrBufIndex++;
 734:.\Generated_Source\PSoC4/I2CM_I2C_INT.c ****                 }
 735:.\Generated_Source\PSoC4/I2CM_I2C_INT.c **** 
 736:.\Generated_Source\PSoC4/I2CM_I2C_INT.c ****                 if(0u != endTransfer) /* End transfer sending NACK */
 737:.\Generated_Source\PSoC4/I2CM_I2C_INT.c ****                 {
 738:.\Generated_Source\PSoC4/I2CM_I2C_INT.c ****                     I2CM_ENABLE_SLAVE_AUTO_DATA_NACK;
 739:.\Generated_Source\PSoC4/I2CM_I2C_INT.c **** 
 740:.\Generated_Source\PSoC4/I2CM_I2C_INT.c ****                     /* INTR_RX_FULL triggers earlier than INTR_SLAVE_I2C_STOP:
 741:.\Generated_Source\PSoC4/I2CM_I2C_INT.c ****                     * disable all RX interrupt sources.
 742:.\Generated_Source\PSoC4/I2CM_I2C_INT.c ****                     */
 743:.\Generated_Source\PSoC4/I2CM_I2C_INT.c ****                     I2CM_SetRxInterruptMode(I2CM_NO_INTR_SOURCES);
 744:.\Generated_Source\PSoC4/I2CM_I2C_INT.c ****                 }
ARM GAS  C:\Users\LUKASC~1\AppData\Local\Temp\ccGg2PUd.s 			page 26


 745:.\Generated_Source\PSoC4/I2CM_I2C_INT.c **** 
 746:.\Generated_Source\PSoC4/I2CM_I2C_INT.c ****                 I2CM_ClearRxInterruptSource(I2CM_INTR_RX_FULL);
 747:.\Generated_Source\PSoC4/I2CM_I2C_INT.c ****             }
 748:.\Generated_Source\PSoC4/I2CM_I2C_INT.c ****             /* I2CM_INTR_RX_NOT_EMPTY:
 749:.\Generated_Source\PSoC4/I2CM_I2C_INT.c ****             * The buffer size is less than 8: it requires processing in byte-by-byte mode.
 750:.\Generated_Source\PSoC4/I2CM_I2C_INT.c ****             */
 751:.\Generated_Source\PSoC4/I2CM_I2C_INT.c ****             else if(I2CM_CHECK_INTR_RX_MASKED(I2CM_INTR_RX_NOT_EMPTY))
 752:.\Generated_Source\PSoC4/I2CM_I2C_INT.c ****             {
 753:.\Generated_Source\PSoC4/I2CM_I2C_INT.c ****                 diffCount = I2CM_RX_FIFO_RD_REG;
 754:.\Generated_Source\PSoC4/I2CM_I2C_INT.c **** 
 755:.\Generated_Source\PSoC4/I2CM_I2C_INT.c ****                 if(I2CM_slWrBufIndex < I2CM_slWrBufSize)
 756:.\Generated_Source\PSoC4/I2CM_I2C_INT.c ****                 {
 757:.\Generated_Source\PSoC4/I2CM_I2C_INT.c ****                     I2CM_I2C_SLAVE_GENERATE_ACK;
 758:.\Generated_Source\PSoC4/I2CM_I2C_INT.c **** 
 759:.\Generated_Source\PSoC4/I2CM_I2C_INT.c ****                     /* Put data into component buffer */
 760:.\Generated_Source\PSoC4/I2CM_I2C_INT.c ****                     I2CM_slWrBufPtr[I2CM_slWrBufIndex] = (uint8) diffCount;
 761:.\Generated_Source\PSoC4/I2CM_I2C_INT.c ****                     I2CM_slWrBufIndex++;
 762:.\Generated_Source\PSoC4/I2CM_I2C_INT.c ****                 }
 763:.\Generated_Source\PSoC4/I2CM_I2C_INT.c ****                 else /* Overflow: there is no space in write buffer */
 764:.\Generated_Source\PSoC4/I2CM_I2C_INT.c ****                 {
 765:.\Generated_Source\PSoC4/I2CM_I2C_INT.c ****                     I2CM_I2C_SLAVE_GENERATE_NACK;
 766:.\Generated_Source\PSoC4/I2CM_I2C_INT.c **** 
 767:.\Generated_Source\PSoC4/I2CM_I2C_INT.c ****                     I2CM_slStatus |= (uint8) I2CM_I2C_SSTAT_WR_OVFL;
 768:.\Generated_Source\PSoC4/I2CM_I2C_INT.c ****                 }
 769:.\Generated_Source\PSoC4/I2CM_I2C_INT.c **** 
 770:.\Generated_Source\PSoC4/I2CM_I2C_INT.c ****                 I2CM_ClearRxInterruptSource(I2CM_INTR_RX_NOT_EMPTY);
 771:.\Generated_Source\PSoC4/I2CM_I2C_INT.c ****             }
 772:.\Generated_Source\PSoC4/I2CM_I2C_INT.c ****             else
 773:.\Generated_Source\PSoC4/I2CM_I2C_INT.c ****             {
 774:.\Generated_Source\PSoC4/I2CM_I2C_INT.c ****                 /* Does nothing */
 775:.\Generated_Source\PSoC4/I2CM_I2C_INT.c ****             }
 776:.\Generated_Source\PSoC4/I2CM_I2C_INT.c **** 
 777:.\Generated_Source\PSoC4/I2CM_I2C_INT.c **** 
 778:.\Generated_Source\PSoC4/I2CM_I2C_INT.c ****             /* I2CM_INTR_TX_EMPTY:
 779:.\Generated_Source\PSoC4/I2CM_I2C_INT.c ****             * The master reads the slave: provide data to read or 0xFF in the case of the end of th
 780:.\Generated_Source\PSoC4/I2CM_I2C_INT.c ****             * The overflow condition must be captured, but not set until the end of transaction.
 781:.\Generated_Source\PSoC4/I2CM_I2C_INT.c ****             * There is a possibility of a false overflow due to TX FIFO utilization.
 782:.\Generated_Source\PSoC4/I2CM_I2C_INT.c ****             */
 783:.\Generated_Source\PSoC4/I2CM_I2C_INT.c ****             if(I2CM_CHECK_INTR_TX_MASKED(I2CM_INTR_TX_EMPTY))
 784:.\Generated_Source\PSoC4/I2CM_I2C_INT.c ****             {
 785:.\Generated_Source\PSoC4/I2CM_I2C_INT.c ****                 while(I2CM_I2C_FIFO_SIZE != I2CM_GET_TX_FIFO_ENTRIES)
 786:.\Generated_Source\PSoC4/I2CM_I2C_INT.c ****                 {
 787:.\Generated_Source\PSoC4/I2CM_I2C_INT.c ****                     /* Temporary slRdBufIndexTmp is used because the master can NACK the byte and
 788:.\Generated_Source\PSoC4/I2CM_I2C_INT.c ****                     * index roll-back is required in this case. The slRdBufIndex is updated at the 
 789:.\Generated_Source\PSoC4/I2CM_I2C_INT.c ****                     * of the read transfer.
 790:.\Generated_Source\PSoC4/I2CM_I2C_INT.c ****                     */
 791:.\Generated_Source\PSoC4/I2CM_I2C_INT.c ****                     if(I2CM_slRdBufIndexTmp < I2CM_slRdBufSize)
 792:.\Generated_Source\PSoC4/I2CM_I2C_INT.c ****                     /* Data from buffer */
 793:.\Generated_Source\PSoC4/I2CM_I2C_INT.c ****                     {
 794:.\Generated_Source\PSoC4/I2CM_I2C_INT.c ****                         I2CM_TX_FIFO_WR_REG = (uint32) I2CM_slRdBufPtr[I2CM_slRdBufIndexTmp];
 795:.\Generated_Source\PSoC4/I2CM_I2C_INT.c ****                         I2CM_slRdBufIndexTmp++;
 796:.\Generated_Source\PSoC4/I2CM_I2C_INT.c ****                     }
 797:.\Generated_Source\PSoC4/I2CM_I2C_INT.c ****                     else
 798:.\Generated_Source\PSoC4/I2CM_I2C_INT.c ****                     /* Probably Overflow */
 799:.\Generated_Source\PSoC4/I2CM_I2C_INT.c ****                     {
 800:.\Generated_Source\PSoC4/I2CM_I2C_INT.c ****                         I2CM_TX_FIFO_WR_REG = I2CM_I2C_SLAVE_OVFL_RETURN;
 801:.\Generated_Source\PSoC4/I2CM_I2C_INT.c **** 
ARM GAS  C:\Users\LUKASC~1\AppData\Local\Temp\ccGg2PUd.s 			page 27


 802:.\Generated_Source\PSoC4/I2CM_I2C_INT.c ****                         if(0u == (I2CM_INTR_TX_OVERFLOW & I2CM_slOverFlowCount))
 803:.\Generated_Source\PSoC4/I2CM_I2C_INT.c ****                         {
 804:.\Generated_Source\PSoC4/I2CM_I2C_INT.c ****                             /* Get counter in range of byte: value 10 is overflow */
 805:.\Generated_Source\PSoC4/I2CM_I2C_INT.c ****                             I2CM_slOverFlowCount++;
 806:.\Generated_Source\PSoC4/I2CM_I2C_INT.c ****                         }
 807:.\Generated_Source\PSoC4/I2CM_I2C_INT.c ****                     }
 808:.\Generated_Source\PSoC4/I2CM_I2C_INT.c ****                 }
 809:.\Generated_Source\PSoC4/I2CM_I2C_INT.c **** 
 810:.\Generated_Source\PSoC4/I2CM_I2C_INT.c ****                 I2CM_ClearTxInterruptSource(I2CM_INTR_TX_EMPTY);
 811:.\Generated_Source\PSoC4/I2CM_I2C_INT.c ****             }
 812:.\Generated_Source\PSoC4/I2CM_I2C_INT.c **** 
 813:.\Generated_Source\PSoC4/I2CM_I2C_INT.c ****         }  /* (I2CM_I2C_SLAVE) */
 814:.\Generated_Source\PSoC4/I2CM_I2C_INT.c ****         #endif
 815:.\Generated_Source\PSoC4/I2CM_I2C_INT.c ****     }
 816:.\Generated_Source\PSoC4/I2CM_I2C_INT.c **** 
 817:.\Generated_Source\PSoC4/I2CM_I2C_INT.c **** 
 818:.\Generated_Source\PSoC4/I2CM_I2C_INT.c ****     /* FSM EXIT:
 819:.\Generated_Source\PSoC4/I2CM_I2C_INT.c ****     * Slave:  INTR_SLAVE_I2C_BUS_ERROR, INTR_SLAVE_I2C_ARB_LOST
 820:.\Generated_Source\PSoC4/I2CM_I2C_INT.c ****     * Master: INTR_MASTER_I2C_BUS_ERROR, INTR_MASTER_I2C_ARB_LOST.
 821:.\Generated_Source\PSoC4/I2CM_I2C_INT.c ****     */
 822:.\Generated_Source\PSoC4/I2CM_I2C_INT.c ****     else
 823:.\Generated_Source\PSoC4/I2CM_I2C_INT.c ****     {
 824:.\Generated_Source\PSoC4/I2CM_I2C_INT.c ****         I2CM_CTRL_REG &= (uint32) ~I2CM_CTRL_ENABLED; /* Disable scb IP */
 669              		.loc 1 824 0
 670 0412 244B     		ldr	r3, .L45+48
 671 0414 234A     		ldr	r2, .L45+48
 672 0416 1268     		ldr	r2, [r2]
 673 0418 5200     		lsl	r2, r2, #1
 674 041a 5208     		lsr	r2, r2, #1
 675 041c 1A60     		str	r2, [r3]
 825:.\Generated_Source\PSoC4/I2CM_I2C_INT.c **** 
 826:.\Generated_Source\PSoC4/I2CM_I2C_INT.c ****         I2CM_state = I2CM_I2C_FSM_IDLE;
 676              		.loc 1 826 0
 677 041e 1D4B     		ldr	r3, .L45+32
 678 0420 1022     		mov	r2, #16
 679 0422 1A70     		strb	r2, [r3]
 827:.\Generated_Source\PSoC4/I2CM_I2C_INT.c **** 
 828:.\Generated_Source\PSoC4/I2CM_I2C_INT.c ****         I2CM_DISABLE_SLAVE_AUTO_DATA;
 680              		.loc 1 828 0
 681 0424 164B     		ldr	r3, .L45+12
 682 0426 164A     		ldr	r2, .L45+12
 683 0428 1268     		ldr	r2, [r2]
 684 042a 1F49     		ldr	r1, .L45+52
 685 042c 0A40     		and	r2, r1
 686 042e 1A60     		str	r2, [r3]
 829:.\Generated_Source\PSoC4/I2CM_I2C_INT.c ****         I2CM_DISABLE_MASTER_AUTO_DATA;
 687              		.loc 1 829 0
 688 0430 134B     		ldr	r3, .L45+12
 689 0432 134A     		ldr	r2, .L45+12
 690 0434 1268     		ldr	r2, [r2]
 691 0436 1D49     		ldr	r1, .L45+56
 692 0438 0A40     		and	r2, r1
 693 043a 1A60     		str	r2, [r3]
 830:.\Generated_Source\PSoC4/I2CM_I2C_INT.c **** 
 831:.\Generated_Source\PSoC4/I2CM_I2C_INT.c ****     #if(I2CM_CY_SCBIP_V0)
 832:.\Generated_Source\PSoC4/I2CM_I2C_INT.c ****         I2CM_SetRxInterruptMode(I2CM_NO_INTR_SOURCES);
 694              		.loc 1 832 0
ARM GAS  C:\Users\LUKASC~1\AppData\Local\Temp\ccGg2PUd.s 			page 28


 695 043c 124B     		ldr	r3, .L45+20
 696 043e 0022     		mov	r2, #0
 697 0440 1A60     		str	r2, [r3]
 833:.\Generated_Source\PSoC4/I2CM_I2C_INT.c ****         I2CM_SetTxInterruptMode(I2CM_NO_INTR_SOURCES);
 698              		.loc 1 833 0
 699 0442 124B     		ldr	r3, .L45+24
 700 0444 0022     		mov	r2, #0
 701 0446 1A60     		str	r2, [r3]
 834:.\Generated_Source\PSoC4/I2CM_I2C_INT.c **** 
 835:.\Generated_Source\PSoC4/I2CM_I2C_INT.c ****         /* Clear interrupt sources as they are not automatically cleared after SCB is disabled */
 836:.\Generated_Source\PSoC4/I2CM_I2C_INT.c ****         I2CM_ClearTxInterruptSource(I2CM_INTR_RX_ALL);
 702              		.loc 1 836 0
 703 0448 194B     		ldr	r3, .L45+60
 704 044a 1A4A     		ldr	r2, .L45+64
 705 044c 1A60     		str	r2, [r3]
 837:.\Generated_Source\PSoC4/I2CM_I2C_INT.c ****         I2CM_ClearRxInterruptSource(I2CM_INTR_TX_ALL);
 706              		.loc 1 837 0
 707 044e 1A4B     		ldr	r3, .L45+68
 708 0450 1A4A     		ldr	r2, .L45+72
 709 0452 1A60     		str	r2, [r3]
 838:.\Generated_Source\PSoC4/I2CM_I2C_INT.c ****         I2CM_ClearSlaveInterruptSource(I2CM_INTR_SLAVE_ALL);
 710              		.loc 1 838 0
 711 0454 1A4B     		ldr	r3, .L45+76
 712 0456 1B4A     		ldr	r2, .L45+80
 713 0458 1A60     		str	r2, [r3]
 839:.\Generated_Source\PSoC4/I2CM_I2C_INT.c ****         I2CM_ClearMasterInterruptSource(I2CM_INTR_MASTER_ALL);
 714              		.loc 1 839 0
 715 045a 1B4B     		ldr	r3, .L45+84
 716 045c 1B4A     		ldr	r2, .L45+88
 717 045e 1A60     		str	r2, [r3]
 840:.\Generated_Source\PSoC4/I2CM_I2C_INT.c ****     #endif /* (I2CM_CY_SCBIP_V0) */
 841:.\Generated_Source\PSoC4/I2CM_I2C_INT.c **** 
 842:.\Generated_Source\PSoC4/I2CM_I2C_INT.c ****         I2CM_CTRL_REG |= (uint32) I2CM_CTRL_ENABLED;  /* Enable scb IP */
 718              		.loc 1 842 0
 719 0460 104B     		ldr	r3, .L45+48
 720 0462 104A     		ldr	r2, .L45+48
 721 0464 1268     		ldr	r2, [r2]
 722 0466 8021     		mov	r1, #128
 723 0468 0906     		lsl	r1, r1, #24
 724 046a 0A43     		orr	r2, r1
 725 046c 1A60     		str	r2, [r3]
 726              	.L1:
 843:.\Generated_Source\PSoC4/I2CM_I2C_INT.c ****     }
 844:.\Generated_Source\PSoC4/I2CM_I2C_INT.c **** 
 845:.\Generated_Source\PSoC4/I2CM_I2C_INT.c **** #ifdef I2CM_I2C_ISR_EXIT_CALLBACK
 846:.\Generated_Source\PSoC4/I2CM_I2C_INT.c ****     I2CM_I2C_ISR_ExitCallback();
 847:.\Generated_Source\PSoC4/I2CM_I2C_INT.c **** #endif /* I2CM_I2C_ISR_EXIT_CALLBACK */
 848:.\Generated_Source\PSoC4/I2CM_I2C_INT.c ****     
 849:.\Generated_Source\PSoC4/I2CM_I2C_INT.c **** }
 727              		.loc 1 849 0
 728 046e BD46     		mov	sp, r7
 729 0470 02B0     		add	sp, sp, #8
 730              		@ sp needed
 731 0472 80BD     		pop	{r7, pc}
 732              	.L46:
 733              		.align	2
 734              	.L45:
ARM GAS  C:\Users\LUKASC~1\AppData\Local\Temp\ccGg2PUd.s 			page 29


 735 0474 8C0F0740 		.word	1074204556
 736 0478 00000000 		.word	I2CM_mstrWrBufIndexTmp
 737 047c 00000000 		.word	I2CM_mstrWrBufIndex
 738 0480 60000740 		.word	1074200672
 739 0484 FFFEFFFF 		.word	-257
 740 0488 C80F0740 		.word	1074204616
 741 048c 880F0740 		.word	1074204552
 742 0490 00000000 		.word	I2CM_mstrControl
 743 0494 00000000 		.word	I2CM_state
 744 0498 00000000 		.word	I2CM_mstrStatus
 745 049c 68000740 		.word	1074200680
 746 04a0 64000740 		.word	1074200676
 747 04a4 00000740 		.word	1074200576
 748 04a8 FF5FFFFF 		.word	-40961
 749 04ac FFFCFFFF 		.word	-769
 750 04b0 800F0740 		.word	1074204544
 751 04b4 ED0F0000 		.word	4077
 752 04b8 C00F0740 		.word	1074204608
 753 04bc F3070000 		.word	2035
 754 04c0 400F0740 		.word	1074204480
 755 04c4 FF0F0000 		.word	4095
 756 04c8 000F0740 		.word	1074204416
 757 04cc 17030000 		.word	791
 758              		.cfi_endproc
 759              	.LFE0:
 760              		.size	I2CM_I2C_ISR, .-I2CM_I2C_ISR
 761              		.text
 762              	.Letext0:
 763              		.file 2 "Generated_Source\\PSoC4/cytypes.h"
 764              		.file 3 ".\\Generated_Source\\PSoC4\\I2CM_PVT.h"
 765              		.file 4 ".\\Generated_Source\\PSoC4\\I2CM_I2C_PVT.h"
 766              		.section	.debug_info,"",%progbits
 767              	.Ldebug_info0:
 768 0000 87010000 		.4byte	0x187
 769 0004 0400     		.2byte	0x4
 770 0006 00000000 		.4byte	.Ldebug_abbrev0
 771 000a 04       		.byte	0x4
 772 000b 01       		.uleb128 0x1
 773 000c 72010000 		.4byte	.LASF31
 774 0010 01       		.byte	0x1
 775 0011 6D000000 		.4byte	.LASF32
 776 0015 EE000000 		.4byte	.LASF33
 777 0019 00000000 		.4byte	.Ldebug_ranges0+0
 778 001d 00000000 		.4byte	0
 779 0021 00000000 		.4byte	.Ldebug_line0
 780 0025 02       		.uleb128 0x2
 781 0026 01       		.byte	0x1
 782 0027 06       		.byte	0x6
 783 0028 B7020000 		.4byte	.LASF0
 784 002c 02       		.uleb128 0x2
 785 002d 01       		.byte	0x1
 786 002e 08       		.byte	0x8
 787 002f 5D010000 		.4byte	.LASF1
 788 0033 02       		.uleb128 0x2
 789 0034 02       		.byte	0x2
 790 0035 05       		.byte	0x5
 791 0036 A4020000 		.4byte	.LASF2
ARM GAS  C:\Users\LUKASC~1\AppData\Local\Temp\ccGg2PUd.s 			page 30


 792 003a 02       		.uleb128 0x2
 793 003b 02       		.byte	0x2
 794 003c 07       		.byte	0x7
 795 003d 2D000000 		.4byte	.LASF3
 796 0041 02       		.uleb128 0x2
 797 0042 04       		.byte	0x4
 798 0043 05       		.byte	0x5
 799 0044 AE020000 		.4byte	.LASF4
 800 0048 02       		.uleb128 0x2
 801 0049 04       		.byte	0x4
 802 004a 07       		.byte	0x7
 803 004b 0E020000 		.4byte	.LASF5
 804 004f 02       		.uleb128 0x2
 805 0050 08       		.byte	0x8
 806 0051 05       		.byte	0x5
 807 0052 6E020000 		.4byte	.LASF6
 808 0056 02       		.uleb128 0x2
 809 0057 08       		.byte	0x8
 810 0058 07       		.byte	0x7
 811 0059 41020000 		.4byte	.LASF7
 812 005d 03       		.uleb128 0x3
 813 005e 04       		.byte	0x4
 814 005f 05       		.byte	0x5
 815 0060 696E7400 		.ascii	"int\000"
 816 0064 02       		.uleb128 0x2
 817 0065 04       		.byte	0x4
 818 0066 07       		.byte	0x7
 819 0067 20020000 		.4byte	.LASF8
 820 006b 04       		.uleb128 0x4
 821 006c BF000000 		.4byte	.LASF9
 822 0070 02       		.byte	0x2
 823 0071 3801     		.2byte	0x138
 824 0073 2C000000 		.4byte	0x2c
 825 0077 04       		.uleb128 0x4
 826 0078 00020000 		.4byte	.LASF10
 827 007c 02       		.byte	0x2
 828 007d 3901     		.2byte	0x139
 829 007f 3A000000 		.4byte	0x3a
 830 0083 04       		.uleb128 0x4
 831 0084 07020000 		.4byte	.LASF11
 832 0088 02       		.byte	0x2
 833 0089 3A01     		.2byte	0x13a
 834 008b 48000000 		.4byte	0x48
 835 008f 02       		.uleb128 0x2
 836 0090 04       		.byte	0x4
 837 0091 04       		.byte	0x4
 838 0092 67000000 		.4byte	.LASF12
 839 0096 02       		.uleb128 0x2
 840 0097 08       		.byte	0x8
 841 0098 04       		.byte	0x4
 842 0099 6B010000 		.4byte	.LASF13
 843 009d 02       		.uleb128 0x2
 844 009e 01       		.byte	0x1
 845 009f 08       		.byte	0x8
 846 00a0 8E020000 		.4byte	.LASF14
 847 00a4 05       		.uleb128 0x5
 848 00a5 6B000000 		.4byte	0x6b
ARM GAS  C:\Users\LUKASC~1\AppData\Local\Temp\ccGg2PUd.s 			page 31


 849 00a9 05       		.uleb128 0x5
 850 00aa 77000000 		.4byte	0x77
 851 00ae 04       		.uleb128 0x4
 852 00af 00000000 		.4byte	.LASF15
 853 00b3 02       		.byte	0x2
 854 00b4 E401     		.2byte	0x1e4
 855 00b6 BA000000 		.4byte	0xba
 856 00ba 05       		.uleb128 0x5
 857 00bb 83000000 		.4byte	0x83
 858 00bf 04       		.uleb128 0x4
 859 00c0 58020000 		.4byte	.LASF16
 860 00c4 02       		.byte	0x2
 861 00c5 F401     		.2byte	0x1f4
 862 00c7 CB000000 		.4byte	0xcb
 863 00cb 06       		.uleb128 0x6
 864 00cc 04       		.byte	0x4
 865 00cd D1000000 		.4byte	0xd1
 866 00d1 07       		.uleb128 0x7
 867 00d2 02       		.uleb128 0x2
 868 00d3 04       		.byte	0x4
 869 00d4 07       		.byte	0x7
 870 00d5 65020000 		.4byte	.LASF17
 871 00d9 08       		.uleb128 0x8
 872 00da A8000000 		.4byte	.LASF34
 873 00de 01       		.byte	0x1
 874 00df 25       		.byte	0x25
 875 00e0 00000000 		.4byte	.LFB0
 876 00e4 D0040000 		.4byte	.LFE0-.LFB0
 877 00e8 01       		.uleb128 0x1
 878 00e9 9C       		.byte	0x9c
 879 00ea 0B010000 		.4byte	0x10b
 880 00ee 09       		.uleb128 0x9
 881 00ef B5000000 		.4byte	.LASF18
 882 00f3 01       		.byte	0x1
 883 00f4 27       		.byte	0x27
 884 00f5 83000000 		.4byte	0x83
 885 00f9 02       		.uleb128 0x2
 886 00fa 91       		.byte	0x91
 887 00fb 74       		.sleb128 -12
 888 00fc 09       		.uleb128 0x9
 889 00fd 40000000 		.4byte	.LASF19
 890 0101 01       		.byte	0x1
 891 0102 28       		.byte	0x28
 892 0103 83000000 		.4byte	0x83
 893 0107 02       		.uleb128 0x2
 894 0108 91       		.byte	0x91
 895 0109 70       		.sleb128 -16
 896 010a 00       		.byte	0
 897 010b 0A       		.uleb128 0xa
 898 010c C5000000 		.4byte	.LASF20
 899 0110 03       		.byte	0x3
 900 0111 3A       		.byte	0x3a
 901 0112 BF000000 		.4byte	0xbf
 902 0116 0A       		.uleb128 0xa
 903 0117 4C000000 		.4byte	.LASF21
 904 011b 04       		.byte	0x4
 905 011c 1D       		.byte	0x1d
ARM GAS  C:\Users\LUKASC~1\AppData\Local\Temp\ccGg2PUd.s 			page 32


 906 011d A4000000 		.4byte	0xa4
 907 0121 0A       		.uleb128 0xa
 908 0122 57000000 		.4byte	.LASF22
 909 0126 04       		.byte	0x4
 910 0127 30       		.byte	0x30
 911 0128 A9000000 		.4byte	0xa9
 912 012c 0A       		.uleb128 0xa
 913 012d 93020000 		.4byte	.LASF23
 914 0131 04       		.byte	0x4
 915 0132 31       		.byte	0x31
 916 0133 A4000000 		.4byte	0xa4
 917 0137 0A       		.uleb128 0xa
 918 0138 DC000000 		.4byte	.LASF24
 919 013c 04       		.byte	0x4
 920 013d 34       		.byte	0x34
 921 013e 42010000 		.4byte	0x142
 922 0142 06       		.uleb128 0x6
 923 0143 04       		.byte	0x4
 924 0144 A4000000 		.4byte	0xa4
 925 0148 0A       		.uleb128 0xa
 926 0149 06000000 		.4byte	.LASF25
 927 014d 04       		.byte	0x4
 928 014e 35       		.byte	0x35
 929 014f BA000000 		.4byte	0xba
 930 0153 0A       		.uleb128 0xa
 931 0154 19000000 		.4byte	.LASF26
 932 0158 04       		.byte	0x4
 933 0159 36       		.byte	0x36
 934 015a BA000000 		.4byte	0xba
 935 015e 0A       		.uleb128 0xa
 936 015f 7C020000 		.4byte	.LASF27
 937 0163 04       		.byte	0x4
 938 0164 39       		.byte	0x39
 939 0165 42010000 		.4byte	0x142
 940 0169 0A       		.uleb128 0xa
 941 016a 95000000 		.4byte	.LASF28
 942 016e 04       		.byte	0x4
 943 016f 3A       		.byte	0x3a
 944 0170 BA000000 		.4byte	0xba
 945 0174 0A       		.uleb128 0xa
 946 0175 2D020000 		.4byte	.LASF29
 947 0179 04       		.byte	0x4
 948 017a 3B       		.byte	0x3b
 949 017b BA000000 		.4byte	0xba
 950 017f 0A       		.uleb128 0xa
 951 0180 C3020000 		.4byte	.LASF30
 952 0184 04       		.byte	0x4
 953 0185 3C       		.byte	0x3c
 954 0186 BA000000 		.4byte	0xba
 955 018a 00       		.byte	0
 956              		.section	.debug_abbrev,"",%progbits
 957              	.Ldebug_abbrev0:
 958 0000 01       		.uleb128 0x1
 959 0001 11       		.uleb128 0x11
 960 0002 01       		.byte	0x1
 961 0003 25       		.uleb128 0x25
 962 0004 0E       		.uleb128 0xe
ARM GAS  C:\Users\LUKASC~1\AppData\Local\Temp\ccGg2PUd.s 			page 33


 963 0005 13       		.uleb128 0x13
 964 0006 0B       		.uleb128 0xb
 965 0007 03       		.uleb128 0x3
 966 0008 0E       		.uleb128 0xe
 967 0009 1B       		.uleb128 0x1b
 968 000a 0E       		.uleb128 0xe
 969 000b 55       		.uleb128 0x55
 970 000c 17       		.uleb128 0x17
 971 000d 11       		.uleb128 0x11
 972 000e 01       		.uleb128 0x1
 973 000f 10       		.uleb128 0x10
 974 0010 17       		.uleb128 0x17
 975 0011 00       		.byte	0
 976 0012 00       		.byte	0
 977 0013 02       		.uleb128 0x2
 978 0014 24       		.uleb128 0x24
 979 0015 00       		.byte	0
 980 0016 0B       		.uleb128 0xb
 981 0017 0B       		.uleb128 0xb
 982 0018 3E       		.uleb128 0x3e
 983 0019 0B       		.uleb128 0xb
 984 001a 03       		.uleb128 0x3
 985 001b 0E       		.uleb128 0xe
 986 001c 00       		.byte	0
 987 001d 00       		.byte	0
 988 001e 03       		.uleb128 0x3
 989 001f 24       		.uleb128 0x24
 990 0020 00       		.byte	0
 991 0021 0B       		.uleb128 0xb
 992 0022 0B       		.uleb128 0xb
 993 0023 3E       		.uleb128 0x3e
 994 0024 0B       		.uleb128 0xb
 995 0025 03       		.uleb128 0x3
 996 0026 08       		.uleb128 0x8
 997 0027 00       		.byte	0
 998 0028 00       		.byte	0
 999 0029 04       		.uleb128 0x4
 1000 002a 16       		.uleb128 0x16
 1001 002b 00       		.byte	0
 1002 002c 03       		.uleb128 0x3
 1003 002d 0E       		.uleb128 0xe
 1004 002e 3A       		.uleb128 0x3a
 1005 002f 0B       		.uleb128 0xb
 1006 0030 3B       		.uleb128 0x3b
 1007 0031 05       		.uleb128 0x5
 1008 0032 49       		.uleb128 0x49
 1009 0033 13       		.uleb128 0x13
 1010 0034 00       		.byte	0
 1011 0035 00       		.byte	0
 1012 0036 05       		.uleb128 0x5
 1013 0037 35       		.uleb128 0x35
 1014 0038 00       		.byte	0
 1015 0039 49       		.uleb128 0x49
 1016 003a 13       		.uleb128 0x13
 1017 003b 00       		.byte	0
 1018 003c 00       		.byte	0
 1019 003d 06       		.uleb128 0x6
ARM GAS  C:\Users\LUKASC~1\AppData\Local\Temp\ccGg2PUd.s 			page 34


 1020 003e 0F       		.uleb128 0xf
 1021 003f 00       		.byte	0
 1022 0040 0B       		.uleb128 0xb
 1023 0041 0B       		.uleb128 0xb
 1024 0042 49       		.uleb128 0x49
 1025 0043 13       		.uleb128 0x13
 1026 0044 00       		.byte	0
 1027 0045 00       		.byte	0
 1028 0046 07       		.uleb128 0x7
 1029 0047 15       		.uleb128 0x15
 1030 0048 00       		.byte	0
 1031 0049 27       		.uleb128 0x27
 1032 004a 19       		.uleb128 0x19
 1033 004b 00       		.byte	0
 1034 004c 00       		.byte	0
 1035 004d 08       		.uleb128 0x8
 1036 004e 2E       		.uleb128 0x2e
 1037 004f 01       		.byte	0x1
 1038 0050 3F       		.uleb128 0x3f
 1039 0051 19       		.uleb128 0x19
 1040 0052 03       		.uleb128 0x3
 1041 0053 0E       		.uleb128 0xe
 1042 0054 3A       		.uleb128 0x3a
 1043 0055 0B       		.uleb128 0xb
 1044 0056 3B       		.uleb128 0x3b
 1045 0057 0B       		.uleb128 0xb
 1046 0058 27       		.uleb128 0x27
 1047 0059 19       		.uleb128 0x19
 1048 005a 11       		.uleb128 0x11
 1049 005b 01       		.uleb128 0x1
 1050 005c 12       		.uleb128 0x12
 1051 005d 06       		.uleb128 0x6
 1052 005e 40       		.uleb128 0x40
 1053 005f 18       		.uleb128 0x18
 1054 0060 9642     		.uleb128 0x2116
 1055 0062 19       		.uleb128 0x19
 1056 0063 01       		.uleb128 0x1
 1057 0064 13       		.uleb128 0x13
 1058 0065 00       		.byte	0
 1059 0066 00       		.byte	0
 1060 0067 09       		.uleb128 0x9
 1061 0068 34       		.uleb128 0x34
 1062 0069 00       		.byte	0
 1063 006a 03       		.uleb128 0x3
 1064 006b 0E       		.uleb128 0xe
 1065 006c 3A       		.uleb128 0x3a
 1066 006d 0B       		.uleb128 0xb
 1067 006e 3B       		.uleb128 0x3b
 1068 006f 0B       		.uleb128 0xb
 1069 0070 49       		.uleb128 0x49
 1070 0071 13       		.uleb128 0x13
 1071 0072 02       		.uleb128 0x2
 1072 0073 18       		.uleb128 0x18
 1073 0074 00       		.byte	0
 1074 0075 00       		.byte	0
 1075 0076 0A       		.uleb128 0xa
 1076 0077 34       		.uleb128 0x34
ARM GAS  C:\Users\LUKASC~1\AppData\Local\Temp\ccGg2PUd.s 			page 35


 1077 0078 00       		.byte	0
 1078 0079 03       		.uleb128 0x3
 1079 007a 0E       		.uleb128 0xe
 1080 007b 3A       		.uleb128 0x3a
 1081 007c 0B       		.uleb128 0xb
 1082 007d 3B       		.uleb128 0x3b
 1083 007e 0B       		.uleb128 0xb
 1084 007f 49       		.uleb128 0x49
 1085 0080 13       		.uleb128 0x13
 1086 0081 3F       		.uleb128 0x3f
 1087 0082 19       		.uleb128 0x19
 1088 0083 3C       		.uleb128 0x3c
 1089 0084 19       		.uleb128 0x19
 1090 0085 00       		.byte	0
 1091 0086 00       		.byte	0
 1092 0087 00       		.byte	0
 1093              		.section	.debug_aranges,"",%progbits
 1094 0000 1C000000 		.4byte	0x1c
 1095 0004 0200     		.2byte	0x2
 1096 0006 00000000 		.4byte	.Ldebug_info0
 1097 000a 04       		.byte	0x4
 1098 000b 00       		.byte	0
 1099 000c 0000     		.2byte	0
 1100 000e 0000     		.2byte	0
 1101 0010 00000000 		.4byte	.LFB0
 1102 0014 D0040000 		.4byte	.LFE0-.LFB0
 1103 0018 00000000 		.4byte	0
 1104 001c 00000000 		.4byte	0
 1105              		.section	.debug_ranges,"",%progbits
 1106              	.Ldebug_ranges0:
 1107 0000 00000000 		.4byte	.LFB0
 1108 0004 D0040000 		.4byte	.LFE0
 1109 0008 00000000 		.4byte	0
 1110 000c 00000000 		.4byte	0
 1111              		.section	.debug_line,"",%progbits
 1112              	.Ldebug_line0:
 1113 0000 A9010000 		.section	.debug_str,"MS",%progbits,1
 1113      02008200 
 1113      00000201 
 1113      FB0E0D00 
 1113      01010101 
 1114              	.LASF15:
 1115 0000 72656733 		.ascii	"reg32\000"
 1115      3200
 1116              	.LASF25:
 1117 0006 4932434D 		.ascii	"I2CM_mstrRdBufSize\000"
 1117      5F6D7374 
 1117      72526442 
 1117      75665369 
 1117      7A6500
 1118              	.LASF26:
 1119 0019 4932434D 		.ascii	"I2CM_mstrRdBufIndex\000"
 1119      5F6D7374 
 1119      72526442 
 1119      7566496E 
 1119      64657800 
 1120              	.LASF3:
ARM GAS  C:\Users\LUKASC~1\AppData\Local\Temp\ccGg2PUd.s 			page 36


 1121 002d 73686F72 		.ascii	"short unsigned int\000"
 1121      7420756E 
 1121      7369676E 
 1121      65642069 
 1121      6E7400
 1122              	.LASF19:
 1123 0040 656E6454 		.ascii	"endTransfer\000"
 1123      72616E73 
 1123      66657200 
 1124              	.LASF21:
 1125 004c 4932434D 		.ascii	"I2CM_state\000"
 1125      5F737461 
 1125      746500
 1126              	.LASF22:
 1127 0057 4932434D 		.ascii	"I2CM_mstrStatus\000"
 1127      5F6D7374 
 1127      72537461 
 1127      74757300 
 1128              	.LASF12:
 1129 0067 666C6F61 		.ascii	"float\000"
 1129      7400
 1130              	.LASF32:
 1131 006d 2E5C4765 		.ascii	".\\Generated_Source\\PSoC4\\I2CM_I2C_INT.c\000"
 1131      6E657261 
 1131      7465645F 
 1131      536F7572 
 1131      63655C50 
 1132              	.LASF28:
 1133 0095 4932434D 		.ascii	"I2CM_mstrWrBufSize\000"
 1133      5F6D7374 
 1133      72577242 
 1133      75665369 
 1133      7A6500
 1134              	.LASF34:
 1135 00a8 4932434D 		.ascii	"I2CM_I2C_ISR\000"
 1135      5F493243 
 1135      5F495352 
 1135      00
 1136              	.LASF18:
 1137 00b5 64696666 		.ascii	"diffCount\000"
 1137      436F756E 
 1137      7400
 1138              	.LASF9:
 1139 00bf 75696E74 		.ascii	"uint8\000"
 1139      3800
 1140              	.LASF20:
 1141 00c5 4932434D 		.ascii	"I2CM_customIntrHandler\000"
 1141      5F637573 
 1141      746F6D49 
 1141      6E747248 
 1141      616E646C 
 1142              	.LASF24:
 1143 00dc 4932434D 		.ascii	"I2CM_mstrRdBufPtr\000"
 1143      5F6D7374 
 1143      72526442 
 1143      75665074 
 1143      7200
ARM GAS  C:\Users\LUKASC~1\AppData\Local\Temp\ccGg2PUd.s 			page 37


 1144              	.LASF33:
 1145 00ee 433A5C55 		.ascii	"C:\\Users\\Lukas Creutzburg\\Google Drive\\Virtuell"
 1145      73657273 
 1145      5C4C756B 
 1145      61732043 
 1145      72657574 
 1146 011d 65205265 		.ascii	"e Realitaeten\\PSoCWorkspace\\VRProject\\SCB_I2cCom"
 1146      616C6974 
 1146      61657465 
 1146      6E5C5053 
 1146      6F43576F 
 1147 014d 6D4D6173 		.ascii	"mMaster01.cydsn\000"
 1147      74657230 
 1147      312E6379 
 1147      64736E00 
 1148              	.LASF1:
 1149 015d 756E7369 		.ascii	"unsigned char\000"
 1149      676E6564 
 1149      20636861 
 1149      7200
 1150              	.LASF13:
 1151 016b 646F7562 		.ascii	"double\000"
 1151      6C6500
 1152              	.LASF31:
 1153 0172 474E5520 		.ascii	"GNU C 4.9.3 20150303 (release) [ARM/embedded-4_9-br"
 1153      4320342E 
 1153      392E3320 
 1153      32303135 
 1153      30333033 
 1154 01a5 616E6368 		.ascii	"anch revision 221220] -mcpu=cortex-m0 -mthumb -g -O"
 1154      20726576 
 1154      6973696F 
 1154      6E203232 
 1154      31323230 
 1155 01d8 30202D66 		.ascii	"0 -ffunction-sections -ffat-lto-objects\000"
 1155      66756E63 
 1155      74696F6E 
 1155      2D736563 
 1155      74696F6E 
 1156              	.LASF10:
 1157 0200 75696E74 		.ascii	"uint16\000"
 1157      313600
 1158              	.LASF11:
 1159 0207 75696E74 		.ascii	"uint32\000"
 1159      333200
 1160              	.LASF5:
 1161 020e 6C6F6E67 		.ascii	"long unsigned int\000"
 1161      20756E73 
 1161      69676E65 
 1161      6420696E 
 1161      7400
 1162              	.LASF8:
 1163 0220 756E7369 		.ascii	"unsigned int\000"
 1163      676E6564 
 1163      20696E74 
 1163      00
 1164              	.LASF29:
ARM GAS  C:\Users\LUKASC~1\AppData\Local\Temp\ccGg2PUd.s 			page 38


 1165 022d 4932434D 		.ascii	"I2CM_mstrWrBufIndex\000"
 1165      5F6D7374 
 1165      72577242 
 1165      7566496E 
 1165      64657800 
 1166              	.LASF7:
 1167 0241 6C6F6E67 		.ascii	"long long unsigned int\000"
 1167      206C6F6E 
 1167      6720756E 
 1167      7369676E 
 1167      65642069 
 1168              	.LASF16:
 1169 0258 63796973 		.ascii	"cyisraddress\000"
 1169      72616464 
 1169      72657373 
 1169      00
 1170              	.LASF17:
 1171 0265 73697A65 		.ascii	"sizetype\000"
 1171      74797065 
 1171      00
 1172              	.LASF6:
 1173 026e 6C6F6E67 		.ascii	"long long int\000"
 1173      206C6F6E 
 1173      6720696E 
 1173      7400
 1174              	.LASF27:
 1175 027c 4932434D 		.ascii	"I2CM_mstrWrBufPtr\000"
 1175      5F6D7374 
 1175      72577242 
 1175      75665074 
 1175      7200
 1176              	.LASF14:
 1177 028e 63686172 		.ascii	"char\000"
 1177      00
 1178              	.LASF23:
 1179 0293 4932434D 		.ascii	"I2CM_mstrControl\000"
 1179      5F6D7374 
 1179      72436F6E 
 1179      74726F6C 
 1179      00
 1180              	.LASF2:
 1181 02a4 73686F72 		.ascii	"short int\000"
 1181      7420696E 
 1181      7400
 1182              	.LASF4:
 1183 02ae 6C6F6E67 		.ascii	"long int\000"
 1183      20696E74 
 1183      00
 1184              	.LASF0:
 1185 02b7 7369676E 		.ascii	"signed char\000"
 1185      65642063 
 1185      68617200 
 1186              	.LASF30:
 1187 02c3 4932434D 		.ascii	"I2CM_mstrWrBufIndexTmp\000"
 1187      5F6D7374 
 1187      72577242 
 1187      7566496E 
ARM GAS  C:\Users\LUKASC~1\AppData\Local\Temp\ccGg2PUd.s 			page 39


 1187      64657854 
 1188              		.ident	"GCC: (GNU Tools for ARM Embedded Processors) 4.9.3 20150303 (release) [ARM/embedded-4_9-br
