ARM GAS  C:\Users\LUKASC~1\AppData\Local\Temp\ccfpfAmn.s 			page 1


   1              		.syntax unified
   2              		.cpu cortex-m3
   3              		.fpu softvfp
   4              		.eabi_attribute 20, 1
   5              		.eabi_attribute 21, 1
   6              		.eabi_attribute 23, 3
   7              		.eabi_attribute 24, 1
   8              		.eabi_attribute 25, 1
   9              		.eabi_attribute 26, 1
  10              		.eabi_attribute 30, 6
  11              		.eabi_attribute 34, 1
  12              		.eabi_attribute 18, 4
  13              		.thumb
  14              		.file	"main.c"
  15              		.text
  16              	.Ltext0:
  17              		.cfi_sections	.debug_frame
  18              		.comm	txChannel,1,1
  19              		.comm	txTD,1,1
  20              		.comm	rxChannel,1,1
  21              		.comm	rxTD,1,1
  22              		.global	txBuffer
  23              		.data
  24              		.align	2
  25              		.type	txBuffer, %object
  26              		.size	txBuffer, 8
  27              	txBuffer:
  28 0000 00       		.byte	0
  29 0001 01       		.byte	1
  30 0002 02       		.byte	2
  31 0003 03       		.byte	3
  32 0004 04       		.byte	4
  33 0005 05       		.byte	5
  34 0006 06       		.byte	6
  35 0007 07       		.byte	7
  36              		.comm	rxBuffer,8,4
  37              		.section	.rodata
  38              		.align	2
  39              	.LC0:
  40 0000 53504920 		.ascii	"SPI Master\000"
  40      4D617374 
  40      657200
  41 000b 00       		.align	2
  42              	.LC1:
  43 000c 6578616D 		.ascii	"example\000"
  43      706C6500 
  44              		.align	2
  45              	.LC2:
  46 0014 4D617374 		.ascii	"Master Rx data:\000"
  46      65722052 
  46      78206461 
  46      74613A00 
  47              		.section	.text.main,"ax",%progbits
  48              		.align	2
  49              		.global	main
  50              		.thumb
  51              		.thumb_func
ARM GAS  C:\Users\LUKASC~1\AppData\Local\Temp\ccfpfAmn.s 			page 2


  52              		.type	main, %function
  53              	main:
  54              	.LFB63:
  55              		.file 1 ".\\main.c"
   1:.\main.c      **** /*******************************************************************************
   2:.\main.c      **** * File Name: main.c
   3:.\main.c      **** *
   4:.\main.c      **** * Version: 1.10
   5:.\main.c      **** *
   6:.\main.c      **** * Description:
   7:.\main.c      **** *  This is source code for example project of the SPI Master component.
   8:.\main.c      **** *  Parameters used:
   9:.\main.c      **** *   Mode                CPHA == 0, CPOL == 0                
  10:.\main.c      **** *   Data lines          MOSI+MISO
  11:.\main.c      **** *   Shift direction     MSB First
  12:.\main.c      **** *   DataBits:           8 
  13:.\main.c      **** *   Bit Rate            1 Mbps
  14:.\main.c      **** *   Clock source        External 
  15:.\main.c      **** *
  16:.\main.c      **** *  SPI communication test using DMA. 8 bytes are transmitted
  17:.\main.c      **** *  between SPI Master and SPI Slave.
  18:.\main.c      **** *  Received data are displayed on LCD. 
  19:.\main.c      **** *
  20:.\main.c      **** ********************************************************************************
  21:.\main.c      **** * Copyright 2012-2015, Cypress Semiconductor Corporation. All rights reserved.
  22:.\main.c      **** * This software is owned by Cypress Semiconductor Corporation and is protected
  23:.\main.c      **** * by and subject to worldwide patent and copyright laws and treaties.
  24:.\main.c      **** * Therefore, you may use this software only as provided in the license agreement
  25:.\main.c      **** * accompanying the software package from which you obtained this software.
  26:.\main.c      **** * CYPRESS AND ITS SUPPLIERS MAKE NO WARRANTY OF ANY KIND, EXPRESS OR IMPLIED,
  27:.\main.c      **** * WITH REGARD TO THIS SOFTWARE, INCLUDING, BUT NOT LIMITED TO, NONINFRINGEMENT,
  28:.\main.c      **** * IMPLIED WARRANTIES OF MERCHANTABILITY AND FITNESS FOR A PARTICULAR PURPOSE.
  29:.\main.c      **** *******************************************************************************/
  30:.\main.c      **** 
  31:.\main.c      **** #include <project.h>
  32:.\main.c      **** 
  33:.\main.c      **** void DmaTxConfiguration(void);
  34:.\main.c      **** void DmaRxConfiguration(void);
  35:.\main.c      **** 
  36:.\main.c      **** /* DMA Configuration for DMA_TX */
  37:.\main.c      **** #define DMA_TX_BYTES_PER_BURST      (1u)
  38:.\main.c      **** #define DMA_TX_REQUEST_PER_BURST    (1u)
  39:.\main.c      **** #define DMA_TX_SRC_BASE             (CYDEV_SRAM_BASE)
  40:.\main.c      **** #define DMA_TX_DST_BASE             (CYDEV_PERIPH_BASE)
  41:.\main.c      **** 
  42:.\main.c      **** /* DMA Configuration for DMA_RX */
  43:.\main.c      **** #define DMA_RX_BYTES_PER_BURST      (1u)
  44:.\main.c      **** #define DMA_RX_REQUEST_PER_BURST    (1u)
  45:.\main.c      **** #define DMA_RX_SRC_BASE             (CYDEV_PERIPH_BASE)
  46:.\main.c      **** #define DMA_RX_DST_BASE             (CYDEV_SRAM_BASE)
  47:.\main.c      **** 
  48:.\main.c      **** #define BUFFER_SIZE                 (8u)
  49:.\main.c      **** #define STORE_TD_CFG_ONCMPLT        (1u)
  50:.\main.c      **** 
  51:.\main.c      **** /* Variable declarations for DMA_TX*/
  52:.\main.c      **** uint8 txChannel;
  53:.\main.c      **** uint8 txTD;
ARM GAS  C:\Users\LUKASC~1\AppData\Local\Temp\ccfpfAmn.s 			page 3


  54:.\main.c      **** 
  55:.\main.c      **** /* Variable declarations for DMA_RX */
  56:.\main.c      **** uint8 rxChannel;
  57:.\main.c      **** uint8 rxTD;
  58:.\main.c      **** 
  59:.\main.c      **** /* Data buffers */
  60:.\main.c      **** uint8 txBuffer [BUFFER_SIZE] = {0x0u, 0x01u, 0x02u, 0x03u, 0x04u, 0x05u, 0x06u, 0x07u};
  61:.\main.c      **** uint8 rxBuffer[BUFFER_SIZE];
  62:.\main.c      **** 
  63:.\main.c      **** /*******************************************************************************
  64:.\main.c      **** * Function Name: main
  65:.\main.c      **** ********************************************************************************
  66:.\main.c      **** * Summary:
  67:.\main.c      **** *  Main function performs following functions:
  68:.\main.c      **** *   1. Starts Character LCD and print project info
  69:.\main.c      **** *   2. Starts SPI Master component
  70:.\main.c      **** *   3. Configures the DMA transfer for RX and TX directions
  71:.\main.c      **** *   4. Displays the results on Character LCD
  72:.\main.c      **** *   
  73:.\main.c      **** * Parameters:
  74:.\main.c      **** *  None.
  75:.\main.c      **** *
  76:.\main.c      **** * Return:
  77:.\main.c      **** *  None.
  78:.\main.c      **** *
  79:.\main.c      **** *******************************************************************************/
  80:.\main.c      **** int main()
  81:.\main.c      **** {
  56              		.loc 1 81 0
  57              		.cfi_startproc
  58              		@ args = 0, pretend = 0, frame = 8
  59              		@ frame_needed = 1, uses_anonymous_args = 0
  60 0000 80B5     		push	{r7, lr}
  61              		.cfi_def_cfa_offset 8
  62              		.cfi_offset 7, -8
  63              		.cfi_offset 14, -4
  64 0002 82B0     		sub	sp, sp, #8
  65              		.cfi_def_cfa_offset 16
  66 0004 00AF     		add	r7, sp, #0
  67              		.cfi_def_cfa_register 7
  82:.\main.c      ****     uint8 i;
  83:.\main.c      ****     
  84:.\main.c      ****     LCD_Start();
  68              		.loc 1 84 0
  69 0006 FFF7FEFF 		bl	LCD_Start
  85:.\main.c      ****     LCD_Position(0u,0u);
  70              		.loc 1 85 0
  71 000a 0020     		movs	r0, #0
  72 000c 0021     		movs	r1, #0
  73 000e FFF7FEFF 		bl	LCD_Position
  86:.\main.c      ****     LCD_PrintString("SPI Master");
  74              		.loc 1 86 0
  75 0012 2148     		ldr	r0, .L6
  76 0014 FFF7FEFF 		bl	LCD_PrintString
  87:.\main.c      ****     LCD_Position(1u,0u);
  77              		.loc 1 87 0
  78 0018 0120     		movs	r0, #1
ARM GAS  C:\Users\LUKASC~1\AppData\Local\Temp\ccfpfAmn.s 			page 4


  79 001a 0021     		movs	r1, #0
  80 001c FFF7FEFF 		bl	LCD_Position
  88:.\main.c      ****     LCD_PrintString("example");
  81              		.loc 1 88 0
  82 0020 1E48     		ldr	r0, .L6+4
  83 0022 FFF7FEFF 		bl	LCD_PrintString
  89:.\main.c      ****     CyDelay(2000u);
  84              		.loc 1 89 0
  85 0026 4FF4FA60 		mov	r0, #2000
  86 002a FFF7FEFF 		bl	CyDelay
  90:.\main.c      ****     
  91:.\main.c      ****     DmaTxConfiguration();
  87              		.loc 1 91 0
  88 002e FFF7FEFF 		bl	DmaTxConfiguration
  92:.\main.c      ****     DmaRxConfiguration();
  89              		.loc 1 92 0
  90 0032 FFF7FEFF 		bl	DmaRxConfiguration
  93:.\main.c      ****     
  94:.\main.c      ****     SPIM_Start();
  91              		.loc 1 94 0
  92 0036 FFF7FEFF 		bl	SPIM_Start
  95:.\main.c      ****     
  96:.\main.c      ****     CyDmaChEnable(rxChannel, STORE_TD_CFG_ONCMPLT);
  93              		.loc 1 96 0
  94 003a 194B     		ldr	r3, .L6+8
  95 003c 1B78     		ldrb	r3, [r3]	@ zero_extendqisi2
  96 003e 1846     		mov	r0, r3
  97 0040 0121     		movs	r1, #1
  98 0042 FFF7FEFF 		bl	CyDmaChEnable
  97:.\main.c      ****     CyDmaChEnable(txChannel, STORE_TD_CFG_ONCMPLT);
  99              		.loc 1 97 0
 100 0046 174B     		ldr	r3, .L6+12
 101 0048 1B78     		ldrb	r3, [r3]	@ zero_extendqisi2
 102 004a 1846     		mov	r0, r3
 103 004c 0121     		movs	r1, #1
 104 004e FFF7FEFF 		bl	CyDmaChEnable
  98:.\main.c      **** 
  99:.\main.c      ****     while (0u == (SPIM_ReadTxStatus() & SPIM_STS_SPI_DONE))
 105              		.loc 1 99 0
 106 0052 00BF     		nop
 107              	.L2:
 108              		.loc 1 99 0 is_stmt 0 discriminator 1
 109 0054 FFF7FEFF 		bl	SPIM_ReadTxStatus
 110 0058 0346     		mov	r3, r0
 111 005a 03F00103 		and	r3, r3, #1
 112 005e 002B     		cmp	r3, #0
 113 0060 F8D0     		beq	.L2
 100:.\main.c      ****     {
 101:.\main.c      ****     }
 102:.\main.c      ****     
 103:.\main.c      ****     LCD_ClearDisplay();
 114              		.loc 1 103 0 is_stmt 1
 115 0062 0120     		movs	r0, #1
 116 0064 FFF7FEFF 		bl	LCD_WriteControl
 104:.\main.c      ****     LCD_PrintString("Master Rx data:");
 117              		.loc 1 104 0
 118 0068 0F48     		ldr	r0, .L6+16
ARM GAS  C:\Users\LUKASC~1\AppData\Local\Temp\ccfpfAmn.s 			page 5


 119 006a FFF7FEFF 		bl	LCD_PrintString
 105:.\main.c      ****     LCD_Position(1u,0u);
 120              		.loc 1 105 0
 121 006e 0120     		movs	r0, #1
 122 0070 0021     		movs	r1, #0
 123 0072 FFF7FEFF 		bl	LCD_Position
 106:.\main.c      ****     
 107:.\main.c      ****     for(i=0u; i<BUFFER_SIZE; i++)
 124              		.loc 1 107 0
 125 0076 0023     		movs	r3, #0
 126 0078 FB71     		strb	r3, [r7, #7]
 127 007a 08E0     		b	.L3
 128              	.L4:
 108:.\main.c      ****     {
 109:.\main.c      ****         LCD_PrintHexUint8(rxBuffer[i]);
 129              		.loc 1 109 0 discriminator 3
 130 007c FB79     		ldrb	r3, [r7, #7]	@ zero_extendqisi2
 131 007e 0B4A     		ldr	r2, .L6+20
 132 0080 D35C     		ldrb	r3, [r2, r3]	@ zero_extendqisi2
 133 0082 1846     		mov	r0, r3
 134 0084 FFF7FEFF 		bl	LCD_PrintInt8
 107:.\main.c      ****     {
 135              		.loc 1 107 0 discriminator 3
 136 0088 FB79     		ldrb	r3, [r7, #7]	@ zero_extendqisi2
 137 008a 0133     		adds	r3, r3, #1
 138 008c FB71     		strb	r3, [r7, #7]
 139              	.L3:
 107:.\main.c      ****     {
 140              		.loc 1 107 0 is_stmt 0 discriminator 1
 141 008e FB79     		ldrb	r3, [r7, #7]	@ zero_extendqisi2
 142 0090 072B     		cmp	r3, #7
 143 0092 F3D9     		bls	.L4
 144              	.L5:
 110:.\main.c      ****     }
 111:.\main.c      **** 
 112:.\main.c      ****     for(;;)
 113:.\main.c      ****     {
 114:.\main.c      ****     }
 145              		.loc 1 114 0 is_stmt 1 discriminator 1
 146 0094 FEE7     		b	.L5
 147              	.L7:
 148 0096 00BF     		.align	2
 149              	.L6:
 150 0098 00000000 		.word	.LC0
 151 009c 0C000000 		.word	.LC1
 152 00a0 00000000 		.word	rxChannel
 153 00a4 00000000 		.word	txChannel
 154 00a8 14000000 		.word	.LC2
 155 00ac 00000000 		.word	rxBuffer
 156              		.cfi_endproc
 157              	.LFE63:
 158              		.size	main, .-main
 159              		.section	.text.DmaTxConfiguration,"ax",%progbits
 160              		.align	2
 161              		.global	DmaTxConfiguration
 162              		.thumb
 163              		.thumb_func
ARM GAS  C:\Users\LUKASC~1\AppData\Local\Temp\ccfpfAmn.s 			page 6


 164              		.type	DmaTxConfiguration, %function
 165              	DmaTxConfiguration:
 166              	.LFB64:
 115:.\main.c      **** }
 116:.\main.c      **** 
 117:.\main.c      ****     
 118:.\main.c      **** /*******************************************************************************
 119:.\main.c      **** * Function Name: DmaTxConfiguration
 120:.\main.c      **** ********************************************************************************
 121:.\main.c      **** * Summary:
 122:.\main.c      **** *  Configures the DMA transfer for TX direction
 123:.\main.c      **** *   
 124:.\main.c      **** * Parameters:
 125:.\main.c      **** *  None.
 126:.\main.c      **** *
 127:.\main.c      **** * Return:
 128:.\main.c      **** *  None.
 129:.\main.c      **** *
 130:.\main.c      **** *******************************************************************************/
 131:.\main.c      **** void DmaTxConfiguration()
 132:.\main.c      **** {
 167              		.loc 1 132 0
 168              		.cfi_startproc
 169              		@ args = 0, pretend = 0, frame = 0
 170              		@ frame_needed = 1, uses_anonymous_args = 0
 171 0000 80B5     		push	{r7, lr}
 172              		.cfi_def_cfa_offset 8
 173              		.cfi_offset 7, -8
 174              		.cfi_offset 14, -4
 175 0002 00AF     		add	r7, sp, #0
 176              		.cfi_def_cfa_register 7
 133:.\main.c      ****     /* Init DMA, 1 byte bursts, each burst requires a request */ 
 134:.\main.c      ****     txChannel = DMA_TX_DmaInitialize(DMA_TX_BYTES_PER_BURST, DMA_TX_REQUEST_PER_BURST, 
 177              		.loc 1 134 0
 178 0004 0120     		movs	r0, #1
 179 0006 0121     		movs	r1, #1
 180 0008 41F6FF72 		movw	r2, #8191
 181 000c 4FF48043 		mov	r3, #16384
 182 0010 FFF7FEFF 		bl	DMA_TX_DmaInitialize
 183 0014 0346     		mov	r3, r0
 184 0016 1A46     		mov	r2, r3
 185 0018 114B     		ldr	r3, .L9
 186 001a 1A70     		strb	r2, [r3]
 135:.\main.c      ****                                         HI16(DMA_TX_SRC_BASE), HI16(DMA_TX_DST_BASE));
 136:.\main.c      **** 
 137:.\main.c      ****     txTD = CyDmaTdAllocate();
 187              		.loc 1 137 0
 188 001c FFF7FEFF 		bl	CyDmaTdAllocate
 189 0020 0346     		mov	r3, r0
 190 0022 1A46     		mov	r2, r3
 191 0024 0F4B     		ldr	r3, .L9+4
 192 0026 1A70     		strb	r2, [r3]
 138:.\main.c      **** 
 139:.\main.c      ****     /* Configure this Td as follows:
 140:.\main.c      ****     *  - Increment the source address, but not the destination address   
 141:.\main.c      ****     */
 142:.\main.c      ****     CyDmaTdSetConfiguration(txTD, BUFFER_SIZE, CY_DMA_DISABLE_TD, TD_INC_SRC_ADR);
ARM GAS  C:\Users\LUKASC~1\AppData\Local\Temp\ccfpfAmn.s 			page 7


 193              		.loc 1 142 0
 194 0028 0E4B     		ldr	r3, .L9+4
 195 002a 1B78     		ldrb	r3, [r3]	@ zero_extendqisi2
 196 002c 1846     		mov	r0, r3
 197 002e 0821     		movs	r1, #8
 198 0030 FE22     		movs	r2, #254
 199 0032 0123     		movs	r3, #1
 200 0034 FFF7FEFF 		bl	CyDmaTdSetConfiguration
 143:.\main.c      **** 
 144:.\main.c      ****     /* From the memory to the SPIM */
 145:.\main.c      ****     CyDmaTdSetAddress(txTD, LO16((uint32)txBuffer), LO16((uint32) SPIM_TXDATA_PTR));
 201              		.loc 1 145 0
 202 0038 0A4B     		ldr	r3, .L9+4
 203 003a 1A78     		ldrb	r2, [r3]	@ zero_extendqisi2
 204 003c 0A4B     		ldr	r3, .L9+8
 205 003e 9BB2     		uxth	r3, r3
 206 0040 1046     		mov	r0, r2
 207 0042 1946     		mov	r1, r3
 208 0044 46F24542 		movw	r2, #25669
 209 0048 FFF7FEFF 		bl	CyDmaTdSetAddress
 146:.\main.c      ****     
 147:.\main.c      ****     /* Associate the TD with the channel */
 148:.\main.c      ****     CyDmaChSetInitialTd(txChannel, txTD); 
 210              		.loc 1 148 0
 211 004c 044B     		ldr	r3, .L9
 212 004e 1A78     		ldrb	r2, [r3]	@ zero_extendqisi2
 213 0050 044B     		ldr	r3, .L9+4
 214 0052 1B78     		ldrb	r3, [r3]	@ zero_extendqisi2
 215 0054 1046     		mov	r0, r2
 216 0056 1946     		mov	r1, r3
 217 0058 FFF7FEFF 		bl	CyDmaChSetInitialTd
 149:.\main.c      **** }    
 218              		.loc 1 149 0
 219 005c 80BD     		pop	{r7, pc}
 220              	.L10:
 221 005e 00BF     		.align	2
 222              	.L9:
 223 0060 00000000 		.word	txChannel
 224 0064 00000000 		.word	txTD
 225 0068 00000000 		.word	txBuffer
 226              		.cfi_endproc
 227              	.LFE64:
 228              		.size	DmaTxConfiguration, .-DmaTxConfiguration
 229              		.section	.text.DmaRxConfiguration,"ax",%progbits
 230              		.align	2
 231              		.global	DmaRxConfiguration
 232              		.thumb
 233              		.thumb_func
 234              		.type	DmaRxConfiguration, %function
 235              	DmaRxConfiguration:
 236              	.LFB65:
 150:.\main.c      **** 
 151:.\main.c      **** 
 152:.\main.c      **** /*******************************************************************************
 153:.\main.c      **** * Function Name: DmaRxConfiguration
 154:.\main.c      **** ********************************************************************************
 155:.\main.c      **** * Summary:
ARM GAS  C:\Users\LUKASC~1\AppData\Local\Temp\ccfpfAmn.s 			page 8


 156:.\main.c      **** *  Configures the DMA transfer for RX direction
 157:.\main.c      **** *   
 158:.\main.c      **** * Parameters:
 159:.\main.c      **** *  None.
 160:.\main.c      **** *
 161:.\main.c      **** * Return:
 162:.\main.c      **** *  None.
 163:.\main.c      **** *
 164:.\main.c      **** *******************************************************************************/
 165:.\main.c      **** void DmaRxConfiguration()
 166:.\main.c      **** { 
 237              		.loc 1 166 0
 238              		.cfi_startproc
 239              		@ args = 0, pretend = 0, frame = 0
 240              		@ frame_needed = 1, uses_anonymous_args = 0
 241 0000 80B5     		push	{r7, lr}
 242              		.cfi_def_cfa_offset 8
 243              		.cfi_offset 7, -8
 244              		.cfi_offset 14, -4
 245 0002 00AF     		add	r7, sp, #0
 246              		.cfi_def_cfa_register 7
 167:.\main.c      ****     /* Init DMA, 1 byte bursts, each burst requires a request */ 
 168:.\main.c      ****     rxChannel = DMA_RX_DmaInitialize(DMA_RX_BYTES_PER_BURST, DMA_RX_REQUEST_PER_BURST,
 247              		.loc 1 168 0
 248 0004 0120     		movs	r0, #1
 249 0006 0121     		movs	r1, #1
 250 0008 4FF48042 		mov	r2, #16384
 251 000c 41F6FF73 		movw	r3, #8191
 252 0010 FFF7FEFF 		bl	DMA_RX_DmaInitialize
 253 0014 0346     		mov	r3, r0
 254 0016 1A46     		mov	r2, r3
 255 0018 114B     		ldr	r3, .L12
 256 001a 1A70     		strb	r2, [r3]
 169:.\main.c      ****                                      HI16(DMA_RX_SRC_BASE), HI16(DMA_RX_DST_BASE));
 170:.\main.c      **** 
 171:.\main.c      ****     rxTD = CyDmaTdAllocate();
 257              		.loc 1 171 0
 258 001c FFF7FEFF 		bl	CyDmaTdAllocate
 259 0020 0346     		mov	r3, r0
 260 0022 1A46     		mov	r2, r3
 261 0024 0F4B     		ldr	r3, .L12+4
 262 0026 1A70     		strb	r2, [r3]
 172:.\main.c      ****     
 173:.\main.c      ****     /* Configure this Td as follows:
 174:.\main.c      ****     *  - Increment the destination address, but not the source address
 175:.\main.c      ****     */
 176:.\main.c      ****     CyDmaTdSetConfiguration(rxTD, BUFFER_SIZE, CY_DMA_DISABLE_TD, TD_INC_DST_ADR);
 263              		.loc 1 176 0
 264 0028 0E4B     		ldr	r3, .L12+4
 265 002a 1B78     		ldrb	r3, [r3]	@ zero_extendqisi2
 266 002c 1846     		mov	r0, r3
 267 002e 0821     		movs	r1, #8
 268 0030 FE22     		movs	r2, #254
 269 0032 0223     		movs	r3, #2
 270 0034 FFF7FEFF 		bl	CyDmaTdSetConfiguration
 177:.\main.c      **** 
 178:.\main.c      ****     /* From the SPIM to the memory */
ARM GAS  C:\Users\LUKASC~1\AppData\Local\Temp\ccfpfAmn.s 			page 9


 179:.\main.c      ****     CyDmaTdSetAddress(rxTD, LO16((uint32)SPIM_RXDATA_PTR), LO16((uint32)rxBuffer));
 271              		.loc 1 179 0
 272 0038 0A4B     		ldr	r3, .L12+4
 273 003a 1A78     		ldrb	r2, [r3]	@ zero_extendqisi2
 274 003c 0A4B     		ldr	r3, .L12+8
 275 003e 9BB2     		uxth	r3, r3
 276 0040 1046     		mov	r0, r2
 277 0042 46F25541 		movw	r1, #25685
 278 0046 1A46     		mov	r2, r3
 279 0048 FFF7FEFF 		bl	CyDmaTdSetAddress
 180:.\main.c      **** 
 181:.\main.c      ****     /* Associate the TD with the channel */
 182:.\main.c      ****     CyDmaChSetInitialTd(rxChannel, rxTD);
 280              		.loc 1 182 0
 281 004c 044B     		ldr	r3, .L12
 282 004e 1A78     		ldrb	r2, [r3]	@ zero_extendqisi2
 283 0050 044B     		ldr	r3, .L12+4
 284 0052 1B78     		ldrb	r3, [r3]	@ zero_extendqisi2
 285 0054 1046     		mov	r0, r2
 286 0056 1946     		mov	r1, r3
 287 0058 FFF7FEFF 		bl	CyDmaChSetInitialTd
 183:.\main.c      **** }
 288              		.loc 1 183 0
 289 005c 80BD     		pop	{r7, pc}
 290              	.L13:
 291 005e 00BF     		.align	2
 292              	.L12:
 293 0060 00000000 		.word	rxChannel
 294 0064 00000000 		.word	rxTD
 295 0068 00000000 		.word	rxBuffer
 296              		.cfi_endproc
 297              	.LFE65:
 298              		.size	DmaRxConfiguration, .-DmaRxConfiguration
 299              		.text
 300              	.Letext0:
 301              		.file 2 "c:\\program files (x86)\\cypress\\psoc creator\\3.3\\psoc creator\\import\\gnu\\arm\\4.9.
 302              		.file 3 "c:\\program files (x86)\\cypress\\psoc creator\\3.3\\psoc creator\\import\\gnu\\arm\\4.9.
 303              		.file 4 "Generated_Source\\PSoC5/cytypes.h"
 304              		.file 5 "Generated_Source\\PSoC5/core_cm3.h"