ARM GAS  C:\Users\LUKASC~1\AppData\Local\Temp\ccCyl6lJ.s 			page 1


   1              		.syntax unified
   2              		.cpu cortex-m3
   3              		.fpu softvfp
   4              		.eabi_attribute 20, 1
   5              		.eabi_attribute 21, 1
   6              		.eabi_attribute 23, 3
   7              		.eabi_attribute 24, 1
   8              		.eabi_attribute 25, 1
   9              		.eabi_attribute 26, 1
  10              		.eabi_attribute 30, 6
  11              		.eabi_attribute 34, 1
  12              		.eabi_attribute 18, 4
  13              		.thumb
  14              		.file	"main.c"
  15              		.text
  16              	.Ltext0:
  17              		.cfi_sections	.debug_frame
  18              		.comm	txChannel,1,1
  19              		.comm	rxChannel,1,1
  20              		.comm	txTD,1,1
  21              		.comm	rxTD,1,1
  22              		.global	txBuffer
  23              		.data
  24              		.align	2
  25              		.type	txBuffer, %object
  26              		.size	txBuffer, 7
  27              	txBuffer:
  28 0000 09       		.byte	9
  29 0001 0A       		.byte	10
  30 0002 0B       		.byte	11
  31 0003 0C       		.byte	12
  32 0004 0D       		.byte	13
  33 0005 0E       		.byte	14
  34 0006 0F       		.byte	15
  35              		.comm	rxBuffer,8,4
  36 0007 00       		.section	.rodata
  37              		.align	2
  38              	.LC0:
  39 0000 53504920 		.ascii	"SPI Slave\000"
  39      536C6176 
  39      6500
  40 000a 0000     		.align	2
  41              	.LC1:
  42 000c 6578616D 		.ascii	"example\000"
  42      706C6500 
  43              		.align	2
  44              	.LC2:
  45 0014 536C6176 		.ascii	"Slave Rx data:\000"
  45      65205278 
  45      20646174 
  45      613A00
  46 0023 00       		.section	.text.main,"ax",%progbits
  47              		.align	2
  48              		.global	main
  49              		.thumb
  50              		.thumb_func
  51              		.type	main, %function
ARM GAS  C:\Users\LUKASC~1\AppData\Local\Temp\ccCyl6lJ.s 			page 2


  52              	main:
  53              	.LFB63:
  54              		.file 1 ".\\main.c"
   1:.\main.c      **** /*******************************************************************************
   2:.\main.c      **** * File Name: main.c
   3:.\main.c      **** *
   4:.\main.c      **** * Version: 1.10
   5:.\main.c      **** *
   6:.\main.c      **** * Description:
   7:.\main.c      **** *  This is source code for example project of the SPI
   8:.\main.c      **** *  Slave component.
   9:.\main.c      **** *  Parameters used:
  10:.\main.c      **** *   Mode                CPHA == 0, CPOL == 0                
  11:.\main.c      **** *   Data lines          MOSI+MISO
  12:.\main.c      **** *   Shift direction     MSB First
  13:.\main.c      **** *   DataBits:           8 
  14:.\main.c      **** *   Bit Rate            1Mbit
  15:.\main.c      **** *   Clock source        External 
  16:.\main.c      **** *
  17:.\main.c      **** *  SPI communication test using DMA. 8 bytes are transmitted
  18:.\main.c      **** *  between SPI Master and SPI Slave.
  19:.\main.c      **** *  Transmitted and received data are displayed on LCD. 
  20:.\main.c      **** *
  21:.\main.c      **** ********************************************************************************
  22:.\main.c      **** * Copyright 2012-2015, Cypress Semiconductor Corporation. All rights reserved.
  23:.\main.c      **** * This software is owned by Cypress Semiconductor Corporation and is protected
  24:.\main.c      **** * by and subject to worldwide patent and copyright laws and treaties.
  25:.\main.c      **** * Therefore, you may use this software only as provided in the license agreement
  26:.\main.c      **** * accompanying the software package from which you obtained this software.
  27:.\main.c      **** * CYPRESS AND ITS SUPPLIERS MAKE NO WARRANTY OF ANY KIND, EXPRESS OR IMPLIED,
  28:.\main.c      **** * WITH REGARD TO THIS SOFTWARE, INCLUDING, BUT NOT LIMITED TO, NONINFRINGEMENT,
  29:.\main.c      **** * IMPLIED WARRANTIES OF MERCHANTABILITY AND FITNESS FOR A PARTICULAR PURPOSE.
  30:.\main.c      **** *******************************************************************************/
  31:.\main.c      **** 
  32:.\main.c      **** #include <project.h>
  33:.\main.c      **** 
  34:.\main.c      **** void DmaTxConfiguration(void);
  35:.\main.c      **** void DmaRxConfiguration(void);
  36:.\main.c      **** 
  37:.\main.c      **** /* DMA Configuration for DMA_TX */
  38:.\main.c      **** #define DMA_TX_BYTES_PER_BURST      (1u)
  39:.\main.c      **** #define DMA_TX_REQUEST_PER_BURST    (1u)
  40:.\main.c      **** #define DMA_TX_SRC_BASE             (CYDEV_SRAM_BASE)
  41:.\main.c      **** #define DMA_TX_DST_BASE             (CYDEV_PERIPH_BASE)
  42:.\main.c      **** 
  43:.\main.c      **** /* DMA Configuration for DMA_RX */
  44:.\main.c      **** #define DMA_RX_BYTES_PER_BURST      (1u)
  45:.\main.c      **** #define DMA_RX_REQUEST_PER_BURST    (1u)
  46:.\main.c      **** #define DMA_RX_SRC_BASE             (CYDEV_PERIPH_BASE)
  47:.\main.c      **** #define DMA_RX_DST_BASE             (CYDEV_SRAM_BASE)
  48:.\main.c      **** 
  49:.\main.c      **** #define BUFFER_SIZE                 (8u)
  50:.\main.c      **** #define STORE_TD_CFG_ONCMPLT        (1u)
  51:.\main.c      **** 
  52:.\main.c      **** /* Variable declarations for DMA_TX and DMA_RX*/
  53:.\main.c      **** uint8 txChannel, rxChannel;
  54:.\main.c      **** uint8 txTD, rxTD;
ARM GAS  C:\Users\LUKASC~1\AppData\Local\Temp\ccCyl6lJ.s 			page 3


  55:.\main.c      **** 
  56:.\main.c      **** /* The txBuffer size is equal (BUFFER_SIZE-1) because for SPI Mode where CPHA == 0 and
  57:.\main.c      **** * CPOL == 0 one byte writes directly in SPI TX FIFO using SPIS_WriteTxDataZero() API.
  58:.\main.c      **** */
  59:.\main.c      **** uint8 txBuffer [BUFFER_SIZE-1] = {0x09u, 0x0Au, 0x0Bu, 0x0Cu, 0x0Du, 0x0Eu, 0x0Fu};
  60:.\main.c      **** uint8 rxBuffer [BUFFER_SIZE];
  61:.\main.c      **** 
  62:.\main.c      **** 
  63:.\main.c      **** /*******************************************************************************
  64:.\main.c      **** * Function Name: main
  65:.\main.c      **** ********************************************************************************
  66:.\main.c      **** * Summary:
  67:.\main.c      **** *  Main function performs following functions:
  68:.\main.c      **** *   1. Starts Character LCD and print project info
  69:.\main.c      **** *   2. Starts SPI Slave component
  70:.\main.c      **** *   3. Configures the DMA transfer for RX and TX directions
  71:.\main.c      **** *   4. Displays the results on Character LCD
  72:.\main.c      **** *   
  73:.\main.c      **** * Parameters:
  74:.\main.c      **** *  None.
  75:.\main.c      **** *
  76:.\main.c      **** * Return:
  77:.\main.c      **** *  None.
  78:.\main.c      **** *
  79:.\main.c      **** *******************************************************************************/
  80:.\main.c      **** int main()
  81:.\main.c      **** {
  55              		.loc 1 81 0
  56              		.cfi_startproc
  57              		@ args = 0, pretend = 0, frame = 8
  58              		@ frame_needed = 1, uses_anonymous_args = 0
  59 0000 80B5     		push	{r7, lr}
  60              		.cfi_def_cfa_offset 8
  61              		.cfi_offset 7, -8
  62              		.cfi_offset 14, -4
  63 0002 82B0     		sub	sp, sp, #8
  64              		.cfi_def_cfa_offset 16
  65 0004 00AF     		add	r7, sp, #0
  66              		.cfi_def_cfa_register 7
  82:.\main.c      ****     uint8 i;
  83:.\main.c      ****     
  84:.\main.c      ****     DmaTxConfiguration();
  67              		.loc 1 84 0
  68 0006 FFF7FEFF 		bl	DmaTxConfiguration
  85:.\main.c      ****     DmaRxConfiguration();
  69              		.loc 1 85 0
  70 000a FFF7FEFF 		bl	DmaRxConfiguration
  86:.\main.c      **** 
  87:.\main.c      ****     SPIS_Start();
  71              		.loc 1 87 0
  72 000e FFF7FEFF 		bl	SPIS_Start
  88:.\main.c      ****     SPIS_WriteTxDataZero(0x00u);
  73              		.loc 1 88 0
  74 0012 0020     		movs	r0, #0
  75 0014 FFF7FEFF 		bl	SPIS_WriteTxDataZero
  89:.\main.c      ****     
  90:.\main.c      ****     CyDmaChEnable(rxChannel, STORE_TD_CFG_ONCMPLT);
ARM GAS  C:\Users\LUKASC~1\AppData\Local\Temp\ccCyl6lJ.s 			page 4


  76              		.loc 1 90 0
  77 0018 204B     		ldr	r3, .L6
  78 001a 1B78     		ldrb	r3, [r3]	@ zero_extendqisi2
  79 001c 1846     		mov	r0, r3
  80 001e 0121     		movs	r1, #1
  81 0020 FFF7FEFF 		bl	CyDmaChEnable
  91:.\main.c      ****     CyDmaChEnable(txChannel, STORE_TD_CFG_ONCMPLT);   
  82              		.loc 1 91 0
  83 0024 1E4B     		ldr	r3, .L6+4
  84 0026 1B78     		ldrb	r3, [r3]	@ zero_extendqisi2
  85 0028 1846     		mov	r0, r3
  86 002a 0121     		movs	r1, #1
  87 002c FFF7FEFF 		bl	CyDmaChEnable
  92:.\main.c      ****     
  93:.\main.c      ****     LCD_Start();
  88              		.loc 1 93 0
  89 0030 FFF7FEFF 		bl	LCD_Start
  94:.\main.c      ****     LCD_Position(0u,0u);
  90              		.loc 1 94 0
  91 0034 0020     		movs	r0, #0
  92 0036 0021     		movs	r1, #0
  93 0038 FFF7FEFF 		bl	LCD_Position
  95:.\main.c      ****     LCD_PrintString("SPI Slave");
  94              		.loc 1 95 0
  95 003c 1948     		ldr	r0, .L6+8
  96 003e FFF7FEFF 		bl	LCD_PrintString
  96:.\main.c      ****     LCD_Position(1u,0u);
  97              		.loc 1 96 0
  98 0042 0120     		movs	r0, #1
  99 0044 0021     		movs	r1, #0
 100 0046 FFF7FEFF 		bl	LCD_Position
  97:.\main.c      ****     LCD_PrintString("example");
 101              		.loc 1 97 0
 102 004a 1748     		ldr	r0, .L6+12
 103 004c FFF7FEFF 		bl	LCD_PrintString
  98:.\main.c      ****     
  99:.\main.c      ****     while(0u == (SPIS_ReadTxStatus() & SPIS_STS_SPI_DONE))
 104              		.loc 1 99 0
 105 0050 00BF     		nop
 106              	.L2:
 107              		.loc 1 99 0 is_stmt 0 discriminator 1
 108 0052 FFF7FEFF 		bl	SPIS_ReadTxStatus
 109 0056 0346     		mov	r3, r0
 110 0058 03F00103 		and	r3, r3, #1
 111 005c 002B     		cmp	r3, #0
 112 005e F8D0     		beq	.L2
 100:.\main.c      ****     {
 101:.\main.c      ****     }
 102:.\main.c      ****     
 103:.\main.c      ****     LCD_ClearDisplay();
 113              		.loc 1 103 0 is_stmt 1
 114 0060 0120     		movs	r0, #1
 115 0062 FFF7FEFF 		bl	LCD_WriteControl
 104:.\main.c      ****     LCD_Position(0u,0u);
 116              		.loc 1 104 0
 117 0066 0020     		movs	r0, #0
 118 0068 0021     		movs	r1, #0
ARM GAS  C:\Users\LUKASC~1\AppData\Local\Temp\ccCyl6lJ.s 			page 5


 119 006a FFF7FEFF 		bl	LCD_Position
 105:.\main.c      ****     LCD_PrintString("Slave Rx data:");
 120              		.loc 1 105 0
 121 006e 0F48     		ldr	r0, .L6+16
 122 0070 FFF7FEFF 		bl	LCD_PrintString
 106:.\main.c      ****     LCD_Position(1u,0u);
 123              		.loc 1 106 0
 124 0074 0120     		movs	r0, #1
 125 0076 0021     		movs	r1, #0
 126 0078 FFF7FEFF 		bl	LCD_Position
 107:.\main.c      ****            
 108:.\main.c      ****     for(i=0u; i<BUFFER_SIZE; i++)
 127              		.loc 1 108 0
 128 007c 0023     		movs	r3, #0
 129 007e FB71     		strb	r3, [r7, #7]
 130 0080 08E0     		b	.L3
 131              	.L4:
 109:.\main.c      ****     {
 110:.\main.c      ****         LCD_PrintHexUint8(rxBuffer[i]);
 132              		.loc 1 110 0 discriminator 3
 133 0082 FB79     		ldrb	r3, [r7, #7]	@ zero_extendqisi2
 134 0084 0A4A     		ldr	r2, .L6+20
 135 0086 D35C     		ldrb	r3, [r2, r3]	@ zero_extendqisi2
 136 0088 1846     		mov	r0, r3
 137 008a FFF7FEFF 		bl	LCD_PrintInt8
 108:.\main.c      ****     {
 138              		.loc 1 108 0 discriminator 3
 139 008e FB79     		ldrb	r3, [r7, #7]	@ zero_extendqisi2
 140 0090 0133     		adds	r3, r3, #1
 141 0092 FB71     		strb	r3, [r7, #7]
 142              	.L3:
 108:.\main.c      ****     {
 143              		.loc 1 108 0 is_stmt 0 discriminator 1
 144 0094 FB79     		ldrb	r3, [r7, #7]	@ zero_extendqisi2
 145 0096 072B     		cmp	r3, #7
 146 0098 F3D9     		bls	.L4
 147              	.L5:
 111:.\main.c      ****     }        
 112:.\main.c      ****     
 113:.\main.c      ****     for(;;)
 114:.\main.c      ****     {
 115:.\main.c      ****     }
 148              		.loc 1 115 0 is_stmt 1 discriminator 1
 149 009a FEE7     		b	.L5
 150              	.L7:
 151              		.align	2
 152              	.L6:
 153 009c 00000000 		.word	rxChannel
 154 00a0 00000000 		.word	txChannel
 155 00a4 00000000 		.word	.LC0
 156 00a8 0C000000 		.word	.LC1
 157 00ac 14000000 		.word	.LC2
 158 00b0 00000000 		.word	rxBuffer
 159              		.cfi_endproc
 160              	.LFE63:
 161              		.size	main, .-main
 162              		.section	.text.DmaTxConfiguration,"ax",%progbits
ARM GAS  C:\Users\LUKASC~1\AppData\Local\Temp\ccCyl6lJ.s 			page 6


 163              		.align	2
 164              		.global	DmaTxConfiguration
 165              		.thumb
 166              		.thumb_func
 167              		.type	DmaTxConfiguration, %function
 168              	DmaTxConfiguration:
 169              	.LFB64:
 116:.\main.c      **** }
 117:.\main.c      **** 
 118:.\main.c      **** /*******************************************************************************
 119:.\main.c      **** * Function Name: DmaTxConfiguration
 120:.\main.c      **** ********************************************************************************
 121:.\main.c      **** * Summary:
 122:.\main.c      **** *  Configures the DMA to manage data transfers from the TX buffer (allocated in 
 123:.\main.c      **** *  RAM) into SPIS TX FIFO.
 124:.\main.c      **** *   
 125:.\main.c      **** * Parameters:
 126:.\main.c      **** *  None.
 127:.\main.c      **** *
 128:.\main.c      **** * Return:
 129:.\main.c      **** *  None.
 130:.\main.c      **** *
 131:.\main.c      **** *******************************************************************************/
 132:.\main.c      **** void DmaTxConfiguration()
 133:.\main.c      **** {
 170              		.loc 1 133 0
 171              		.cfi_startproc
 172              		@ args = 0, pretend = 0, frame = 0
 173              		@ frame_needed = 1, uses_anonymous_args = 0
 174 0000 80B5     		push	{r7, lr}
 175              		.cfi_def_cfa_offset 8
 176              		.cfi_offset 7, -8
 177              		.cfi_offset 14, -4
 178 0002 00AF     		add	r7, sp, #0
 179              		.cfi_def_cfa_register 7
 134:.\main.c      ****     txChannel = DMA_TX_DmaInitialize(DMA_TX_BYTES_PER_BURST, DMA_TX_REQUEST_PER_BURST, 
 180              		.loc 1 134 0
 181 0004 0120     		movs	r0, #1
 182 0006 0121     		movs	r1, #1
 183 0008 41F6FF72 		movw	r2, #8191
 184 000c 4FF48043 		mov	r3, #16384
 185 0010 FFF7FEFF 		bl	DMA_TX_DmaInitialize
 186 0014 0346     		mov	r3, r0
 187 0016 1A46     		mov	r2, r3
 188 0018 114B     		ldr	r3, .L9
 189 001a 1A70     		strb	r2, [r3]
 135:.\main.c      ****                                         HI16(DMA_TX_SRC_BASE), HI16(DMA_TX_DST_BASE));
 136:.\main.c      **** 
 137:.\main.c      ****     txTD = CyDmaTdAllocate();
 190              		.loc 1 137 0
 191 001c FFF7FEFF 		bl	CyDmaTdAllocate
 192 0020 0346     		mov	r3, r0
 193 0022 1A46     		mov	r2, r3
 194 0024 0F4B     		ldr	r3, .L9+4
 195 0026 1A70     		strb	r2, [r3]
 138:.\main.c      **** 
 139:.\main.c      ****     CyDmaTdSetConfiguration(txTD, (BUFFER_SIZE-1), CY_DMA_DISABLE_TD, TD_INC_SRC_ADR);
ARM GAS  C:\Users\LUKASC~1\AppData\Local\Temp\ccCyl6lJ.s 			page 7


 196              		.loc 1 139 0
 197 0028 0E4B     		ldr	r3, .L9+4
 198 002a 1B78     		ldrb	r3, [r3]	@ zero_extendqisi2
 199 002c 1846     		mov	r0, r3
 200 002e 0721     		movs	r1, #7
 201 0030 FE22     		movs	r2, #254
 202 0032 0123     		movs	r3, #1
 203 0034 FFF7FEFF 		bl	CyDmaTdSetConfiguration
 140:.\main.c      ****     CyDmaTdSetAddress(txTD, LO16((uint32) txBuffer), LO16((uint32) SPIS_TXDATA_PTR));
 204              		.loc 1 140 0
 205 0038 0A4B     		ldr	r3, .L9+4
 206 003a 1A78     		ldrb	r2, [r3]	@ zero_extendqisi2
 207 003c 0A4B     		ldr	r3, .L9+8
 208 003e 9BB2     		uxth	r3, r3
 209 0040 1046     		mov	r0, r2
 210 0042 1946     		mov	r1, r3
 211 0044 46F24742 		movw	r2, #25671
 212 0048 FFF7FEFF 		bl	CyDmaTdSetAddress
 141:.\main.c      ****     CyDmaChSetInitialTd(txChannel, txTD);
 213              		.loc 1 141 0
 214 004c 044B     		ldr	r3, .L9
 215 004e 1A78     		ldrb	r2, [r3]	@ zero_extendqisi2
 216 0050 044B     		ldr	r3, .L9+4
 217 0052 1B78     		ldrb	r3, [r3]	@ zero_extendqisi2
 218 0054 1046     		mov	r0, r2
 219 0056 1946     		mov	r1, r3
 220 0058 FFF7FEFF 		bl	CyDmaChSetInitialTd
 142:.\main.c      **** }    
 221              		.loc 1 142 0
 222 005c 80BD     		pop	{r7, pc}
 223              	.L10:
 224 005e 00BF     		.align	2
 225              	.L9:
 226 0060 00000000 		.word	txChannel
 227 0064 00000000 		.word	txTD
 228 0068 00000000 		.word	txBuffer
 229              		.cfi_endproc
 230              	.LFE64:
 231              		.size	DmaTxConfiguration, .-DmaTxConfiguration
 232              		.section	.text.DmaRxConfiguration,"ax",%progbits
 233              		.align	2
 234              		.global	DmaRxConfiguration
 235              		.thumb
 236              		.thumb_func
 237              		.type	DmaRxConfiguration, %function
 238              	DmaRxConfiguration:
 239              	.LFB65:
 143:.\main.c      **** 
 144:.\main.c      **** 
 145:.\main.c      **** /*******************************************************************************
 146:.\main.c      **** * Function Name: DmaRxConfiguration
 147:.\main.c      **** ********************************************************************************
 148:.\main.c      **** * Summary:
 149:.\main.c      **** *  Configures the DMA to manage data transfers from SPIS RX FIFO into the RX 
 150:.\main.c      **** *  buffer (allocated in RAM).
 151:.\main.c      **** *   
 152:.\main.c      **** * Parameters:
ARM GAS  C:\Users\LUKASC~1\AppData\Local\Temp\ccCyl6lJ.s 			page 8


 153:.\main.c      **** *  None.
 154:.\main.c      **** *
 155:.\main.c      **** * Return:
 156:.\main.c      **** *  None.
 157:.\main.c      **** *
 158:.\main.c      **** *******************************************************************************/
 159:.\main.c      **** void DmaRxConfiguration()
 160:.\main.c      **** { 
 240              		.loc 1 160 0
 241              		.cfi_startproc
 242              		@ args = 0, pretend = 0, frame = 0
 243              		@ frame_needed = 1, uses_anonymous_args = 0
 244 0000 80B5     		push	{r7, lr}
 245              		.cfi_def_cfa_offset 8
 246              		.cfi_offset 7, -8
 247              		.cfi_offset 14, -4
 248 0002 00AF     		add	r7, sp, #0
 249              		.cfi_def_cfa_register 7
 161:.\main.c      ****     rxChannel = DMA_RX_DmaInitialize(DMA_RX_BYTES_PER_BURST, DMA_RX_REQUEST_PER_BURST,
 250              		.loc 1 161 0
 251 0004 0120     		movs	r0, #1
 252 0006 0121     		movs	r1, #1
 253 0008 4FF48042 		mov	r2, #16384
 254 000c 41F6FF73 		movw	r3, #8191
 255 0010 FFF7FEFF 		bl	DMA_RX_DmaInitialize
 256 0014 0346     		mov	r3, r0
 257 0016 1A46     		mov	r2, r3
 258 0018 114B     		ldr	r3, .L12
 259 001a 1A70     		strb	r2, [r3]
 162:.\main.c      ****                                      HI16(DMA_RX_SRC_BASE), HI16(DMA_RX_DST_BASE));
 163:.\main.c      **** 
 164:.\main.c      ****     rxTD = CyDmaTdAllocate();
 260              		.loc 1 164 0
 261 001c FFF7FEFF 		bl	CyDmaTdAllocate
 262 0020 0346     		mov	r3, r0
 263 0022 1A46     		mov	r2, r3
 264 0024 0F4B     		ldr	r3, .L12+4
 265 0026 1A70     		strb	r2, [r3]
 165:.\main.c      **** 
 166:.\main.c      ****     CyDmaTdSetConfiguration(rxTD, BUFFER_SIZE, CY_DMA_DISABLE_TD, TD_INC_DST_ADR);
 266              		.loc 1 166 0
 267 0028 0E4B     		ldr	r3, .L12+4
 268 002a 1B78     		ldrb	r3, [r3]	@ zero_extendqisi2
 269 002c 1846     		mov	r0, r3
 270 002e 0821     		movs	r1, #8
 271 0030 FE22     		movs	r2, #254
 272 0032 0223     		movs	r3, #2
 273 0034 FFF7FEFF 		bl	CyDmaTdSetConfiguration
 167:.\main.c      ****     CyDmaTdSetAddress(rxTD, LO16((uint32) SPIS_RXDATA_PTR), LO16((uint32) rxBuffer));
 274              		.loc 1 167 0
 275 0038 0A4B     		ldr	r3, .L12+4
 276 003a 1A78     		ldrb	r2, [r3]	@ zero_extendqisi2
 277 003c 0A4B     		ldr	r3, .L12+8
 278 003e 9BB2     		uxth	r3, r3
 279 0040 1046     		mov	r0, r2
 280 0042 46F25741 		movw	r1, #25687
 281 0046 1A46     		mov	r2, r3
ARM GAS  C:\Users\LUKASC~1\AppData\Local\Temp\ccCyl6lJ.s 			page 9


 282 0048 FFF7FEFF 		bl	CyDmaTdSetAddress
 168:.\main.c      ****     CyDmaChSetInitialTd(rxChannel, rxTD);
 283              		.loc 1 168 0
 284 004c 044B     		ldr	r3, .L12
 285 004e 1A78     		ldrb	r2, [r3]	@ zero_extendqisi2
 286 0050 044B     		ldr	r3, .L12+4
 287 0052 1B78     		ldrb	r3, [r3]	@ zero_extendqisi2
 288 0054 1046     		mov	r0, r2
 289 0056 1946     		mov	r1, r3
 290 0058 FFF7FEFF 		bl	CyDmaChSetInitialTd
 169:.\main.c      **** }
 291              		.loc 1 169 0
 292 005c 80BD     		pop	{r7, pc}
 293              	.L13:
 294 005e 00BF     		.align	2
 295              	.L12:
 296 0060 00000000 		.word	rxChannel
 297 0064 00000000 		.word	rxTD
 298 0068 00000000 		.word	rxBuffer
 299              		.cfi_endproc
 300              	.LFE65:
 301              		.size	DmaRxConfiguration, .-DmaRxConfiguration
 302              		.text
 303              	.Letext0:
 304              		.file 2 "c:\\program files (x86)\\cypress\\psoc creator\\3.3\\psoc creator\\import\\gnu\\arm\\4.9.
 305              		.file 3 "c:\\program files (x86)\\cypress\\psoc creator\\3.3\\psoc creator\\import\\gnu\\arm\\4.9.
 306              		.file 4 "Generated_Source\\PSoC5/cytypes.h"
 307              		.file 5 "Generated_Source\\PSoC5/core_cm3.h"