ARM GAS  C:\Users\LUKASC~1\AppData\Local\Temp\ccKu79sb.s 			page 1


   1              		.syntax unified
   2              		.cpu cortex-m3
   3              		.fpu softvfp
   4              		.eabi_attribute 20, 1
   5              		.eabi_attribute 21, 1
   6              		.eabi_attribute 23, 3
   7              		.eabi_attribute 24, 1
   8              		.eabi_attribute 25, 1
   9              		.eabi_attribute 26, 1
  10              		.eabi_attribute 30, 6
  11              		.eabi_attribute 34, 1
  12              		.eabi_attribute 18, 4
  13              		.thumb
  14              		.file	"CapSense_SMS_Wrapper.c"
  15              		.text
  16              	.Ltext0:
  17              		.cfi_sections	.debug_frame
  18              		.global	SMS_LIB_noiseThreshold
  19              		.data
  20              		.align	2
  21              		.type	SMS_LIB_noiseThreshold, %object
  22              		.size	SMS_LIB_noiseThreshold, 4
  23              	SMS_LIB_noiseThreshold:
  24 0000 00000000 		.word	CapSense_noiseThreshold
  25              		.global	SMS_LIB_hysteresis
  26              		.align	2
  27              		.type	SMS_LIB_hysteresis, %object
  28              		.size	SMS_LIB_hysteresis, 4
  29              	SMS_LIB_hysteresis:
  30 0004 00000000 		.word	CapSense_hysteresis
  31              		.global	SMS_LIB_widgetResolution
  32              		.align	2
  33              		.type	SMS_LIB_widgetResolution, %object
  34              		.size	SMS_LIB_widgetResolution, 4
  35              	SMS_LIB_widgetResolution:
  36 0008 00000000 		.word	CapSense_widgetResolution
  37              		.global	SMS_LIB_widgetNumber
  38              		.align	2
  39              		.type	SMS_LIB_widgetNumber, %object
  40              		.size	SMS_LIB_widgetNumber, 4
  41              	SMS_LIB_widgetNumber:
  42 000c 00000000 		.word	CapSense_widgetNumber
  43              		.global	SMS_LIB_numberOfSensors
  44              		.align	2
  45              		.type	SMS_LIB_numberOfSensors, %object
  46              		.size	SMS_LIB_numberOfSensors, 4
  47              	SMS_LIB_numberOfSensors:
  48 0010 00000000 		.word	CapSense_numberOfSensors
  49              		.global	SMS_LIB_rawDataIndex
  50              		.align	2
  51              		.type	SMS_LIB_rawDataIndex, %object
  52              		.size	SMS_LIB_rawDataIndex, 4
  53              	SMS_LIB_rawDataIndex:
  54 0014 00000000 		.word	CapSense_rawDataIndex
  55              		.global	SMS_LIB_fingerThreshold
  56              		.align	2
  57              		.type	SMS_LIB_fingerThreshold, %object
ARM GAS  C:\Users\LUKASC~1\AppData\Local\Temp\ccKu79sb.s 			page 2


  58              		.size	SMS_LIB_fingerThreshold, 4
  59              	SMS_LIB_fingerThreshold:
  60 0018 00000000 		.word	CapSense_fingerThreshold
  61              		.global	SMS_LIB_idacSettings
  62              		.align	2
  63              		.type	SMS_LIB_idacSettings, %object
  64              		.size	SMS_LIB_idacSettings, 4
  65              	SMS_LIB_idacSettings:
  66 001c 00000000 		.word	CapSense_idacSettings
  67              		.global	SMS_LIB_prescaler
  68              		.align	2
  69              		.type	SMS_LIB_prescaler, %object
  70              		.size	SMS_LIB_prescaler, 4
  71              	SMS_LIB_prescaler:
  72 0020 00000000 		.word	CapSense_analogSwitchDivider
  73              		.global	SMS_LIB_SensorRaw
  74              		.align	2
  75              		.type	SMS_LIB_SensorRaw, %object
  76              		.size	SMS_LIB_SensorRaw, 4
  77              	SMS_LIB_SensorRaw:
  78 0024 00000000 		.word	CapSense_sensorRaw
  79              		.global	SMS_LIB_SensorBaseline
  80              		.align	2
  81              		.type	SMS_LIB_SensorBaseline, %object
  82              		.size	SMS_LIB_SensorBaseline, 4
  83              	SMS_LIB_SensorBaseline:
  84 0028 00000000 		.word	CapSense_sensorBaseline
  85              		.global	SMS_LIB_SensorSensitivity
  86              		.section	.rodata
  87              		.align	2
  88              		.type	SMS_LIB_SensorSensitivity, %object
  89              		.size	SMS_LIB_SensorSensitivity, 22
  90              	SMS_LIB_SensorSensitivity:
  91 0000 02       		.byte	2
  92 0001 02       		.byte	2
  93 0002 02       		.byte	2
  94 0003 02       		.byte	2
  95 0004 02       		.byte	2
  96 0005 02       		.byte	2
  97 0006 02       		.byte	2
  98 0007 02       		.byte	2
  99 0008 02       		.byte	2
 100 0009 02       		.byte	2
 101 000a 02       		.byte	2
 102 000b 02       		.byte	2
 103 000c 02       		.byte	2
 104 000d 02       		.byte	2
 105 000e 02       		.byte	2
 106 000f 02       		.byte	2
 107 0010 02       		.byte	2
 108 0011 02       		.byte	2
 109 0012 02       		.byte	2
 110 0013 02       		.byte	2
 111 0014 02       		.byte	2
 112 0015 02       		.byte	2
 113              		.global	SMS_LIB_PrescalerTbl
 114 0016 0000     		.align	2
ARM GAS  C:\Users\LUKASC~1\AppData\Local\Temp\ccKu79sb.s 			page 3


 115              		.type	SMS_LIB_PrescalerTbl, %object
 116              		.size	SMS_LIB_PrescalerTbl, 32
 117              	SMS_LIB_PrescalerTbl:
 118 0018 01       		.byte	1
 119 0019 01       		.byte	1
 120 001a 01       		.byte	1
 121 001b 01       		.byte	1
 122 001c 01       		.byte	1
 123 001d 01       		.byte	1
 124 001e 02       		.byte	2
 125 001f 02       		.byte	2
 126 0020 02       		.byte	2
 127 0021 02       		.byte	2
 128 0022 02       		.byte	2
 129 0023 03       		.byte	3
 130 0024 03       		.byte	3
 131 0025 03       		.byte	3
 132 0026 03       		.byte	3
 133 0027 03       		.byte	3
 134 0028 03       		.byte	3
 135 0029 04       		.byte	4
 136 002a 04       		.byte	4
 137 002b 04       		.byte	4
 138 002c 04       		.byte	4
 139 002d 04       		.byte	4
 140 002e 04       		.byte	4
 141 002f 05       		.byte	5
 142 0030 05       		.byte	5
 143 0031 05       		.byte	5
 144 0032 05       		.byte	5
 145 0033 05       		.byte	5
 146 0034 05       		.byte	5
 147 0035 06       		.byte	6
 148 0036 06       		.byte	6
 149 0037 06       		.byte	6
 150              		.comm	SMS_LIB_Table2,22,4
 151              		.comm	SMS_LIB_Table3,22,4
 152              		.comm	SMS_LIB_Table4,44,4
 153              		.comm	SMS_LIB_Table5,44,4
 154              		.comm	SMS_LIB_Table6,22,4
 155              		.comm	SMS_LIB_Table7,22,4
 156              		.comm	SMS_LIB_Table8,4,4
 157              		.comm	SMS_LIB_Table9,4,4
 158              		.global	SMS_LIB_Var1
 159              		.data
 160              		.type	SMS_LIB_Var1, %object
 161              		.size	SMS_LIB_Var1, 1
 162              	SMS_LIB_Var1:
 163 002c 05       		.byte	5
 164              		.global	SMS_LIB_Var2
 165 002d 00       		.align	1
 166              		.type	SMS_LIB_Var2, %object
 167              		.size	SMS_LIB_Var2, 2
 168              	SMS_LIB_Var2:
 169 002e F229     		.short	10738
 170              		.global	SMS_LIB_TotalSnsCnt
 171              		.type	SMS_LIB_TotalSnsCnt, %object
ARM GAS  C:\Users\LUKASC~1\AppData\Local\Temp\ccKu79sb.s 			page 4


 172              		.size	SMS_LIB_TotalSnsCnt, 1
 173              	SMS_LIB_TotalSnsCnt:
 174 0030 16       		.byte	22
 175              		.global	SMS_LIB_TotalScanSlCnt
 176              		.type	SMS_LIB_TotalScanSlCnt, %object
 177              		.size	SMS_LIB_TotalScanSlCnt, 1
 178              	SMS_LIB_TotalScanSlCnt:
 179 0031 16       		.byte	22
 180              		.global	SMS_LIB_EndOfWidgInd
 181              		.type	SMS_LIB_EndOfWidgInd, %object
 182              		.size	SMS_LIB_EndOfWidgInd, 1
 183              	SMS_LIB_EndOfWidgInd:
 184 0032 04       		.byte	4
 185              		.global	SMS_LIB_TotalSnsCnt_CH0
 186 0033 00       		.bss
 187              		.type	SMS_LIB_TotalSnsCnt_CH0, %object
 188              		.size	SMS_LIB_TotalSnsCnt_CH0, 1
 189              	SMS_LIB_TotalSnsCnt_CH0:
 190 0000 00       		.space	1
 191              		.global	SMS_LIB_TotalSnsCnt_CH1
 192              		.type	SMS_LIB_TotalSnsCnt_CH1, %object
 193              		.size	SMS_LIB_TotalSnsCnt_CH1, 1
 194              	SMS_LIB_TotalSnsCnt_CH1:
 195 0001 00       		.space	1
 196              		.section	.text.SMS_LIB_ScanSensor,"ax",%progbits
 197              		.align	2
 198              		.global	SMS_LIB_ScanSensor
 199              		.thumb
 200              		.thumb_func
 201              		.type	SMS_LIB_ScanSensor, %function
 202              	SMS_LIB_ScanSensor:
 203              	.LFB0:
 204              		.file 1 ".\\Generated_Source\\PSoC5\\CapSense_SMS_Wrapper.c"
   1:.\Generated_Source\PSoC5/CapSense_SMS_Wrapper.c **** /*******************************************************************************
   2:.\Generated_Source\PSoC5/CapSense_SMS_Wrapper.c **** * File Name: CapSense_SMS_Wrapper.c
   3:.\Generated_Source\PSoC5/CapSense_SMS_Wrapper.c **** * Version 3.50
   4:.\Generated_Source\PSoC5/CapSense_SMS_Wrapper.c **** *
   5:.\Generated_Source\PSoC5/CapSense_SMS_Wrapper.c **** * Description:
   6:.\Generated_Source\PSoC5/CapSense_SMS_Wrapper.c **** *  This file provides the source code of wrapper between CapSense CSD component 
   7:.\Generated_Source\PSoC5/CapSense_SMS_Wrapper.c **** *  and Auto Tuning library.
   8:.\Generated_Source\PSoC5/CapSense_SMS_Wrapper.c **** *
   9:.\Generated_Source\PSoC5/CapSense_SMS_Wrapper.c **** * Note:
  10:.\Generated_Source\PSoC5/CapSense_SMS_Wrapper.c **** *
  11:.\Generated_Source\PSoC5/CapSense_SMS_Wrapper.c **** ********************************************************************************
  12:.\Generated_Source\PSoC5/CapSense_SMS_Wrapper.c **** * Copyright 2008-2012, Cypress Semiconductor Corporation.  All rights reserved.
  13:.\Generated_Source\PSoC5/CapSense_SMS_Wrapper.c **** * You may use this file only in accordance with the license, terms, conditions,
  14:.\Generated_Source\PSoC5/CapSense_SMS_Wrapper.c **** * disclaimers, and limitations in the end user license agreement accompanying
  15:.\Generated_Source\PSoC5/CapSense_SMS_Wrapper.c **** * the software package with which this file was provided.
  16:.\Generated_Source\PSoC5/CapSense_SMS_Wrapper.c **** *******************************************************************************/
  17:.\Generated_Source\PSoC5/CapSense_SMS_Wrapper.c **** 
  18:.\Generated_Source\PSoC5/CapSense_SMS_Wrapper.c **** #include "CapSense.h"
  19:.\Generated_Source\PSoC5/CapSense_SMS_Wrapper.c **** #include "CapSense_CSHL.h"
  20:.\Generated_Source\PSoC5/CapSense_SMS_Wrapper.c **** 
  21:.\Generated_Source\PSoC5/CapSense_SMS_Wrapper.c **** #if (CapSense_TUNING_METHOD == CapSense_AUTO_TUNING)
  22:.\Generated_Source\PSoC5/CapSense_SMS_Wrapper.c **** 
  23:.\Generated_Source\PSoC5/CapSense_SMS_Wrapper.c **** extern uint8 CapSense_noiseThreshold[CapSense_WIDGET_CSHL_PARAMETERS_COUNT];
  24:.\Generated_Source\PSoC5/CapSense_SMS_Wrapper.c **** extern uint8 CapSense_hysteresis[CapSense_WIDGET_CSHL_PARAMETERS_COUNT];
ARM GAS  C:\Users\LUKASC~1\AppData\Local\Temp\ccKu79sb.s 			page 5


  25:.\Generated_Source\PSoC5/CapSense_SMS_Wrapper.c **** extern uint8 CapSense_widgetResolution[CapSense_WIDGET_RESOLUTION_PARAMETERS_COUNT];
  26:.\Generated_Source\PSoC5/CapSense_SMS_Wrapper.c **** extern const uint8 CYCODE CapSense_numberOfSensors[CapSense_SENSORS_TBL_SIZE];
  27:.\Generated_Source\PSoC5/CapSense_SMS_Wrapper.c **** extern const uint8 CYCODE CapSense_rawDataIndex[CapSense_SENSORS_TBL_SIZE];
  28:.\Generated_Source\PSoC5/CapSense_SMS_Wrapper.c **** 
  29:.\Generated_Source\PSoC5/CapSense_SMS_Wrapper.c **** extern uint8 CapSense_fingerThreshold[CapSense_WIDGET_CSHL_PARAMETERS_COUNT];
  30:.\Generated_Source\PSoC5/CapSense_SMS_Wrapper.c **** extern uint8 CapSense_idacSettings[CapSense_TOTAL_SENSOR_COUNT];
  31:.\Generated_Source\PSoC5/CapSense_SMS_Wrapper.c **** extern uint8 CapSense_analogSwitchDivider[CapSense_TOTAL_SCANSLOT_COUNT];
  32:.\Generated_Source\PSoC5/CapSense_SMS_Wrapper.c **** 
  33:.\Generated_Source\PSoC5/CapSense_SMS_Wrapper.c **** extern void SMS_LIB_V3_50_CalculateThresholds(uint8 SensorNumber);
  34:.\Generated_Source\PSoC5/CapSense_SMS_Wrapper.c **** extern void SMS_LIB_V3_50_AutoTune1Ch(void);
  35:.\Generated_Source\PSoC5/CapSense_SMS_Wrapper.c **** extern void SMS_LIB_V3_50_AutoTune2Ch(void);
  36:.\Generated_Source\PSoC5/CapSense_SMS_Wrapper.c **** 
  37:.\Generated_Source\PSoC5/CapSense_SMS_Wrapper.c **** uint8  * SMS_LIB_noiseThreshold = CapSense_noiseThreshold;
  38:.\Generated_Source\PSoC5/CapSense_SMS_Wrapper.c **** uint8 * SMS_LIB_hysteresis = CapSense_hysteresis;
  39:.\Generated_Source\PSoC5/CapSense_SMS_Wrapper.c **** 
  40:.\Generated_Source\PSoC5/CapSense_SMS_Wrapper.c **** uint8 * SMS_LIB_widgetResolution = CapSense_widgetResolution;
  41:.\Generated_Source\PSoC5/CapSense_SMS_Wrapper.c **** 
  42:.\Generated_Source\PSoC5/CapSense_SMS_Wrapper.c **** const uint8 CYCODE * SMS_LIB_widgetNumber = CapSense_widgetNumber;
  43:.\Generated_Source\PSoC5/CapSense_SMS_Wrapper.c **** const uint8 CYCODE * SMS_LIB_numberOfSensors = CapSense_numberOfSensors;
  44:.\Generated_Source\PSoC5/CapSense_SMS_Wrapper.c **** const uint8 CYCODE * SMS_LIB_rawDataIndex = CapSense_rawDataIndex;
  45:.\Generated_Source\PSoC5/CapSense_SMS_Wrapper.c **** 
  46:.\Generated_Source\PSoC5/CapSense_SMS_Wrapper.c **** uint8 * SMS_LIB_fingerThreshold = CapSense_fingerThreshold;
  47:.\Generated_Source\PSoC5/CapSense_SMS_Wrapper.c **** uint8 * SMS_LIB_idacSettings = CapSense_idacSettings;
  48:.\Generated_Source\PSoC5/CapSense_SMS_Wrapper.c **** uint8 * SMS_LIB_prescaler = CapSense_analogSwitchDivider;
  49:.\Generated_Source\PSoC5/CapSense_SMS_Wrapper.c **** 
  50:.\Generated_Source\PSoC5/CapSense_SMS_Wrapper.c **** uint16 * SMS_LIB_SensorRaw = CapSense_sensorRaw;
  51:.\Generated_Source\PSoC5/CapSense_SMS_Wrapper.c **** uint16 * SMS_LIB_SensorBaseline = CapSense_sensorBaseline;
  52:.\Generated_Source\PSoC5/CapSense_SMS_Wrapper.c **** 
  53:.\Generated_Source\PSoC5/CapSense_SMS_Wrapper.c **** const uint8 CYCODE SMS_LIB_SensorSensitivity[] = {
  54:.\Generated_Source\PSoC5/CapSense_SMS_Wrapper.c ****     2, 2, 2, 2, 2, 2, 2, 2, 2, 2, 2, 2, 2, 2, 2, 2, 2, 2, 2, 2, 2, 2, 
  55:.\Generated_Source\PSoC5/CapSense_SMS_Wrapper.c **** };
  56:.\Generated_Source\PSoC5/CapSense_SMS_Wrapper.c **** 
  57:.\Generated_Source\PSoC5/CapSense_SMS_Wrapper.c **** 
  58:.\Generated_Source\PSoC5/CapSense_SMS_Wrapper.c **** const uint8 CYCODE SMS_LIB_PrescalerTbl[] = {
  59:.\Generated_Source\PSoC5/CapSense_SMS_Wrapper.c ****     1u, 1u, 1u, 1u, 1u, 1u, 2u, 2u, 2u, 2u, 2u, 3u, 3u, 3u, 3u, 3u, 3u, 4u, 4u, 4u, 4u, 4u, 4u, 5u,
  60:.\Generated_Source\PSoC5/CapSense_SMS_Wrapper.c **** };
  61:.\Generated_Source\PSoC5/CapSense_SMS_Wrapper.c **** 
  62:.\Generated_Source\PSoC5/CapSense_SMS_Wrapper.c **** 
  63:.\Generated_Source\PSoC5/CapSense_SMS_Wrapper.c **** 
  64:.\Generated_Source\PSoC5/CapSense_SMS_Wrapper.c **** uint8 SMS_LIB_Table2[CapSense_TOTAL_SENSOR_COUNT];
  65:.\Generated_Source\PSoC5/CapSense_SMS_Wrapper.c **** uint8 SMS_LIB_Table3[CapSense_TOTAL_SENSOR_COUNT];
  66:.\Generated_Source\PSoC5/CapSense_SMS_Wrapper.c **** uint16 SMS_LIB_Table4[CapSense_TOTAL_SENSOR_COUNT];
  67:.\Generated_Source\PSoC5/CapSense_SMS_Wrapper.c **** uint16 SMS_LIB_Table5[CapSense_TOTAL_SENSOR_COUNT];
  68:.\Generated_Source\PSoC5/CapSense_SMS_Wrapper.c **** uint8 SMS_LIB_Table6[CapSense_TOTAL_SENSOR_COUNT];
  69:.\Generated_Source\PSoC5/CapSense_SMS_Wrapper.c **** uint8 SMS_LIB_Table7[CapSense_TOTAL_SENSOR_COUNT];
  70:.\Generated_Source\PSoC5/CapSense_SMS_Wrapper.c **** 
  71:.\Generated_Source\PSoC5/CapSense_SMS_Wrapper.c **** uint8 SMS_LIB_Table8[CapSense_END_OF_WIDGETS_INDEX];
  72:.\Generated_Source\PSoC5/CapSense_SMS_Wrapper.c **** uint8 SMS_LIB_Table9[CapSense_END_OF_WIDGETS_INDEX];
  73:.\Generated_Source\PSoC5/CapSense_SMS_Wrapper.c **** 
  74:.\Generated_Source\PSoC5/CapSense_SMS_Wrapper.c **** uint8 SMS_LIB_Var1 = (5u);
  75:.\Generated_Source\PSoC5/CapSense_SMS_Wrapper.c **** uint16 SMS_LIB_Var2 = (10738u);
  76:.\Generated_Source\PSoC5/CapSense_SMS_Wrapper.c **** 
  77:.\Generated_Source\PSoC5/CapSense_SMS_Wrapper.c **** uint8 SMS_LIB_TotalSnsCnt = CapSense_TOTAL_SENSOR_COUNT;
  78:.\Generated_Source\PSoC5/CapSense_SMS_Wrapper.c **** uint8 SMS_LIB_TotalScanSlCnt = CapSense_TOTAL_SCANSLOT_COUNT;
  79:.\Generated_Source\PSoC5/CapSense_SMS_Wrapper.c **** uint8 SMS_LIB_EndOfWidgInd = CapSense_END_OF_WIDGETS_INDEX;
  80:.\Generated_Source\PSoC5/CapSense_SMS_Wrapper.c **** 
  81:.\Generated_Source\PSoC5/CapSense_SMS_Wrapper.c **** #if (CapSense_DESIGN_TYPE == CapSense_TWO_CHANNELS_DESIGN)
ARM GAS  C:\Users\LUKASC~1\AppData\Local\Temp\ccKu79sb.s 			page 6


  82:.\Generated_Source\PSoC5/CapSense_SMS_Wrapper.c ****     uint8 SMS_LIB_TotalSnsCnt_CH0 = CapSense_TOTAL_SENSOR_COUNT__CH0;
  83:.\Generated_Source\PSoC5/CapSense_SMS_Wrapper.c ****     uint8 SMS_LIB_TotalSnsCnt_CH1 = CapSense_TOTAL_SENSOR_COUNT__CH1;
  84:.\Generated_Source\PSoC5/CapSense_SMS_Wrapper.c **** #else
  85:.\Generated_Source\PSoC5/CapSense_SMS_Wrapper.c ****     uint8 SMS_LIB_TotalSnsCnt_CH0 = 0u;
  86:.\Generated_Source\PSoC5/CapSense_SMS_Wrapper.c ****     uint8 SMS_LIB_TotalSnsCnt_CH1 = 0u;
  87:.\Generated_Source\PSoC5/CapSense_SMS_Wrapper.c **** #endif  /* (CapSense_DESIGN_TYPE == CapSense_TWO_CHANNELS_DESIGN) */
  88:.\Generated_Source\PSoC5/CapSense_SMS_Wrapper.c **** 
  89:.\Generated_Source\PSoC5/CapSense_SMS_Wrapper.c **** /*******************************************************************************
  90:.\Generated_Source\PSoC5/CapSense_SMS_Wrapper.c **** * Function Name: SMS_LIB_ScanSensor
  91:.\Generated_Source\PSoC5/CapSense_SMS_Wrapper.c **** ********************************************************************************
  92:.\Generated_Source\PSoC5/CapSense_SMS_Wrapper.c **** *
  93:.\Generated_Source\PSoC5/CapSense_SMS_Wrapper.c **** * Summary:
  94:.\Generated_Source\PSoC5/CapSense_SMS_Wrapper.c **** *  Wrapper to CapSense_ScanSensor function.
  95:.\Generated_Source\PSoC5/CapSense_SMS_Wrapper.c **** *
  96:.\Generated_Source\PSoC5/CapSense_SMS_Wrapper.c **** * Parameters:
  97:.\Generated_Source\PSoC5/CapSense_SMS_Wrapper.c **** *  SensorNumber:  Sensor number.
  98:.\Generated_Source\PSoC5/CapSense_SMS_Wrapper.c **** *
  99:.\Generated_Source\PSoC5/CapSense_SMS_Wrapper.c **** * Return:
 100:.\Generated_Source\PSoC5/CapSense_SMS_Wrapper.c **** *  None
 101:.\Generated_Source\PSoC5/CapSense_SMS_Wrapper.c **** *
 102:.\Generated_Source\PSoC5/CapSense_SMS_Wrapper.c **** * Reentrant:
 103:.\Generated_Source\PSoC5/CapSense_SMS_Wrapper.c **** *  No
 104:.\Generated_Source\PSoC5/CapSense_SMS_Wrapper.c **** *
 105:.\Generated_Source\PSoC5/CapSense_SMS_Wrapper.c **** *******************************************************************************/
 106:.\Generated_Source\PSoC5/CapSense_SMS_Wrapper.c **** void SMS_LIB_ScanSensor(uint8 SensorNumber) 
 107:.\Generated_Source\PSoC5/CapSense_SMS_Wrapper.c **** {
 205              		.loc 1 107 0
 206              		.cfi_startproc
 207              		@ args = 0, pretend = 0, frame = 8
 208              		@ frame_needed = 1, uses_anonymous_args = 0
 209 0000 80B5     		push	{r7, lr}
 210              		.cfi_def_cfa_offset 8
 211              		.cfi_offset 7, -8
 212              		.cfi_offset 14, -4
 213 0002 82B0     		sub	sp, sp, #8
 214              		.cfi_def_cfa_offset 16
 215 0004 00AF     		add	r7, sp, #0
 216              		.cfi_def_cfa_register 7
 217 0006 0346     		mov	r3, r0
 218 0008 FB71     		strb	r3, [r7, #7]
 108:.\Generated_Source\PSoC5/CapSense_SMS_Wrapper.c ****     CapSense_ScanSensor(SensorNumber);
 219              		.loc 1 108 0
 220 000a FB79     		ldrb	r3, [r7, #7]	@ zero_extendqisi2
 221 000c 1846     		mov	r0, r3
 222 000e FFF7FEFF 		bl	CapSense_ScanSensor
 109:.\Generated_Source\PSoC5/CapSense_SMS_Wrapper.c **** }
 223              		.loc 1 109 0
 224 0012 0837     		adds	r7, r7, #8
 225              		.cfi_def_cfa_offset 8
 226 0014 BD46     		mov	sp, r7
 227              		.cfi_def_cfa_register 13
 228              		@ sp needed
 229 0016 80BD     		pop	{r7, pc}
 230              		.cfi_endproc
 231              	.LFE0:
 232              		.size	SMS_LIB_ScanSensor, .-SMS_LIB_ScanSensor
 233              		.section	.text.SMS_LIB_IsBusy,"ax",%progbits
ARM GAS  C:\Users\LUKASC~1\AppData\Local\Temp\ccKu79sb.s 			page 7


 234              		.align	2
 235              		.global	SMS_LIB_IsBusy
 236              		.thumb
 237              		.thumb_func
 238              		.type	SMS_LIB_IsBusy, %function
 239              	SMS_LIB_IsBusy:
 240              	.LFB1:
 110:.\Generated_Source\PSoC5/CapSense_SMS_Wrapper.c **** 
 111:.\Generated_Source\PSoC5/CapSense_SMS_Wrapper.c **** /*******************************************************************************
 112:.\Generated_Source\PSoC5/CapSense_SMS_Wrapper.c **** * Function Name: SMS_LIB_IsBusy
 113:.\Generated_Source\PSoC5/CapSense_SMS_Wrapper.c **** ********************************************************************************
 114:.\Generated_Source\PSoC5/CapSense_SMS_Wrapper.c **** *
 115:.\Generated_Source\PSoC5/CapSense_SMS_Wrapper.c **** * Summary:
 116:.\Generated_Source\PSoC5/CapSense_SMS_Wrapper.c **** *  Wrapper to CapSense_IsBusy function.
 117:.\Generated_Source\PSoC5/CapSense_SMS_Wrapper.c **** *  
 118:.\Generated_Source\PSoC5/CapSense_SMS_Wrapper.c **** * Parameters:
 119:.\Generated_Source\PSoC5/CapSense_SMS_Wrapper.c **** *  None
 120:.\Generated_Source\PSoC5/CapSense_SMS_Wrapper.c **** *
 121:.\Generated_Source\PSoC5/CapSense_SMS_Wrapper.c **** * Return:
 122:.\Generated_Source\PSoC5/CapSense_SMS_Wrapper.c **** *  None
 123:.\Generated_Source\PSoC5/CapSense_SMS_Wrapper.c **** *
 124:.\Generated_Source\PSoC5/CapSense_SMS_Wrapper.c **** *******************************************************************************/
 125:.\Generated_Source\PSoC5/CapSense_SMS_Wrapper.c **** uint8 SMS_LIB_IsBusy(void) 
 126:.\Generated_Source\PSoC5/CapSense_SMS_Wrapper.c **** {
 241              		.loc 1 126 0
 242              		.cfi_startproc
 243              		@ args = 0, pretend = 0, frame = 0
 244              		@ frame_needed = 1, uses_anonymous_args = 0
 245 0000 80B5     		push	{r7, lr}
 246              		.cfi_def_cfa_offset 8
 247              		.cfi_offset 7, -8
 248              		.cfi_offset 14, -4
 249 0002 00AF     		add	r7, sp, #0
 250              		.cfi_def_cfa_register 7
 127:.\Generated_Source\PSoC5/CapSense_SMS_Wrapper.c ****     return CapSense_IsBusy();
 251              		.loc 1 127 0
 252 0004 FFF7FEFF 		bl	CapSense_IsBusy
 253 0008 0346     		mov	r3, r0
 128:.\Generated_Source\PSoC5/CapSense_SMS_Wrapper.c **** }
 254              		.loc 1 128 0
 255 000a 1846     		mov	r0, r3
 256 000c 80BD     		pop	{r7, pc}
 257              		.cfi_endproc
 258              	.LFE1:
 259              		.size	SMS_LIB_IsBusy, .-SMS_LIB_IsBusy
 260 000e 00BF     		.section	.text.CapSense_CalculateThresholds,"ax",%progbits
 261              		.align	2
 262              		.global	CapSense_CalculateThresholds
 263              		.thumb
 264              		.thumb_func
 265              		.type	CapSense_CalculateThresholds, %function
 266              	CapSense_CalculateThresholds:
 267              	.LFB2:
 129:.\Generated_Source\PSoC5/CapSense_SMS_Wrapper.c **** 
 130:.\Generated_Source\PSoC5/CapSense_SMS_Wrapper.c **** 
 131:.\Generated_Source\PSoC5/CapSense_SMS_Wrapper.c **** /*******************************************************************************
 132:.\Generated_Source\PSoC5/CapSense_SMS_Wrapper.c **** * Function Name: CapSense_CalculateThresholds
ARM GAS  C:\Users\LUKASC~1\AppData\Local\Temp\ccKu79sb.s 			page 8


 133:.\Generated_Source\PSoC5/CapSense_SMS_Wrapper.c **** ********************************************************************************
 134:.\Generated_Source\PSoC5/CapSense_SMS_Wrapper.c **** *
 135:.\Generated_Source\PSoC5/CapSense_SMS_Wrapper.c **** * Summary:
 136:.\Generated_Source\PSoC5/CapSense_SMS_Wrapper.c **** *  Wrapper to SMS_LIB_CalculateThresholds function.
 137:.\Generated_Source\PSoC5/CapSense_SMS_Wrapper.c **** *
 138:.\Generated_Source\PSoC5/CapSense_SMS_Wrapper.c **** * Parameters:
 139:.\Generated_Source\PSoC5/CapSense_SMS_Wrapper.c **** *  SensorNumber:  Sensor number.
 140:.\Generated_Source\PSoC5/CapSense_SMS_Wrapper.c **** *
 141:.\Generated_Source\PSoC5/CapSense_SMS_Wrapper.c **** * Return:
 142:.\Generated_Source\PSoC5/CapSense_SMS_Wrapper.c **** *  None
 143:.\Generated_Source\PSoC5/CapSense_SMS_Wrapper.c **** *
 144:.\Generated_Source\PSoC5/CapSense_SMS_Wrapper.c **** * Reentrant:
 145:.\Generated_Source\PSoC5/CapSense_SMS_Wrapper.c **** *  No
 146:.\Generated_Source\PSoC5/CapSense_SMS_Wrapper.c **** *
 147:.\Generated_Source\PSoC5/CapSense_SMS_Wrapper.c **** *******************************************************************************/
 148:.\Generated_Source\PSoC5/CapSense_SMS_Wrapper.c **** void CapSense_CalculateThresholds(uint8 SensorNumber) 
 149:.\Generated_Source\PSoC5/CapSense_SMS_Wrapper.c **** {
 268              		.loc 1 149 0
 269              		.cfi_startproc
 270              		@ args = 0, pretend = 0, frame = 8
 271              		@ frame_needed = 1, uses_anonymous_args = 0
 272 0000 80B5     		push	{r7, lr}
 273              		.cfi_def_cfa_offset 8
 274              		.cfi_offset 7, -8
 275              		.cfi_offset 14, -4
 276 0002 82B0     		sub	sp, sp, #8
 277              		.cfi_def_cfa_offset 16
 278 0004 00AF     		add	r7, sp, #0
 279              		.cfi_def_cfa_register 7
 280 0006 0346     		mov	r3, r0
 281 0008 FB71     		strb	r3, [r7, #7]
 150:.\Generated_Source\PSoC5/CapSense_SMS_Wrapper.c ****     SMS_LIB_V3_50_CalculateThresholds(SensorNumber);
 282              		.loc 1 150 0
 283 000a FB79     		ldrb	r3, [r7, #7]	@ zero_extendqisi2
 284 000c 1846     		mov	r0, r3
 285 000e FFF7FEFF 		bl	SMS_LIB_V3_50_CalculateThresholds
 151:.\Generated_Source\PSoC5/CapSense_SMS_Wrapper.c **** }
 286              		.loc 1 151 0
 287 0012 0837     		adds	r7, r7, #8
 288              		.cfi_def_cfa_offset 8
 289 0014 BD46     		mov	sp, r7
 290              		.cfi_def_cfa_register 13
 291              		@ sp needed
 292 0016 80BD     		pop	{r7, pc}
 293              		.cfi_endproc
 294              	.LFE2:
 295              		.size	CapSense_CalculateThresholds, .-CapSense_CalculateThresholds
 296              		.section	.text.CapSense_AutoTune,"ax",%progbits
 297              		.align	2
 298              		.global	CapSense_AutoTune
 299              		.thumb
 300              		.thumb_func
 301              		.type	CapSense_AutoTune, %function
 302              	CapSense_AutoTune:
 303              	.LFB3:
 152:.\Generated_Source\PSoC5/CapSense_SMS_Wrapper.c **** 
 153:.\Generated_Source\PSoC5/CapSense_SMS_Wrapper.c **** 
ARM GAS  C:\Users\LUKASC~1\AppData\Local\Temp\ccKu79sb.s 			page 9


 154:.\Generated_Source\PSoC5/CapSense_SMS_Wrapper.c **** /*******************************************************************************
 155:.\Generated_Source\PSoC5/CapSense_SMS_Wrapper.c **** * Function Name: CapSense_AutoTune
 156:.\Generated_Source\PSoC5/CapSense_SMS_Wrapper.c **** ********************************************************************************
 157:.\Generated_Source\PSoC5/CapSense_SMS_Wrapper.c **** *
 158:.\Generated_Source\PSoC5/CapSense_SMS_Wrapper.c **** * Summary:
 159:.\Generated_Source\PSoC5/CapSense_SMS_Wrapper.c **** *  Wrapper for SMS_LIB_AutoTune1Ch or SMS_LIB_AutoTune2Ch function.
 160:.\Generated_Source\PSoC5/CapSense_SMS_Wrapper.c **** *
 161:.\Generated_Source\PSoC5/CapSense_SMS_Wrapper.c **** * Parameters:
 162:.\Generated_Source\PSoC5/CapSense_SMS_Wrapper.c **** *  None
 163:.\Generated_Source\PSoC5/CapSense_SMS_Wrapper.c **** *
 164:.\Generated_Source\PSoC5/CapSense_SMS_Wrapper.c **** * Return:
 165:.\Generated_Source\PSoC5/CapSense_SMS_Wrapper.c **** *  None
 166:.\Generated_Source\PSoC5/CapSense_SMS_Wrapper.c **** *
 167:.\Generated_Source\PSoC5/CapSense_SMS_Wrapper.c **** * Reentrant:
 168:.\Generated_Source\PSoC5/CapSense_SMS_Wrapper.c **** *  No
 169:.\Generated_Source\PSoC5/CapSense_SMS_Wrapper.c **** *
 170:.\Generated_Source\PSoC5/CapSense_SMS_Wrapper.c **** *******************************************************************************/
 171:.\Generated_Source\PSoC5/CapSense_SMS_Wrapper.c **** void CapSense_AutoTune(void) 
 172:.\Generated_Source\PSoC5/CapSense_SMS_Wrapper.c **** {
 304              		.loc 1 172 0
 305              		.cfi_startproc
 306              		@ args = 0, pretend = 0, frame = 0
 307              		@ frame_needed = 1, uses_anonymous_args = 0
 308 0000 80B5     		push	{r7, lr}
 309              		.cfi_def_cfa_offset 8
 310              		.cfi_offset 7, -8
 311              		.cfi_offset 14, -4
 312 0002 00AF     		add	r7, sp, #0
 313              		.cfi_def_cfa_register 7
 173:.\Generated_Source\PSoC5/CapSense_SMS_Wrapper.c ****     #if (CapSense_DESIGN_TYPE == CapSense_ONE_CHANNEL_DESIGN)
 174:.\Generated_Source\PSoC5/CapSense_SMS_Wrapper.c ****         SMS_LIB_V3_50_AutoTune1Ch();
 314              		.loc 1 174 0
 315 0004 FFF7FEFF 		bl	SMS_LIB_V3_50_AutoTune1Ch
 175:.\Generated_Source\PSoC5/CapSense_SMS_Wrapper.c ****     #elif (CapSense_DESIGN_TYPE == CapSense_TWO_CHANNELS_DESIGN)
 176:.\Generated_Source\PSoC5/CapSense_SMS_Wrapper.c ****         SMS_LIB_V3_50_AutoTune2Ch();
 177:.\Generated_Source\PSoC5/CapSense_SMS_Wrapper.c ****     #endif /* (CapSense_DESIGN_TYPE == CapSense_ONE_CHANNEL_DESIGN) */
 178:.\Generated_Source\PSoC5/CapSense_SMS_Wrapper.c **** }
 316              		.loc 1 178 0
 317 0008 80BD     		pop	{r7, pc}
 318              		.cfi_endproc
 319              	.LFE3:
 320              		.size	CapSense_AutoTune, .-CapSense_AutoTune
 321 000a 00BF     		.section	.text.SMS_LIB_SetPrescaler,"ax",%progbits
 322              		.align	2
 323              		.global	SMS_LIB_SetPrescaler
 324              		.thumb
 325              		.thumb_func
 326              		.type	SMS_LIB_SetPrescaler, %function
 327              	SMS_LIB_SetPrescaler:
 328              	.LFB4:
 179:.\Generated_Source\PSoC5/CapSense_SMS_Wrapper.c **** 
 180:.\Generated_Source\PSoC5/CapSense_SMS_Wrapper.c **** /*******************************************************************************
 181:.\Generated_Source\PSoC5/CapSense_SMS_Wrapper.c **** * Function Name: SMS_LIB_SetPrescaler
 182:.\Generated_Source\PSoC5/CapSense_SMS_Wrapper.c **** ********************************************************************************
 183:.\Generated_Source\PSoC5/CapSense_SMS_Wrapper.c **** *
 184:.\Generated_Source\PSoC5/CapSense_SMS_Wrapper.c **** * Summary:
 185:.\Generated_Source\PSoC5/CapSense_SMS_Wrapper.c **** *  Empty wrapper for version compliance.
ARM GAS  C:\Users\LUKASC~1\AppData\Local\Temp\ccKu79sb.s 			page 10


 186:.\Generated_Source\PSoC5/CapSense_SMS_Wrapper.c **** *
 187:.\Generated_Source\PSoC5/CapSense_SMS_Wrapper.c **** * Parameters:
 188:.\Generated_Source\PSoC5/CapSense_SMS_Wrapper.c **** *  prescaler:  prascaler value.
 189:.\Generated_Source\PSoC5/CapSense_SMS_Wrapper.c **** *
 190:.\Generated_Source\PSoC5/CapSense_SMS_Wrapper.c **** * Return:
 191:.\Generated_Source\PSoC5/CapSense_SMS_Wrapper.c **** *  None
 192:.\Generated_Source\PSoC5/CapSense_SMS_Wrapper.c **** *
 193:.\Generated_Source\PSoC5/CapSense_SMS_Wrapper.c **** *******************************************************************************/
 194:.\Generated_Source\PSoC5/CapSense_SMS_Wrapper.c **** void SMS_LIB_SetPrescaler(uint8 prescaler) 
 195:.\Generated_Source\PSoC5/CapSense_SMS_Wrapper.c **** {
 329              		.loc 1 195 0
 330              		.cfi_startproc
 331              		@ args = 0, pretend = 0, frame = 8
 332              		@ frame_needed = 1, uses_anonymous_args = 0
 333              		@ link register save eliminated.
 334 0000 80B4     		push	{r7}
 335              		.cfi_def_cfa_offset 4
 336              		.cfi_offset 7, -4
 337 0002 83B0     		sub	sp, sp, #12
 338              		.cfi_def_cfa_offset 16
 339 0004 00AF     		add	r7, sp, #0
 340              		.cfi_def_cfa_register 7
 341 0006 0346     		mov	r3, r0
 342 0008 FB71     		strb	r3, [r7, #7]
 196:.\Generated_Source\PSoC5/CapSense_SMS_Wrapper.c ****     prescaler = prescaler;
 197:.\Generated_Source\PSoC5/CapSense_SMS_Wrapper.c **** }
 343              		.loc 1 197 0
 344 000a 0C37     		adds	r7, r7, #12
 345              		.cfi_def_cfa_offset 4
 346 000c BD46     		mov	sp, r7
 347              		.cfi_def_cfa_register 13
 348              		@ sp needed
 349 000e 5DF8047B 		ldr	r7, [sp], #4
 350              		.cfi_restore 7
 351              		.cfi_def_cfa_offset 0
 352 0012 7047     		bx	lr
 353              		.cfi_endproc
 354              	.LFE4:
 355              		.size	SMS_LIB_SetPrescaler, .-SMS_LIB_SetPrescaler
 356              		.section	.text.SMS_LIB_V3_50_SetAnalogSwitchesSrc_PRS,"ax",%progbits
 357              		.align	2
 358              		.global	SMS_LIB_V3_50_SetAnalogSwitchesSrc_PRS
 359              		.thumb
 360              		.thumb_func
 361              		.type	SMS_LIB_V3_50_SetAnalogSwitchesSrc_PRS, %function
 362              	SMS_LIB_V3_50_SetAnalogSwitchesSrc_PRS:
 363              	.LFB5:
 198:.\Generated_Source\PSoC5/CapSense_SMS_Wrapper.c **** 
 199:.\Generated_Source\PSoC5/CapSense_SMS_Wrapper.c **** void SMS_LIB_V3_50_SetAnalogSwitchesSrc_PRS(void) 
 200:.\Generated_Source\PSoC5/CapSense_SMS_Wrapper.c **** {
 364              		.loc 1 200 0
 365              		.cfi_startproc
 366              		@ args = 0, pretend = 0, frame = 0
 367              		@ frame_needed = 1, uses_anonymous_args = 0
 368 0000 80B5     		push	{r7, lr}
 369              		.cfi_def_cfa_offset 8
 370              		.cfi_offset 7, -8
ARM GAS  C:\Users\LUKASC~1\AppData\Local\Temp\ccKu79sb.s 			page 11


 371              		.cfi_offset 14, -4
 372 0002 00AF     		add	r7, sp, #0
 373              		.cfi_def_cfa_register 7
 201:.\Generated_Source\PSoC5/CapSense_SMS_Wrapper.c **** 	CapSense_SetAnalogSwitchesSource(CapSense_ANALOG_SWITCHES_SRC_PRS);
 374              		.loc 1 201 0
 375 0004 0220     		movs	r0, #2
 376 0006 FFF7FEFF 		bl	CapSense_SetAnalogSwitchesSource
 202:.\Generated_Source\PSoC5/CapSense_SMS_Wrapper.c **** }
 377              		.loc 1 202 0
 378 000a 80BD     		pop	{r7, pc}
 379              		.cfi_endproc
 380              	.LFE5:
 381              		.size	SMS_LIB_V3_50_SetAnalogSwitchesSrc_PRS, .-SMS_LIB_V3_50_SetAnalogSwitchesSrc_PRS
 382              		.section	.text.SMS_LIB_V3_50_SetAnalogSwitchesSrc_Prescaler,"ax",%progbits
 383              		.align	2
 384              		.global	SMS_LIB_V3_50_SetAnalogSwitchesSrc_Prescaler
 385              		.thumb
 386              		.thumb_func
 387              		.type	SMS_LIB_V3_50_SetAnalogSwitchesSrc_Prescaler, %function
 388              	SMS_LIB_V3_50_SetAnalogSwitchesSrc_Prescaler:
 389              	.LFB6:
 203:.\Generated_Source\PSoC5/CapSense_SMS_Wrapper.c **** 
 204:.\Generated_Source\PSoC5/CapSense_SMS_Wrapper.c **** void SMS_LIB_V3_50_SetAnalogSwitchesSrc_Prescaler(void) 
 205:.\Generated_Source\PSoC5/CapSense_SMS_Wrapper.c **** {
 390              		.loc 1 205 0
 391              		.cfi_startproc
 392              		@ args = 0, pretend = 0, frame = 0
 393              		@ frame_needed = 1, uses_anonymous_args = 0
 394 0000 80B5     		push	{r7, lr}
 395              		.cfi_def_cfa_offset 8
 396              		.cfi_offset 7, -8
 397              		.cfi_offset 14, -4
 398 0002 00AF     		add	r7, sp, #0
 399              		.cfi_def_cfa_register 7
 206:.\Generated_Source\PSoC5/CapSense_SMS_Wrapper.c **** 	CapSense_SetAnalogSwitchesSource(CapSense_ANALOG_SWITCHES_SRC_PRESCALER);
 400              		.loc 1 206 0
 401 0004 0120     		movs	r0, #1
 402 0006 FFF7FEFF 		bl	CapSense_SetAnalogSwitchesSource
 207:.\Generated_Source\PSoC5/CapSense_SMS_Wrapper.c **** }
 403              		.loc 1 207 0
 404 000a 80BD     		pop	{r7, pc}
 405              		.cfi_endproc
 406              	.LFE6:
 407              		.size	SMS_LIB_V3_50_SetAnalogSwitchesSrc_Prescaler, .-SMS_LIB_V3_50_SetAnalogSwitchesSrc_Prescaler
 408              		.text
 409              	.Letext0:
 410              		.file 2 ".\\Generated_Source\\PSoC5\\cytypes.h"
 411              		.file 3 ".\\Generated_Source\\PSoC5\\CapSense.h"
 412              		.file 4 ".\\Generated_Source\\PSoC5\\CapSense_CSHL.h"