ARM GAS  C:\Users\LUKASC~1\AppData\Local\Temp\cchE3814.s 			page 1


   1              		.syntax unified
   2              		.cpu cortex-m3
   3              		.fpu softvfp
   4              		.eabi_attribute 20, 1
   5              		.eabi_attribute 21, 1
   6              		.eabi_attribute 23, 3
   7              		.eabi_attribute 24, 1
   8              		.eabi_attribute 25, 1
   9              		.eabi_attribute 26, 1
  10              		.eabi_attribute 30, 6
  11              		.eabi_attribute 34, 1
  12              		.eabi_attribute 18, 4
  13              		.thumb
  14              		.file	"CapSense_1_Pins.c"
  15              		.text
  16              	.Ltext0:
  17              		.cfi_sections	.debug_frame
  18              		.section	.text.CapSense_1_SetAllSensorsDriveMode,"ax",%progbits
  19              		.align	2
  20              		.global	CapSense_1_SetAllSensorsDriveMode
  21              		.thumb
  22              		.thumb_func
  23              		.type	CapSense_1_SetAllSensorsDriveMode, %function
  24              	CapSense_1_SetAllSensorsDriveMode:
  25              	.LFB0:
  26              		.file 1 ".\\Generated_Source\\PSoC5\\CapSense_1_Pins.c"
   1:.\Generated_Source\PSoC5/CapSense_1_Pins.c **** /*******************************************************************************
   2:.\Generated_Source\PSoC5/CapSense_1_Pins.c **** * File Name: CapSense_1_Pins.c
   3:.\Generated_Source\PSoC5/CapSense_1_Pins.c **** * Version 3.40
   4:.\Generated_Source\PSoC5/CapSense_1_Pins.c **** *
   5:.\Generated_Source\PSoC5/CapSense_1_Pins.c **** * Description:
   6:.\Generated_Source\PSoC5/CapSense_1_Pins.c **** *  This file contains API to enable firmware control of a Pins component.
   7:.\Generated_Source\PSoC5/CapSense_1_Pins.c **** *
   8:.\Generated_Source\PSoC5/CapSense_1_Pins.c **** * Note:
   9:.\Generated_Source\PSoC5/CapSense_1_Pins.c **** *
  10:.\Generated_Source\PSoC5/CapSense_1_Pins.c **** ********************************************************************************
  11:.\Generated_Source\PSoC5/CapSense_1_Pins.c **** * Copyright 2008-2013, Cypress Semiconductor Corporation.  All rights reserved.
  12:.\Generated_Source\PSoC5/CapSense_1_Pins.c **** * You may use this file only in accordance with the license, terms, conditions,
  13:.\Generated_Source\PSoC5/CapSense_1_Pins.c **** * disclaimers, and limitations in the end user license agreement accompanying
  14:.\Generated_Source\PSoC5/CapSense_1_Pins.c **** * the software package with which this file was provided.
  15:.\Generated_Source\PSoC5/CapSense_1_Pins.c **** *******************************************************************************/
  16:.\Generated_Source\PSoC5/CapSense_1_Pins.c **** 
  17:.\Generated_Source\PSoC5/CapSense_1_Pins.c **** #include "CapSense_1_Pins.h"
  18:.\Generated_Source\PSoC5/CapSense_1_Pins.c **** 
  19:.\Generated_Source\PSoC5/CapSense_1_Pins.c **** 
  20:.\Generated_Source\PSoC5/CapSense_1_Pins.c **** /*******************************************************************************
  21:.\Generated_Source\PSoC5/CapSense_1_Pins.c **** * Function Name: CapSense_1_SetAllSensorsDriveMode
  22:.\Generated_Source\PSoC5/CapSense_1_Pins.c **** ********************************************************************************
  23:.\Generated_Source\PSoC5/CapSense_1_Pins.c **** *
  24:.\Generated_Source\PSoC5/CapSense_1_Pins.c **** * Summary:
  25:.\Generated_Source\PSoC5/CapSense_1_Pins.c **** *  Sets the drive mode for the all pins used by capacitive sensors within 
  26:.\Generated_Source\PSoC5/CapSense_1_Pins.c **** *  CapSense component.
  27:.\Generated_Source\PSoC5/CapSense_1_Pins.c **** * 
  28:.\Generated_Source\PSoC5/CapSense_1_Pins.c **** * Parameters:  
  29:.\Generated_Source\PSoC5/CapSense_1_Pins.c **** *  mode: Desired drive mode.
  30:.\Generated_Source\PSoC5/CapSense_1_Pins.c **** *
  31:.\Generated_Source\PSoC5/CapSense_1_Pins.c **** * Return: 
ARM GAS  C:\Users\LUKASC~1\AppData\Local\Temp\cchE3814.s 			page 2


  32:.\Generated_Source\PSoC5/CapSense_1_Pins.c **** *  None
  33:.\Generated_Source\PSoC5/CapSense_1_Pins.c **** *
  34:.\Generated_Source\PSoC5/CapSense_1_Pins.c **** *******************************************************************************/
  35:.\Generated_Source\PSoC5/CapSense_1_Pins.c **** void CapSense_1_SetAllSensorsDriveMode(uint8 mode) 
  36:.\Generated_Source\PSoC5/CapSense_1_Pins.c **** {
  27              		.loc 1 36 0
  28              		.cfi_startproc
  29              		@ args = 0, pretend = 0, frame = 8
  30              		@ frame_needed = 1, uses_anonymous_args = 0
  31              		@ link register save eliminated.
  32 0000 80B4     		push	{r7}
  33              		.cfi_def_cfa_offset 4
  34              		.cfi_offset 7, -4
  35 0002 83B0     		sub	sp, sp, #12
  36              		.cfi_def_cfa_offset 16
  37 0004 00AF     		add	r7, sp, #0
  38              		.cfi_def_cfa_register 7
  39 0006 0346     		mov	r3, r0
  40 0008 FB71     		strb	r3, [r7, #7]
  37:.\Generated_Source\PSoC5/CapSense_1_Pins.c ****     /* Set pins drive mode */
  38:.\Generated_Source\PSoC5/CapSense_1_Pins.c ****     CyPins_SetPinDriveMode(CapSense_1_PortCH0__Button0__BTN, mode);
  41              		.loc 1 38 0
  42 000a A24B     		ldr	r3, .L2
  43 000c A14A     		ldr	r2, .L2
  44 000e 1278     		ldrb	r2, [r2]
  45 0010 D2B2     		uxtb	r2, r2
  46 0012 D2B2     		uxtb	r2, r2
  47 0014 22F00E02 		bic	r2, r2, #14
  48 0018 D1B2     		uxtb	r1, r2
  49 001a FA79     		ldrb	r2, [r7, #7]	@ zero_extendqisi2
  50 001c 02F00E02 		and	r2, r2, #14
  51 0020 D2B2     		uxtb	r2, r2
  52 0022 0A43     		orrs	r2, r2, r1
  53 0024 D2B2     		uxtb	r2, r2
  54 0026 D2B2     		uxtb	r2, r2
  55 0028 1A70     		strb	r2, [r3]
  39:.\Generated_Source\PSoC5/CapSense_1_Pins.c ****     CyPins_SetPinDriveMode(CapSense_1_PortCH0__LinearSlider0_e0__LS, mode);
  56              		.loc 1 39 0
  57 002a 9B4B     		ldr	r3, .L2+4
  58 002c 9A4A     		ldr	r2, .L2+4
  59 002e 1278     		ldrb	r2, [r2]
  60 0030 D2B2     		uxtb	r2, r2
  61 0032 D2B2     		uxtb	r2, r2
  62 0034 22F00E02 		bic	r2, r2, #14
  63 0038 D1B2     		uxtb	r1, r2
  64 003a FA79     		ldrb	r2, [r7, #7]	@ zero_extendqisi2
  65 003c 02F00E02 		and	r2, r2, #14
  66 0040 D2B2     		uxtb	r2, r2
  67 0042 0A43     		orrs	r2, r2, r1
  68 0044 D2B2     		uxtb	r2, r2
  69 0046 D2B2     		uxtb	r2, r2
  70 0048 1A70     		strb	r2, [r3]
  40:.\Generated_Source\PSoC5/CapSense_1_Pins.c ****     CyPins_SetPinDriveMode(CapSense_1_PortCH0__LinearSlider0_e1__LS, mode);
  71              		.loc 1 40 0
  72 004a 944B     		ldr	r3, .L2+8
  73 004c 934A     		ldr	r2, .L2+8
  74 004e 1278     		ldrb	r2, [r2]
ARM GAS  C:\Users\LUKASC~1\AppData\Local\Temp\cchE3814.s 			page 3


  75 0050 D2B2     		uxtb	r2, r2
  76 0052 D2B2     		uxtb	r2, r2
  77 0054 22F00E02 		bic	r2, r2, #14
  78 0058 D1B2     		uxtb	r1, r2
  79 005a FA79     		ldrb	r2, [r7, #7]	@ zero_extendqisi2
  80 005c 02F00E02 		and	r2, r2, #14
  81 0060 D2B2     		uxtb	r2, r2
  82 0062 0A43     		orrs	r2, r2, r1
  83 0064 D2B2     		uxtb	r2, r2
  84 0066 D2B2     		uxtb	r2, r2
  85 0068 1A70     		strb	r2, [r3]
  41:.\Generated_Source\PSoC5/CapSense_1_Pins.c ****     CyPins_SetPinDriveMode(CapSense_1_PortCH0__LinearSlider0_e2__LS, mode);
  86              		.loc 1 41 0
  87 006a 8D4B     		ldr	r3, .L2+12
  88 006c 8C4A     		ldr	r2, .L2+12
  89 006e 1278     		ldrb	r2, [r2]
  90 0070 D2B2     		uxtb	r2, r2
  91 0072 D2B2     		uxtb	r2, r2
  92 0074 22F00E02 		bic	r2, r2, #14
  93 0078 D1B2     		uxtb	r1, r2
  94 007a FA79     		ldrb	r2, [r7, #7]	@ zero_extendqisi2
  95 007c 02F00E02 		and	r2, r2, #14
  96 0080 D2B2     		uxtb	r2, r2
  97 0082 0A43     		orrs	r2, r2, r1
  98 0084 D2B2     		uxtb	r2, r2
  99 0086 D2B2     		uxtb	r2, r2
 100 0088 1A70     		strb	r2, [r3]
  42:.\Generated_Source\PSoC5/CapSense_1_Pins.c ****     CyPins_SetPinDriveMode(CapSense_1_PortCH0__LinearSlider0_e3__LS, mode);
 101              		.loc 1 42 0
 102 008a 864B     		ldr	r3, .L2+16
 103 008c 854A     		ldr	r2, .L2+16
 104 008e 1278     		ldrb	r2, [r2]
 105 0090 D2B2     		uxtb	r2, r2
 106 0092 D2B2     		uxtb	r2, r2
 107 0094 22F00E02 		bic	r2, r2, #14
 108 0098 D1B2     		uxtb	r1, r2
 109 009a FA79     		ldrb	r2, [r7, #7]	@ zero_extendqisi2
 110 009c 02F00E02 		and	r2, r2, #14
 111 00a0 D2B2     		uxtb	r2, r2
 112 00a2 0A43     		orrs	r2, r2, r1
 113 00a4 D2B2     		uxtb	r2, r2
 114 00a6 D2B2     		uxtb	r2, r2
 115 00a8 1A70     		strb	r2, [r3]
  43:.\Generated_Source\PSoC5/CapSense_1_Pins.c ****     CyPins_SetPinDriveMode(CapSense_1_PortCH0__LinearSlider0_e4__LS, mode);
 116              		.loc 1 43 0
 117 00aa 7F4B     		ldr	r3, .L2+20
 118 00ac 7E4A     		ldr	r2, .L2+20
 119 00ae 1278     		ldrb	r2, [r2]
 120 00b0 D2B2     		uxtb	r2, r2
 121 00b2 D2B2     		uxtb	r2, r2
 122 00b4 22F00E02 		bic	r2, r2, #14
 123 00b8 D1B2     		uxtb	r1, r2
 124 00ba FA79     		ldrb	r2, [r7, #7]	@ zero_extendqisi2
 125 00bc 02F00E02 		and	r2, r2, #14
 126 00c0 D2B2     		uxtb	r2, r2
 127 00c2 0A43     		orrs	r2, r2, r1
 128 00c4 D2B2     		uxtb	r2, r2
ARM GAS  C:\Users\LUKASC~1\AppData\Local\Temp\cchE3814.s 			page 4


 129 00c6 D2B2     		uxtb	r2, r2
 130 00c8 1A70     		strb	r2, [r3]
  44:.\Generated_Source\PSoC5/CapSense_1_Pins.c ****     CyPins_SetPinDriveMode(CapSense_1_PortCH0__LinearSlider0_e5__LS, mode);
 131              		.loc 1 44 0
 132 00ca 784B     		ldr	r3, .L2+24
 133 00cc 774A     		ldr	r2, .L2+24
 134 00ce 1278     		ldrb	r2, [r2]
 135 00d0 D2B2     		uxtb	r2, r2
 136 00d2 D2B2     		uxtb	r2, r2
 137 00d4 22F00E02 		bic	r2, r2, #14
 138 00d8 D1B2     		uxtb	r1, r2
 139 00da FA79     		ldrb	r2, [r7, #7]	@ zero_extendqisi2
 140 00dc 02F00E02 		and	r2, r2, #14
 141 00e0 D2B2     		uxtb	r2, r2
 142 00e2 0A43     		orrs	r2, r2, r1
 143 00e4 D2B2     		uxtb	r2, r2
 144 00e6 D2B2     		uxtb	r2, r2
 145 00e8 1A70     		strb	r2, [r3]
  45:.\Generated_Source\PSoC5/CapSense_1_Pins.c ****     CyPins_SetPinDriveMode(CapSense_1_PortCH0__LinearSlider0_e6__LS, mode);
 146              		.loc 1 45 0
 147 00ea 714B     		ldr	r3, .L2+28
 148 00ec 704A     		ldr	r2, .L2+28
 149 00ee 1278     		ldrb	r2, [r2]
 150 00f0 D2B2     		uxtb	r2, r2
 151 00f2 D2B2     		uxtb	r2, r2
 152 00f4 22F00E02 		bic	r2, r2, #14
 153 00f8 D1B2     		uxtb	r1, r2
 154 00fa FA79     		ldrb	r2, [r7, #7]	@ zero_extendqisi2
 155 00fc 02F00E02 		and	r2, r2, #14
 156 0100 D2B2     		uxtb	r2, r2
 157 0102 0A43     		orrs	r2, r2, r1
 158 0104 D2B2     		uxtb	r2, r2
 159 0106 D2B2     		uxtb	r2, r2
 160 0108 1A70     		strb	r2, [r3]
  46:.\Generated_Source\PSoC5/CapSense_1_Pins.c ****     CyPins_SetPinDriveMode(CapSense_1_PortCH0__LinearSlider0_e7__LS, mode);
 161              		.loc 1 46 0
 162 010a 6A4B     		ldr	r3, .L2+32
 163 010c 694A     		ldr	r2, .L2+32
 164 010e 1278     		ldrb	r2, [r2]
 165 0110 D2B2     		uxtb	r2, r2
 166 0112 D2B2     		uxtb	r2, r2
 167 0114 22F00E02 		bic	r2, r2, #14
 168 0118 D1B2     		uxtb	r1, r2
 169 011a FA79     		ldrb	r2, [r7, #7]	@ zero_extendqisi2
 170 011c 02F00E02 		and	r2, r2, #14
 171 0120 D2B2     		uxtb	r2, r2
 172 0122 0A43     		orrs	r2, r2, r1
 173 0124 D2B2     		uxtb	r2, r2
 174 0126 D2B2     		uxtb	r2, r2
 175 0128 1A70     		strb	r2, [r3]
  47:.\Generated_Source\PSoC5/CapSense_1_Pins.c ****     CyPins_SetPinDriveMode(CapSense_1_PortCH0__LinearSlider0_e8__LS, mode);
 176              		.loc 1 47 0
 177 012a 634B     		ldr	r3, .L2+36
 178 012c 624A     		ldr	r2, .L2+36
 179 012e 1278     		ldrb	r2, [r2]
 180 0130 D2B2     		uxtb	r2, r2
 181 0132 D2B2     		uxtb	r2, r2
ARM GAS  C:\Users\LUKASC~1\AppData\Local\Temp\cchE3814.s 			page 5


 182 0134 22F00E02 		bic	r2, r2, #14
 183 0138 D1B2     		uxtb	r1, r2
 184 013a FA79     		ldrb	r2, [r7, #7]	@ zero_extendqisi2
 185 013c 02F00E02 		and	r2, r2, #14
 186 0140 D2B2     		uxtb	r2, r2
 187 0142 0A43     		orrs	r2, r2, r1
 188 0144 D2B2     		uxtb	r2, r2
 189 0146 D2B2     		uxtb	r2, r2
 190 0148 1A70     		strb	r2, [r3]
  48:.\Generated_Source\PSoC5/CapSense_1_Pins.c ****     CyPins_SetPinDriveMode(CapSense_1_PortCH0__LinearSlider0_e9__LS, mode);
 191              		.loc 1 48 0
 192 014a 5C4B     		ldr	r3, .L2+40
 193 014c 5B4A     		ldr	r2, .L2+40
 194 014e 1278     		ldrb	r2, [r2]
 195 0150 D2B2     		uxtb	r2, r2
 196 0152 D2B2     		uxtb	r2, r2
 197 0154 22F00E02 		bic	r2, r2, #14
 198 0158 D1B2     		uxtb	r1, r2
 199 015a FA79     		ldrb	r2, [r7, #7]	@ zero_extendqisi2
 200 015c 02F00E02 		and	r2, r2, #14
 201 0160 D2B2     		uxtb	r2, r2
 202 0162 0A43     		orrs	r2, r2, r1
 203 0164 D2B2     		uxtb	r2, r2
 204 0166 D2B2     		uxtb	r2, r2
 205 0168 1A70     		strb	r2, [r3]
  49:.\Generated_Source\PSoC5/CapSense_1_Pins.c ****     CyPins_SetPinDriveMode(CapSense_1_PortCH0__LinearSlider0_e10__LS, mode);
 206              		.loc 1 49 0
 207 016a 554B     		ldr	r3, .L2+44
 208 016c 544A     		ldr	r2, .L2+44
 209 016e 1278     		ldrb	r2, [r2]
 210 0170 D2B2     		uxtb	r2, r2
 211 0172 D2B2     		uxtb	r2, r2
 212 0174 22F00E02 		bic	r2, r2, #14
 213 0178 D1B2     		uxtb	r1, r2
 214 017a FA79     		ldrb	r2, [r7, #7]	@ zero_extendqisi2
 215 017c 02F00E02 		and	r2, r2, #14
 216 0180 D2B2     		uxtb	r2, r2
 217 0182 0A43     		orrs	r2, r2, r1
 218 0184 D2B2     		uxtb	r2, r2
 219 0186 D2B2     		uxtb	r2, r2
 220 0188 1A70     		strb	r2, [r3]
  50:.\Generated_Source\PSoC5/CapSense_1_Pins.c ****     CyPins_SetPinDriveMode(CapSense_1_PortCH0__LinearSlider0_e11__LS, mode);
 221              		.loc 1 50 0
 222 018a 4E4B     		ldr	r3, .L2+48
 223 018c 4D4A     		ldr	r2, .L2+48
 224 018e 1278     		ldrb	r2, [r2]
 225 0190 D2B2     		uxtb	r2, r2
 226 0192 D2B2     		uxtb	r2, r2
 227 0194 22F00E02 		bic	r2, r2, #14
 228 0198 D1B2     		uxtb	r1, r2
 229 019a FA79     		ldrb	r2, [r7, #7]	@ zero_extendqisi2
 230 019c 02F00E02 		and	r2, r2, #14
 231 01a0 D2B2     		uxtb	r2, r2
 232 01a2 0A43     		orrs	r2, r2, r1
 233 01a4 D2B2     		uxtb	r2, r2
 234 01a6 D2B2     		uxtb	r2, r2
 235 01a8 1A70     		strb	r2, [r3]
ARM GAS  C:\Users\LUKASC~1\AppData\Local\Temp\cchE3814.s 			page 6


  51:.\Generated_Source\PSoC5/CapSense_1_Pins.c ****     CyPins_SetPinDriveMode(CapSense_1_PortCH0__LinearSlider0_e12__LS, mode);
 236              		.loc 1 51 0
 237 01aa 474B     		ldr	r3, .L2+52
 238 01ac 464A     		ldr	r2, .L2+52
 239 01ae 1278     		ldrb	r2, [r2]
 240 01b0 D2B2     		uxtb	r2, r2
 241 01b2 D2B2     		uxtb	r2, r2
 242 01b4 22F00E02 		bic	r2, r2, #14
 243 01b8 D1B2     		uxtb	r1, r2
 244 01ba FA79     		ldrb	r2, [r7, #7]	@ zero_extendqisi2
 245 01bc 02F00E02 		and	r2, r2, #14
 246 01c0 D2B2     		uxtb	r2, r2
 247 01c2 0A43     		orrs	r2, r2, r1
 248 01c4 D2B2     		uxtb	r2, r2
 249 01c6 D2B2     		uxtb	r2, r2
 250 01c8 1A70     		strb	r2, [r3]
  52:.\Generated_Source\PSoC5/CapSense_1_Pins.c ****     CyPins_SetPinDriveMode(CapSense_1_PortCH0__LinearSlider0_e13__LS, mode);
 251              		.loc 1 52 0
 252 01ca 404B     		ldr	r3, .L2+56
 253 01cc 3F4A     		ldr	r2, .L2+56
 254 01ce 1278     		ldrb	r2, [r2]
 255 01d0 D2B2     		uxtb	r2, r2
 256 01d2 D2B2     		uxtb	r2, r2
 257 01d4 22F00E02 		bic	r2, r2, #14
 258 01d8 D1B2     		uxtb	r1, r2
 259 01da FA79     		ldrb	r2, [r7, #7]	@ zero_extendqisi2
 260 01dc 02F00E02 		and	r2, r2, #14
 261 01e0 D2B2     		uxtb	r2, r2
 262 01e2 0A43     		orrs	r2, r2, r1
 263 01e4 D2B2     		uxtb	r2, r2
 264 01e6 D2B2     		uxtb	r2, r2
 265 01e8 1A70     		strb	r2, [r3]
  53:.\Generated_Source\PSoC5/CapSense_1_Pins.c ****     CyPins_SetPinDriveMode(CapSense_1_PortCH0__LinearSlider0_e14__LS, mode);
 266              		.loc 1 53 0
 267 01ea 394B     		ldr	r3, .L2+60
 268 01ec 384A     		ldr	r2, .L2+60
 269 01ee 1278     		ldrb	r2, [r2]
 270 01f0 D2B2     		uxtb	r2, r2
 271 01f2 D2B2     		uxtb	r2, r2
 272 01f4 22F00E02 		bic	r2, r2, #14
 273 01f8 D1B2     		uxtb	r1, r2
 274 01fa FA79     		ldrb	r2, [r7, #7]	@ zero_extendqisi2
 275 01fc 02F00E02 		and	r2, r2, #14
 276 0200 D2B2     		uxtb	r2, r2
 277 0202 0A43     		orrs	r2, r2, r1
 278 0204 D2B2     		uxtb	r2, r2
 279 0206 D2B2     		uxtb	r2, r2
 280 0208 1A70     		strb	r2, [r3]
  54:.\Generated_Source\PSoC5/CapSense_1_Pins.c ****     CyPins_SetPinDriveMode(CapSense_1_PortCH0__LinearSlider0_e15__LS, mode);
 281              		.loc 1 54 0
 282 020a 324B     		ldr	r3, .L2+64
 283 020c 314A     		ldr	r2, .L2+64
 284 020e 1278     		ldrb	r2, [r2]
 285 0210 D2B2     		uxtb	r2, r2
 286 0212 D2B2     		uxtb	r2, r2
 287 0214 22F00E02 		bic	r2, r2, #14
 288 0218 D1B2     		uxtb	r1, r2
ARM GAS  C:\Users\LUKASC~1\AppData\Local\Temp\cchE3814.s 			page 7


 289 021a FA79     		ldrb	r2, [r7, #7]	@ zero_extendqisi2
 290 021c 02F00E02 		and	r2, r2, #14
 291 0220 D2B2     		uxtb	r2, r2
 292 0222 0A43     		orrs	r2, r2, r1
 293 0224 D2B2     		uxtb	r2, r2
 294 0226 D2B2     		uxtb	r2, r2
 295 0228 1A70     		strb	r2, [r3]
  55:.\Generated_Source\PSoC5/CapSense_1_Pins.c ****     CyPins_SetPinDriveMode(CapSense_1_PortCH0__LinearSlider0_e16__LS, mode);
 296              		.loc 1 55 0
 297 022a 2B4B     		ldr	r3, .L2+68
 298 022c 2A4A     		ldr	r2, .L2+68
 299 022e 1278     		ldrb	r2, [r2]
 300 0230 D2B2     		uxtb	r2, r2
 301 0232 D2B2     		uxtb	r2, r2
 302 0234 22F00E02 		bic	r2, r2, #14
 303 0238 D1B2     		uxtb	r1, r2
 304 023a FA79     		ldrb	r2, [r7, #7]	@ zero_extendqisi2
 305 023c 02F00E02 		and	r2, r2, #14
 306 0240 D2B2     		uxtb	r2, r2
 307 0242 0A43     		orrs	r2, r2, r1
 308 0244 D2B2     		uxtb	r2, r2
 309 0246 D2B2     		uxtb	r2, r2
 310 0248 1A70     		strb	r2, [r3]
  56:.\Generated_Source\PSoC5/CapSense_1_Pins.c ****     CyPins_SetPinDriveMode(CapSense_1_PortCH0__LinearSlider0_e17__LS, mode);
 311              		.loc 1 56 0
 312 024a 244B     		ldr	r3, .L2+72
 313 024c 234A     		ldr	r2, .L2+72
 314 024e 1278     		ldrb	r2, [r2]
 315 0250 D2B2     		uxtb	r2, r2
 316 0252 D2B2     		uxtb	r2, r2
 317 0254 22F00E02 		bic	r2, r2, #14
 318 0258 D1B2     		uxtb	r1, r2
 319 025a FA79     		ldrb	r2, [r7, #7]	@ zero_extendqisi2
 320 025c 02F00E02 		and	r2, r2, #14
 321 0260 D2B2     		uxtb	r2, r2
 322 0262 0A43     		orrs	r2, r2, r1
 323 0264 D2B2     		uxtb	r2, r2
 324 0266 D2B2     		uxtb	r2, r2
 325 0268 1A70     		strb	r2, [r3]
  57:.\Generated_Source\PSoC5/CapSense_1_Pins.c ****     CyPins_SetPinDriveMode(CapSense_1_PortCH0__LinearSlider0_e18__LS, mode);
 326              		.loc 1 57 0
 327 026a 1D4B     		ldr	r3, .L2+76
 328 026c 1C4A     		ldr	r2, .L2+76
 329 026e 1278     		ldrb	r2, [r2]
 330 0270 D2B2     		uxtb	r2, r2
 331 0272 D2B2     		uxtb	r2, r2
 332 0274 22F00E02 		bic	r2, r2, #14
 333 0278 D1B2     		uxtb	r1, r2
 334 027a FA79     		ldrb	r2, [r7, #7]	@ zero_extendqisi2
 335 027c 02F00E02 		and	r2, r2, #14
 336 0280 D2B2     		uxtb	r2, r2
 337 0282 0A43     		orrs	r2, r2, r1
 338 0284 D2B2     		uxtb	r2, r2
 339 0286 D2B2     		uxtb	r2, r2
 340 0288 1A70     		strb	r2, [r3]
  58:.\Generated_Source\PSoC5/CapSense_1_Pins.c ****     CyPins_SetPinDriveMode(CapSense_1_PortCH0__Button1__BTN, mode);
 341              		.loc 1 58 0
ARM GAS  C:\Users\LUKASC~1\AppData\Local\Temp\cchE3814.s 			page 8


 342 028a 164B     		ldr	r3, .L2+80
 343 028c 154A     		ldr	r2, .L2+80
 344 028e 1278     		ldrb	r2, [r2]
 345 0290 D2B2     		uxtb	r2, r2
 346 0292 29E0     		b	.L3
 347              	.L4:
 348              		.align	2
 349              	.L2:
 350 0294 07500040 		.word	1073762311
 351 0298 18500040 		.word	1073762328
 352 029c 19500040 		.word	1073762329
 353 02a0 1A500040 		.word	1073762330
 354 02a4 1B500040 		.word	1073762331
 355 02a8 1C500040 		.word	1073762332
 356 02ac 1D500040 		.word	1073762333
 357 02b0 1E500040 		.word	1073762334
 358 02b4 1F500040 		.word	1073762335
 359 02b8 78500040 		.word	1073762424
 360 02bc 79500040 		.word	1073762425
 361 02c0 7A500040 		.word	1073762426
 362 02c4 7B500040 		.word	1073762427
 363 02c8 7C500040 		.word	1073762428
 364 02cc 7D500040 		.word	1073762429
 365 02d0 00500040 		.word	1073762304
 366 02d4 01500040 		.word	1073762305
 367 02d8 02500040 		.word	1073762306
 368 02dc 03500040 		.word	1073762307
 369 02e0 04500040 		.word	1073762308
 370 02e4 06500040 		.word	1073762310
 371              	.L3:
 372 02e8 D2B2     		uxtb	r2, r2
 373 02ea 22F00E02 		bic	r2, r2, #14
 374 02ee D1B2     		uxtb	r1, r2
 375 02f0 FA79     		ldrb	r2, [r7, #7]	@ zero_extendqisi2
 376 02f2 02F00E02 		and	r2, r2, #14
 377 02f6 D2B2     		uxtb	r2, r2
 378 02f8 0A43     		orrs	r2, r2, r1
 379 02fa D2B2     		uxtb	r2, r2
 380 02fc D2B2     		uxtb	r2, r2
 381 02fe 1A70     		strb	r2, [r3]
  59:.\Generated_Source\PSoC5/CapSense_1_Pins.c ****     CyPins_SetPinDriveMode(CapSense_1_PortCH0__Button2__BTN, mode);
 382              		.loc 1 59 0
 383 0300 0A4B     		ldr	r3, .L5
 384 0302 0A4A     		ldr	r2, .L5
 385 0304 1278     		ldrb	r2, [r2]
 386 0306 D2B2     		uxtb	r2, r2
 387 0308 D2B2     		uxtb	r2, r2
 388 030a 22F00E02 		bic	r2, r2, #14
 389 030e D1B2     		uxtb	r1, r2
 390 0310 FA79     		ldrb	r2, [r7, #7]	@ zero_extendqisi2
 391 0312 02F00E02 		and	r2, r2, #14
 392 0316 D2B2     		uxtb	r2, r2
 393 0318 0A43     		orrs	r2, r2, r1
 394 031a D2B2     		uxtb	r2, r2
 395 031c D2B2     		uxtb	r2, r2
 396 031e 1A70     		strb	r2, [r3]
  60:.\Generated_Source\PSoC5/CapSense_1_Pins.c **** 
ARM GAS  C:\Users\LUKASC~1\AppData\Local\Temp\cchE3814.s 			page 9


  61:.\Generated_Source\PSoC5/CapSense_1_Pins.c **** }
 397              		.loc 1 61 0
 398 0320 0C37     		adds	r7, r7, #12
 399              		.cfi_def_cfa_offset 4
 400 0322 BD46     		mov	sp, r7
 401              		.cfi_def_cfa_register 13
 402              		@ sp needed
 403 0324 5DF8047B 		ldr	r7, [sp], #4
 404              		.cfi_restore 7
 405              		.cfi_def_cfa_offset 0
 406 0328 7047     		bx	lr
 407              	.L6:
 408 032a 00BF     		.align	2
 409              	.L5:
 410 032c 05500040 		.word	1073762309
 411              		.cfi_endproc
 412              	.LFE0:
 413              		.size	CapSense_1_SetAllSensorsDriveMode, .-CapSense_1_SetAllSensorsDriveMode
 414              		.section	.text.CapSense_1_SetAllCmodsDriveMode,"ax",%progbits
 415              		.align	2
 416              		.global	CapSense_1_SetAllCmodsDriveMode
 417              		.thumb
 418              		.thumb_func
 419              		.type	CapSense_1_SetAllCmodsDriveMode, %function
 420              	CapSense_1_SetAllCmodsDriveMode:
 421              	.LFB1:
  62:.\Generated_Source\PSoC5/CapSense_1_Pins.c **** 
  63:.\Generated_Source\PSoC5/CapSense_1_Pins.c **** 
  64:.\Generated_Source\PSoC5/CapSense_1_Pins.c **** 
  65:.\Generated_Source\PSoC5/CapSense_1_Pins.c **** /*******************************************************************************
  66:.\Generated_Source\PSoC5/CapSense_1_Pins.c **** * Function Name: CapSense_1_SetAllCmodsDriveMode
  67:.\Generated_Source\PSoC5/CapSense_1_Pins.c **** ********************************************************************************
  68:.\Generated_Source\PSoC5/CapSense_1_Pins.c **** *
  69:.\Generated_Source\PSoC5/CapSense_1_Pins.c **** * Summary:
  70:.\Generated_Source\PSoC5/CapSense_1_Pins.c **** *  Sets the drive mode for the all pins used by Cmod capacitors within CapSense 
  71:.\Generated_Source\PSoC5/CapSense_1_Pins.c **** *  component.
  72:.\Generated_Source\PSoC5/CapSense_1_Pins.c **** * 
  73:.\Generated_Source\PSoC5/CapSense_1_Pins.c **** * Parameters:  
  74:.\Generated_Source\PSoC5/CapSense_1_Pins.c **** *  mode: Desired drive mode.
  75:.\Generated_Source\PSoC5/CapSense_1_Pins.c **** *
  76:.\Generated_Source\PSoC5/CapSense_1_Pins.c **** * Return: 
  77:.\Generated_Source\PSoC5/CapSense_1_Pins.c **** *  None
  78:.\Generated_Source\PSoC5/CapSense_1_Pins.c **** *
  79:.\Generated_Source\PSoC5/CapSense_1_Pins.c **** *******************************************************************************/
  80:.\Generated_Source\PSoC5/CapSense_1_Pins.c **** void CapSense_1_SetAllCmodsDriveMode(uint8 mode) 
  81:.\Generated_Source\PSoC5/CapSense_1_Pins.c **** {
 422              		.loc 1 81 0
 423              		.cfi_startproc
 424              		@ args = 0, pretend = 0, frame = 8
 425              		@ frame_needed = 1, uses_anonymous_args = 0
 426              		@ link register save eliminated.
 427 0000 80B4     		push	{r7}
 428              		.cfi_def_cfa_offset 4
 429              		.cfi_offset 7, -4
 430 0002 83B0     		sub	sp, sp, #12
 431              		.cfi_def_cfa_offset 16
 432 0004 00AF     		add	r7, sp, #0
ARM GAS  C:\Users\LUKASC~1\AppData\Local\Temp\cchE3814.s 			page 10


 433              		.cfi_def_cfa_register 7
 434 0006 0346     		mov	r3, r0
 435 0008 FB71     		strb	r3, [r7, #7]
  82:.\Generated_Source\PSoC5/CapSense_1_Pins.c ****    /* Set pins drive mode */
  83:.\Generated_Source\PSoC5/CapSense_1_Pins.c ****     CyPins_SetPinDriveMode(CapSense_1_CmodCH0_Cmod_CH0, mode);
 436              		.loc 1 83 0
 437 000a 0A4B     		ldr	r3, .L8
 438 000c 094A     		ldr	r2, .L8
 439 000e 1278     		ldrb	r2, [r2]
 440 0010 D2B2     		uxtb	r2, r2
 441 0012 D2B2     		uxtb	r2, r2
 442 0014 22F00E02 		bic	r2, r2, #14
 443 0018 D1B2     		uxtb	r1, r2
 444 001a FA79     		ldrb	r2, [r7, #7]	@ zero_extendqisi2
 445 001c 02F00E02 		and	r2, r2, #14
 446 0020 D2B2     		uxtb	r2, r2
 447 0022 0A43     		orrs	r2, r2, r1
 448 0024 D2B2     		uxtb	r2, r2
 449 0026 D2B2     		uxtb	r2, r2
 450 0028 1A70     		strb	r2, [r3]
  84:.\Generated_Source\PSoC5/CapSense_1_Pins.c **** 
  85:.\Generated_Source\PSoC5/CapSense_1_Pins.c **** }
 451              		.loc 1 85 0
 452 002a 0C37     		adds	r7, r7, #12
 453              		.cfi_def_cfa_offset 4
 454 002c BD46     		mov	sp, r7
 455              		.cfi_def_cfa_register 13
 456              		@ sp needed
 457 002e 5DF8047B 		ldr	r7, [sp], #4
 458              		.cfi_restore 7
 459              		.cfi_def_cfa_offset 0
 460 0032 7047     		bx	lr
 461              	.L9:
 462              		.align	2
 463              	.L8:
 464 0034 10500040 		.word	1073762320
 465              		.cfi_endproc
 466              	.LFE1:
 467              		.size	CapSense_1_SetAllCmodsDriveMode, .-CapSense_1_SetAllCmodsDriveMode
 468              		.text
 469              	.Letext0:
 470              		.file 2 ".\\Generated_Source\\PSoC5\\cytypes.h"
 471              		.section	.debug_info,"",%progbits
 472              	.Ldebug_info0:
 473 0000 E5000000 		.4byte	0xe5
 474 0004 0400     		.2byte	0x4
 475 0006 00000000 		.4byte	.Ldebug_abbrev0
 476 000a 04       		.byte	0x4
 477 000b 01       		.uleb128 0x1
 478 000c EE000000 		.4byte	.LASF16
 479 0010 01       		.byte	0x1
 480 0011 83010000 		.4byte	.LASF17
 481 0015 42000000 		.4byte	.LASF18
 482 0019 00000000 		.4byte	.Ldebug_ranges0+0
 483 001d 00000000 		.4byte	0
 484 0021 00000000 		.4byte	.Ldebug_line0
 485 0025 02       		.uleb128 0x2
ARM GAS  C:\Users\LUKASC~1\AppData\Local\Temp\cchE3814.s 			page 11


 486 0026 01       		.byte	0x1
 487 0027 06       		.byte	0x6
 488 0028 C1010000 		.4byte	.LASF0
 489 002c 02       		.uleb128 0x2
 490 002d 01       		.byte	0x1
 491 002e 08       		.byte	0x8
 492 002f D2000000 		.4byte	.LASF1
 493 0033 02       		.uleb128 0x2
 494 0034 02       		.byte	0x2
 495 0035 05       		.byte	0x5
 496 0036 ED010000 		.4byte	.LASF2
 497 003a 02       		.uleb128 0x2
 498 003b 02       		.byte	0x2
 499 003c 07       		.byte	0x7
 500 003d AE010000 		.4byte	.LASF3
 501 0041 02       		.uleb128 0x2
 502 0042 04       		.byte	0x4
 503 0043 05       		.byte	0x5
 504 0044 E5000000 		.4byte	.LASF4
 505 0048 02       		.uleb128 0x2
 506 0049 04       		.byte	0x4
 507 004a 07       		.byte	0x7
 508 004b A3000000 		.4byte	.LASF5
 509 004f 02       		.uleb128 0x2
 510 0050 08       		.byte	0x8
 511 0051 05       		.byte	0x5
 512 0052 00000000 		.4byte	.LASF6
 513 0056 02       		.uleb128 0x2
 514 0057 08       		.byte	0x8
 515 0058 07       		.byte	0x7
 516 0059 B5000000 		.4byte	.LASF7
 517 005d 03       		.uleb128 0x3
 518 005e 04       		.byte	0x4
 519 005f 05       		.byte	0x5
 520 0060 696E7400 		.ascii	"int\000"
 521 0064 02       		.uleb128 0x2
 522 0065 04       		.byte	0x4
 523 0066 07       		.byte	0x7
 524 0067 0E000000 		.4byte	.LASF8
 525 006b 04       		.uleb128 0x4
 526 006c 9D000000 		.4byte	.LASF12
 527 0070 02       		.byte	0x2
 528 0071 3801     		.2byte	0x138
 529 0073 2C000000 		.4byte	0x2c
 530 0077 02       		.uleb128 0x2
 531 0078 04       		.byte	0x4
 532 0079 04       		.byte	0x4
 533 007a CC000000 		.4byte	.LASF9
 534 007e 02       		.uleb128 0x2
 535 007f 08       		.byte	0x8
 536 0080 04       		.byte	0x4
 537 0081 7C010000 		.4byte	.LASF10
 538 0085 02       		.uleb128 0x2
 539 0086 01       		.byte	0x1
 540 0087 08       		.byte	0x8
 541 0088 E0000000 		.4byte	.LASF11
 542 008c 04       		.uleb128 0x4
ARM GAS  C:\Users\LUKASC~1\AppData\Local\Temp\cchE3814.s 			page 12


 543 008d F7010000 		.4byte	.LASF13
 544 0091 02       		.byte	0x2
 545 0092 E201     		.2byte	0x1e2
 546 0094 98000000 		.4byte	0x98
 547 0098 05       		.uleb128 0x5
 548 0099 6B000000 		.4byte	0x6b
 549 009d 02       		.uleb128 0x2
 550 009e 04       		.byte	0x4
 551 009f 07       		.byte	0x7
 552 00a0 FC010000 		.4byte	.LASF14
 553 00a4 06       		.uleb128 0x6
 554 00a5 20000000 		.4byte	.LASF19
 555 00a9 01       		.byte	0x1
 556 00aa 23       		.byte	0x23
 557 00ab 00000000 		.4byte	.LFB0
 558 00af 30030000 		.4byte	.LFE0-.LFB0
 559 00b3 01       		.uleb128 0x1
 560 00b4 9C       		.byte	0x9c
 561 00b5 C8000000 		.4byte	0xc8
 562 00b9 07       		.uleb128 0x7
 563 00ba 1B000000 		.4byte	.LASF15
 564 00be 01       		.byte	0x1
 565 00bf 23       		.byte	0x23
 566 00c0 6B000000 		.4byte	0x6b
 567 00c4 02       		.uleb128 0x2
 568 00c5 91       		.byte	0x91
 569 00c6 77       		.sleb128 -9
 570 00c7 00       		.byte	0
 571 00c8 08       		.uleb128 0x8
 572 00c9 CD010000 		.4byte	.LASF20
 573 00cd 01       		.byte	0x1
 574 00ce 50       		.byte	0x50
 575 00cf 00000000 		.4byte	.LFB1
 576 00d3 38000000 		.4byte	.LFE1-.LFB1
 577 00d7 01       		.uleb128 0x1
 578 00d8 9C       		.byte	0x9c
 579 00d9 07       		.uleb128 0x7
 580 00da 1B000000 		.4byte	.LASF15
 581 00de 01       		.byte	0x1
 582 00df 50       		.byte	0x50
 583 00e0 6B000000 		.4byte	0x6b
 584 00e4 02       		.uleb128 0x2
 585 00e5 91       		.byte	0x91
 586 00e6 77       		.sleb128 -9
 587 00e7 00       		.byte	0
 588 00e8 00       		.byte	0
 589              		.section	.debug_abbrev,"",%progbits
 590              	.Ldebug_abbrev0:
 591 0000 01       		.uleb128 0x1
 592 0001 11       		.uleb128 0x11
 593 0002 01       		.byte	0x1
 594 0003 25       		.uleb128 0x25
 595 0004 0E       		.uleb128 0xe
 596 0005 13       		.uleb128 0x13
 597 0006 0B       		.uleb128 0xb
 598 0007 03       		.uleb128 0x3
 599 0008 0E       		.uleb128 0xe
ARM GAS  C:\Users\LUKASC~1\AppData\Local\Temp\cchE3814.s 			page 13


 600 0009 1B       		.uleb128 0x1b
 601 000a 0E       		.uleb128 0xe
 602 000b 55       		.uleb128 0x55
 603 000c 17       		.uleb128 0x17
 604 000d 11       		.uleb128 0x11
 605 000e 01       		.uleb128 0x1
 606 000f 10       		.uleb128 0x10
 607 0010 17       		.uleb128 0x17
 608 0011 00       		.byte	0
 609 0012 00       		.byte	0
 610 0013 02       		.uleb128 0x2
 611 0014 24       		.uleb128 0x24
 612 0015 00       		.byte	0
 613 0016 0B       		.uleb128 0xb
 614 0017 0B       		.uleb128 0xb
 615 0018 3E       		.uleb128 0x3e
 616 0019 0B       		.uleb128 0xb
 617 001a 03       		.uleb128 0x3
 618 001b 0E       		.uleb128 0xe
 619 001c 00       		.byte	0
 620 001d 00       		.byte	0
 621 001e 03       		.uleb128 0x3
 622 001f 24       		.uleb128 0x24
 623 0020 00       		.byte	0
 624 0021 0B       		.uleb128 0xb
 625 0022 0B       		.uleb128 0xb
 626 0023 3E       		.uleb128 0x3e
 627 0024 0B       		.uleb128 0xb
 628 0025 03       		.uleb128 0x3
 629 0026 08       		.uleb128 0x8
 630 0027 00       		.byte	0
 631 0028 00       		.byte	0
 632 0029 04       		.uleb128 0x4
 633 002a 16       		.uleb128 0x16
 634 002b 00       		.byte	0
 635 002c 03       		.uleb128 0x3
 636 002d 0E       		.uleb128 0xe
 637 002e 3A       		.uleb128 0x3a
 638 002f 0B       		.uleb128 0xb
 639 0030 3B       		.uleb128 0x3b
 640 0031 05       		.uleb128 0x5
 641 0032 49       		.uleb128 0x49
 642 0033 13       		.uleb128 0x13
 643 0034 00       		.byte	0
 644 0035 00       		.byte	0
 645 0036 05       		.uleb128 0x5
 646 0037 35       		.uleb128 0x35
 647 0038 00       		.byte	0
 648 0039 49       		.uleb128 0x49
 649 003a 13       		.uleb128 0x13
 650 003b 00       		.byte	0
 651 003c 00       		.byte	0
 652 003d 06       		.uleb128 0x6
 653 003e 2E       		.uleb128 0x2e
 654 003f 01       		.byte	0x1
 655 0040 3F       		.uleb128 0x3f
 656 0041 19       		.uleb128 0x19
ARM GAS  C:\Users\LUKASC~1\AppData\Local\Temp\cchE3814.s 			page 14


 657 0042 03       		.uleb128 0x3
 658 0043 0E       		.uleb128 0xe
 659 0044 3A       		.uleb128 0x3a
 660 0045 0B       		.uleb128 0xb
 661 0046 3B       		.uleb128 0x3b
 662 0047 0B       		.uleb128 0xb
 663 0048 27       		.uleb128 0x27
 664 0049 19       		.uleb128 0x19
 665 004a 11       		.uleb128 0x11
 666 004b 01       		.uleb128 0x1
 667 004c 12       		.uleb128 0x12
 668 004d 06       		.uleb128 0x6
 669 004e 40       		.uleb128 0x40
 670 004f 18       		.uleb128 0x18
 671 0050 9742     		.uleb128 0x2117
 672 0052 19       		.uleb128 0x19
 673 0053 01       		.uleb128 0x1
 674 0054 13       		.uleb128 0x13
 675 0055 00       		.byte	0
 676 0056 00       		.byte	0
 677 0057 07       		.uleb128 0x7
 678 0058 05       		.uleb128 0x5
 679 0059 00       		.byte	0
 680 005a 03       		.uleb128 0x3
 681 005b 0E       		.uleb128 0xe
 682 005c 3A       		.uleb128 0x3a
 683 005d 0B       		.uleb128 0xb
 684 005e 3B       		.uleb128 0x3b
 685 005f 0B       		.uleb128 0xb
 686 0060 49       		.uleb128 0x49
 687 0061 13       		.uleb128 0x13
 688 0062 02       		.uleb128 0x2
 689 0063 18       		.uleb128 0x18
 690 0064 00       		.byte	0
 691 0065 00       		.byte	0
 692 0066 08       		.uleb128 0x8
 693 0067 2E       		.uleb128 0x2e
 694 0068 01       		.byte	0x1
 695 0069 3F       		.uleb128 0x3f
 696 006a 19       		.uleb128 0x19
 697 006b 03       		.uleb128 0x3
 698 006c 0E       		.uleb128 0xe
 699 006d 3A       		.uleb128 0x3a
 700 006e 0B       		.uleb128 0xb
 701 006f 3B       		.uleb128 0x3b
 702 0070 0B       		.uleb128 0xb
 703 0071 27       		.uleb128 0x27
 704 0072 19       		.uleb128 0x19
 705 0073 11       		.uleb128 0x11
 706 0074 01       		.uleb128 0x1
 707 0075 12       		.uleb128 0x12
 708 0076 06       		.uleb128 0x6
 709 0077 40       		.uleb128 0x40
 710 0078 18       		.uleb128 0x18
 711 0079 9742     		.uleb128 0x2117
 712 007b 19       		.uleb128 0x19
 713 007c 00       		.byte	0
ARM GAS  C:\Users\LUKASC~1\AppData\Local\Temp\cchE3814.s 			page 15


 714 007d 00       		.byte	0
 715 007e 00       		.byte	0
 716              		.section	.debug_aranges,"",%progbits
 717 0000 24000000 		.4byte	0x24
 718 0004 0200     		.2byte	0x2
 719 0006 00000000 		.4byte	.Ldebug_info0
 720 000a 04       		.byte	0x4
 721 000b 00       		.byte	0
 722 000c 0000     		.2byte	0
 723 000e 0000     		.2byte	0
 724 0010 00000000 		.4byte	.LFB0
 725 0014 30030000 		.4byte	.LFE0-.LFB0
 726 0018 00000000 		.4byte	.LFB1
 727 001c 38000000 		.4byte	.LFE1-.LFB1
 728 0020 00000000 		.4byte	0
 729 0024 00000000 		.4byte	0
 730              		.section	.debug_ranges,"",%progbits
 731              	.Ldebug_ranges0:
 732 0000 00000000 		.4byte	.LFB0
 733 0004 30030000 		.4byte	.LFE0
 734 0008 00000000 		.4byte	.LFB1
 735 000c 38000000 		.4byte	.LFE1
 736 0010 00000000 		.4byte	0
 737 0014 00000000 		.4byte	0
 738              		.section	.debug_line,"",%progbits
 739              	.Ldebug_line0:
 740 0000 8E000000 		.section	.debug_str,"MS",%progbits,1
 740      02004E00 
 740      00000201 
 740      FB0E0D00 
 740      01010101 
 741              	.LASF6:
 742 0000 6C6F6E67 		.ascii	"long long int\000"
 742      206C6F6E 
 742      6720696E 
 742      7400
 743              	.LASF8:
 744 000e 756E7369 		.ascii	"unsigned int\000"
 744      676E6564 
 744      20696E74 
 744      00
 745              	.LASF15:
 746 001b 6D6F6465 		.ascii	"mode\000"
 746      00
 747              	.LASF19:
 748 0020 43617053 		.ascii	"CapSense_1_SetAllSensorsDriveMode\000"
 748      656E7365 
 748      5F315F53 
 748      6574416C 
 748      6C53656E 
 749              	.LASF18:
 750 0042 433A5C55 		.ascii	"C:\\Users\\Lukas Creutzburg\\Documents\\GitHub\\fre"
 750      73657273 
 750      5C4C756B 
 750      61732043 
 750      72657574 
 751 0070 65445350 		.ascii	"eDSPPSoC-I2C\\PSoC5_SPI_Master_CapSense.cydsn\000"
ARM GAS  C:\Users\LUKASC~1\AppData\Local\Temp\cchE3814.s 			page 16


 751      50536F43 
 751      2D493243 
 751      5C50536F 
 751      43355F53 
 752              	.LASF12:
 753 009d 75696E74 		.ascii	"uint8\000"
 753      3800
 754              	.LASF5:
 755 00a3 6C6F6E67 		.ascii	"long unsigned int\000"
 755      20756E73 
 755      69676E65 
 755      6420696E 
 755      7400
 756              	.LASF7:
 757 00b5 6C6F6E67 		.ascii	"long long unsigned int\000"
 757      206C6F6E 
 757      6720756E 
 757      7369676E 
 757      65642069 
 758              	.LASF9:
 759 00cc 666C6F61 		.ascii	"float\000"
 759      7400
 760              	.LASF1:
 761 00d2 756E7369 		.ascii	"unsigned char\000"
 761      676E6564 
 761      20636861 
 761      7200
 762              	.LASF11:
 763 00e0 63686172 		.ascii	"char\000"
 763      00
 764              	.LASF4:
 765 00e5 6C6F6E67 		.ascii	"long int\000"
 765      20696E74 
 765      00
 766              	.LASF16:
 767 00ee 474E5520 		.ascii	"GNU C 4.9.3 20150303 (release) [ARM/embedded-4_9-br"
 767      4320342E 
 767      392E3320 
 767      32303135 
 767      30333033 
 768 0121 616E6368 		.ascii	"anch revision 221220] -mcpu=cortex-m3 -mthumb -g -O"
 768      20726576 
 768      6973696F 
 768      6E203232 
 768      31323230 
 769 0154 30202D66 		.ascii	"0 -ffunction-sections -ffat-lto-objects\000"
 769      66756E63 
 769      74696F6E 
 769      2D736563 
 769      74696F6E 
 770              	.LASF10:
 771 017c 646F7562 		.ascii	"double\000"
 771      6C6500
 772              	.LASF17:
 773 0183 2E5C4765 		.ascii	".\\Generated_Source\\PSoC5\\CapSense_1_Pins.c\000"
 773      6E657261 
 773      7465645F 
ARM GAS  C:\Users\LUKASC~1\AppData\Local\Temp\cchE3814.s 			page 17


 773      536F7572 
 773      63655C50 
 774              	.LASF3:
 775 01ae 73686F72 		.ascii	"short unsigned int\000"
 775      7420756E 
 775      7369676E 
 775      65642069 
 775      6E7400
 776              	.LASF0:
 777 01c1 7369676E 		.ascii	"signed char\000"
 777      65642063 
 777      68617200 
 778              	.LASF20:
 779 01cd 43617053 		.ascii	"CapSense_1_SetAllCmodsDriveMode\000"
 779      656E7365 
 779      5F315F53 
 779      6574416C 
 779      6C436D6F 
 780              	.LASF2:
 781 01ed 73686F72 		.ascii	"short int\000"
 781      7420696E 
 781      7400
 782              	.LASF13:
 783 01f7 72656738 		.ascii	"reg8\000"
 783      00
 784              	.LASF14:
 785 01fc 73697A65 		.ascii	"sizetype\000"
 785      74797065 
 785      00
 786              		.ident	"GCC: (GNU Tools for ARM Embedded Processors) 4.9.3 20150303 (release) [ARM/embedded-4_9-br
