ARM GAS  C:\Users\LUKASC~1\AppData\Local\Temp\cceHq7ne.s 			page 1


   1              		.syntax unified
   2              		.cpu cortex-m3
   3              		.fpu softvfp
   4              		.eabi_attribute 20, 1
   5              		.eabi_attribute 21, 1
   6              		.eabi_attribute 23, 3
   7              		.eabi_attribute 24, 1
   8              		.eabi_attribute 25, 1
   9              		.eabi_attribute 26, 1
  10              		.eabi_attribute 30, 6
  11              		.eabi_attribute 34, 1
  12              		.eabi_attribute 18, 4
  13              		.thumb
  14              		.file	"CapSense_1_PM.c"
  15              		.text
  16              	.Ltext0:
  17              		.cfi_sections	.debug_frame
  18              		.global	CapSense_1_backup
  19              		.bss
  20              		.align	2
  21              		.type	CapSense_1_backup, %object
  22              		.size	CapSense_1_backup, 2
  23              	CapSense_1_backup:
  24 0000 0000     		.space	2
  25 0002 0000     		.section	.text.CapSense_1_SaveConfig,"ax",%progbits
  26              		.align	2
  27              		.global	CapSense_1_SaveConfig
  28              		.thumb
  29              		.thumb_func
  30              		.type	CapSense_1_SaveConfig, %function
  31              	CapSense_1_SaveConfig:
  32              	.LFB0:
  33              		.file 1 ".\\Generated_Source\\PSoC5\\CapSense_1_PM.c"
   1:.\Generated_Source\PSoC5/CapSense_1_PM.c **** /*******************************************************************************
   2:.\Generated_Source\PSoC5/CapSense_1_PM.c **** * File Name: CapSense_1_PM.c
   3:.\Generated_Source\PSoC5/CapSense_1_PM.c **** * Version 3.50
   4:.\Generated_Source\PSoC5/CapSense_1_PM.c **** *
   5:.\Generated_Source\PSoC5/CapSense_1_PM.c **** * Description:
   6:.\Generated_Source\PSoC5/CapSense_1_PM.c **** *  This file provides Sleep APIs for CapSense CSD Component.
   7:.\Generated_Source\PSoC5/CapSense_1_PM.c **** *
   8:.\Generated_Source\PSoC5/CapSense_1_PM.c **** * Note:
   9:.\Generated_Source\PSoC5/CapSense_1_PM.c **** *
  10:.\Generated_Source\PSoC5/CapSense_1_PM.c **** ********************************************************************************
  11:.\Generated_Source\PSoC5/CapSense_1_PM.c **** * Copyright 2008-2013, Cypress Semiconductor Corporation.  All rights reserved.
  12:.\Generated_Source\PSoC5/CapSense_1_PM.c **** * You may use this file only in accordance with the license, terms, conditions, 
  13:.\Generated_Source\PSoC5/CapSense_1_PM.c **** * disclaimers, and limitations in the end user license agreement accompanying 
  14:.\Generated_Source\PSoC5/CapSense_1_PM.c **** * the software package with which this file was provided.
  15:.\Generated_Source\PSoC5/CapSense_1_PM.c **** *******************************************************************************/
  16:.\Generated_Source\PSoC5/CapSense_1_PM.c **** 
  17:.\Generated_Source\PSoC5/CapSense_1_PM.c **** #include "CapSense_1.h"
  18:.\Generated_Source\PSoC5/CapSense_1_PM.c **** 
  19:.\Generated_Source\PSoC5/CapSense_1_PM.c **** CapSense_1_BACKUP_STRUCT CapSense_1_backup =
  20:.\Generated_Source\PSoC5/CapSense_1_PM.c **** {   
  21:.\Generated_Source\PSoC5/CapSense_1_PM.c ****     0x00u, /* enableState; */
  22:.\Generated_Source\PSoC5/CapSense_1_PM.c ****     
  23:.\Generated_Source\PSoC5/CapSense_1_PM.c **** };
  24:.\Generated_Source\PSoC5/CapSense_1_PM.c **** 
ARM GAS  C:\Users\LUKASC~1\AppData\Local\Temp\cceHq7ne.s 			page 2


  25:.\Generated_Source\PSoC5/CapSense_1_PM.c **** 
  26:.\Generated_Source\PSoC5/CapSense_1_PM.c **** /*******************************************************************************
  27:.\Generated_Source\PSoC5/CapSense_1_PM.c **** * Function Name: CapSense_1_SaveConfig
  28:.\Generated_Source\PSoC5/CapSense_1_PM.c **** ********************************************************************************
  29:.\Generated_Source\PSoC5/CapSense_1_PM.c **** *
  30:.\Generated_Source\PSoC5/CapSense_1_PM.c **** * Summary:
  31:.\Generated_Source\PSoC5/CapSense_1_PM.c **** *  Saves customer configuration of CapSense none-retention registers. Resets 
  32:.\Generated_Source\PSoC5/CapSense_1_PM.c **** *  all sensors to an inactive state.
  33:.\Generated_Source\PSoC5/CapSense_1_PM.c **** *
  34:.\Generated_Source\PSoC5/CapSense_1_PM.c **** * Parameters:
  35:.\Generated_Source\PSoC5/CapSense_1_PM.c **** *  None
  36:.\Generated_Source\PSoC5/CapSense_1_PM.c **** *
  37:.\Generated_Source\PSoC5/CapSense_1_PM.c **** * Return:
  38:.\Generated_Source\PSoC5/CapSense_1_PM.c **** *  None
  39:.\Generated_Source\PSoC5/CapSense_1_PM.c **** *
  40:.\Generated_Source\PSoC5/CapSense_1_PM.c **** * Side Effects:
  41:.\Generated_Source\PSoC5/CapSense_1_PM.c **** *  Function CapSense_1_SaveConfig disconnects all sensors from the
  42:.\Generated_Source\PSoC5/CapSense_1_PM.c **** *  Analog MUX Bus and puts them into inactive state. Call this function
  43:.\Generated_Source\PSoC5/CapSense_1_PM.c **** *  during the active scan can cause unpredictable component behavior.
  44:.\Generated_Source\PSoC5/CapSense_1_PM.c **** *
  45:.\Generated_Source\PSoC5/CapSense_1_PM.c **** * Note:
  46:.\Generated_Source\PSoC5/CapSense_1_PM.c **** *  This function should be called after completion of all scans.
  47:.\Generated_Source\PSoC5/CapSense_1_PM.c **** *
  48:.\Generated_Source\PSoC5/CapSense_1_PM.c **** * Global Variables:
  49:.\Generated_Source\PSoC5/CapSense_1_PM.c **** *  CapSense_1_backup - used to save component state before enter sleep 
  50:.\Generated_Source\PSoC5/CapSense_1_PM.c **** *  mode and none-retention registers.
  51:.\Generated_Source\PSoC5/CapSense_1_PM.c **** *
  52:.\Generated_Source\PSoC5/CapSense_1_PM.c **** * Reentrant:
  53:.\Generated_Source\PSoC5/CapSense_1_PM.c **** *  Yes.
  54:.\Generated_Source\PSoC5/CapSense_1_PM.c **** *
  55:.\Generated_Source\PSoC5/CapSense_1_PM.c **** *******************************************************************************/
  56:.\Generated_Source\PSoC5/CapSense_1_PM.c **** void CapSense_1_SaveConfig(void) 
  57:.\Generated_Source\PSoC5/CapSense_1_PM.c **** {    
  34              		.loc 1 57 0
  35              		.cfi_startproc
  36              		@ args = 0, pretend = 0, frame = 0
  37              		@ frame_needed = 1, uses_anonymous_args = 0
  38 0000 80B5     		push	{r7, lr}
  39              		.cfi_def_cfa_offset 8
  40              		.cfi_offset 7, -8
  41              		.cfi_offset 14, -4
  42 0002 00AF     		add	r7, sp, #0
  43              		.cfi_def_cfa_register 7
  58:.\Generated_Source\PSoC5/CapSense_1_PM.c **** 
  59:.\Generated_Source\PSoC5/CapSense_1_PM.c ****     /* Set CONTROL_REG */
  60:.\Generated_Source\PSoC5/CapSense_1_PM.c ****     CapSense_1_backup.ctrlReg = CapSense_1_CONTROL_REG;
  44              		.loc 1 60 0
  45 0004 034B     		ldr	r3, .L2
  46 0006 1B78     		ldrb	r3, [r3]
  47 0008 DAB2     		uxtb	r2, r3
  48 000a 034B     		ldr	r3, .L2+4
  49 000c 5A70     		strb	r2, [r3, #1]
  61:.\Generated_Source\PSoC5/CapSense_1_PM.c **** 
  62:.\Generated_Source\PSoC5/CapSense_1_PM.c ****     /* Clear all sensors */
  63:.\Generated_Source\PSoC5/CapSense_1_PM.c ****     CapSense_1_ClearSensors();
  50              		.loc 1 63 0
  51 000e FFF7FEFF 		bl	CapSense_1_ClearSensors
ARM GAS  C:\Users\LUKASC~1\AppData\Local\Temp\cceHq7ne.s 			page 3


  64:.\Generated_Source\PSoC5/CapSense_1_PM.c ****     
  65:.\Generated_Source\PSoC5/CapSense_1_PM.c ****     /* The pins disable is customer concern: Cmod and Rb */
  66:.\Generated_Source\PSoC5/CapSense_1_PM.c **** }
  52              		.loc 1 66 0
  53 0012 80BD     		pop	{r7, pc}
  54              	.L3:
  55              		.align	2
  56              	.L2:
  57 0014 79650040 		.word	1073767801
  58 0018 00000000 		.word	CapSense_1_backup
  59              		.cfi_endproc
  60              	.LFE0:
  61              		.size	CapSense_1_SaveConfig, .-CapSense_1_SaveConfig
  62              		.section	.text.CapSense_1_Sleep,"ax",%progbits
  63              		.align	2
  64              		.global	CapSense_1_Sleep
  65              		.thumb
  66              		.thumb_func
  67              		.type	CapSense_1_Sleep, %function
  68              	CapSense_1_Sleep:
  69              	.LFB1:
  67:.\Generated_Source\PSoC5/CapSense_1_PM.c **** 
  68:.\Generated_Source\PSoC5/CapSense_1_PM.c **** 
  69:.\Generated_Source\PSoC5/CapSense_1_PM.c **** /*******************************************************************************
  70:.\Generated_Source\PSoC5/CapSense_1_PM.c **** * Function Name: CapSense_1_Sleep
  71:.\Generated_Source\PSoC5/CapSense_1_PM.c **** ********************************************************************************
  72:.\Generated_Source\PSoC5/CapSense_1_PM.c **** *
  73:.\Generated_Source\PSoC5/CapSense_1_PM.c **** * Summary:
  74:.\Generated_Source\PSoC5/CapSense_1_PM.c **** *  Disables Active mode power template bits for number of component used within 
  75:.\Generated_Source\PSoC5/CapSense_1_PM.c **** *  CapSense. Calls CapSense_1_SaveConfig() function to save customer 
  76:.\Generated_Source\PSoC5/CapSense_1_PM.c **** *  configuration of CapSense none-retention registers and resets all sensors 
  77:.\Generated_Source\PSoC5/CapSense_1_PM.c **** *  to an inactive state.
  78:.\Generated_Source\PSoC5/CapSense_1_PM.c **** *
  79:.\Generated_Source\PSoC5/CapSense_1_PM.c **** * Parameters:
  80:.\Generated_Source\PSoC5/CapSense_1_PM.c **** *  None
  81:.\Generated_Source\PSoC5/CapSense_1_PM.c **** *
  82:.\Generated_Source\PSoC5/CapSense_1_PM.c **** * Return:
  83:.\Generated_Source\PSoC5/CapSense_1_PM.c **** *  None
  84:.\Generated_Source\PSoC5/CapSense_1_PM.c **** *
  85:.\Generated_Source\PSoC5/CapSense_1_PM.c **** * Side Effects:
  86:.\Generated_Source\PSoC5/CapSense_1_PM.c **** *  Function CapSense_1_Sleep disconnects all sensors from the
  87:.\Generated_Source\PSoC5/CapSense_1_PM.c **** *  Analog MUX Bus and puts them into inactive state. Call this function
  88:.\Generated_Source\PSoC5/CapSense_1_PM.c **** *  during the active scan can cause unpredictable component behavior.
  89:.\Generated_Source\PSoC5/CapSense_1_PM.c **** *
  90:.\Generated_Source\PSoC5/CapSense_1_PM.c **** * Note:
  91:.\Generated_Source\PSoC5/CapSense_1_PM.c **** *  This function should be called after completion of all scans.
  92:.\Generated_Source\PSoC5/CapSense_1_PM.c **** *
  93:.\Generated_Source\PSoC5/CapSense_1_PM.c **** * Global Variables:
  94:.\Generated_Source\PSoC5/CapSense_1_PM.c **** *  CapSense_1_backup - used to save component state before enter sleep 
  95:.\Generated_Source\PSoC5/CapSense_1_PM.c **** *  mode and none-retention registers.
  96:.\Generated_Source\PSoC5/CapSense_1_PM.c **** *
  97:.\Generated_Source\PSoC5/CapSense_1_PM.c **** * Reentrant:
  98:.\Generated_Source\PSoC5/CapSense_1_PM.c **** *  No
  99:.\Generated_Source\PSoC5/CapSense_1_PM.c **** *
 100:.\Generated_Source\PSoC5/CapSense_1_PM.c **** *******************************************************************************/
 101:.\Generated_Source\PSoC5/CapSense_1_PM.c **** void CapSense_1_Sleep(void) 
 102:.\Generated_Source\PSoC5/CapSense_1_PM.c **** {
ARM GAS  C:\Users\LUKASC~1\AppData\Local\Temp\cceHq7ne.s 			page 4


  70              		.loc 1 102 0
  71              		.cfi_startproc
  72              		@ args = 0, pretend = 0, frame = 0
  73              		@ frame_needed = 1, uses_anonymous_args = 0
  74 0000 80B5     		push	{r7, lr}
  75              		.cfi_def_cfa_offset 8
  76              		.cfi_offset 7, -8
  77              		.cfi_offset 14, -4
  78 0002 00AF     		add	r7, sp, #0
  79              		.cfi_def_cfa_register 7
 103:.\Generated_Source\PSoC5/CapSense_1_PM.c ****     /* Check and save enable state */
 104:.\Generated_Source\PSoC5/CapSense_1_PM.c ****     if(CapSense_1_IS_CAPSENSE_ENABLE(CapSense_1_CONTROL_REG))
  80              		.loc 1 104 0
  81 0004 094B     		ldr	r3, .L7
  82 0006 1B78     		ldrb	r3, [r3]
  83 0008 DBB2     		uxtb	r3, r3
  84 000a DBB2     		uxtb	r3, r3
  85 000c 5BB2     		sxtb	r3, r3
  86 000e 002B     		cmp	r3, #0
  87 0010 05DA     		bge	.L5
 105:.\Generated_Source\PSoC5/CapSense_1_PM.c ****     {
 106:.\Generated_Source\PSoC5/CapSense_1_PM.c ****         CapSense_1_backup.enableState = 1u;
  88              		.loc 1 106 0
  89 0012 074B     		ldr	r3, .L7+4
  90 0014 0122     		movs	r2, #1
  91 0016 1A70     		strb	r2, [r3]
 107:.\Generated_Source\PSoC5/CapSense_1_PM.c ****         CapSense_1_Stop();
  92              		.loc 1 107 0
  93 0018 FFF7FEFF 		bl	CapSense_1_Stop
  94 001c 02E0     		b	.L6
  95              	.L5:
 108:.\Generated_Source\PSoC5/CapSense_1_PM.c ****     }
 109:.\Generated_Source\PSoC5/CapSense_1_PM.c ****     else
 110:.\Generated_Source\PSoC5/CapSense_1_PM.c ****     {
 111:.\Generated_Source\PSoC5/CapSense_1_PM.c ****         CapSense_1_backup.enableState = 0u;
  96              		.loc 1 111 0
  97 001e 044B     		ldr	r3, .L7+4
  98 0020 0022     		movs	r2, #0
  99 0022 1A70     		strb	r2, [r3]
 100              	.L6:
 112:.\Generated_Source\PSoC5/CapSense_1_PM.c ****     }
 113:.\Generated_Source\PSoC5/CapSense_1_PM.c ****     
 114:.\Generated_Source\PSoC5/CapSense_1_PM.c ****     CapSense_1_SaveConfig();
 101              		.loc 1 114 0
 102 0024 FFF7FEFF 		bl	CapSense_1_SaveConfig
 115:.\Generated_Source\PSoC5/CapSense_1_PM.c **** }
 103              		.loc 1 115 0
 104 0028 80BD     		pop	{r7, pc}
 105              	.L8:
 106 002a 00BF     		.align	2
 107              	.L7:
 108 002c 79650040 		.word	1073767801
 109 0030 00000000 		.word	CapSense_1_backup
 110              		.cfi_endproc
 111              	.LFE1:
 112              		.size	CapSense_1_Sleep, .-CapSense_1_Sleep
 113              		.section	.text.CapSense_1_RestoreConfig,"ax",%progbits
ARM GAS  C:\Users\LUKASC~1\AppData\Local\Temp\cceHq7ne.s 			page 5


 114              		.align	2
 115              		.global	CapSense_1_RestoreConfig
 116              		.thumb
 117              		.thumb_func
 118              		.type	CapSense_1_RestoreConfig, %function
 119              	CapSense_1_RestoreConfig:
 120              	.LFB2:
 116:.\Generated_Source\PSoC5/CapSense_1_PM.c **** 
 117:.\Generated_Source\PSoC5/CapSense_1_PM.c **** 
 118:.\Generated_Source\PSoC5/CapSense_1_PM.c **** /*******************************************************************************
 119:.\Generated_Source\PSoC5/CapSense_1_PM.c **** * Function Name: CapSense_1_RestoreConfig
 120:.\Generated_Source\PSoC5/CapSense_1_PM.c **** ********************************************************************************
 121:.\Generated_Source\PSoC5/CapSense_1_PM.c **** *
 122:.\Generated_Source\PSoC5/CapSense_1_PM.c **** * Summary:
 123:.\Generated_Source\PSoC5/CapSense_1_PM.c **** *  Restores CapSense configuration and non-retention register values.
 124:.\Generated_Source\PSoC5/CapSense_1_PM.c **** *
 125:.\Generated_Source\PSoC5/CapSense_1_PM.c **** * Parameters:
 126:.\Generated_Source\PSoC5/CapSense_1_PM.c **** *  None
 127:.\Generated_Source\PSoC5/CapSense_1_PM.c **** *
 128:.\Generated_Source\PSoC5/CapSense_1_PM.c **** * Return:
 129:.\Generated_Source\PSoC5/CapSense_1_PM.c **** *  None
 130:.\Generated_Source\PSoC5/CapSense_1_PM.c **** *
 131:.\Generated_Source\PSoC5/CapSense_1_PM.c **** * Side Effects:
 132:.\Generated_Source\PSoC5/CapSense_1_PM.c **** *  Must be called only after CapSense_1_SaveConfig() routine. Otherwise 
 133:.\Generated_Source\PSoC5/CapSense_1_PM.c **** *  the component configuration will be overwritten with its initial setting.
 134:.\Generated_Source\PSoC5/CapSense_1_PM.c **** *  This finction modifies the CONTROL_REG register. 
 135:.\Generated_Source\PSoC5/CapSense_1_PM.c **** *
 136:.\Generated_Source\PSoC5/CapSense_1_PM.c **** * Note:
 137:.\Generated_Source\PSoC5/CapSense_1_PM.c **** *  This function should be called after completion of all scans.
 138:.\Generated_Source\PSoC5/CapSense_1_PM.c **** *
 139:.\Generated_Source\PSoC5/CapSense_1_PM.c **** * Global Variables:
 140:.\Generated_Source\PSoC5/CapSense_1_PM.c **** *  CapSense_1_backup - used to save component state before enter sleep 
 141:.\Generated_Source\PSoC5/CapSense_1_PM.c **** *  mode and none-retention registers.
 142:.\Generated_Source\PSoC5/CapSense_1_PM.c **** *
 143:.\Generated_Source\PSoC5/CapSense_1_PM.c **** *******************************************************************************/
 144:.\Generated_Source\PSoC5/CapSense_1_PM.c **** void CapSense_1_RestoreConfig(void) 
 145:.\Generated_Source\PSoC5/CapSense_1_PM.c **** {       
 121              		.loc 1 145 0
 122              		.cfi_startproc
 123              		@ args = 0, pretend = 0, frame = 0
 124              		@ frame_needed = 1, uses_anonymous_args = 0
 125              		@ link register save eliminated.
 126 0000 80B4     		push	{r7}
 127              		.cfi_def_cfa_offset 4
 128              		.cfi_offset 7, -4
 129 0002 00AF     		add	r7, sp, #0
 130              		.cfi_def_cfa_register 7
 146:.\Generated_Source\PSoC5/CapSense_1_PM.c ****     /* Set PRS */
 147:.\Generated_Source\PSoC5/CapSense_1_PM.c ****     #if (CapSense_1_PRS_OPTIONS == CapSense_1_PRS_8BITS)        
 148:.\Generated_Source\PSoC5/CapSense_1_PM.c ****         /* Write FIFO with seed */
 149:.\Generated_Source\PSoC5/CapSense_1_PM.c ****         CapSense_1_SEED_COPY_REG = CapSense_1_MEASURE_FULL_RANGE_LOW;               /* F0 register 
 150:.\Generated_Source\PSoC5/CapSense_1_PM.c ****     
 151:.\Generated_Source\PSoC5/CapSense_1_PM.c ****     #elif (CapSense_1_PRS_OPTIONS == CapSense_1_PRS_16BITS)
 152:.\Generated_Source\PSoC5/CapSense_1_PM.c ****         /* Write FIFO with seed */
 153:.\Generated_Source\PSoC5/CapSense_1_PM.c ****         CY_SET_REG16(CapSense_1_SEED_COPY_PTR, CapSense_1_MEASURE_FULL_RANGE);      /* F0 register 
 131              		.loc 1 153 0
 132 0004 0E4B     		ldr	r3, .L10
ARM GAS  C:\Users\LUKASC~1\AppData\Local\Temp\cceHq7ne.s 			page 6


 133 0006 4FF6FF72 		movw	r2, #65535
 134 000a 1A80     		strh	r2, [r3]	@ movhi
 154:.\Generated_Source\PSoC5/CapSense_1_PM.c ****                 
 155:.\Generated_Source\PSoC5/CapSense_1_PM.c ****     #elif (CapSense_1_PRS_OPTIONS == CapSense_1_PRS_16BITS_4X)
 156:.\Generated_Source\PSoC5/CapSense_1_PM.c ****         
 157:.\Generated_Source\PSoC5/CapSense_1_PM.c ****         /* Write FIFO with seed */
 158:.\Generated_Source\PSoC5/CapSense_1_PM.c ****         CapSense_1_SEED_COPY_A__F1_REG = CapSense_1_MEASURE_FULL_RANGE_LOW;         /* F0 register 
 159:.\Generated_Source\PSoC5/CapSense_1_PM.c ****         CapSense_1_SEED_COPY_A__F0_REG =CapSense_1_MEASURE_FULL_RANGE_LOW;          /* F1 register 
 160:.\Generated_Source\PSoC5/CapSense_1_PM.c ****         
 161:.\Generated_Source\PSoC5/CapSense_1_PM.c ****     #else
 162:.\Generated_Source\PSoC5/CapSense_1_PM.c ****         /* Do nothing = config without PRS */
 163:.\Generated_Source\PSoC5/CapSense_1_PM.c ****     #endif  /* (CapSense_1_PRS_OPTIONS == CapSense_1_PRS_8BITS) */
 164:.\Generated_Source\PSoC5/CapSense_1_PM.c ****     
 165:.\Generated_Source\PSoC5/CapSense_1_PM.c ****     /* Set the Measure */
 166:.\Generated_Source\PSoC5/CapSense_1_PM.c ****     #if (CapSense_1_IMPLEMENTATION_CH0 == CapSense_1_MEASURE_IMPLEMENTATION_FF)
 167:.\Generated_Source\PSoC5/CapSense_1_PM.c ****         /* Window PWM  - FF Timer register are retention */
 168:.\Generated_Source\PSoC5/CapSense_1_PM.c ****         /* Raw Counter - FF Timer register are retention */
 169:.\Generated_Source\PSoC5/CapSense_1_PM.c ****     #else
 170:.\Generated_Source\PSoC5/CapSense_1_PM.c ****         
 171:.\Generated_Source\PSoC5/CapSense_1_PM.c ****         /* Window PWM */
 172:.\Generated_Source\PSoC5/CapSense_1_PM.c ****         CapSense_1_PWM_CH0_PERIOD_LO_REG    = CapSense_1_MEASURE_FULL_RANGE_LOW;        /* F0 regis
 135              		.loc 1 172 0
 136 000c 0D4B     		ldr	r3, .L10+4
 137 000e FF22     		movs	r2, #255
 138 0010 1A70     		strb	r2, [r3]
 173:.\Generated_Source\PSoC5/CapSense_1_PM.c ****         
 174:.\Generated_Source\PSoC5/CapSense_1_PM.c ****         /* Raw Counter */
 175:.\Generated_Source\PSoC5/CapSense_1_PM.c ****         CapSense_1_RAW_CH0_PERIOD_HI_REG    = CapSense_1_MEASURE_FULL_RANGE_LOW;        /* F1 regis
 139              		.loc 1 175 0
 140 0012 0D4B     		ldr	r3, .L10+8
 141 0014 FF22     		movs	r2, #255
 142 0016 1A70     		strb	r2, [r3]
 176:.\Generated_Source\PSoC5/CapSense_1_PM.c ****         CapSense_1_RAW_CH0_PERIOD_LO_REG    = CapSense_1_MEASURE_FULL_RANGE_LOW;        /* F0 regis
 143              		.loc 1 176 0
 144 0018 0C4B     		ldr	r3, .L10+12
 145 001a FF22     		movs	r2, #255
 146 001c 1A70     		strb	r2, [r3]
 177:.\Generated_Source\PSoC5/CapSense_1_PM.c ****     
 178:.\Generated_Source\PSoC5/CapSense_1_PM.c ****     #endif  /* (CapSense_1_IMPLEMENTATION_CH0 == CapSense_1_MEASURE_IMPLEMENTATION_FF) */ 
 179:.\Generated_Source\PSoC5/CapSense_1_PM.c ****     
 180:.\Generated_Source\PSoC5/CapSense_1_PM.c ****     #if (CapSense_1_DESIGN_TYPE == CapSense_1_TWO_CHANNELS_DESIGN)
 181:.\Generated_Source\PSoC5/CapSense_1_PM.c ****         #if (CapSense_1_IMPLEMENTATION_CH1 == CapSense_1_MEASURE_IMPLEMENTATION_FF)
 182:.\Generated_Source\PSoC5/CapSense_1_PM.c ****             /* Window PWM  - FF Timer register are retention */
 183:.\Generated_Source\PSoC5/CapSense_1_PM.c ****             /* Raw Counter - FF Timer register are retention */
 184:.\Generated_Source\PSoC5/CapSense_1_PM.c ****         #else
 185:.\Generated_Source\PSoC5/CapSense_1_PM.c ****             
 186:.\Generated_Source\PSoC5/CapSense_1_PM.c ****             /* Window PWM */
 187:.\Generated_Source\PSoC5/CapSense_1_PM.c ****             CapSense_1_PWM_CH1_PERIOD_LO_REG    = CapSense_1_MEASURE_FULL_RANGE_LOW;       /* F0 re
 188:.\Generated_Source\PSoC5/CapSense_1_PM.c ****             
 189:.\Generated_Source\PSoC5/CapSense_1_PM.c ****             /* Raw Counter */
 190:.\Generated_Source\PSoC5/CapSense_1_PM.c ****             CapSense_1_RAW_CH1_PERIOD_HI_REG    = CapSense_1_MEASURE_FULL_RANGE_LOW;       /* F1 re
 191:.\Generated_Source\PSoC5/CapSense_1_PM.c ****             CapSense_1_RAW_CH1_PERIOD_LO_REG    = CapSense_1_MEASURE_FULL_RANGE_LOW;       /* F0 re
 192:.\Generated_Source\PSoC5/CapSense_1_PM.c ****             
 193:.\Generated_Source\PSoC5/CapSense_1_PM.c ****         #endif  /* (CapSense_1_IMPLEMENTATION_CH1 == CapSense_1_MEASURE_IMPLEMENTATION_FF) */
 194:.\Generated_Source\PSoC5/CapSense_1_PM.c ****     
 195:.\Generated_Source\PSoC5/CapSense_1_PM.c ****     #endif  /* (CapSense_1_DESIGN_TYPE == TWO_CHANNELS_DESIGN)*/
 196:.\Generated_Source\PSoC5/CapSense_1_PM.c **** 
ARM GAS  C:\Users\LUKASC~1\AppData\Local\Temp\cceHq7ne.s 			page 7


 197:.\Generated_Source\PSoC5/CapSense_1_PM.c ****     /* Set CONTROL_REG */
 198:.\Generated_Source\PSoC5/CapSense_1_PM.c ****     CapSense_1_CONTROL_REG = CapSense_1_backup.ctrlReg;
 147              		.loc 1 198 0
 148 001e 0C4B     		ldr	r3, .L10+16
 149 0020 0C4A     		ldr	r2, .L10+20
 150 0022 5278     		ldrb	r2, [r2, #1]	@ zero_extendqisi2
 151 0024 1A70     		strb	r2, [r3]
 199:.\Generated_Source\PSoC5/CapSense_1_PM.c **** 
 200:.\Generated_Source\PSoC5/CapSense_1_PM.c ****     /* Enable window generation */
 201:.\Generated_Source\PSoC5/CapSense_1_PM.c ****     #if (CapSense_1_DESIGN_TYPE == CapSense_1_ONE_CHANNEL_DESIGN)
 202:.\Generated_Source\PSoC5/CapSense_1_PM.c ****         CapSense_1_CONTROL_REG |= CapSense_1_CTRL_WINDOW_EN__CH0;
 152              		.loc 1 202 0
 153 0026 0A4A     		ldr	r2, .L10+16
 154 0028 094B     		ldr	r3, .L10+16
 155 002a 1B78     		ldrb	r3, [r3]
 156 002c DBB2     		uxtb	r3, r3
 157 002e 43F00403 		orr	r3, r3, #4
 158 0032 DBB2     		uxtb	r3, r3
 159 0034 1370     		strb	r3, [r2]
 203:.\Generated_Source\PSoC5/CapSense_1_PM.c ****     #elif (CapSense_1_DESIGN_TYPE == CapSense_1_TWO_CHANNELS_DESIGN) 
 204:.\Generated_Source\PSoC5/CapSense_1_PM.c ****         CapSense_1_CONTROL_REG |= (CapSense_1_CTRL_WINDOW_EN__CH0 | CapSense_1_CTRL_WINDOW_EN__CH1)
 205:.\Generated_Source\PSoC5/CapSense_1_PM.c ****     #endif  /* CapSense_1_DESIGN_TYPE */
 206:.\Generated_Source\PSoC5/CapSense_1_PM.c ****  
 207:.\Generated_Source\PSoC5/CapSense_1_PM.c ****     /* The pins enable are customer concern: Cmod and Rb */
 208:.\Generated_Source\PSoC5/CapSense_1_PM.c ****  }
 160              		.loc 1 208 0
 161 0036 BD46     		mov	sp, r7
 162              		.cfi_def_cfa_register 13
 163              		@ sp needed
 164 0038 5DF8047B 		ldr	r7, [sp], #4
 165              		.cfi_restore 7
 166              		.cfi_def_cfa_offset 0
 167 003c 7047     		bx	lr
 168              	.L11:
 169 003e 00BF     		.align	2
 170              	.L10:
 171 0040 48650040 		.word	1073767752
 172 0044 48640040 		.word	1073767496
 173 0048 59640040 		.word	1073767513
 174 004c 49640040 		.word	1073767497
 175 0050 79650040 		.word	1073767801
 176 0054 00000000 		.word	CapSense_1_backup
 177              		.cfi_endproc
 178              	.LFE2:
 179              		.size	CapSense_1_RestoreConfig, .-CapSense_1_RestoreConfig
 180              		.section	.text.CapSense_1_Wakeup,"ax",%progbits
 181              		.align	2
 182              		.global	CapSense_1_Wakeup
 183              		.thumb
 184              		.thumb_func
 185              		.type	CapSense_1_Wakeup, %function
 186              	CapSense_1_Wakeup:
 187              	.LFB3:
 209:.\Generated_Source\PSoC5/CapSense_1_PM.c ****  
 210:.\Generated_Source\PSoC5/CapSense_1_PM.c **** 
 211:.\Generated_Source\PSoC5/CapSense_1_PM.c **** /*******************************************************************************
 212:.\Generated_Source\PSoC5/CapSense_1_PM.c **** * Function Name: CapSense_1_Wakeup
ARM GAS  C:\Users\LUKASC~1\AppData\Local\Temp\cceHq7ne.s 			page 8


 213:.\Generated_Source\PSoC5/CapSense_1_PM.c **** ********************************************************************************
 214:.\Generated_Source\PSoC5/CapSense_1_PM.c **** *
 215:.\Generated_Source\PSoC5/CapSense_1_PM.c **** * Summary:
 216:.\Generated_Source\PSoC5/CapSense_1_PM.c **** *  Restores CapSense configuration and non-retention register values. 
 217:.\Generated_Source\PSoC5/CapSense_1_PM.c **** *  Restores enabled state of component by setting Active mode power template 
 218:.\Generated_Source\PSoC5/CapSense_1_PM.c **** *  bits for number of component used within CapSense.
 219:.\Generated_Source\PSoC5/CapSense_1_PM.c **** *
 220:.\Generated_Source\PSoC5/CapSense_1_PM.c **** * Parameters:
 221:.\Generated_Source\PSoC5/CapSense_1_PM.c **** *  None
 222:.\Generated_Source\PSoC5/CapSense_1_PM.c **** *
 223:.\Generated_Source\PSoC5/CapSense_1_PM.c **** * Return:
 224:.\Generated_Source\PSoC5/CapSense_1_PM.c **** *  None
 225:.\Generated_Source\PSoC5/CapSense_1_PM.c **** *
 226:.\Generated_Source\PSoC5/CapSense_1_PM.c **** * Side Effects:
 227:.\Generated_Source\PSoC5/CapSense_1_PM.c **** *  Must be called only after CapSense_1_SaveConfig() routine. Otherwise 
 228:.\Generated_Source\PSoC5/CapSense_1_PM.c **** *  the component configuration will be overwritten with its initial setting.
 229:.\Generated_Source\PSoC5/CapSense_1_PM.c **** *  This finction modifies the CONTROL_REG register. 
 230:.\Generated_Source\PSoC5/CapSense_1_PM.c **** *
 231:.\Generated_Source\PSoC5/CapSense_1_PM.c **** * Note:
 232:.\Generated_Source\PSoC5/CapSense_1_PM.c **** *  This function should be called after completion of all scans.
 233:.\Generated_Source\PSoC5/CapSense_1_PM.c **** *
 234:.\Generated_Source\PSoC5/CapSense_1_PM.c **** * Global Variables:
 235:.\Generated_Source\PSoC5/CapSense_1_PM.c **** *  CapSense_1_backup - used to save component state before enter sleep 
 236:.\Generated_Source\PSoC5/CapSense_1_PM.c **** *  mode and none-retention registers.
 237:.\Generated_Source\PSoC5/CapSense_1_PM.c **** *
 238:.\Generated_Source\PSoC5/CapSense_1_PM.c **** *******************************************************************************/
 239:.\Generated_Source\PSoC5/CapSense_1_PM.c **** void CapSense_1_Wakeup(void) 
 240:.\Generated_Source\PSoC5/CapSense_1_PM.c **** {
 188              		.loc 1 240 0
 189              		.cfi_startproc
 190              		@ args = 0, pretend = 0, frame = 0
 191              		@ frame_needed = 1, uses_anonymous_args = 0
 192 0000 80B5     		push	{r7, lr}
 193              		.cfi_def_cfa_offset 8
 194              		.cfi_offset 7, -8
 195              		.cfi_offset 14, -4
 196 0002 00AF     		add	r7, sp, #0
 197              		.cfi_def_cfa_register 7
 241:.\Generated_Source\PSoC5/CapSense_1_PM.c ****     CapSense_1_RestoreConfig();
 198              		.loc 1 241 0
 199 0004 FFF7FEFF 		bl	CapSense_1_RestoreConfig
 242:.\Generated_Source\PSoC5/CapSense_1_PM.c ****     
 243:.\Generated_Source\PSoC5/CapSense_1_PM.c ****     /* Restore CapSense Enable state */
 244:.\Generated_Source\PSoC5/CapSense_1_PM.c ****     if (CapSense_1_backup.enableState != 0u)
 200              		.loc 1 244 0
 201 0008 034B     		ldr	r3, .L14
 202 000a 1B78     		ldrb	r3, [r3]	@ zero_extendqisi2
 203 000c 002B     		cmp	r3, #0
 204 000e 01D0     		beq	.L12
 245:.\Generated_Source\PSoC5/CapSense_1_PM.c ****     {
 246:.\Generated_Source\PSoC5/CapSense_1_PM.c ****         CapSense_1_Enable();
 205              		.loc 1 246 0
 206 0010 FFF7FEFF 		bl	CapSense_1_Enable
 207              	.L12:
 247:.\Generated_Source\PSoC5/CapSense_1_PM.c ****     }
 248:.\Generated_Source\PSoC5/CapSense_1_PM.c **** }
 208              		.loc 1 248 0
ARM GAS  C:\Users\LUKASC~1\AppData\Local\Temp\cceHq7ne.s 			page 9


 209 0014 80BD     		pop	{r7, pc}
 210              	.L15:
 211 0016 00BF     		.align	2
 212              	.L14:
 213 0018 00000000 		.word	CapSense_1_backup
 214              		.cfi_endproc
 215              	.LFE3:
 216              		.size	CapSense_1_Wakeup, .-CapSense_1_Wakeup
 217              		.text
 218              	.Letext0:
 219              		.file 2 ".\\Generated_Source\\PSoC5\\cytypes.h"
 220              		.file 3 ".\\Generated_Source\\PSoC5\\CapSense_1.h"