ARM GAS  C:\Users\LUKASC~1\AppData\Local\Temp\ccfv0OqN.s 			page 1


   1              		.syntax unified
   2              		.cpu cortex-m3
   3              		.fpu softvfp
   4              		.eabi_attribute 20, 1
   5              		.eabi_attribute 21, 1
   6              		.eabi_attribute 23, 3
   7              		.eabi_attribute 24, 1
   8              		.eabi_attribute 25, 1
   9              		.eabi_attribute 26, 1
  10              		.eabi_attribute 30, 6
  11              		.eabi_attribute 34, 1
  12              		.eabi_attribute 18, 4
  13              		.thumb
  14              		.file	"capsense.c"
  15              		.text
  16              	.Ltext0:
  17              		.cfi_sections	.debug_frame
  18              		.global _printf_float
  19              		.global _printf_float
  20              		.thumb
  21              		.comm	wrBuffer,64,4
  22              		.comm	temp,1,1
  23              		.comm	curPos,2,2
  24              		.comm	oldPos,2,2
  25              		.section	.text.CapSenseInit,"ax",%progbits
  26              		.align	2
  27              		.global	CapSenseInit
  28              		.thumb
  29              		.thumb_func
  30              		.type	CapSenseInit, %function
  31              	CapSenseInit:
  32              	.LFB63:
  33              		.file 1 ".\\capsense.c"
   1:.\capsense.c  **** /* ========================================
   2:.\capsense.c  **** * File Name: capsense.h
   3:.\capsense.c  **** *
   4:.\capsense.c  **** * Version: 1
   5:.\capsense.c  **** * Author: Lukas Creutzburg
   6:.\capsense.c  **** *
   7:.\capsense.c  **** *  Description:
   8:.\capsense.c  **** *  CapSense module
   9:.\capsense.c  **** *
  10:.\capsense.c  **** * Copyright:
  11:.\capsense.c  **** * Released under Creative Commons Attribution Share-Alike 4.0 license.This 
  12:.\capsense.c  **** * allows for both personal and commercial derivative works, as long as they 
  13:.\capsense.c  **** * credit freeDSP and release their designs under the same license. The freeDSP 
  14:.\capsense.c  **** * brand and freeDSP logo are protected by copyright and cannot be used without 
  15:.\capsense.c  **** * formal permission. Please contact Sebastian Merchel for further information.
  16:.\capsense.c  **** * https://creativecommons.org/licenses/by-sa/4.0/legalcode
  17:.\capsense.c  **** *
  18:.\capsense.c  **** * =================================================================================================
  19:.\capsense.c  **** */
  20:.\capsense.c  **** #include "capsense.h"
  21:.\capsense.c  **** 
  22:.\capsense.c  **** /* Variables */
  23:.\capsense.c  **** 
  24:.\capsense.c  **** uint16 curPos, oldPos;
ARM GAS  C:\Users\LUKASC~1\AppData\Local\Temp\ccfv0OqN.s 			page 2


  25:.\capsense.c  **** 
  26:.\capsense.c  **** 
  27:.\capsense.c  **** void CapSenseInit(void)
  28:.\capsense.c  **** {
  34              		.loc 1 28 0
  35              		.cfi_startproc
  36              		@ args = 0, pretend = 0, frame = 0
  37              		@ frame_needed = 1, uses_anonymous_args = 0
  38 0000 80B5     		push	{r7, lr}
  39              		.cfi_def_cfa_offset 8
  40              		.cfi_offset 7, -8
  41              		.cfi_offset 14, -4
  42 0002 00AF     		add	r7, sp, #0
  43              		.cfi_def_cfa_register 7
  29:.\capsense.c  ****     /* Start CapSense components */
  30:.\capsense.c  ****     CapSense_1_Start();
  44              		.loc 1 30 0
  45 0004 FFF7FEFF 		bl	CapSense_1_Start
  31:.\capsense.c  ****     
  32:.\capsense.c  ****     /* Initialize baselines */
  33:.\capsense.c  ****     CapSense_1_InitializeAllBaselines();
  46              		.loc 1 33 0
  47 0008 FFF7FEFF 		bl	CapSense_1_InitializeAllBaselines
  34:.\capsense.c  **** }
  48              		.loc 1 34 0
  49 000c 80BD     		pop	{r7, pc}
  50              		.cfi_endproc
  51              	.LFE63:
  52              		.size	CapSenseInit, .-CapSenseInit
  53 000e 00BF     		.section	.text.CapSense_DisplayState,"ax",%progbits
  54              		.align	2
  55              		.global	CapSense_DisplayState
  56              		.thumb
  57              		.thumb_func
  58              		.type	CapSense_DisplayState, %function
  59              	CapSense_DisplayState:
  60              	.LFB64:
  35:.\capsense.c  **** 
  36:.\capsense.c  **** int16 CapSense_DisplayState(void)
  37:.\capsense.c  **** {
  61              		.loc 1 37 0
  62              		.cfi_startproc
  63              		@ args = 0, pretend = 0, frame = 8
  64              		@ frame_needed = 1, uses_anonymous_args = 0
  65 0000 80B5     		push	{r7, lr}
  66              		.cfi_def_cfa_offset 8
  67              		.cfi_offset 7, -8
  68              		.cfi_offset 14, -4
  69 0002 82B0     		sub	sp, sp, #8
  70              		.cfi_def_cfa_offset 16
  71 0004 00AF     		add	r7, sp, #0
  72              		.cfi_def_cfa_register 7
  38:.\capsense.c  ****     /* Find Slider Position */
  39:.\capsense.c  ****     curPos = CapSense_1_GetCentroidPos(CapSense_1_LINEARSLIDER0__LS);
  73              		.loc 1 39 0
  74 0006 0020     		movs	r0, #0
  75 0008 FFF7FEFF 		bl	CapSense_1_GetCentroidPos
ARM GAS  C:\Users\LUKASC~1\AppData\Local\Temp\ccfv0OqN.s 			page 3


  76 000c 0346     		mov	r3, r0
  77 000e 1A46     		mov	r2, r3
  78 0010 124B     		ldr	r3, .L6
  79 0012 1A80     		strh	r2, [r3]	@ movhi
  40:.\capsense.c  **** 
  41:.\capsense.c  ****     /* Reset position */
  42:.\capsense.c  ****     if(curPos == 0xFFFFu)
  80              		.loc 1 42 0
  81 0014 114B     		ldr	r3, .L6
  82 0016 1B88     		ldrh	r3, [r3]
  83 0018 4FF6FF72 		movw	r2, #65535
  84 001c 9342     		cmp	r3, r2
  85 001e 02D1     		bne	.L3
  43:.\capsense.c  ****     {
  44:.\capsense.c  ****         curPos = 0u;
  86              		.loc 1 44 0
  87 0020 0E4B     		ldr	r3, .L6
  88 0022 0022     		movs	r2, #0
  89 0024 1A80     		strh	r2, [r3]	@ movhi
  90              	.L3:
  45:.\capsense.c  ****     }
  46:.\capsense.c  **** 
  47:.\capsense.c  ****     /* Move bargraph */
  48:.\capsense.c  ****     if (curPos != oldPos)
  91              		.loc 1 48 0
  92 0026 0D4B     		ldr	r3, .L6
  93 0028 1A88     		ldrh	r2, [r3]
  94 002a 0D4B     		ldr	r3, .L6+4
  95 002c 1B88     		ldrh	r3, [r3]
  96 002e 9A42     		cmp	r2, r3
  97 0030 0CD0     		beq	.L4
  49:.\capsense.c  ****     {
  50:.\capsense.c  ****         oldPos = curPos;
  98              		.loc 1 50 0
  99 0032 0A4B     		ldr	r3, .L6
 100 0034 1A88     		ldrh	r2, [r3]
 101 0036 0A4B     		ldr	r3, .L6+4
 102 0038 1A80     		strh	r2, [r3]	@ movhi
  51:.\capsense.c  ****         /* Display Slider bargraph */
  52:.\capsense.c  ****         if (curPos != 0u)
 103              		.loc 1 52 0
 104 003a 084B     		ldr	r3, .L6
 105 003c 1B88     		ldrh	r3, [r3]
 106 003e 002B     		cmp	r3, #0
 107 0040 04D0     		beq	.L4
 108              	.LBB2:
  53:.\capsense.c  ****         {
  54:.\capsense.c  ****             int16 myInt = (uint32)curPos; 
 109              		.loc 1 54 0
 110 0042 064B     		ldr	r3, .L6
 111 0044 1B88     		ldrh	r3, [r3]
 112 0046 FB80     		strh	r3, [r7, #6]	@ movhi
  55:.\capsense.c  ****             return myInt;
 113              		.loc 1 55 0
 114 0048 FB88     		ldrh	r3, [r7, #6]
 115 004a 01E0     		b	.L5
 116              	.L4:
ARM GAS  C:\Users\LUKASC~1\AppData\Local\Temp\ccfv0OqN.s 			page 4


 117              	.LBE2:
  56:.\capsense.c  ****         }
  57:.\capsense.c  ****     }
  58:.\capsense.c  ****     //not moved
  59:.\capsense.c  ****     return -1;
 118              		.loc 1 59 0
 119 004c 4FF6FF73 		movw	r3, #65535
 120              	.L5:
 121 0050 1BB2     		sxth	r3, r3
  60:.\capsense.c  **** }
 122              		.loc 1 60 0
 123 0052 1846     		mov	r0, r3
 124 0054 0837     		adds	r7, r7, #8
 125              		.cfi_def_cfa_offset 8
 126 0056 BD46     		mov	sp, r7
 127              		.cfi_def_cfa_register 13
 128              		@ sp needed
 129 0058 80BD     		pop	{r7, pc}
 130              	.L7:
 131 005a 00BF     		.align	2
 132              	.L6:
 133 005c 00000000 		.word	curPos
 134 0060 00000000 		.word	oldPos
 135              		.cfi_endproc
 136              	.LFE64:
 137              		.size	CapSense_DisplayState, .-CapSense_DisplayState
 138              		.section	.text.CapSense_Refresh,"ax",%progbits
 139              		.align	2
 140              		.global	CapSense_Refresh
 141              		.thumb
 142              		.thumb_func
 143              		.type	CapSense_Refresh, %function
 144              	CapSense_Refresh:
 145              	.LFB65:
  61:.\capsense.c  **** 
  62:.\capsense.c  **** int32 CapSense_Refresh(void)
  63:.\capsense.c  **** {
 146              		.loc 1 63 0
 147              		.cfi_startproc
 148              		@ args = 0, pretend = 0, frame = 0
 149              		@ frame_needed = 1, uses_anonymous_args = 0
 150 0000 80B5     		push	{r7, lr}
 151              		.cfi_def_cfa_offset 8
 152              		.cfi_offset 7, -8
 153              		.cfi_offset 14, -4
 154 0002 00AF     		add	r7, sp, #0
 155              		.cfi_def_cfa_register 7
  64:.\capsense.c  ****     CapSense_Button0();
 156              		.loc 1 64 0
 157 0004 FFF7FEFF 		bl	CapSense_Button0
  65:.\capsense.c  ****     CapSense_Button1();
 158              		.loc 1 65 0
 159 0008 FFF7FEFF 		bl	CapSense_Button1
  66:.\capsense.c  ****     CapSense_Button2();
 160              		.loc 1 66 0
 161 000c FFF7FEFF 		bl	CapSense_Button2
  67:.\capsense.c  ****     /* Check whether the scanning of all enabled widgets is completed. */
ARM GAS  C:\Users\LUKASC~1\AppData\Local\Temp\ccfv0OqN.s 			page 5


  68:.\capsense.c  ****         if(0u == CapSense_1_IsBusy())
 162              		.loc 1 68 0
 163 0010 FFF7FEFF 		bl	CapSense_1_IsBusy
 164 0014 0346     		mov	r3, r0
 165 0016 002B     		cmp	r3, #0
 166 0018 03D1     		bne	.L9
  69:.\capsense.c  ****         {
  70:.\capsense.c  ****             /* Update all baselines */
  71:.\capsense.c  ****             CapSense_1_UpdateEnabledBaselines();
 167              		.loc 1 71 0
 168 001a FFF7FEFF 		bl	CapSense_1_UpdateEnabledBaselines
  72:.\capsense.c  **** 
  73:.\capsense.c  ****             /* Start scanning all enabled sensors */
  74:.\capsense.c  ****             CapSense_1_ScanEnabledWidgets();
 169              		.loc 1 74 0
 170 001e FFF7FEFF 		bl	CapSense_1_ScanEnabledWidgets
 171              	.L9:
  75:.\capsense.c  ****         }
  76:.\capsense.c  **** 
  77:.\capsense.c  ****         /* Display CapSense state using LEDs */
  78:.\capsense.c  ****         return CapSense_DisplayState();
 172              		.loc 1 78 0
 173 0022 FFF7FEFF 		bl	CapSense_DisplayState
 174 0026 0346     		mov	r3, r0
  79:.\capsense.c  **** }
 175              		.loc 1 79 0
 176 0028 1846     		mov	r0, r3
 177 002a 80BD     		pop	{r7, pc}
 178              		.cfi_endproc
 179              	.LFE65:
 180              		.size	CapSense_Refresh, .-CapSense_Refresh
 181              		.section	.rodata
 182              		.align	2
 183              	.LC0:
 184 0000 42757474 		.ascii	"Button 0\012\000"
 184      6F6E2030 
 184      0A00
 185              		.section	.text.CapSense_Button0,"ax",%progbits
 186              		.align	2
 187              		.global	CapSense_Button0
 188              		.thumb
 189              		.thumb_func
 190              		.type	CapSense_Button0, %function
 191              	CapSense_Button0:
 192              	.LFB66:
  80:.\capsense.c  **** 
  81:.\capsense.c  **** void CapSense_Button0(void)
  82:.\capsense.c  **** {
 193              		.loc 1 82 0
 194              		.cfi_startproc
 195              		@ args = 0, pretend = 0, frame = 0
 196              		@ frame_needed = 1, uses_anonymous_args = 0
 197 0000 80B5     		push	{r7, lr}
 198              		.cfi_def_cfa_offset 8
 199              		.cfi_offset 7, -8
 200              		.cfi_offset 14, -4
 201 0002 00AF     		add	r7, sp, #0
ARM GAS  C:\Users\LUKASC~1\AppData\Local\Temp\ccfv0OqN.s 			page 6


 202              		.cfi_def_cfa_register 7
  83:.\capsense.c  ****     /* Display BUTTON0 state */
  84:.\capsense.c  ****     if (CapSense_1_CheckIsWidgetActive(CapSense_1_BUTTON0__BTN))
 203              		.loc 1 84 0
 204 0004 0120     		movs	r0, #1
 205 0006 FFF7FEFF 		bl	CapSense_1_CheckIsWidgetActive
 206 000a 0346     		mov	r3, r0
 207 000c 002B     		cmp	r3, #0
 208 000e 05D0     		beq	.L11
  85:.\capsense.c  ****     {
  86:.\capsense.c  ****         //is pressed
  87:.\capsense.c  ****         UARTsendString("Button 0\n");
 209              		.loc 1 87 0
 210 0010 0348     		ldr	r0, .L13
 211 0012 FFF7FEFF 		bl	UARTsendString
  88:.\capsense.c  ****         SPIsendNumber((uint8)0x0);
 212              		.loc 1 88 0
 213 0016 0020     		movs	r0, #0
 214 0018 FFF7FEFF 		bl	SPIsendNumber
 215              	.L11:
  89:.\capsense.c  ****     }
  90:.\capsense.c  ****     else
  91:.\capsense.c  ****     {
  92:.\capsense.c  ****         //is notpressed
  93:.\capsense.c  ****     }
  94:.\capsense.c  **** }
 216              		.loc 1 94 0
 217 001c 80BD     		pop	{r7, pc}
 218              	.L14:
 219 001e 00BF     		.align	2
 220              	.L13:
 221 0020 00000000 		.word	.LC0
 222              		.cfi_endproc
 223              	.LFE66:
 224              		.size	CapSense_Button0, .-CapSense_Button0
 225              		.section	.rodata
 226 000a 0000     		.align	2
 227              	.LC1:
 228 000c 42757474 		.ascii	"Button 1\012\000"
 228      6F6E2031 
 228      0A00
 229              		.section	.text.CapSense_Button1,"ax",%progbits
 230              		.align	2
 231              		.global	CapSense_Button1
 232              		.thumb
 233              		.thumb_func
 234              		.type	CapSense_Button1, %function
 235              	CapSense_Button1:
 236              	.LFB67:
  95:.\capsense.c  **** 
  96:.\capsense.c  **** void CapSense_Button1(void)
  97:.\capsense.c  **** {
 237              		.loc 1 97 0
 238              		.cfi_startproc
 239              		@ args = 0, pretend = 0, frame = 0
 240              		@ frame_needed = 1, uses_anonymous_args = 0
 241 0000 80B5     		push	{r7, lr}
ARM GAS  C:\Users\LUKASC~1\AppData\Local\Temp\ccfv0OqN.s 			page 7


 242              		.cfi_def_cfa_offset 8
 243              		.cfi_offset 7, -8
 244              		.cfi_offset 14, -4
 245 0002 00AF     		add	r7, sp, #0
 246              		.cfi_def_cfa_register 7
  98:.\capsense.c  ****     /* Display BUTTON1 state */
  99:.\capsense.c  ****     if (CapSense_1_CheckIsWidgetActive(CapSense_1_BUTTON1__BTN))
 247              		.loc 1 99 0
 248 0004 0220     		movs	r0, #2
 249 0006 FFF7FEFF 		bl	CapSense_1_CheckIsWidgetActive
 250 000a 0346     		mov	r3, r0
 251 000c 002B     		cmp	r3, #0
 252 000e 05D0     		beq	.L15
 100:.\capsense.c  ****     {
 101:.\capsense.c  ****         //is pressed
 102:.\capsense.c  ****         UARTsendString("Button 1\n");
 253              		.loc 1 102 0
 254 0010 0348     		ldr	r0, .L17
 255 0012 FFF7FEFF 		bl	UARTsendString
 103:.\capsense.c  ****         SPIsendNumber((uint8)0x1);
 256              		.loc 1 103 0
 257 0016 0120     		movs	r0, #1
 258 0018 FFF7FEFF 		bl	SPIsendNumber
 259              	.L15:
 104:.\capsense.c  ****     }
 105:.\capsense.c  ****     else
 106:.\capsense.c  ****     {
 107:.\capsense.c  ****         //is notpressed
 108:.\capsense.c  ****     }
 109:.\capsense.c  **** }
 260              		.loc 1 109 0
 261 001c 80BD     		pop	{r7, pc}
 262              	.L18:
 263 001e 00BF     		.align	2
 264              	.L17:
 265 0020 0C000000 		.word	.LC1
 266              		.cfi_endproc
 267              	.LFE67:
 268              		.size	CapSense_Button1, .-CapSense_Button1
 269              		.section	.rodata
 270 0016 0000     		.align	2
 271              	.LC2:
 272 0018 42757474 		.ascii	"Button 2\012\000"
 272      6F6E2032 
 272      0A00
 273 0022 0000     		.section	.text.CapSense_Button2,"ax",%progbits
 274              		.align	2
 275              		.global	CapSense_Button2
 276              		.thumb
 277              		.thumb_func
 278              		.type	CapSense_Button2, %function
 279              	CapSense_Button2:
 280              	.LFB68:
 110:.\capsense.c  **** 
 111:.\capsense.c  **** void CapSense_Button2(void)
 112:.\capsense.c  **** {
 281              		.loc 1 112 0
ARM GAS  C:\Users\LUKASC~1\AppData\Local\Temp\ccfv0OqN.s 			page 8


 282              		.cfi_startproc
 283              		@ args = 0, pretend = 0, frame = 0
 284              		@ frame_needed = 1, uses_anonymous_args = 0
 285 0000 80B5     		push	{r7, lr}
 286              		.cfi_def_cfa_offset 8
 287              		.cfi_offset 7, -8
 288              		.cfi_offset 14, -4
 289 0002 00AF     		add	r7, sp, #0
 290              		.cfi_def_cfa_register 7
 113:.\capsense.c  ****     /* Display BUTTON2 state */
 114:.\capsense.c  ****     if (CapSense_1_CheckIsWidgetActive(CapSense_1_BUTTON2__BTN))
 291              		.loc 1 114 0
 292 0004 0320     		movs	r0, #3
 293 0006 FFF7FEFF 		bl	CapSense_1_CheckIsWidgetActive
 294 000a 0346     		mov	r3, r0
 295 000c 002B     		cmp	r3, #0
 296 000e 05D0     		beq	.L19
 115:.\capsense.c  ****     {
 116:.\capsense.c  ****         //is pressed
 117:.\capsense.c  ****         UARTsendString("Button 2\n");
 297              		.loc 1 117 0
 298 0010 0348     		ldr	r0, .L21
 299 0012 FFF7FEFF 		bl	UARTsendString
 118:.\capsense.c  ****         SPIsendNumber((uint8)0x2);
 300              		.loc 1 118 0
 301 0016 0220     		movs	r0, #2
 302 0018 FFF7FEFF 		bl	SPIsendNumber
 303              	.L19:
 119:.\capsense.c  ****     }
 120:.\capsense.c  ****     else
 121:.\capsense.c  ****     {
 122:.\capsense.c  ****         //is notpressed
 123:.\capsense.c  ****     }
 124:.\capsense.c  **** }
 304              		.loc 1 124 0
 305 001c 80BD     		pop	{r7, pc}
 306              	.L22:
 307 001e 00BF     		.align	2
 308              	.L21:
 309 0020 18000000 		.word	.LC2
 310              		.cfi_endproc
 311              	.LFE68:
 312              		.size	CapSense_Button2, .-CapSense_Button2
 313              		.text
 314              	.Letext0:
 315              		.file 2 "c:\\program files (x86)\\cypress\\psoc creator\\3.3\\psoc creator\\import\\gnu\\arm\\4.9.
 316              		.file 3 "c:\\program files (x86)\\cypress\\psoc creator\\3.3\\psoc creator\\import\\gnu\\arm\\4.9.
 317              		.file 4 "Generated_Source\\PSoC5/cytypes.h"
 318              		.file 5 "Generated_Source\\PSoC5/core_cm3.h"
 319              		.file 6 ".\\spimaster.h"