ARM GAS  C:\Users\LUKASC~1\AppData\Local\Temp\ccEPO9Gu.s 			page 1


   1              		.syntax unified
   2              		.cpu cortex-m3
   3              		.fpu softvfp
   4              		.eabi_attribute 20, 1
   5              		.eabi_attribute 21, 1
   6              		.eabi_attribute 23, 3
   7              		.eabi_attribute 24, 1
   8              		.eabi_attribute 25, 1
   9              		.eabi_attribute 26, 1
  10              		.eabi_attribute 30, 6
  11              		.eabi_attribute 34, 1
  12              		.eabi_attribute 18, 4
  13              		.thumb
  14              		.file	"CapSense_1_MBX.c"
  15              		.text
  16              	.Ltext0:
  17              		.cfi_sections	.debug_frame
  18              		.section	.text.CapSense_1_InitParams,"ax",%progbits
  19              		.align	2
  20              		.thumb
  21              		.thumb_func
  22              		.type	CapSense_1_InitParams, %function
  23              	CapSense_1_InitParams:
  24              	.LFB0:
  25              		.file 1 ".\\Generated_Source\\PSoC5\\CapSense_1_MBX.c"
   1:.\Generated_Source\PSoC5/CapSense_1_MBX.c **** /*******************************************************************************
   2:.\Generated_Source\PSoC5/CapSense_1_MBX.c **** * File Name: CapSense_1_MBX.c
   3:.\Generated_Source\PSoC5/CapSense_1_MBX.c **** * Version 3.40
   4:.\Generated_Source\PSoC5/CapSense_1_MBX.c **** *
   5:.\Generated_Source\PSoC5/CapSense_1_MBX.c **** * Description:
   6:.\Generated_Source\PSoC5/CapSense_1_MBX.c **** *  This file provides the source code of Tuner communication APIs for the 
   7:.\Generated_Source\PSoC5/CapSense_1_MBX.c **** *  CapSense CSD component.
   8:.\Generated_Source\PSoC5/CapSense_1_MBX.c **** *
   9:.\Generated_Source\PSoC5/CapSense_1_MBX.c **** * Note:
  10:.\Generated_Source\PSoC5/CapSense_1_MBX.c **** *
  11:.\Generated_Source\PSoC5/CapSense_1_MBX.c **** ********************************************************************************
  12:.\Generated_Source\PSoC5/CapSense_1_MBX.c **** * Copyright 2008-2013, Cypress Semiconductor Corporation.  All rights reserved.
  13:.\Generated_Source\PSoC5/CapSense_1_MBX.c **** * You may use this file only in accordance with the license, terms, conditions,
  14:.\Generated_Source\PSoC5/CapSense_1_MBX.c **** * disclaimers, and limitations in the end user license agreement accompanying
  15:.\Generated_Source\PSoC5/CapSense_1_MBX.c **** * the software package with which this file was provided.
  16:.\Generated_Source\PSoC5/CapSense_1_MBX.c **** *******************************************************************************/
  17:.\Generated_Source\PSoC5/CapSense_1_MBX.c **** 
  18:.\Generated_Source\PSoC5/CapSense_1_MBX.c **** #include "CapSense_1_MBX.h"
  19:.\Generated_Source\PSoC5/CapSense_1_MBX.c **** 
  20:.\Generated_Source\PSoC5/CapSense_1_MBX.c **** #if (CapSense_1_TUNING_METHOD == CapSense_1_MANUAL_TUNING)
  21:.\Generated_Source\PSoC5/CapSense_1_MBX.c ****     
  22:.\Generated_Source\PSoC5/CapSense_1_MBX.c **** CapSense_1_NO_STRICT_VOLATILE static void CapSense_1_InitParams(volatile const CapSense_1_INBOX *in
  23:.\Generated_Source\PSoC5/CapSense_1_MBX.c ****                                         ;
  24:.\Generated_Source\PSoC5/CapSense_1_MBX.c ****     
  25:.\Generated_Source\PSoC5/CapSense_1_MBX.c ****                                         
  26:.\Generated_Source\PSoC5/CapSense_1_MBX.c ****     /*******************************************************************************
  27:.\Generated_Source\PSoC5/CapSense_1_MBX.c ****     * Function Name: CapSense_1_InitParams
  28:.\Generated_Source\PSoC5/CapSense_1_MBX.c ****     ********************************************************************************
  29:.\Generated_Source\PSoC5/CapSense_1_MBX.c ****     *
  30:.\Generated_Source\PSoC5/CapSense_1_MBX.c ****     * Summary:
  31:.\Generated_Source\PSoC5/CapSense_1_MBX.c ****     *  Configures component parameters to match the parameters in the inbox.
  32:.\Generated_Source\PSoC5/CapSense_1_MBX.c ****     *  Used only in manual tuning mode to apply new scanning parameters from Tuner 
ARM GAS  C:\Users\LUKASC~1\AppData\Local\Temp\ccEPO9Gu.s 			page 2


  33:.\Generated_Source\PSoC5/CapSense_1_MBX.c ****     *  GUI.
  34:.\Generated_Source\PSoC5/CapSense_1_MBX.c ****     *
  35:.\Generated_Source\PSoC5/CapSense_1_MBX.c ****     * Parameters:
  36:.\Generated_Source\PSoC5/CapSense_1_MBX.c ****     *  inbox:  Pointer to Inbox structure in RAM.
  37:.\Generated_Source\PSoC5/CapSense_1_MBX.c ****     *
  38:.\Generated_Source\PSoC5/CapSense_1_MBX.c ****     * Return:
  39:.\Generated_Source\PSoC5/CapSense_1_MBX.c ****     *  None. Contents of the structure are not modified.
  40:.\Generated_Source\PSoC5/CapSense_1_MBX.c ****     * 
  41:.\Generated_Source\PSoC5/CapSense_1_MBX.c ****     * Side Effects: 
  42:.\Generated_Source\PSoC5/CapSense_1_MBX.c ****     *  Resets baseline values.
  43:.\Generated_Source\PSoC5/CapSense_1_MBX.c ****     *
  44:.\Generated_Source\PSoC5/CapSense_1_MBX.c ****     * Global Variables:
  45:.\Generated_Source\PSoC5/CapSense_1_MBX.c ****     *  CapSense_1_idacSettings[] - used to store idac value for all sensors.
  46:.\Generated_Source\PSoC5/CapSense_1_MBX.c ****     *  CapSense_1_fingerThreshold[] - used to store finger threshold for all 
  47:.\Generated_Source\PSoC5/CapSense_1_MBX.c ****     *  widgets.
  48:.\Generated_Source\PSoC5/CapSense_1_MBX.c ****     *  CapSense_1_noiseThreshold[] - used to sotre noise threshold for all 
  49:.\Generated_Source\PSoC5/CapSense_1_MBX.c ****     *  widgets.
  50:.\Generated_Source\PSoC5/CapSense_1_MBX.c ****     *  CapSense_1_hysteresis[] - used to store finger threshold for all 
  51:.\Generated_Source\PSoC5/CapSense_1_MBX.c ****     *  widgets.
  52:.\Generated_Source\PSoC5/CapSense_1_MBX.c ****     *  CapSense_1_debounce[] - used to store finger threshold for all 
  53:.\Generated_Source\PSoC5/CapSense_1_MBX.c ****     *  widgets.
  54:.\Generated_Source\PSoC5/CapSense_1_MBX.c ****     *  CapSense_1_INBOX inbox - structure which is used as input buffer
  55:.\Generated_Source\PSoC5/CapSense_1_MBX.c ****     *  for parameters from Tuner GUI. Only used in manual tuning mode.
  56:.\Generated_Source\PSoC5/CapSense_1_MBX.c ****     *
  57:.\Generated_Source\PSoC5/CapSense_1_MBX.c ****     * Reentrant:
  58:.\Generated_Source\PSoC5/CapSense_1_MBX.c ****     *  No
  59:.\Generated_Source\PSoC5/CapSense_1_MBX.c ****     *
  60:.\Generated_Source\PSoC5/CapSense_1_MBX.c ****     *******************************************************************************/
  61:.\Generated_Source\PSoC5/CapSense_1_MBX.c ****     static void CapSense_1_InitParams(volatile const CapSense_1_INBOX *inbox)
  62:.\Generated_Source\PSoC5/CapSense_1_MBX.c **** 	                                        
  63:.\Generated_Source\PSoC5/CapSense_1_MBX.c ****     {
  26              		.loc 1 63 0
  27              		.cfi_startproc
  28              		@ args = 0, pretend = 0, frame = 16
  29              		@ frame_needed = 1, uses_anonymous_args = 0
  30 0000 80B5     		push	{r7, lr}
  31              		.cfi_def_cfa_offset 8
  32              		.cfi_offset 7, -8
  33              		.cfi_offset 14, -4
  34 0002 84B0     		sub	sp, sp, #16
  35              		.cfi_def_cfa_offset 24
  36 0004 00AF     		add	r7, sp, #0
  37              		.cfi_def_cfa_register 7
  38 0006 7860     		str	r0, [r7, #4]
  64:.\Generated_Source\PSoC5/CapSense_1_MBX.c ****         /* Define widget sensor belongs to */
  65:.\Generated_Source\PSoC5/CapSense_1_MBX.c ****         uint8 sensor = inbox->sensorIndex;
  39              		.loc 1 65 0
  40 0008 7B68     		ldr	r3, [r7, #4]
  41 000a 1B78     		ldrb	r3, [r3]
  42 000c FB73     		strb	r3, [r7, #15]
  66:.\Generated_Source\PSoC5/CapSense_1_MBX.c ****         uint8 widget = CapSense_1_widgetNumber[sensor];
  43              		.loc 1 66 0
  44 000e FB7B     		ldrb	r3, [r7, #15]	@ zero_extendqisi2
  45 0010 304A     		ldr	r2, .L2
  46 0012 D35C     		ldrb	r3, [r2, r3]
  47 0014 BB73     		strb	r3, [r7, #14]
  67:.\Generated_Source\PSoC5/CapSense_1_MBX.c ****         uint16 tmpValue;
ARM GAS  C:\Users\LUKASC~1\AppData\Local\Temp\ccEPO9Gu.s 			page 3


  68:.\Generated_Source\PSoC5/CapSense_1_MBX.c ****         
  69:.\Generated_Source\PSoC5/CapSense_1_MBX.c ****         /* Scanning parameters */
  70:.\Generated_Source\PSoC5/CapSense_1_MBX.c ****         #if (CapSense_1_CURRENT_SOURCE)
  71:.\Generated_Source\PSoC5/CapSense_1_MBX.c ****             CapSense_1_idacSettings[sensor] = inbox->idacSettings;
  48              		.loc 1 71 0
  49 0016 FB7B     		ldrb	r3, [r7, #15]	@ zero_extendqisi2
  50 0018 7A68     		ldr	r2, [r7, #4]
  51 001a 5278     		ldrb	r2, [r2, #1]
  52 001c D1B2     		uxtb	r1, r2
  53 001e 2E4A     		ldr	r2, .L2+4
  54 0020 D154     		strb	r1, [r2, r3]
  72:.\Generated_Source\PSoC5/CapSense_1_MBX.c ****         #endif /* CapSense_1_CURRENT_SOURCE */   
  73:.\Generated_Source\PSoC5/CapSense_1_MBX.c ****         CapSense_1_widgetResolution[widget] = inbox->resolution;
  55              		.loc 1 73 0
  56 0022 BB7B     		ldrb	r3, [r7, #14]	@ zero_extendqisi2
  57 0024 7A68     		ldr	r2, [r7, #4]
  58 0026 9278     		ldrb	r2, [r2, #2]
  59 0028 D1B2     		uxtb	r1, r2
  60 002a 2C4A     		ldr	r2, .L2+8
  61 002c D154     		strb	r1, [r2, r3]
  74:.\Generated_Source\PSoC5/CapSense_1_MBX.c ****     
  75:.\Generated_Source\PSoC5/CapSense_1_MBX.c ****         #if (CapSense_1_TOTAL_GENERICS_COUNT)
  76:.\Generated_Source\PSoC5/CapSense_1_MBX.c ****             /* Exclude generic wiget */
  77:.\Generated_Source\PSoC5/CapSense_1_MBX.c ****             if(widget < CapSense_1_END_OF_WIDGETS_INDEX)
  78:.\Generated_Source\PSoC5/CapSense_1_MBX.c ****             {
  79:.\Generated_Source\PSoC5/CapSense_1_MBX.c ****         #endif  /* CapSense_1_TOTAL_GENERICS_COUNT */
  80:.\Generated_Source\PSoC5/CapSense_1_MBX.c ****         
  81:.\Generated_Source\PSoC5/CapSense_1_MBX.c ****             /* High level parameters */
  82:.\Generated_Source\PSoC5/CapSense_1_MBX.c ****             tmpValue = inbox->fingerThreshold;
  62              		.loc 1 82 0
  63 002e 7B68     		ldr	r3, [r7, #4]
  64 0030 DA78     		ldrb	r2, [r3, #3]
  65 0032 D2B2     		uxtb	r2, r2
  66 0034 1B79     		ldrb	r3, [r3, #4]
  67 0036 DBB2     		uxtb	r3, r3
  68 0038 1B02     		lsls	r3, r3, #8
  69 003a 1343     		orrs	r3, r3, r2
  70 003c BB81     		strh	r3, [r7, #12]	@ movhi
  83:.\Generated_Source\PSoC5/CapSense_1_MBX.c ****             CapSense_1_fingerThreshold[widget] = CapSense_1_SWAP_ENDIAN16(tmpValue);
  71              		.loc 1 83 0
  72 003e BB7B     		ldrb	r3, [r7, #14]	@ zero_extendqisi2
  73 0040 BA89     		ldrh	r2, [r7, #12]
  74 0042 1202     		lsls	r2, r2, #8
  75 0044 91B2     		uxth	r1, r2
  76 0046 BA89     		ldrh	r2, [r7, #12]
  77 0048 120A     		lsrs	r2, r2, #8
  78 004a 92B2     		uxth	r2, r2
  79 004c 92B2     		uxth	r2, r2
  80 004e 0A43     		orrs	r2, r2, r1
  81 0050 92B2     		uxth	r2, r2
  82 0052 91B2     		uxth	r1, r2
  83 0054 224A     		ldr	r2, .L2+12
  84 0056 22F81310 		strh	r1, [r2, r3, lsl #1]	@ movhi
  84:.\Generated_Source\PSoC5/CapSense_1_MBX.c ****             tmpValue = inbox->noiseThreshold;
  85              		.loc 1 84 0
  86 005a 7B68     		ldr	r3, [r7, #4]
  87 005c 5A79     		ldrb	r2, [r3, #5]
ARM GAS  C:\Users\LUKASC~1\AppData\Local\Temp\ccEPO9Gu.s 			page 4


  88 005e D2B2     		uxtb	r2, r2
  89 0060 9B79     		ldrb	r3, [r3, #6]
  90 0062 DBB2     		uxtb	r3, r3
  91 0064 1B02     		lsls	r3, r3, #8
  92 0066 1343     		orrs	r3, r3, r2
  93 0068 BB81     		strh	r3, [r7, #12]	@ movhi
  85:.\Generated_Source\PSoC5/CapSense_1_MBX.c ****             CapSense_1_noiseThreshold[widget]  = CapSense_1_SWAP_ENDIAN16(tmpValue);
  94              		.loc 1 85 0
  95 006a BB7B     		ldrb	r3, [r7, #14]	@ zero_extendqisi2
  96 006c BA89     		ldrh	r2, [r7, #12]
  97 006e 1202     		lsls	r2, r2, #8
  98 0070 91B2     		uxth	r1, r2
  99 0072 BA89     		ldrh	r2, [r7, #12]
 100 0074 120A     		lsrs	r2, r2, #8
 101 0076 92B2     		uxth	r2, r2
 102 0078 92B2     		uxth	r2, r2
 103 007a 0A43     		orrs	r2, r2, r1
 104 007c 92B2     		uxth	r2, r2
 105 007e 91B2     		uxth	r1, r2
 106 0080 184A     		ldr	r2, .L2+16
 107 0082 22F81310 		strh	r1, [r2, r3, lsl #1]	@ movhi
  86:.\Generated_Source\PSoC5/CapSense_1_MBX.c ****             
  87:.\Generated_Source\PSoC5/CapSense_1_MBX.c ****             tmpValue = inbox->hysteresis;
 108              		.loc 1 87 0
 109 0086 7B68     		ldr	r3, [r7, #4]
 110 0088 DA79     		ldrb	r2, [r3, #7]
 111 008a D2B2     		uxtb	r2, r2
 112 008c 1B7A     		ldrb	r3, [r3, #8]
 113 008e DBB2     		uxtb	r3, r3
 114 0090 1B02     		lsls	r3, r3, #8
 115 0092 1343     		orrs	r3, r3, r2
 116 0094 BB81     		strh	r3, [r7, #12]	@ movhi
  88:.\Generated_Source\PSoC5/CapSense_1_MBX.c ****             CapSense_1_hysteresis[widget] = CapSense_1_SWAP_ENDIAN16(tmpValue);
 117              		.loc 1 88 0
 118 0096 BB7B     		ldrb	r3, [r7, #14]	@ zero_extendqisi2
 119 0098 BA89     		ldrh	r2, [r7, #12]
 120 009a 1202     		lsls	r2, r2, #8
 121 009c 91B2     		uxth	r1, r2
 122 009e BA89     		ldrh	r2, [r7, #12]
 123 00a0 120A     		lsrs	r2, r2, #8
 124 00a2 92B2     		uxth	r2, r2
 125 00a4 92B2     		uxth	r2, r2
 126 00a6 0A43     		orrs	r2, r2, r1
 127 00a8 92B2     		uxth	r2, r2
 128 00aa 91B2     		uxth	r1, r2
 129 00ac 0E4A     		ldr	r2, .L2+20
 130 00ae 22F81310 		strh	r1, [r2, r3, lsl #1]	@ movhi
  89:.\Generated_Source\PSoC5/CapSense_1_MBX.c ****             CapSense_1_debounce[widget]   = inbox->debounce;
 131              		.loc 1 89 0
 132 00b2 BB7B     		ldrb	r3, [r7, #14]	@ zero_extendqisi2
 133 00b4 7A68     		ldr	r2, [r7, #4]
 134 00b6 527A     		ldrb	r2, [r2, #9]
 135 00b8 D1B2     		uxtb	r1, r2
 136 00ba 0C4A     		ldr	r2, .L2+24
 137 00bc D154     		strb	r1, [r2, r3]
  90:.\Generated_Source\PSoC5/CapSense_1_MBX.c ****         
  91:.\Generated_Source\PSoC5/CapSense_1_MBX.c ****         #if (CapSense_1_TOTAL_GENERICS_COUNT)
ARM GAS  C:\Users\LUKASC~1\AppData\Local\Temp\ccEPO9Gu.s 			page 5


  92:.\Generated_Source\PSoC5/CapSense_1_MBX.c ****             /* Exclude generic wiget */
  93:.\Generated_Source\PSoC5/CapSense_1_MBX.c ****             }
  94:.\Generated_Source\PSoC5/CapSense_1_MBX.c ****         #endif  /* CapSense_1_TOTAL_GENERICS_COUNT */
  95:.\Generated_Source\PSoC5/CapSense_1_MBX.c **** 
  96:.\Generated_Source\PSoC5/CapSense_1_MBX.c ****         #if ( CapSense_1_MULTIPLE_PRESCALER_ENABLED )
  97:.\Generated_Source\PSoC5/CapSense_1_MBX.c ****             #if (CapSense_1_DESIGN_TYPE == CapSense_1_TWO_CHANNELS_DESIGN)
  98:.\Generated_Source\PSoC5/CapSense_1_MBX.c ****                 if( sensor > CapSense_1_TOTAL_SENSOR_COUNT__CH0 && \
  99:.\Generated_Source\PSoC5/CapSense_1_MBX.c ****                     sensor < CapSense_1_TOTAL_SENSOR_COUNT__CH1 )
 100:.\Generated_Source\PSoC5/CapSense_1_MBX.c ****                 {
 101:.\Generated_Source\PSoC5/CapSense_1_MBX.c ****                     sensor = sensor - CapSense_1_TOTAL_SENSOR_COUNT__CH0;
 102:.\Generated_Source\PSoC5/CapSense_1_MBX.c ****                 }
 103:.\Generated_Source\PSoC5/CapSense_1_MBX.c ****             #endif /* (CapSense_1_DESIGN_TYPE == CapSense_1_TWO_CHANNELS_DESIGN) */
 104:.\Generated_Source\PSoC5/CapSense_1_MBX.c ****             CapSense_1_analogSwitchDivider[sensor] = inbox->analogSwitchDivider;
 138              		.loc 1 104 0
 139 00be FB7B     		ldrb	r3, [r7, #15]	@ zero_extendqisi2
 140 00c0 7A68     		ldr	r2, [r7, #4]
 141 00c2 927A     		ldrb	r2, [r2, #10]
 142 00c4 D1B2     		uxtb	r1, r2
 143 00c6 0A4A     		ldr	r2, .L2+28
 144 00c8 D154     		strb	r1, [r2, r3]
 105:.\Generated_Source\PSoC5/CapSense_1_MBX.c ****         #else
 106:.\Generated_Source\PSoC5/CapSense_1_MBX.c ****             CapSense_1_analogSwitchDivider = inbox->analogSwitchDivider;
 107:.\Generated_Source\PSoC5/CapSense_1_MBX.c ****         #endif /* ( CapSense_1_MULTIPLE_PRESCALER_ENABLED ) */
 108:.\Generated_Source\PSoC5/CapSense_1_MBX.c **** 
 109:.\Generated_Source\PSoC5/CapSense_1_MBX.c ****         /* Re-Init baselines */
 110:.\Generated_Source\PSoC5/CapSense_1_MBX.c ****         CapSense_1_InitializeAllBaselines();
 145              		.loc 1 110 0
 146 00ca FFF7FEFF 		bl	CapSense_1_InitializeAllBaselines
 111:.\Generated_Source\PSoC5/CapSense_1_MBX.c ****     }
 147              		.loc 1 111 0
 148 00ce 1037     		adds	r7, r7, #16
 149              		.cfi_def_cfa_offset 8
 150 00d0 BD46     		mov	sp, r7
 151              		.cfi_def_cfa_register 13
 152              		@ sp needed
 153 00d2 80BD     		pop	{r7, pc}
 154              	.L3:
 155              		.align	2
 156              	.L2:
 157 00d4 00000000 		.word	CapSense_1_widgetNumber
 158 00d8 00000000 		.word	CapSense_1_idacSettings
 159 00dc 00000000 		.word	CapSense_1_widgetResolution
 160 00e0 00000000 		.word	CapSense_1_fingerThreshold
 161 00e4 00000000 		.word	CapSense_1_noiseThreshold
 162 00e8 00000000 		.word	CapSense_1_hysteresis
 163 00ec 00000000 		.word	CapSense_1_debounce
 164 00f0 00000000 		.word	CapSense_1_analogSwitchDivider
 165              		.cfi_endproc
 166              	.LFE0:
 167              		.size	CapSense_1_InitParams, .-CapSense_1_InitParams
 168              		.section	.text.CapSense_1_InitMailbox,"ax",%progbits
 169              		.align	2
 170              		.global	CapSense_1_InitMailbox
 171              		.thumb
 172              		.thumb_func
 173              		.type	CapSense_1_InitMailbox, %function
 174              	CapSense_1_InitMailbox:
ARM GAS  C:\Users\LUKASC~1\AppData\Local\Temp\ccEPO9Gu.s 			page 6


 175              	.LFB1:
 112:.\Generated_Source\PSoC5/CapSense_1_MBX.c **** #endif  /* (CapSense_1_TUNING_METHOD == CapSense_1_MANUAL_TUNING) */
 113:.\Generated_Source\PSoC5/CapSense_1_MBX.c **** 
 114:.\Generated_Source\PSoC5/CapSense_1_MBX.c **** 
 115:.\Generated_Source\PSoC5/CapSense_1_MBX.c **** /*******************************************************************************
 116:.\Generated_Source\PSoC5/CapSense_1_MBX.c **** * Function Name: CapSense_1_InitMailbox
 117:.\Generated_Source\PSoC5/CapSense_1_MBX.c **** ********************************************************************************
 118:.\Generated_Source\PSoC5/CapSense_1_MBX.c **** *
 119:.\Generated_Source\PSoC5/CapSense_1_MBX.c **** * Summary:
 120:.\Generated_Source\PSoC5/CapSense_1_MBX.c **** *  Initialize parameters  of mailbox structure.
 121:.\Generated_Source\PSoC5/CapSense_1_MBX.c **** *  Sets type and size of mailbox structure. 
 122:.\Generated_Source\PSoC5/CapSense_1_MBX.c **** *  Sets check sum to check by Tuner GUI and noReadMsg flag to indicate that this 
 123:.\Generated_Source\PSoC5/CapSense_1_MBX.c **** *  is the first communication packet.
 124:.\Generated_Source\PSoC5/CapSense_1_MBX.c **** *
 125:.\Generated_Source\PSoC5/CapSense_1_MBX.c **** * Parameters:
 126:.\Generated_Source\PSoC5/CapSense_1_MBX.c **** *  mbx:  Pointer to Mailbox structure in RAM.
 127:.\Generated_Source\PSoC5/CapSense_1_MBX.c **** *
 128:.\Generated_Source\PSoC5/CapSense_1_MBX.c **** * Return:
 129:.\Generated_Source\PSoC5/CapSense_1_MBX.c **** *  None. Modifies the contents of mbx and mbx->outbox.
 130:.\Generated_Source\PSoC5/CapSense_1_MBX.c **** *
 131:.\Generated_Source\PSoC5/CapSense_1_MBX.c **** * Global Variables:
 132:.\Generated_Source\PSoC5/CapSense_1_MBX.c **** *  CapSense_1_MAILBOXES - structure which incorporates two fields: 
 133:.\Generated_Source\PSoC5/CapSense_1_MBX.c **** *    - numMailBoxes (number of mailboxes);
 134:.\Generated_Source\PSoC5/CapSense_1_MBX.c **** *    - CapSense_1_MAILBOX csdMailbox;
 135:.\Generated_Source\PSoC5/CapSense_1_MBX.c **** *  CapSense_1_MAILBOX - structure which incorporates status output and
 136:.\Generated_Source\PSoC5/CapSense_1_MBX.c **** *  input buffer fields and CapSense_1_OUTBOX and CapSense_1_INBOX.
 137:.\Generated_Source\PSoC5/CapSense_1_MBX.c **** *    - type (used as outbox read status of Tuner GUI);
 138:.\Generated_Source\PSoC5/CapSense_1_MBX.c **** *    - size (used as inbox apply status of component);
 139:.\Generated_Source\PSoC5/CapSense_1_MBX.c **** *    - CapSense_1_OUTBOX outbox - structure which is used as ouput 
 140:.\Generated_Source\PSoC5/CapSense_1_MBX.c **** *      buffer for report data to Tuner GUI.
 141:.\Generated_Source\PSoC5/CapSense_1_MBX.c **** *    - CapSense_1_INBOX inbox - structure which is used as input buffer
 142:.\Generated_Source\PSoC5/CapSense_1_MBX.c **** *      for paramters from Tuner GUI. Only used in manual tuning mode.
 143:.\Generated_Source\PSoC5/CapSense_1_MBX.c **** *
 144:.\Generated_Source\PSoC5/CapSense_1_MBX.c **** * Reentrant:
 145:.\Generated_Source\PSoC5/CapSense_1_MBX.c **** *  No
 146:.\Generated_Source\PSoC5/CapSense_1_MBX.c **** *
 147:.\Generated_Source\PSoC5/CapSense_1_MBX.c **** *******************************************************************************/
 148:.\Generated_Source\PSoC5/CapSense_1_MBX.c **** void CapSense_1_InitMailbox(volatile CapSense_1_MAILBOX *mbx)
 149:.\Generated_Source\PSoC5/CapSense_1_MBX.c ****                                   
 150:.\Generated_Source\PSoC5/CapSense_1_MBX.c **** {
 176              		.loc 1 150 0
 177              		.cfi_startproc
 178              		@ args = 0, pretend = 0, frame = 8
 179              		@ frame_needed = 1, uses_anonymous_args = 0
 180              		@ link register save eliminated.
 181 0000 80B4     		push	{r7}
 182              		.cfi_def_cfa_offset 4
 183              		.cfi_offset 7, -4
 184 0002 83B0     		sub	sp, sp, #12
 185              		.cfi_def_cfa_offset 16
 186 0004 00AF     		add	r7, sp, #0
 187              		.cfi_def_cfa_register 7
 188 0006 7860     		str	r0, [r7, #4]
 151:.\Generated_Source\PSoC5/CapSense_1_MBX.c ****     /* Restore TYPE_ID (clear busy flag) to indicate "action complete" */
 152:.\Generated_Source\PSoC5/CapSense_1_MBX.c ****     mbx->type = CapSense_1_TYPE_ID;
 189              		.loc 1 152 0
 190 0008 7B68     		ldr	r3, [r7, #4]
ARM GAS  C:\Users\LUKASC~1\AppData\Local\Temp\ccEPO9Gu.s 			page 7


 191 000a 0422     		movs	r2, #4
 192 000c 1A70     		strb	r2, [r3]
 153:.\Generated_Source\PSoC5/CapSense_1_MBX.c ****     /* Restore default value - clear "have_msg" */
 154:.\Generated_Source\PSoC5/CapSense_1_MBX.c ****     mbx->size = CapSense_1_SWAP_ENDIAN16(sizeof(CapSense_1_MAILBOX));
 193              		.loc 1 154 0
 194 000e 7B68     		ldr	r3, [r7, #4]
 195 0010 5A78     		ldrb	r2, [r3, #1]
 196 0012 0022     		movs	r2, #0
 197 0014 5A70     		strb	r2, [r3, #1]
 198 0016 9A78     		ldrb	r2, [r3, #2]
 199 0018 0022     		movs	r2, #0
 200 001a 62F06502 		orn	r2, r2, #101
 201 001e 9A70     		strb	r2, [r3, #2]
 155:.\Generated_Source\PSoC5/CapSense_1_MBX.c ****     
 156:.\Generated_Source\PSoC5/CapSense_1_MBX.c ****     /* Addtional fields for async and reset handling */
 157:.\Generated_Source\PSoC5/CapSense_1_MBX.c ****     #if(CapSense_1_TUNING_METHOD == CapSense_1_MANUAL_TUNING)
 158:.\Generated_Source\PSoC5/CapSense_1_MBX.c ****         mbx->outbox.noReadMsg = 1u;
 202              		.loc 1 158 0
 203 0020 7B68     		ldr	r3, [r7, #4]
 204 0022 0122     		movs	r2, #1
 205 0024 83F88C20 		strb	r2, [r3, #140]
 159:.\Generated_Source\PSoC5/CapSense_1_MBX.c ****     #endif  /* (CapSense_1_TUNING_METHOD == CapSense_1_MANUAL_TUNING) */
 160:.\Generated_Source\PSoC5/CapSense_1_MBX.c ****     
 161:.\Generated_Source\PSoC5/CapSense_1_MBX.c ****     mbx->outbox.checkSum = CapSense_1_SWAP_ENDIAN16(CapSense_1_CHECK_SUM);
 206              		.loc 1 161 0
 207 0028 7B68     		ldr	r3, [r7, #4]
 208 002a 93F88D20 		ldrb	r2, [r3, #141]
 209 002e 0022     		movs	r2, #0
 210 0030 42F00F02 		orr	r2, r2, #15
 211 0034 83F88D20 		strb	r2, [r3, #141]
 212 0038 93F88E20 		ldrb	r2, [r3, #142]
 213 003c 0022     		movs	r2, #0
 214 003e 62F06502 		orn	r2, r2, #101
 215 0042 83F88E20 		strb	r2, [r3, #142]
 162:.\Generated_Source\PSoC5/CapSense_1_MBX.c **** }
 216              		.loc 1 162 0
 217 0046 0C37     		adds	r7, r7, #12
 218              		.cfi_def_cfa_offset 4
 219 0048 BD46     		mov	sp, r7
 220              		.cfi_def_cfa_register 13
 221              		@ sp needed
 222 004a 5DF8047B 		ldr	r7, [sp], #4
 223              		.cfi_restore 7
 224              		.cfi_def_cfa_offset 0
 225 004e 7047     		bx	lr
 226              		.cfi_endproc
 227              	.LFE1:
 228              		.size	CapSense_1_InitMailbox, .-CapSense_1_InitMailbox
 229              		.section	.text.CapSense_1_PostMessage,"ax",%progbits
 230              		.align	2
 231              		.global	CapSense_1_PostMessage
 232              		.thumb
 233              		.thumb_func
 234              		.type	CapSense_1_PostMessage, %function
 235              	CapSense_1_PostMessage:
 236              	.LFB2:
 163:.\Generated_Source\PSoC5/CapSense_1_MBX.c **** 
ARM GAS  C:\Users\LUKASC~1\AppData\Local\Temp\ccEPO9Gu.s 			page 8


 164:.\Generated_Source\PSoC5/CapSense_1_MBX.c **** 
 165:.\Generated_Source\PSoC5/CapSense_1_MBX.c **** /*******************************************************************************
 166:.\Generated_Source\PSoC5/CapSense_1_MBX.c **** * Function Name:  CapSense_1_PostMessage
 167:.\Generated_Source\PSoC5/CapSense_1_MBX.c **** ********************************************************************************
 168:.\Generated_Source\PSoC5/CapSense_1_MBX.c **** *
 169:.\Generated_Source\PSoC5/CapSense_1_MBX.c **** * Summary:
 170:.\Generated_Source\PSoC5/CapSense_1_MBX.c **** *  This blocking function waits while Tuner GUI reports that content of mailbox 
 171:.\Generated_Source\PSoC5/CapSense_1_MBX.c **** *  could be modified (clears CapSense_1_BUSY_FLAG). Then loads the report 
 172:.\Generated_Source\PSoC5/CapSense_1_MBX.c **** *  data to outbox and sets the busy flag.
 173:.\Generated_Source\PSoC5/CapSense_1_MBX.c **** *  In manual tuning mode the report data:
 174:.\Generated_Source\PSoC5/CapSense_1_MBX.c **** *    - raw data, baseline, signal;
 175:.\Generated_Source\PSoC5/CapSense_1_MBX.c **** *  In auto tuning mode to report added data:
 176:.\Generated_Source\PSoC5/CapSense_1_MBX.c **** *    - fingerThreshold;
 177:.\Generated_Source\PSoC5/CapSense_1_MBX.c **** *    - noiseThreshold;
 178:.\Generated_Source\PSoC5/CapSense_1_MBX.c **** *    - scanResolution;
 179:.\Generated_Source\PSoC5/CapSense_1_MBX.c **** *    - idacValue;
 180:.\Generated_Source\PSoC5/CapSense_1_MBX.c **** *    - prescaler.
 181:.\Generated_Source\PSoC5/CapSense_1_MBX.c **** *
 182:.\Generated_Source\PSoC5/CapSense_1_MBX.c **** * Parameters:
 183:.\Generated_Source\PSoC5/CapSense_1_MBX.c **** *  mbx:  Pointer to Mailbox structure in RAM.
 184:.\Generated_Source\PSoC5/CapSense_1_MBX.c **** *
 185:.\Generated_Source\PSoC5/CapSense_1_MBX.c **** * Return:
 186:.\Generated_Source\PSoC5/CapSense_1_MBX.c **** *  None. Modifies the contents of mbx->outbox.
 187:.\Generated_Source\PSoC5/CapSense_1_MBX.c **** *
 188:.\Generated_Source\PSoC5/CapSense_1_MBX.c **** * Global Variables:
 189:.\Generated_Source\PSoC5/CapSense_1_MBX.c **** *  CapSense_1_MAILBOXES - structure which incorporates two fields: 
 190:.\Generated_Source\PSoC5/CapSense_1_MBX.c **** *    - numMailBoxes (number of mailboxes);
 191:.\Generated_Source\PSoC5/CapSense_1_MBX.c **** *    - CapSense_1_MAILBOX csdMailbox;
 192:.\Generated_Source\PSoC5/CapSense_1_MBX.c **** *  CapSense_1_MAILBOX - structure which incorporates status output and
 193:.\Generated_Source\PSoC5/CapSense_1_MBX.c **** *  input buffer fields and CapSense_1_OUTBOX and CapSense_1_INBOX.
 194:.\Generated_Source\PSoC5/CapSense_1_MBX.c **** *    - type (used as outbox read status of Tuner GUI);
 195:.\Generated_Source\PSoC5/CapSense_1_MBX.c **** *    - size (used as inbox apply status of component);
 196:.\Generated_Source\PSoC5/CapSense_1_MBX.c **** *    - CapSense_1_OUTBOX outbox - structure which is used as ouput 
 197:.\Generated_Source\PSoC5/CapSense_1_MBX.c **** *      buffer for report data to Tuner GUI.
 198:.\Generated_Source\PSoC5/CapSense_1_MBX.c **** *    - CapSense_1_INBOX inbox - structure which is used as input buffer
 199:.\Generated_Source\PSoC5/CapSense_1_MBX.c **** *      for parameters from Tuner GUI. Only used in manual tuning mode.
 200:.\Generated_Source\PSoC5/CapSense_1_MBX.c **** *  CapSense_1_lowLevelTuningDone - used to notify the Tuner GUI that 
 201:.\Generated_Source\PSoC5/CapSense_1_MBX.c **** *  tuning of scanning parameters are done. The scanning parameters in mailbox
 202:.\Generated_Source\PSoC5/CapSense_1_MBX.c **** *  will not be updated after clear it.
 203:.\Generated_Source\PSoC5/CapSense_1_MBX.c **** *
 204:.\Generated_Source\PSoC5/CapSense_1_MBX.c **** * Reentrant:
 205:.\Generated_Source\PSoC5/CapSense_1_MBX.c **** *  No
 206:.\Generated_Source\PSoC5/CapSense_1_MBX.c **** *
 207:.\Generated_Source\PSoC5/CapSense_1_MBX.c **** *******************************************************************************/
 208:.\Generated_Source\PSoC5/CapSense_1_MBX.c **** void CapSense_1_PostMessage(volatile CapSense_1_MAILBOX *mbx)
 209:.\Generated_Source\PSoC5/CapSense_1_MBX.c ****                                   
 210:.\Generated_Source\PSoC5/CapSense_1_MBX.c **** {
 237              		.loc 1 210 0
 238              		.cfi_startproc
 239              		@ args = 0, pretend = 0, frame = 16
 240              		@ frame_needed = 1, uses_anonymous_args = 0
 241              		@ link register save eliminated.
 242 0000 80B4     		push	{r7}
 243              		.cfi_def_cfa_offset 4
 244              		.cfi_offset 7, -4
 245 0002 85B0     		sub	sp, sp, #20
 246              		.cfi_def_cfa_offset 24
ARM GAS  C:\Users\LUKASC~1\AppData\Local\Temp\ccEPO9Gu.s 			page 9


 247 0004 00AF     		add	r7, sp, #0
 248              		.cfi_def_cfa_register 7
 249 0006 7860     		str	r0, [r7, #4]
 211:.\Generated_Source\PSoC5/CapSense_1_MBX.c ****     uint8 i;
 212:.\Generated_Source\PSoC5/CapSense_1_MBX.c **** 
 213:.\Generated_Source\PSoC5/CapSense_1_MBX.c ****     /* Check busy flag */
 214:.\Generated_Source\PSoC5/CapSense_1_MBX.c ****     while (mbx->type != CapSense_1_TYPE_ID)
 250              		.loc 1 214 0
 251 0008 00BF     		nop
 252              	.L6:
 253              		.loc 1 214 0 is_stmt 0 discriminator 1
 254 000a 7B68     		ldr	r3, [r7, #4]
 255 000c 1B78     		ldrb	r3, [r3]
 256 000e DBB2     		uxtb	r3, r3
 257 0010 042B     		cmp	r3, #4
 258 0012 FAD1     		bne	.L6
 215:.\Generated_Source\PSoC5/CapSense_1_MBX.c ****     {
 216:.\Generated_Source\PSoC5/CapSense_1_MBX.c ****         /* Wait while busy flag is set */
 217:.\Generated_Source\PSoC5/CapSense_1_MBX.c ****     }
 218:.\Generated_Source\PSoC5/CapSense_1_MBX.c ****     
 219:.\Generated_Source\PSoC5/CapSense_1_MBX.c ****     /* Copy all data - Raw, Base, Signal, OnMask */
 220:.\Generated_Source\PSoC5/CapSense_1_MBX.c ****     for(i = 0u; i < CapSense_1_TOTAL_SENSOR_COUNT; i++)
 259              		.loc 1 220 0 is_stmt 1
 260 0014 0023     		movs	r3, #0
 261 0016 FB73     		strb	r3, [r7, #15]
 262 0018 4CE0     		b	.L7
 263              	.L8:
 221:.\Generated_Source\PSoC5/CapSense_1_MBX.c ****     {
 222:.\Generated_Source\PSoC5/CapSense_1_MBX.c ****         mbx->outbox.rawData[i]  = CapSense_1_SWAP_ENDIAN16(CapSense_1_sensorRaw[i]);
 264              		.loc 1 222 0 discriminator 3
 265 001a FB7B     		ldrb	r3, [r7, #15]	@ zero_extendqisi2
 266 001c FA7B     		ldrb	r2, [r7, #15]	@ zero_extendqisi2
 267 001e 2B49     		ldr	r1, .L9
 268 0020 31F81220 		ldrh	r2, [r1, r2, lsl #1]
 269 0024 1202     		lsls	r2, r2, #8
 270 0026 90B2     		uxth	r0, r2
 271 0028 FA7B     		ldrb	r2, [r7, #15]	@ zero_extendqisi2
 272 002a 2849     		ldr	r1, .L9
 273 002c 31F81220 		ldrh	r2, [r1, r2, lsl #1]
 274 0030 120A     		lsrs	r2, r2, #8
 275 0032 92B2     		uxth	r2, r2
 276 0034 92B2     		uxth	r2, r2
 277 0036 0146     		mov	r1, r0	@ movhi
 278 0038 0A43     		orrs	r2, r2, r1
 279 003a 92B2     		uxth	r2, r2
 280 003c 91B2     		uxth	r1, r2
 281 003e 7A68     		ldr	r2, [r7, #4]
 282 0040 5B00     		lsls	r3, r3, #1
 283 0042 1344     		add	r3, r3, r2
 284 0044 0A46     		mov	r2, r1	@ movhi
 285 0046 A3F80520 		strh	r2, [r3, #5]	@ unaligned
 223:.\Generated_Source\PSoC5/CapSense_1_MBX.c ****         mbx->outbox.baseLine[i] = CapSense_1_SWAP_ENDIAN16(CapSense_1_sensorBaseline[i]);
 286              		.loc 1 223 0 discriminator 3
 287 004a FB7B     		ldrb	r3, [r7, #15]	@ zero_extendqisi2
 288 004c FA7B     		ldrb	r2, [r7, #15]	@ zero_extendqisi2
 289 004e 2049     		ldr	r1, .L9+4
 290 0050 31F81220 		ldrh	r2, [r1, r2, lsl #1]
ARM GAS  C:\Users\LUKASC~1\AppData\Local\Temp\ccEPO9Gu.s 			page 10


 291 0054 1202     		lsls	r2, r2, #8
 292 0056 90B2     		uxth	r0, r2
 293 0058 FA7B     		ldrb	r2, [r7, #15]	@ zero_extendqisi2
 294 005a 1D49     		ldr	r1, .L9+4
 295 005c 31F81220 		ldrh	r2, [r1, r2, lsl #1]
 296 0060 120A     		lsrs	r2, r2, #8
 297 0062 92B2     		uxth	r2, r2
 298 0064 92B2     		uxth	r2, r2
 299 0066 0146     		mov	r1, r0	@ movhi
 300 0068 0A43     		orrs	r2, r2, r1
 301 006a 92B2     		uxth	r2, r2
 302 006c 91B2     		uxth	r1, r2
 303 006e 7A68     		ldr	r2, [r7, #4]
 304 0070 1433     		adds	r3, r3, #20
 305 0072 5B00     		lsls	r3, r3, #1
 306 0074 1344     		add	r3, r3, r2
 307 0076 0A46     		mov	r2, r1	@ movhi
 308 0078 A3F80920 		strh	r2, [r3, #9]	@ unaligned
 224:.\Generated_Source\PSoC5/CapSense_1_MBX.c ****         #if (CapSense_1_SIGNAL_SIZE == CapSense_1_SIGNAL_SIZE_UINT8)
 225:.\Generated_Source\PSoC5/CapSense_1_MBX.c ****             mbx->outbox.signal[i]   = CapSense_1_sensorSignal[i];
 226:.\Generated_Source\PSoC5/CapSense_1_MBX.c ****         #else
 227:.\Generated_Source\PSoC5/CapSense_1_MBX.c ****             mbx->outbox.signal[i]   = CapSense_1_SWAP_ENDIAN16(CapSense_1_sensorSignal[i]);
 309              		.loc 1 227 0 discriminator 3
 310 007c FB7B     		ldrb	r3, [r7, #15]	@ zero_extendqisi2
 311 007e FA7B     		ldrb	r2, [r7, #15]	@ zero_extendqisi2
 312 0080 1449     		ldr	r1, .L9+8
 313 0082 31F81220 		ldrh	r2, [r1, r2, lsl #1]
 314 0086 1202     		lsls	r2, r2, #8
 315 0088 90B2     		uxth	r0, r2
 316 008a FA7B     		ldrb	r2, [r7, #15]	@ zero_extendqisi2
 317 008c 1149     		ldr	r1, .L9+8
 318 008e 31F81220 		ldrh	r2, [r1, r2, lsl #1]
 319 0092 120A     		lsrs	r2, r2, #8
 320 0094 92B2     		uxth	r2, r2
 321 0096 92B2     		uxth	r2, r2
 322 0098 0146     		mov	r1, r0	@ movhi
 323 009a 0A43     		orrs	r2, r2, r1
 324 009c 92B2     		uxth	r2, r2
 325 009e 91B2     		uxth	r1, r2
 326 00a0 7A68     		ldr	r2, [r7, #4]
 327 00a2 2C33     		adds	r3, r3, #44
 328 00a4 5B00     		lsls	r3, r3, #1
 329 00a6 1344     		add	r3, r3, r2
 330 00a8 0A46     		mov	r2, r1	@ movhi
 331 00aa A3F80520 		strh	r2, [r3, #5]	@ unaligned
 220:.\Generated_Source\PSoC5/CapSense_1_MBX.c ****     {
 332              		.loc 1 220 0 discriminator 3
 333 00ae FB7B     		ldrb	r3, [r7, #15]	@ zero_extendqisi2
 334 00b0 0133     		adds	r3, r3, #1
 335 00b2 FB73     		strb	r3, [r7, #15]
 336              	.L7:
 220:.\Generated_Source\PSoC5/CapSense_1_MBX.c ****     {
 337              		.loc 1 220 0 is_stmt 0 discriminator 1
 338 00b4 FB7B     		ldrb	r3, [r7, #15]	@ zero_extendqisi2
 339 00b6 152B     		cmp	r3, #21
 340 00b8 AFD9     		bls	.L8
 228:.\Generated_Source\PSoC5/CapSense_1_MBX.c ****         #endif  /* (CapSense_1_SIGNAL_SIZE == CapSense_1_SIGNAL_SIZE_UINT8) */
ARM GAS  C:\Users\LUKASC~1\AppData\Local\Temp\ccEPO9Gu.s 			page 11


 229:.\Generated_Source\PSoC5/CapSense_1_MBX.c ****     }
 230:.\Generated_Source\PSoC5/CapSense_1_MBX.c ****         
 231:.\Generated_Source\PSoC5/CapSense_1_MBX.c ****     /* AutoTuning - need to copy all High Level parameters */
 232:.\Generated_Source\PSoC5/CapSense_1_MBX.c ****     #if (CapSense_1_TUNING_METHOD == CapSense_1_AUTO_TUNING)
 233:.\Generated_Source\PSoC5/CapSense_1_MBX.c ****         
 234:.\Generated_Source\PSoC5/CapSense_1_MBX.c ****         /* Parameters are changed in run time */
 235:.\Generated_Source\PSoC5/CapSense_1_MBX.c ****         for(i = 0u; i < CapSense_1_WIDGET_CSHL_PARAMETERS_COUNT; i++)
 236:.\Generated_Source\PSoC5/CapSense_1_MBX.c ****         {
 237:.\Generated_Source\PSoC5/CapSense_1_MBX.c ****             #if (CapSense_1_SIGNAL_SIZE == CapSense_1_SIGNAL_SIZE_UINT8)
 238:.\Generated_Source\PSoC5/CapSense_1_MBX.c ****                 mbx->outbox.fingerThreshold[i] = CapSense_1_fingerThreshold[i];
 239:.\Generated_Source\PSoC5/CapSense_1_MBX.c ****                 mbx->outbox.noiseThreshold[i]  = CapSense_1_noiseThreshold[i];
 240:.\Generated_Source\PSoC5/CapSense_1_MBX.c ****             #else
 241:.\Generated_Source\PSoC5/CapSense_1_MBX.c ****                 mbx->outbox.fingerThreshold[i] = $INSTANCE_NAME`_SWAP_ENDIAN16(CapSense_1_fingerThr
 242:.\Generated_Source\PSoC5/CapSense_1_MBX.c ****                 mbx->outbox.noiseThreshold[i]  = $INSTANCE_NAME`_SWAP_ENDIAN16(CapSense_1_noiseThre
 243:.\Generated_Source\PSoC5/CapSense_1_MBX.c ****             #endif /* (CapSense_1_SIGNAL_SIZE == CapSense_1_SIGNAL_SIZE_UINT8) */
 244:.\Generated_Source\PSoC5/CapSense_1_MBX.c ****         }
 245:.\Generated_Source\PSoC5/CapSense_1_MBX.c ****         
 246:.\Generated_Source\PSoC5/CapSense_1_MBX.c ****         /* Widget resolution, take to account TP and MB */
 247:.\Generated_Source\PSoC5/CapSense_1_MBX.c ****         for(i=0u; i < CapSense_1_WIDGET_RESOLUTION_PARAMETERS_COUNT; i++)
 248:.\Generated_Source\PSoC5/CapSense_1_MBX.c ****         {
 249:.\Generated_Source\PSoC5/CapSense_1_MBX.c ****             mbx->outbox.scanResolution[i]  = CapSense_1_widgetResolution[i];
 250:.\Generated_Source\PSoC5/CapSense_1_MBX.c ****         }
 251:.\Generated_Source\PSoC5/CapSense_1_MBX.c **** 
 252:.\Generated_Source\PSoC5/CapSense_1_MBX.c ****         /* Copy tuned idac values */
 253:.\Generated_Source\PSoC5/CapSense_1_MBX.c ****         for(i=0u; i < CapSense_1_TOTAL_SENSOR_COUNT; i++)
 254:.\Generated_Source\PSoC5/CapSense_1_MBX.c ****         {
 255:.\Generated_Source\PSoC5/CapSense_1_MBX.c ****             mbx->outbox.idacValue[i] = CapSense_1_idacSettings[i];
 256:.\Generated_Source\PSoC5/CapSense_1_MBX.c ****         }
 257:.\Generated_Source\PSoC5/CapSense_1_MBX.c ****             
 258:.\Generated_Source\PSoC5/CapSense_1_MBX.c ****         /* Pass parameters only once */
 259:.\Generated_Source\PSoC5/CapSense_1_MBX.c ****         CapSense_1_lowLevelTuningDone = 0u;
 260:.\Generated_Source\PSoC5/CapSense_1_MBX.c ****     #endif  /* (CapSense_1_TUNING_METHOD == CapSense_1_MANUAL_TUNING) */
 261:.\Generated_Source\PSoC5/CapSense_1_MBX.c **** 
 262:.\Generated_Source\PSoC5/CapSense_1_MBX.c ****     /* Copy scan parameters */
 263:.\Generated_Source\PSoC5/CapSense_1_MBX.c ****     #if ( CapSense_1_TUNING_METHOD == CapSense_1_AUTO_TUNING )
 264:.\Generated_Source\PSoC5/CapSense_1_MBX.c ****         for(i = 0u; i < CapSense_1_TOTAL_SCANSLOT_COUNT; i++)
 265:.\Generated_Source\PSoC5/CapSense_1_MBX.c ****         {
 266:.\Generated_Source\PSoC5/CapSense_1_MBX.c ****             mbx->outbox.analogSwitchDivider[i] = CapSense_1_analogSwitchDivider[i];
 267:.\Generated_Source\PSoC5/CapSense_1_MBX.c ****         }
 268:.\Generated_Source\PSoC5/CapSense_1_MBX.c ****     #endif /* (CapSense_1_TUNING_METHOD == CapSense_1_AUTO_TUNING) */
 269:.\Generated_Source\PSoC5/CapSense_1_MBX.c **** 
 270:.\Generated_Source\PSoC5/CapSense_1_MBX.c ****     /* Set busy flag */
 271:.\Generated_Source\PSoC5/CapSense_1_MBX.c ****     mbx->type = CapSense_1_BUSY_FLAG;
 341              		.loc 1 271 0 is_stmt 1
 342 00ba 7B68     		ldr	r3, [r7, #4]
 343 00bc 8422     		movs	r2, #132
 344 00be 1A70     		strb	r2, [r3]
 272:.\Generated_Source\PSoC5/CapSense_1_MBX.c **** }
 345              		.loc 1 272 0
 346 00c0 1437     		adds	r7, r7, #20
 347              		.cfi_def_cfa_offset 4
 348 00c2 BD46     		mov	sp, r7
 349              		.cfi_def_cfa_register 13
 350              		@ sp needed
 351 00c4 5DF8047B 		ldr	r7, [sp], #4
 352              		.cfi_restore 7
 353              		.cfi_def_cfa_offset 0
ARM GAS  C:\Users\LUKASC~1\AppData\Local\Temp\ccEPO9Gu.s 			page 12


 354 00c8 7047     		bx	lr
 355              	.L10:
 356 00ca 00BF     		.align	2
 357              	.L9:
 358 00cc 00000000 		.word	CapSense_1_sensorRaw
 359 00d0 00000000 		.word	CapSense_1_sensorBaseline
 360 00d4 00000000 		.word	CapSense_1_sensorSignal
 361              		.cfi_endproc
 362              	.LFE2:
 363              		.size	CapSense_1_PostMessage, .-CapSense_1_PostMessage
 364              		.section	.text.CapSense_1_ReadMessage,"ax",%progbits
 365              		.align	2
 366              		.global	CapSense_1_ReadMessage
 367              		.thumb
 368              		.thumb_func
 369              		.type	CapSense_1_ReadMessage, %function
 370              	CapSense_1_ReadMessage:
 371              	.LFB3:
 273:.\Generated_Source\PSoC5/CapSense_1_MBX.c **** 
 274:.\Generated_Source\PSoC5/CapSense_1_MBX.c **** 
 275:.\Generated_Source\PSoC5/CapSense_1_MBX.c **** #if (CapSense_1_TUNING_METHOD == CapSense_1_MANUAL_TUNING)
 276:.\Generated_Source\PSoC5/CapSense_1_MBX.c ****     /*******************************************************************************
 277:.\Generated_Source\PSoC5/CapSense_1_MBX.c ****     * Function Name: CapSense_1_ReadMessage
 278:.\Generated_Source\PSoC5/CapSense_1_MBX.c ****     ********************************************************************************
 279:.\Generated_Source\PSoC5/CapSense_1_MBX.c ****     *
 280:.\Generated_Source\PSoC5/CapSense_1_MBX.c ****     * Summary:
 281:.\Generated_Source\PSoC5/CapSense_1_MBX.c ****     *  If CapSense_1_HAVE_MSG is found in the mailbox, initialize component 
 282:.\Generated_Source\PSoC5/CapSense_1_MBX.c ****     *  with parameters found in the inbox. Signal DONE by overwriting the
 283:.\Generated_Source\PSoC5/CapSense_1_MBX.c ****     *  value in size field in mailbox.
 284:.\Generated_Source\PSoC5/CapSense_1_MBX.c ****     *  Only available when manual tuning mode.
 285:.\Generated_Source\PSoC5/CapSense_1_MBX.c ****     *
 286:.\Generated_Source\PSoC5/CapSense_1_MBX.c ****     * Parameters:
 287:.\Generated_Source\PSoC5/CapSense_1_MBX.c ****     *  mbx:  Pointer to Mailbox structure in RAM.
 288:.\Generated_Source\PSoC5/CapSense_1_MBX.c ****     *
 289:.\Generated_Source\PSoC5/CapSense_1_MBX.c ****     * Return:
 290:.\Generated_Source\PSoC5/CapSense_1_MBX.c ****     *  None. Modifies the contents of mbx.
 291:.\Generated_Source\PSoC5/CapSense_1_MBX.c ****     *
 292:.\Generated_Source\PSoC5/CapSense_1_MBX.c ****     * Side Effects: 
 293:.\Generated_Source\PSoC5/CapSense_1_MBX.c ****     *  Initializes component parameters if CapSense_1_HAVE_MSG is received.
 294:.\Generated_Source\PSoC5/CapSense_1_MBX.c ****     *
 295:.\Generated_Source\PSoC5/CapSense_1_MBX.c ****     * Global Variables:
 296:.\Generated_Source\PSoC5/CapSense_1_MBX.c ****     *  CapSense_1_MAILBOXES - structure which incorporates two fields: 
 297:.\Generated_Source\PSoC5/CapSense_1_MBX.c ****     *    - numMailBoxes (number of mailboxes);
 298:.\Generated_Source\PSoC5/CapSense_1_MBX.c ****     *    - CapSense_1_MAILBOX csdMailbox;
 299:.\Generated_Source\PSoC5/CapSense_1_MBX.c ****     *  CapSense_1_MAILBOX - structure which incorporates status output and
 300:.\Generated_Source\PSoC5/CapSense_1_MBX.c ****     *  input buffer fields and CapSense_1_OUTBOX and CapSense_1_INBOX.
 301:.\Generated_Source\PSoC5/CapSense_1_MBX.c ****     *    - type (used as outbox read status of Tuner GUI);
 302:.\Generated_Source\PSoC5/CapSense_1_MBX.c ****     *    - size (used as inbox apply status of component);
 303:.\Generated_Source\PSoC5/CapSense_1_MBX.c ****     *    - CapSense_1_OUTBOX outbox - structure which is used as ouput 
 304:.\Generated_Source\PSoC5/CapSense_1_MBX.c ****     *      buffer for report data to Tuner GUI.
 305:.\Generated_Source\PSoC5/CapSense_1_MBX.c ****     *    - CapSense_1_INBOX inbox - structure which is used as input buffer
 306:.\Generated_Source\PSoC5/CapSense_1_MBX.c ****     *      for parameters from Tuner GUI. Only used in manual tuning mode.
 307:.\Generated_Source\PSoC5/CapSense_1_MBX.c ****     *
 308:.\Generated_Source\PSoC5/CapSense_1_MBX.c ****     * Reentrant:
 309:.\Generated_Source\PSoC5/CapSense_1_MBX.c ****     *  No
 310:.\Generated_Source\PSoC5/CapSense_1_MBX.c ****     *
 311:.\Generated_Source\PSoC5/CapSense_1_MBX.c ****     *******************************************************************************/
ARM GAS  C:\Users\LUKASC~1\AppData\Local\Temp\ccEPO9Gu.s 			page 13


 312:.\Generated_Source\PSoC5/CapSense_1_MBX.c ****     void CapSense_1_ReadMessage(volatile CapSense_1_MAILBOX *mbx)
 313:.\Generated_Source\PSoC5/CapSense_1_MBX.c **** 	                                  
 314:.\Generated_Source\PSoC5/CapSense_1_MBX.c ****     {
 372              		.loc 1 314 0
 373              		.cfi_startproc
 374              		@ args = 0, pretend = 0, frame = 16
 375              		@ frame_needed = 1, uses_anonymous_args = 0
 376 0000 80B5     		push	{r7, lr}
 377              		.cfi_def_cfa_offset 8
 378              		.cfi_offset 7, -8
 379              		.cfi_offset 14, -4
 380 0002 84B0     		sub	sp, sp, #16
 381              		.cfi_def_cfa_offset 24
 382 0004 00AF     		add	r7, sp, #0
 383              		.cfi_def_cfa_register 7
 384 0006 7860     		str	r0, [r7, #4]
 315:.\Generated_Source\PSoC5/CapSense_1_MBX.c ****         volatile CapSense_1_INBOX *tmpInbox;
 316:.\Generated_Source\PSoC5/CapSense_1_MBX.c ****         uint16 tmpValue;
 317:.\Generated_Source\PSoC5/CapSense_1_MBX.c ****         
 318:.\Generated_Source\PSoC5/CapSense_1_MBX.c ****         tmpValue = mbx->size;
 385              		.loc 1 318 0
 386 0008 7B68     		ldr	r3, [r7, #4]
 387 000a 5A78     		ldrb	r2, [r3, #1]
 388 000c D2B2     		uxtb	r2, r2
 389 000e 9B78     		ldrb	r3, [r3, #2]
 390 0010 DBB2     		uxtb	r3, r3
 391 0012 1B02     		lsls	r3, r3, #8
 392 0014 1343     		orrs	r3, r3, r2
 393 0016 FB81     		strh	r3, [r7, #14]	@ movhi
 319:.\Generated_Source\PSoC5/CapSense_1_MBX.c ****        
 320:.\Generated_Source\PSoC5/CapSense_1_MBX.c ****         /* Do we have a message waiting? */
 321:.\Generated_Source\PSoC5/CapSense_1_MBX.c ****         if (CapSense_1_SWAP_ENDIAN16(tmpValue) == CapSense_1_HAVE_MSG)
 394              		.loc 1 321 0
 395 0018 FB89     		ldrh	r3, [r7, #14]
 396 001a 1B02     		lsls	r3, r3, #8
 397 001c 9AB2     		uxth	r2, r3
 398 001e FB89     		ldrh	r3, [r7, #14]
 399 0020 1B0A     		lsrs	r3, r3, #8
 400 0022 9BB2     		uxth	r3, r3
 401 0024 9BB2     		uxth	r3, r3
 402 0026 1343     		orrs	r3, r3, r2
 403 0028 9BB2     		uxth	r3, r3
 404 002a 1BB2     		sxth	r3, r3
 405 002c 0C4A     		ldr	r2, .L13
 406 002e 9342     		cmp	r3, r2
 407 0030 12D1     		bne	.L11
 322:.\Generated_Source\PSoC5/CapSense_1_MBX.c ****         {
 323:.\Generated_Source\PSoC5/CapSense_1_MBX.c ****             tmpInbox = &(mbx->inbox);
 408              		.loc 1 323 0
 409 0032 7B68     		ldr	r3, [r7, #4]
 410 0034 8F33     		adds	r3, r3, #143
 411 0036 BB60     		str	r3, [r7, #8]
 324:.\Generated_Source\PSoC5/CapSense_1_MBX.c ****             
 325:.\Generated_Source\PSoC5/CapSense_1_MBX.c ****             CapSense_1_InitParams(tmpInbox);
 412              		.loc 1 325 0
 413 0038 B868     		ldr	r0, [r7, #8]
 414 003a FFF7FEFF 		bl	CapSense_1_InitParams
ARM GAS  C:\Users\LUKASC~1\AppData\Local\Temp\ccEPO9Gu.s 			page 14


 326:.\Generated_Source\PSoC5/CapSense_1_MBX.c ****     
 327:.\Generated_Source\PSoC5/CapSense_1_MBX.c ****             /* Notify host/tuner that we have consumed the message */
 328:.\Generated_Source\PSoC5/CapSense_1_MBX.c ****             mbx->size = CapSense_1_SWAP_ENDIAN16(sizeof(CapSense_1_MAILBOX));
 415              		.loc 1 328 0
 416 003e 7B68     		ldr	r3, [r7, #4]
 417 0040 5A78     		ldrb	r2, [r3, #1]
 418 0042 0022     		movs	r2, #0
 419 0044 5A70     		strb	r2, [r3, #1]
 420 0046 9A78     		ldrb	r2, [r3, #2]
 421 0048 0022     		movs	r2, #0
 422 004a 62F06502 		orn	r2, r2, #101
 423 004e 9A70     		strb	r2, [r3, #2]
 329:.\Generated_Source\PSoC5/CapSense_1_MBX.c ****             
 330:.\Generated_Source\PSoC5/CapSense_1_MBX.c ****             /* Defualt settings where changed */
 331:.\Generated_Source\PSoC5/CapSense_1_MBX.c ****             mbx->outbox.noReadMsg = 0u;
 424              		.loc 1 331 0
 425 0050 7B68     		ldr	r3, [r7, #4]
 426 0052 0022     		movs	r2, #0
 427 0054 83F88C20 		strb	r2, [r3, #140]
 428              	.L11:
 332:.\Generated_Source\PSoC5/CapSense_1_MBX.c ****         }       
 333:.\Generated_Source\PSoC5/CapSense_1_MBX.c ****     }
 429              		.loc 1 333 0
 430 0058 1037     		adds	r7, r7, #16
 431              		.cfi_def_cfa_offset 8
 432 005a BD46     		mov	sp, r7
 433              		.cfi_def_cfa_register 13
 434              		@ sp needed
 435 005c 80BD     		pop	{r7, pc}
 436              	.L14:
 437 005e 00BF     		.align	2
 438              	.L13:
 439 0060 9A80FFFF 		.word	-32614
 440              		.cfi_endproc
 441              	.LFE3:
 442              		.size	CapSense_1_ReadMessage, .-CapSense_1_ReadMessage
 443              		.text
 444              	.Letext0:
 445              		.file 2 ".\\Generated_Source\\PSoC5\\cytypes.h"
 446              		.file 3 ".\\Generated_Source\\PSoC5\\CapSense_1_MBX.h"
 447              		.file 4 ".\\Generated_Source\\PSoC5\\CapSense_1.h"
 448              		.file 5 ".\\Generated_Source\\PSoC5\\CapSense_1_CSHL.h"