ARM GAS  C:\Users\LUKASC~1\AppData\Local\Temp\ccGHGc1C.s 			page 1


   1              		.syntax unified
   2              		.cpu cortex-m3
   3              		.fpu softvfp
   4              		.eabi_attribute 20, 1
   5              		.eabi_attribute 21, 1
   6              		.eabi_attribute 23, 3
   7              		.eabi_attribute 24, 1
   8              		.eabi_attribute 25, 1
   9              		.eabi_attribute 26, 1
  10              		.eabi_attribute 30, 6
  11              		.eabi_attribute 34, 1
  12              		.eabi_attribute 18, 4
  13              		.thumb
  14              		.file	"CapSense_1_TunerHelper.c"
  15              		.text
  16              	.Ltext0:
  17              		.cfi_sections	.debug_frame
  18              		.section	.text.CapSense_1_TunerStart,"ax",%progbits
  19              		.align	2
  20              		.global	CapSense_1_TunerStart
  21              		.thumb
  22              		.thumb_func
  23              		.type	CapSense_1_TunerStart, %function
  24              	CapSense_1_TunerStart:
  25              	.LFB0:
  26              		.file 1 ".\\Generated_Source\\PSoC5\\CapSense_1_TunerHelper.c"
   1:.\Generated_Source\PSoC5/CapSense_1_TunerHelper.c **** /*******************************************************************************
   2:.\Generated_Source\PSoC5/CapSense_1_TunerHelper.c **** * File Name: CapSense_1_TunerHelper.c
   3:.\Generated_Source\PSoC5/CapSense_1_TunerHelper.c **** * Version 3.40
   4:.\Generated_Source\PSoC5/CapSense_1_TunerHelper.c **** *
   5:.\Generated_Source\PSoC5/CapSense_1_TunerHelper.c **** * Description:
   6:.\Generated_Source\PSoC5/CapSense_1_TunerHelper.c **** *  This file provides the source code of Tuner helper APIs for the CapSense CSD 
   7:.\Generated_Source\PSoC5/CapSense_1_TunerHelper.c **** *  component.
   8:.\Generated_Source\PSoC5/CapSense_1_TunerHelper.c **** *
   9:.\Generated_Source\PSoC5/CapSense_1_TunerHelper.c **** * Note:
  10:.\Generated_Source\PSoC5/CapSense_1_TunerHelper.c **** *
  11:.\Generated_Source\PSoC5/CapSense_1_TunerHelper.c **** ********************************************************************************
  12:.\Generated_Source\PSoC5/CapSense_1_TunerHelper.c **** * Copyright 2008-2013, Cypress Semiconductor Corporation.  All rights reserved.
  13:.\Generated_Source\PSoC5/CapSense_1_TunerHelper.c **** * You may use this file only in accordance with the license, terms, conditions,
  14:.\Generated_Source\PSoC5/CapSense_1_TunerHelper.c **** * disclaimers, and limitations in the end user license agreement accompanying
  15:.\Generated_Source\PSoC5/CapSense_1_TunerHelper.c **** * the software package with which this file was provided.
  16:.\Generated_Source\PSoC5/CapSense_1_TunerHelper.c **** *******************************************************************************/
  17:.\Generated_Source\PSoC5/CapSense_1_TunerHelper.c **** 
  18:.\Generated_Source\PSoC5/CapSense_1_TunerHelper.c **** #include "CapSense_1_TunerHelper.h"
  19:.\Generated_Source\PSoC5/CapSense_1_TunerHelper.c **** 
  20:.\Generated_Source\PSoC5/CapSense_1_TunerHelper.c **** #if (CapSense_1_TUNER_API_GENERATE)
  21:.\Generated_Source\PSoC5/CapSense_1_TunerHelper.c ****     volatile CapSense_1_MAILBOXES CapSense_1_mailboxesComm;
  22:.\Generated_Source\PSoC5/CapSense_1_TunerHelper.c **** #endif  /* (CapSense_1_TUNER_API_GENERATE) */
  23:.\Generated_Source\PSoC5/CapSense_1_TunerHelper.c **** 
  24:.\Generated_Source\PSoC5/CapSense_1_TunerHelper.c **** 
  25:.\Generated_Source\PSoC5/CapSense_1_TunerHelper.c **** /*******************************************************************************
  26:.\Generated_Source\PSoC5/CapSense_1_TunerHelper.c **** * Function Name: CapSense_1_TunerStart
  27:.\Generated_Source\PSoC5/CapSense_1_TunerHelper.c **** ********************************************************************************
  28:.\Generated_Source\PSoC5/CapSense_1_TunerHelper.c **** *
  29:.\Generated_Source\PSoC5/CapSense_1_TunerHelper.c **** * Summary:
  30:.\Generated_Source\PSoC5/CapSense_1_TunerHelper.c **** *  Initializes CapSense CSD component and EzI2C communication componenet to use
  31:.\Generated_Source\PSoC5/CapSense_1_TunerHelper.c **** *  mailbox data structure for communication with Tuner GUI.
ARM GAS  C:\Users\LUKASC~1\AppData\Local\Temp\ccGHGc1C.s 			page 2


  32:.\Generated_Source\PSoC5/CapSense_1_TunerHelper.c **** *  Start the scanning, after initialization complete.
  33:.\Generated_Source\PSoC5/CapSense_1_TunerHelper.c **** *
  34:.\Generated_Source\PSoC5/CapSense_1_TunerHelper.c **** * Parameters:
  35:.\Generated_Source\PSoC5/CapSense_1_TunerHelper.c **** *  None
  36:.\Generated_Source\PSoC5/CapSense_1_TunerHelper.c **** *
  37:.\Generated_Source\PSoC5/CapSense_1_TunerHelper.c **** * Return:
  38:.\Generated_Source\PSoC5/CapSense_1_TunerHelper.c **** *  None
  39:.\Generated_Source\PSoC5/CapSense_1_TunerHelper.c **** *
  40:.\Generated_Source\PSoC5/CapSense_1_TunerHelper.c **** * Reentrant:
  41:.\Generated_Source\PSoC5/CapSense_1_TunerHelper.c **** *  No
  42:.\Generated_Source\PSoC5/CapSense_1_TunerHelper.c **** *
  43:.\Generated_Source\PSoC5/CapSense_1_TunerHelper.c **** * Note:
  44:.\Generated_Source\PSoC5/CapSense_1_TunerHelper.c **** *  All widgets are enabled by default except proximity widgets. Proximity widgets 
  45:.\Generated_Source\PSoC5/CapSense_1_TunerHelper.c **** *  must be manually enabled as their long scan time is incompatible 
  46:.\Generated_Source\PSoC5/CapSense_1_TunerHelper.c **** *  with the fast response required of other widget types. 
  47:.\Generated_Source\PSoC5/CapSense_1_TunerHelper.c **** *
  48:.\Generated_Source\PSoC5/CapSense_1_TunerHelper.c **** *******************************************************************************/
  49:.\Generated_Source\PSoC5/CapSense_1_TunerHelper.c **** void CapSense_1_TunerStart(void) 
  50:.\Generated_Source\PSoC5/CapSense_1_TunerHelper.c **** {
  27              		.loc 1 50 0
  28              		.cfi_startproc
  29              		@ args = 0, pretend = 0, frame = 0
  30              		@ frame_needed = 1, uses_anonymous_args = 0
  31              		@ link register save eliminated.
  32 0000 80B4     		push	{r7}
  33              		.cfi_def_cfa_offset 4
  34              		.cfi_offset 7, -4
  35 0002 00AF     		add	r7, sp, #0
  36              		.cfi_def_cfa_register 7
  51:.\Generated_Source\PSoC5/CapSense_1_TunerHelper.c ****     #if (CapSense_1_TUNER_API_GENERATE)
  52:.\Generated_Source\PSoC5/CapSense_1_TunerHelper.c ****         
  53:.\Generated_Source\PSoC5/CapSense_1_TunerHelper.c ****         /* Init mbx and quick check */
  54:.\Generated_Source\PSoC5/CapSense_1_TunerHelper.c ****         CapSense_1_InitMailbox(&CapSense_1_mailboxesComm.csdMailbox);
  55:.\Generated_Source\PSoC5/CapSense_1_TunerHelper.c ****         CapSense_1_mailboxesComm.numMailBoxes = CapSense_1_DEFAULT_MAILBOXES_NUMBER;
  56:.\Generated_Source\PSoC5/CapSense_1_TunerHelper.c ****         
  57:.\Generated_Source\PSoC5/CapSense_1_TunerHelper.c ****         /* Start CapSense and baselines */
  58:.\Generated_Source\PSoC5/CapSense_1_TunerHelper.c ****         CapSense_1_Start();
  59:.\Generated_Source\PSoC5/CapSense_1_TunerHelper.c ****         
  60:.\Generated_Source\PSoC5/CapSense_1_TunerHelper.c ****         /* Initialize baselines */ 
  61:.\Generated_Source\PSoC5/CapSense_1_TunerHelper.c ****         CapSense_1_InitializeAllBaselines();
  62:.\Generated_Source\PSoC5/CapSense_1_TunerHelper.c ****         CapSense_1_InitializeAllBaselines();
  63:.\Generated_Source\PSoC5/CapSense_1_TunerHelper.c ****         
  64:.\Generated_Source\PSoC5/CapSense_1_TunerHelper.c ****         /* Start EzI2C, clears buf pointers */
  65:.\Generated_Source\PSoC5/CapSense_1_TunerHelper.c ****         EzI2C_Start();
  66:.\Generated_Source\PSoC5/CapSense_1_TunerHelper.c ****         
  67:.\Generated_Source\PSoC5/CapSense_1_TunerHelper.c ****         /* Setup EzI2C buffers */
  68:.\Generated_Source\PSoC5/CapSense_1_TunerHelper.c ****         EzI2C_SetBuffer1(sizeof(CapSense_1_mailboxesComm), sizeof(CapSense_1_mailboxesComm),
  69:.\Generated_Source\PSoC5/CapSense_1_TunerHelper.c ****                                         (void *) &CapSense_1_mailboxesComm);
  70:.\Generated_Source\PSoC5/CapSense_1_TunerHelper.c ****         
  71:.\Generated_Source\PSoC5/CapSense_1_TunerHelper.c ****         /* Starts scan all enabled sensors */
  72:.\Generated_Source\PSoC5/CapSense_1_TunerHelper.c ****         CapSense_1_ScanEnabledWidgets();
  73:.\Generated_Source\PSoC5/CapSense_1_TunerHelper.c ****     
  74:.\Generated_Source\PSoC5/CapSense_1_TunerHelper.c ****     #endif  /* (CapSense_1_TUNER_API_GENERATE) */
  75:.\Generated_Source\PSoC5/CapSense_1_TunerHelper.c **** }
  37              		.loc 1 75 0
  38 0004 BD46     		mov	sp, r7
  39              		.cfi_def_cfa_register 13
ARM GAS  C:\Users\LUKASC~1\AppData\Local\Temp\ccGHGc1C.s 			page 3


  40              		@ sp needed
  41 0006 5DF8047B 		ldr	r7, [sp], #4
  42              		.cfi_restore 7
  43              		.cfi_def_cfa_offset 0
  44 000a 7047     		bx	lr
  45              		.cfi_endproc
  46              	.LFE0:
  47              		.size	CapSense_1_TunerStart, .-CapSense_1_TunerStart
  48              		.section	.text.CapSense_1_TunerComm,"ax",%progbits
  49              		.align	2
  50              		.global	CapSense_1_TunerComm
  51              		.thumb
  52              		.thumb_func
  53              		.type	CapSense_1_TunerComm, %function
  54              	CapSense_1_TunerComm:
  55              	.LFB1:
  76:.\Generated_Source\PSoC5/CapSense_1_TunerHelper.c **** 
  77:.\Generated_Source\PSoC5/CapSense_1_TunerHelper.c **** 
  78:.\Generated_Source\PSoC5/CapSense_1_TunerHelper.c **** /*******************************************************************************
  79:.\Generated_Source\PSoC5/CapSense_1_TunerHelper.c **** * Function Name: CapSense_1_TunerComm
  80:.\Generated_Source\PSoC5/CapSense_1_TunerHelper.c **** ********************************************************************************
  81:.\Generated_Source\PSoC5/CapSense_1_TunerHelper.c **** *
  82:.\Generated_Source\PSoC5/CapSense_1_TunerHelper.c **** * Summary:
  83:.\Generated_Source\PSoC5/CapSense_1_TunerHelper.c **** *  This function is blocking. It waits till scaning loop is completed and apply
  84:.\Generated_Source\PSoC5/CapSense_1_TunerHelper.c **** *  new parameters from Tuner GUI if available (manual tuning mode only). Updates
  85:.\Generated_Source\PSoC5/CapSense_1_TunerHelper.c **** *  enabled baselines and state of widgets. Waits while Tuner GUI reports that 
  86:.\Generated_Source\PSoC5/CapSense_1_TunerHelper.c **** *  content of mailbox could be modified. Then loads the report data into outbox 
  87:.\Generated_Source\PSoC5/CapSense_1_TunerHelper.c **** *  and sets the busy flag. Starts new scanning loop.
  88:.\Generated_Source\PSoC5/CapSense_1_TunerHelper.c **** *  
  89:.\Generated_Source\PSoC5/CapSense_1_TunerHelper.c **** * Parameters:
  90:.\Generated_Source\PSoC5/CapSense_1_TunerHelper.c **** *  None
  91:.\Generated_Source\PSoC5/CapSense_1_TunerHelper.c **** *
  92:.\Generated_Source\PSoC5/CapSense_1_TunerHelper.c **** * Return:
  93:.\Generated_Source\PSoC5/CapSense_1_TunerHelper.c **** *  None
  94:.\Generated_Source\PSoC5/CapSense_1_TunerHelper.c **** *
  95:.\Generated_Source\PSoC5/CapSense_1_TunerHelper.c **** * Reentrant:
  96:.\Generated_Source\PSoC5/CapSense_1_TunerHelper.c **** *  No
  97:.\Generated_Source\PSoC5/CapSense_1_TunerHelper.c **** *
  98:.\Generated_Source\PSoC5/CapSense_1_TunerHelper.c **** *******************************************************************************/
  99:.\Generated_Source\PSoC5/CapSense_1_TunerHelper.c **** void CapSense_1_TunerComm(void) 
 100:.\Generated_Source\PSoC5/CapSense_1_TunerHelper.c **** {
  56              		.loc 1 100 0
  57              		.cfi_startproc
  58              		@ args = 0, pretend = 0, frame = 0
  59              		@ frame_needed = 1, uses_anonymous_args = 0
  60              		@ link register save eliminated.
  61 0000 80B4     		push	{r7}
  62              		.cfi_def_cfa_offset 4
  63              		.cfi_offset 7, -4
  64 0002 00AF     		add	r7, sp, #0
  65              		.cfi_def_cfa_register 7
 101:.\Generated_Source\PSoC5/CapSense_1_TunerHelper.c ****     #if (CapSense_1_TUNER_API_GENERATE)
 102:.\Generated_Source\PSoC5/CapSense_1_TunerHelper.c ****         if (0u == CapSense_1_IsBusy())
 103:.\Generated_Source\PSoC5/CapSense_1_TunerHelper.c ****         {   
 104:.\Generated_Source\PSoC5/CapSense_1_TunerHelper.c ****             /* Apply new settings */
 105:.\Generated_Source\PSoC5/CapSense_1_TunerHelper.c ****             #if (CapSense_1_TUNING_METHOD == CapSense_1_MANUAL_TUNING)
 106:.\Generated_Source\PSoC5/CapSense_1_TunerHelper.c ****                 CapSense_1_ReadMessage(&CapSense_1_mailboxesComm.csdMailbox);
ARM GAS  C:\Users\LUKASC~1\AppData\Local\Temp\ccGHGc1C.s 			page 4


 107:.\Generated_Source\PSoC5/CapSense_1_TunerHelper.c ****             #endif  /* (CapSense_1_TUNING_METHOD == CapSense_1_MANUAL_TUNING) */
 108:.\Generated_Source\PSoC5/CapSense_1_TunerHelper.c **** 
 109:.\Generated_Source\PSoC5/CapSense_1_TunerHelper.c ****             /* Update all baselines and process all widgets */
 110:.\Generated_Source\PSoC5/CapSense_1_TunerHelper.c ****             CapSense_1_UpdateEnabledBaselines();
 111:.\Generated_Source\PSoC5/CapSense_1_TunerHelper.c ****             CapSense_1_ProcessAllWidgets(&CapSense_1_mailboxesComm.csdMailbox.outbox);
 112:.\Generated_Source\PSoC5/CapSense_1_TunerHelper.c ****             CapSense_1_PostMessage(&CapSense_1_mailboxesComm.csdMailbox);
 113:.\Generated_Source\PSoC5/CapSense_1_TunerHelper.c **** 
 114:.\Generated_Source\PSoC5/CapSense_1_TunerHelper.c ****             /* Enable EZI2C interrupts, after scan complete */
 115:.\Generated_Source\PSoC5/CapSense_1_TunerHelper.c ****             EzI2C_EnableInt();
 116:.\Generated_Source\PSoC5/CapSense_1_TunerHelper.c **** 
 117:.\Generated_Source\PSoC5/CapSense_1_TunerHelper.c ****             while((CapSense_1_mailboxesComm.csdMailbox.type != CapSense_1_TYPE_ID) || \
 118:.\Generated_Source\PSoC5/CapSense_1_TunerHelper.c ****                   ((EzI2C_GetActivity() & EzI2C_STATUS_BUSY) != 0u)){}
 119:.\Generated_Source\PSoC5/CapSense_1_TunerHelper.c ****             
 120:.\Generated_Source\PSoC5/CapSense_1_TunerHelper.c ****             /* Disable EZI2C interrupts, while scanning */
 121:.\Generated_Source\PSoC5/CapSense_1_TunerHelper.c ****             EzI2C_DisableInt();
 122:.\Generated_Source\PSoC5/CapSense_1_TunerHelper.c ****             
 123:.\Generated_Source\PSoC5/CapSense_1_TunerHelper.c ****             /* Start scan all sensors */
 124:.\Generated_Source\PSoC5/CapSense_1_TunerHelper.c ****             CapSense_1_ScanEnabledWidgets();
 125:.\Generated_Source\PSoC5/CapSense_1_TunerHelper.c ****         }
 126:.\Generated_Source\PSoC5/CapSense_1_TunerHelper.c ****     #endif /* (CapSense_1_TUNER_API_GENERATE) */
 127:.\Generated_Source\PSoC5/CapSense_1_TunerHelper.c **** }
  66              		.loc 1 127 0
  67 0004 BD46     		mov	sp, r7
  68              		.cfi_def_cfa_register 13
  69              		@ sp needed
  70 0006 5DF8047B 		ldr	r7, [sp], #4
  71              		.cfi_restore 7
  72              		.cfi_def_cfa_offset 0
  73 000a 7047     		bx	lr
  74              		.cfi_endproc
  75              	.LFE1:
  76              		.size	CapSense_1_TunerComm, .-CapSense_1_TunerComm
  77              		.text
  78              	.Letext0: