ARM GAS  C:\Users\LUKASC~1\AppData\Local\Temp\cchE3814.s 			page 1


   1              		.syntax unified
   2              		.cpu cortex-m3
   3              		.fpu softvfp
   4              		.eabi_attribute 20, 1
   5              		.eabi_attribute 21, 1
   6              		.eabi_attribute 23, 3
   7              		.eabi_attribute 24, 1
   8              		.eabi_attribute 25, 1
   9              		.eabi_attribute 26, 1
  10              		.eabi_attribute 30, 6
  11              		.eabi_attribute 34, 1
  12              		.eabi_attribute 18, 4
  13              		.thumb
  14              		.file	"CapSense_1_Pins.c"
  15              		.text
  16              	.Ltext0:
  17              		.cfi_sections	.debug_frame
  18              		.section	.text.CapSense_1_SetAllSensorsDriveMode,"ax",%progbits
  19              		.align	2
  20              		.global	CapSense_1_SetAllSensorsDriveMode
  21              		.thumb
  22              		.thumb_func
  23              		.type	CapSense_1_SetAllSensorsDriveMode, %function
  24              	CapSense_1_SetAllSensorsDriveMode:
  25              	.LFB0:
  26              		.file 1 ".\\Generated_Source\\PSoC5\\CapSense_1_Pins.c"
   1:.\Generated_Source\PSoC5/CapSense_1_Pins.c **** /*******************************************************************************
   2:.\Generated_Source\PSoC5/CapSense_1_Pins.c **** * File Name: CapSense_1_Pins.c
   3:.\Generated_Source\PSoC5/CapSense_1_Pins.c **** * Version 3.40
   4:.\Generated_Source\PSoC5/CapSense_1_Pins.c **** *
   5:.\Generated_Source\PSoC5/CapSense_1_Pins.c **** * Description:
   6:.\Generated_Source\PSoC5/CapSense_1_Pins.c **** *  This file contains API to enable firmware control of a Pins component.
   7:.\Generated_Source\PSoC5/CapSense_1_Pins.c **** *
   8:.\Generated_Source\PSoC5/CapSense_1_Pins.c **** * Note:
   9:.\Generated_Source\PSoC5/CapSense_1_Pins.c **** *
  10:.\Generated_Source\PSoC5/CapSense_1_Pins.c **** ********************************************************************************
  11:.\Generated_Source\PSoC5/CapSense_1_Pins.c **** * Copyright 2008-2013, Cypress Semiconductor Corporation.  All rights reserved.
  12:.\Generated_Source\PSoC5/CapSense_1_Pins.c **** * You may use this file only in accordance with the license, terms, conditions,
  13:.\Generated_Source\PSoC5/CapSense_1_Pins.c **** * disclaimers, and limitations in the end user license agreement accompanying
  14:.\Generated_Source\PSoC5/CapSense_1_Pins.c **** * the software package with which this file was provided.
  15:.\Generated_Source\PSoC5/CapSense_1_Pins.c **** *******************************************************************************/
  16:.\Generated_Source\PSoC5/CapSense_1_Pins.c **** 
  17:.\Generated_Source\PSoC5/CapSense_1_Pins.c **** #include "CapSense_1_Pins.h"
  18:.\Generated_Source\PSoC5/CapSense_1_Pins.c **** 
  19:.\Generated_Source\PSoC5/CapSense_1_Pins.c **** 
  20:.\Generated_Source\PSoC5/CapSense_1_Pins.c **** /*******************************************************************************
  21:.\Generated_Source\PSoC5/CapSense_1_Pins.c **** * Function Name: CapSense_1_SetAllSensorsDriveMode
  22:.\Generated_Source\PSoC5/CapSense_1_Pins.c **** ********************************************************************************
  23:.\Generated_Source\PSoC5/CapSense_1_Pins.c **** *
  24:.\Generated_Source\PSoC5/CapSense_1_Pins.c **** * Summary:
  25:.\Generated_Source\PSoC5/CapSense_1_Pins.c **** *  Sets the drive mode for the all pins used by capacitive sensors within 
  26:.\Generated_Source\PSoC5/CapSense_1_Pins.c **** *  CapSense component.
  27:.\Generated_Source\PSoC5/CapSense_1_Pins.c **** * 
  28:.\Generated_Source\PSoC5/CapSense_1_Pins.c **** * Parameters:  
  29:.\Generated_Source\PSoC5/CapSense_1_Pins.c **** *  mode: Desired drive mode.
  30:.\Generated_Source\PSoC5/CapSense_1_Pins.c **** *
  31:.\Generated_Source\PSoC5/CapSense_1_Pins.c **** * Return: 
ARM GAS  C:\Users\LUKASC~1\AppData\Local\Temp\cchE3814.s 			page 2


  32:.\Generated_Source\PSoC5/CapSense_1_Pins.c **** *  None
  33:.\Generated_Source\PSoC5/CapSense_1_Pins.c **** *
  34:.\Generated_Source\PSoC5/CapSense_1_Pins.c **** *******************************************************************************/
  35:.\Generated_Source\PSoC5/CapSense_1_Pins.c **** void CapSense_1_SetAllSensorsDriveMode(uint8 mode) 
  36:.\Generated_Source\PSoC5/CapSense_1_Pins.c **** {
  27              		.loc 1 36 0
  28              		.cfi_startproc
  29              		@ args = 0, pretend = 0, frame = 8
  30              		@ frame_needed = 1, uses_anonymous_args = 0
  31              		@ link register save eliminated.
  32 0000 80B4     		push	{r7}
  33              		.cfi_def_cfa_offset 4
  34              		.cfi_offset 7, -4
  35 0002 83B0     		sub	sp, sp, #12
  36              		.cfi_def_cfa_offset 16
  37 0004 00AF     		add	r7, sp, #0
  38              		.cfi_def_cfa_register 7
  39 0006 0346     		mov	r3, r0
  40 0008 FB71     		strb	r3, [r7, #7]
  37:.\Generated_Source\PSoC5/CapSense_1_Pins.c ****     /* Set pins drive mode */
  38:.\Generated_Source\PSoC5/CapSense_1_Pins.c ****     CyPins_SetPinDriveMode(CapSense_1_PortCH0__Button0__BTN, mode);
  41              		.loc 1 38 0
  42 000a A24B     		ldr	r3, .L2
  43 000c A14A     		ldr	r2, .L2
  44 000e 1278     		ldrb	r2, [r2]
  45 0010 D2B2     		uxtb	r2, r2
  46 0012 D2B2     		uxtb	r2, r2
  47 0014 22F00E02 		bic	r2, r2, #14
  48 0018 D1B2     		uxtb	r1, r2
  49 001a FA79     		ldrb	r2, [r7, #7]	@ zero_extendqisi2
  50 001c 02F00E02 		and	r2, r2, #14
  51 0020 D2B2     		uxtb	r2, r2
  52 0022 0A43     		orrs	r2, r2, r1
  53 0024 D2B2     		uxtb	r2, r2
  54 0026 D2B2     		uxtb	r2, r2
  55 0028 1A70     		strb	r2, [r3]
  39:.\Generated_Source\PSoC5/CapSense_1_Pins.c ****     CyPins_SetPinDriveMode(CapSense_1_PortCH0__LinearSlider0_e0__LS, mode);
  56              		.loc 1 39 0
  57 002a 9B4B     		ldr	r3, .L2+4
  58 002c 9A4A     		ldr	r2, .L2+4
  59 002e 1278     		ldrb	r2, [r2]
  60 0030 D2B2     		uxtb	r2, r2
  61 0032 D2B2     		uxtb	r2, r2
  62 0034 22F00E02 		bic	r2, r2, #14
  63 0038 D1B2     		uxtb	r1, r2
  64 003a FA79     		ldrb	r2, [r7, #7]	@ zero_extendqisi2
  65 003c 02F00E02 		and	r2, r2, #14
  66 0040 D2B2     		uxtb	r2, r2
  67 0042 0A43     		orrs	r2, r2, r1
  68 0044 D2B2     		uxtb	r2, r2
  69 0046 D2B2     		uxtb	r2, r2
  70 0048 1A70     		strb	r2, [r3]
  40:.\Generated_Source\PSoC5/CapSense_1_Pins.c ****     CyPins_SetPinDriveMode(CapSense_1_PortCH0__LinearSlider0_e1__LS, mode);
  71              		.loc 1 40 0
  72 004a 944B     		ldr	r3, .L2+8
  73 004c 934A     		ldr	r2, .L2+8
  74 004e 1278     		ldrb	r2, [r2]
ARM GAS  C:\Users\LUKASC~1\AppData\Local\Temp\cchE3814.s 			page 3


  75 0050 D2B2     		uxtb	r2, r2
  76 0052 D2B2     		uxtb	r2, r2
  77 0054 22F00E02 		bic	r2, r2, #14
  78 0058 D1B2     		uxtb	r1, r2
  79 005a FA79     		ldrb	r2, [r7, #7]	@ zero_extendqisi2
  80 005c 02F00E02 		and	r2, r2, #14
  81 0060 D2B2     		uxtb	r2, r2
  82 0062 0A43     		orrs	r2, r2, r1
  83 0064 D2B2     		uxtb	r2, r2
  84 0066 D2B2     		uxtb	r2, r2
  85 0068 1A70     		strb	r2, [r3]
  41:.\Generated_Source\PSoC5/CapSense_1_Pins.c ****     CyPins_SetPinDriveMode(CapSense_1_PortCH0__LinearSlider0_e2__LS, mode);
  86              		.loc 1 41 0
  87 006a 8D4B     		ldr	r3, .L2+12
  88 006c 8C4A     		ldr	r2, .L2+12
  89 006e 1278     		ldrb	r2, [r2]
  90 0070 D2B2     		uxtb	r2, r2
  91 0072 D2B2     		uxtb	r2, r2
  92 0074 22F00E02 		bic	r2, r2, #14
  93 0078 D1B2     		uxtb	r1, r2
  94 007a FA79     		ldrb	r2, [r7, #7]	@ zero_extendqisi2
  95 007c 02F00E02 		and	r2, r2, #14
  96 0080 D2B2     		uxtb	r2, r2
  97 0082 0A43     		orrs	r2, r2, r1
  98 0084 D2B2     		uxtb	r2, r2
  99 0086 D2B2     		uxtb	r2, r2
 100 0088 1A70     		strb	r2, [r3]
  42:.\Generated_Source\PSoC5/CapSense_1_Pins.c ****     CyPins_SetPinDriveMode(CapSense_1_PortCH0__LinearSlider0_e3__LS, mode);
 101              		.loc 1 42 0
 102 008a 864B     		ldr	r3, .L2+16
 103 008c 854A     		ldr	r2, .L2+16
 104 008e 1278     		ldrb	r2, [r2]
 105 0090 D2B2     		uxtb	r2, r2
 106 0092 D2B2     		uxtb	r2, r2
 107 0094 22F00E02 		bic	r2, r2, #14
 108 0098 D1B2     		uxtb	r1, r2
 109 009a FA79     		ldrb	r2, [r7, #7]	@ zero_extendqisi2
 110 009c 02F00E02 		and	r2, r2, #14
 111 00a0 D2B2     		uxtb	r2, r2
 112 00a2 0A43     		orrs	r2, r2, r1
 113 00a4 D2B2     		uxtb	r2, r2
 114 00a6 D2B2     		uxtb	r2, r2
 115 00a8 1A70     		strb	r2, [r3]
  43:.\Generated_Source\PSoC5/CapSense_1_Pins.c ****     CyPins_SetPinDriveMode(CapSense_1_PortCH0__LinearSlider0_e4__LS, mode);
 116              		.loc 1 43 0
 117 00aa 7F4B     		ldr	r3, .L2+20
 118 00ac 7E4A     		ldr	r2, .L2+20
 119 00ae 1278     		ldrb	r2, [r2]
 120 00b0 D2B2     		uxtb	r2, r2
 121 00b2 D2B2     		uxtb	r2, r2
 122 00b4 22F00E02 		bic	r2, r2, #14
 123 00b8 D1B2     		uxtb	r1, r2
 124 00ba FA79     		ldrb	r2, [r7, #7]	@ zero_extendqisi2
 125 00bc 02F00E02 		and	r2, r2, #14
 126 00c0 D2B2     		uxtb	r2, r2
 127 00c2 0A43     		orrs	r2, r2, r1
 128 00c4 D2B2     		uxtb	r2, r2
ARM GAS  C:\Users\LUKASC~1\AppData\Local\Temp\cchE3814.s 			page 4


 129 00c6 D2B2     		uxtb	r2, r2
 130 00c8 1A70     		strb	r2, [r3]
  44:.\Generated_Source\PSoC5/CapSense_1_Pins.c ****     CyPins_SetPinDriveMode(CapSense_1_PortCH0__LinearSlider0_e5__LS, mode);
 131              		.loc 1 44 0
 132 00ca 784B     		ldr	r3, .L2+24
 133 00cc 774A     		ldr	r2, .L2+24
 134 00ce 1278     		ldrb	r2, [r2]
 135 00d0 D2B2     		uxtb	r2, r2
 136 00d2 D2B2     		uxtb	r2, r2
 137 00d4 22F00E02 		bic	r2, r2, #14
 138 00d8 D1B2     		uxtb	r1, r2
 139 00da FA79     		ldrb	r2, [r7, #7]	@ zero_extendqisi2
 140 00dc 02F00E02 		and	r2, r2, #14
 141 00e0 D2B2     		uxtb	r2, r2
 142 00e2 0A43     		orrs	r2, r2, r1
 143 00e4 D2B2     		uxtb	r2, r2
 144 00e6 D2B2     		uxtb	r2, r2
 145 00e8 1A70     		strb	r2, [r3]
  45:.\Generated_Source\PSoC5/CapSense_1_Pins.c ****     CyPins_SetPinDriveMode(CapSense_1_PortCH0__LinearSlider0_e6__LS, mode);
 146              		.loc 1 45 0
 147 00ea 714B     		ldr	r3, .L2+28
 148 00ec 704A     		ldr	r2, .L2+28
 149 00ee 1278     		ldrb	r2, [r2]
 150 00f0 D2B2     		uxtb	r2, r2
 151 00f2 D2B2     		uxtb	r2, r2
 152 00f4 22F00E02 		bic	r2, r2, #14
 153 00f8 D1B2     		uxtb	r1, r2
 154 00fa FA79     		ldrb	r2, [r7, #7]	@ zero_extendqisi2
 155 00fc 02F00E02 		and	r2, r2, #14
 156 0100 D2B2     		uxtb	r2, r2
 157 0102 0A43     		orrs	r2, r2, r1
 158 0104 D2B2     		uxtb	r2, r2
 159 0106 D2B2     		uxtb	r2, r2
 160 0108 1A70     		strb	r2, [r3]
  46:.\Generated_Source\PSoC5/CapSense_1_Pins.c ****     CyPins_SetPinDriveMode(CapSense_1_PortCH0__LinearSlider0_e7__LS, mode);
 161              		.loc 1 46 0
 162 010a 6A4B     		ldr	r3, .L2+32
 163 010c 694A     		ldr	r2, .L2+32
 164 010e 1278     		ldrb	r2, [r2]
 165 0110 D2B2     		uxtb	r2, r2
 166 0112 D2B2     		uxtb	r2, r2
 167 0114 22F00E02 		bic	r2, r2, #14
 168 0118 D1B2     		uxtb	r1, r2
 169 011a FA79     		ldrb	r2, [r7, #7]	@ zero_extendqisi2
 170 011c 02F00E02 		and	r2, r2, #14
 171 0120 D2B2     		uxtb	r2, r2
 172 0122 0A43     		orrs	r2, r2, r1
 173 0124 D2B2     		uxtb	r2, r2
 174 0126 D2B2     		uxtb	r2, r2
 175 0128 1A70     		strb	r2, [r3]
  47:.\Generated_Source\PSoC5/CapSense_1_Pins.c ****     CyPins_SetPinDriveMode(CapSense_1_PortCH0__LinearSlider0_e8__LS, mode);
 176              		.loc 1 47 0
 177 012a 634B     		ldr	r3, .L2+36
 178 012c 624A     		ldr	r2, .L2+36
 179 012e 1278     		ldrb	r2, [r2]
 180 0130 D2B2     		uxtb	r2, r2
 181 0132 D2B2     		uxtb	r2, r2
ARM GAS  C:\Users\LUKASC~1\AppData\Local\Temp\cchE3814.s 			page 5


 182 0134 22F00E02 		bic	r2, r2, #14
 183 0138 D1B2     		uxtb	r1, r2
 184 013a FA79     		ldrb	r2, [r7, #7]	@ zero_extendqisi2
 185 013c 02F00E02 		and	r2, r2, #14
 186 0140 D2B2     		uxtb	r2, r2
 187 0142 0A43     		orrs	r2, r2, r1
 188 0144 D2B2     		uxtb	r2, r2
 189 0146 D2B2     		uxtb	r2, r2
 190 0148 1A70     		strb	r2, [r3]
  48:.\Generated_Source\PSoC5/CapSense_1_Pins.c ****     CyPins_SetPinDriveMode(CapSense_1_PortCH0__LinearSlider0_e9__LS, mode);
 191              		.loc 1 48 0
 192 014a 5C4B     		ldr	r3, .L2+40
 193 014c 5B4A     		ldr	r2, .L2+40
 194 014e 1278     		ldrb	r2, [r2]
 195 0150 D2B2     		uxtb	r2, r2
 196 0152 D2B2     		uxtb	r2, r2
 197 0154 22F00E02 		bic	r2, r2, #14
 198 0158 D1B2     		uxtb	r1, r2
 199 015a FA79     		ldrb	r2, [r7, #7]	@ zero_extendqisi2
 200 015c 02F00E02 		and	r2, r2, #14
 201 0160 D2B2     		uxtb	r2, r2
 202 0162 0A43     		orrs	r2, r2, r1
 203 0164 D2B2     		uxtb	r2, r2
 204 0166 D2B2     		uxtb	r2, r2
 205 0168 1A70     		strb	r2, [r3]
  49:.\Generated_Source\PSoC5/CapSense_1_Pins.c ****     CyPins_SetPinDriveMode(CapSense_1_PortCH0__LinearSlider0_e10__LS, mode);
 206              		.loc 1 49 0
 207 016a 554B     		ldr	r3, .L2+44
 208 016c 544A     		ldr	r2, .L2+44
 209 016e 1278     		ldrb	r2, [r2]
 210 0170 D2B2     		uxtb	r2, r2
 211 0172 D2B2     		uxtb	r2, r2
 212 0174 22F00E02 		bic	r2, r2, #14
 213 0178 D1B2     		uxtb	r1, r2
 214 017a FA79     		ldrb	r2, [r7, #7]	@ zero_extendqisi2
 215 017c 02F00E02 		and	r2, r2, #14
 216 0180 D2B2     		uxtb	r2, r2
 217 0182 0A43     		orrs	r2, r2, r1
 218 0184 D2B2     		uxtb	r2, r2
 219 0186 D2B2     		uxtb	r2, r2
 220 0188 1A70     		strb	r2, [r3]
  50:.\Generated_Source\PSoC5/CapSense_1_Pins.c ****     CyPins_SetPinDriveMode(CapSense_1_PortCH0__LinearSlider0_e11__LS, mode);
 221              		.loc 1 50 0
 222 018a 4E4B     		ldr	r3, .L2+48
 223 018c 4D4A     		ldr	r2, .L2+48
 224 018e 1278     		ldrb	r2, [r2]
 225 0190 D2B2     		uxtb	r2, r2
 226 0192 D2B2     		uxtb	r2, r2
 227 0194 22F00E02 		bic	r2, r2, #14
 228 0198 D1B2     		uxtb	r1, r2
 229 019a FA79     		ldrb	r2, [r7, #7]	@ zero_extendqisi2
 230 019c 02F00E02 		and	r2, r2, #14
 231 01a0 D2B2     		uxtb	r2, r2
 232 01a2 0A43     		orrs	r2, r2, r1
 233 01a4 D2B2     		uxtb	r2, r2
 234 01a6 D2B2     		uxtb	r2, r2
 235 01a8 1A70     		strb	r2, [r3]
ARM GAS  C:\Users\LUKASC~1\AppData\Local\Temp\cchE3814.s 			page 6


  51:.\Generated_Source\PSoC5/CapSense_1_Pins.c ****     CyPins_SetPinDriveMode(CapSense_1_PortCH0__LinearSlider0_e12__LS, mode);
 236              		.loc 1 51 0
 237 01aa 474B     		ldr	r3, .L2+52
 238 01ac 464A     		ldr	r2, .L2+52
 239 01ae 1278     		ldrb	r2, [r2]
 240 01b0 D2B2     		uxtb	r2, r2
 241 01b2 D2B2     		uxtb	r2, r2
 242 01b4 22F00E02 		bic	r2, r2, #14
 243 01b8 D1B2     		uxtb	r1, r2
 244 01ba FA79     		ldrb	r2, [r7, #7]	@ zero_extendqisi2
 245 01bc 02F00E02 		and	r2, r2, #14
 246 01c0 D2B2     		uxtb	r2, r2
 247 01c2 0A43     		orrs	r2, r2, r1
 248 01c4 D2B2     		uxtb	r2, r2
 249 01c6 D2B2     		uxtb	r2, r2
 250 01c8 1A70     		strb	r2, [r3]
  52:.\Generated_Source\PSoC5/CapSense_1_Pins.c ****     CyPins_SetPinDriveMode(CapSense_1_PortCH0__LinearSlider0_e13__LS, mode);
 251              		.loc 1 52 0
 252 01ca 404B     		ldr	r3, .L2+56
 253 01cc 3F4A     		ldr	r2, .L2+56
 254 01ce 1278     		ldrb	r2, [r2]
 255 01d0 D2B2     		uxtb	r2, r2
 256 01d2 D2B2     		uxtb	r2, r2
 257 01d4 22F00E02 		bic	r2, r2, #14
 258 01d8 D1B2     		uxtb	r1, r2
 259 01da FA79     		ldrb	r2, [r7, #7]	@ zero_extendqisi2
 260 01dc 02F00E02 		and	r2, r2, #14
 261 01e0 D2B2     		uxtb	r2, r2
 262 01e2 0A43     		orrs	r2, r2, r1
 263 01e4 D2B2     		uxtb	r2, r2
 264 01e6 D2B2     		uxtb	r2, r2
 265 01e8 1A70     		strb	r2, [r3]
  53:.\Generated_Source\PSoC5/CapSense_1_Pins.c ****     CyPins_SetPinDriveMode(CapSense_1_PortCH0__LinearSlider0_e14__LS, mode);
 266              		.loc 1 53 0
 267 01ea 394B     		ldr	r3, .L2+60
 268 01ec 384A     		ldr	r2, .L2+60
 269 01ee 1278     		ldrb	r2, [r2]
 270 01f0 D2B2     		uxtb	r2, r2
 271 01f2 D2B2     		uxtb	r2, r2
 272 01f4 22F00E02 		bic	r2, r2, #14
 273 01f8 D1B2     		uxtb	r1, r2
 274 01fa FA79     		ldrb	r2, [r7, #7]	@ zero_extendqisi2
 275 01fc 02F00E02 		and	r2, r2, #14
 276 0200 D2B2     		uxtb	r2, r2
 277 0202 0A43     		orrs	r2, r2, r1
 278 0204 D2B2     		uxtb	r2, r2
 279 0206 D2B2     		uxtb	r2, r2
 280 0208 1A70     		strb	r2, [r3]
  54:.\Generated_Source\PSoC5/CapSense_1_Pins.c ****     CyPins_SetPinDriveMode(CapSense_1_PortCH0__LinearSlider0_e15__LS, mode);
 281              		.loc 1 54 0
 282 020a 324B     		ldr	r3, .L2+64
 283 020c 314A     		ldr	r2, .L2+64
 284 020e 1278     		ldrb	r2, [r2]
 285 0210 D2B2     		uxtb	r2, r2
 286 0212 D2B2     		uxtb	r2, r2
 287 0214 22F00E02 		bic	r2, r2, #14
 288 0218 D1B2     		uxtb	r1, r2
ARM GAS  C:\Users\LUKASC~1\AppData\Local\Temp\cchE3814.s 			page 7


 289 021a FA79     		ldrb	r2, [r7, #7]	@ zero_extendqisi2
 290 021c 02F00E02 		and	r2, r2, #14
 291 0220 D2B2     		uxtb	r2, r2
 292 0222 0A43     		orrs	r2, r2, r1
 293 0224 D2B2     		uxtb	r2, r2
 294 0226 D2B2     		uxtb	r2, r2
 295 0228 1A70     		strb	r2, [r3]
  55:.\Generated_Source\PSoC5/CapSense_1_Pins.c ****     CyPins_SetPinDriveMode(CapSense_1_PortCH0__LinearSlider0_e16__LS, mode);
 296              		.loc 1 55 0
 297 022a 2B4B     		ldr	r3, .L2+68
 298 022c 2A4A     		ldr	r2, .L2+68
 299 022e 1278     		ldrb	r2, [r2]
 300 0230 D2B2     		uxtb	r2, r2
 301 0232 D2B2     		uxtb	r2, r2
 302 0234 22F00E02 		bic	r2, r2, #14
 303 0238 D1B2     		uxtb	r1, r2
 304 023a FA79     		ldrb	r2, [r7, #7]	@ zero_extendqisi2
 305 023c 02F00E02 		and	r2, r2, #14
 306 0240 D2B2     		uxtb	r2, r2
 307 0242 0A43     		orrs	r2, r2, r1
 308 0244 D2B2     		uxtb	r2, r2
 309 0246 D2B2     		uxtb	r2, r2
 310 0248 1A70     		strb	r2, [r3]
  56:.\Generated_Source\PSoC5/CapSense_1_Pins.c ****     CyPins_SetPinDriveMode(CapSense_1_PortCH0__LinearSlider0_e17__LS, mode);
 311              		.loc 1 56 0
 312 024a 244B     		ldr	r3, .L2+72
 313 024c 234A     		ldr	r2, .L2+72
 314 024e 1278     		ldrb	r2, [r2]
 315 0250 D2B2     		uxtb	r2, r2
 316 0252 D2B2     		uxtb	r2, r2
 317 0254 22F00E02 		bic	r2, r2, #14
 318 0258 D1B2     		uxtb	r1, r2
 319 025a FA79     		ldrb	r2, [r7, #7]	@ zero_extendqisi2
 320 025c 02F00E02 		and	r2, r2, #14
 321 0260 D2B2     		uxtb	r2, r2
 322 0262 0A43     		orrs	r2, r2, r1
 323 0264 D2B2     		uxtb	r2, r2
 324 0266 D2B2     		uxtb	r2, r2
 325 0268 1A70     		strb	r2, [r3]
  57:.\Generated_Source\PSoC5/CapSense_1_Pins.c ****     CyPins_SetPinDriveMode(CapSense_1_PortCH0__LinearSlider0_e18__LS, mode);
 326              		.loc 1 57 0
 327 026a 1D4B     		ldr	r3, .L2+76
 328 026c 1C4A     		ldr	r2, .L2+76
 329 026e 1278     		ldrb	r2, [r2]
 330 0270 D2B2     		uxtb	r2, r2
 331 0272 D2B2     		uxtb	r2, r2
 332 0274 22F00E02 		bic	r2, r2, #14
 333 0278 D1B2     		uxtb	r1, r2
 334 027a FA79     		ldrb	r2, [r7, #7]	@ zero_extendqisi2
 335 027c 02F00E02 		and	r2, r2, #14
 336 0280 D2B2     		uxtb	r2, r2
 337 0282 0A43     		orrs	r2, r2, r1
 338 0284 D2B2     		uxtb	r2, r2
 339 0286 D2B2     		uxtb	r2, r2
 340 0288 1A70     		strb	r2, [r3]
  58:.\Generated_Source\PSoC5/CapSense_1_Pins.c ****     CyPins_SetPinDriveMode(CapSense_1_PortCH0__Button1__BTN, mode);
 341              		.loc 1 58 0
ARM GAS  C:\Users\LUKASC~1\AppData\Local\Temp\cchE3814.s 			page 8


 342 028a 164B     		ldr	r3, .L2+80
 343 028c 154A     		ldr	r2, .L2+80
 344 028e 1278     		ldrb	r2, [r2]
 345 0290 D2B2     		uxtb	r2, r2
 346 0292 29E0     		b	.L3
 347              	.L4:
 348              		.align	2
 349              	.L2:
 350 0294 07500040 		.word	1073762311
 351 0298 18500040 		.word	1073762328
 352 029c 19500040 		.word	1073762329
 353 02a0 1A500040 		.word	1073762330
 354 02a4 1B500040 		.word	1073762331
 355 02a8 1C500040 		.word	1073762332
 356 02ac 1D500040 		.word	1073762333
 357 02b0 1E500040 		.word	1073762334
 358 02b4 1F500040 		.word	1073762335
 359 02b8 78500040 		.word	1073762424
 360 02bc 79500040 		.word	1073762425
 361 02c0 7A500040 		.word	1073762426
 362 02c4 7B500040 		.word	1073762427
 363 02c8 7C500040 		.word	1073762428
 364 02cc 7D500040 		.word	1073762429
 365 02d0 00500040 		.word	1073762304
 366 02d4 01500040 		.word	1073762305
 367 02d8 02500040 		.word	1073762306
 368 02dc 03500040 		.word	1073762307
 369 02e0 04500040 		.word	1073762308
 370 02e4 06500040 		.word	1073762310
 371              	.L3:
 372 02e8 D2B2     		uxtb	r2, r2
 373 02ea 22F00E02 		bic	r2, r2, #14
 374 02ee D1B2     		uxtb	r1, r2
 375 02f0 FA79     		ldrb	r2, [r7, #7]	@ zero_extendqisi2
 376 02f2 02F00E02 		and	r2, r2, #14
 377 02f6 D2B2     		uxtb	r2, r2
 378 02f8 0A43     		orrs	r2, r2, r1
 379 02fa D2B2     		uxtb	r2, r2
 380 02fc D2B2     		uxtb	r2, r2
 381 02fe 1A70     		strb	r2, [r3]
  59:.\Generated_Source\PSoC5/CapSense_1_Pins.c ****     CyPins_SetPinDriveMode(CapSense_1_PortCH0__Button2__BTN, mode);
 382              		.loc 1 59 0
 383 0300 0A4B     		ldr	r3, .L5
 384 0302 0A4A     		ldr	r2, .L5
 385 0304 1278     		ldrb	r2, [r2]
 386 0306 D2B2     		uxtb	r2, r2
 387 0308 D2B2     		uxtb	r2, r2
 388 030a 22F00E02 		bic	r2, r2, #14
 389 030e D1B2     		uxtb	r1, r2
 390 0310 FA79     		ldrb	r2, [r7, #7]	@ zero_extendqisi2
 391 0312 02F00E02 		and	r2, r2, #14
 392 0316 D2B2     		uxtb	r2, r2
 393 0318 0A43     		orrs	r2, r2, r1
 394 031a D2B2     		uxtb	r2, r2
 395 031c D2B2     		uxtb	r2, r2
 396 031e 1A70     		strb	r2, [r3]
  60:.\Generated_Source\PSoC5/CapSense_1_Pins.c **** 
ARM GAS  C:\Users\LUKASC~1\AppData\Local\Temp\cchE3814.s 			page 9


  61:.\Generated_Source\PSoC5/CapSense_1_Pins.c **** }
 397              		.loc 1 61 0
 398 0320 0C37     		adds	r7, r7, #12
 399              		.cfi_def_cfa_offset 4
 400 0322 BD46     		mov	sp, r7
 401              		.cfi_def_cfa_register 13
 402              		@ sp needed
 403 0324 5DF8047B 		ldr	r7, [sp], #4
 404              		.cfi_restore 7
 405              		.cfi_def_cfa_offset 0
 406 0328 7047     		bx	lr
 407              	.L6:
 408 032a 00BF     		.align	2
 409              	.L5:
 410 032c 05500040 		.word	1073762309
 411              		.cfi_endproc
 412              	.LFE0:
 413              		.size	CapSense_1_SetAllSensorsDriveMode, .-CapSense_1_SetAllSensorsDriveMode
 414              		.section	.text.CapSense_1_SetAllCmodsDriveMode,"ax",%progbits
 415              		.align	2
 416              		.global	CapSense_1_SetAllCmodsDriveMode
 417              		.thumb
 418              		.thumb_func
 419              		.type	CapSense_1_SetAllCmodsDriveMode, %function
 420              	CapSense_1_SetAllCmodsDriveMode:
 421              	.LFB1:
  62:.\Generated_Source\PSoC5/CapSense_1_Pins.c **** 
  63:.\Generated_Source\PSoC5/CapSense_1_Pins.c **** 
  64:.\Generated_Source\PSoC5/CapSense_1_Pins.c **** 
  65:.\Generated_Source\PSoC5/CapSense_1_Pins.c **** /*******************************************************************************
  66:.\Generated_Source\PSoC5/CapSense_1_Pins.c **** * Function Name: CapSense_1_SetAllCmodsDriveMode
  67:.\Generated_Source\PSoC5/CapSense_1_Pins.c **** ********************************************************************************
  68:.\Generated_Source\PSoC5/CapSense_1_Pins.c **** *
  69:.\Generated_Source\PSoC5/CapSense_1_Pins.c **** * Summary:
  70:.\Generated_Source\PSoC5/CapSense_1_Pins.c **** *  Sets the drive mode for the all pins used by Cmod capacitors within CapSense 
  71:.\Generated_Source\PSoC5/CapSense_1_Pins.c **** *  component.
  72:.\Generated_Source\PSoC5/CapSense_1_Pins.c **** * 
  73:.\Generated_Source\PSoC5/CapSense_1_Pins.c **** * Parameters:  
  74:.\Generated_Source\PSoC5/CapSense_1_Pins.c **** *  mode: Desired drive mode.
  75:.\Generated_Source\PSoC5/CapSense_1_Pins.c **** *
  76:.\Generated_Source\PSoC5/CapSense_1_Pins.c **** * Return: 
  77:.\Generated_Source\PSoC5/CapSense_1_Pins.c **** *  None
  78:.\Generated_Source\PSoC5/CapSense_1_Pins.c **** *
  79:.\Generated_Source\PSoC5/CapSense_1_Pins.c **** *******************************************************************************/
  80:.\Generated_Source\PSoC5/CapSense_1_Pins.c **** void CapSense_1_SetAllCmodsDriveMode(uint8 mode) 
  81:.\Generated_Source\PSoC5/CapSense_1_Pins.c **** {
 422              		.loc 1 81 0
 423              		.cfi_startproc
 424              		@ args = 0, pretend = 0, frame = 8
 425              		@ frame_needed = 1, uses_anonymous_args = 0
 426              		@ link register save eliminated.
 427 0000 80B4     		push	{r7}
 428              		.cfi_def_cfa_offset 4
 429              		.cfi_offset 7, -4
 430 0002 83B0     		sub	sp, sp, #12
 431              		.cfi_def_cfa_offset 16
 432 0004 00AF     		add	r7, sp, #0
ARM GAS  C:\Users\LUKASC~1\AppData\Local\Temp\cchE3814.s 			page 10


 433              		.cfi_def_cfa_register 7
 434 0006 0346     		mov	r3, r0
 435 0008 FB71     		strb	r3, [r7, #7]
  82:.\Generated_Source\PSoC5/CapSense_1_Pins.c ****    /* Set pins drive mode */
  83:.\Generated_Source\PSoC5/CapSense_1_Pins.c ****     CyPins_SetPinDriveMode(CapSense_1_CmodCH0_Cmod_CH0, mode);
 436              		.loc 1 83 0
 437 000a 0A4B     		ldr	r3, .L8
 438 000c 094A     		ldr	r2, .L8
 439 000e 1278     		ldrb	r2, [r2]
 440 0010 D2B2     		uxtb	r2, r2
 441 0012 D2B2     		uxtb	r2, r2
 442 0014 22F00E02 		bic	r2, r2, #14
 443 0018 D1B2     		uxtb	r1, r2
 444 001a FA79     		ldrb	r2, [r7, #7]	@ zero_extendqisi2
 445 001c 02F00E02 		and	r2, r2, #14
 446 0020 D2B2     		uxtb	r2, r2
 447 0022 0A43     		orrs	r2, r2, r1
 448 0024 D2B2     		uxtb	r2, r2
 449 0026 D2B2     		uxtb	r2, r2
 450 0028 1A70     		strb	r2, [r3]
  84:.\Generated_Source\PSoC5/CapSense_1_Pins.c **** 
  85:.\Generated_Source\PSoC5/CapSense_1_Pins.c **** }
 451              		.loc 1 85 0
 452 002a 0C37     		adds	r7, r7, #12
 453              		.cfi_def_cfa_offset 4
 454 002c BD46     		mov	sp, r7
 455              		.cfi_def_cfa_register 13
 456              		@ sp needed
 457 002e 5DF8047B 		ldr	r7, [sp], #4
 458              		.cfi_restore 7
 459              		.cfi_def_cfa_offset 0
 460 0032 7047     		bx	lr
 461              	.L9:
 462              		.align	2
 463              	.L8:
 464 0034 10500040 		.word	1073762320
 465              		.cfi_endproc
 466              	.LFE1:
 467              		.size	CapSense_1_SetAllCmodsDriveMode, .-CapSense_1_SetAllCmodsDriveMode
 468              		.text
 469              	.Letext0:
 470              		.file 2 ".\\Generated_Source\\PSoC5\\cytypes.h"