ARM GAS  C:\Users\LUKASC~1\AppData\Local\Temp\ccTi8KiV.s 			page 1


   1              		.syntax unified
   2              		.cpu cortex-m3
   3              		.fpu softvfp
   4              		.eabi_attribute 20, 1
   5              		.eabi_attribute 21, 1
   6              		.eabi_attribute 23, 3
   7              		.eabi_attribute 24, 1
   8              		.eabi_attribute 25, 1
   9              		.eabi_attribute 26, 1
  10              		.eabi_attribute 30, 6
  11              		.eabi_attribute 34, 1
  12              		.eabi_attribute 18, 4
  13              		.thumb
  14              		.file	"CapSense_1_CSHL.c"
  15              		.text
  16              	.Ltext0:
  17              		.cfi_sections	.debug_frame
  18              		.comm	CapSense_1_rawFilterData1,44,4
  19              		.comm	CapSense_1_sensorBaseline,44,4
  20              		.comm	CapSense_1_sensorBaselineLow,22,4
  21              		.comm	CapSense_1_sensorSignal,22,4
  22              		.comm	CapSense_1_sensorOnMask,3,4
  23              		.comm	CapSense_1_lowBaselineResetCnt,22,4
  24              		.global	CapSense_1_fingerThreshold
  25              		.data
  26              		.align	2
  27              		.type	CapSense_1_fingerThreshold, %object
  28              		.size	CapSense_1_fingerThreshold, 4
  29              	CapSense_1_fingerThreshold:
  30 0000 64       		.byte	100
  31 0001 64       		.byte	100
  32 0002 64       		.byte	100
  33 0003 64       		.byte	100
  34              		.global	CapSense_1_noiseThreshold
  35              		.align	2
  36              		.type	CapSense_1_noiseThreshold, %object
  37              		.size	CapSense_1_noiseThreshold, 4
  38              	CapSense_1_noiseThreshold:
  39 0004 14       		.byte	20
  40 0005 14       		.byte	20
  41 0006 14       		.byte	20
  42 0007 14       		.byte	20
  43              		.global	CapSense_1_hysteresis
  44              		.align	2
  45              		.type	CapSense_1_hysteresis, %object
  46              		.size	CapSense_1_hysteresis, 4
  47              	CapSense_1_hysteresis:
  48 0008 00       		.byte	0
  49 0009 0A       		.byte	10
  50 000a 0A       		.byte	10
  51 000b 0A       		.byte	10
  52              		.global	CapSense_1_debounce
  53              		.align	2
  54              		.type	CapSense_1_debounce, %object
  55              		.size	CapSense_1_debounce, 4
  56              	CapSense_1_debounce:
  57 000c 01       		.byte	1
ARM GAS  C:\Users\LUKASC~1\AppData\Local\Temp\ccTi8KiV.s 			page 2


  58 000d 01       		.byte	1
  59 000e 01       		.byte	1
  60 000f 01       		.byte	1
  61              		.global	CapSense_1_debounceCounter
  62              		.bss
  63              		.align	2
  64              		.type	CapSense_1_debounceCounter, %object
  65              		.size	CapSense_1_debounceCounter, 4
  66              	CapSense_1_debounceCounter:
  67 0000 00000000 		.space	4
  68              		.global	CapSense_1_rawDataIndex
  69              		.section	.rodata
  70              		.align	2
  71              		.type	CapSense_1_rawDataIndex, %object
  72              		.size	CapSense_1_rawDataIndex, 4
  73              	CapSense_1_rawDataIndex:
  74 0000 03       		.byte	3
  75 0001 00       		.byte	0
  76 0002 01       		.byte	1
  77 0003 02       		.byte	2
  78              		.global	CapSense_1_numberOfSensors
  79              		.align	2
  80              		.type	CapSense_1_numberOfSensors, %object
  81              		.size	CapSense_1_numberOfSensors, 4
  82              	CapSense_1_numberOfSensors:
  83 0004 13       		.byte	19
  84 0005 01       		.byte	1
  85 0006 01       		.byte	1
  86 0007 01       		.byte	1
  87              		.global	CapSense_1_centroidMult
  88              		.align	2
  89              		.type	CapSense_1_centroidMult, %object
  90              		.size	CapSense_1_centroidMult, 2
  91              	CapSense_1_centroidMult:
  92 0008 8E05     		.short	1422
  93              		.global	CapSense_1_posFiltersMask
  94 000a 0000     		.align	2
  95              		.type	CapSense_1_posFiltersMask, %object
  96              		.size	CapSense_1_posFiltersMask, 1
  97              	CapSense_1_posFiltersMask:
  98 000c 08       		.byte	8
  99              		.global	CapSense_1_posFiltersData
 100 000d 000000   		.data
 101              		.align	2
 102              		.type	CapSense_1_posFiltersData, %object
 103              		.size	CapSense_1_posFiltersData, 3
 104              	CapSense_1_posFiltersData:
 105 0010 01       		.byte	1
 106 0011 00       		.byte	0
 107 0012 00       		.byte	0
 108 0013 00       		.section	.text.CapSense_1_BaseInit,"ax",%progbits
 109              		.align	2
 110              		.global	CapSense_1_BaseInit
 111              		.thumb
 112              		.thumb_func
 113              		.type	CapSense_1_BaseInit, %function
 114              	CapSense_1_BaseInit:
ARM GAS  C:\Users\LUKASC~1\AppData\Local\Temp\ccTi8KiV.s 			page 3


 115              	.LFB0:
 116              		.file 1 ".\\Generated_Source\\PSoC5\\CapSense_1_CSHL.c"
   1:.\Generated_Source\PSoC5/CapSense_1_CSHL.c **** /*******************************************************************************
   2:.\Generated_Source\PSoC5/CapSense_1_CSHL.c **** * File Name: CapSense_1_CSHL.c
   3:.\Generated_Source\PSoC5/CapSense_1_CSHL.c **** * Version 3.50
   4:.\Generated_Source\PSoC5/CapSense_1_CSHL.c **** *
   5:.\Generated_Source\PSoC5/CapSense_1_CSHL.c **** * Description:
   6:.\Generated_Source\PSoC5/CapSense_1_CSHL.c **** *  This file provides the source code to the High Level APIs for the CapSesne
   7:.\Generated_Source\PSoC5/CapSense_1_CSHL.c **** *  CSD component.
   8:.\Generated_Source\PSoC5/CapSense_1_CSHL.c **** *
   9:.\Generated_Source\PSoC5/CapSense_1_CSHL.c **** * Note:
  10:.\Generated_Source\PSoC5/CapSense_1_CSHL.c **** *
  11:.\Generated_Source\PSoC5/CapSense_1_CSHL.c **** ********************************************************************************
  12:.\Generated_Source\PSoC5/CapSense_1_CSHL.c **** * Copyright 2008-2013, Cypress Semiconductor Corporation.  All rights reserved.
  13:.\Generated_Source\PSoC5/CapSense_1_CSHL.c **** * You may use this file only in accordance with the license, terms, conditions,
  14:.\Generated_Source\PSoC5/CapSense_1_CSHL.c **** * disclaimers, and limitations in the end user license agreement accompanying
  15:.\Generated_Source\PSoC5/CapSense_1_CSHL.c **** * the software package with which this file was provided.
  16:.\Generated_Source\PSoC5/CapSense_1_CSHL.c **** *******************************************************************************/
  17:.\Generated_Source\PSoC5/CapSense_1_CSHL.c **** 
  18:.\Generated_Source\PSoC5/CapSense_1_CSHL.c **** #include "CapSense_1_CSHL.h"
  19:.\Generated_Source\PSoC5/CapSense_1_CSHL.c **** 
  20:.\Generated_Source\PSoC5/CapSense_1_CSHL.c **** /* Storage of filters data */
  21:.\Generated_Source\PSoC5/CapSense_1_CSHL.c **** #if ( (CapSense_1_RAW_FILTER_MASK & CapSense_1_MEDIAN_FILTER) | \
  22:.\Generated_Source\PSoC5/CapSense_1_CSHL.c ****       (CapSense_1_RAW_FILTER_MASK & CapSense_1_AVERAGING_FILTER) )
  23:.\Generated_Source\PSoC5/CapSense_1_CSHL.c **** 
  24:.\Generated_Source\PSoC5/CapSense_1_CSHL.c ****     uint16 CapSense_1_rawFilterData1[CapSense_1_TOTAL_SENSOR_COUNT];
  25:.\Generated_Source\PSoC5/CapSense_1_CSHL.c ****     uint16 CapSense_1_rawFilterData2[CapSense_1_TOTAL_SENSOR_COUNT];
  26:.\Generated_Source\PSoC5/CapSense_1_CSHL.c **** 
  27:.\Generated_Source\PSoC5/CapSense_1_CSHL.c **** #elif ( (CapSense_1_RAW_FILTER_MASK & CapSense_1_IIR2_FILTER)   | \
  28:.\Generated_Source\PSoC5/CapSense_1_CSHL.c ****         (CapSense_1_RAW_FILTER_MASK & CapSense_1_IIR4_FILTER)   | \
  29:.\Generated_Source\PSoC5/CapSense_1_CSHL.c ****         (CapSense_1_RAW_FILTER_MASK & CapSense_1_JITTER_FILTER) | \
  30:.\Generated_Source\PSoC5/CapSense_1_CSHL.c ****         (CapSense_1_RAW_FILTER_MASK & CapSense_1_IIR8_FILTER)   | \
  31:.\Generated_Source\PSoC5/CapSense_1_CSHL.c ****         (CapSense_1_RAW_FILTER_MASK & CapSense_1_IIR16_FILTER) )
  32:.\Generated_Source\PSoC5/CapSense_1_CSHL.c ****         
  33:.\Generated_Source\PSoC5/CapSense_1_CSHL.c ****     uint16 CapSense_1_rawFilterData1[CapSense_1_TOTAL_SENSOR_COUNT];
  34:.\Generated_Source\PSoC5/CapSense_1_CSHL.c **** 
  35:.\Generated_Source\PSoC5/CapSense_1_CSHL.c **** #else
  36:.\Generated_Source\PSoC5/CapSense_1_CSHL.c ****     /* No Raw filters */
  37:.\Generated_Source\PSoC5/CapSense_1_CSHL.c **** #endif  /* ( (CapSense_1_RAW_FILTER_MASK & CapSense_1_MEDIAN_FILTER) || \
  38:.\Generated_Source\PSoC5/CapSense_1_CSHL.c ****         *    (CapSense_1_RAW_FILTER_MASK & CapSense_1_AVERAGING_FILTER) )
  39:.\Generated_Source\PSoC5/CapSense_1_CSHL.c ****         */
  40:.\Generated_Source\PSoC5/CapSense_1_CSHL.c **** 
  41:.\Generated_Source\PSoC5/CapSense_1_CSHL.c **** uint16 CapSense_1_sensorBaseline[CapSense_1_TOTAL_SENSOR_COUNT];
  42:.\Generated_Source\PSoC5/CapSense_1_CSHL.c **** uint8 CapSense_1_sensorBaselineLow[CapSense_1_TOTAL_SENSOR_COUNT];
  43:.\Generated_Source\PSoC5/CapSense_1_CSHL.c **** uint8 CapSense_1_sensorSignal[CapSense_1_TOTAL_SENSOR_COUNT];
  44:.\Generated_Source\PSoC5/CapSense_1_CSHL.c **** uint8 CapSense_1_sensorOnMask[(((CapSense_1_TOTAL_SENSOR_COUNT - 1u) / 8u) + 1u)];
  45:.\Generated_Source\PSoC5/CapSense_1_CSHL.c **** 
  46:.\Generated_Source\PSoC5/CapSense_1_CSHL.c **** uint8 CapSense_1_lowBaselineResetCnt[CapSense_1_TOTAL_SENSOR_COUNT];
  47:.\Generated_Source\PSoC5/CapSense_1_CSHL.c **** 
  48:.\Generated_Source\PSoC5/CapSense_1_CSHL.c **** uint8 CapSense_1_fingerThreshold[] = {
  49:.\Generated_Source\PSoC5/CapSense_1_CSHL.c ****     100u, 100u, 100u, 100u, 
  50:.\Generated_Source\PSoC5/CapSense_1_CSHL.c **** };
  51:.\Generated_Source\PSoC5/CapSense_1_CSHL.c **** 
  52:.\Generated_Source\PSoC5/CapSense_1_CSHL.c **** uint8 CapSense_1_noiseThreshold[] = {
  53:.\Generated_Source\PSoC5/CapSense_1_CSHL.c ****     20u, 20u, 20u, 20u, 
  54:.\Generated_Source\PSoC5/CapSense_1_CSHL.c **** };
  55:.\Generated_Source\PSoC5/CapSense_1_CSHL.c **** 
ARM GAS  C:\Users\LUKASC~1\AppData\Local\Temp\ccTi8KiV.s 			page 4


  56:.\Generated_Source\PSoC5/CapSense_1_CSHL.c **** uint8 CapSense_1_hysteresis[] = {
  57:.\Generated_Source\PSoC5/CapSense_1_CSHL.c ****     0u, 10u, 10u, 10u, 
  58:.\Generated_Source\PSoC5/CapSense_1_CSHL.c **** };
  59:.\Generated_Source\PSoC5/CapSense_1_CSHL.c **** 
  60:.\Generated_Source\PSoC5/CapSense_1_CSHL.c **** uint8 CapSense_1_debounce[] = {
  61:.\Generated_Source\PSoC5/CapSense_1_CSHL.c ****     1u, 1u, 1u, 1u, 
  62:.\Generated_Source\PSoC5/CapSense_1_CSHL.c **** };
  63:.\Generated_Source\PSoC5/CapSense_1_CSHL.c **** 
  64:.\Generated_Source\PSoC5/CapSense_1_CSHL.c **** uint8 CapSense_1_debounceCounter[] = {
  65:.\Generated_Source\PSoC5/CapSense_1_CSHL.c ****     0u, 0u, 0u, 0u, 
  66:.\Generated_Source\PSoC5/CapSense_1_CSHL.c **** };
  67:.\Generated_Source\PSoC5/CapSense_1_CSHL.c **** 
  68:.\Generated_Source\PSoC5/CapSense_1_CSHL.c **** const uint8 CYCODE CapSense_1_rawDataIndex[] = {
  69:.\Generated_Source\PSoC5/CapSense_1_CSHL.c ****     3u, /* LinearSlider0__LS */
  70:.\Generated_Source\PSoC5/CapSense_1_CSHL.c ****     0u, /* Button0__BTN */
  71:.\Generated_Source\PSoC5/CapSense_1_CSHL.c ****     1u, /* Button1__BTN */
  72:.\Generated_Source\PSoC5/CapSense_1_CSHL.c ****     2u, /* Button2__BTN */
  73:.\Generated_Source\PSoC5/CapSense_1_CSHL.c **** 
  74:.\Generated_Source\PSoC5/CapSense_1_CSHL.c **** };
  75:.\Generated_Source\PSoC5/CapSense_1_CSHL.c **** 
  76:.\Generated_Source\PSoC5/CapSense_1_CSHL.c **** const uint8 CYCODE CapSense_1_numberOfSensors[] = {
  77:.\Generated_Source\PSoC5/CapSense_1_CSHL.c ****     19u, /* LinearSlider0__LS */
  78:.\Generated_Source\PSoC5/CapSense_1_CSHL.c ****     1u, /* Button0__BTN */
  79:.\Generated_Source\PSoC5/CapSense_1_CSHL.c ****     1u, /* Button1__BTN */
  80:.\Generated_Source\PSoC5/CapSense_1_CSHL.c ****     1u, /* Button2__BTN */
  81:.\Generated_Source\PSoC5/CapSense_1_CSHL.c **** 
  82:.\Generated_Source\PSoC5/CapSense_1_CSHL.c **** };
  83:.\Generated_Source\PSoC5/CapSense_1_CSHL.c **** 
  84:.\Generated_Source\PSoC5/CapSense_1_CSHL.c **** const uint16 CYCODE CapSense_1_centroidMult[] = {
  85:.\Generated_Source\PSoC5/CapSense_1_CSHL.c ****     1422u, 
  86:.\Generated_Source\PSoC5/CapSense_1_CSHL.c **** };
  87:.\Generated_Source\PSoC5/CapSense_1_CSHL.c **** 
  88:.\Generated_Source\PSoC5/CapSense_1_CSHL.c **** const uint8 CYCODE CapSense_1_posFiltersMask[] = {
  89:.\Generated_Source\PSoC5/CapSense_1_CSHL.c ****     0x8u, 
  90:.\Generated_Source\PSoC5/CapSense_1_CSHL.c **** };
  91:.\Generated_Source\PSoC5/CapSense_1_CSHL.c **** 
  92:.\Generated_Source\PSoC5/CapSense_1_CSHL.c **** uint8 CapSense_1_posFiltersData[] = {
  93:.\Generated_Source\PSoC5/CapSense_1_CSHL.c ****     1u, 0u, 0u, 
  94:.\Generated_Source\PSoC5/CapSense_1_CSHL.c **** };
  95:.\Generated_Source\PSoC5/CapSense_1_CSHL.c **** 
  96:.\Generated_Source\PSoC5/CapSense_1_CSHL.c **** 
  97:.\Generated_Source\PSoC5/CapSense_1_CSHL.c **** 
  98:.\Generated_Source\PSoC5/CapSense_1_CSHL.c **** 
  99:.\Generated_Source\PSoC5/CapSense_1_CSHL.c **** /*******************************************************************************
 100:.\Generated_Source\PSoC5/CapSense_1_CSHL.c **** * Function Name: CapSense_1_BaseInit
 101:.\Generated_Source\PSoC5/CapSense_1_CSHL.c **** ********************************************************************************
 102:.\Generated_Source\PSoC5/CapSense_1_CSHL.c **** *
 103:.\Generated_Source\PSoC5/CapSense_1_CSHL.c **** * Summary:
 104:.\Generated_Source\PSoC5/CapSense_1_CSHL.c **** *  Loads the CapSense_1_sensorBaseline[sensor] array element with an 
 105:.\Generated_Source\PSoC5/CapSense_1_CSHL.c **** *  initial value which is equal to raw count value. 
 106:.\Generated_Source\PSoC5/CapSense_1_CSHL.c **** *  Resets to zero CapSense_1_sensorBaselineLow[sensor] and 
 107:.\Generated_Source\PSoC5/CapSense_1_CSHL.c **** *  CapSense_1_sensorSignal[sensor] array element.
 108:.\Generated_Source\PSoC5/CapSense_1_CSHL.c **** *  Loads CapSense_1_debounceCounter[sensor] array element with initial 
 109:.\Generated_Source\PSoC5/CapSense_1_CSHL.c **** *  value equal CapSense_1_debounce[].
 110:.\Generated_Source\PSoC5/CapSense_1_CSHL.c **** *  Loads the CapSense_1_rawFilterData2[sensor] and 
 111:.\Generated_Source\PSoC5/CapSense_1_CSHL.c **** *  CapSense_1_rawFilterData2[sensor] array element with an 
 112:.\Generated_Source\PSoC5/CapSense_1_CSHL.c **** *  initial value which is equal raw count value if raw data filter is enabled.
ARM GAS  C:\Users\LUKASC~1\AppData\Local\Temp\ccTi8KiV.s 			page 5


 113:.\Generated_Source\PSoC5/CapSense_1_CSHL.c **** *
 114:.\Generated_Source\PSoC5/CapSense_1_CSHL.c **** * Parameters:
 115:.\Generated_Source\PSoC5/CapSense_1_CSHL.c **** *  sensor:  Sensor number.
 116:.\Generated_Source\PSoC5/CapSense_1_CSHL.c **** *
 117:.\Generated_Source\PSoC5/CapSense_1_CSHL.c **** * Return:
 118:.\Generated_Source\PSoC5/CapSense_1_CSHL.c **** *  None
 119:.\Generated_Source\PSoC5/CapSense_1_CSHL.c **** *
 120:.\Generated_Source\PSoC5/CapSense_1_CSHL.c **** * Global Variables:
 121:.\Generated_Source\PSoC5/CapSense_1_CSHL.c **** *  CapSense_1_sensorBaseline[]    - used to store baseline value.
 122:.\Generated_Source\PSoC5/CapSense_1_CSHL.c **** *  CapSense_1_sensorBaselineLow[] - used to store fraction byte of 
 123:.\Generated_Source\PSoC5/CapSense_1_CSHL.c **** *  baseline value.
 124:.\Generated_Source\PSoC5/CapSense_1_CSHL.c **** *  CapSense_1_sensorSignal[]      - used to store diffence between 
 125:.\Generated_Source\PSoC5/CapSense_1_CSHL.c **** *  current value of raw data and previous value of baseline.
 126:.\Generated_Source\PSoC5/CapSense_1_CSHL.c **** *  CapSense_1_debounceCounter[]   - used to store current debounce 
 127:.\Generated_Source\PSoC5/CapSense_1_CSHL.c **** *  counter of sensor. Widget which has this parameter are buttons, matrix 
 128:.\Generated_Source\PSoC5/CapSense_1_CSHL.c **** *  buttons, proximity, guard. All other widgets haven't debounce parameter
 129:.\Generated_Source\PSoC5/CapSense_1_CSHL.c **** *  and use the last element of this array with value 0 (it means no debounce).
 130:.\Generated_Source\PSoC5/CapSense_1_CSHL.c **** *  CapSense_1_rawFilterData1[]    - used to store previous sample of 
 131:.\Generated_Source\PSoC5/CapSense_1_CSHL.c **** *  any enabled raw data filter.
 132:.\Generated_Source\PSoC5/CapSense_1_CSHL.c **** *  CapSense_1_rawFilterData2[]    - used to store before previous sample
 133:.\Generated_Source\PSoC5/CapSense_1_CSHL.c **** *  of enabled raw data filter. Only required for median or average filters.
 134:.\Generated_Source\PSoC5/CapSense_1_CSHL.c **** *
 135:.\Generated_Source\PSoC5/CapSense_1_CSHL.c **** * Reentrant:
 136:.\Generated_Source\PSoC5/CapSense_1_CSHL.c **** *  No
 137:.\Generated_Source\PSoC5/CapSense_1_CSHL.c **** *
 138:.\Generated_Source\PSoC5/CapSense_1_CSHL.c **** *******************************************************************************/
 139:.\Generated_Source\PSoC5/CapSense_1_CSHL.c **** void CapSense_1_BaseInit(uint8 sensor) 
 140:.\Generated_Source\PSoC5/CapSense_1_CSHL.c **** {
 117              		.loc 1 140 0
 118              		.cfi_startproc
 119              		@ args = 0, pretend = 0, frame = 16
 120              		@ frame_needed = 1, uses_anonymous_args = 0
 121              		@ link register save eliminated.
 122 0000 80B4     		push	{r7}
 123              		.cfi_def_cfa_offset 4
 124              		.cfi_offset 7, -4
 125 0002 85B0     		sub	sp, sp, #20
 126              		.cfi_def_cfa_offset 24
 127 0004 00AF     		add	r7, sp, #0
 128              		.cfi_def_cfa_register 7
 129 0006 0346     		mov	r3, r0
 130 0008 FB71     		strb	r3, [r7, #7]
 141:.\Generated_Source\PSoC5/CapSense_1_CSHL.c ****     #if ((CapSense_1_TOTAL_BUTTONS_COUNT) || (CapSense_1_TOTAL_MATRIX_BUTTONS_COUNT) || \
 142:.\Generated_Source\PSoC5/CapSense_1_CSHL.c ****          (CapSense_1_TOTAL_GENERICS_COUNT))
 143:.\Generated_Source\PSoC5/CapSense_1_CSHL.c ****         uint8 widget = CapSense_1_widgetNumber[sensor];
 131              		.loc 1 143 0
 132 000a FB79     		ldrb	r3, [r7, #7]	@ zero_extendqisi2
 133 000c 144A     		ldr	r2, .L3
 134 000e D35C     		ldrb	r3, [r2, r3]
 135 0010 FB73     		strb	r3, [r7, #15]
 144:.\Generated_Source\PSoC5/CapSense_1_CSHL.c ****     #endif /* ((CapSense_1_TOTAL_MATRIX_BUTTONS_COUNT) || (CapSense_1_TOTAL_MATRIX_BUTTONS_COUNT)) 
 145:.\Generated_Source\PSoC5/CapSense_1_CSHL.c ****     
 146:.\Generated_Source\PSoC5/CapSense_1_CSHL.c ****     #if (CapSense_1_TOTAL_MATRIX_BUTTONS_COUNT)
 147:.\Generated_Source\PSoC5/CapSense_1_CSHL.c ****         uint8 debounceIndex;
 148:.\Generated_Source\PSoC5/CapSense_1_CSHL.c ****     #endif  /* (CapSense_1_TOTAL_MATRIX_BUTTONS_COUNT) */
 149:.\Generated_Source\PSoC5/CapSense_1_CSHL.c ****     
 150:.\Generated_Source\PSoC5/CapSense_1_CSHL.c ****     #if (CapSense_1_TOTAL_GENERICS_COUNT)
ARM GAS  C:\Users\LUKASC~1\AppData\Local\Temp\ccTi8KiV.s 			page 6


 151:.\Generated_Source\PSoC5/CapSense_1_CSHL.c ****         /* Exclude generic widget */
 152:.\Generated_Source\PSoC5/CapSense_1_CSHL.c ****         if(widget < CapSense_1_END_OF_WIDGETS_INDEX)
 153:.\Generated_Source\PSoC5/CapSense_1_CSHL.c ****         {
 154:.\Generated_Source\PSoC5/CapSense_1_CSHL.c ****     #endif  /* CapSense_1_TOTAL_GENERICS_COUNT */
 155:.\Generated_Source\PSoC5/CapSense_1_CSHL.c ****     
 156:.\Generated_Source\PSoC5/CapSense_1_CSHL.c ****     /* Initialize Baseline */
 157:.\Generated_Source\PSoC5/CapSense_1_CSHL.c ****     CapSense_1_sensorBaseline[sensor] = CapSense_1_sensorRaw[sensor];
 136              		.loc 1 157 0
 137 0012 FB79     		ldrb	r3, [r7, #7]	@ zero_extendqisi2
 138 0014 FA79     		ldrb	r2, [r7, #7]	@ zero_extendqisi2
 139 0016 1349     		ldr	r1, .L3+4
 140 0018 31F81210 		ldrh	r1, [r1, r2, lsl #1]
 141 001c 124A     		ldr	r2, .L3+8
 142 001e 22F81310 		strh	r1, [r2, r3, lsl #1]	@ movhi
 158:.\Generated_Source\PSoC5/CapSense_1_CSHL.c ****     CapSense_1_sensorBaselineLow[sensor] = 0u;
 143              		.loc 1 158 0
 144 0022 FB79     		ldrb	r3, [r7, #7]	@ zero_extendqisi2
 145 0024 114A     		ldr	r2, .L3+12
 146 0026 0021     		movs	r1, #0
 147 0028 D154     		strb	r1, [r2, r3]
 159:.\Generated_Source\PSoC5/CapSense_1_CSHL.c ****     CapSense_1_sensorSignal[sensor] = 0u;
 148              		.loc 1 159 0
 149 002a FB79     		ldrb	r3, [r7, #7]	@ zero_extendqisi2
 150 002c 104A     		ldr	r2, .L3+16
 151 002e 0021     		movs	r1, #0
 152 0030 D154     		strb	r1, [r2, r3]
 160:.\Generated_Source\PSoC5/CapSense_1_CSHL.c ****         
 161:.\Generated_Source\PSoC5/CapSense_1_CSHL.c ****     if(widget > CapSense_1_END_OF_TOUCH_PAD_INDEX)
 153              		.loc 1 161 0
 154 0032 FB7B     		ldrb	r3, [r7, #15]	@ zero_extendqisi2
 155 0034 002B     		cmp	r3, #0
 156 0036 06D0     		beq	.L2
 162:.\Generated_Source\PSoC5/CapSense_1_CSHL.c ****     {
 163:.\Generated_Source\PSoC5/CapSense_1_CSHL.c ****         CapSense_1_debounceCounter[widget - (CapSense_1_END_OF_TOUCH_PAD_INDEX + 1)] =  CapSense_1_
 157              		.loc 1 163 0
 158 0038 FB7B     		ldrb	r3, [r7, #15]	@ zero_extendqisi2
 159 003a 013B     		subs	r3, r3, #1
 160 003c FA7B     		ldrb	r2, [r7, #15]	@ zero_extendqisi2
 161 003e 0D49     		ldr	r1, .L3+20
 162 0040 895C     		ldrb	r1, [r1, r2]	@ zero_extendqisi2
 163 0042 0D4A     		ldr	r2, .L3+24
 164 0044 D154     		strb	r1, [r2, r3]
 165              	.L2:
 164:.\Generated_Source\PSoC5/CapSense_1_CSHL.c ****     }
 165:.\Generated_Source\PSoC5/CapSense_1_CSHL.c **** 
 166:.\Generated_Source\PSoC5/CapSense_1_CSHL.c ****     
 167:.\Generated_Source\PSoC5/CapSense_1_CSHL.c ****     #if ((CapSense_1_RAW_FILTER_MASK & CapSense_1_MEDIAN_FILTER) |\
 168:.\Generated_Source\PSoC5/CapSense_1_CSHL.c ****          (CapSense_1_RAW_FILTER_MASK & CapSense_1_AVERAGING_FILTER))
 169:.\Generated_Source\PSoC5/CapSense_1_CSHL.c **** 
 170:.\Generated_Source\PSoC5/CapSense_1_CSHL.c ****         CapSense_1_rawFilterData1[sensor] = CapSense_1_sensorRaw[sensor];
 171:.\Generated_Source\PSoC5/CapSense_1_CSHL.c ****         CapSense_1_rawFilterData2[sensor] = CapSense_1_sensorRaw[sensor];
 172:.\Generated_Source\PSoC5/CapSense_1_CSHL.c ****     
 173:.\Generated_Source\PSoC5/CapSense_1_CSHL.c ****     #elif ((CapSense_1_RAW_FILTER_MASK & CapSense_1_IIR2_FILTER) |\
 174:.\Generated_Source\PSoC5/CapSense_1_CSHL.c ****            (CapSense_1_RAW_FILTER_MASK & CapSense_1_IIR4_FILTER) |\
 175:.\Generated_Source\PSoC5/CapSense_1_CSHL.c ****            (CapSense_1_RAW_FILTER_MASK & CapSense_1_JITTER_FILTER) |\
 176:.\Generated_Source\PSoC5/CapSense_1_CSHL.c ****            (CapSense_1_RAW_FILTER_MASK & CapSense_1_IIR8_FILTER) |\
 177:.\Generated_Source\PSoC5/CapSense_1_CSHL.c ****            (CapSense_1_RAW_FILTER_MASK & CapSense_1_IIR16_FILTER))
ARM GAS  C:\Users\LUKASC~1\AppData\Local\Temp\ccTi8KiV.s 			page 7


 178:.\Generated_Source\PSoC5/CapSense_1_CSHL.c ****             
 179:.\Generated_Source\PSoC5/CapSense_1_CSHL.c ****         CapSense_1_rawFilterData1[sensor] = CapSense_1_sensorRaw[sensor];
 166              		.loc 1 179 0
 167 0046 FB79     		ldrb	r3, [r7, #7]	@ zero_extendqisi2
 168 0048 FA79     		ldrb	r2, [r7, #7]	@ zero_extendqisi2
 169 004a 0649     		ldr	r1, .L3+4
 170 004c 31F81210 		ldrh	r1, [r1, r2, lsl #1]
 171 0050 0A4A     		ldr	r2, .L3+28
 172 0052 22F81310 		strh	r1, [r2, r3, lsl #1]	@ movhi
 180:.\Generated_Source\PSoC5/CapSense_1_CSHL.c ****     
 181:.\Generated_Source\PSoC5/CapSense_1_CSHL.c ****     #else
 182:.\Generated_Source\PSoC5/CapSense_1_CSHL.c ****         /* No Raw filters */
 183:.\Generated_Source\PSoC5/CapSense_1_CSHL.c ****     #endif  /* ((CapSense_1_RAW_FILTER_MASK & CapSense_1_MEDIAN_FILTER) | \
 184:.\Generated_Source\PSoC5/CapSense_1_CSHL.c ****             *   (CapSense_1_RAW_FILTER_MASK & CapSense_1_AVERAGING_FILTER))
 185:.\Generated_Source\PSoC5/CapSense_1_CSHL.c ****             */
 186:.\Generated_Source\PSoC5/CapSense_1_CSHL.c ****     
 187:.\Generated_Source\PSoC5/CapSense_1_CSHL.c ****     #if (CapSense_1_TOTAL_GENERICS_COUNT)
 188:.\Generated_Source\PSoC5/CapSense_1_CSHL.c ****         /* Exclude generic widget */
 189:.\Generated_Source\PSoC5/CapSense_1_CSHL.c ****         }
 190:.\Generated_Source\PSoC5/CapSense_1_CSHL.c ****     #endif  /* CapSense_1_TOTAL_GENERICS_COUNT */
 191:.\Generated_Source\PSoC5/CapSense_1_CSHL.c **** }
 173              		.loc 1 191 0
 174 0056 1437     		adds	r7, r7, #20
 175              		.cfi_def_cfa_offset 4
 176 0058 BD46     		mov	sp, r7
 177              		.cfi_def_cfa_register 13
 178              		@ sp needed
 179 005a 5DF8047B 		ldr	r7, [sp], #4
 180              		.cfi_restore 7
 181              		.cfi_def_cfa_offset 0
 182 005e 7047     		bx	lr
 183              	.L4:
 184              		.align	2
 185              	.L3:
 186 0060 00000000 		.word	CapSense_1_widgetNumber
 187 0064 00000000 		.word	CapSense_1_sensorRaw
 188 0068 00000000 		.word	CapSense_1_sensorBaseline
 189 006c 00000000 		.word	CapSense_1_sensorBaselineLow
 190 0070 00000000 		.word	CapSense_1_sensorSignal
 191 0074 00000000 		.word	CapSense_1_debounce
 192 0078 00000000 		.word	CapSense_1_debounceCounter
 193 007c 00000000 		.word	CapSense_1_rawFilterData1
 194              		.cfi_endproc
 195              	.LFE0:
 196              		.size	CapSense_1_BaseInit, .-CapSense_1_BaseInit
 197              		.section	.text.CapSense_1_InitializeSensorBaseline,"ax",%progbits
 198              		.align	2
 199              		.global	CapSense_1_InitializeSensorBaseline
 200              		.thumb
 201              		.thumb_func
 202              		.type	CapSense_1_InitializeSensorBaseline, %function
 203              	CapSense_1_InitializeSensorBaseline:
 204              	.LFB1:
 192:.\Generated_Source\PSoC5/CapSense_1_CSHL.c **** 
 193:.\Generated_Source\PSoC5/CapSense_1_CSHL.c **** 
 194:.\Generated_Source\PSoC5/CapSense_1_CSHL.c **** /*******************************************************************************
 195:.\Generated_Source\PSoC5/CapSense_1_CSHL.c **** * Function Name: CapSense_1_InitializeSensorBaseline
ARM GAS  C:\Users\LUKASC~1\AppData\Local\Temp\ccTi8KiV.s 			page 8


 196:.\Generated_Source\PSoC5/CapSense_1_CSHL.c **** ********************************************************************************
 197:.\Generated_Source\PSoC5/CapSense_1_CSHL.c **** *
 198:.\Generated_Source\PSoC5/CapSense_1_CSHL.c **** * Summary:
 199:.\Generated_Source\PSoC5/CapSense_1_CSHL.c **** *  Loads the CapSense_1_sensorBaseline[sensor] array element with an 
 200:.\Generated_Source\PSoC5/CapSense_1_CSHL.c **** *  initial value by scanning the selected sensor (one channel design) or pair 
 201:.\Generated_Source\PSoC5/CapSense_1_CSHL.c **** *  of sensors (two channels designs). The raw count value is copied into the 
 202:.\Generated_Source\PSoC5/CapSense_1_CSHL.c **** *  baseline array for each sensor. The raw data filters are initialized if 
 203:.\Generated_Source\PSoC5/CapSense_1_CSHL.c **** *  enabled.
 204:.\Generated_Source\PSoC5/CapSense_1_CSHL.c **** *
 205:.\Generated_Source\PSoC5/CapSense_1_CSHL.c **** * Parameters:
 206:.\Generated_Source\PSoC5/CapSense_1_CSHL.c **** *  sensor:  Sensor number.
 207:.\Generated_Source\PSoC5/CapSense_1_CSHL.c **** *
 208:.\Generated_Source\PSoC5/CapSense_1_CSHL.c **** * Return:
 209:.\Generated_Source\PSoC5/CapSense_1_CSHL.c **** *  None
 210:.\Generated_Source\PSoC5/CapSense_1_CSHL.c **** *
 211:.\Generated_Source\PSoC5/CapSense_1_CSHL.c **** * Reentrant:
 212:.\Generated_Source\PSoC5/CapSense_1_CSHL.c **** *  No
 213:.\Generated_Source\PSoC5/CapSense_1_CSHL.c **** *
 214:.\Generated_Source\PSoC5/CapSense_1_CSHL.c **** *******************************************************************************/
 215:.\Generated_Source\PSoC5/CapSense_1_CSHL.c **** void CapSense_1_InitializeSensorBaseline(uint8 sensor)
 216:.\Generated_Source\PSoC5/CapSense_1_CSHL.c ****                           
 217:.\Generated_Source\PSoC5/CapSense_1_CSHL.c **** {
 205              		.loc 1 217 0
 206              		.cfi_startproc
 207              		@ args = 0, pretend = 0, frame = 8
 208              		@ frame_needed = 1, uses_anonymous_args = 0
 209 0000 80B5     		push	{r7, lr}
 210              		.cfi_def_cfa_offset 8
 211              		.cfi_offset 7, -8
 212              		.cfi_offset 14, -4
 213 0002 82B0     		sub	sp, sp, #8
 214              		.cfi_def_cfa_offset 16
 215 0004 00AF     		add	r7, sp, #0
 216              		.cfi_def_cfa_register 7
 217 0006 0346     		mov	r3, r0
 218 0008 FB71     		strb	r3, [r7, #7]
 218:.\Generated_Source\PSoC5/CapSense_1_CSHL.c ****     /* Scan sensor */
 219:.\Generated_Source\PSoC5/CapSense_1_CSHL.c ****     CapSense_1_ScanSensor(sensor);
 219              		.loc 1 219 0
 220 000a FB79     		ldrb	r3, [r7, #7]	@ zero_extendqisi2
 221 000c 1846     		mov	r0, r3
 222 000e FFF7FEFF 		bl	CapSense_1_ScanSensor
 220:.\Generated_Source\PSoC5/CapSense_1_CSHL.c ****     while(CapSense_1_IsBusy() != 0u)
 223              		.loc 1 220 0
 224 0012 00BF     		nop
 225              	.L6:
 226              		.loc 1 220 0 is_stmt 0 discriminator 1
 227 0014 FFF7FEFF 		bl	CapSense_1_IsBusy
 228 0018 0346     		mov	r3, r0
 229 001a 002B     		cmp	r3, #0
 230 001c FAD1     		bne	.L6
 221:.\Generated_Source\PSoC5/CapSense_1_CSHL.c ****     {
 222:.\Generated_Source\PSoC5/CapSense_1_CSHL.c ****         /* Wait while busy */
 223:.\Generated_Source\PSoC5/CapSense_1_CSHL.c ****     }
 224:.\Generated_Source\PSoC5/CapSense_1_CSHL.c ****     
 225:.\Generated_Source\PSoC5/CapSense_1_CSHL.c ****     #if (CapSense_1_DESIGN_TYPE == CapSense_1_ONE_CHANNEL_DESIGN)
 226:.\Generated_Source\PSoC5/CapSense_1_CSHL.c ****         /* Initialize Baseline, Signal and debounce counters */       
ARM GAS  C:\Users\LUKASC~1\AppData\Local\Temp\ccTi8KiV.s 			page 9


 227:.\Generated_Source\PSoC5/CapSense_1_CSHL.c ****         CapSense_1_BaseInit(sensor);
 231              		.loc 1 227 0 is_stmt 1
 232 001e FB79     		ldrb	r3, [r7, #7]	@ zero_extendqisi2
 233 0020 1846     		mov	r0, r3
 234 0022 FFF7FEFF 		bl	CapSense_1_BaseInit
 228:.\Generated_Source\PSoC5/CapSense_1_CSHL.c ****         
 229:.\Generated_Source\PSoC5/CapSense_1_CSHL.c ****     #else
 230:.\Generated_Source\PSoC5/CapSense_1_CSHL.c ****     
 231:.\Generated_Source\PSoC5/CapSense_1_CSHL.c ****         if(sensor < CapSense_1_TOTAL_SENSOR_COUNT__CH0)
 232:.\Generated_Source\PSoC5/CapSense_1_CSHL.c ****         {
 233:.\Generated_Source\PSoC5/CapSense_1_CSHL.c ****             /* Initialize Baseline, Signal and debounce counters */ 
 234:.\Generated_Source\PSoC5/CapSense_1_CSHL.c ****             CapSense_1_BaseInit(sensor);
 235:.\Generated_Source\PSoC5/CapSense_1_CSHL.c ****         }
 236:.\Generated_Source\PSoC5/CapSense_1_CSHL.c ****         
 237:.\Generated_Source\PSoC5/CapSense_1_CSHL.c ****         if(sensor < CapSense_1_TOTAL_SENSOR_COUNT__CH1)
 238:.\Generated_Source\PSoC5/CapSense_1_CSHL.c ****         {
 239:.\Generated_Source\PSoC5/CapSense_1_CSHL.c ****             /* Initialize Baseline, Signal and debounce counters */
 240:.\Generated_Source\PSoC5/CapSense_1_CSHL.c ****             CapSense_1_BaseInit(sensor + CapSense_1_TOTAL_SENSOR_COUNT__CH0);
 241:.\Generated_Source\PSoC5/CapSense_1_CSHL.c ****         }
 242:.\Generated_Source\PSoC5/CapSense_1_CSHL.c ****     
 243:.\Generated_Source\PSoC5/CapSense_1_CSHL.c ****     #endif  /* (CapSense_1_DESIGN_TYPE == CapSense_1_ONE_CHANNEL_DESIGN) */
 244:.\Generated_Source\PSoC5/CapSense_1_CSHL.c **** }
 235              		.loc 1 244 0
 236 0026 0837     		adds	r7, r7, #8
 237              		.cfi_def_cfa_offset 8
 238 0028 BD46     		mov	sp, r7
 239              		.cfi_def_cfa_register 13
 240              		@ sp needed
 241 002a 80BD     		pop	{r7, pc}
 242              		.cfi_endproc
 243              	.LFE1:
 244              		.size	CapSense_1_InitializeSensorBaseline, .-CapSense_1_InitializeSensorBaseline
 245              		.section	.text.CapSense_1_InitializeAllBaselines,"ax",%progbits
 246              		.align	2
 247              		.global	CapSense_1_InitializeAllBaselines
 248              		.thumb
 249              		.thumb_func
 250              		.type	CapSense_1_InitializeAllBaselines, %function
 251              	CapSense_1_InitializeAllBaselines:
 252              	.LFB2:
 245:.\Generated_Source\PSoC5/CapSense_1_CSHL.c **** 
 246:.\Generated_Source\PSoC5/CapSense_1_CSHL.c **** 
 247:.\Generated_Source\PSoC5/CapSense_1_CSHL.c **** /*******************************************************************************
 248:.\Generated_Source\PSoC5/CapSense_1_CSHL.c **** * Function Name: CapSense_1_InitializeAllBaselines
 249:.\Generated_Source\PSoC5/CapSense_1_CSHL.c **** ********************************************************************************
 250:.\Generated_Source\PSoC5/CapSense_1_CSHL.c **** *
 251:.\Generated_Source\PSoC5/CapSense_1_CSHL.c **** * Summary:
 252:.\Generated_Source\PSoC5/CapSense_1_CSHL.c **** *  Uses the CapSense_1_InitializeSensorBaseline function to loads the 
 253:.\Generated_Source\PSoC5/CapSense_1_CSHL.c **** *  CapSense_1_sensorBaseline[] array with an initial values by scanning 
 254:.\Generated_Source\PSoC5/CapSense_1_CSHL.c **** *  all sensors. The raw count values are copied into the baseline array for 
 255:.\Generated_Source\PSoC5/CapSense_1_CSHL.c **** *  all sensors. The raw data filters are initialized if enabled.
 256:.\Generated_Source\PSoC5/CapSense_1_CSHL.c **** *
 257:.\Generated_Source\PSoC5/CapSense_1_CSHL.c **** * Parameters:
 258:.\Generated_Source\PSoC5/CapSense_1_CSHL.c **** *  None
 259:.\Generated_Source\PSoC5/CapSense_1_CSHL.c **** *
 260:.\Generated_Source\PSoC5/CapSense_1_CSHL.c **** * Return:
 261:.\Generated_Source\PSoC5/CapSense_1_CSHL.c **** *  None
ARM GAS  C:\Users\LUKASC~1\AppData\Local\Temp\ccTi8KiV.s 			page 10


 262:.\Generated_Source\PSoC5/CapSense_1_CSHL.c **** *
 263:.\Generated_Source\PSoC5/CapSense_1_CSHL.c **** * Reentrant:
 264:.\Generated_Source\PSoC5/CapSense_1_CSHL.c **** *  No
 265:.\Generated_Source\PSoC5/CapSense_1_CSHL.c **** *
 266:.\Generated_Source\PSoC5/CapSense_1_CSHL.c **** *******************************************************************************/
 267:.\Generated_Source\PSoC5/CapSense_1_CSHL.c **** void CapSense_1_InitializeAllBaselines(void)
 268:.\Generated_Source\PSoC5/CapSense_1_CSHL.c ****                           
 269:.\Generated_Source\PSoC5/CapSense_1_CSHL.c **** {
 253              		.loc 1 269 0
 254              		.cfi_startproc
 255              		@ args = 0, pretend = 0, frame = 8
 256              		@ frame_needed = 1, uses_anonymous_args = 0
 257 0000 80B5     		push	{r7, lr}
 258              		.cfi_def_cfa_offset 8
 259              		.cfi_offset 7, -8
 260              		.cfi_offset 14, -4
 261 0002 82B0     		sub	sp, sp, #8
 262              		.cfi_def_cfa_offset 16
 263 0004 00AF     		add	r7, sp, #0
 264              		.cfi_def_cfa_register 7
 270:.\Generated_Source\PSoC5/CapSense_1_CSHL.c ****     uint8 i;
 271:.\Generated_Source\PSoC5/CapSense_1_CSHL.c ****     
 272:.\Generated_Source\PSoC5/CapSense_1_CSHL.c ****     /* The baseline initialize by sensor of sensor pair */
 273:.\Generated_Source\PSoC5/CapSense_1_CSHL.c ****     for(i = 0u; i < CapSense_1_TOTAL_SCANSLOT_COUNT; i++)
 265              		.loc 1 273 0
 266 0006 0023     		movs	r3, #0
 267 0008 FB71     		strb	r3, [r7, #7]
 268 000a 06E0     		b	.L8
 269              	.L9:
 274:.\Generated_Source\PSoC5/CapSense_1_CSHL.c ****     {
 275:.\Generated_Source\PSoC5/CapSense_1_CSHL.c ****         CapSense_1_InitializeSensorBaseline(i);
 270              		.loc 1 275 0 discriminator 3
 271 000c FB79     		ldrb	r3, [r7, #7]	@ zero_extendqisi2
 272 000e 1846     		mov	r0, r3
 273 0010 FFF7FEFF 		bl	CapSense_1_InitializeSensorBaseline
 273:.\Generated_Source\PSoC5/CapSense_1_CSHL.c ****     {
 274              		.loc 1 273 0 discriminator 3
 275 0014 FB79     		ldrb	r3, [r7, #7]	@ zero_extendqisi2
 276 0016 0133     		adds	r3, r3, #1
 277 0018 FB71     		strb	r3, [r7, #7]
 278              	.L8:
 273:.\Generated_Source\PSoC5/CapSense_1_CSHL.c ****     {
 279              		.loc 1 273 0 is_stmt 0 discriminator 1
 280 001a FB79     		ldrb	r3, [r7, #7]	@ zero_extendqisi2
 281 001c 152B     		cmp	r3, #21
 282 001e F5D9     		bls	.L9
 276:.\Generated_Source\PSoC5/CapSense_1_CSHL.c ****     }
 277:.\Generated_Source\PSoC5/CapSense_1_CSHL.c **** }
 283              		.loc 1 277 0 is_stmt 1
 284 0020 0837     		adds	r7, r7, #8
 285              		.cfi_def_cfa_offset 8
 286 0022 BD46     		mov	sp, r7
 287              		.cfi_def_cfa_register 13
 288              		@ sp needed
 289 0024 80BD     		pop	{r7, pc}
 290              		.cfi_endproc
 291              	.LFE2:
ARM GAS  C:\Users\LUKASC~1\AppData\Local\Temp\ccTi8KiV.s 			page 11


 292              		.size	CapSense_1_InitializeAllBaselines, .-CapSense_1_InitializeAllBaselines
 293 0026 00BF     		.section	.text.CapSense_1_InitializeEnabledBaselines,"ax",%progbits
 294              		.align	2
 295              		.global	CapSense_1_InitializeEnabledBaselines
 296              		.thumb
 297              		.thumb_func
 298              		.type	CapSense_1_InitializeEnabledBaselines, %function
 299              	CapSense_1_InitializeEnabledBaselines:
 300              	.LFB3:
 278:.\Generated_Source\PSoC5/CapSense_1_CSHL.c **** 
 279:.\Generated_Source\PSoC5/CapSense_1_CSHL.c **** 
 280:.\Generated_Source\PSoC5/CapSense_1_CSHL.c **** /*******************************************************************************
 281:.\Generated_Source\PSoC5/CapSense_1_CSHL.c **** * Function Name: CapSense_1_InitializeEnabledBaselines
 282:.\Generated_Source\PSoC5/CapSense_1_CSHL.c **** ********************************************************************************
 283:.\Generated_Source\PSoC5/CapSense_1_CSHL.c **** *
 284:.\Generated_Source\PSoC5/CapSense_1_CSHL.c **** * Summary:
 285:.\Generated_Source\PSoC5/CapSense_1_CSHL.c **** *  Scans all enabled widgets and the raw count values are copied into the 
 286:.\Generated_Source\PSoC5/CapSense_1_CSHL.c **** *  baseline array for all sensors enabled in scanning process. Baselines 
 287:.\Generated_Source\PSoC5/CapSense_1_CSHL.c **** *  initialize with zero values for sensors disabled from scanning process. 
 288:.\Generated_Source\PSoC5/CapSense_1_CSHL.c **** *  The raw data filters are initialized if enabled.
 289:.\Generated_Source\PSoC5/CapSense_1_CSHL.c **** *
 290:.\Generated_Source\PSoC5/CapSense_1_CSHL.c **** * Parameters:
 291:.\Generated_Source\PSoC5/CapSense_1_CSHL.c **** *  None
 292:.\Generated_Source\PSoC5/CapSense_1_CSHL.c **** *
 293:.\Generated_Source\PSoC5/CapSense_1_CSHL.c **** * Return:
 294:.\Generated_Source\PSoC5/CapSense_1_CSHL.c **** *  None
 295:.\Generated_Source\PSoC5/CapSense_1_CSHL.c **** *
 296:.\Generated_Source\PSoC5/CapSense_1_CSHL.c **** * Reentrant:
 297:.\Generated_Source\PSoC5/CapSense_1_CSHL.c **** *  No
 298:.\Generated_Source\PSoC5/CapSense_1_CSHL.c **** *
 299:.\Generated_Source\PSoC5/CapSense_1_CSHL.c **** *******************************************************************************/
 300:.\Generated_Source\PSoC5/CapSense_1_CSHL.c **** void CapSense_1_InitializeEnabledBaselines(void)
 301:.\Generated_Source\PSoC5/CapSense_1_CSHL.c ****                              
 302:.\Generated_Source\PSoC5/CapSense_1_CSHL.c **** {
 301              		.loc 1 302 0
 302              		.cfi_startproc
 303              		@ args = 0, pretend = 0, frame = 8
 304              		@ frame_needed = 1, uses_anonymous_args = 0
 305 0000 80B5     		push	{r7, lr}
 306              		.cfi_def_cfa_offset 8
 307              		.cfi_offset 7, -8
 308              		.cfi_offset 14, -4
 309 0002 82B0     		sub	sp, sp, #8
 310              		.cfi_def_cfa_offset 16
 311 0004 00AF     		add	r7, sp, #0
 312              		.cfi_def_cfa_register 7
 303:.\Generated_Source\PSoC5/CapSense_1_CSHL.c ****     uint8 i;
 304:.\Generated_Source\PSoC5/CapSense_1_CSHL.c ****     uint8 pos;
 305:.\Generated_Source\PSoC5/CapSense_1_CSHL.c ****     uint8 enMask;
 306:.\Generated_Source\PSoC5/CapSense_1_CSHL.c ****     
 307:.\Generated_Source\PSoC5/CapSense_1_CSHL.c ****     CapSense_1_ScanEnabledWidgets();
 313              		.loc 1 307 0
 314 0006 FFF7FEFF 		bl	CapSense_1_ScanEnabledWidgets
 308:.\Generated_Source\PSoC5/CapSense_1_CSHL.c ****     while(CapSense_1_IsBusy() != 0u)
 315              		.loc 1 308 0
 316 000a 00BF     		nop
 317              	.L11:
ARM GAS  C:\Users\LUKASC~1\AppData\Local\Temp\ccTi8KiV.s 			page 12


 318              		.loc 1 308 0 is_stmt 0 discriminator 1
 319 000c FFF7FEFF 		bl	CapSense_1_IsBusy
 320 0010 0346     		mov	r3, r0
 321 0012 002B     		cmp	r3, #0
 322 0014 FAD1     		bne	.L11
 309:.\Generated_Source\PSoC5/CapSense_1_CSHL.c ****     {
 310:.\Generated_Source\PSoC5/CapSense_1_CSHL.c ****         /* Wait while busy */
 311:.\Generated_Source\PSoC5/CapSense_1_CSHL.c ****     }
 312:.\Generated_Source\PSoC5/CapSense_1_CSHL.c ****     
 313:.\Generated_Source\PSoC5/CapSense_1_CSHL.c ****     for(i = 0u; i < CapSense_1_TOTAL_SENSOR_COUNT; i++)
 323              		.loc 1 313 0 is_stmt 1
 324 0016 0023     		movs	r3, #0
 325 0018 FB71     		strb	r3, [r7, #7]
 326 001a 1DE0     		b	.L12
 327              	.L14:
 314:.\Generated_Source\PSoC5/CapSense_1_CSHL.c ****     {
 315:.\Generated_Source\PSoC5/CapSense_1_CSHL.c ****         pos = (i >> 3u);
 328              		.loc 1 315 0
 329 001c FB79     		ldrb	r3, [r7, #7]	@ zero_extendqisi2
 330 001e DB08     		lsrs	r3, r3, #3
 331 0020 BB71     		strb	r3, [r7, #6]
 316:.\Generated_Source\PSoC5/CapSense_1_CSHL.c ****         enMask = 0x01u << (i & 0x07u);
 332              		.loc 1 316 0
 333 0022 FB79     		ldrb	r3, [r7, #7]	@ zero_extendqisi2
 334 0024 03F00703 		and	r3, r3, #7
 335 0028 0122     		movs	r2, #1
 336 002a 02FA03F3 		lsl	r3, r2, r3
 337 002e 7B71     		strb	r3, [r7, #5]
 317:.\Generated_Source\PSoC5/CapSense_1_CSHL.c ****         
 318:.\Generated_Source\PSoC5/CapSense_1_CSHL.c ****         /* Clear raw data if sensor is disabled from scanning process */
 319:.\Generated_Source\PSoC5/CapSense_1_CSHL.c ****         if((CapSense_1_sensorEnableMask[pos] & enMask) == 0u)
 338              		.loc 1 319 0
 339 0030 BB79     		ldrb	r3, [r7, #6]	@ zero_extendqisi2
 340 0032 0C4A     		ldr	r2, .L15
 341 0034 D25C     		ldrb	r2, [r2, r3]	@ zero_extendqisi2
 342 0036 7B79     		ldrb	r3, [r7, #5]
 343 0038 1340     		ands	r3, r3, r2
 344 003a DBB2     		uxtb	r3, r3
 345 003c 002B     		cmp	r3, #0
 346 003e 04D1     		bne	.L13
 320:.\Generated_Source\PSoC5/CapSense_1_CSHL.c ****         {
 321:.\Generated_Source\PSoC5/CapSense_1_CSHL.c ****             CapSense_1_sensorRaw[i] = 0u;
 347              		.loc 1 321 0
 348 0040 FB79     		ldrb	r3, [r7, #7]	@ zero_extendqisi2
 349 0042 094A     		ldr	r2, .L15+4
 350 0044 0021     		movs	r1, #0
 351 0046 22F81310 		strh	r1, [r2, r3, lsl #1]	@ movhi
 352              	.L13:
 322:.\Generated_Source\PSoC5/CapSense_1_CSHL.c ****         }
 323:.\Generated_Source\PSoC5/CapSense_1_CSHL.c ****         
 324:.\Generated_Source\PSoC5/CapSense_1_CSHL.c ****         /* Initialize baselines */
 325:.\Generated_Source\PSoC5/CapSense_1_CSHL.c ****         CapSense_1_BaseInit(i);
 353              		.loc 1 325 0 discriminator 2
 354 004a FB79     		ldrb	r3, [r7, #7]	@ zero_extendqisi2
 355 004c 1846     		mov	r0, r3
 356 004e FFF7FEFF 		bl	CapSense_1_BaseInit
 313:.\Generated_Source\PSoC5/CapSense_1_CSHL.c ****     {
ARM GAS  C:\Users\LUKASC~1\AppData\Local\Temp\ccTi8KiV.s 			page 13


 357              		.loc 1 313 0 discriminator 2
 358 0052 FB79     		ldrb	r3, [r7, #7]	@ zero_extendqisi2
 359 0054 0133     		adds	r3, r3, #1
 360 0056 FB71     		strb	r3, [r7, #7]
 361              	.L12:
 313:.\Generated_Source\PSoC5/CapSense_1_CSHL.c ****     {
 362              		.loc 1 313 0 is_stmt 0 discriminator 1
 363 0058 FB79     		ldrb	r3, [r7, #7]	@ zero_extendqisi2
 364 005a 152B     		cmp	r3, #21
 365 005c DED9     		bls	.L14
 326:.\Generated_Source\PSoC5/CapSense_1_CSHL.c ****     }
 327:.\Generated_Source\PSoC5/CapSense_1_CSHL.c **** }  
 366              		.loc 1 327 0 is_stmt 1
 367 005e 0837     		adds	r7, r7, #8
 368              		.cfi_def_cfa_offset 8
 369 0060 BD46     		mov	sp, r7
 370              		.cfi_def_cfa_register 13
 371              		@ sp needed
 372 0062 80BD     		pop	{r7, pc}
 373              	.L16:
 374              		.align	2
 375              	.L15:
 376 0064 00000000 		.word	CapSense_1_sensorEnableMask
 377 0068 00000000 		.word	CapSense_1_sensorRaw
 378              		.cfi_endproc
 379              	.LFE3:
 380              		.size	CapSense_1_InitializeEnabledBaselines, .-CapSense_1_InitializeEnabledBaselines
 381              		.section	.text.CapSense_1_UpdateSensorBaseline,"ax",%progbits
 382              		.align	2
 383              		.global	CapSense_1_UpdateSensorBaseline
 384              		.thumb
 385              		.thumb_func
 386              		.type	CapSense_1_UpdateSensorBaseline, %function
 387              	CapSense_1_UpdateSensorBaseline:
 388              	.LFB4:
 328:.\Generated_Source\PSoC5/CapSense_1_CSHL.c **** 
 329:.\Generated_Source\PSoC5/CapSense_1_CSHL.c **** 
 330:.\Generated_Source\PSoC5/CapSense_1_CSHL.c **** /*******************************************************************************
 331:.\Generated_Source\PSoC5/CapSense_1_CSHL.c **** * Function Name: CapSense_1_UpdateSensorBaseline
 332:.\Generated_Source\PSoC5/CapSense_1_CSHL.c **** ********************************************************************************
 333:.\Generated_Source\PSoC5/CapSense_1_CSHL.c **** *
 334:.\Generated_Source\PSoC5/CapSense_1_CSHL.c **** * Summary:
 335:.\Generated_Source\PSoC5/CapSense_1_CSHL.c **** *  Updates the CapSense_1_sensorBaseline[sensor] array element using the 
 336:.\Generated_Source\PSoC5/CapSense_1_CSHL.c **** *  LP filter with k = 256. The signal calculates the difference of count by 
 337:.\Generated_Source\PSoC5/CapSense_1_CSHL.c **** *  subtracting the previous baseline from the current raw count value and stores
 338:.\Generated_Source\PSoC5/CapSense_1_CSHL.c **** *  it in CapSense_1_SensorSignal[sensor]. 
 339:.\Generated_Source\PSoC5/CapSense_1_CSHL.c **** *  If auto reset option is enabled the baseline updated regards noise threshold. 
 340:.\Generated_Source\PSoC5/CapSense_1_CSHL.c **** *  If auto reset option is disabled the baseline stops updating if signal is 
 341:.\Generated_Source\PSoC5/CapSense_1_CSHL.c **** *  greater that zero and baseline loads with raw count value if signal is less 
 342:.\Generated_Source\PSoC5/CapSense_1_CSHL.c **** *  that noise threshold.
 343:.\Generated_Source\PSoC5/CapSense_1_CSHL.c **** *  Raw data filters are applied to the values if enabled before baseline 
 344:.\Generated_Source\PSoC5/CapSense_1_CSHL.c **** *  calculation.
 345:.\Generated_Source\PSoC5/CapSense_1_CSHL.c **** *
 346:.\Generated_Source\PSoC5/CapSense_1_CSHL.c **** * Parameters:
 347:.\Generated_Source\PSoC5/CapSense_1_CSHL.c **** *  sensor:  Sensor number.
 348:.\Generated_Source\PSoC5/CapSense_1_CSHL.c **** *
 349:.\Generated_Source\PSoC5/CapSense_1_CSHL.c **** * Return:
ARM GAS  C:\Users\LUKASC~1\AppData\Local\Temp\ccTi8KiV.s 			page 14


 350:.\Generated_Source\PSoC5/CapSense_1_CSHL.c **** *  None
 351:.\Generated_Source\PSoC5/CapSense_1_CSHL.c **** *
 352:.\Generated_Source\PSoC5/CapSense_1_CSHL.c **** * Global Variables:
 353:.\Generated_Source\PSoC5/CapSense_1_CSHL.c **** *  CapSense_1_sensorBaseline[]    - used to store baseline value.
 354:.\Generated_Source\PSoC5/CapSense_1_CSHL.c **** *  CapSense_1_sensorBaselineLow[] - used to store fraction byte of 
 355:.\Generated_Source\PSoC5/CapSense_1_CSHL.c **** *  baseline value.
 356:.\Generated_Source\PSoC5/CapSense_1_CSHL.c **** *  CapSense_1_sensorSignal[]      - used to store diffence between 
 357:.\Generated_Source\PSoC5/CapSense_1_CSHL.c **** *  current value of raw data and previous value of baseline.
 358:.\Generated_Source\PSoC5/CapSense_1_CSHL.c **** *  CapSense_1_rawFilterData1[]    - used to store previous sample of 
 359:.\Generated_Source\PSoC5/CapSense_1_CSHL.c **** *  any enabled raw data filter.
 360:.\Generated_Source\PSoC5/CapSense_1_CSHL.c **** *  CapSense_1_rawFilterData2[]    - used to store before previous sample
 361:.\Generated_Source\PSoC5/CapSense_1_CSHL.c **** *  of enabled raw data filter. Only required for median or average filters.
 362:.\Generated_Source\PSoC5/CapSense_1_CSHL.c **** *
 363:.\Generated_Source\PSoC5/CapSense_1_CSHL.c **** * Reentrant:
 364:.\Generated_Source\PSoC5/CapSense_1_CSHL.c **** *  No
 365:.\Generated_Source\PSoC5/CapSense_1_CSHL.c **** *
 366:.\Generated_Source\PSoC5/CapSense_1_CSHL.c **** *******************************************************************************/
 367:.\Generated_Source\PSoC5/CapSense_1_CSHL.c ****  void CapSense_1_UpdateSensorBaseline(uint8 sensor)
 368:.\Generated_Source\PSoC5/CapSense_1_CSHL.c ****                                  
 369:.\Generated_Source\PSoC5/CapSense_1_CSHL.c **** {
 389              		.loc 1 369 0
 390              		.cfi_startproc
 391              		@ args = 0, pretend = 0, frame = 24
 392              		@ frame_needed = 1, uses_anonymous_args = 0
 393 0000 80B5     		push	{r7, lr}
 394              		.cfi_def_cfa_offset 8
 395              		.cfi_offset 7, -8
 396              		.cfi_offset 14, -4
 397 0002 86B0     		sub	sp, sp, #24
 398              		.cfi_def_cfa_offset 32
 399 0004 00AF     		add	r7, sp, #0
 400              		.cfi_def_cfa_register 7
 401 0006 0346     		mov	r3, r0
 402 0008 FB71     		strb	r3, [r7, #7]
 370:.\Generated_Source\PSoC5/CapSense_1_CSHL.c ****     uint32 calc;
 371:.\Generated_Source\PSoC5/CapSense_1_CSHL.c ****     uint16 tempRaw;
 372:.\Generated_Source\PSoC5/CapSense_1_CSHL.c ****     uint16 filteredRawData;
 373:.\Generated_Source\PSoC5/CapSense_1_CSHL.c ****     uint8 widget = CapSense_1_widgetNumber[sensor];
 403              		.loc 1 373 0
 404 000a FB79     		ldrb	r3, [r7, #7]	@ zero_extendqisi2
 405 000c 534A     		ldr	r2, .L29
 406 000e D35C     		ldrb	r3, [r2, r3]
 407 0010 7B75     		strb	r3, [r7, #21]
 374:.\Generated_Source\PSoC5/CapSense_1_CSHL.c ****     uint8 noiseThreshold = CapSense_1_noiseThreshold[widget];
 408              		.loc 1 374 0
 409 0012 7B7D     		ldrb	r3, [r7, #21]	@ zero_extendqisi2
 410 0014 524A     		ldr	r2, .L29+4
 411 0016 D35C     		ldrb	r3, [r2, r3]
 412 0018 3B75     		strb	r3, [r7, #20]
 375:.\Generated_Source\PSoC5/CapSense_1_CSHL.c ****     
 376:.\Generated_Source\PSoC5/CapSense_1_CSHL.c ****     #if (CapSense_1_TOTAL_GENERICS_COUNT)
 377:.\Generated_Source\PSoC5/CapSense_1_CSHL.c ****         /* Exclude generic widget */
 378:.\Generated_Source\PSoC5/CapSense_1_CSHL.c ****         if(widget < CapSense_1_END_OF_WIDGETS_INDEX)
 379:.\Generated_Source\PSoC5/CapSense_1_CSHL.c ****         {
 380:.\Generated_Source\PSoC5/CapSense_1_CSHL.c ****     #endif  /* CapSense_1_TOTAL_GENERICS_COUNT */
 381:.\Generated_Source\PSoC5/CapSense_1_CSHL.c ****     
 382:.\Generated_Source\PSoC5/CapSense_1_CSHL.c ****     filteredRawData = CapSense_1_sensorRaw[sensor];
ARM GAS  C:\Users\LUKASC~1\AppData\Local\Temp\ccTi8KiV.s 			page 15


 413              		.loc 1 382 0
 414 001a FB79     		ldrb	r3, [r7, #7]	@ zero_extendqisi2
 415 001c 514A     		ldr	r2, .L29+8
 416 001e 32F81330 		ldrh	r3, [r2, r3, lsl #1]	@ movhi
 417 0022 7B82     		strh	r3, [r7, #18]	@ movhi
 383:.\Generated_Source\PSoC5/CapSense_1_CSHL.c ****     
 384:.\Generated_Source\PSoC5/CapSense_1_CSHL.c ****     #if (CapSense_1_RAW_FILTER_MASK & CapSense_1_MEDIAN_FILTER)
 385:.\Generated_Source\PSoC5/CapSense_1_CSHL.c ****         tempRaw = filteredRawData;
 386:.\Generated_Source\PSoC5/CapSense_1_CSHL.c ****         filteredRawData = CapSense_1_MedianFilter(filteredRawData, CapSense_1_rawFilterData1[sensor
 387:.\Generated_Source\PSoC5/CapSense_1_CSHL.c ****                                                         CapSense_1_rawFilterData2[sensor]);
 388:.\Generated_Source\PSoC5/CapSense_1_CSHL.c ****         CapSense_1_rawFilterData2[sensor] = CapSense_1_rawFilterData1[sensor];
 389:.\Generated_Source\PSoC5/CapSense_1_CSHL.c ****         CapSense_1_rawFilterData1[sensor] = tempRaw;
 390:.\Generated_Source\PSoC5/CapSense_1_CSHL.c ****         
 391:.\Generated_Source\PSoC5/CapSense_1_CSHL.c ****     #elif (CapSense_1_RAW_FILTER_MASK & CapSense_1_AVERAGING_FILTER)
 392:.\Generated_Source\PSoC5/CapSense_1_CSHL.c ****         tempRaw = filteredRawData;
 393:.\Generated_Source\PSoC5/CapSense_1_CSHL.c ****         filteredRawData = CapSense_1_AveragingFilter(filteredRawData, CapSense_1_rawFilterData1[sen
 394:.\Generated_Source\PSoC5/CapSense_1_CSHL.c ****                                                            CapSense_1_rawFilterData2[sensor]);
 395:.\Generated_Source\PSoC5/CapSense_1_CSHL.c ****         CapSense_1_rawFilterData2[sensor] = CapSense_1_rawFilterData1[sensor];
 396:.\Generated_Source\PSoC5/CapSense_1_CSHL.c ****         CapSense_1_rawFilterData1[sensor] = tempRaw;
 397:.\Generated_Source\PSoC5/CapSense_1_CSHL.c ****         
 398:.\Generated_Source\PSoC5/CapSense_1_CSHL.c ****     #elif (CapSense_1_RAW_FILTER_MASK & CapSense_1_IIR2_FILTER)
 399:.\Generated_Source\PSoC5/CapSense_1_CSHL.c ****         filteredRawData = CapSense_1_IIR2Filter(filteredRawData, CapSense_1_rawFilterData1[sensor])
 400:.\Generated_Source\PSoC5/CapSense_1_CSHL.c ****         CapSense_1_rawFilterData1[sensor] = filteredRawData;
 401:.\Generated_Source\PSoC5/CapSense_1_CSHL.c ****         
 402:.\Generated_Source\PSoC5/CapSense_1_CSHL.c ****     #elif (CapSense_1_RAW_FILTER_MASK & CapSense_1_IIR4_FILTER)
 403:.\Generated_Source\PSoC5/CapSense_1_CSHL.c ****         filteredRawData = CapSense_1_IIR4Filter(filteredRawData, CapSense_1_rawFilterData1[sensor])
 418              		.loc 1 403 0
 419 0024 FB79     		ldrb	r3, [r7, #7]	@ zero_extendqisi2
 420 0026 504A     		ldr	r2, .L29+12
 421 0028 32F81330 		ldrh	r3, [r2, r3, lsl #1]
 422 002c 7A8A     		ldrh	r2, [r7, #18]
 423 002e 1046     		mov	r0, r2
 424 0030 1946     		mov	r1, r3
 425 0032 FFF7FEFF 		bl	CapSense_1_IIR4Filter
 426 0036 0346     		mov	r3, r0
 427 0038 7B82     		strh	r3, [r7, #18]	@ movhi
 404:.\Generated_Source\PSoC5/CapSense_1_CSHL.c ****         CapSense_1_rawFilterData1[sensor] = filteredRawData;
 428              		.loc 1 404 0
 429 003a FB79     		ldrb	r3, [r7, #7]	@ zero_extendqisi2
 430 003c 4A49     		ldr	r1, .L29+12
 431 003e 7A8A     		ldrh	r2, [r7, #18]	@ movhi
 432 0040 21F81320 		strh	r2, [r1, r3, lsl #1]	@ movhi
 405:.\Generated_Source\PSoC5/CapSense_1_CSHL.c ****             
 406:.\Generated_Source\PSoC5/CapSense_1_CSHL.c ****     #elif (CapSense_1_RAW_FILTER_MASK & CapSense_1_JITTER_FILTER)
 407:.\Generated_Source\PSoC5/CapSense_1_CSHL.c ****         filteredRawData = CapSense_1_JitterFilter(filteredRawData, CapSense_1_rawFilterData1[sensor
 408:.\Generated_Source\PSoC5/CapSense_1_CSHL.c ****         CapSense_1_rawFilterData1[sensor] = filteredRawData;
 409:.\Generated_Source\PSoC5/CapSense_1_CSHL.c ****         
 410:.\Generated_Source\PSoC5/CapSense_1_CSHL.c ****     #elif (CapSense_1_RAW_FILTER_MASK & CapSense_1_IIR8_FILTER)
 411:.\Generated_Source\PSoC5/CapSense_1_CSHL.c ****         filteredRawData = CapSense_1_IIR8Filter(filteredRawData, CapSense_1_rawFilterData1[sensor])
 412:.\Generated_Source\PSoC5/CapSense_1_CSHL.c ****         CapSense_1_rawFilterData1[sensor] = filteredRawData;
 413:.\Generated_Source\PSoC5/CapSense_1_CSHL.c ****         
 414:.\Generated_Source\PSoC5/CapSense_1_CSHL.c ****     #elif (CapSense_1_RAW_FILTER_MASK & CapSense_1_IIR16_FILTER)
 415:.\Generated_Source\PSoC5/CapSense_1_CSHL.c ****         filteredRawData = CapSense_1_IIR16Filter(filteredRawData, CapSense_1_rawFilterData1[sensor]
 416:.\Generated_Source\PSoC5/CapSense_1_CSHL.c ****         CapSense_1_rawFilterData1[sensor] = filteredRawData;
 417:.\Generated_Source\PSoC5/CapSense_1_CSHL.c ****         
 418:.\Generated_Source\PSoC5/CapSense_1_CSHL.c ****     #else
 419:.\Generated_Source\PSoC5/CapSense_1_CSHL.c ****         /* No Raw filters */
ARM GAS  C:\Users\LUKASC~1\AppData\Local\Temp\ccTi8KiV.s 			page 16


 420:.\Generated_Source\PSoC5/CapSense_1_CSHL.c ****     #endif  /* (CapSense_1_RAW_FILTER_MASK & CapSense_1_MEDIAN_FILTER) */
 421:.\Generated_Source\PSoC5/CapSense_1_CSHL.c ****     
 422:.\Generated_Source\PSoC5/CapSense_1_CSHL.c ****     #if (CapSense_1_TUNING_METHOD == CapSense_1_AUTO_TUNING)
 423:.\Generated_Source\PSoC5/CapSense_1_CSHL.c ****         CapSense_1_CalculateThresholds(sensor);
 433              		.loc 1 423 0
 434 0044 FB79     		ldrb	r3, [r7, #7]	@ zero_extendqisi2
 435 0046 1846     		mov	r0, r3
 436 0048 FFF7FEFF 		bl	CapSense_1_CalculateThresholds
 424:.\Generated_Source\PSoC5/CapSense_1_CSHL.c ****     #endif /* (CapSense_1_TUNING_METHOD == CapSense_1_AUTO_TUNING) */
 425:.\Generated_Source\PSoC5/CapSense_1_CSHL.c **** 
 426:.\Generated_Source\PSoC5/CapSense_1_CSHL.c **** 
 427:.\Generated_Source\PSoC5/CapSense_1_CSHL.c ****     /* Baseline calculation */
 428:.\Generated_Source\PSoC5/CapSense_1_CSHL.c ****     /* Calculate difference RawData[cur] - Baseline[prev] */
 429:.\Generated_Source\PSoC5/CapSense_1_CSHL.c ****     if(filteredRawData >= CapSense_1_sensorBaseline[sensor])
 437              		.loc 1 429 0
 438 004c FB79     		ldrb	r3, [r7, #7]	@ zero_extendqisi2
 439 004e 474A     		ldr	r2, .L29+16
 440 0050 32F81330 		ldrh	r3, [r2, r3, lsl #1]
 441 0054 7A8A     		ldrh	r2, [r7, #18]
 442 0056 9A42     		cmp	r2, r3
 443 0058 09D3     		bcc	.L18
 430:.\Generated_Source\PSoC5/CapSense_1_CSHL.c ****     {
 431:.\Generated_Source\PSoC5/CapSense_1_CSHL.c ****         tempRaw = filteredRawData - CapSense_1_sensorBaseline[sensor];
 444              		.loc 1 431 0
 445 005a FB79     		ldrb	r3, [r7, #7]	@ zero_extendqisi2
 446 005c 434A     		ldr	r2, .L29+16
 447 005e 32F81330 		ldrh	r3, [r2, r3, lsl #1]
 448 0062 7A8A     		ldrh	r2, [r7, #18]	@ movhi
 449 0064 D31A     		subs	r3, r2, r3
 450 0066 FB82     		strh	r3, [r7, #22]	@ movhi
 432:.\Generated_Source\PSoC5/CapSense_1_CSHL.c ****         widget = 1u;    /* Positive difference - Calculate the Signal */
 451              		.loc 1 432 0
 452 0068 0123     		movs	r3, #1
 453 006a 7B75     		strb	r3, [r7, #21]
 454 006c 08E0     		b	.L19
 455              	.L18:
 433:.\Generated_Source\PSoC5/CapSense_1_CSHL.c ****     }
 434:.\Generated_Source\PSoC5/CapSense_1_CSHL.c ****     else
 435:.\Generated_Source\PSoC5/CapSense_1_CSHL.c ****     {
 436:.\Generated_Source\PSoC5/CapSense_1_CSHL.c ****         tempRaw = CapSense_1_sensorBaseline[sensor] - filteredRawData;
 456              		.loc 1 436 0
 457 006e FB79     		ldrb	r3, [r7, #7]	@ zero_extendqisi2
 458 0070 3E4A     		ldr	r2, .L29+16
 459 0072 32F81320 		ldrh	r2, [r2, r3, lsl #1]
 460 0076 7B8A     		ldrh	r3, [r7, #18]	@ movhi
 461 0078 D31A     		subs	r3, r2, r3
 462 007a FB82     		strh	r3, [r7, #22]	@ movhi
 437:.\Generated_Source\PSoC5/CapSense_1_CSHL.c ****         widget = 0u;    /* Negative difference - Do NOT calculate the Signal */
 463              		.loc 1 437 0
 464 007c 0023     		movs	r3, #0
 465 007e 7B75     		strb	r3, [r7, #21]
 466              	.L19:
 438:.\Generated_Source\PSoC5/CapSense_1_CSHL.c ****     }
 439:.\Generated_Source\PSoC5/CapSense_1_CSHL.c **** 
 440:.\Generated_Source\PSoC5/CapSense_1_CSHL.c ****     if((widget == 0u) && (tempRaw > (uint16) CapSense_1_NEGATIVE_NOISE_THRESHOLD))
 467              		.loc 1 440 0
 468 0080 7B7D     		ldrb	r3, [r7, #21]	@ zero_extendqisi2
ARM GAS  C:\Users\LUKASC~1\AppData\Local\Temp\ccTi8KiV.s 			page 17


 469 0082 002B     		cmp	r3, #0
 470 0084 18D1     		bne	.L20
 471              		.loc 1 440 0 is_stmt 0 discriminator 1
 472 0086 FB8A     		ldrh	r3, [r7, #22]
 473 0088 142B     		cmp	r3, #20
 474 008a 15D9     		bls	.L20
 441:.\Generated_Source\PSoC5/CapSense_1_CSHL.c ****     {
 442:.\Generated_Source\PSoC5/CapSense_1_CSHL.c ****         if(CapSense_1_lowBaselineResetCnt[sensor] >= CapSense_1_LOW_BASELINE_RESET)
 475              		.loc 1 442 0 is_stmt 1
 476 008c FB79     		ldrb	r3, [r7, #7]	@ zero_extendqisi2
 477 008e 384A     		ldr	r2, .L29+20
 478 0090 D35C     		ldrb	r3, [r2, r3]	@ zero_extendqisi2
 479 0092 042B     		cmp	r3, #4
 480 0094 08D9     		bls	.L21
 443:.\Generated_Source\PSoC5/CapSense_1_CSHL.c ****         {
 444:.\Generated_Source\PSoC5/CapSense_1_CSHL.c ****             CapSense_1_BaseInit(sensor);
 481              		.loc 1 444 0
 482 0096 FB79     		ldrb	r3, [r7, #7]	@ zero_extendqisi2
 483 0098 1846     		mov	r0, r3
 484 009a FFF7FEFF 		bl	CapSense_1_BaseInit
 445:.\Generated_Source\PSoC5/CapSense_1_CSHL.c ****             CapSense_1_lowBaselineResetCnt[sensor] = 0u;
 485              		.loc 1 445 0
 486 009e FB79     		ldrb	r3, [r7, #7]	@ zero_extendqisi2
 487 00a0 334A     		ldr	r2, .L29+20
 488 00a2 0021     		movs	r1, #0
 489 00a4 D154     		strb	r1, [r2, r3]
 442:.\Generated_Source\PSoC5/CapSense_1_CSHL.c ****         {
 490              		.loc 1 442 0
 491 00a6 3BE0     		b	.L23
 492              	.L21:
 446:.\Generated_Source\PSoC5/CapSense_1_CSHL.c ****         }
 447:.\Generated_Source\PSoC5/CapSense_1_CSHL.c ****         else
 448:.\Generated_Source\PSoC5/CapSense_1_CSHL.c ****         {
 449:.\Generated_Source\PSoC5/CapSense_1_CSHL.c ****             CapSense_1_lowBaselineResetCnt[sensor]++;
 493              		.loc 1 449 0
 494 00a8 FB79     		ldrb	r3, [r7, #7]	@ zero_extendqisi2
 495 00aa 314A     		ldr	r2, .L29+20
 496 00ac D25C     		ldrb	r2, [r2, r3]	@ zero_extendqisi2
 497 00ae 0132     		adds	r2, r2, #1
 498 00b0 D1B2     		uxtb	r1, r2
 499 00b2 2F4A     		ldr	r2, .L29+20
 500 00b4 D154     		strb	r1, [r2, r3]
 442:.\Generated_Source\PSoC5/CapSense_1_CSHL.c ****         {
 501              		.loc 1 442 0
 502 00b6 33E0     		b	.L23
 503              	.L20:
 450:.\Generated_Source\PSoC5/CapSense_1_CSHL.c ****         }
 451:.\Generated_Source\PSoC5/CapSense_1_CSHL.c ****     }
 452:.\Generated_Source\PSoC5/CapSense_1_CSHL.c ****     else
 453:.\Generated_Source\PSoC5/CapSense_1_CSHL.c ****     {
 454:.\Generated_Source\PSoC5/CapSense_1_CSHL.c ****         #if (CapSense_1_AUTO_RESET == CapSense_1_AUTO_RESET_DISABLE)
 455:.\Generated_Source\PSoC5/CapSense_1_CSHL.c ****             /* Update Baseline if lower that noiseThreshold */
 456:.\Generated_Source\PSoC5/CapSense_1_CSHL.c ****             if ( (tempRaw <= (uint16) noiseThreshold) || 
 504              		.loc 1 456 0
 505 00b8 3B7D     		ldrb	r3, [r7, #20]	@ zero_extendqisi2
 506 00ba 9BB2     		uxth	r3, r3
 507 00bc FA8A     		ldrh	r2, [r7, #22]
ARM GAS  C:\Users\LUKASC~1\AppData\Local\Temp\ccTi8KiV.s 			page 18


 508 00be 9A42     		cmp	r2, r3
 509 00c0 05D9     		bls	.L24
 510              		.loc 1 456 0 is_stmt 0 discriminator 1
 511 00c2 FB8A     		ldrh	r3, [r7, #22]
 512 00c4 132B     		cmp	r3, #19
 513 00c6 2BD8     		bhi	.L23
 457:.\Generated_Source\PSoC5/CapSense_1_CSHL.c ****                  ((tempRaw < (uint16) CapSense_1_NEGATIVE_NOISE_THRESHOLD)
 458:.\Generated_Source\PSoC5/CapSense_1_CSHL.c ****                    && (widget == 0u)))
 514              		.loc 1 458 0 is_stmt 1
 515 00c8 7B7D     		ldrb	r3, [r7, #21]	@ zero_extendqisi2
 516 00ca 002B     		cmp	r3, #0
 517 00cc 28D1     		bne	.L23
 518              	.L24:
 459:.\Generated_Source\PSoC5/CapSense_1_CSHL.c ****             {
 460:.\Generated_Source\PSoC5/CapSense_1_CSHL.c ****         #endif /* (CapSense_1_AUTO_RESET == CapSense_1_AUTO_RESET_DISABLE) */
 461:.\Generated_Source\PSoC5/CapSense_1_CSHL.c ****                 /* Make full Baseline 23 bits */
 462:.\Generated_Source\PSoC5/CapSense_1_CSHL.c ****                 calc = (uint32) CapSense_1_sensorBaseline[sensor] << 8u;
 519              		.loc 1 462 0
 520 00ce FB79     		ldrb	r3, [r7, #7]	@ zero_extendqisi2
 521 00d0 264A     		ldr	r2, .L29+16
 522 00d2 32F81330 		ldrh	r3, [r2, r3, lsl #1]
 523 00d6 1B02     		lsls	r3, r3, #8
 524 00d8 FB60     		str	r3, [r7, #12]
 463:.\Generated_Source\PSoC5/CapSense_1_CSHL.c ****                 calc |= (uint32) CapSense_1_sensorBaselineLow[sensor];
 525              		.loc 1 463 0
 526 00da FB79     		ldrb	r3, [r7, #7]	@ zero_extendqisi2
 527 00dc 254A     		ldr	r2, .L29+24
 528 00de D35C     		ldrb	r3, [r2, r3]	@ zero_extendqisi2
 529 00e0 1A46     		mov	r2, r3
 530 00e2 FB68     		ldr	r3, [r7, #12]
 531 00e4 1343     		orrs	r3, r3, r2
 532 00e6 FB60     		str	r3, [r7, #12]
 464:.\Generated_Source\PSoC5/CapSense_1_CSHL.c **** 
 465:.\Generated_Source\PSoC5/CapSense_1_CSHL.c ****                 /* Add Raw Data to Baseline */
 466:.\Generated_Source\PSoC5/CapSense_1_CSHL.c ****                 calc += filteredRawData;
 533              		.loc 1 466 0
 534 00e8 7B8A     		ldrh	r3, [r7, #18]
 535 00ea FA68     		ldr	r2, [r7, #12]
 536 00ec 1344     		add	r3, r3, r2
 537 00ee FB60     		str	r3, [r7, #12]
 467:.\Generated_Source\PSoC5/CapSense_1_CSHL.c **** 
 468:.\Generated_Source\PSoC5/CapSense_1_CSHL.c ****                 /* Sub the high Baseline */
 469:.\Generated_Source\PSoC5/CapSense_1_CSHL.c ****                 calc -= CapSense_1_sensorBaseline[sensor];
 538              		.loc 1 469 0
 539 00f0 FB79     		ldrb	r3, [r7, #7]	@ zero_extendqisi2
 540 00f2 1E4A     		ldr	r2, .L29+16
 541 00f4 32F81330 		ldrh	r3, [r2, r3, lsl #1]
 542 00f8 1A46     		mov	r2, r3
 543 00fa FB68     		ldr	r3, [r7, #12]
 544 00fc 9B1A     		subs	r3, r3, r2
 545 00fe FB60     		str	r3, [r7, #12]
 470:.\Generated_Source\PSoC5/CapSense_1_CSHL.c **** 
 471:.\Generated_Source\PSoC5/CapSense_1_CSHL.c ****                 /* Put Baseline and BaselineLow */
 472:.\Generated_Source\PSoC5/CapSense_1_CSHL.c ****                 CapSense_1_sensorBaseline[sensor] = ((uint16) (calc >> 8u));
 546              		.loc 1 472 0
 547 0100 FB79     		ldrb	r3, [r7, #7]	@ zero_extendqisi2
 548 0102 FA68     		ldr	r2, [r7, #12]
ARM GAS  C:\Users\LUKASC~1\AppData\Local\Temp\ccTi8KiV.s 			page 19


 549 0104 120A     		lsrs	r2, r2, #8
 550 0106 91B2     		uxth	r1, r2
 551 0108 184A     		ldr	r2, .L29+16
 552 010a 22F81310 		strh	r1, [r2, r3, lsl #1]	@ movhi
 473:.\Generated_Source\PSoC5/CapSense_1_CSHL.c ****                 CapSense_1_sensorBaselineLow[sensor] = ((uint8) calc);
 553              		.loc 1 473 0
 554 010e FB79     		ldrb	r3, [r7, #7]	@ zero_extendqisi2
 555 0110 FA68     		ldr	r2, [r7, #12]
 556 0112 D1B2     		uxtb	r1, r2
 557 0114 174A     		ldr	r2, .L29+24
 558 0116 D154     		strb	r1, [r2, r3]
 474:.\Generated_Source\PSoC5/CapSense_1_CSHL.c **** 
 475:.\Generated_Source\PSoC5/CapSense_1_CSHL.c ****                 CapSense_1_lowBaselineResetCnt[sensor] = 0u;
 559              		.loc 1 475 0
 560 0118 FB79     		ldrb	r3, [r7, #7]	@ zero_extendqisi2
 561 011a 154A     		ldr	r2, .L29+20
 562 011c 0021     		movs	r1, #0
 563 011e D154     		strb	r1, [r2, r3]
 564              	.L23:
 476:.\Generated_Source\PSoC5/CapSense_1_CSHL.c ****         #if (CapSense_1_AUTO_RESET == CapSense_1_AUTO_RESET_DISABLE)
 477:.\Generated_Source\PSoC5/CapSense_1_CSHL.c ****             }
 478:.\Generated_Source\PSoC5/CapSense_1_CSHL.c ****         #endif /* (CapSense_1_AUTO_RESET == CapSense_1_AUTO_RESET_DISABLE) */
 479:.\Generated_Source\PSoC5/CapSense_1_CSHL.c ****     }
 480:.\Generated_Source\PSoC5/CapSense_1_CSHL.c **** 
 481:.\Generated_Source\PSoC5/CapSense_1_CSHL.c ****     /* Calculate Signal if possitive difference > noiseThreshold */
 482:.\Generated_Source\PSoC5/CapSense_1_CSHL.c ****     if((tempRaw > (uint16) noiseThreshold) && (widget != 0u))
 565              		.loc 1 482 0
 566 0120 3B7D     		ldrb	r3, [r7, #20]	@ zero_extendqisi2
 567 0122 9BB2     		uxth	r3, r3
 568 0124 FA8A     		ldrh	r2, [r7, #22]
 569 0126 9A42     		cmp	r2, r3
 570 0128 10D9     		bls	.L25
 571              		.loc 1 482 0 is_stmt 0 discriminator 1
 572 012a 7B7D     		ldrb	r3, [r7, #21]	@ zero_extendqisi2
 573 012c 002B     		cmp	r3, #0
 574 012e 0DD0     		beq	.L25
 483:.\Generated_Source\PSoC5/CapSense_1_CSHL.c ****     {
 484:.\Generated_Source\PSoC5/CapSense_1_CSHL.c ****         #if (CapSense_1_SIGNAL_SIZE == CapSense_1_SIGNAL_SIZE_UINT8)
 485:.\Generated_Source\PSoC5/CapSense_1_CSHL.c ****             /* Over flow defence for uint8 */
 486:.\Generated_Source\PSoC5/CapSense_1_CSHL.c ****             if (tempRaw > 0xFFu)
 575              		.loc 1 486 0 is_stmt 1
 576 0130 FB8A     		ldrh	r3, [r7, #22]
 577 0132 FF2B     		cmp	r3, #255
 578 0134 04D9     		bls	.L26
 487:.\Generated_Source\PSoC5/CapSense_1_CSHL.c ****             {
 488:.\Generated_Source\PSoC5/CapSense_1_CSHL.c ****                 CapSense_1_sensorSignal[sensor] = 0xFFu;
 579              		.loc 1 488 0
 580 0136 FB79     		ldrb	r3, [r7, #7]	@ zero_extendqisi2
 581 0138 0F4A     		ldr	r2, .L29+28
 582 013a FF21     		movs	r1, #255
 583 013c D154     		strb	r1, [r2, r3]
 486:.\Generated_Source\PSoC5/CapSense_1_CSHL.c ****             {
 584              		.loc 1 486 0
 585 013e 09E0     		b	.L17
 586              	.L26:
 489:.\Generated_Source\PSoC5/CapSense_1_CSHL.c ****             }    
 490:.\Generated_Source\PSoC5/CapSense_1_CSHL.c ****             else 
ARM GAS  C:\Users\LUKASC~1\AppData\Local\Temp\ccTi8KiV.s 			page 20


 491:.\Generated_Source\PSoC5/CapSense_1_CSHL.c ****             {
 492:.\Generated_Source\PSoC5/CapSense_1_CSHL.c ****                 CapSense_1_sensorSignal[sensor] = ((uint8) tempRaw);
 587              		.loc 1 492 0
 588 0140 FB79     		ldrb	r3, [r7, #7]	@ zero_extendqisi2
 589 0142 FA8A     		ldrh	r2, [r7, #22]	@ movhi
 590 0144 D1B2     		uxtb	r1, r2
 591 0146 0C4A     		ldr	r2, .L29+28
 592 0148 D154     		strb	r1, [r2, r3]
 486:.\Generated_Source\PSoC5/CapSense_1_CSHL.c ****             {
 593              		.loc 1 486 0
 594 014a 03E0     		b	.L17
 595              	.L25:
 493:.\Generated_Source\PSoC5/CapSense_1_CSHL.c ****             }
 494:.\Generated_Source\PSoC5/CapSense_1_CSHL.c ****         #else
 495:.\Generated_Source\PSoC5/CapSense_1_CSHL.c ****             CapSense_1_sensorSignal[sensor] = ((uint16) tempRaw);
 496:.\Generated_Source\PSoC5/CapSense_1_CSHL.c ****         #endif  /* (CapSense_1_SIGNAL_SIZE == CapSense_1_SIGNAL_SIZE_UINT8) */
 497:.\Generated_Source\PSoC5/CapSense_1_CSHL.c ****     }
 498:.\Generated_Source\PSoC5/CapSense_1_CSHL.c ****     else
 499:.\Generated_Source\PSoC5/CapSense_1_CSHL.c ****     {
 500:.\Generated_Source\PSoC5/CapSense_1_CSHL.c ****         /* Signal is zero */
 501:.\Generated_Source\PSoC5/CapSense_1_CSHL.c ****         CapSense_1_sensorSignal[sensor] = 0u;
 596              		.loc 1 501 0
 597 014c FB79     		ldrb	r3, [r7, #7]	@ zero_extendqisi2
 598 014e 0A4A     		ldr	r2, .L29+28
 599 0150 0021     		movs	r1, #0
 600 0152 D154     		strb	r1, [r2, r3]
 601              	.L17:
 502:.\Generated_Source\PSoC5/CapSense_1_CSHL.c ****     }
 503:.\Generated_Source\PSoC5/CapSense_1_CSHL.c **** 
 504:.\Generated_Source\PSoC5/CapSense_1_CSHL.c ****     #if (CapSense_1_TOTAL_GENERICS_COUNT)
 505:.\Generated_Source\PSoC5/CapSense_1_CSHL.c ****         /* Exclude generic widget */
 506:.\Generated_Source\PSoC5/CapSense_1_CSHL.c ****         }
 507:.\Generated_Source\PSoC5/CapSense_1_CSHL.c ****     #endif  /* CapSense_1_TOTAL_GENERICS_COUNT */
 508:.\Generated_Source\PSoC5/CapSense_1_CSHL.c **** }
 602              		.loc 1 508 0
 603 0154 1837     		adds	r7, r7, #24
 604              		.cfi_def_cfa_offset 8
 605 0156 BD46     		mov	sp, r7
 606              		.cfi_def_cfa_register 13
 607              		@ sp needed
 608 0158 80BD     		pop	{r7, pc}
 609              	.L30:
 610 015a 00BF     		.align	2
 611              	.L29:
 612 015c 00000000 		.word	CapSense_1_widgetNumber
 613 0160 00000000 		.word	CapSense_1_noiseThreshold
 614 0164 00000000 		.word	CapSense_1_sensorRaw
 615 0168 00000000 		.word	CapSense_1_rawFilterData1
 616 016c 00000000 		.word	CapSense_1_sensorBaseline
 617 0170 00000000 		.word	CapSense_1_lowBaselineResetCnt
 618 0174 00000000 		.word	CapSense_1_sensorBaselineLow
 619 0178 00000000 		.word	CapSense_1_sensorSignal
 620              		.cfi_endproc
 621              	.LFE4:
 622              		.size	CapSense_1_UpdateSensorBaseline, .-CapSense_1_UpdateSensorBaseline
 623              		.section	.text.CapSense_1_UpdateEnabledBaselines,"ax",%progbits
 624              		.align	2
ARM GAS  C:\Users\LUKASC~1\AppData\Local\Temp\ccTi8KiV.s 			page 21


 625              		.global	CapSense_1_UpdateEnabledBaselines
 626              		.thumb
 627              		.thumb_func
 628              		.type	CapSense_1_UpdateEnabledBaselines, %function
 629              	CapSense_1_UpdateEnabledBaselines:
 630              	.LFB5:
 509:.\Generated_Source\PSoC5/CapSense_1_CSHL.c **** 
 510:.\Generated_Source\PSoC5/CapSense_1_CSHL.c **** 
 511:.\Generated_Source\PSoC5/CapSense_1_CSHL.c **** /*******************************************************************************
 512:.\Generated_Source\PSoC5/CapSense_1_CSHL.c **** * Function Name: CapSense_1_UpdateEnabledBaselines
 513:.\Generated_Source\PSoC5/CapSense_1_CSHL.c **** ********************************************************************************
 514:.\Generated_Source\PSoC5/CapSense_1_CSHL.c **** *
 515:.\Generated_Source\PSoC5/CapSense_1_CSHL.c **** * Summary:
 516:.\Generated_Source\PSoC5/CapSense_1_CSHL.c **** *  Checks CapSense_1_sensorEnableMask[] array and calls the 
 517:.\Generated_Source\PSoC5/CapSense_1_CSHL.c **** *  CapSense_1_UpdateSensorBaseline function to update the baselines 
 518:.\Generated_Source\PSoC5/CapSense_1_CSHL.c **** *  for enabled sensors.
 519:.\Generated_Source\PSoC5/CapSense_1_CSHL.c **** *
 520:.\Generated_Source\PSoC5/CapSense_1_CSHL.c **** * Parameters:
 521:.\Generated_Source\PSoC5/CapSense_1_CSHL.c **** *  None
 522:.\Generated_Source\PSoC5/CapSense_1_CSHL.c **** *
 523:.\Generated_Source\PSoC5/CapSense_1_CSHL.c **** * Return:
 524:.\Generated_Source\PSoC5/CapSense_1_CSHL.c **** *  None
 525:.\Generated_Source\PSoC5/CapSense_1_CSHL.c **** *
 526:.\Generated_Source\PSoC5/CapSense_1_CSHL.c **** * Global Variables:
 527:.\Generated_Source\PSoC5/CapSense_1_CSHL.c **** *  CapSense_1_sensorEnableMask[] - used to store the sensor scanning 
 528:.\Generated_Source\PSoC5/CapSense_1_CSHL.c **** *  state.
 529:.\Generated_Source\PSoC5/CapSense_1_CSHL.c **** *  CapSense_1_sensorEnableMask[0] contains the masked bits for sensors 
 530:.\Generated_Source\PSoC5/CapSense_1_CSHL.c **** *   0 through 7 (sensor 0 is bit 0, sensor 1 is bit 1).
 531:.\Generated_Source\PSoC5/CapSense_1_CSHL.c **** *  CapSense_1_sensorEnableMask[1] contains the masked bits for 
 532:.\Generated_Source\PSoC5/CapSense_1_CSHL.c **** *  sensors 8 through 15 (if needed), and so on.
 533:.\Generated_Source\PSoC5/CapSense_1_CSHL.c **** *  0 - sensor doesn't scan by CapSense_1_ScanEnabledWidgets().
 534:.\Generated_Source\PSoC5/CapSense_1_CSHL.c **** *  1 - sensor scans by CapSense_1_ScanEnabledWidgets().
 535:.\Generated_Source\PSoC5/CapSense_1_CSHL.c **** *
 536:.\Generated_Source\PSoC5/CapSense_1_CSHL.c **** * Reentrant:
 537:.\Generated_Source\PSoC5/CapSense_1_CSHL.c **** *  No
 538:.\Generated_Source\PSoC5/CapSense_1_CSHL.c **** *
 539:.\Generated_Source\PSoC5/CapSense_1_CSHL.c **** *******************************************************************************/
 540:.\Generated_Source\PSoC5/CapSense_1_CSHL.c ****  void CapSense_1_UpdateEnabledBaselines(void)
 541:.\Generated_Source\PSoC5/CapSense_1_CSHL.c ****                                  
 542:.\Generated_Source\PSoC5/CapSense_1_CSHL.c **** {
 631              		.loc 1 542 0
 632              		.cfi_startproc
 633              		@ args = 0, pretend = 0, frame = 8
 634              		@ frame_needed = 1, uses_anonymous_args = 0
 635 0000 80B5     		push	{r7, lr}
 636              		.cfi_def_cfa_offset 8
 637              		.cfi_offset 7, -8
 638              		.cfi_offset 14, -4
 639 0002 82B0     		sub	sp, sp, #8
 640              		.cfi_def_cfa_offset 16
 641 0004 00AF     		add	r7, sp, #0
 642              		.cfi_def_cfa_register 7
 543:.\Generated_Source\PSoC5/CapSense_1_CSHL.c ****     uint8 i;
 544:.\Generated_Source\PSoC5/CapSense_1_CSHL.c ****     uint8 pos;
 545:.\Generated_Source\PSoC5/CapSense_1_CSHL.c ****     uint8 enMask;
 546:.\Generated_Source\PSoC5/CapSense_1_CSHL.c ****     
 547:.\Generated_Source\PSoC5/CapSense_1_CSHL.c ****     for(i = 0u; i < CapSense_1_TOTAL_SENSOR_COUNT; i++)
ARM GAS  C:\Users\LUKASC~1\AppData\Local\Temp\ccTi8KiV.s 			page 22


 643              		.loc 1 547 0
 644 0006 0023     		movs	r3, #0
 645 0008 FB71     		strb	r3, [r7, #7]
 646 000a 18E0     		b	.L32
 647              	.L34:
 548:.\Generated_Source\PSoC5/CapSense_1_CSHL.c ****     {
 549:.\Generated_Source\PSoC5/CapSense_1_CSHL.c ****         pos = (i >> 3u);
 648              		.loc 1 549 0
 649 000c FB79     		ldrb	r3, [r7, #7]	@ zero_extendqisi2
 650 000e DB08     		lsrs	r3, r3, #3
 651 0010 BB71     		strb	r3, [r7, #6]
 550:.\Generated_Source\PSoC5/CapSense_1_CSHL.c ****         enMask = (uint8)(0x01u << (i & 0x07u));
 652              		.loc 1 550 0
 653 0012 FB79     		ldrb	r3, [r7, #7]	@ zero_extendqisi2
 654 0014 03F00703 		and	r3, r3, #7
 655 0018 0122     		movs	r2, #1
 656 001a 02FA03F3 		lsl	r3, r2, r3
 657 001e 7B71     		strb	r3, [r7, #5]
 551:.\Generated_Source\PSoC5/CapSense_1_CSHL.c ****         if((CapSense_1_sensorEnableMask[pos] & enMask) != 0u)
 658              		.loc 1 551 0
 659 0020 BB79     		ldrb	r3, [r7, #6]	@ zero_extendqisi2
 660 0022 0A4A     		ldr	r2, .L35
 661 0024 D25C     		ldrb	r2, [r2, r3]	@ zero_extendqisi2
 662 0026 7B79     		ldrb	r3, [r7, #5]
 663 0028 1340     		ands	r3, r3, r2
 664 002a DBB2     		uxtb	r3, r3
 665 002c 002B     		cmp	r3, #0
 666 002e 03D0     		beq	.L33
 552:.\Generated_Source\PSoC5/CapSense_1_CSHL.c ****         {
 553:.\Generated_Source\PSoC5/CapSense_1_CSHL.c ****             CapSense_1_UpdateSensorBaseline(i);
 667              		.loc 1 553 0
 668 0030 FB79     		ldrb	r3, [r7, #7]	@ zero_extendqisi2
 669 0032 1846     		mov	r0, r3
 670 0034 FFF7FEFF 		bl	CapSense_1_UpdateSensorBaseline
 671              	.L33:
 547:.\Generated_Source\PSoC5/CapSense_1_CSHL.c ****     {
 672              		.loc 1 547 0 discriminator 2
 673 0038 FB79     		ldrb	r3, [r7, #7]	@ zero_extendqisi2
 674 003a 0133     		adds	r3, r3, #1
 675 003c FB71     		strb	r3, [r7, #7]
 676              	.L32:
 547:.\Generated_Source\PSoC5/CapSense_1_CSHL.c ****     {
 677              		.loc 1 547 0 is_stmt 0 discriminator 1
 678 003e FB79     		ldrb	r3, [r7, #7]	@ zero_extendqisi2
 679 0040 152B     		cmp	r3, #21
 680 0042 E3D9     		bls	.L34
 554:.\Generated_Source\PSoC5/CapSense_1_CSHL.c ****         }
 555:.\Generated_Source\PSoC5/CapSense_1_CSHL.c ****     }
 556:.\Generated_Source\PSoC5/CapSense_1_CSHL.c **** }
 681              		.loc 1 556 0 is_stmt 1
 682 0044 0837     		adds	r7, r7, #8
 683              		.cfi_def_cfa_offset 8
 684 0046 BD46     		mov	sp, r7
 685              		.cfi_def_cfa_register 13
 686              		@ sp needed
 687 0048 80BD     		pop	{r7, pc}
 688              	.L36:
ARM GAS  C:\Users\LUKASC~1\AppData\Local\Temp\ccTi8KiV.s 			page 23


 689 004a 00BF     		.align	2
 690              	.L35:
 691 004c 00000000 		.word	CapSense_1_sensorEnableMask
 692              		.cfi_endproc
 693              	.LFE5:
 694              		.size	CapSense_1_UpdateEnabledBaselines, .-CapSense_1_UpdateEnabledBaselines
 695              		.section	.text.CapSense_1_CheckIsSensorActive,"ax",%progbits
 696              		.align	2
 697              		.global	CapSense_1_CheckIsSensorActive
 698              		.thumb
 699              		.thumb_func
 700              		.type	CapSense_1_CheckIsSensorActive, %function
 701              	CapSense_1_CheckIsSensorActive:
 702              	.LFB6:
 557:.\Generated_Source\PSoC5/CapSense_1_CSHL.c **** 
 558:.\Generated_Source\PSoC5/CapSense_1_CSHL.c **** 
 559:.\Generated_Source\PSoC5/CapSense_1_CSHL.c **** /*******************************************************************************
 560:.\Generated_Source\PSoC5/CapSense_1_CSHL.c **** * Function Name: CapSense_1_CheckIsSensorActive
 561:.\Generated_Source\PSoC5/CapSense_1_CSHL.c **** ********************************************************************************
 562:.\Generated_Source\PSoC5/CapSense_1_CSHL.c **** *
 563:.\Generated_Source\PSoC5/CapSense_1_CSHL.c **** * Summary:
 564:.\Generated_Source\PSoC5/CapSense_1_CSHL.c **** *  Compares the CapSense_1_SensorSignal[sensor] array element to finger
 565:.\Generated_Source\PSoC5/CapSense_1_CSHL.c **** *  threshold of widget it belongs to. The hysteresis and debounce are taken into 
 566:.\Generated_Source\PSoC5/CapSense_1_CSHL.c **** *  account. The hysteresis is added or subtracted from the finger threshold 
 567:.\Generated_Source\PSoC5/CapSense_1_CSHL.c **** *  based on whether the sensor is currently active. 
 568:.\Generated_Source\PSoC5/CapSense_1_CSHL.c **** *  If the sensor is active, the threshold is lowered by the hysteresis amount.
 569:.\Generated_Source\PSoC5/CapSense_1_CSHL.c **** *  If the sensor is inactive, the threshold is raised by the hysteresis amount.
 570:.\Generated_Source\PSoC5/CapSense_1_CSHL.c **** *  The debounce counter added to the sensor active transition.
 571:.\Generated_Source\PSoC5/CapSense_1_CSHL.c **** *  This function updates CapSense_1_SensorOnMask[] array element.
 572:.\Generated_Source\PSoC5/CapSense_1_CSHL.c **** *
 573:.\Generated_Source\PSoC5/CapSense_1_CSHL.c **** * Parameters:
 574:.\Generated_Source\PSoC5/CapSense_1_CSHL.c **** *  sensor:  Sensor number.
 575:.\Generated_Source\PSoC5/CapSense_1_CSHL.c **** *
 576:.\Generated_Source\PSoC5/CapSense_1_CSHL.c **** * Return:
 577:.\Generated_Source\PSoC5/CapSense_1_CSHL.c **** *  Returns sensor state 1 if active, 0 if not active.
 578:.\Generated_Source\PSoC5/CapSense_1_CSHL.c **** *
 579:.\Generated_Source\PSoC5/CapSense_1_CSHL.c **** * Global Variables:
 580:.\Generated_Source\PSoC5/CapSense_1_CSHL.c **** *  CapSense_1_sensorSignal[]      - used to store diffence between 
 581:.\Generated_Source\PSoC5/CapSense_1_CSHL.c **** *  current value of raw data and previous value of baseline.
 582:.\Generated_Source\PSoC5/CapSense_1_CSHL.c **** *  CapSense_1_debounceCounter[]   - used to store current debounce 
 583:.\Generated_Source\PSoC5/CapSense_1_CSHL.c **** *  counter of sensor. Widget which has this parameter are buttons, matrix 
 584:.\Generated_Source\PSoC5/CapSense_1_CSHL.c **** *  buttons, proximity, guard. All other widgets haven't debounce parameter
 585:.\Generated_Source\PSoC5/CapSense_1_CSHL.c **** *  and use the last element of this array with value 0 (it means no debounce).
 586:.\Generated_Source\PSoC5/CapSense_1_CSHL.c **** *  CapSense_1_sensorOnMask[] - used to store sensors on/off state.
 587:.\Generated_Source\PSoC5/CapSense_1_CSHL.c **** *  CapSense_1_sensorOnMask[0] contains the masked bits for sensors 
 588:.\Generated_Source\PSoC5/CapSense_1_CSHL.c **** *   0 through 7 (sensor 0 is bit 0, sensor 1 is bit 1).
 589:.\Generated_Source\PSoC5/CapSense_1_CSHL.c **** *  CapSense_1_sensorEnableMask[1] contains the masked bits for 
 590:.\Generated_Source\PSoC5/CapSense_1_CSHL.c **** *  sensors 8 through 15 (if needed), and so on.
 591:.\Generated_Source\PSoC5/CapSense_1_CSHL.c **** *  0 - sensor is inactive.
 592:.\Generated_Source\PSoC5/CapSense_1_CSHL.c **** *  1 - sensor is active.
 593:.\Generated_Source\PSoC5/CapSense_1_CSHL.c **** *
 594:.\Generated_Source\PSoC5/CapSense_1_CSHL.c **** * Reentrant:
 595:.\Generated_Source\PSoC5/CapSense_1_CSHL.c **** *  No
 596:.\Generated_Source\PSoC5/CapSense_1_CSHL.c **** *
 597:.\Generated_Source\PSoC5/CapSense_1_CSHL.c **** *******************************************************************************/
 598:.\Generated_Source\PSoC5/CapSense_1_CSHL.c **** uint8 CapSense_1_CheckIsSensorActive(uint8 sensor)
 599:.\Generated_Source\PSoC5/CapSense_1_CSHL.c ****                                   
ARM GAS  C:\Users\LUKASC~1\AppData\Local\Temp\ccTi8KiV.s 			page 24


 600:.\Generated_Source\PSoC5/CapSense_1_CSHL.c **** {
 703              		.loc 1 600 0
 704              		.cfi_startproc
 705              		@ args = 0, pretend = 0, frame = 16
 706              		@ frame_needed = 1, uses_anonymous_args = 0
 707              		@ link register save eliminated.
 708 0000 80B4     		push	{r7}
 709              		.cfi_def_cfa_offset 4
 710              		.cfi_offset 7, -4
 711 0002 85B0     		sub	sp, sp, #20
 712              		.cfi_def_cfa_offset 24
 713 0004 00AF     		add	r7, sp, #0
 714              		.cfi_def_cfa_register 7
 715 0006 0346     		mov	r3, r0
 716 0008 FB71     		strb	r3, [r7, #7]
 601:.\Generated_Source\PSoC5/CapSense_1_CSHL.c ****     uint8 debounceIndex;
 602:.\Generated_Source\PSoC5/CapSense_1_CSHL.c ****     /* Get On/Off mask */
 603:.\Generated_Source\PSoC5/CapSense_1_CSHL.c ****     uint8 pos = (sensor >> 3u);
 717              		.loc 1 603 0
 718 000a FB79     		ldrb	r3, [r7, #7]	@ zero_extendqisi2
 719 000c DB08     		lsrs	r3, r3, #3
 720 000e BB73     		strb	r3, [r7, #14]
 604:.\Generated_Source\PSoC5/CapSense_1_CSHL.c ****     uint8 onMask = 0x01u << (sensor & 0x07u);
 721              		.loc 1 604 0
 722 0010 FB79     		ldrb	r3, [r7, #7]	@ zero_extendqisi2
 723 0012 03F00703 		and	r3, r3, #7
 724 0016 0122     		movs	r2, #1
 725 0018 02FA03F3 		lsl	r3, r2, r3
 726 001c 7B73     		strb	r3, [r7, #13]
 605:.\Generated_Source\PSoC5/CapSense_1_CSHL.c ****     /* Prepare to find debounce counter index */
 606:.\Generated_Source\PSoC5/CapSense_1_CSHL.c ****     uint8 widget = CapSense_1_widgetNumber[sensor];
 727              		.loc 1 606 0
 728 001e FB79     		ldrb	r3, [r7, #7]	@ zero_extendqisi2
 729 0020 384A     		ldr	r2, .L48
 730 0022 D35C     		ldrb	r3, [r2, r3]
 731 0024 3B73     		strb	r3, [r7, #12]
 607:.\Generated_Source\PSoC5/CapSense_1_CSHL.c ****     uint8 fingerThreshold = CapSense_1_fingerThreshold[widget];
 732              		.loc 1 607 0
 733 0026 3B7B     		ldrb	r3, [r7, #12]	@ zero_extendqisi2
 734 0028 374A     		ldr	r2, .L48+4
 735 002a D35C     		ldrb	r3, [r2, r3]
 736 002c FB72     		strb	r3, [r7, #11]
 608:.\Generated_Source\PSoC5/CapSense_1_CSHL.c ****     uint8 hysteresis = CapSense_1_hysteresis[widget];
 737              		.loc 1 608 0
 738 002e 3B7B     		ldrb	r3, [r7, #12]	@ zero_extendqisi2
 739 0030 364A     		ldr	r2, .L48+8
 740 0032 D35C     		ldrb	r3, [r2, r3]
 741 0034 BB72     		strb	r3, [r7, #10]
 609:.\Generated_Source\PSoC5/CapSense_1_CSHL.c ****     uint8 debounce = CapSense_1_debounce[widget];
 742              		.loc 1 609 0
 743 0036 3B7B     		ldrb	r3, [r7, #12]	@ zero_extendqisi2
 744 0038 354A     		ldr	r2, .L48+12
 745 003a D35C     		ldrb	r3, [r2, r3]
 746 003c 7B72     		strb	r3, [r7, #9]
 610:.\Generated_Source\PSoC5/CapSense_1_CSHL.c ****     
 611:.\Generated_Source\PSoC5/CapSense_1_CSHL.c ****     if (widget < CapSense_1_TOTAL_CENTROIDS_COUNT)
 747              		.loc 1 611 0
ARM GAS  C:\Users\LUKASC~1\AppData\Local\Temp\ccTi8KiV.s 			page 25


 748 003e 3B7B     		ldrb	r3, [r7, #12]	@ zero_extendqisi2
 749 0040 002B     		cmp	r3, #0
 750 0042 06D1     		bne	.L38
 612:.\Generated_Source\PSoC5/CapSense_1_CSHL.c ****     {
 613:.\Generated_Source\PSoC5/CapSense_1_CSHL.c ****         debounceIndex = CapSense_1_UNUSED_DEBOUNCE_COUNTER_INDEX;
 751              		.loc 1 613 0
 752 0044 0323     		movs	r3, #3
 753 0046 FB73     		strb	r3, [r7, #15]
 614:.\Generated_Source\PSoC5/CapSense_1_CSHL.c ****         CapSense_1_debounceCounter[debounceIndex] = 1u;
 754              		.loc 1 614 0
 755 0048 FB7B     		ldrb	r3, [r7, #15]	@ zero_extendqisi2
 756 004a 324A     		ldr	r2, .L48+16
 757 004c 0121     		movs	r1, #1
 758 004e D154     		strb	r1, [r2, r3]
 759 0050 02E0     		b	.L39
 760              	.L38:
 615:.\Generated_Source\PSoC5/CapSense_1_CSHL.c ****     }
 616:.\Generated_Source\PSoC5/CapSense_1_CSHL.c ****     else
 617:.\Generated_Source\PSoC5/CapSense_1_CSHL.c ****     {
 618:.\Generated_Source\PSoC5/CapSense_1_CSHL.c ****         debounceIndex = widget - (CapSense_1_END_OF_TOUCH_PAD_INDEX + 1);
 761              		.loc 1 618 0
 762 0052 3B7B     		ldrb	r3, [r7, #12]
 763 0054 013B     		subs	r3, r3, #1
 764 0056 FB73     		strb	r3, [r7, #15]
 765              	.L39:
 619:.\Generated_Source\PSoC5/CapSense_1_CSHL.c ****     }
 620:.\Generated_Source\PSoC5/CapSense_1_CSHL.c **** 
 621:.\Generated_Source\PSoC5/CapSense_1_CSHL.c ****     
 622:.\Generated_Source\PSoC5/CapSense_1_CSHL.c ****     /* Was on */
 623:.\Generated_Source\PSoC5/CapSense_1_CSHL.c ****     if (0u != (CapSense_1_sensorOnMask[pos] & onMask))
 766              		.loc 1 623 0
 767 0058 BB7B     		ldrb	r3, [r7, #14]	@ zero_extendqisi2
 768 005a 2F4A     		ldr	r2, .L48+20
 769 005c D25C     		ldrb	r2, [r2, r3]	@ zero_extendqisi2
 770 005e 7B7B     		ldrb	r3, [r7, #13]
 771 0060 1340     		ands	r3, r3, r2
 772 0062 DBB2     		uxtb	r3, r3
 773 0064 002B     		cmp	r3, #0
 774 0066 18D0     		beq	.L40
 624:.\Generated_Source\PSoC5/CapSense_1_CSHL.c ****     {
 625:.\Generated_Source\PSoC5/CapSense_1_CSHL.c ****         /* Hysteresis minus */
 626:.\Generated_Source\PSoC5/CapSense_1_CSHL.c ****         if (CapSense_1_sensorSignal[sensor] < (fingerThreshold - hysteresis))
 775              		.loc 1 626 0
 776 0068 FB79     		ldrb	r3, [r7, #7]	@ zero_extendqisi2
 777 006a 2C4A     		ldr	r2, .L48+24
 778 006c D35C     		ldrb	r3, [r2, r3]	@ zero_extendqisi2
 779 006e 1946     		mov	r1, r3
 780 0070 FA7A     		ldrb	r2, [r7, #11]	@ zero_extendqisi2
 781 0072 BB7A     		ldrb	r3, [r7, #10]	@ zero_extendqisi2
 782 0074 D31A     		subs	r3, r2, r3
 783 0076 9942     		cmp	r1, r3
 784 0078 32DA     		bge	.L42
 627:.\Generated_Source\PSoC5/CapSense_1_CSHL.c ****         {
 628:.\Generated_Source\PSoC5/CapSense_1_CSHL.c ****             CapSense_1_sensorOnMask[pos] &= (uint8)~onMask;
 785              		.loc 1 628 0
 786 007a BB7B     		ldrb	r3, [r7, #14]	@ zero_extendqisi2
 787 007c BA7B     		ldrb	r2, [r7, #14]	@ zero_extendqisi2
ARM GAS  C:\Users\LUKASC~1\AppData\Local\Temp\ccTi8KiV.s 			page 26


 788 007e 2649     		ldr	r1, .L48+20
 789 0080 895C     		ldrb	r1, [r1, r2]	@ zero_extendqisi2
 790 0082 7A7B     		ldrb	r2, [r7, #13]
 791 0084 D243     		mvns	r2, r2
 792 0086 D2B2     		uxtb	r2, r2
 793 0088 0A40     		ands	r2, r2, r1
 794 008a D1B2     		uxtb	r1, r2
 795 008c 224A     		ldr	r2, .L48+20
 796 008e D154     		strb	r1, [r2, r3]
 629:.\Generated_Source\PSoC5/CapSense_1_CSHL.c ****             CapSense_1_debounceCounter[debounceIndex] = debounce; 
 797              		.loc 1 629 0
 798 0090 FB7B     		ldrb	r3, [r7, #15]	@ zero_extendqisi2
 799 0092 2049     		ldr	r1, .L48+16
 800 0094 7A7A     		ldrb	r2, [r7, #9]
 801 0096 CA54     		strb	r2, [r1, r3]
 802 0098 22E0     		b	.L42
 803              	.L40:
 630:.\Generated_Source\PSoC5/CapSense_1_CSHL.c ****         }
 631:.\Generated_Source\PSoC5/CapSense_1_CSHL.c ****     }
 632:.\Generated_Source\PSoC5/CapSense_1_CSHL.c ****     else    /* Was off */
 633:.\Generated_Source\PSoC5/CapSense_1_CSHL.c ****     {
 634:.\Generated_Source\PSoC5/CapSense_1_CSHL.c ****         /* Hysteresis plus */
 635:.\Generated_Source\PSoC5/CapSense_1_CSHL.c ****         if (CapSense_1_sensorSignal[sensor] > (fingerThreshold + hysteresis))
 804              		.loc 1 635 0
 805 009a FB79     		ldrb	r3, [r7, #7]	@ zero_extendqisi2
 806 009c 1F4A     		ldr	r2, .L48+24
 807 009e D35C     		ldrb	r3, [r2, r3]	@ zero_extendqisi2
 808 00a0 1946     		mov	r1, r3
 809 00a2 FA7A     		ldrb	r2, [r7, #11]	@ zero_extendqisi2
 810 00a4 BB7A     		ldrb	r3, [r7, #10]	@ zero_extendqisi2
 811 00a6 1344     		add	r3, r3, r2
 812 00a8 9942     		cmp	r1, r3
 813 00aa 15DD     		ble	.L43
 636:.\Generated_Source\PSoC5/CapSense_1_CSHL.c ****         {
 637:.\Generated_Source\PSoC5/CapSense_1_CSHL.c ****             /* Sensor active, decrement debounce counter */
 638:.\Generated_Source\PSoC5/CapSense_1_CSHL.c ****             if (CapSense_1_debounceCounter[debounceIndex] <= 1u)
 814              		.loc 1 638 0
 815 00ac FB7B     		ldrb	r3, [r7, #15]	@ zero_extendqisi2
 816 00ae 194A     		ldr	r2, .L48+16
 817 00b0 D35C     		ldrb	r3, [r2, r3]	@ zero_extendqisi2
 818 00b2 012B     		cmp	r3, #1
 819 00b4 08D8     		bhi	.L44
 639:.\Generated_Source\PSoC5/CapSense_1_CSHL.c ****             {
 640:.\Generated_Source\PSoC5/CapSense_1_CSHL.c ****                 CapSense_1_sensorOnMask[pos] |= onMask; 
 820              		.loc 1 640 0
 821 00b6 BB7B     		ldrb	r3, [r7, #14]	@ zero_extendqisi2
 822 00b8 BA7B     		ldrb	r2, [r7, #14]	@ zero_extendqisi2
 823 00ba 1749     		ldr	r1, .L48+20
 824 00bc 895C     		ldrb	r1, [r1, r2]	@ zero_extendqisi2
 825 00be 7A7B     		ldrb	r2, [r7, #13]
 826 00c0 0A43     		orrs	r2, r2, r1
 827 00c2 D1B2     		uxtb	r1, r2
 828 00c4 144A     		ldr	r2, .L48+20
 829 00c6 D154     		strb	r1, [r2, r3]
 830              	.L44:
 641:.\Generated_Source\PSoC5/CapSense_1_CSHL.c ****             }
 642:.\Generated_Source\PSoC5/CapSense_1_CSHL.c ****             CapSense_1_debounceCounter[debounceIndex]--;
ARM GAS  C:\Users\LUKASC~1\AppData\Local\Temp\ccTi8KiV.s 			page 27


 831              		.loc 1 642 0
 832 00c8 FB7B     		ldrb	r3, [r7, #15]	@ zero_extendqisi2
 833 00ca 124A     		ldr	r2, .L48+16
 834 00cc D25C     		ldrb	r2, [r2, r3]	@ zero_extendqisi2
 835 00ce 013A     		subs	r2, r2, #1
 836 00d0 D1B2     		uxtb	r1, r2
 837 00d2 104A     		ldr	r2, .L48+16
 838 00d4 D154     		strb	r1, [r2, r3]
 839 00d6 03E0     		b	.L42
 840              	.L43:
 643:.\Generated_Source\PSoC5/CapSense_1_CSHL.c ****         }
 644:.\Generated_Source\PSoC5/CapSense_1_CSHL.c ****         else
 645:.\Generated_Source\PSoC5/CapSense_1_CSHL.c ****         {
 646:.\Generated_Source\PSoC5/CapSense_1_CSHL.c ****             /* Sensor inactive - reset Debounce counter */
 647:.\Generated_Source\PSoC5/CapSense_1_CSHL.c ****             CapSense_1_debounceCounter[debounceIndex] = debounce;
 841              		.loc 1 647 0
 842 00d8 FB7B     		ldrb	r3, [r7, #15]	@ zero_extendqisi2
 843 00da 0E49     		ldr	r1, .L48+16
 844 00dc 7A7A     		ldrb	r2, [r7, #9]
 845 00de CA54     		strb	r2, [r1, r3]
 846              	.L42:
 648:.\Generated_Source\PSoC5/CapSense_1_CSHL.c ****         }
 649:.\Generated_Source\PSoC5/CapSense_1_CSHL.c ****     }
 650:.\Generated_Source\PSoC5/CapSense_1_CSHL.c ****     
 651:.\Generated_Source\PSoC5/CapSense_1_CSHL.c ****     return (((CapSense_1_sensorOnMask[pos] & onMask) != 0u) ? 1u : 0u);
 847              		.loc 1 651 0
 848 00e0 BB7B     		ldrb	r3, [r7, #14]	@ zero_extendqisi2
 849 00e2 0D4A     		ldr	r2, .L48+20
 850 00e4 D25C     		ldrb	r2, [r2, r3]	@ zero_extendqisi2
 851 00e6 7B7B     		ldrb	r3, [r7, #13]
 852 00e8 1340     		ands	r3, r3, r2
 853 00ea DBB2     		uxtb	r3, r3
 854 00ec 002B     		cmp	r3, #0
 855 00ee 01D0     		beq	.L45
 856              		.loc 1 651 0 is_stmt 0 discriminator 1
 857 00f0 0123     		movs	r3, #1
 858 00f2 00E0     		b	.L46
 859              	.L45:
 860              		.loc 1 651 0 discriminator 2
 861 00f4 0023     		movs	r3, #0
 862              	.L46:
 652:.\Generated_Source\PSoC5/CapSense_1_CSHL.c **** }
 863              		.loc 1 652 0 is_stmt 1 discriminator 4
 864 00f6 1846     		mov	r0, r3
 865 00f8 1437     		adds	r7, r7, #20
 866              		.cfi_def_cfa_offset 4
 867 00fa BD46     		mov	sp, r7
 868              		.cfi_def_cfa_register 13
 869              		@ sp needed
 870 00fc 5DF8047B 		ldr	r7, [sp], #4
 871              		.cfi_restore 7
 872              		.cfi_def_cfa_offset 0
 873 0100 7047     		bx	lr
 874              	.L49:
 875 0102 00BF     		.align	2
 876              	.L48:
 877 0104 00000000 		.word	CapSense_1_widgetNumber
ARM GAS  C:\Users\LUKASC~1\AppData\Local\Temp\ccTi8KiV.s 			page 28


 878 0108 00000000 		.word	CapSense_1_fingerThreshold
 879 010c 00000000 		.word	CapSense_1_hysteresis
 880 0110 00000000 		.word	CapSense_1_debounce
 881 0114 00000000 		.word	CapSense_1_debounceCounter
 882 0118 00000000 		.word	CapSense_1_sensorOnMask
 883 011c 00000000 		.word	CapSense_1_sensorSignal
 884              		.cfi_endproc
 885              	.LFE6:
 886              		.size	CapSense_1_CheckIsSensorActive, .-CapSense_1_CheckIsSensorActive
 887              		.section	.text.CapSense_1_CheckIsWidgetActive,"ax",%progbits
 888              		.align	2
 889              		.global	CapSense_1_CheckIsWidgetActive
 890              		.thumb
 891              		.thumb_func
 892              		.type	CapSense_1_CheckIsWidgetActive, %function
 893              	CapSense_1_CheckIsWidgetActive:
 894              	.LFB7:
 653:.\Generated_Source\PSoC5/CapSense_1_CSHL.c **** 
 654:.\Generated_Source\PSoC5/CapSense_1_CSHL.c **** 
 655:.\Generated_Source\PSoC5/CapSense_1_CSHL.c **** /*******************************************************************************
 656:.\Generated_Source\PSoC5/CapSense_1_CSHL.c **** * Function Name: CapSense_1_CheckIsWidgetActive
 657:.\Generated_Source\PSoC5/CapSense_1_CSHL.c **** ********************************************************************************
 658:.\Generated_Source\PSoC5/CapSense_1_CSHL.c **** *
 659:.\Generated_Source\PSoC5/CapSense_1_CSHL.c **** * Summary:
 660:.\Generated_Source\PSoC5/CapSense_1_CSHL.c **** *  Use function CapSense_1_CheckIsSensorActive() to update 
 661:.\Generated_Source\PSoC5/CapSense_1_CSHL.c **** *  CapSense_1_sensorOnMask[] for all sensors within the widget.
 662:.\Generated_Source\PSoC5/CapSense_1_CSHL.c **** *  If one of sensors within widget is active the function return that widget is 
 663:.\Generated_Source\PSoC5/CapSense_1_CSHL.c **** *  active.
 664:.\Generated_Source\PSoC5/CapSense_1_CSHL.c **** *  The touch pad and matrix buttons widgets need to have active sensor within 
 665:.\Generated_Source\PSoC5/CapSense_1_CSHL.c **** *  col and row to return widget active status.
 666:.\Generated_Source\PSoC5/CapSense_1_CSHL.c **** *
 667:.\Generated_Source\PSoC5/CapSense_1_CSHL.c **** * Parameters:
 668:.\Generated_Source\PSoC5/CapSense_1_CSHL.c **** *  widget:  widget number.
 669:.\Generated_Source\PSoC5/CapSense_1_CSHL.c **** *
 670:.\Generated_Source\PSoC5/CapSense_1_CSHL.c **** * Return:
 671:.\Generated_Source\PSoC5/CapSense_1_CSHL.c **** *  Returns widget sensor state 1 if one or more sensors within widget is/are 
 672:.\Generated_Source\PSoC5/CapSense_1_CSHL.c **** *  active, 0 if all sensors within widget are inactive.
 673:.\Generated_Source\PSoC5/CapSense_1_CSHL.c **** *
 674:.\Generated_Source\PSoC5/CapSense_1_CSHL.c **** * Reentrant:
 675:.\Generated_Source\PSoC5/CapSense_1_CSHL.c **** *  No
 676:.\Generated_Source\PSoC5/CapSense_1_CSHL.c **** *
 677:.\Generated_Source\PSoC5/CapSense_1_CSHL.c **** *******************************************************************************/
 678:.\Generated_Source\PSoC5/CapSense_1_CSHL.c **** uint8 CapSense_1_CheckIsWidgetActive(uint8 widget)
 679:.\Generated_Source\PSoC5/CapSense_1_CSHL.c ****                                  
 680:.\Generated_Source\PSoC5/CapSense_1_CSHL.c **** {
 895              		.loc 1 680 0
 896              		.cfi_startproc
 897              		@ args = 0, pretend = 0, frame = 16
 898              		@ frame_needed = 1, uses_anonymous_args = 0
 899 0000 80B5     		push	{r7, lr}
 900              		.cfi_def_cfa_offset 8
 901              		.cfi_offset 7, -8
 902              		.cfi_offset 14, -4
 903 0002 84B0     		sub	sp, sp, #16
 904              		.cfi_def_cfa_offset 24
 905 0004 00AF     		add	r7, sp, #0
 906              		.cfi_def_cfa_register 7
ARM GAS  C:\Users\LUKASC~1\AppData\Local\Temp\ccTi8KiV.s 			page 29


 907 0006 0346     		mov	r3, r0
 908 0008 FB71     		strb	r3, [r7, #7]
 681:.\Generated_Source\PSoC5/CapSense_1_CSHL.c ****     uint8 rawIndex = CapSense_1_rawDataIndex[widget];
 909              		.loc 1 681 0
 910 000a FB79     		ldrb	r3, [r7, #7]	@ zero_extendqisi2
 911 000c 0F4A     		ldr	r2, .L54
 912 000e D35C     		ldrb	r3, [r2, r3]
 913 0010 FB73     		strb	r3, [r7, #15]
 682:.\Generated_Source\PSoC5/CapSense_1_CSHL.c ****     uint8 numberOfSensors = CapSense_1_numberOfSensors[widget] + rawIndex;
 914              		.loc 1 682 0
 915 0012 FB79     		ldrb	r3, [r7, #7]	@ zero_extendqisi2
 916 0014 0E4A     		ldr	r2, .L54+4
 917 0016 D25C     		ldrb	r2, [r2, r3]	@ zero_extendqisi2
 918 0018 FB7B     		ldrb	r3, [r7, #15]
 919 001a 1344     		add	r3, r3, r2
 920 001c 7B73     		strb	r3, [r7, #13]
 683:.\Generated_Source\PSoC5/CapSense_1_CSHL.c ****     uint8 state = 0u;
 921              		.loc 1 683 0
 922 001e 0023     		movs	r3, #0
 923 0020 BB73     		strb	r3, [r7, #14]
 924              	.L52:
 684:.\Generated_Source\PSoC5/CapSense_1_CSHL.c **** 
 685:.\Generated_Source\PSoC5/CapSense_1_CSHL.c ****     /* Check all sensors of the widget */
 686:.\Generated_Source\PSoC5/CapSense_1_CSHL.c ****     do
 687:.\Generated_Source\PSoC5/CapSense_1_CSHL.c ****     {
 688:.\Generated_Source\PSoC5/CapSense_1_CSHL.c ****         if(CapSense_1_CheckIsSensorActive(rawIndex) != 0u)
 925              		.loc 1 688 0
 926 0022 FB7B     		ldrb	r3, [r7, #15]	@ zero_extendqisi2
 927 0024 1846     		mov	r0, r3
 928 0026 FFF7FEFF 		bl	CapSense_1_CheckIsSensorActive
 929 002a 0346     		mov	r3, r0
 930 002c 002B     		cmp	r3, #0
 931 002e 01D0     		beq	.L51
 689:.\Generated_Source\PSoC5/CapSense_1_CSHL.c ****         {
 690:.\Generated_Source\PSoC5/CapSense_1_CSHL.c ****             state = CapSense_1_SENSOR_1_IS_ACTIVE;
 932              		.loc 1 690 0
 933 0030 0123     		movs	r3, #1
 934 0032 BB73     		strb	r3, [r7, #14]
 935              	.L51:
 691:.\Generated_Source\PSoC5/CapSense_1_CSHL.c ****         }
 692:.\Generated_Source\PSoC5/CapSense_1_CSHL.c ****         rawIndex++;
 936              		.loc 1 692 0
 937 0034 FB7B     		ldrb	r3, [r7, #15]	@ zero_extendqisi2
 938 0036 0133     		adds	r3, r3, #1
 939 0038 FB73     		strb	r3, [r7, #15]
 693:.\Generated_Source\PSoC5/CapSense_1_CSHL.c ****     }
 694:.\Generated_Source\PSoC5/CapSense_1_CSHL.c ****     while(rawIndex < numberOfSensors);
 940              		.loc 1 694 0
 941 003a FA7B     		ldrb	r2, [r7, #15]	@ zero_extendqisi2
 942 003c 7B7B     		ldrb	r3, [r7, #13]	@ zero_extendqisi2
 943 003e 9A42     		cmp	r2, r3
 944 0040 EFD3     		bcc	.L52
 695:.\Generated_Source\PSoC5/CapSense_1_CSHL.c ****     
 696:.\Generated_Source\PSoC5/CapSense_1_CSHL.c **** 
 697:.\Generated_Source\PSoC5/CapSense_1_CSHL.c ****     
 698:.\Generated_Source\PSoC5/CapSense_1_CSHL.c ****     return (state);
 945              		.loc 1 698 0
ARM GAS  C:\Users\LUKASC~1\AppData\Local\Temp\ccTi8KiV.s 			page 30


 946 0042 BB7B     		ldrb	r3, [r7, #14]	@ zero_extendqisi2
 699:.\Generated_Source\PSoC5/CapSense_1_CSHL.c **** }
 947              		.loc 1 699 0
 948 0044 1846     		mov	r0, r3
 949 0046 1037     		adds	r7, r7, #16
 950              		.cfi_def_cfa_offset 8
 951 0048 BD46     		mov	sp, r7
 952              		.cfi_def_cfa_register 13
 953              		@ sp needed
 954 004a 80BD     		pop	{r7, pc}
 955              	.L55:
 956              		.align	2
 957              	.L54:
 958 004c 00000000 		.word	CapSense_1_rawDataIndex
 959 0050 00000000 		.word	CapSense_1_numberOfSensors
 960              		.cfi_endproc
 961              	.LFE7:
 962              		.size	CapSense_1_CheckIsWidgetActive, .-CapSense_1_CheckIsWidgetActive
 963              		.section	.text.CapSense_1_CheckIsAnyWidgetActive,"ax",%progbits
 964              		.align	2
 965              		.global	CapSense_1_CheckIsAnyWidgetActive
 966              		.thumb
 967              		.thumb_func
 968              		.type	CapSense_1_CheckIsAnyWidgetActive, %function
 969              	CapSense_1_CheckIsAnyWidgetActive:
 970              	.LFB8:
 700:.\Generated_Source\PSoC5/CapSense_1_CSHL.c **** 
 701:.\Generated_Source\PSoC5/CapSense_1_CSHL.c **** 
 702:.\Generated_Source\PSoC5/CapSense_1_CSHL.c **** /*******************************************************************************
 703:.\Generated_Source\PSoC5/CapSense_1_CSHL.c **** * Function Name: CapSense_1_CheckIsAnyWidgetActive
 704:.\Generated_Source\PSoC5/CapSense_1_CSHL.c **** ********************************************************************************
 705:.\Generated_Source\PSoC5/CapSense_1_CSHL.c **** *
 706:.\Generated_Source\PSoC5/CapSense_1_CSHL.c **** * Summary:
 707:.\Generated_Source\PSoC5/CapSense_1_CSHL.c **** *  Compares all sensors of the CapSense_1_signal[] array to their finger 
 708:.\Generated_Source\PSoC5/CapSense_1_CSHL.c **** *  threshold. Calls CapSense_1_CheckIsWidgetActive() for each widget so 
 709:.\Generated_Source\PSoC5/CapSense_1_CSHL.c **** *  the CapSense_1_SensorOnMask[] array is up to date after calling this 
 710:.\Generated_Source\PSoC5/CapSense_1_CSHL.c **** *  function.
 711:.\Generated_Source\PSoC5/CapSense_1_CSHL.c **** *
 712:.\Generated_Source\PSoC5/CapSense_1_CSHL.c **** * Parameters:
 713:.\Generated_Source\PSoC5/CapSense_1_CSHL.c **** *  widget:  widget number.
 714:.\Generated_Source\PSoC5/CapSense_1_CSHL.c **** *
 715:.\Generated_Source\PSoC5/CapSense_1_CSHL.c **** * Return:
 716:.\Generated_Source\PSoC5/CapSense_1_CSHL.c **** *  Returns 1 if any widget is active, 0 none of widgets are active.
 717:.\Generated_Source\PSoC5/CapSense_1_CSHL.c **** *
 718:.\Generated_Source\PSoC5/CapSense_1_CSHL.c **** * Reentrant:
 719:.\Generated_Source\PSoC5/CapSense_1_CSHL.c **** *  No
 720:.\Generated_Source\PSoC5/CapSense_1_CSHL.c **** *
 721:.\Generated_Source\PSoC5/CapSense_1_CSHL.c **** *******************************************************************************/
 722:.\Generated_Source\PSoC5/CapSense_1_CSHL.c **** uint8 CapSense_1_CheckIsAnyWidgetActive(void)
 723:.\Generated_Source\PSoC5/CapSense_1_CSHL.c ****                                  
 724:.\Generated_Source\PSoC5/CapSense_1_CSHL.c **** {
 971              		.loc 1 724 0
 972              		.cfi_startproc
 973              		@ args = 0, pretend = 0, frame = 8
 974              		@ frame_needed = 1, uses_anonymous_args = 0
 975 0000 80B5     		push	{r7, lr}
 976              		.cfi_def_cfa_offset 8
ARM GAS  C:\Users\LUKASC~1\AppData\Local\Temp\ccTi8KiV.s 			page 31


 977              		.cfi_offset 7, -8
 978              		.cfi_offset 14, -4
 979 0002 82B0     		sub	sp, sp, #8
 980              		.cfi_def_cfa_offset 16
 981 0004 00AF     		add	r7, sp, #0
 982              		.cfi_def_cfa_register 7
 725:.\Generated_Source\PSoC5/CapSense_1_CSHL.c ****     uint8 i;
 726:.\Generated_Source\PSoC5/CapSense_1_CSHL.c ****     uint8 state = 0u;
 983              		.loc 1 726 0
 984 0006 0023     		movs	r3, #0
 985 0008 BB71     		strb	r3, [r7, #6]
 727:.\Generated_Source\PSoC5/CapSense_1_CSHL.c ****     
 728:.\Generated_Source\PSoC5/CapSense_1_CSHL.c ****     for(i = 0u; i < CapSense_1_TOTAL_WIDGET_COUNT; i++)
 986              		.loc 1 728 0
 987 000a 0023     		movs	r3, #0
 988 000c FB71     		strb	r3, [r7, #7]
 989 000e 0BE0     		b	.L57
 990              	.L59:
 729:.\Generated_Source\PSoC5/CapSense_1_CSHL.c ****     {
 730:.\Generated_Source\PSoC5/CapSense_1_CSHL.c ****         if (CapSense_1_CheckIsWidgetActive(i) != 0u)
 991              		.loc 1 730 0
 992 0010 FB79     		ldrb	r3, [r7, #7]	@ zero_extendqisi2
 993 0012 1846     		mov	r0, r3
 994 0014 FFF7FEFF 		bl	CapSense_1_CheckIsWidgetActive
 995 0018 0346     		mov	r3, r0
 996 001a 002B     		cmp	r3, #0
 997 001c 01D0     		beq	.L58
 731:.\Generated_Source\PSoC5/CapSense_1_CSHL.c ****         {
 732:.\Generated_Source\PSoC5/CapSense_1_CSHL.c ****             state = CapSense_1_WIDGET_IS_ACTIVE;
 998              		.loc 1 732 0
 999 001e 0123     		movs	r3, #1
 1000 0020 BB71     		strb	r3, [r7, #6]
 1001              	.L58:
 728:.\Generated_Source\PSoC5/CapSense_1_CSHL.c ****     {
 1002              		.loc 1 728 0 discriminator 2
 1003 0022 FB79     		ldrb	r3, [r7, #7]	@ zero_extendqisi2
 1004 0024 0133     		adds	r3, r3, #1
 1005 0026 FB71     		strb	r3, [r7, #7]
 1006              	.L57:
 728:.\Generated_Source\PSoC5/CapSense_1_CSHL.c ****     {
 1007              		.loc 1 728 0 is_stmt 0 discriminator 1
 1008 0028 FB79     		ldrb	r3, [r7, #7]	@ zero_extendqisi2
 1009 002a 032B     		cmp	r3, #3
 1010 002c F0D9     		bls	.L59
 733:.\Generated_Source\PSoC5/CapSense_1_CSHL.c ****         }
 734:.\Generated_Source\PSoC5/CapSense_1_CSHL.c ****     }
 735:.\Generated_Source\PSoC5/CapSense_1_CSHL.c ****     
 736:.\Generated_Source\PSoC5/CapSense_1_CSHL.c **** 
 737:.\Generated_Source\PSoC5/CapSense_1_CSHL.c ****     return (state);
 1011              		.loc 1 737 0 is_stmt 1
 1012 002e BB79     		ldrb	r3, [r7, #6]	@ zero_extendqisi2
 738:.\Generated_Source\PSoC5/CapSense_1_CSHL.c **** }
 1013              		.loc 1 738 0
 1014 0030 1846     		mov	r0, r3
 1015 0032 0837     		adds	r7, r7, #8
 1016              		.cfi_def_cfa_offset 8
 1017 0034 BD46     		mov	sp, r7
ARM GAS  C:\Users\LUKASC~1\AppData\Local\Temp\ccTi8KiV.s 			page 32


 1018              		.cfi_def_cfa_register 13
 1019              		@ sp needed
 1020 0036 80BD     		pop	{r7, pc}
 1021              		.cfi_endproc
 1022              	.LFE8:
 1023              		.size	CapSense_1_CheckIsAnyWidgetActive, .-CapSense_1_CheckIsAnyWidgetActive
 1024              		.section	.text.CapSense_1_EnableWidget,"ax",%progbits
 1025              		.align	2
 1026              		.global	CapSense_1_EnableWidget
 1027              		.thumb
 1028              		.thumb_func
 1029              		.type	CapSense_1_EnableWidget, %function
 1030              	CapSense_1_EnableWidget:
 1031              	.LFB9:
 739:.\Generated_Source\PSoC5/CapSense_1_CSHL.c **** 
 740:.\Generated_Source\PSoC5/CapSense_1_CSHL.c **** 
 741:.\Generated_Source\PSoC5/CapSense_1_CSHL.c **** /*******************************************************************************
 742:.\Generated_Source\PSoC5/CapSense_1_CSHL.c **** * Function Name: CapSense_1_EnableWidget
 743:.\Generated_Source\PSoC5/CapSense_1_CSHL.c **** ********************************************************************************
 744:.\Generated_Source\PSoC5/CapSense_1_CSHL.c **** *
 745:.\Generated_Source\PSoC5/CapSense_1_CSHL.c **** * Summary:
 746:.\Generated_Source\PSoC5/CapSense_1_CSHL.c **** *  Enable all widget elements (sensors) to scanning process.
 747:.\Generated_Source\PSoC5/CapSense_1_CSHL.c **** *
 748:.\Generated_Source\PSoC5/CapSense_1_CSHL.c **** * Parameters:
 749:.\Generated_Source\PSoC5/CapSense_1_CSHL.c **** *  widget:  widget number.
 750:.\Generated_Source\PSoC5/CapSense_1_CSHL.c **** *
 751:.\Generated_Source\PSoC5/CapSense_1_CSHL.c **** * Return:
 752:.\Generated_Source\PSoC5/CapSense_1_CSHL.c **** *  None
 753:.\Generated_Source\PSoC5/CapSense_1_CSHL.c **** *
 754:.\Generated_Source\PSoC5/CapSense_1_CSHL.c **** * Global Variables:
 755:.\Generated_Source\PSoC5/CapSense_1_CSHL.c **** *  CapSense_1_sensorEnableMask[] - used to store the sensor scanning 
 756:.\Generated_Source\PSoC5/CapSense_1_CSHL.c **** *  state.
 757:.\Generated_Source\PSoC5/CapSense_1_CSHL.c **** *  CapSense_1_sensorEnableMask[0] contains the masked bits for sensors 
 758:.\Generated_Source\PSoC5/CapSense_1_CSHL.c **** *  0 through 7 (sensor 0 is bit 0, sensor 1 is bit 1).
 759:.\Generated_Source\PSoC5/CapSense_1_CSHL.c **** *  CapSense_1_sensorEnableMask[1] contains the masked bits for 
 760:.\Generated_Source\PSoC5/CapSense_1_CSHL.c **** *  sensors 8 through 15 (if needed), and so on.
 761:.\Generated_Source\PSoC5/CapSense_1_CSHL.c **** *  0 - sensor doesn't scan by CapSense_1_ScanEnabledWidgets().
 762:.\Generated_Source\PSoC5/CapSense_1_CSHL.c **** *  1 - sensor scans by CapSense_1_ScanEnabledWidgets().
 763:.\Generated_Source\PSoC5/CapSense_1_CSHL.c **** *
 764:.\Generated_Source\PSoC5/CapSense_1_CSHL.c **** * Reentrant:
 765:.\Generated_Source\PSoC5/CapSense_1_CSHL.c **** *  No
 766:.\Generated_Source\PSoC5/CapSense_1_CSHL.c **** *
 767:.\Generated_Source\PSoC5/CapSense_1_CSHL.c **** *******************************************************************************/
 768:.\Generated_Source\PSoC5/CapSense_1_CSHL.c **** void CapSense_1_EnableWidget(uint8 widget)
 769:.\Generated_Source\PSoC5/CapSense_1_CSHL.c ****                                    
 770:.\Generated_Source\PSoC5/CapSense_1_CSHL.c **** {
 1032              		.loc 1 770 0
 1033              		.cfi_startproc
 1034              		@ args = 0, pretend = 0, frame = 16
 1035              		@ frame_needed = 1, uses_anonymous_args = 0
 1036              		@ link register save eliminated.
 1037 0000 80B4     		push	{r7}
 1038              		.cfi_def_cfa_offset 4
 1039              		.cfi_offset 7, -4
 1040 0002 85B0     		sub	sp, sp, #20
 1041              		.cfi_def_cfa_offset 24
 1042 0004 00AF     		add	r7, sp, #0
ARM GAS  C:\Users\LUKASC~1\AppData\Local\Temp\ccTi8KiV.s 			page 33


 1043              		.cfi_def_cfa_register 7
 1044 0006 0346     		mov	r3, r0
 1045 0008 FB71     		strb	r3, [r7, #7]
 771:.\Generated_Source\PSoC5/CapSense_1_CSHL.c ****     uint8 pos;
 772:.\Generated_Source\PSoC5/CapSense_1_CSHL.c ****     uint8 enMask;
 773:.\Generated_Source\PSoC5/CapSense_1_CSHL.c ****     uint8 rawIndex = CapSense_1_rawDataIndex[widget];
 1046              		.loc 1 773 0
 1047 000a FB79     		ldrb	r3, [r7, #7]	@ zero_extendqisi2
 1048 000c 134A     		ldr	r2, .L63
 1049 000e D35C     		ldrb	r3, [r2, r3]
 1050 0010 FB73     		strb	r3, [r7, #15]
 774:.\Generated_Source\PSoC5/CapSense_1_CSHL.c ****     uint8 numberOfSensors = CapSense_1_numberOfSensors[widget] + rawIndex;
 1051              		.loc 1 774 0
 1052 0012 FB79     		ldrb	r3, [r7, #7]	@ zero_extendqisi2
 1053 0014 124A     		ldr	r2, .L63+4
 1054 0016 D25C     		ldrb	r2, [r2, r3]	@ zero_extendqisi2
 1055 0018 FB7B     		ldrb	r3, [r7, #15]
 1056 001a 1344     		add	r3, r3, r2
 1057 001c BB73     		strb	r3, [r7, #14]
 1058              	.L62:
 775:.\Generated_Source\PSoC5/CapSense_1_CSHL.c ****     
 776:.\Generated_Source\PSoC5/CapSense_1_CSHL.c ****     /* Enable all sensors of the widget */
 777:.\Generated_Source\PSoC5/CapSense_1_CSHL.c ****     do
 778:.\Generated_Source\PSoC5/CapSense_1_CSHL.c ****     {
 779:.\Generated_Source\PSoC5/CapSense_1_CSHL.c ****         pos = (rawIndex >> 3u);
 1059              		.loc 1 779 0 discriminator 1
 1060 001e FB7B     		ldrb	r3, [r7, #15]	@ zero_extendqisi2
 1061 0020 DB08     		lsrs	r3, r3, #3
 1062 0022 7B73     		strb	r3, [r7, #13]
 780:.\Generated_Source\PSoC5/CapSense_1_CSHL.c ****         enMask = 0x01u << (rawIndex & 0x07u);
 1063              		.loc 1 780 0 discriminator 1
 1064 0024 FB7B     		ldrb	r3, [r7, #15]	@ zero_extendqisi2
 1065 0026 03F00703 		and	r3, r3, #7
 1066 002a 0122     		movs	r2, #1
 1067 002c 02FA03F3 		lsl	r3, r2, r3
 1068 0030 3B73     		strb	r3, [r7, #12]
 781:.\Generated_Source\PSoC5/CapSense_1_CSHL.c ****         
 782:.\Generated_Source\PSoC5/CapSense_1_CSHL.c ****         CapSense_1_sensorEnableMask[pos] |= enMask;
 1069              		.loc 1 782 0 discriminator 1
 1070 0032 7B7B     		ldrb	r3, [r7, #13]	@ zero_extendqisi2
 1071 0034 7A7B     		ldrb	r2, [r7, #13]	@ zero_extendqisi2
 1072 0036 0B49     		ldr	r1, .L63+8
 1073 0038 895C     		ldrb	r1, [r1, r2]	@ zero_extendqisi2
 1074 003a 3A7B     		ldrb	r2, [r7, #12]
 1075 003c 0A43     		orrs	r2, r2, r1
 1076 003e D1B2     		uxtb	r1, r2
 1077 0040 084A     		ldr	r2, .L63+8
 1078 0042 D154     		strb	r1, [r2, r3]
 783:.\Generated_Source\PSoC5/CapSense_1_CSHL.c ****         rawIndex++;
 1079              		.loc 1 783 0 discriminator 1
 1080 0044 FB7B     		ldrb	r3, [r7, #15]	@ zero_extendqisi2
 1081 0046 0133     		adds	r3, r3, #1
 1082 0048 FB73     		strb	r3, [r7, #15]
 784:.\Generated_Source\PSoC5/CapSense_1_CSHL.c ****     }
 785:.\Generated_Source\PSoC5/CapSense_1_CSHL.c ****     while(rawIndex < numberOfSensors);
 1083              		.loc 1 785 0 discriminator 1
 1084 004a FA7B     		ldrb	r2, [r7, #15]	@ zero_extendqisi2
ARM GAS  C:\Users\LUKASC~1\AppData\Local\Temp\ccTi8KiV.s 			page 34


 1085 004c BB7B     		ldrb	r3, [r7, #14]	@ zero_extendqisi2
 1086 004e 9A42     		cmp	r2, r3
 1087 0050 E5D3     		bcc	.L62
 786:.\Generated_Source\PSoC5/CapSense_1_CSHL.c ****     
 787:.\Generated_Source\PSoC5/CapSense_1_CSHL.c **** 
 788:.\Generated_Source\PSoC5/CapSense_1_CSHL.c **** }
 1088              		.loc 1 788 0
 1089 0052 1437     		adds	r7, r7, #20
 1090              		.cfi_def_cfa_offset 4
 1091 0054 BD46     		mov	sp, r7
 1092              		.cfi_def_cfa_register 13
 1093              		@ sp needed
 1094 0056 5DF8047B 		ldr	r7, [sp], #4
 1095              		.cfi_restore 7
 1096              		.cfi_def_cfa_offset 0
 1097 005a 7047     		bx	lr
 1098              	.L64:
 1099              		.align	2
 1100              	.L63:
 1101 005c 00000000 		.word	CapSense_1_rawDataIndex
 1102 0060 00000000 		.word	CapSense_1_numberOfSensors
 1103 0064 00000000 		.word	CapSense_1_sensorEnableMask
 1104              		.cfi_endproc
 1105              	.LFE9:
 1106              		.size	CapSense_1_EnableWidget, .-CapSense_1_EnableWidget
 1107              		.section	.text.CapSense_1_DisableWidget,"ax",%progbits
 1108              		.align	2
 1109              		.global	CapSense_1_DisableWidget
 1110              		.thumb
 1111              		.thumb_func
 1112              		.type	CapSense_1_DisableWidget, %function
 1113              	CapSense_1_DisableWidget:
 1114              	.LFB10:
 789:.\Generated_Source\PSoC5/CapSense_1_CSHL.c **** 
 790:.\Generated_Source\PSoC5/CapSense_1_CSHL.c **** 
 791:.\Generated_Source\PSoC5/CapSense_1_CSHL.c **** /*******************************************************************************
 792:.\Generated_Source\PSoC5/CapSense_1_CSHL.c **** * Function Name: CapSense_1_DisableWidget
 793:.\Generated_Source\PSoC5/CapSense_1_CSHL.c **** ********************************************************************************
 794:.\Generated_Source\PSoC5/CapSense_1_CSHL.c **** *
 795:.\Generated_Source\PSoC5/CapSense_1_CSHL.c **** * Summary:
 796:.\Generated_Source\PSoC5/CapSense_1_CSHL.c **** *  Disable all widget elements (sensors) from scanning process.
 797:.\Generated_Source\PSoC5/CapSense_1_CSHL.c **** *
 798:.\Generated_Source\PSoC5/CapSense_1_CSHL.c **** * Parameters:
 799:.\Generated_Source\PSoC5/CapSense_1_CSHL.c **** *  widget:  widget number.
 800:.\Generated_Source\PSoC5/CapSense_1_CSHL.c **** *
 801:.\Generated_Source\PSoC5/CapSense_1_CSHL.c **** * Return:
 802:.\Generated_Source\PSoC5/CapSense_1_CSHL.c **** *  None
 803:.\Generated_Source\PSoC5/CapSense_1_CSHL.c **** *
 804:.\Generated_Source\PSoC5/CapSense_1_CSHL.c **** * Global Variables:
 805:.\Generated_Source\PSoC5/CapSense_1_CSHL.c **** *  CapSense_1_sensorEnableMask[] - used to store the sensor scanning 
 806:.\Generated_Source\PSoC5/CapSense_1_CSHL.c **** *  state.
 807:.\Generated_Source\PSoC5/CapSense_1_CSHL.c **** *  CapSense_1_sensorEnableMask[0] contains the masked bits for sensors 
 808:.\Generated_Source\PSoC5/CapSense_1_CSHL.c **** *  0 through 7 (sensor 0 is bit 0, sensor 1 is bit 1).
 809:.\Generated_Source\PSoC5/CapSense_1_CSHL.c **** *  CapSense_1_sensorEnableMask[1] contains the masked bits for 
 810:.\Generated_Source\PSoC5/CapSense_1_CSHL.c **** *  sensors 8 through 15 (if needed), and so on.
 811:.\Generated_Source\PSoC5/CapSense_1_CSHL.c **** *  0 - sensor doesn't scan by CapSense_1_ScanEnabledWidgets().
 812:.\Generated_Source\PSoC5/CapSense_1_CSHL.c **** *  1 - sensor scans by CapSense_1_ScanEnabledWidgets().
ARM GAS  C:\Users\LUKASC~1\AppData\Local\Temp\ccTi8KiV.s 			page 35


 813:.\Generated_Source\PSoC5/CapSense_1_CSHL.c **** *
 814:.\Generated_Source\PSoC5/CapSense_1_CSHL.c **** * Reentrant:
 815:.\Generated_Source\PSoC5/CapSense_1_CSHL.c **** *  No
 816:.\Generated_Source\PSoC5/CapSense_1_CSHL.c **** *
 817:.\Generated_Source\PSoC5/CapSense_1_CSHL.c **** *******************************************************************************/
 818:.\Generated_Source\PSoC5/CapSense_1_CSHL.c **** void CapSense_1_DisableWidget(uint8 widget)
 819:.\Generated_Source\PSoC5/CapSense_1_CSHL.c ****                                     
 820:.\Generated_Source\PSoC5/CapSense_1_CSHL.c **** {
 1115              		.loc 1 820 0
 1116              		.cfi_startproc
 1117              		@ args = 0, pretend = 0, frame = 16
 1118              		@ frame_needed = 1, uses_anonymous_args = 0
 1119              		@ link register save eliminated.
 1120 0000 80B4     		push	{r7}
 1121              		.cfi_def_cfa_offset 4
 1122              		.cfi_offset 7, -4
 1123 0002 85B0     		sub	sp, sp, #20
 1124              		.cfi_def_cfa_offset 24
 1125 0004 00AF     		add	r7, sp, #0
 1126              		.cfi_def_cfa_register 7
 1127 0006 0346     		mov	r3, r0
 1128 0008 FB71     		strb	r3, [r7, #7]
 821:.\Generated_Source\PSoC5/CapSense_1_CSHL.c ****     uint8 pos;
 822:.\Generated_Source\PSoC5/CapSense_1_CSHL.c ****     uint8 enMask;
 823:.\Generated_Source\PSoC5/CapSense_1_CSHL.c ****     uint8 rawIndex = CapSense_1_rawDataIndex[widget];
 1129              		.loc 1 823 0
 1130 000a FB79     		ldrb	r3, [r7, #7]	@ zero_extendqisi2
 1131 000c 144A     		ldr	r2, .L67
 1132 000e D35C     		ldrb	r3, [r2, r3]
 1133 0010 FB73     		strb	r3, [r7, #15]
 824:.\Generated_Source\PSoC5/CapSense_1_CSHL.c ****     uint8 numberOfSensors = CapSense_1_numberOfSensors[widget] + rawIndex;
 1134              		.loc 1 824 0
 1135 0012 FB79     		ldrb	r3, [r7, #7]	@ zero_extendqisi2
 1136 0014 134A     		ldr	r2, .L67+4
 1137 0016 D25C     		ldrb	r2, [r2, r3]	@ zero_extendqisi2
 1138 0018 FB7B     		ldrb	r3, [r7, #15]
 1139 001a 1344     		add	r3, r3, r2
 1140 001c BB73     		strb	r3, [r7, #14]
 1141              	.L66:
 825:.\Generated_Source\PSoC5/CapSense_1_CSHL.c ****    
 826:.\Generated_Source\PSoC5/CapSense_1_CSHL.c ****     /* Disable all sensors of the widget */
 827:.\Generated_Source\PSoC5/CapSense_1_CSHL.c ****     do
 828:.\Generated_Source\PSoC5/CapSense_1_CSHL.c ****     {
 829:.\Generated_Source\PSoC5/CapSense_1_CSHL.c ****         pos = (rawIndex >> 3u);
 1142              		.loc 1 829 0 discriminator 1
 1143 001e FB7B     		ldrb	r3, [r7, #15]	@ zero_extendqisi2
 1144 0020 DB08     		lsrs	r3, r3, #3
 1145 0022 7B73     		strb	r3, [r7, #13]
 830:.\Generated_Source\PSoC5/CapSense_1_CSHL.c ****         enMask = 0x01u << (rawIndex & 0x07u);
 1146              		.loc 1 830 0 discriminator 1
 1147 0024 FB7B     		ldrb	r3, [r7, #15]	@ zero_extendqisi2
 1148 0026 03F00703 		and	r3, r3, #7
 1149 002a 0122     		movs	r2, #1
 1150 002c 02FA03F3 		lsl	r3, r2, r3
 1151 0030 3B73     		strb	r3, [r7, #12]
 831:.\Generated_Source\PSoC5/CapSense_1_CSHL.c ****         
 832:.\Generated_Source\PSoC5/CapSense_1_CSHL.c ****         CapSense_1_sensorEnableMask[pos] &= (uint8)~enMask;
ARM GAS  C:\Users\LUKASC~1\AppData\Local\Temp\ccTi8KiV.s 			page 36


 1152              		.loc 1 832 0 discriminator 1
 1153 0032 7B7B     		ldrb	r3, [r7, #13]	@ zero_extendqisi2
 1154 0034 7A7B     		ldrb	r2, [r7, #13]	@ zero_extendqisi2
 1155 0036 0C49     		ldr	r1, .L67+8
 1156 0038 895C     		ldrb	r1, [r1, r2]	@ zero_extendqisi2
 1157 003a 3A7B     		ldrb	r2, [r7, #12]
 1158 003c D243     		mvns	r2, r2
 1159 003e D2B2     		uxtb	r2, r2
 1160 0040 0A40     		ands	r2, r2, r1
 1161 0042 D1B2     		uxtb	r1, r2
 1162 0044 084A     		ldr	r2, .L67+8
 1163 0046 D154     		strb	r1, [r2, r3]
 833:.\Generated_Source\PSoC5/CapSense_1_CSHL.c ****         rawIndex++;
 1164              		.loc 1 833 0 discriminator 1
 1165 0048 FB7B     		ldrb	r3, [r7, #15]	@ zero_extendqisi2
 1166 004a 0133     		adds	r3, r3, #1
 1167 004c FB73     		strb	r3, [r7, #15]
 834:.\Generated_Source\PSoC5/CapSense_1_CSHL.c ****     }
 835:.\Generated_Source\PSoC5/CapSense_1_CSHL.c ****     while(rawIndex < numberOfSensors);
 1168              		.loc 1 835 0 discriminator 1
 1169 004e FA7B     		ldrb	r2, [r7, #15]	@ zero_extendqisi2
 1170 0050 BB7B     		ldrb	r3, [r7, #14]	@ zero_extendqisi2
 1171 0052 9A42     		cmp	r2, r3
 1172 0054 E3D3     		bcc	.L66
 836:.\Generated_Source\PSoC5/CapSense_1_CSHL.c ****     
 837:.\Generated_Source\PSoC5/CapSense_1_CSHL.c **** 
 838:.\Generated_Source\PSoC5/CapSense_1_CSHL.c **** }
 1173              		.loc 1 838 0
 1174 0056 1437     		adds	r7, r7, #20
 1175              		.cfi_def_cfa_offset 4
 1176 0058 BD46     		mov	sp, r7
 1177              		.cfi_def_cfa_register 13
 1178              		@ sp needed
 1179 005a 5DF8047B 		ldr	r7, [sp], #4
 1180              		.cfi_restore 7
 1181              		.cfi_def_cfa_offset 0
 1182 005e 7047     		bx	lr
 1183              	.L68:
 1184              		.align	2
 1185              	.L67:
 1186 0060 00000000 		.word	CapSense_1_rawDataIndex
 1187 0064 00000000 		.word	CapSense_1_numberOfSensors
 1188 0068 00000000 		.word	CapSense_1_sensorEnableMask
 1189              		.cfi_endproc
 1190              	.LFE10:
 1191              		.size	CapSense_1_DisableWidget, .-CapSense_1_DisableWidget
 1192              		.section	.text.CapSense_1_FindMaximum,"ax",%progbits
 1193              		.align	2
 1194              		.global	CapSense_1_FindMaximum
 1195              		.thumb
 1196              		.thumb_func
 1197              		.type	CapSense_1_FindMaximum, %function
 1198              	CapSense_1_FindMaximum:
 1199              	.LFB11:
 839:.\Generated_Source\PSoC5/CapSense_1_CSHL.c **** #if(CapSense_1_TOTAL_CENTROIDS_COUNT)
 840:.\Generated_Source\PSoC5/CapSense_1_CSHL.c ****     /*******************************************************************************
 841:.\Generated_Source\PSoC5/CapSense_1_CSHL.c ****     * Function Name: CapSense_1_FindMaximum
ARM GAS  C:\Users\LUKASC~1\AppData\Local\Temp\ccTi8KiV.s 			page 37


 842:.\Generated_Source\PSoC5/CapSense_1_CSHL.c ****     ********************************************************************************
 843:.\Generated_Source\PSoC5/CapSense_1_CSHL.c ****     *
 844:.\Generated_Source\PSoC5/CapSense_1_CSHL.c ****     * Summary:
 845:.\Generated_Source\PSoC5/CapSense_1_CSHL.c ****     *  Finds index of maximum element within defined centroid. Checks 
 846:.\Generated_Source\PSoC5/CapSense_1_CSHL.c ****     *  CapSense_1_SensorSignal[] within defined cenrtoid and 
 847:.\Generated_Source\PSoC5/CapSense_1_CSHL.c ****     *  returns index of maximum element. The values below finger threshold are 
 848:.\Generated_Source\PSoC5/CapSense_1_CSHL.c ****     *  ignored.
 849:.\Generated_Source\PSoC5/CapSense_1_CSHL.c ****     *  The centrod defines by offset of first element and number of elements - count.
 850:.\Generated_Source\PSoC5/CapSense_1_CSHL.c ****     *  The diplexed centroid requires at least consecutive two elements above
 851:.\Generated_Source\PSoC5/CapSense_1_CSHL.c ****     *  FingerThreshold to find index of maximum element.
 852:.\Generated_Source\PSoC5/CapSense_1_CSHL.c ****     * 
 853:.\Generated_Source\PSoC5/CapSense_1_CSHL.c ****     * Parameters:
 854:.\Generated_Source\PSoC5/CapSense_1_CSHL.c ****     *  offset:  Start index of cetroid in CapSense_1_sensorSignal[] array.
 855:.\Generated_Source\PSoC5/CapSense_1_CSHL.c ****     *  count:   number of elements within centroid.
 856:.\Generated_Source\PSoC5/CapSense_1_CSHL.c ****     *  fingerThreshold:  Finger threshould.
 857:.\Generated_Source\PSoC5/CapSense_1_CSHL.c ****     *  diplex:   pointer to diplex table.
 858:.\Generated_Source\PSoC5/CapSense_1_CSHL.c ****     * 
 859:.\Generated_Source\PSoC5/CapSense_1_CSHL.c ****     * Return:
 860:.\Generated_Source\PSoC5/CapSense_1_CSHL.c ****     *  Returns index of maximum element within defined centroid.
 861:.\Generated_Source\PSoC5/CapSense_1_CSHL.c ****     *  If index of maximum element doesn't find the 0xFF returns.
 862:.\Generated_Source\PSoC5/CapSense_1_CSHL.c ****     * 
 863:.\Generated_Source\PSoC5/CapSense_1_CSHL.c ****     *******************************************************************************/
 864:.\Generated_Source\PSoC5/CapSense_1_CSHL.c ****     #if (CapSense_1_IS_DIPLEX_SLIDER)
 865:.\Generated_Source\PSoC5/CapSense_1_CSHL.c ****         uint8 CapSense_1_FindMaximum(uint8 offset, uint8 count, uint8 fingerThreshold, const uint8 
 866:.\Generated_Source\PSoC5/CapSense_1_CSHL.c **** 	                                       
 867:.\Generated_Source\PSoC5/CapSense_1_CSHL.c ****     #else 
 868:.\Generated_Source\PSoC5/CapSense_1_CSHL.c ****         uint8 CapSense_1_FindMaximum(uint8 offset, uint8 count, uint8 fingerThreshold)
 869:.\Generated_Source\PSoC5/CapSense_1_CSHL.c **** 	                                       
 870:.\Generated_Source\PSoC5/CapSense_1_CSHL.c ****     #endif /* (CapSense_1_IS_DIPLEX_SLIDER) */
 871:.\Generated_Source\PSoC5/CapSense_1_CSHL.c ****     {
 1200              		.loc 1 871 0
 1201              		.cfi_startproc
 1202              		@ args = 0, pretend = 0, frame = 16
 1203              		@ frame_needed = 1, uses_anonymous_args = 0
 1204              		@ link register save eliminated.
 1205 0000 80B4     		push	{r7}
 1206              		.cfi_def_cfa_offset 4
 1207              		.cfi_offset 7, -4
 1208 0002 85B0     		sub	sp, sp, #20
 1209              		.cfi_def_cfa_offset 24
 1210 0004 00AF     		add	r7, sp, #0
 1211              		.cfi_def_cfa_register 7
 1212 0006 0346     		mov	r3, r0
 1213 0008 FB71     		strb	r3, [r7, #7]
 1214 000a 0B46     		mov	r3, r1
 1215 000c BB71     		strb	r3, [r7, #6]
 1216 000e 1346     		mov	r3, r2
 1217 0010 7B71     		strb	r3, [r7, #5]
 872:.\Generated_Source\PSoC5/CapSense_1_CSHL.c ****         uint8 i;
 873:.\Generated_Source\PSoC5/CapSense_1_CSHL.c ****         #if (CapSense_1_IS_DIPLEX_SLIDER)        
 874:.\Generated_Source\PSoC5/CapSense_1_CSHL.c ****             uint8 curPos = 0u;
 875:.\Generated_Source\PSoC5/CapSense_1_CSHL.c ****             /* No centroid at the Start */
 876:.\Generated_Source\PSoC5/CapSense_1_CSHL.c ****             uint8 curCntrdSize = 0u;
 877:.\Generated_Source\PSoC5/CapSense_1_CSHL.c ****             uint8 curCtrdStartPos = 0xFFu;
 878:.\Generated_Source\PSoC5/CapSense_1_CSHL.c ****             /* The biggset centroid is zero */
 879:.\Generated_Source\PSoC5/CapSense_1_CSHL.c ****             uint8 biggestCtrdSize = 0u;
 880:.\Generated_Source\PSoC5/CapSense_1_CSHL.c ****             uint8 biggestCtrdStartPos = 0u;
ARM GAS  C:\Users\LUKASC~1\AppData\Local\Temp\ccTi8KiV.s 			page 38


 881:.\Generated_Source\PSoC5/CapSense_1_CSHL.c ****         #endif /* (CapSense_1_IS_DIPLEX_SLIDER) */
 882:.\Generated_Source\PSoC5/CapSense_1_CSHL.c ****         uint8 maximum = 0xFFu;
 1218              		.loc 1 882 0
 1219 0012 FF23     		movs	r3, #255
 1220 0014 BB73     		strb	r3, [r7, #14]
 883:.\Generated_Source\PSoC5/CapSense_1_CSHL.c ****         uint8 temp = 0u;
 1221              		.loc 1 883 0
 1222 0016 0023     		movs	r3, #0
 1223 0018 7B73     		strb	r3, [r7, #13]
 884:.\Generated_Source\PSoC5/CapSense_1_CSHL.c ****         uint8 *startOfSlider = &CapSense_1_sensorSignal[offset]; 
 1224              		.loc 1 884 0
 1225 001a FB79     		ldrb	r3, [r7, #7]	@ zero_extendqisi2
 1226 001c 144A     		ldr	r2, .L74
 1227 001e 1344     		add	r3, r3, r2
 1228 0020 BB60     		str	r3, [r7, #8]
 885:.\Generated_Source\PSoC5/CapSense_1_CSHL.c **** 
 886:.\Generated_Source\PSoC5/CapSense_1_CSHL.c ****         #if (CapSense_1_IS_DIPLEX_SLIDER)        
 887:.\Generated_Source\PSoC5/CapSense_1_CSHL.c ****             if(diplex != 0u)
 888:.\Generated_Source\PSoC5/CapSense_1_CSHL.c ****             {
 889:.\Generated_Source\PSoC5/CapSense_1_CSHL.c ****                 /* Initialize */
 890:.\Generated_Source\PSoC5/CapSense_1_CSHL.c ****                 i = 0u;
 891:.\Generated_Source\PSoC5/CapSense_1_CSHL.c ****                 
 892:.\Generated_Source\PSoC5/CapSense_1_CSHL.c ****                 /* Make slider x2 as Diplexed */
 893:.\Generated_Source\PSoC5/CapSense_1_CSHL.c ****                 count <<= 1u;
 894:.\Generated_Source\PSoC5/CapSense_1_CSHL.c ****                 while(1u)
 895:.\Generated_Source\PSoC5/CapSense_1_CSHL.c ****                 { 
 896:.\Generated_Source\PSoC5/CapSense_1_CSHL.c ****                     if (startOfSlider[curPos] > 0u)    /* Looking for centroids */
 897:.\Generated_Source\PSoC5/CapSense_1_CSHL.c ****                     {
 898:.\Generated_Source\PSoC5/CapSense_1_CSHL.c ****                         if (curCtrdStartPos == 0xFFu)
 899:.\Generated_Source\PSoC5/CapSense_1_CSHL.c ****                         {
 900:.\Generated_Source\PSoC5/CapSense_1_CSHL.c ****                             /* Start of centroid */
 901:.\Generated_Source\PSoC5/CapSense_1_CSHL.c ****                             curCtrdStartPos = i;
 902:.\Generated_Source\PSoC5/CapSense_1_CSHL.c ****                             curCntrdSize++;
 903:.\Generated_Source\PSoC5/CapSense_1_CSHL.c ****                         }
 904:.\Generated_Source\PSoC5/CapSense_1_CSHL.c ****                         else
 905:.\Generated_Source\PSoC5/CapSense_1_CSHL.c ****                         {
 906:.\Generated_Source\PSoC5/CapSense_1_CSHL.c ****                             curCntrdSize++;
 907:.\Generated_Source\PSoC5/CapSense_1_CSHL.c ****                         }
 908:.\Generated_Source\PSoC5/CapSense_1_CSHL.c ****                     }
 909:.\Generated_Source\PSoC5/CapSense_1_CSHL.c ****                     else   /* Select the bigest and indicate zero start */
 910:.\Generated_Source\PSoC5/CapSense_1_CSHL.c ****                     {          
 911:.\Generated_Source\PSoC5/CapSense_1_CSHL.c ****                         if(curCntrdSize > 0u)
 912:.\Generated_Source\PSoC5/CapSense_1_CSHL.c ****                         {
 913:.\Generated_Source\PSoC5/CapSense_1_CSHL.c ****                             /* We are in the end of current */
 914:.\Generated_Source\PSoC5/CapSense_1_CSHL.c ****                             if(curCntrdSize > biggestCtrdSize)
 915:.\Generated_Source\PSoC5/CapSense_1_CSHL.c ****                             {
 916:.\Generated_Source\PSoC5/CapSense_1_CSHL.c ****                                 biggestCtrdSize = curCntrdSize;
 917:.\Generated_Source\PSoC5/CapSense_1_CSHL.c ****                                 biggestCtrdStartPos = curCtrdStartPos;
 918:.\Generated_Source\PSoC5/CapSense_1_CSHL.c ****                             }
 919:.\Generated_Source\PSoC5/CapSense_1_CSHL.c ****                             
 920:.\Generated_Source\PSoC5/CapSense_1_CSHL.c ****                             curCntrdSize = 0u;
 921:.\Generated_Source\PSoC5/CapSense_1_CSHL.c ****                             curCtrdStartPos = 0xFFu;
 922:.\Generated_Source\PSoC5/CapSense_1_CSHL.c ****                         }
 923:.\Generated_Source\PSoC5/CapSense_1_CSHL.c ****                     }
 924:.\Generated_Source\PSoC5/CapSense_1_CSHL.c ****                     
 925:.\Generated_Source\PSoC5/CapSense_1_CSHL.c ****                     i++; 
 926:.\Generated_Source\PSoC5/CapSense_1_CSHL.c ****                     curPos = diplex[i];
ARM GAS  C:\Users\LUKASC~1\AppData\Local\Temp\ccTi8KiV.s 			page 39


 927:.\Generated_Source\PSoC5/CapSense_1_CSHL.c ****                     if(i == count)
 928:.\Generated_Source\PSoC5/CapSense_1_CSHL.c ****                     {
 929:.\Generated_Source\PSoC5/CapSense_1_CSHL.c ****                         break;
 930:.\Generated_Source\PSoC5/CapSense_1_CSHL.c ****                     }            
 931:.\Generated_Source\PSoC5/CapSense_1_CSHL.c ****                 }
 932:.\Generated_Source\PSoC5/CapSense_1_CSHL.c ****                     
 933:.\Generated_Source\PSoC5/CapSense_1_CSHL.c ****                     /* Find the biggest centroid if two are the same size, last one wins
 934:.\Generated_Source\PSoC5/CapSense_1_CSHL.c ****                        We are in the end of current */
 935:.\Generated_Source\PSoC5/CapSense_1_CSHL.c ****                 if (curCntrdSize >= biggestCtrdSize) 
 936:.\Generated_Source\PSoC5/CapSense_1_CSHL.c ****                 {
 937:.\Generated_Source\PSoC5/CapSense_1_CSHL.c ****                     biggestCtrdSize = curCntrdSize;
 938:.\Generated_Source\PSoC5/CapSense_1_CSHL.c ****                     biggestCtrdStartPos = curCtrdStartPos;
 939:.\Generated_Source\PSoC5/CapSense_1_CSHL.c ****                 }
 940:.\Generated_Source\PSoC5/CapSense_1_CSHL.c ****             }
 941:.\Generated_Source\PSoC5/CapSense_1_CSHL.c ****             else
 942:.\Generated_Source\PSoC5/CapSense_1_CSHL.c ****             {
 943:.\Generated_Source\PSoC5/CapSense_1_CSHL.c ****                 /* Without diplexing */ 
 944:.\Generated_Source\PSoC5/CapSense_1_CSHL.c ****                 biggestCtrdSize = count;
 945:.\Generated_Source\PSoC5/CapSense_1_CSHL.c ****             }
 946:.\Generated_Source\PSoC5/CapSense_1_CSHL.c ****                         
 947:.\Generated_Source\PSoC5/CapSense_1_CSHL.c **** 
 948:.\Generated_Source\PSoC5/CapSense_1_CSHL.c ****             /* Check centroid size */
 949:.\Generated_Source\PSoC5/CapSense_1_CSHL.c ****             #if (CapSense_1_IS_NON_DIPLEX_SLIDER)
 950:.\Generated_Source\PSoC5/CapSense_1_CSHL.c ****                 if((biggestCtrdSize >= 2u) || ((biggestCtrdSize == 1u) && (diplex == 0u)))
 951:.\Generated_Source\PSoC5/CapSense_1_CSHL.c ****             #else                    
 952:.\Generated_Source\PSoC5/CapSense_1_CSHL.c ****                 if(biggestCtrdSize >= 2u)
 953:.\Generated_Source\PSoC5/CapSense_1_CSHL.c ****             #endif /* (CapSense_1_IS_NON_DIPLEX_SLIDER) */
 954:.\Generated_Source\PSoC5/CapSense_1_CSHL.c ****                 {
 955:.\Generated_Source\PSoC5/CapSense_1_CSHL.c ****                     for (i = biggestCtrdStartPos; i < (biggestCtrdStartPos + biggestCtrdSize); i++)
 956:.\Generated_Source\PSoC5/CapSense_1_CSHL.c ****                     {
 957:.\Generated_Source\PSoC5/CapSense_1_CSHL.c ****                         #if (CapSense_1_IS_DIPLEX_SLIDER && CapSense_1_IS_NON_DIPLEX_SLIDER)
 958:.\Generated_Source\PSoC5/CapSense_1_CSHL.c ****                             if (diplex == 0u)
 959:.\Generated_Source\PSoC5/CapSense_1_CSHL.c ****                             {
 960:.\Generated_Source\PSoC5/CapSense_1_CSHL.c ****                                 curPos = i;
 961:.\Generated_Source\PSoC5/CapSense_1_CSHL.c ****                             }
 962:.\Generated_Source\PSoC5/CapSense_1_CSHL.c ****                             else
 963:.\Generated_Source\PSoC5/CapSense_1_CSHL.c ****                             {
 964:.\Generated_Source\PSoC5/CapSense_1_CSHL.c ****                                 curPos = diplex[i];
 965:.\Generated_Source\PSoC5/CapSense_1_CSHL.c ****                             }                    
 966:.\Generated_Source\PSoC5/CapSense_1_CSHL.c ****                         #elif (CapSense_1_IS_DIPLEX_SLIDER)                    
 967:.\Generated_Source\PSoC5/CapSense_1_CSHL.c ****                             curPos = diplex[i];                    
 968:.\Generated_Source\PSoC5/CapSense_1_CSHL.c ****                         #endif /* (CapSense_1_IS_DIPLEX_SLIDER && CapSense_1_IS_NON_DIPLEX_SLIDER) 
 969:.\Generated_Source\PSoC5/CapSense_1_CSHL.c ****                         /* Looking for the grater element within centroid */
 970:.\Generated_Source\PSoC5/CapSense_1_CSHL.c ****                         if(startOfSlider[curPos] > fingerThreshold)
 971:.\Generated_Source\PSoC5/CapSense_1_CSHL.c ****                         {
 972:.\Generated_Source\PSoC5/CapSense_1_CSHL.c ****                             if(startOfSlider[curPos] > temp)
 973:.\Generated_Source\PSoC5/CapSense_1_CSHL.c ****                             {
 974:.\Generated_Source\PSoC5/CapSense_1_CSHL.c ****                                 maximum = i;
 975:.\Generated_Source\PSoC5/CapSense_1_CSHL.c ****                                 temp = startOfSlider[curPos];
 976:.\Generated_Source\PSoC5/CapSense_1_CSHL.c ****                             }
 977:.\Generated_Source\PSoC5/CapSense_1_CSHL.c ****                         }
 978:.\Generated_Source\PSoC5/CapSense_1_CSHL.c ****                     }
 979:.\Generated_Source\PSoC5/CapSense_1_CSHL.c ****                 } 
 980:.\Generated_Source\PSoC5/CapSense_1_CSHL.c ****         #else
 981:.\Generated_Source\PSoC5/CapSense_1_CSHL.c ****             for (i = 0u; i < count; i++)
 1229              		.loc 1 981 0
 1230 0022 0023     		movs	r3, #0
ARM GAS  C:\Users\LUKASC~1\AppData\Local\Temp\ccTi8KiV.s 			page 40


 1231 0024 FB73     		strb	r3, [r7, #15]
 1232 0026 17E0     		b	.L70
 1233              	.L72:
 982:.\Generated_Source\PSoC5/CapSense_1_CSHL.c ****             {                      
 983:.\Generated_Source\PSoC5/CapSense_1_CSHL.c ****                 /* Looking for the grater element within centroid */
 984:.\Generated_Source\PSoC5/CapSense_1_CSHL.c ****                 if(startOfSlider[i] > fingerThreshold)
 1234              		.loc 1 984 0
 1235 0028 FB7B     		ldrb	r3, [r7, #15]	@ zero_extendqisi2
 1236 002a BA68     		ldr	r2, [r7, #8]
 1237 002c 1344     		add	r3, r3, r2
 1238 002e 1B78     		ldrb	r3, [r3]	@ zero_extendqisi2
 1239 0030 7A79     		ldrb	r2, [r7, #5]	@ zero_extendqisi2
 1240 0032 9A42     		cmp	r2, r3
 1241 0034 0DD2     		bcs	.L71
 985:.\Generated_Source\PSoC5/CapSense_1_CSHL.c ****                 {
 986:.\Generated_Source\PSoC5/CapSense_1_CSHL.c ****                     if(startOfSlider[i] > temp)
 1242              		.loc 1 986 0
 1243 0036 FB7B     		ldrb	r3, [r7, #15]	@ zero_extendqisi2
 1244 0038 BA68     		ldr	r2, [r7, #8]
 1245 003a 1344     		add	r3, r3, r2
 1246 003c 1B78     		ldrb	r3, [r3]	@ zero_extendqisi2
 1247 003e 7A7B     		ldrb	r2, [r7, #13]	@ zero_extendqisi2
 1248 0040 9A42     		cmp	r2, r3
 1249 0042 06D2     		bcs	.L71
 987:.\Generated_Source\PSoC5/CapSense_1_CSHL.c ****                     {
 988:.\Generated_Source\PSoC5/CapSense_1_CSHL.c ****                         maximum = i;
 1250              		.loc 1 988 0
 1251 0044 FB7B     		ldrb	r3, [r7, #15]
 1252 0046 BB73     		strb	r3, [r7, #14]
 989:.\Generated_Source\PSoC5/CapSense_1_CSHL.c ****                         temp = startOfSlider[i];
 1253              		.loc 1 989 0
 1254 0048 FB7B     		ldrb	r3, [r7, #15]	@ zero_extendqisi2
 1255 004a BA68     		ldr	r2, [r7, #8]
 1256 004c 1344     		add	r3, r3, r2
 1257 004e 1B78     		ldrb	r3, [r3]
 1258 0050 7B73     		strb	r3, [r7, #13]
 1259              	.L71:
 981:.\Generated_Source\PSoC5/CapSense_1_CSHL.c ****             {                      
 1260              		.loc 1 981 0 discriminator 2
 1261 0052 FB7B     		ldrb	r3, [r7, #15]	@ zero_extendqisi2
 1262 0054 0133     		adds	r3, r3, #1
 1263 0056 FB73     		strb	r3, [r7, #15]
 1264              	.L70:
 981:.\Generated_Source\PSoC5/CapSense_1_CSHL.c ****             {                      
 1265              		.loc 1 981 0 is_stmt 0 discriminator 1
 1266 0058 FA7B     		ldrb	r2, [r7, #15]	@ zero_extendqisi2
 1267 005a BB79     		ldrb	r3, [r7, #6]	@ zero_extendqisi2
 1268 005c 9A42     		cmp	r2, r3
 1269 005e E3D3     		bcc	.L72
 990:.\Generated_Source\PSoC5/CapSense_1_CSHL.c ****                     }
 991:.\Generated_Source\PSoC5/CapSense_1_CSHL.c ****                 }
 992:.\Generated_Source\PSoC5/CapSense_1_CSHL.c ****             }    
 993:.\Generated_Source\PSoC5/CapSense_1_CSHL.c ****         #endif /* (CapSense_1_IS_DIPLEX_SLIDER) */
 994:.\Generated_Source\PSoC5/CapSense_1_CSHL.c ****         return (maximum);
 1270              		.loc 1 994 0 is_stmt 1
 1271 0060 BB7B     		ldrb	r3, [r7, #14]	@ zero_extendqisi2
 995:.\Generated_Source\PSoC5/CapSense_1_CSHL.c ****     }
ARM GAS  C:\Users\LUKASC~1\AppData\Local\Temp\ccTi8KiV.s 			page 41


 1272              		.loc 1 995 0
 1273 0062 1846     		mov	r0, r3
 1274 0064 1437     		adds	r7, r7, #20
 1275              		.cfi_def_cfa_offset 4
 1276 0066 BD46     		mov	sp, r7
 1277              		.cfi_def_cfa_register 13
 1278              		@ sp needed
 1279 0068 5DF8047B 		ldr	r7, [sp], #4
 1280              		.cfi_restore 7
 1281              		.cfi_def_cfa_offset 0
 1282 006c 7047     		bx	lr
 1283              	.L75:
 1284 006e 00BF     		.align	2
 1285              	.L74:
 1286 0070 00000000 		.word	CapSense_1_sensorSignal
 1287              		.cfi_endproc
 1288              	.LFE11:
 1289              		.size	CapSense_1_FindMaximum, .-CapSense_1_FindMaximum
 1290              		.section	.text.CapSense_1_CalcCentroid,"ax",%progbits
 1291              		.align	2
 1292              		.global	CapSense_1_CalcCentroid
 1293              		.thumb
 1294              		.thumb_func
 1295              		.type	CapSense_1_CalcCentroid, %function
 1296              	CapSense_1_CalcCentroid:
 1297              	.LFB12:
 996:.\Generated_Source\PSoC5/CapSense_1_CSHL.c ****     
 997:.\Generated_Source\PSoC5/CapSense_1_CSHL.c ****     
 998:.\Generated_Source\PSoC5/CapSense_1_CSHL.c ****     /*******************************************************************************
 999:.\Generated_Source\PSoC5/CapSense_1_CSHL.c ****     * Function Name: CapSense_1_CalcCentroid
1000:.\Generated_Source\PSoC5/CapSense_1_CSHL.c ****     ********************************************************************************
1001:.\Generated_Source\PSoC5/CapSense_1_CSHL.c ****     *
1002:.\Generated_Source\PSoC5/CapSense_1_CSHL.c ****     * Summary:
1003:.\Generated_Source\PSoC5/CapSense_1_CSHL.c ****     *  Returns position value calculated accoring index of maximum element and API
1004:.\Generated_Source\PSoC5/CapSense_1_CSHL.c ****     *  resolution.
1005:.\Generated_Source\PSoC5/CapSense_1_CSHL.c ****     *
1006:.\Generated_Source\PSoC5/CapSense_1_CSHL.c ****     * Parameters:
1007:.\Generated_Source\PSoC5/CapSense_1_CSHL.c ****     *  type:  widget type.
1008:.\Generated_Source\PSoC5/CapSense_1_CSHL.c ****     *  diplex:  pointer to diplex table.
1009:.\Generated_Source\PSoC5/CapSense_1_CSHL.c ****     *  maximum:  Index of maximum element within centroid.
1010:.\Generated_Source\PSoC5/CapSense_1_CSHL.c ****     *  offset:   Start index of cetroid in CapSense_1_SensorSignal[] array.
1011:.\Generated_Source\PSoC5/CapSense_1_CSHL.c ****     *  count:    Number of elements within centroid.
1012:.\Generated_Source\PSoC5/CapSense_1_CSHL.c ****     *  resolution:  multiplicator calculated according to centroid type and
1013:.\Generated_Source\PSoC5/CapSense_1_CSHL.c ****     *  API resolution.
1014:.\Generated_Source\PSoC5/CapSense_1_CSHL.c ****     *  noiseThreshold:  Noise threshould.
1015:.\Generated_Source\PSoC5/CapSense_1_CSHL.c ****     * 
1016:.\Generated_Source\PSoC5/CapSense_1_CSHL.c ****     * Return:
1017:.\Generated_Source\PSoC5/CapSense_1_CSHL.c ****     *  Returns position value of the slider.
1018:.\Generated_Source\PSoC5/CapSense_1_CSHL.c ****     * 
1019:.\Generated_Source\PSoC5/CapSense_1_CSHL.c ****     *
1020:.\Generated_Source\PSoC5/CapSense_1_CSHL.c ****     * Reentrant:
1021:.\Generated_Source\PSoC5/CapSense_1_CSHL.c ****     *  No.
1022:.\Generated_Source\PSoC5/CapSense_1_CSHL.c ****     *
1023:.\Generated_Source\PSoC5/CapSense_1_CSHL.c ****     *******************************************************************************/
1024:.\Generated_Source\PSoC5/CapSense_1_CSHL.c ****     uint8 CapSense_1_CalcCentroid(uint8 maximum, uint8 offset, 
1025:.\Generated_Source\PSoC5/CapSense_1_CSHL.c ****                                         uint8 count, uint16 resolution, uint8 noiseThreshold)
1026:.\Generated_Source\PSoC5/CapSense_1_CSHL.c **** 	                                    
ARM GAS  C:\Users\LUKASC~1\AppData\Local\Temp\ccTi8KiV.s 			page 42


1027:.\Generated_Source\PSoC5/CapSense_1_CSHL.c ****     {
 1298              		.loc 1 1027 0
 1299              		.cfi_startproc
 1300              		@ args = 4, pretend = 0, frame = 32
 1301              		@ frame_needed = 1, uses_anonymous_args = 0
 1302              		@ link register save eliminated.
 1303 0000 90B4     		push	{r4, r7}
 1304              		.cfi_def_cfa_offset 8
 1305              		.cfi_offset 4, -8
 1306              		.cfi_offset 7, -4
 1307 0002 88B0     		sub	sp, sp, #32
 1308              		.cfi_def_cfa_offset 40
 1309 0004 00AF     		add	r7, sp, #0
 1310              		.cfi_def_cfa_register 7
 1311 0006 0446     		mov	r4, r0
 1312 0008 0846     		mov	r0, r1
 1313 000a 1146     		mov	r1, r2
 1314 000c 1A46     		mov	r2, r3
 1315 000e 2346     		mov	r3, r4
 1316 0010 FB71     		strb	r3, [r7, #7]
 1317 0012 0346     		mov	r3, r0
 1318 0014 BB71     		strb	r3, [r7, #6]
 1319 0016 0B46     		mov	r3, r1
 1320 0018 7B71     		strb	r3, [r7, #5]
 1321 001a 1346     		mov	r3, r2	@ movhi
 1322 001c 7B80     		strh	r3, [r7, #2]	@ movhi
1028:.\Generated_Source\PSoC5/CapSense_1_CSHL.c ****         #if ((CapSense_1_TOTAL_LINEAR_SLIDERS_COUNT > 0u) || (CapSense_1_TOTAL_TOUCH_PADS_COUNT > 0
1029:.\Generated_Source\PSoC5/CapSense_1_CSHL.c ****             uint8 posPrev = 0u;
 1323              		.loc 1 1029 0
 1324 001e 0023     		movs	r3, #0
 1325 0020 FB77     		strb	r3, [r7, #31]
1030:.\Generated_Source\PSoC5/CapSense_1_CSHL.c ****             uint8 posNext = 0u;
 1326              		.loc 1 1030 0
 1327 0022 0023     		movs	r3, #0
 1328 0024 BB77     		strb	r3, [r7, #30]
1031:.\Generated_Source\PSoC5/CapSense_1_CSHL.c ****         #endif /* ((CapSense_1_TOTAL_LINEAR_SLIDERS_COUNT>0u) || (CapSense_1_TOTAL_TOUCH_PADS_COUNT
1032:.\Generated_Source\PSoC5/CapSense_1_CSHL.c ****                
1033:.\Generated_Source\PSoC5/CapSense_1_CSHL.c ****         #if (CapSense_1_IS_DIPLEX_SLIDER)                
1034:.\Generated_Source\PSoC5/CapSense_1_CSHL.c ****             uint8 pos;
1035:.\Generated_Source\PSoC5/CapSense_1_CSHL.c ****         #endif /* (CapSense_1_IS_DIPLEX_SLIDER) */
1036:.\Generated_Source\PSoC5/CapSense_1_CSHL.c ****         
1037:.\Generated_Source\PSoC5/CapSense_1_CSHL.c ****         /* Helps while centroid calulation */
1038:.\Generated_Source\PSoC5/CapSense_1_CSHL.c ****         static uint8 CapSense_1_centroid[3u];
1039:.\Generated_Source\PSoC5/CapSense_1_CSHL.c **** 
1040:.\Generated_Source\PSoC5/CapSense_1_CSHL.c ****         uint8 position;
1041:.\Generated_Source\PSoC5/CapSense_1_CSHL.c ****         uint32 numerator;
1042:.\Generated_Source\PSoC5/CapSense_1_CSHL.c ****         int32 denominator;
1043:.\Generated_Source\PSoC5/CapSense_1_CSHL.c ****         uint8 *startOfSlider = &CapSense_1_sensorSignal[offset];
 1329              		.loc 1 1043 0
 1330 0026 BB79     		ldrb	r3, [r7, #6]	@ zero_extendqisi2
 1331 0028 484A     		ldr	r2, .L86
 1332 002a 1344     		add	r3, r3, r2
 1333 002c BB61     		str	r3, [r7, #24]
1044:.\Generated_Source\PSoC5/CapSense_1_CSHL.c ****                     
1045:.\Generated_Source\PSoC5/CapSense_1_CSHL.c ****         #if (CapSense_1_ADD_SLIDER_TYPE)
1046:.\Generated_Source\PSoC5/CapSense_1_CSHL.c ****             if(type == CapSense_1_TYPE_RADIAL_SLIDER)
1047:.\Generated_Source\PSoC5/CapSense_1_CSHL.c ****             {
ARM GAS  C:\Users\LUKASC~1\AppData\Local\Temp\ccTi8KiV.s 			page 43


1048:.\Generated_Source\PSoC5/CapSense_1_CSHL.c ****         #endif /* (CapSense_1_ADD_SLIDER_TYPE) */
1049:.\Generated_Source\PSoC5/CapSense_1_CSHL.c **** 
1050:.\Generated_Source\PSoC5/CapSense_1_CSHL.c ****             #if (CapSense_1_TOTAL_RADIAL_SLIDERS_COUNT > 0u)                
1051:.\Generated_Source\PSoC5/CapSense_1_CSHL.c ****                 /* Copy Signal for found centriod */
1052:.\Generated_Source\PSoC5/CapSense_1_CSHL.c ****                 CapSense_1_centroid[CapSense_1_POS] = startOfSlider[maximum];
1053:.\Generated_Source\PSoC5/CapSense_1_CSHL.c ****                  
1054:.\Generated_Source\PSoC5/CapSense_1_CSHL.c ****                 /* Check borders for ROTARY Slider */
1055:.\Generated_Source\PSoC5/CapSense_1_CSHL.c ****                 if (maximum == 0u)                   /* Start of centroid */
1056:.\Generated_Source\PSoC5/CapSense_1_CSHL.c ****                 { 
1057:.\Generated_Source\PSoC5/CapSense_1_CSHL.c ****                     CapSense_1_centroid[CapSense_1_POS_PREV] = startOfSlider[count - 1u];
1058:.\Generated_Source\PSoC5/CapSense_1_CSHL.c ****                     CapSense_1_centroid[CapSense_1_POS_NEXT] = startOfSlider[1u];
1059:.\Generated_Source\PSoC5/CapSense_1_CSHL.c ****                 }
1060:.\Generated_Source\PSoC5/CapSense_1_CSHL.c ****                 else if (maximum == (count - 1u))    /* End of centroid */
1061:.\Generated_Source\PSoC5/CapSense_1_CSHL.c ****                 {
1062:.\Generated_Source\PSoC5/CapSense_1_CSHL.c ****                     CapSense_1_centroid[CapSense_1_POS_PREV] = startOfSlider[maximum - 1u];
1063:.\Generated_Source\PSoC5/CapSense_1_CSHL.c ****                     CapSense_1_centroid[CapSense_1_POS_NEXT] = startOfSlider[0u];
1064:.\Generated_Source\PSoC5/CapSense_1_CSHL.c ****                 }
1065:.\Generated_Source\PSoC5/CapSense_1_CSHL.c ****                 else                                /* Not first Not last */
1066:.\Generated_Source\PSoC5/CapSense_1_CSHL.c ****                 {
1067:.\Generated_Source\PSoC5/CapSense_1_CSHL.c ****                     CapSense_1_centroid[CapSense_1_POS_PREV] = startOfSlider[maximum - 1u];
1068:.\Generated_Source\PSoC5/CapSense_1_CSHL.c ****                     CapSense_1_centroid[CapSense_1_POS_NEXT] = startOfSlider[maximum + 1u];
1069:.\Generated_Source\PSoC5/CapSense_1_CSHL.c ****                 }
1070:.\Generated_Source\PSoC5/CapSense_1_CSHL.c ****             #endif /* (CapSense_1_TOTAL_RADIAL_SLIDERS_COUNT > 0u) */
1071:.\Generated_Source\PSoC5/CapSense_1_CSHL.c **** 
1072:.\Generated_Source\PSoC5/CapSense_1_CSHL.c ****         #if (CapSense_1_ADD_SLIDER_TYPE)
1073:.\Generated_Source\PSoC5/CapSense_1_CSHL.c ****             }
1074:.\Generated_Source\PSoC5/CapSense_1_CSHL.c ****             else
1075:.\Generated_Source\PSoC5/CapSense_1_CSHL.c ****             {
1076:.\Generated_Source\PSoC5/CapSense_1_CSHL.c ****         #endif /* (CapSense_1_ADD_SLIDER_TYPE) */
1077:.\Generated_Source\PSoC5/CapSense_1_CSHL.c **** 
1078:.\Generated_Source\PSoC5/CapSense_1_CSHL.c ****             #if ((CapSense_1_TOTAL_LINEAR_SLIDERS_COUNT > 0u) || (CapSense_1_TOTAL_TOUCH_PADS_COUNT
1079:.\Generated_Source\PSoC5/CapSense_1_CSHL.c ****                 #if (CapSense_1_IS_DIPLEX_SLIDER && CapSense_1_IS_NON_DIPLEX_SLIDER)               
1080:.\Generated_Source\PSoC5/CapSense_1_CSHL.c ****                     /* Calculate next and previous near to maximum */
1081:.\Generated_Source\PSoC5/CapSense_1_CSHL.c ****                     if(diplex == 0u)
1082:.\Generated_Source\PSoC5/CapSense_1_CSHL.c ****                     {
1083:.\Generated_Source\PSoC5/CapSense_1_CSHL.c ****                         pos     = maximum;
1084:.\Generated_Source\PSoC5/CapSense_1_CSHL.c ****                         posPrev = maximum - 1u;
1085:.\Generated_Source\PSoC5/CapSense_1_CSHL.c ****                         posNext = maximum + 1u; 
1086:.\Generated_Source\PSoC5/CapSense_1_CSHL.c ****                     }
1087:.\Generated_Source\PSoC5/CapSense_1_CSHL.c ****                     else
1088:.\Generated_Source\PSoC5/CapSense_1_CSHL.c ****                     {
1089:.\Generated_Source\PSoC5/CapSense_1_CSHL.c ****                         pos     = diplex[maximum];
1090:.\Generated_Source\PSoC5/CapSense_1_CSHL.c ****                         posPrev = diplex[maximum - 1u];
1091:.\Generated_Source\PSoC5/CapSense_1_CSHL.c ****                         posNext = diplex[maximum + 1u];
1092:.\Generated_Source\PSoC5/CapSense_1_CSHL.c ****                         count <<= 1u;
1093:.\Generated_Source\PSoC5/CapSense_1_CSHL.c ****                     }                    
1094:.\Generated_Source\PSoC5/CapSense_1_CSHL.c ****                 #elif (CapSense_1_IS_DIPLEX_SLIDER)
1095:.\Generated_Source\PSoC5/CapSense_1_CSHL.c ****                     /* Calculate next and previous near to maximum */
1096:.\Generated_Source\PSoC5/CapSense_1_CSHL.c ****                     pos     = diplex[maximum];
1097:.\Generated_Source\PSoC5/CapSense_1_CSHL.c ****                     posPrev = diplex[maximum - 1u];
1098:.\Generated_Source\PSoC5/CapSense_1_CSHL.c ****                     posNext = diplex[maximum + 1u];
1099:.\Generated_Source\PSoC5/CapSense_1_CSHL.c ****                     count <<= 1u;                    
1100:.\Generated_Source\PSoC5/CapSense_1_CSHL.c ****                 #else                    
1101:.\Generated_Source\PSoC5/CapSense_1_CSHL.c ****                     /* Calculate next and previous near to maximum */
1102:.\Generated_Source\PSoC5/CapSense_1_CSHL.c ****                     if (maximum >= 1u)
 1334              		.loc 1 1102 0
 1335 002e FB79     		ldrb	r3, [r7, #7]	@ zero_extendqisi2
ARM GAS  C:\Users\LUKASC~1\AppData\Local\Temp\ccTi8KiV.s 			page 44


 1336 0030 002B     		cmp	r3, #0
 1337 0032 02D0     		beq	.L77
1103:.\Generated_Source\PSoC5/CapSense_1_CSHL.c ****                     {
1104:.\Generated_Source\PSoC5/CapSense_1_CSHL.c ****                         posPrev = maximum - 1u;
 1338              		.loc 1 1104 0
 1339 0034 FB79     		ldrb	r3, [r7, #7]
 1340 0036 013B     		subs	r3, r3, #1
 1341 0038 FB77     		strb	r3, [r7, #31]
 1342              	.L77:
1105:.\Generated_Source\PSoC5/CapSense_1_CSHL.c ****                     }
1106:.\Generated_Source\PSoC5/CapSense_1_CSHL.c ****                     posNext = maximum + 1u; 
 1343              		.loc 1 1106 0
 1344 003a FB79     		ldrb	r3, [r7, #7]
 1345 003c 0133     		adds	r3, r3, #1
 1346 003e BB77     		strb	r3, [r7, #30]
1107:.\Generated_Source\PSoC5/CapSense_1_CSHL.c ****                 #endif /* (CapSense_1_IS_DIPLEX_SLIDER && CapSense_1_IS_NON_DIPLEX_SLIDER) */
1108:.\Generated_Source\PSoC5/CapSense_1_CSHL.c ****                         
1109:.\Generated_Source\PSoC5/CapSense_1_CSHL.c ****                 /* Copy Signal for found centriod */
1110:.\Generated_Source\PSoC5/CapSense_1_CSHL.c ****                 #if (CapSense_1_IS_DIPLEX_SLIDER)
1111:.\Generated_Source\PSoC5/CapSense_1_CSHL.c ****                     CapSense_1_centroid[CapSense_1_POS] = startOfSlider[pos];
1112:.\Generated_Source\PSoC5/CapSense_1_CSHL.c ****                 #else
1113:.\Generated_Source\PSoC5/CapSense_1_CSHL.c ****                     CapSense_1_centroid[CapSense_1_POS] = startOfSlider[maximum];
 1347              		.loc 1 1113 0
 1348 0040 FB79     		ldrb	r3, [r7, #7]	@ zero_extendqisi2
 1349 0042 BA69     		ldr	r2, [r7, #24]
 1350 0044 1344     		add	r3, r3, r2
 1351 0046 1A78     		ldrb	r2, [r3]	@ zero_extendqisi2
 1352 0048 414B     		ldr	r3, .L86+4
 1353 004a 5A70     		strb	r2, [r3, #1]
1114:.\Generated_Source\PSoC5/CapSense_1_CSHL.c ****                 #endif /* (CapSense_1_IS_DIPLEX_SLIDER) */
1115:.\Generated_Source\PSoC5/CapSense_1_CSHL.c ****                     
1116:.\Generated_Source\PSoC5/CapSense_1_CSHL.c ****                 /* Check borders for LINEAR Slider */
1117:.\Generated_Source\PSoC5/CapSense_1_CSHL.c ****                 if (maximum == 0u)                   /* Start of centroid */
 1354              		.loc 1 1117 0
 1355 004c FB79     		ldrb	r3, [r7, #7]	@ zero_extendqisi2
 1356 004e 002B     		cmp	r3, #0
 1357 0050 09D1     		bne	.L78
1118:.\Generated_Source\PSoC5/CapSense_1_CSHL.c ****                 { 
1119:.\Generated_Source\PSoC5/CapSense_1_CSHL.c ****                     CapSense_1_centroid[CapSense_1_POS_PREV] = 0u;
 1358              		.loc 1 1119 0
 1359 0052 3F4B     		ldr	r3, .L86+4
 1360 0054 0022     		movs	r2, #0
 1361 0056 1A70     		strb	r2, [r3]
1120:.\Generated_Source\PSoC5/CapSense_1_CSHL.c ****                     CapSense_1_centroid[CapSense_1_POS_NEXT] = startOfSlider[posNext];
 1362              		.loc 1 1120 0
 1363 0058 BB7F     		ldrb	r3, [r7, #30]	@ zero_extendqisi2
 1364 005a BA69     		ldr	r2, [r7, #24]
 1365 005c 1344     		add	r3, r3, r2
 1366 005e 1A78     		ldrb	r2, [r3]	@ zero_extendqisi2
 1367 0060 3B4B     		ldr	r3, .L86+4
 1368 0062 9A70     		strb	r2, [r3, #2]
 1369 0064 1AE0     		b	.L79
 1370              	.L78:
1121:.\Generated_Source\PSoC5/CapSense_1_CSHL.c ****                 }
1122:.\Generated_Source\PSoC5/CapSense_1_CSHL.c ****                 else if (maximum == ((count) - 1u)) /* End of centroid */
 1371              		.loc 1 1122 0
 1372 0066 FA79     		ldrb	r2, [r7, #7]	@ zero_extendqisi2
ARM GAS  C:\Users\LUKASC~1\AppData\Local\Temp\ccTi8KiV.s 			page 45


 1373 0068 7B79     		ldrb	r3, [r7, #5]	@ zero_extendqisi2
 1374 006a 013B     		subs	r3, r3, #1
 1375 006c 9A42     		cmp	r2, r3
 1376 006e 09D1     		bne	.L80
1123:.\Generated_Source\PSoC5/CapSense_1_CSHL.c ****                 {
1124:.\Generated_Source\PSoC5/CapSense_1_CSHL.c ****                     CapSense_1_centroid[CapSense_1_POS_PREV] = startOfSlider[posPrev];
 1377              		.loc 1 1124 0
 1378 0070 FB7F     		ldrb	r3, [r7, #31]	@ zero_extendqisi2
 1379 0072 BA69     		ldr	r2, [r7, #24]
 1380 0074 1344     		add	r3, r3, r2
 1381 0076 1A78     		ldrb	r2, [r3]	@ zero_extendqisi2
 1382 0078 354B     		ldr	r3, .L86+4
 1383 007a 1A70     		strb	r2, [r3]
1125:.\Generated_Source\PSoC5/CapSense_1_CSHL.c ****                     CapSense_1_centroid[CapSense_1_POS_NEXT] = 0u;
 1384              		.loc 1 1125 0
 1385 007c 344B     		ldr	r3, .L86+4
 1386 007e 0022     		movs	r2, #0
 1387 0080 9A70     		strb	r2, [r3, #2]
 1388 0082 0BE0     		b	.L79
 1389              	.L80:
1126:.\Generated_Source\PSoC5/CapSense_1_CSHL.c ****                 }
1127:.\Generated_Source\PSoC5/CapSense_1_CSHL.c ****                 else                                /* Not first Not last */
1128:.\Generated_Source\PSoC5/CapSense_1_CSHL.c ****                 {
1129:.\Generated_Source\PSoC5/CapSense_1_CSHL.c ****                     CapSense_1_centroid[CapSense_1_POS_PREV] = startOfSlider[posPrev];
 1390              		.loc 1 1129 0
 1391 0084 FB7F     		ldrb	r3, [r7, #31]	@ zero_extendqisi2
 1392 0086 BA69     		ldr	r2, [r7, #24]
 1393 0088 1344     		add	r3, r3, r2
 1394 008a 1A78     		ldrb	r2, [r3]	@ zero_extendqisi2
 1395 008c 304B     		ldr	r3, .L86+4
 1396 008e 1A70     		strb	r2, [r3]
1130:.\Generated_Source\PSoC5/CapSense_1_CSHL.c ****                     CapSense_1_centroid[CapSense_1_POS_NEXT] = startOfSlider[posNext];
 1397              		.loc 1 1130 0
 1398 0090 BB7F     		ldrb	r3, [r7, #30]	@ zero_extendqisi2
 1399 0092 BA69     		ldr	r2, [r7, #24]
 1400 0094 1344     		add	r3, r3, r2
 1401 0096 1A78     		ldrb	r2, [r3]	@ zero_extendqisi2
 1402 0098 2D4B     		ldr	r3, .L86+4
 1403 009a 9A70     		strb	r2, [r3, #2]
 1404              	.L79:
1131:.\Generated_Source\PSoC5/CapSense_1_CSHL.c ****                 }
1132:.\Generated_Source\PSoC5/CapSense_1_CSHL.c ****             #endif /* ((CapSense_1_TOTAL_LINEAR_SLIDERS_COUNT>0u)||(CapSense_1_TOTAL_TOUCH_PADS_COU
1133:.\Generated_Source\PSoC5/CapSense_1_CSHL.c **** 
1134:.\Generated_Source\PSoC5/CapSense_1_CSHL.c ****         #if (CapSense_1_ADD_SLIDER_TYPE)
1135:.\Generated_Source\PSoC5/CapSense_1_CSHL.c ****             }
1136:.\Generated_Source\PSoC5/CapSense_1_CSHL.c ****         #endif /* (CapSense_1_ADD_SLIDER_TYPE) */
1137:.\Generated_Source\PSoC5/CapSense_1_CSHL.c ****     
1138:.\Generated_Source\PSoC5/CapSense_1_CSHL.c ****         /* Subtract noiseThreshold */
1139:.\Generated_Source\PSoC5/CapSense_1_CSHL.c ****         if(CapSense_1_centroid[CapSense_1_POS_PREV] > noiseThreshold)
 1405              		.loc 1 1139 0
 1406 009c 2C4B     		ldr	r3, .L86+4
 1407 009e 1B78     		ldrb	r3, [r3]	@ zero_extendqisi2
 1408 00a0 97F82820 		ldrb	r2, [r7, #40]	@ zero_extendqisi2
 1409 00a4 9A42     		cmp	r2, r3
 1410 00a6 08D2     		bcs	.L81
1140:.\Generated_Source\PSoC5/CapSense_1_CSHL.c ****         {
1141:.\Generated_Source\PSoC5/CapSense_1_CSHL.c ****             CapSense_1_centroid[CapSense_1_POS_PREV] -= noiseThreshold;
ARM GAS  C:\Users\LUKASC~1\AppData\Local\Temp\ccTi8KiV.s 			page 46


 1411              		.loc 1 1141 0
 1412 00a8 294B     		ldr	r3, .L86+4
 1413 00aa 1A78     		ldrb	r2, [r3]	@ zero_extendqisi2
 1414 00ac 97F82830 		ldrb	r3, [r7, #40]
 1415 00b0 D31A     		subs	r3, r2, r3
 1416 00b2 DAB2     		uxtb	r2, r3
 1417 00b4 264B     		ldr	r3, .L86+4
 1418 00b6 1A70     		strb	r2, [r3]
 1419 00b8 02E0     		b	.L82
 1420              	.L81:
1142:.\Generated_Source\PSoC5/CapSense_1_CSHL.c ****         }
1143:.\Generated_Source\PSoC5/CapSense_1_CSHL.c ****         else
1144:.\Generated_Source\PSoC5/CapSense_1_CSHL.c ****         {
1145:.\Generated_Source\PSoC5/CapSense_1_CSHL.c ****             CapSense_1_centroid[CapSense_1_POS_PREV] = 0u;
 1421              		.loc 1 1145 0
 1422 00ba 254B     		ldr	r3, .L86+4
 1423 00bc 0022     		movs	r2, #0
 1424 00be 1A70     		strb	r2, [r3]
 1425              	.L82:
1146:.\Generated_Source\PSoC5/CapSense_1_CSHL.c ****         }
1147:.\Generated_Source\PSoC5/CapSense_1_CSHL.c ****         
1148:.\Generated_Source\PSoC5/CapSense_1_CSHL.c ****         /* Maximum always grater than fingerThreshold, so grate than noiseThreshold */
1149:.\Generated_Source\PSoC5/CapSense_1_CSHL.c ****         CapSense_1_centroid[CapSense_1_POS] -= noiseThreshold;
 1426              		.loc 1 1149 0
 1427 00c0 234B     		ldr	r3, .L86+4
 1428 00c2 5A78     		ldrb	r2, [r3, #1]	@ zero_extendqisi2
 1429 00c4 97F82830 		ldrb	r3, [r7, #40]
 1430 00c8 D31A     		subs	r3, r2, r3
 1431 00ca DAB2     		uxtb	r2, r3
 1432 00cc 204B     		ldr	r3, .L86+4
 1433 00ce 5A70     		strb	r2, [r3, #1]
1150:.\Generated_Source\PSoC5/CapSense_1_CSHL.c ****         
1151:.\Generated_Source\PSoC5/CapSense_1_CSHL.c ****         /* Subtract noiseThreshold */
1152:.\Generated_Source\PSoC5/CapSense_1_CSHL.c ****         if(CapSense_1_centroid[CapSense_1_POS_NEXT] > noiseThreshold)
 1434              		.loc 1 1152 0
 1435 00d0 1F4B     		ldr	r3, .L86+4
 1436 00d2 9B78     		ldrb	r3, [r3, #2]	@ zero_extendqisi2
 1437 00d4 97F82820 		ldrb	r2, [r7, #40]	@ zero_extendqisi2
 1438 00d8 9A42     		cmp	r2, r3
 1439 00da 08D2     		bcs	.L83
1153:.\Generated_Source\PSoC5/CapSense_1_CSHL.c ****         {
1154:.\Generated_Source\PSoC5/CapSense_1_CSHL.c ****             CapSense_1_centroid[CapSense_1_POS_NEXT] -= noiseThreshold;
 1440              		.loc 1 1154 0
 1441 00dc 1C4B     		ldr	r3, .L86+4
 1442 00de 9A78     		ldrb	r2, [r3, #2]	@ zero_extendqisi2
 1443 00e0 97F82830 		ldrb	r3, [r7, #40]
 1444 00e4 D31A     		subs	r3, r2, r3
 1445 00e6 DAB2     		uxtb	r2, r3
 1446 00e8 194B     		ldr	r3, .L86+4
 1447 00ea 9A70     		strb	r2, [r3, #2]
 1448 00ec 02E0     		b	.L84
 1449              	.L83:
1155:.\Generated_Source\PSoC5/CapSense_1_CSHL.c ****         }
1156:.\Generated_Source\PSoC5/CapSense_1_CSHL.c ****         else
1157:.\Generated_Source\PSoC5/CapSense_1_CSHL.c ****         {
1158:.\Generated_Source\PSoC5/CapSense_1_CSHL.c ****             CapSense_1_centroid[CapSense_1_POS_NEXT] = 0u;
 1450              		.loc 1 1158 0
ARM GAS  C:\Users\LUKASC~1\AppData\Local\Temp\ccTi8KiV.s 			page 47


 1451 00ee 184B     		ldr	r3, .L86+4
 1452 00f0 0022     		movs	r2, #0
 1453 00f2 9A70     		strb	r2, [r3, #2]
 1454              	.L84:
1159:.\Generated_Source\PSoC5/CapSense_1_CSHL.c ****         }
1160:.\Generated_Source\PSoC5/CapSense_1_CSHL.c ****         
1161:.\Generated_Source\PSoC5/CapSense_1_CSHL.c ****         
1162:.\Generated_Source\PSoC5/CapSense_1_CSHL.c ****         /* Si+1 - Si-1 */
1163:.\Generated_Source\PSoC5/CapSense_1_CSHL.c ****         numerator = (uint32) CapSense_1_centroid[CapSense_1_POS_NEXT] -
 1455              		.loc 1 1163 0
 1456 00f4 164B     		ldr	r3, .L86+4
 1457 00f6 9B78     		ldrb	r3, [r3, #2]	@ zero_extendqisi2
 1458 00f8 1A46     		mov	r2, r3
1164:.\Generated_Source\PSoC5/CapSense_1_CSHL.c ****                     (uint32) CapSense_1_centroid[CapSense_1_POS_PREV];
 1459              		.loc 1 1164 0
 1460 00fa 154B     		ldr	r3, .L86+4
 1461 00fc 1B78     		ldrb	r3, [r3]	@ zero_extendqisi2
1163:.\Generated_Source\PSoC5/CapSense_1_CSHL.c ****                     (uint32) CapSense_1_centroid[CapSense_1_POS_PREV];
 1462              		.loc 1 1163 0
 1463 00fe D31A     		subs	r3, r2, r3
 1464 0100 7B61     		str	r3, [r7, #20]
1165:.\Generated_Source\PSoC5/CapSense_1_CSHL.c **** 
1166:.\Generated_Source\PSoC5/CapSense_1_CSHL.c ****         /* Si+1 + Si + Si-1 */
1167:.\Generated_Source\PSoC5/CapSense_1_CSHL.c ****         denominator = (int32) CapSense_1_centroid[CapSense_1_POS_PREV] + 
 1465              		.loc 1 1167 0
 1466 0102 134B     		ldr	r3, .L86+4
 1467 0104 1B78     		ldrb	r3, [r3]	@ zero_extendqisi2
 1468 0106 1A46     		mov	r2, r3
1168:.\Generated_Source\PSoC5/CapSense_1_CSHL.c ****                       (int32) CapSense_1_centroid[CapSense_1_POS] + 
 1469              		.loc 1 1168 0
 1470 0108 114B     		ldr	r3, .L86+4
 1471 010a 5B78     		ldrb	r3, [r3, #1]	@ zero_extendqisi2
1167:.\Generated_Source\PSoC5/CapSense_1_CSHL.c ****                       (int32) CapSense_1_centroid[CapSense_1_POS] + 
 1472              		.loc 1 1167 0
 1473 010c 1344     		add	r3, r3, r2
1169:.\Generated_Source\PSoC5/CapSense_1_CSHL.c ****                       (int32) CapSense_1_centroid[CapSense_1_POS_NEXT];
 1474              		.loc 1 1169 0
 1475 010e 104A     		ldr	r2, .L86+4
 1476 0110 9278     		ldrb	r2, [r2, #2]	@ zero_extendqisi2
1167:.\Generated_Source\PSoC5/CapSense_1_CSHL.c ****                       (int32) CapSense_1_centroid[CapSense_1_POS] + 
 1477              		.loc 1 1167 0
 1478 0112 1344     		add	r3, r3, r2
 1479 0114 3B61     		str	r3, [r7, #16]
1170:.\Generated_Source\PSoC5/CapSense_1_CSHL.c ****         
1171:.\Generated_Source\PSoC5/CapSense_1_CSHL.c ****         /* (numerator/denominator) + maximum */
1172:.\Generated_Source\PSoC5/CapSense_1_CSHL.c ****         denominator = (((int32)(uint32)((uint32)numerator << 8u)/denominator) + (int32)(uint32)((ui
 1480              		.loc 1 1172 0
 1481 0116 7B69     		ldr	r3, [r7, #20]
 1482 0118 1B02     		lsls	r3, r3, #8
 1483 011a 1A46     		mov	r2, r3
 1484 011c 3B69     		ldr	r3, [r7, #16]
 1485 011e 92FBF3F3 		sdiv	r3, r2, r3
 1486 0122 FA79     		ldrb	r2, [r7, #7]	@ zero_extendqisi2
 1487 0124 1202     		lsls	r2, r2, #8
 1488 0126 1344     		add	r3, r3, r2
 1489 0128 3B61     		str	r3, [r7, #16]
1173:.\Generated_Source\PSoC5/CapSense_1_CSHL.c **** 
ARM GAS  C:\Users\LUKASC~1\AppData\Local\Temp\ccTi8KiV.s 			page 48


1174:.\Generated_Source\PSoC5/CapSense_1_CSHL.c ****         #if(CapSense_1_TOTAL_RADIAL_SLIDERS_COUNT > 0u)
1175:.\Generated_Source\PSoC5/CapSense_1_CSHL.c ****             /* Only required for RADIAL Slider */
1176:.\Generated_Source\PSoC5/CapSense_1_CSHL.c ****             if(denominator < 0)
1177:.\Generated_Source\PSoC5/CapSense_1_CSHL.c ****             {
1178:.\Generated_Source\PSoC5/CapSense_1_CSHL.c ****                 denominator += (int32)((uint16)((uint16) count << 8u));
1179:.\Generated_Source\PSoC5/CapSense_1_CSHL.c ****             }
1180:.\Generated_Source\PSoC5/CapSense_1_CSHL.c ****         #endif /* (CapSense_1_TOTAL_RADIAL_SLIDERS_COUNT > 0u) */
1181:.\Generated_Source\PSoC5/CapSense_1_CSHL.c **** 
1182:.\Generated_Source\PSoC5/CapSense_1_CSHL.c ****         denominator *= (int16)resolution;
 1490              		.loc 1 1182 0
 1491 012a 7B88     		ldrh	r3, [r7, #2]
 1492 012c 1AB2     		sxth	r2, r3
 1493 012e 3B69     		ldr	r3, [r7, #16]
 1494 0130 02FB03F3 		mul	r3, r2, r3
 1495 0134 3B61     		str	r3, [r7, #16]
1183:.\Generated_Source\PSoC5/CapSense_1_CSHL.c **** 
1184:.\Generated_Source\PSoC5/CapSense_1_CSHL.c ****         /* Round the relust and put it to uint8 */
1185:.\Generated_Source\PSoC5/CapSense_1_CSHL.c ****         position = ((uint8) HI16((uint32)denominator + CapSense_1_CENTROID_ROUND_VALUE));
 1496              		.loc 1 1185 0
 1497 0136 3B69     		ldr	r3, [r7, #16]
 1498 0138 03F5FE43 		add	r3, r3, #32512
 1499 013c 1B0C     		lsrs	r3, r3, #16
 1500 013e FB73     		strb	r3, [r7, #15]
1186:.\Generated_Source\PSoC5/CapSense_1_CSHL.c **** 
1187:.\Generated_Source\PSoC5/CapSense_1_CSHL.c ****         return (position);
 1501              		.loc 1 1187 0
 1502 0140 FB7B     		ldrb	r3, [r7, #15]	@ zero_extendqisi2
1188:.\Generated_Source\PSoC5/CapSense_1_CSHL.c ****     }    
 1503              		.loc 1 1188 0
 1504 0142 1846     		mov	r0, r3
 1505 0144 2037     		adds	r7, r7, #32
 1506              		.cfi_def_cfa_offset 8
 1507 0146 BD46     		mov	sp, r7
 1508              		.cfi_def_cfa_register 13
 1509              		@ sp needed
 1510 0148 90BC     		pop	{r4, r7}
 1511              		.cfi_restore 7
 1512              		.cfi_restore 4
 1513              		.cfi_def_cfa_offset 0
 1514 014a 7047     		bx	lr
 1515              	.L87:
 1516              		.align	2
 1517              	.L86:
 1518 014c 00000000 		.word	CapSense_1_sensorSignal
 1519 0150 04000000 		.word	CapSense_1_centroid.5138
 1520              		.cfi_endproc
 1521              	.LFE12:
 1522              		.size	CapSense_1_CalcCentroid, .-CapSense_1_CalcCentroid
 1523              		.section	.text.CapSense_1_GetCentroidPos,"ax",%progbits
 1524              		.align	2
 1525              		.global	CapSense_1_GetCentroidPos
 1526              		.thumb
 1527              		.thumb_func
 1528              		.type	CapSense_1_GetCentroidPos, %function
 1529              	CapSense_1_GetCentroidPos:
 1530              	.LFB13:
1189:.\Generated_Source\PSoC5/CapSense_1_CSHL.c **** #endif /* (CapSense_1_TOTAL_CENTROIDS_COUNT) */
ARM GAS  C:\Users\LUKASC~1\AppData\Local\Temp\ccTi8KiV.s 			page 49


1190:.\Generated_Source\PSoC5/CapSense_1_CSHL.c **** 
1191:.\Generated_Source\PSoC5/CapSense_1_CSHL.c **** 
1192:.\Generated_Source\PSoC5/CapSense_1_CSHL.c **** #if(CapSense_1_TOTAL_LINEAR_SLIDERS_COUNT > 0u)
1193:.\Generated_Source\PSoC5/CapSense_1_CSHL.c ****     /*******************************************************************************
1194:.\Generated_Source\PSoC5/CapSense_1_CSHL.c ****     * Function Name: CapSense_1_GetCentroidPos
1195:.\Generated_Source\PSoC5/CapSense_1_CSHL.c ****     ********************************************************************************
1196:.\Generated_Source\PSoC5/CapSense_1_CSHL.c ****     *
1197:.\Generated_Source\PSoC5/CapSense_1_CSHL.c ****     * Summary:
1198:.\Generated_Source\PSoC5/CapSense_1_CSHL.c ****     *  Checks the CapSense_1_Signal[ ] array for a centroid within
1199:.\Generated_Source\PSoC5/CapSense_1_CSHL.c ****     *  slider specified range. The centroid position is calculated to the resolution
1200:.\Generated_Source\PSoC5/CapSense_1_CSHL.c ****     *  specified in the CapSense customizer. The position filters are applied to the
1201:.\Generated_Source\PSoC5/CapSense_1_CSHL.c ****     *  result if enabled.
1202:.\Generated_Source\PSoC5/CapSense_1_CSHL.c ****     *
1203:.\Generated_Source\PSoC5/CapSense_1_CSHL.c ****     * Parameters:
1204:.\Generated_Source\PSoC5/CapSense_1_CSHL.c ****     *  widget:  Widget number.
1205:.\Generated_Source\PSoC5/CapSense_1_CSHL.c ****     *  For every linear slider widget there are defines in this format:
1206:.\Generated_Source\PSoC5/CapSense_1_CSHL.c ****     *  #define CapSense_1_LS__"widget_name"            5
1207:.\Generated_Source\PSoC5/CapSense_1_CSHL.c ****     * 
1208:.\Generated_Source\PSoC5/CapSense_1_CSHL.c ****     * Return:
1209:.\Generated_Source\PSoC5/CapSense_1_CSHL.c ****     *  Returns position value of the linear slider.
1210:.\Generated_Source\PSoC5/CapSense_1_CSHL.c ****     *
1211:.\Generated_Source\PSoC5/CapSense_1_CSHL.c ****     * Side Effects:
1212:.\Generated_Source\PSoC5/CapSense_1_CSHL.c ****     *  If any sensor within the slider widget is active, the function returns values
1213:.\Generated_Source\PSoC5/CapSense_1_CSHL.c ****     *  from zero to the API resolution value set in the CapSense customizer. If no
1214:.\Generated_Source\PSoC5/CapSense_1_CSHL.c ****     *  sensors are active, the function returns 0xFFFF. If an error occurs during
1215:.\Generated_Source\PSoC5/CapSense_1_CSHL.c ****     *  execution of the centroid/diplexing algorithm, the function returns 0xFFFF.
1216:.\Generated_Source\PSoC5/CapSense_1_CSHL.c ****     *  There are no checks of widget type argument provided to this function.
1217:.\Generated_Source\PSoC5/CapSense_1_CSHL.c ****     *  The unproper widget type provided will cause unexpected position calculations.
1218:.\Generated_Source\PSoC5/CapSense_1_CSHL.c ****     *
1219:.\Generated_Source\PSoC5/CapSense_1_CSHL.c ****     * Note:
1220:.\Generated_Source\PSoC5/CapSense_1_CSHL.c ****     *  If noise counts on the slider segments are greater than the noise
1221:.\Generated_Source\PSoC5/CapSense_1_CSHL.c ****     *  threshold, this subroutine may generate a false centroid result. The noise
1222:.\Generated_Source\PSoC5/CapSense_1_CSHL.c ****     *  threshold should be set carefully (high enough above the noise level) so
1223:.\Generated_Source\PSoC5/CapSense_1_CSHL.c ****     *  that noise will not generate a false centroid.
1224:.\Generated_Source\PSoC5/CapSense_1_CSHL.c ****     *
1225:.\Generated_Source\PSoC5/CapSense_1_CSHL.c ****     * Reentrant:
1226:.\Generated_Source\PSoC5/CapSense_1_CSHL.c ****     *  No.
1227:.\Generated_Source\PSoC5/CapSense_1_CSHL.c ****     *
1228:.\Generated_Source\PSoC5/CapSense_1_CSHL.c ****     *******************************************************************************/
1229:.\Generated_Source\PSoC5/CapSense_1_CSHL.c ****     uint16 CapSense_1_GetCentroidPos(uint8 widget) 
1230:.\Generated_Source\PSoC5/CapSense_1_CSHL.c ****     {
 1531              		.loc 1 1230 0
 1532              		.cfi_startproc
 1533              		@ args = 0, pretend = 0, frame = 16
 1534              		@ frame_needed = 1, uses_anonymous_args = 0
 1535 0000 90B5     		push	{r4, r7, lr}
 1536              		.cfi_def_cfa_offset 12
 1537              		.cfi_offset 4, -12
 1538              		.cfi_offset 7, -8
 1539              		.cfi_offset 14, -4
 1540 0002 87B0     		sub	sp, sp, #28
 1541              		.cfi_def_cfa_offset 40
 1542 0004 02AF     		add	r7, sp, #8
 1543              		.cfi_def_cfa 7, 32
 1544 0006 0346     		mov	r3, r0
 1545 0008 FB71     		strb	r3, [r7, #7]
1231:.\Generated_Source\PSoC5/CapSense_1_CSHL.c ****         #if (CapSense_1_IS_DIPLEX_SLIDER)
ARM GAS  C:\Users\LUKASC~1\AppData\Local\Temp\ccTi8KiV.s 			page 50


1232:.\Generated_Source\PSoC5/CapSense_1_CSHL.c ****             const uint8 CYCODE *diplex;
1233:.\Generated_Source\PSoC5/CapSense_1_CSHL.c ****         #endif /* (CapSense_1_IS_DIPLEX_SLIDER) */
1234:.\Generated_Source\PSoC5/CapSense_1_CSHL.c ****                 
1235:.\Generated_Source\PSoC5/CapSense_1_CSHL.c ****         #if (0u != CapSense_1_LINEAR_SLIDERS_POS_FILTERS_MASK)
1236:.\Generated_Source\PSoC5/CapSense_1_CSHL.c ****             uint8 posIndex;
1237:.\Generated_Source\PSoC5/CapSense_1_CSHL.c ****             uint8 firstTimeIndex = CapSense_1_posFiltersData[widget];
 1546              		.loc 1 1237 0
 1547 000a FB79     		ldrb	r3, [r7, #7]	@ zero_extendqisi2
 1548 000c 334A     		ldr	r2, .L94
 1549 000e D35C     		ldrb	r3, [r2, r3]
 1550 0010 7B73     		strb	r3, [r7, #13]
1238:.\Generated_Source\PSoC5/CapSense_1_CSHL.c ****             uint8 posFiltersMask = CapSense_1_posFiltersMask[widget];  
 1551              		.loc 1 1238 0
 1552 0012 0823     		movs	r3, #8
 1553 0014 3B73     		strb	r3, [r7, #12]
1239:.\Generated_Source\PSoC5/CapSense_1_CSHL.c ****         #endif /* (0u != CapSense_1_LINEAR_SLIDERS_POS_FILTERS_MASK) */
1240:.\Generated_Source\PSoC5/CapSense_1_CSHL.c **** 
1241:.\Generated_Source\PSoC5/CapSense_1_CSHL.c ****         #if ((0u != (CapSense_1_MEDIAN_FILTER & CapSense_1_LINEAR_SLIDERS_POS_FILTERS_MASK)) || \
1242:.\Generated_Source\PSoC5/CapSense_1_CSHL.c ****              (0u != (CapSense_1_AVERAGING_FILTER & CapSense_1_LINEAR_SLIDERS_POS_FILTERS_MASK)))
1243:.\Generated_Source\PSoC5/CapSense_1_CSHL.c ****             uint8 tempPos;
1244:.\Generated_Source\PSoC5/CapSense_1_CSHL.c ****         #endif /* ((0u != (CapSense_1_MEDIAN_FILTER & CapSense_1_LINEAR_SLIDERS_POS_FILTERS_MASK)) 
1245:.\Generated_Source\PSoC5/CapSense_1_CSHL.c ****                *   (0u != (CapSense_1_AVERAGING_FILTER & CapSense_1_LINEAR_SLIDERS_POS_FILTERS_MASK
1246:.\Generated_Source\PSoC5/CapSense_1_CSHL.c ****                */
1247:.\Generated_Source\PSoC5/CapSense_1_CSHL.c **** 
1248:.\Generated_Source\PSoC5/CapSense_1_CSHL.c ****         uint8 maximum;
1249:.\Generated_Source\PSoC5/CapSense_1_CSHL.c ****         uint16 position;
1250:.\Generated_Source\PSoC5/CapSense_1_CSHL.c ****         uint8 offset = CapSense_1_rawDataIndex[widget];
 1554              		.loc 1 1250 0
 1555 0016 FB79     		ldrb	r3, [r7, #7]	@ zero_extendqisi2
 1556 0018 314A     		ldr	r2, .L94+4
 1557 001a D35C     		ldrb	r3, [r2, r3]
 1558 001c FB72     		strb	r3, [r7, #11]
1251:.\Generated_Source\PSoC5/CapSense_1_CSHL.c ****         uint8 count = CapSense_1_numberOfSensors[widget];
 1559              		.loc 1 1251 0
 1560 001e FB79     		ldrb	r3, [r7, #7]	@ zero_extendqisi2
 1561 0020 304A     		ldr	r2, .L94+8
 1562 0022 D35C     		ldrb	r3, [r2, r3]
 1563 0024 BB72     		strb	r3, [r7, #10]
1252:.\Generated_Source\PSoC5/CapSense_1_CSHL.c ****                         
1253:.\Generated_Source\PSoC5/CapSense_1_CSHL.c ****         #if (CapSense_1_IS_DIPLEX_SLIDER)
1254:.\Generated_Source\PSoC5/CapSense_1_CSHL.c ****             if(widget < CapSense_1_TOTAL_DIPLEXED_SLIDERS_COUNT)
1255:.\Generated_Source\PSoC5/CapSense_1_CSHL.c ****             {
1256:.\Generated_Source\PSoC5/CapSense_1_CSHL.c ****                 maximum = CapSense_1_diplexTable[widget];
1257:.\Generated_Source\PSoC5/CapSense_1_CSHL.c ****                 diplex = &CapSense_1_diplexTable[maximum];
1258:.\Generated_Source\PSoC5/CapSense_1_CSHL.c ****             }
1259:.\Generated_Source\PSoC5/CapSense_1_CSHL.c ****             else
1260:.\Generated_Source\PSoC5/CapSense_1_CSHL.c ****             {
1261:.\Generated_Source\PSoC5/CapSense_1_CSHL.c ****                 diplex = 0u;
1262:.\Generated_Source\PSoC5/CapSense_1_CSHL.c ****             }
1263:.\Generated_Source\PSoC5/CapSense_1_CSHL.c ****         #endif /* (CapSense_1_IS_DIPLEX_SLIDER) */
1264:.\Generated_Source\PSoC5/CapSense_1_CSHL.c **** 
1265:.\Generated_Source\PSoC5/CapSense_1_CSHL.c ****         /* Find Maximum within centroid */      
1266:.\Generated_Source\PSoC5/CapSense_1_CSHL.c ****         #if (CapSense_1_IS_DIPLEX_SLIDER)        
1267:.\Generated_Source\PSoC5/CapSense_1_CSHL.c ****             maximum = CapSense_1_FindMaximum(offset, count, CapSense_1_fingerThreshold[widget], dip
1268:.\Generated_Source\PSoC5/CapSense_1_CSHL.c ****         #else
1269:.\Generated_Source\PSoC5/CapSense_1_CSHL.c ****             maximum = CapSense_1_FindMaximum(offset, count, CapSense_1_fingerThreshold[widget]);
 1564              		.loc 1 1269 0
ARM GAS  C:\Users\LUKASC~1\AppData\Local\Temp\ccTi8KiV.s 			page 51


 1565 0026 FB79     		ldrb	r3, [r7, #7]	@ zero_extendqisi2
 1566 0028 2F4A     		ldr	r2, .L94+12
 1567 002a D35C     		ldrb	r3, [r2, r3]	@ zero_extendqisi2
 1568 002c F97A     		ldrb	r1, [r7, #11]	@ zero_extendqisi2
 1569 002e BA7A     		ldrb	r2, [r7, #10]	@ zero_extendqisi2
 1570 0030 0846     		mov	r0, r1
 1571 0032 1146     		mov	r1, r2
 1572 0034 1A46     		mov	r2, r3
 1573 0036 FFF7FEFF 		bl	CapSense_1_FindMaximum
 1574 003a 0346     		mov	r3, r0
 1575 003c 7B72     		strb	r3, [r7, #9]
1270:.\Generated_Source\PSoC5/CapSense_1_CSHL.c ****         #endif /* (CapSense_1_IS_DIPLEX_SLIDER) */
1271:.\Generated_Source\PSoC5/CapSense_1_CSHL.c **** 
1272:.\Generated_Source\PSoC5/CapSense_1_CSHL.c ****         if (maximum != 0xFFu)
 1576              		.loc 1 1272 0
 1577 003e 7B7A     		ldrb	r3, [r7, #9]	@ zero_extendqisi2
 1578 0040 FF2B     		cmp	r3, #255
 1579 0042 3AD0     		beq	.L89
1273:.\Generated_Source\PSoC5/CapSense_1_CSHL.c ****         {
1274:.\Generated_Source\PSoC5/CapSense_1_CSHL.c ****             /* Calculate centroid */
1275:.\Generated_Source\PSoC5/CapSense_1_CSHL.c ****             position = (uint16) CapSense_1_CalcCentroid(maximum, 
 1580              		.loc 1 1275 0
 1581 0044 40F28E54 		movw	r4, #1422
 1582 0048 FB79     		ldrb	r3, [r7, #7]	@ zero_extendqisi2
 1583 004a 284A     		ldr	r2, .L94+16
 1584 004c D35C     		ldrb	r3, [r2, r3]	@ zero_extendqisi2
 1585 004e 787A     		ldrb	r0, [r7, #9]	@ zero_extendqisi2
 1586 0050 F97A     		ldrb	r1, [r7, #11]	@ zero_extendqisi2
 1587 0052 BA7A     		ldrb	r2, [r7, #10]	@ zero_extendqisi2
 1588 0054 0093     		str	r3, [sp]
 1589 0056 2346     		mov	r3, r4
 1590 0058 FFF7FEFF 		bl	CapSense_1_CalcCentroid
 1591 005c 0346     		mov	r3, r0
 1592 005e FB81     		strh	r3, [r7, #14]	@ movhi
1276:.\Generated_Source\PSoC5/CapSense_1_CSHL.c ****                          offset, count, CapSense_1_centroidMult[widget], CapSense_1_noiseThreshold[
1277:.\Generated_Source\PSoC5/CapSense_1_CSHL.c **** 
1278:.\Generated_Source\PSoC5/CapSense_1_CSHL.c ****             #if (0u != CapSense_1_LINEAR_SLIDERS_POS_FILTERS_MASK)
1279:.\Generated_Source\PSoC5/CapSense_1_CSHL.c ****                 /* Check if this linear slider has enabled filters */
1280:.\Generated_Source\PSoC5/CapSense_1_CSHL.c ****                 if (0u != (posFiltersMask & CapSense_1_ANY_POS_FILTER))
 1593              		.loc 1 1280 0
 1594 0060 3B7B     		ldrb	r3, [r7, #12]	@ zero_extendqisi2
 1595 0062 03F01F03 		and	r3, r3, #31
 1596 0066 002B     		cmp	r3, #0
 1597 0068 33D0     		beq	.L92
1281:.\Generated_Source\PSoC5/CapSense_1_CSHL.c ****                 {
1282:.\Generated_Source\PSoC5/CapSense_1_CSHL.c ****                     /* Caluclate position to store filters data */
1283:.\Generated_Source\PSoC5/CapSense_1_CSHL.c ****                     posIndex  = firstTimeIndex + 1u;
 1598              		.loc 1 1283 0
 1599 006a 7B7B     		ldrb	r3, [r7, #13]
 1600 006c 0133     		adds	r3, r3, #1
 1601 006e 3B72     		strb	r3, [r7, #8]
1284:.\Generated_Source\PSoC5/CapSense_1_CSHL.c ****                     
1285:.\Generated_Source\PSoC5/CapSense_1_CSHL.c ****                     if (0u == CapSense_1_posFiltersData[firstTimeIndex])
 1602              		.loc 1 1285 0
 1603 0070 7B7B     		ldrb	r3, [r7, #13]	@ zero_extendqisi2
 1604 0072 1A4A     		ldr	r2, .L94
 1605 0074 D35C     		ldrb	r3, [r2, r3]	@ zero_extendqisi2
ARM GAS  C:\Users\LUKASC~1\AppData\Local\Temp\ccTi8KiV.s 			page 52


 1606 0076 002B     		cmp	r3, #0
 1607 0078 09D1     		bne	.L91
1286:.\Generated_Source\PSoC5/CapSense_1_CSHL.c ****                     {
1287:.\Generated_Source\PSoC5/CapSense_1_CSHL.c ****                         /* Init filters */
1288:.\Generated_Source\PSoC5/CapSense_1_CSHL.c ****                         CapSense_1_posFiltersData[posIndex] = (uint8) position;
 1608              		.loc 1 1288 0
 1609 007a 3B7A     		ldrb	r3, [r7, #8]	@ zero_extendqisi2
 1610 007c FA89     		ldrh	r2, [r7, #14]	@ movhi
 1611 007e D1B2     		uxtb	r1, r2
 1612 0080 164A     		ldr	r2, .L94
 1613 0082 D154     		strb	r1, [r2, r3]
1289:.\Generated_Source\PSoC5/CapSense_1_CSHL.c ****                         #if ((0u != (CapSense_1_MEDIAN_FILTER & \
1290:.\Generated_Source\PSoC5/CapSense_1_CSHL.c ****                                      CapSense_1_LINEAR_SLIDERS_POS_FILTERS_MASK)) || \
1291:.\Generated_Source\PSoC5/CapSense_1_CSHL.c ****                              (0u != (CapSense_1_AVERAGING_FILTER & \
1292:.\Generated_Source\PSoC5/CapSense_1_CSHL.c ****                                      CapSense_1_LINEAR_SLIDERS_POS_FILTERS_MASK)))
1293:.\Generated_Source\PSoC5/CapSense_1_CSHL.c **** 
1294:.\Generated_Source\PSoC5/CapSense_1_CSHL.c ****                             if ( (0u != (posFiltersMask & CapSense_1_MEDIAN_FILTER)) || 
1295:.\Generated_Source\PSoC5/CapSense_1_CSHL.c ****                                  (0u != (posFiltersMask & CapSense_1_AVERAGING_FILTER)) )
1296:.\Generated_Source\PSoC5/CapSense_1_CSHL.c ****                             {
1297:.\Generated_Source\PSoC5/CapSense_1_CSHL.c ****                                 CapSense_1_posFiltersData[posIndex + 1u] = (uint8) position;
1298:.\Generated_Source\PSoC5/CapSense_1_CSHL.c ****                             }
1299:.\Generated_Source\PSoC5/CapSense_1_CSHL.c ****                         #endif /* ((0u != (CapSense_1_MEDIAN_FILTER & \
1300:.\Generated_Source\PSoC5/CapSense_1_CSHL.c ****                                *           CapSense_1_LINEAR_SLIDERS_POS_FILTERS_MASK)) || \
1301:.\Generated_Source\PSoC5/CapSense_1_CSHL.c ****                                *   (0u != (CapSense_1_AVERAGING_FILTER & \
1302:.\Generated_Source\PSoC5/CapSense_1_CSHL.c ****                                *           CapSense_1_LINEAR_SLIDERS_POS_FILTERS_MASK)))
1303:.\Generated_Source\PSoC5/CapSense_1_CSHL.c ****                                */
1304:.\Generated_Source\PSoC5/CapSense_1_CSHL.c ****                         
1305:.\Generated_Source\PSoC5/CapSense_1_CSHL.c ****                         CapSense_1_posFiltersData[firstTimeIndex] = 1u;
 1614              		.loc 1 1305 0
 1615 0084 7B7B     		ldrb	r3, [r7, #13]	@ zero_extendqisi2
 1616 0086 154A     		ldr	r2, .L94
 1617 0088 0121     		movs	r1, #1
 1618 008a D154     		strb	r1, [r2, r3]
 1619 008c 21E0     		b	.L92
 1620              	.L91:
1306:.\Generated_Source\PSoC5/CapSense_1_CSHL.c ****                     }
1307:.\Generated_Source\PSoC5/CapSense_1_CSHL.c ****                     else
1308:.\Generated_Source\PSoC5/CapSense_1_CSHL.c ****                     {
1309:.\Generated_Source\PSoC5/CapSense_1_CSHL.c ****                         /* Do filtering */
1310:.\Generated_Source\PSoC5/CapSense_1_CSHL.c ****                         #if (0u != (CapSense_1_MEDIAN_FILTER & CapSense_1_LINEAR_SLIDERS_POS_FILTER
1311:.\Generated_Source\PSoC5/CapSense_1_CSHL.c ****                             if (0u != (posFiltersMask & CapSense_1_MEDIAN_FILTER))
1312:.\Generated_Source\PSoC5/CapSense_1_CSHL.c ****                             {
1313:.\Generated_Source\PSoC5/CapSense_1_CSHL.c ****                                 tempPos = (uint8) position;
1314:.\Generated_Source\PSoC5/CapSense_1_CSHL.c ****                                 position = CapSense_1_MedianFilter(position,
1315:.\Generated_Source\PSoC5/CapSense_1_CSHL.c ****                                                                 (uint16)CapSense_1_posFiltersData[p
1316:.\Generated_Source\PSoC5/CapSense_1_CSHL.c ****                                                                 (uint16)CapSense_1_posFiltersData[p
1317:.\Generated_Source\PSoC5/CapSense_1_CSHL.c ****                                 CapSense_1_posFiltersData[posIndex + 1u] =
1318:.\Generated_Source\PSoC5/CapSense_1_CSHL.c ****                                                                              CapSense_1_posFiltersD
1319:.\Generated_Source\PSoC5/CapSense_1_CSHL.c ****                                 CapSense_1_posFiltersData[posIndex] = tempPos;
1320:.\Generated_Source\PSoC5/CapSense_1_CSHL.c ****                             }
1321:.\Generated_Source\PSoC5/CapSense_1_CSHL.c ****                         #endif /*(0u != (CapSense_1_MEDIAN_FILTER &
1322:.\Generated_Source\PSoC5/CapSense_1_CSHL.c ****                                *         CapSense_1_LINEAR_SLIDERS_POS_FILTERS_MASK))
1323:.\Generated_Source\PSoC5/CapSense_1_CSHL.c ****                                */
1324:.\Generated_Source\PSoC5/CapSense_1_CSHL.c **** 
1325:.\Generated_Source\PSoC5/CapSense_1_CSHL.c ****                         #if(0u!=(CapSense_1_AVERAGING_FILTER & CapSense_1_LINEAR_SLIDERS_POS_FILTER
1326:.\Generated_Source\PSoC5/CapSense_1_CSHL.c ****                             if (0u != (posFiltersMask & CapSense_1_AVERAGING_FILTER)) 
1327:.\Generated_Source\PSoC5/CapSense_1_CSHL.c ****                             {
ARM GAS  C:\Users\LUKASC~1\AppData\Local\Temp\ccTi8KiV.s 			page 53


1328:.\Generated_Source\PSoC5/CapSense_1_CSHL.c ****                                 tempPos = (uint8) position;
1329:.\Generated_Source\PSoC5/CapSense_1_CSHL.c ****                                 position = CapSense_1_AveragingFilter(position,
1330:.\Generated_Source\PSoC5/CapSense_1_CSHL.c ****                                                                 (uint16)CapSense_1_posFiltersData[p
1331:.\Generated_Source\PSoC5/CapSense_1_CSHL.c ****                                                                 (uint16)CapSense_1_posFiltersData[p
1332:.\Generated_Source\PSoC5/CapSense_1_CSHL.c ****                                 CapSense_1_posFiltersData[posIndex+1u]=CapSense_1_posFiltersData[po
1333:.\Generated_Source\PSoC5/CapSense_1_CSHL.c ****                                 CapSense_1_posFiltersData[posIndex] = tempPos;
1334:.\Generated_Source\PSoC5/CapSense_1_CSHL.c ****                             }
1335:.\Generated_Source\PSoC5/CapSense_1_CSHL.c ****                         #endif /* (0u != (CapSense_1_AVERAGING_FILTER & \
1336:.\Generated_Source\PSoC5/CapSense_1_CSHL.c ****                                *           CapSense_1_LINEAR_SLIDERS_POS_FILTERS_MASK))
1337:.\Generated_Source\PSoC5/CapSense_1_CSHL.c ****                                */
1338:.\Generated_Source\PSoC5/CapSense_1_CSHL.c **** 
1339:.\Generated_Source\PSoC5/CapSense_1_CSHL.c ****                         #if (0u != (CapSense_1_IIR2_FILTER & CapSense_1_LINEAR_SLIDERS_POS_FILTERS_
1340:.\Generated_Source\PSoC5/CapSense_1_CSHL.c ****                             if (0u != (posFiltersMask & CapSense_1_IIR2_FILTER)) 
1341:.\Generated_Source\PSoC5/CapSense_1_CSHL.c ****                             {
1342:.\Generated_Source\PSoC5/CapSense_1_CSHL.c ****                                 position = CapSense_1_IIR2Filter(position,
1343:.\Generated_Source\PSoC5/CapSense_1_CSHL.c ****                                                                     (uint16)CapSense_1_posFiltersDa
1344:.\Generated_Source\PSoC5/CapSense_1_CSHL.c ****                                 CapSense_1_posFiltersData[posIndex] = (uint8) position;
1345:.\Generated_Source\PSoC5/CapSense_1_CSHL.c ****                             }
1346:.\Generated_Source\PSoC5/CapSense_1_CSHL.c ****                         #endif /* (0u != (CapSense_1_IIR2_FILTER & \
1347:.\Generated_Source\PSoC5/CapSense_1_CSHL.c ****                                *          CapSense_1_LINEAR_SLIDERS_POS_FILTERS_MASK))
1348:.\Generated_Source\PSoC5/CapSense_1_CSHL.c ****                                */
1349:.\Generated_Source\PSoC5/CapSense_1_CSHL.c **** 
1350:.\Generated_Source\PSoC5/CapSense_1_CSHL.c ****                         #if (0u != (CapSense_1_IIR4_FILTER & CapSense_1_LINEAR_SLIDERS_POS_FILTERS_
1351:.\Generated_Source\PSoC5/CapSense_1_CSHL.c ****                             if (0u != (posFiltersMask & CapSense_1_IIR4_FILTER))
 1621              		.loc 1 1351 0
 1622 008e 3B7B     		ldrb	r3, [r7, #12]	@ zero_extendqisi2
 1623 0090 03F00803 		and	r3, r3, #8
 1624 0094 002B     		cmp	r3, #0
 1625 0096 1CD0     		beq	.L92
1352:.\Generated_Source\PSoC5/CapSense_1_CSHL.c ****                             {
1353:.\Generated_Source\PSoC5/CapSense_1_CSHL.c ****                                 position = CapSense_1_IIR4Filter(position,
1354:.\Generated_Source\PSoC5/CapSense_1_CSHL.c ****                                                                     (uint16)CapSense_1_posFiltersDa
 1626              		.loc 1 1354 0
 1627 0098 3B7A     		ldrb	r3, [r7, #8]	@ zero_extendqisi2
 1628 009a 104A     		ldr	r2, .L94
 1629 009c D35C     		ldrb	r3, [r2, r3]	@ zero_extendqisi2
1353:.\Generated_Source\PSoC5/CapSense_1_CSHL.c ****                                                                     (uint16)CapSense_1_posFiltersDa
 1630              		.loc 1 1353 0
 1631 009e 9BB2     		uxth	r3, r3
 1632 00a0 FA89     		ldrh	r2, [r7, #14]
 1633 00a2 1046     		mov	r0, r2
 1634 00a4 1946     		mov	r1, r3
 1635 00a6 FFF7FEFF 		bl	CapSense_1_IIR4Filter
 1636 00aa 0346     		mov	r3, r0
 1637 00ac FB81     		strh	r3, [r7, #14]	@ movhi
1355:.\Generated_Source\PSoC5/CapSense_1_CSHL.c ****                                 CapSense_1_posFiltersData[posIndex] = (uint8) position;
 1638              		.loc 1 1355 0
 1639 00ae 3B7A     		ldrb	r3, [r7, #8]	@ zero_extendqisi2
 1640 00b0 FA89     		ldrh	r2, [r7, #14]	@ movhi
 1641 00b2 D1B2     		uxtb	r1, r2
 1642 00b4 094A     		ldr	r2, .L94
 1643 00b6 D154     		strb	r1, [r2, r3]
 1644 00b8 0BE0     		b	.L92
 1645              	.L89:
1356:.\Generated_Source\PSoC5/CapSense_1_CSHL.c ****                             }                                
1357:.\Generated_Source\PSoC5/CapSense_1_CSHL.c ****                         #endif /* (0u != (CapSense_1_IIR4_FILTER & \
1358:.\Generated_Source\PSoC5/CapSense_1_CSHL.c ****                                *          CapSense_1_LINEAR_SLIDERS_POS_FILTERS_MASK))
ARM GAS  C:\Users\LUKASC~1\AppData\Local\Temp\ccTi8KiV.s 			page 54


1359:.\Generated_Source\PSoC5/CapSense_1_CSHL.c ****                                */
1360:.\Generated_Source\PSoC5/CapSense_1_CSHL.c **** 
1361:.\Generated_Source\PSoC5/CapSense_1_CSHL.c ****                         #if (0u != (CapSense_1_JITTER_FILTER & CapSense_1_LINEAR_SLIDERS_POS_FILTER
1362:.\Generated_Source\PSoC5/CapSense_1_CSHL.c ****                             if (0u != (posFiltersMask & CapSense_1_JITTER_FILTER))
1363:.\Generated_Source\PSoC5/CapSense_1_CSHL.c ****                             {
1364:.\Generated_Source\PSoC5/CapSense_1_CSHL.c ****                                 position = CapSense_1_JitterFilter(position,
1365:.\Generated_Source\PSoC5/CapSense_1_CSHL.c ****                                                                     (uint16)CapSense_1_posFiltersDa
1366:.\Generated_Source\PSoC5/CapSense_1_CSHL.c ****                                 CapSense_1_posFiltersData[posIndex] = (uint8) position;
1367:.\Generated_Source\PSoC5/CapSense_1_CSHL.c ****                             }
1368:.\Generated_Source\PSoC5/CapSense_1_CSHL.c ****                         #endif /* (0u != (CapSense_1_JITTER_FILTER & \
1369:.\Generated_Source\PSoC5/CapSense_1_CSHL.c ****                                *           CapSense_1_LINEAR_SLIDERS_POS_FILTERS_MASK))
1370:.\Generated_Source\PSoC5/CapSense_1_CSHL.c ****                                */
1371:.\Generated_Source\PSoC5/CapSense_1_CSHL.c ****                     }
1372:.\Generated_Source\PSoC5/CapSense_1_CSHL.c ****                 }
1373:.\Generated_Source\PSoC5/CapSense_1_CSHL.c ****             #endif /* (0u != CapSense_1_LINEAR_SLIDERS_POS_FILTERS_MASK) */
1374:.\Generated_Source\PSoC5/CapSense_1_CSHL.c **** 
1375:.\Generated_Source\PSoC5/CapSense_1_CSHL.c ****         }
1376:.\Generated_Source\PSoC5/CapSense_1_CSHL.c ****         else
1377:.\Generated_Source\PSoC5/CapSense_1_CSHL.c ****         {
1378:.\Generated_Source\PSoC5/CapSense_1_CSHL.c ****             /* The maximum wasn't found */
1379:.\Generated_Source\PSoC5/CapSense_1_CSHL.c ****             position = 0xFFFFu;
 1646              		.loc 1 1379 0
 1647 00ba 4FF6FF73 		movw	r3, #65535
 1648 00be FB81     		strh	r3, [r7, #14]	@ movhi
1380:.\Generated_Source\PSoC5/CapSense_1_CSHL.c **** 
1381:.\Generated_Source\PSoC5/CapSense_1_CSHL.c ****             #if(0u != CapSense_1_LINEAR_SLIDERS_POS_FILTERS_MASK)
1382:.\Generated_Source\PSoC5/CapSense_1_CSHL.c ****                 /* Reset the filters */
1383:.\Generated_Source\PSoC5/CapSense_1_CSHL.c ****                 if(0u != (posFiltersMask & CapSense_1_ANY_POS_FILTER))
 1649              		.loc 1 1383 0
 1650 00c0 3B7B     		ldrb	r3, [r7, #12]	@ zero_extendqisi2
 1651 00c2 03F01F03 		and	r3, r3, #31
 1652 00c6 002B     		cmp	r3, #0
 1653 00c8 03D0     		beq	.L92
1384:.\Generated_Source\PSoC5/CapSense_1_CSHL.c ****                 {
1385:.\Generated_Source\PSoC5/CapSense_1_CSHL.c ****                     CapSense_1_posFiltersData[firstTimeIndex] = 0u;
 1654              		.loc 1 1385 0
 1655 00ca 7B7B     		ldrb	r3, [r7, #13]	@ zero_extendqisi2
 1656 00cc 034A     		ldr	r2, .L94
 1657 00ce 0021     		movs	r1, #0
 1658 00d0 D154     		strb	r1, [r2, r3]
 1659              	.L92:
1386:.\Generated_Source\PSoC5/CapSense_1_CSHL.c ****                 }
1387:.\Generated_Source\PSoC5/CapSense_1_CSHL.c ****             #endif /* (0u != CapSense_1_LINEAR_SLIDERS_POS_FILTERS_MASK) */
1388:.\Generated_Source\PSoC5/CapSense_1_CSHL.c ****         }
1389:.\Generated_Source\PSoC5/CapSense_1_CSHL.c **** 
1390:.\Generated_Source\PSoC5/CapSense_1_CSHL.c ****         
1391:.\Generated_Source\PSoC5/CapSense_1_CSHL.c ****         return (position);
 1660              		.loc 1 1391 0
 1661 00d2 FB89     		ldrh	r3, [r7, #14]
1392:.\Generated_Source\PSoC5/CapSense_1_CSHL.c ****     }
 1662              		.loc 1 1392 0
 1663 00d4 1846     		mov	r0, r3
 1664 00d6 1437     		adds	r7, r7, #20
 1665              		.cfi_def_cfa_offset 12
 1666 00d8 BD46     		mov	sp, r7
 1667              		.cfi_def_cfa_register 13
 1668              		@ sp needed
ARM GAS  C:\Users\LUKASC~1\AppData\Local\Temp\ccTi8KiV.s 			page 55


 1669 00da 90BD     		pop	{r4, r7, pc}
 1670              	.L95:
 1671              		.align	2
 1672              	.L94:
 1673 00dc 00000000 		.word	CapSense_1_posFiltersData
 1674 00e0 00000000 		.word	CapSense_1_rawDataIndex
 1675 00e4 00000000 		.word	CapSense_1_numberOfSensors
 1676 00e8 00000000 		.word	CapSense_1_fingerThreshold
 1677 00ec 00000000 		.word	CapSense_1_noiseThreshold
 1678              		.cfi_endproc
 1679              	.LFE13:
 1680              		.size	CapSense_1_GetCentroidPos, .-CapSense_1_GetCentroidPos
 1681              		.section	.text.CapSense_1_IIR4Filter,"ax",%progbits
 1682              		.align	2
 1683              		.global	CapSense_1_IIR4Filter
 1684              		.thumb
 1685              		.thumb_func
 1686              		.type	CapSense_1_IIR4Filter, %function
 1687              	CapSense_1_IIR4Filter:
 1688              	.LFB14:
1393:.\Generated_Source\PSoC5/CapSense_1_CSHL.c **** #endif /* (CapSense_1_TOTAL_LINEAR_SLIDERS_COUNT > 0u) */
1394:.\Generated_Source\PSoC5/CapSense_1_CSHL.c **** 
1395:.\Generated_Source\PSoC5/CapSense_1_CSHL.c **** 
1396:.\Generated_Source\PSoC5/CapSense_1_CSHL.c **** #if(CapSense_1_TOTAL_RADIAL_SLIDERS_COUNT > 0u)
1397:.\Generated_Source\PSoC5/CapSense_1_CSHL.c ****     /*******************************************************************************
1398:.\Generated_Source\PSoC5/CapSense_1_CSHL.c ****     * Function Name: CapSense_1_GetRadialCentroidPos
1399:.\Generated_Source\PSoC5/CapSense_1_CSHL.c ****     ********************************************************************************
1400:.\Generated_Source\PSoC5/CapSense_1_CSHL.c ****     *
1401:.\Generated_Source\PSoC5/CapSense_1_CSHL.c ****     * Summary:
1402:.\Generated_Source\PSoC5/CapSense_1_CSHL.c ****     *  Checks the CapSense_1_Signal[ ] array for a centroid within
1403:.\Generated_Source\PSoC5/CapSense_1_CSHL.c ****     *  slider specified range. The centroid position is calculated to the resolution
1404:.\Generated_Source\PSoC5/CapSense_1_CSHL.c ****     *  specified in the CapSense customizer. The position filters are applied to the
1405:.\Generated_Source\PSoC5/CapSense_1_CSHL.c ****     *  result if enabled.
1406:.\Generated_Source\PSoC5/CapSense_1_CSHL.c ****     *
1407:.\Generated_Source\PSoC5/CapSense_1_CSHL.c ****     * Parameters:
1408:.\Generated_Source\PSoC5/CapSense_1_CSHL.c ****     *  widget:  Widget number.
1409:.\Generated_Source\PSoC5/CapSense_1_CSHL.c ****     *  For every radial slider widget there are defines in this format:
1410:.\Generated_Source\PSoC5/CapSense_1_CSHL.c ****     *  #define CapSense_1_RS_"widget_name"            5
1411:.\Generated_Source\PSoC5/CapSense_1_CSHL.c ****     * 
1412:.\Generated_Source\PSoC5/CapSense_1_CSHL.c ****     * Return:
1413:.\Generated_Source\PSoC5/CapSense_1_CSHL.c ****     *  Returns position value of the radial slider.
1414:.\Generated_Source\PSoC5/CapSense_1_CSHL.c ****     *
1415:.\Generated_Source\PSoC5/CapSense_1_CSHL.c ****     * Side Effects:
1416:.\Generated_Source\PSoC5/CapSense_1_CSHL.c ****     *  If any sensor within the slider widget is active, the function returns values
1417:.\Generated_Source\PSoC5/CapSense_1_CSHL.c ****     *  from zero to the API resolution value set in the CapSense customizer. If no
1418:.\Generated_Source\PSoC5/CapSense_1_CSHL.c ****     *  sensors are active, the function returns 0xFFFF.
1419:.\Generated_Source\PSoC5/CapSense_1_CSHL.c ****     *  There are no checks of widget type argument provided to this function.
1420:.\Generated_Source\PSoC5/CapSense_1_CSHL.c ****     *  The unproper widget type provided will cause unexpected position calculations.
1421:.\Generated_Source\PSoC5/CapSense_1_CSHL.c ****     *
1422:.\Generated_Source\PSoC5/CapSense_1_CSHL.c ****     * Note:
1423:.\Generated_Source\PSoC5/CapSense_1_CSHL.c ****     *  If noise counts on the slider segments are greater than the noise
1424:.\Generated_Source\PSoC5/CapSense_1_CSHL.c ****     *  threshold, this subroutine may generate a false centroid result. The noise
1425:.\Generated_Source\PSoC5/CapSense_1_CSHL.c ****     *  threshold should be set carefully (high enough above the noise level) so 
1426:.\Generated_Source\PSoC5/CapSense_1_CSHL.c ****     *  that noise will not generate a false centroid.
1427:.\Generated_Source\PSoC5/CapSense_1_CSHL.c ****     *
1428:.\Generated_Source\PSoC5/CapSense_1_CSHL.c ****     *
1429:.\Generated_Source\PSoC5/CapSense_1_CSHL.c ****     * Reentrant:
ARM GAS  C:\Users\LUKASC~1\AppData\Local\Temp\ccTi8KiV.s 			page 56


1430:.\Generated_Source\PSoC5/CapSense_1_CSHL.c ****     *  No.
1431:.\Generated_Source\PSoC5/CapSense_1_CSHL.c ****     *
1432:.\Generated_Source\PSoC5/CapSense_1_CSHL.c ****     *******************************************************************************/
1433:.\Generated_Source\PSoC5/CapSense_1_CSHL.c ****      uint16 CapSense_1_GetRadialCentroidPos(uint8 widget)
1434:.\Generated_Source\PSoC5/CapSense_1_CSHL.c **** 	                                       
1435:.\Generated_Source\PSoC5/CapSense_1_CSHL.c ****     {
1436:.\Generated_Source\PSoC5/CapSense_1_CSHL.c ****         #if (0u != CapSense_1_RADIAL_SLIDERS_POS_FILTERS_MASK)
1437:.\Generated_Source\PSoC5/CapSense_1_CSHL.c ****             uint8 posIndex;
1438:.\Generated_Source\PSoC5/CapSense_1_CSHL.c ****             uint8 firstTimeIndex = CapSense_1_posFiltersData[widget];
1439:.\Generated_Source\PSoC5/CapSense_1_CSHL.c ****             uint8 posFiltersMask = CapSense_1_posFiltersMask[widget]; 
1440:.\Generated_Source\PSoC5/CapSense_1_CSHL.c ****         #endif /* (0u != CapSense_1_RADIAL_SLIDERS_POS_FILTERS_MASK) */
1441:.\Generated_Source\PSoC5/CapSense_1_CSHL.c **** 
1442:.\Generated_Source\PSoC5/CapSense_1_CSHL.c ****         #if ((0u != (CapSense_1_MEDIAN_FILTER & CapSense_1_RADIAL_SLIDERS_POS_FILTERS_MASK)) || \
1443:.\Generated_Source\PSoC5/CapSense_1_CSHL.c ****              (0u != (CapSense_1_AVERAGING_FILTER & CapSense_1_RADIAL_SLIDERS_POS_FILTERS_MASK)))
1444:.\Generated_Source\PSoC5/CapSense_1_CSHL.c ****             uint8 tempPos;
1445:.\Generated_Source\PSoC5/CapSense_1_CSHL.c ****         #endif /* ((0u != (CapSense_1_MEDIAN_FILTER & CapSense_1_RADIAL_SLIDERS_POS_FILTERS_MASK)) 
1446:.\Generated_Source\PSoC5/CapSense_1_CSHL.c ****                *   (0u != (CapSense_1_AVERAGING_FILTER & CapSense_1_RADIAL_SLIDERS_POS_FILTERS_MASK
1447:.\Generated_Source\PSoC5/CapSense_1_CSHL.c ****                */
1448:.\Generated_Source\PSoC5/CapSense_1_CSHL.c **** 
1449:.\Generated_Source\PSoC5/CapSense_1_CSHL.c ****         uint8 maximum;
1450:.\Generated_Source\PSoC5/CapSense_1_CSHL.c ****         uint16 position;
1451:.\Generated_Source\PSoC5/CapSense_1_CSHL.c ****         uint8 offset = CapSense_1_rawDataIndex[widget];
1452:.\Generated_Source\PSoC5/CapSense_1_CSHL.c ****         uint8 count = CapSense_1_numberOfSensors[widget];
1453:.\Generated_Source\PSoC5/CapSense_1_CSHL.c ****         
1454:.\Generated_Source\PSoC5/CapSense_1_CSHL.c ****         /* Find Maximum within centroid */        
1455:.\Generated_Source\PSoC5/CapSense_1_CSHL.c ****         #if (CapSense_1_IS_DIPLEX_SLIDER)
1456:.\Generated_Source\PSoC5/CapSense_1_CSHL.c ****             maximum = CapSense_1_FindMaximum(offset, count, CapSense_1_fingerThreshold[widget], 0u)
1457:.\Generated_Source\PSoC5/CapSense_1_CSHL.c ****         #else
1458:.\Generated_Source\PSoC5/CapSense_1_CSHL.c ****             maximum = CapSense_1_FindMaximum(offset, count, CapSense_1_fingerThreshold[widget]);
1459:.\Generated_Source\PSoC5/CapSense_1_CSHL.c ****         #endif /* (CapSense_1_IS_DIPLEX_SLIDER) */
1460:.\Generated_Source\PSoC5/CapSense_1_CSHL.c ****         
1461:.\Generated_Source\PSoC5/CapSense_1_CSHL.c ****         if (maximum != 0xFFu)
1462:.\Generated_Source\PSoC5/CapSense_1_CSHL.c ****         {
1463:.\Generated_Source\PSoC5/CapSense_1_CSHL.c ****             /* Calculate centroid */
1464:.\Generated_Source\PSoC5/CapSense_1_CSHL.c ****             position = (uint16) CapSense_1_CalcCentroid(maximum, 
1465:.\Generated_Source\PSoC5/CapSense_1_CSHL.c ****                          offset, count, CapSense_1_centroidMult[widget], CapSense_1_noiseThreshold[
1466:.\Generated_Source\PSoC5/CapSense_1_CSHL.c **** 
1467:.\Generated_Source\PSoC5/CapSense_1_CSHL.c ****             #if (0u != CapSense_1_RADIAL_SLIDERS_POS_FILTERS_MASK)
1468:.\Generated_Source\PSoC5/CapSense_1_CSHL.c ****                 /* Check if this Radial slider has enabled filters */
1469:.\Generated_Source\PSoC5/CapSense_1_CSHL.c ****                 if (0u != (posFiltersMask & CapSense_1_ANY_POS_FILTER))
1470:.\Generated_Source\PSoC5/CapSense_1_CSHL.c ****                 {
1471:.\Generated_Source\PSoC5/CapSense_1_CSHL.c ****                     /* Caluclate position to store filters data */
1472:.\Generated_Source\PSoC5/CapSense_1_CSHL.c ****                     posIndex  = firstTimeIndex + 1u;
1473:.\Generated_Source\PSoC5/CapSense_1_CSHL.c ****                     
1474:.\Generated_Source\PSoC5/CapSense_1_CSHL.c ****                     if (0u == CapSense_1_posFiltersData[firstTimeIndex])
1475:.\Generated_Source\PSoC5/CapSense_1_CSHL.c ****                     {
1476:.\Generated_Source\PSoC5/CapSense_1_CSHL.c ****                         /* Init filters */
1477:.\Generated_Source\PSoC5/CapSense_1_CSHL.c ****                         CapSense_1_posFiltersData[posIndex] = (uint8) position;
1478:.\Generated_Source\PSoC5/CapSense_1_CSHL.c ****                         #if ((0u != (CapSense_1_MEDIAN_FILTER & \
1479:.\Generated_Source\PSoC5/CapSense_1_CSHL.c ****                                      CapSense_1_RADIAL_SLIDERS_POS_FILTERS_MASK)) || \
1480:.\Generated_Source\PSoC5/CapSense_1_CSHL.c ****                              (0u != (CapSense_1_AVERAGING_FILTER & \
1481:.\Generated_Source\PSoC5/CapSense_1_CSHL.c ****                                      CapSense_1_RADIAL_SLIDERS_POS_FILTERS_MASK)))
1482:.\Generated_Source\PSoC5/CapSense_1_CSHL.c **** 
1483:.\Generated_Source\PSoC5/CapSense_1_CSHL.c ****                             if ( (0u != (posFiltersMask & CapSense_1_MEDIAN_FILTER))  || 
1484:.\Generated_Source\PSoC5/CapSense_1_CSHL.c ****                                  (0u != (posFiltersMask & CapSense_1_AVERAGING_FILTER)) )
1485:.\Generated_Source\PSoC5/CapSense_1_CSHL.c ****                             {
1486:.\Generated_Source\PSoC5/CapSense_1_CSHL.c ****                                 CapSense_1_posFiltersData[posIndex + 1u] = (uint8) position;
ARM GAS  C:\Users\LUKASC~1\AppData\Local\Temp\ccTi8KiV.s 			page 57


1487:.\Generated_Source\PSoC5/CapSense_1_CSHL.c ****                             }
1488:.\Generated_Source\PSoC5/CapSense_1_CSHL.c ****                         #endif /* ((0u != (CapSense_1_MEDIAN_FILTER & \
1489:.\Generated_Source\PSoC5/CapSense_1_CSHL.c ****                                *           CapSense_1_RADIAL_SLIDERS_POS_FILTERS_MASK)) || \
1490:.\Generated_Source\PSoC5/CapSense_1_CSHL.c ****                                *   (0u != (CapSense_1_AVERAGING_FILTER & \
1491:.\Generated_Source\PSoC5/CapSense_1_CSHL.c ****                                *           CapSense_1_RADIAL_SLIDERS_POS_FILTERS_MASK)))
1492:.\Generated_Source\PSoC5/CapSense_1_CSHL.c ****                                */
1493:.\Generated_Source\PSoC5/CapSense_1_CSHL.c ****                         
1494:.\Generated_Source\PSoC5/CapSense_1_CSHL.c ****                         CapSense_1_posFiltersData[firstTimeIndex] = 1u;
1495:.\Generated_Source\PSoC5/CapSense_1_CSHL.c ****                     }
1496:.\Generated_Source\PSoC5/CapSense_1_CSHL.c ****                     else
1497:.\Generated_Source\PSoC5/CapSense_1_CSHL.c ****                     {
1498:.\Generated_Source\PSoC5/CapSense_1_CSHL.c ****                         /* Do filtering */
1499:.\Generated_Source\PSoC5/CapSense_1_CSHL.c ****                         #if (0u != (CapSense_1_MEDIAN_FILTER & CapSense_1_RADIAL_SLIDERS_POS_FILTER
1500:.\Generated_Source\PSoC5/CapSense_1_CSHL.c ****                             if (0u != (posFiltersMask & CapSense_1_MEDIAN_FILTER))
1501:.\Generated_Source\PSoC5/CapSense_1_CSHL.c ****                             {
1502:.\Generated_Source\PSoC5/CapSense_1_CSHL.c ****                                 tempPos = (uint8) position;
1503:.\Generated_Source\PSoC5/CapSense_1_CSHL.c ****                                 position = CapSense_1_MedianFilter(position,
1504:.\Generated_Source\PSoC5/CapSense_1_CSHL.c ****                                                                         CapSense_1_posFiltersData[p
1505:.\Generated_Source\PSoC5/CapSense_1_CSHL.c ****                                                                         CapSense_1_posFiltersData[p
1506:.\Generated_Source\PSoC5/CapSense_1_CSHL.c ****                                 CapSense_1_posFiltersData[posIndex + 1u] = 
1507:.\Generated_Source\PSoC5/CapSense_1_CSHL.c ****                                                                               CapSense_1_posFilters
1508:.\Generated_Source\PSoC5/CapSense_1_CSHL.c ****                                 CapSense_1_posFiltersData[posIndex] = tempPos;
1509:.\Generated_Source\PSoC5/CapSense_1_CSHL.c ****                             }
1510:.\Generated_Source\PSoC5/CapSense_1_CSHL.c ****                         #endif /* (0u != (CapSense_1_MEDIAN_FILTER & 
1511:.\Generated_Source\PSoC5/CapSense_1_CSHL.c ****                                *          CapSense_1_RADIAL_SLIDERS_POS_FILTERS_MASK))
1512:.\Generated_Source\PSoC5/CapSense_1_CSHL.c ****                                */
1513:.\Generated_Source\PSoC5/CapSense_1_CSHL.c **** 
1514:.\Generated_Source\PSoC5/CapSense_1_CSHL.c ****                         #if (0u != (CapSense_1_AVERAGING_FILTER & \
1515:.\Generated_Source\PSoC5/CapSense_1_CSHL.c ****                                     CapSense_1_RADIAL_SLIDERS_POS_FILTERS_MASK))
1516:.\Generated_Source\PSoC5/CapSense_1_CSHL.c ****                             if (0u != (posFiltersMask & CapSense_1_AVERAGING_FILTER))
1517:.\Generated_Source\PSoC5/CapSense_1_CSHL.c ****                             {
1518:.\Generated_Source\PSoC5/CapSense_1_CSHL.c ****                                 tempPos = (uint8) position;
1519:.\Generated_Source\PSoC5/CapSense_1_CSHL.c ****                                 position = CapSense_1_AveragingFilter(position, 
1520:.\Generated_Source\PSoC5/CapSense_1_CSHL.c ****                                                                        CapSense_1_posFiltersData[po
1521:.\Generated_Source\PSoC5/CapSense_1_CSHL.c ****                                                                        CapSense_1_posFiltersData[po
1522:.\Generated_Source\PSoC5/CapSense_1_CSHL.c ****                                 CapSense_1_posFiltersData[posIndex+1u]= CapSense_1_posFiltersData[p
1523:.\Generated_Source\PSoC5/CapSense_1_CSHL.c ****                                 CapSense_1_posFiltersData[posIndex] = tempPos;
1524:.\Generated_Source\PSoC5/CapSense_1_CSHL.c ****                             }
1525:.\Generated_Source\PSoC5/CapSense_1_CSHL.c ****                         #endif /* (0u != (CapSense_1_AVERAGING_FILTER & \
1526:.\Generated_Source\PSoC5/CapSense_1_CSHL.c ****                                *          CapSense_1_RADIAL_SLIDERS_POS_FILTERS_MASK))
1527:.\Generated_Source\PSoC5/CapSense_1_CSHL.c ****                                */
1528:.\Generated_Source\PSoC5/CapSense_1_CSHL.c **** 
1529:.\Generated_Source\PSoC5/CapSense_1_CSHL.c ****                         #if (0u != (CapSense_1_IIR2_FILTER & CapSense_1_RADIAL_SLIDERS_POS_FILTERS_
1530:.\Generated_Source\PSoC5/CapSense_1_CSHL.c ****                             if (0u != (posFiltersMask & CapSense_1_IIR2_FILTER))
1531:.\Generated_Source\PSoC5/CapSense_1_CSHL.c ****                             {
1532:.\Generated_Source\PSoC5/CapSense_1_CSHL.c ****                                 position = CapSense_1_IIR2Filter(position,
1533:.\Generated_Source\PSoC5/CapSense_1_CSHL.c ****                                                                     (uint16)CapSense_1_posFiltersDa
1534:.\Generated_Source\PSoC5/CapSense_1_CSHL.c ****                                 CapSense_1_posFiltersData[posIndex] = (uint8) position;
1535:.\Generated_Source\PSoC5/CapSense_1_CSHL.c ****                             }
1536:.\Generated_Source\PSoC5/CapSense_1_CSHL.c ****                         #endif /* (0u != (CapSense_1_IIR2_FILTER & 
1537:.\Generated_Source\PSoC5/CapSense_1_CSHL.c ****                                *          CapSense_1_RADIAL_SLIDERS_POS_FILTERS_MASK))
1538:.\Generated_Source\PSoC5/CapSense_1_CSHL.c ****                                */
1539:.\Generated_Source\PSoC5/CapSense_1_CSHL.c **** 
1540:.\Generated_Source\PSoC5/CapSense_1_CSHL.c ****                         #if (0u != (CapSense_1_IIR4_FILTER & CapSense_1_RADIAL_SLIDERS_POS_FILTERS_
1541:.\Generated_Source\PSoC5/CapSense_1_CSHL.c ****                             if (0u != (posFiltersMask & CapSense_1_IIR4_FILTER))
1542:.\Generated_Source\PSoC5/CapSense_1_CSHL.c ****                             {
1543:.\Generated_Source\PSoC5/CapSense_1_CSHL.c ****                                 position = CapSense_1_IIR4Filter(position,
ARM GAS  C:\Users\LUKASC~1\AppData\Local\Temp\ccTi8KiV.s 			page 58


1544:.\Generated_Source\PSoC5/CapSense_1_CSHL.c ****                                                                     (uint16)CapSense_1_posFiltersDa
1545:.\Generated_Source\PSoC5/CapSense_1_CSHL.c ****                                 CapSense_1_posFiltersData[posIndex] = (uint8) position;
1546:.\Generated_Source\PSoC5/CapSense_1_CSHL.c ****                             }
1547:.\Generated_Source\PSoC5/CapSense_1_CSHL.c ****                         #endif /* (0u != (CapSense_1_IIR4_FILTER & 
1548:.\Generated_Source\PSoC5/CapSense_1_CSHL.c ****                                *          CapSense_1_RADIAL_SLIDERS_POS_FILTERS_MASK))
1549:.\Generated_Source\PSoC5/CapSense_1_CSHL.c ****                                */
1550:.\Generated_Source\PSoC5/CapSense_1_CSHL.c **** 
1551:.\Generated_Source\PSoC5/CapSense_1_CSHL.c ****                         #if (0u != (CapSense_1_JITTER_FILTER & CapSense_1_RADIAL_SLIDERS_POS_FILTER
1552:.\Generated_Source\PSoC5/CapSense_1_CSHL.c ****                             if (0u != (posFiltersMask & CapSense_1_JITTER_FILTER))
1553:.\Generated_Source\PSoC5/CapSense_1_CSHL.c ****                             {
1554:.\Generated_Source\PSoC5/CapSense_1_CSHL.c ****                                 position = CapSense_1_JitterFilter(position, 
1555:.\Generated_Source\PSoC5/CapSense_1_CSHL.c ****                                                                          CapSense_1_posFiltersData[
1556:.\Generated_Source\PSoC5/CapSense_1_CSHL.c ****                                 CapSense_1_posFiltersData[posIndex] = (uint8) position;
1557:.\Generated_Source\PSoC5/CapSense_1_CSHL.c ****                             }
1558:.\Generated_Source\PSoC5/CapSense_1_CSHL.c ****                         #endif /* (0u != (CapSense_1_JITTER_FILTER &
1559:.\Generated_Source\PSoC5/CapSense_1_CSHL.c ****                                *           CapSense_1_RADIAL_SLIDERS_POS_FILTERS_MASK))
1560:.\Generated_Source\PSoC5/CapSense_1_CSHL.c ****                                */
1561:.\Generated_Source\PSoC5/CapSense_1_CSHL.c ****                     }
1562:.\Generated_Source\PSoC5/CapSense_1_CSHL.c ****                 }
1563:.\Generated_Source\PSoC5/CapSense_1_CSHL.c ****             #endif /* (0u != CapSense_1_RADIAL_SLIDERS_POS_FILTERS_MASK) */
1564:.\Generated_Source\PSoC5/CapSense_1_CSHL.c **** 
1565:.\Generated_Source\PSoC5/CapSense_1_CSHL.c ****         }
1566:.\Generated_Source\PSoC5/CapSense_1_CSHL.c ****         else
1567:.\Generated_Source\PSoC5/CapSense_1_CSHL.c ****         {
1568:.\Generated_Source\PSoC5/CapSense_1_CSHL.c ****             /* The maximum didn't find */
1569:.\Generated_Source\PSoC5/CapSense_1_CSHL.c ****             position = 0xFFFFu;
1570:.\Generated_Source\PSoC5/CapSense_1_CSHL.c **** 
1571:.\Generated_Source\PSoC5/CapSense_1_CSHL.c ****             #if (0u != CapSense_1_RADIAL_SLIDERS_POS_FILTERS_MASK)
1572:.\Generated_Source\PSoC5/CapSense_1_CSHL.c ****                 /* Reset the filters */
1573:.\Generated_Source\PSoC5/CapSense_1_CSHL.c ****                 if((posFiltersMask & CapSense_1_ANY_POS_FILTER) != 0u)
1574:.\Generated_Source\PSoC5/CapSense_1_CSHL.c ****                 {
1575:.\Generated_Source\PSoC5/CapSense_1_CSHL.c ****                     CapSense_1_posFiltersData[firstTimeIndex] = 0u;
1576:.\Generated_Source\PSoC5/CapSense_1_CSHL.c ****                 }
1577:.\Generated_Source\PSoC5/CapSense_1_CSHL.c ****             #endif /* (0u != CapSense_1_RADIAL_SLIDERS_POS_FILTERS_MASK) */
1578:.\Generated_Source\PSoC5/CapSense_1_CSHL.c ****         }
1579:.\Generated_Source\PSoC5/CapSense_1_CSHL.c ****         
1580:.\Generated_Source\PSoC5/CapSense_1_CSHL.c ****         return (position);
1581:.\Generated_Source\PSoC5/CapSense_1_CSHL.c ****     }
1582:.\Generated_Source\PSoC5/CapSense_1_CSHL.c **** #endif
1583:.\Generated_Source\PSoC5/CapSense_1_CSHL.c **** 
1584:.\Generated_Source\PSoC5/CapSense_1_CSHL.c **** 
1585:.\Generated_Source\PSoC5/CapSense_1_CSHL.c **** #if(CapSense_1_TOTAL_TOUCH_PADS_COUNT > 0u)
1586:.\Generated_Source\PSoC5/CapSense_1_CSHL.c ****     /*******************************************************************************
1587:.\Generated_Source\PSoC5/CapSense_1_CSHL.c ****     * Function Name: CapSense_1_GetTouchCentroidPos
1588:.\Generated_Source\PSoC5/CapSense_1_CSHL.c ****     ********************************************************************************
1589:.\Generated_Source\PSoC5/CapSense_1_CSHL.c ****     *
1590:.\Generated_Source\PSoC5/CapSense_1_CSHL.c ****     * Summary:
1591:.\Generated_Source\PSoC5/CapSense_1_CSHL.c ****     *  If a finger is present on touch pad, this function calculates the X and Y
1592:.\Generated_Source\PSoC5/CapSense_1_CSHL.c ****     *  position of the finger by calculating the centroids within touch pad specified
1593:.\Generated_Source\PSoC5/CapSense_1_CSHL.c ****     *  range. The X and Y positions are calculated to the API resolutions set in the
1594:.\Generated_Source\PSoC5/CapSense_1_CSHL.c ****     *  CapSense customizer. Returns a 1 if a finger is on the touchpad.
1595:.\Generated_Source\PSoC5/CapSense_1_CSHL.c ****     *  The position filter is applied to the result if enabled.
1596:.\Generated_Source\PSoC5/CapSense_1_CSHL.c ****     *  This function is available only if a touch pad is defined by the CapSense
1597:.\Generated_Source\PSoC5/CapSense_1_CSHL.c ****     *  customizer.
1598:.\Generated_Source\PSoC5/CapSense_1_CSHL.c ****     *
1599:.\Generated_Source\PSoC5/CapSense_1_CSHL.c ****     * Parameters:
1600:.\Generated_Source\PSoC5/CapSense_1_CSHL.c ****     *  widget:  Widget number. 
ARM GAS  C:\Users\LUKASC~1\AppData\Local\Temp\ccTi8KiV.s 			page 59


1601:.\Generated_Source\PSoC5/CapSense_1_CSHL.c ****     *  For every touchpad widget there are defines in this format:
1602:.\Generated_Source\PSoC5/CapSense_1_CSHL.c ****     *  #define CapSense_1_TP_"widget_name"            5
1603:.\Generated_Source\PSoC5/CapSense_1_CSHL.c ****     *
1604:.\Generated_Source\PSoC5/CapSense_1_CSHL.c ****     *  pos:     Pointer to the array of two uint16 elements, where result
1605:.\Generated_Source\PSoC5/CapSense_1_CSHL.c ****     *  result of calculation of X and Y position are stored.
1606:.\Generated_Source\PSoC5/CapSense_1_CSHL.c ****     *  pos[0u]  - position of X
1607:.\Generated_Source\PSoC5/CapSense_1_CSHL.c ****     *  pos[1u]  - position of Y
1608:.\Generated_Source\PSoC5/CapSense_1_CSHL.c ****     *
1609:.\Generated_Source\PSoC5/CapSense_1_CSHL.c ****     * Return:
1610:.\Generated_Source\PSoC5/CapSense_1_CSHL.c ****     *  Returns a 1 if a finger is on the touch pad, 0 - if not.
1611:.\Generated_Source\PSoC5/CapSense_1_CSHL.c ****     *
1612:.\Generated_Source\PSoC5/CapSense_1_CSHL.c ****     * Side Effects:
1613:.\Generated_Source\PSoC5/CapSense_1_CSHL.c ****     *   There are no checks of widget type argument provided to this function.
1614:.\Generated_Source\PSoC5/CapSense_1_CSHL.c ****     *   The unproper widget type provided will cause unexpected position
1615:.\Generated_Source\PSoC5/CapSense_1_CSHL.c ****     *   calculations.
1616:.\Generated_Source\PSoC5/CapSense_1_CSHL.c ****     *
1617:.\Generated_Source\PSoC5/CapSense_1_CSHL.c ****     * Reentrant:
1618:.\Generated_Source\PSoC5/CapSense_1_CSHL.c ****     *  No.
1619:.\Generated_Source\PSoC5/CapSense_1_CSHL.c ****     *
1620:.\Generated_Source\PSoC5/CapSense_1_CSHL.c ****     *******************************************************************************/
1621:.\Generated_Source\PSoC5/CapSense_1_CSHL.c ****     uint8 CapSense_1_GetTouchCentroidPos(uint8 widget, uint16* pos)
1622:.\Generated_Source\PSoC5/CapSense_1_CSHL.c **** 	                                    
1623:.\Generated_Source\PSoC5/CapSense_1_CSHL.c ****     {
1624:.\Generated_Source\PSoC5/CapSense_1_CSHL.c ****         #if (0u != CapSense_1_TOUCH_PADS_POS_FILTERS_MASK)
1625:.\Generated_Source\PSoC5/CapSense_1_CSHL.c ****             uint8 posXIndex;
1626:.\Generated_Source\PSoC5/CapSense_1_CSHL.c ****             uint8 posYIndex;
1627:.\Generated_Source\PSoC5/CapSense_1_CSHL.c ****             uint8 firstTimeIndex = CapSense_1_posFiltersData[widget];
1628:.\Generated_Source\PSoC5/CapSense_1_CSHL.c ****             uint8 posFiltersMask = CapSense_1_posFiltersMask[widget];
1629:.\Generated_Source\PSoC5/CapSense_1_CSHL.c ****         #endif /* (0u != CapSense_1_TOUCH_PADS_POS_FILTERS_MASK) */
1630:.\Generated_Source\PSoC5/CapSense_1_CSHL.c **** 
1631:.\Generated_Source\PSoC5/CapSense_1_CSHL.c ****         #if ((0u != (CapSense_1_MEDIAN_FILTER & CapSense_1_TOUCH_PADS_POS_FILTERS_MASK)) || \
1632:.\Generated_Source\PSoC5/CapSense_1_CSHL.c ****              (0u != (CapSense_1_AVERAGING_FILTER & CapSense_1_TOUCH_PADS_POS_FILTERS_MASK)))
1633:.\Generated_Source\PSoC5/CapSense_1_CSHL.c ****             uint16 tempPos;
1634:.\Generated_Source\PSoC5/CapSense_1_CSHL.c ****         #endif /* ((0u != (CapSense_1_MEDIAN_FILTER & CapSense_1_TOUCH_PADS_POS_FILTERS_MASK)) || \
1635:.\Generated_Source\PSoC5/CapSense_1_CSHL.c ****                *   (0u != (CapSense_1_AVERAGING_FILTER & CapSense_1_TOUCH_PADS_POS_FILTERS_MASK)))
1636:.\Generated_Source\PSoC5/CapSense_1_CSHL.c ****                */
1637:.\Generated_Source\PSoC5/CapSense_1_CSHL.c **** 
1638:.\Generated_Source\PSoC5/CapSense_1_CSHL.c ****         uint8 maxX;
1639:.\Generated_Source\PSoC5/CapSense_1_CSHL.c ****         uint8 maxY;
1640:.\Generated_Source\PSoC5/CapSense_1_CSHL.c ****         uint8 posX;
1641:.\Generated_Source\PSoC5/CapSense_1_CSHL.c ****         uint8 posY;
1642:.\Generated_Source\PSoC5/CapSense_1_CSHL.c ****         uint8 touch = 0u;
1643:.\Generated_Source\PSoC5/CapSense_1_CSHL.c ****         uint8 offset = CapSense_1_rawDataIndex[widget];
1644:.\Generated_Source\PSoC5/CapSense_1_CSHL.c ****         uint8 count = CapSense_1_numberOfSensors[widget];
1645:.\Generated_Source\PSoC5/CapSense_1_CSHL.c ****         
1646:.\Generated_Source\PSoC5/CapSense_1_CSHL.c ****         /* Find Maximum within X centroid */
1647:.\Generated_Source\PSoC5/CapSense_1_CSHL.c ****         #if (CapSense_1_IS_DIPLEX_SLIDER)
1648:.\Generated_Source\PSoC5/CapSense_1_CSHL.c ****             maxX = CapSense_1_FindMaximum(offset, count, CapSense_1_fingerThreshold[widget], 0u);
1649:.\Generated_Source\PSoC5/CapSense_1_CSHL.c ****         #else
1650:.\Generated_Source\PSoC5/CapSense_1_CSHL.c ****             maxX = CapSense_1_FindMaximum(offset, count, CapSense_1_fingerThreshold[widget]);
1651:.\Generated_Source\PSoC5/CapSense_1_CSHL.c ****         #endif /* (CapSense_1_IS_DIPLEX_SLIDER) */
1652:.\Generated_Source\PSoC5/CapSense_1_CSHL.c **** 
1653:.\Generated_Source\PSoC5/CapSense_1_CSHL.c ****         if (maxX != 0xFFu)
1654:.\Generated_Source\PSoC5/CapSense_1_CSHL.c ****         {
1655:.\Generated_Source\PSoC5/CapSense_1_CSHL.c ****             offset = CapSense_1_rawDataIndex[widget + 1u];
1656:.\Generated_Source\PSoC5/CapSense_1_CSHL.c ****             count = CapSense_1_numberOfSensors[widget + 1u];
1657:.\Generated_Source\PSoC5/CapSense_1_CSHL.c **** 
ARM GAS  C:\Users\LUKASC~1\AppData\Local\Temp\ccTi8KiV.s 			page 60


1658:.\Generated_Source\PSoC5/CapSense_1_CSHL.c ****             /* Find Maximum within Y centroid */
1659:.\Generated_Source\PSoC5/CapSense_1_CSHL.c ****             #if (CapSense_1_IS_DIPLEX_SLIDER)
1660:.\Generated_Source\PSoC5/CapSense_1_CSHL.c ****                 maxY = CapSense_1_FindMaximum(offset, count, CapSense_1_fingerThreshold[widget + 1u
1661:.\Generated_Source\PSoC5/CapSense_1_CSHL.c ****             #else
1662:.\Generated_Source\PSoC5/CapSense_1_CSHL.c ****                 maxY = CapSense_1_FindMaximum(offset, count, CapSense_1_fingerThreshold[widget + 1u
1663:.\Generated_Source\PSoC5/CapSense_1_CSHL.c ****             #endif /* (CapSense_1_IS_DIPLEX_SLIDER) */
1664:.\Generated_Source\PSoC5/CapSense_1_CSHL.c **** 
1665:.\Generated_Source\PSoC5/CapSense_1_CSHL.c ****             if (maxY != 0xFFu)
1666:.\Generated_Source\PSoC5/CapSense_1_CSHL.c ****             {
1667:.\Generated_Source\PSoC5/CapSense_1_CSHL.c ****                 /* X and Y maximums are found = true touch */
1668:.\Generated_Source\PSoC5/CapSense_1_CSHL.c ****                 touch = 1u;
1669:.\Generated_Source\PSoC5/CapSense_1_CSHL.c ****                 
1670:.\Generated_Source\PSoC5/CapSense_1_CSHL.c ****                 /* Calculate Y centroid */
1671:.\Generated_Source\PSoC5/CapSense_1_CSHL.c ****                 posY = CapSense_1_CalcCentroid(maxY, offset, count, 
1672:.\Generated_Source\PSoC5/CapSense_1_CSHL.c ****                             CapSense_1_centroidMult[widget + 1u], CapSense_1_noiseThreshold[widget 
1673:.\Generated_Source\PSoC5/CapSense_1_CSHL.c ****                 
1674:.\Generated_Source\PSoC5/CapSense_1_CSHL.c ****                 /* Calculate X centroid */
1675:.\Generated_Source\PSoC5/CapSense_1_CSHL.c ****                 offset = CapSense_1_rawDataIndex[widget];
1676:.\Generated_Source\PSoC5/CapSense_1_CSHL.c ****                 count = CapSense_1_numberOfSensors[widget];
1677:.\Generated_Source\PSoC5/CapSense_1_CSHL.c ****                 
1678:.\Generated_Source\PSoC5/CapSense_1_CSHL.c ****                 posX = CapSense_1_CalcCentroid(maxX, offset, count, 
1679:.\Generated_Source\PSoC5/CapSense_1_CSHL.c ****                             CapSense_1_centroidMult[widget],CapSense_1_noiseThreshold[widget]);
1680:.\Generated_Source\PSoC5/CapSense_1_CSHL.c ****     
1681:.\Generated_Source\PSoC5/CapSense_1_CSHL.c ****                 #if (0u != CapSense_1_TOUCH_PADS_POS_FILTERS_MASK)
1682:.\Generated_Source\PSoC5/CapSense_1_CSHL.c ****                     /* Check if this TP has enabled filters */
1683:.\Generated_Source\PSoC5/CapSense_1_CSHL.c ****                     if (0u != (posFiltersMask & CapSense_1_ANY_POS_FILTER))
1684:.\Generated_Source\PSoC5/CapSense_1_CSHL.c ****                     {
1685:.\Generated_Source\PSoC5/CapSense_1_CSHL.c ****                         /* Caluclate position to store filters data */
1686:.\Generated_Source\PSoC5/CapSense_1_CSHL.c ****                         posXIndex  = firstTimeIndex + 1u;
1687:.\Generated_Source\PSoC5/CapSense_1_CSHL.c ****                         posYIndex  = CapSense_1_posFiltersData[widget + 1u];
1688:.\Generated_Source\PSoC5/CapSense_1_CSHL.c ****                         
1689:.\Generated_Source\PSoC5/CapSense_1_CSHL.c ****                         if (0u == CapSense_1_posFiltersData[firstTimeIndex])
1690:.\Generated_Source\PSoC5/CapSense_1_CSHL.c ****                         {
1691:.\Generated_Source\PSoC5/CapSense_1_CSHL.c ****                             /* Init filters */
1692:.\Generated_Source\PSoC5/CapSense_1_CSHL.c ****                             CapSense_1_posFiltersData[posXIndex] = posX;
1693:.\Generated_Source\PSoC5/CapSense_1_CSHL.c ****                             CapSense_1_posFiltersData[posYIndex] = posY;
1694:.\Generated_Source\PSoC5/CapSense_1_CSHL.c **** 
1695:.\Generated_Source\PSoC5/CapSense_1_CSHL.c ****                             #if((0u != (CapSense_1_MEDIAN_FILTER & \
1696:.\Generated_Source\PSoC5/CapSense_1_CSHL.c ****                                         CapSense_1_TOUCH_PADS_POS_FILTERS_MASK))|| \
1697:.\Generated_Source\PSoC5/CapSense_1_CSHL.c ****                                 (0u != (CapSense_1_AVERAGING_FILTER & \
1698:.\Generated_Source\PSoC5/CapSense_1_CSHL.c ****                                         CapSense_1_TOUCH_PADS_POS_FILTERS_MASK)))
1699:.\Generated_Source\PSoC5/CapSense_1_CSHL.c **** 
1700:.\Generated_Source\PSoC5/CapSense_1_CSHL.c ****                                 if ( (0u != (posFiltersMask & CapSense_1_MEDIAN_FILTER)) || 
1701:.\Generated_Source\PSoC5/CapSense_1_CSHL.c ****                                      (0u != (posFiltersMask & CapSense_1_AVERAGING_FILTER)) )
1702:.\Generated_Source\PSoC5/CapSense_1_CSHL.c ****                                 {
1703:.\Generated_Source\PSoC5/CapSense_1_CSHL.c ****                                     CapSense_1_posFiltersData[posXIndex + 1u] = posX;
1704:.\Generated_Source\PSoC5/CapSense_1_CSHL.c ****                                     CapSense_1_posFiltersData[posYIndex + 1u] = posY;
1705:.\Generated_Source\PSoC5/CapSense_1_CSHL.c ****                                 }
1706:.\Generated_Source\PSoC5/CapSense_1_CSHL.c ****                             #endif /* ((0u != (CapSense_1_MEDIAN_FILTER & \
1707:.\Generated_Source\PSoC5/CapSense_1_CSHL.c ****                                    *           CapSense_1_TOUCH_PADS_POS_FILTERS_MASK)) || \
1708:.\Generated_Source\PSoC5/CapSense_1_CSHL.c ****                                    *    (0u != (CapSense_1_AVERAGING_FILTER & \
1709:.\Generated_Source\PSoC5/CapSense_1_CSHL.c ****                                    *            CapSense_1_TOUCH_PADS_POS_FILTERS_MASK)))
1710:.\Generated_Source\PSoC5/CapSense_1_CSHL.c ****                                    */
1711:.\Generated_Source\PSoC5/CapSense_1_CSHL.c ****                             
1712:.\Generated_Source\PSoC5/CapSense_1_CSHL.c ****                             CapSense_1_posFiltersData[firstTimeIndex] = 1u;
1713:.\Generated_Source\PSoC5/CapSense_1_CSHL.c ****                         }
1714:.\Generated_Source\PSoC5/CapSense_1_CSHL.c ****                         else
ARM GAS  C:\Users\LUKASC~1\AppData\Local\Temp\ccTi8KiV.s 			page 61


1715:.\Generated_Source\PSoC5/CapSense_1_CSHL.c ****                         {
1716:.\Generated_Source\PSoC5/CapSense_1_CSHL.c ****                             /* Do filtering */
1717:.\Generated_Source\PSoC5/CapSense_1_CSHL.c ****                             #if (0u != (CapSense_1_MEDIAN_FILTER & CapSense_1_TOUCH_PADS_POS_FILTER
1718:.\Generated_Source\PSoC5/CapSense_1_CSHL.c ****                                 if (0u != (posFiltersMask & CapSense_1_MEDIAN_FILTER))
1719:.\Generated_Source\PSoC5/CapSense_1_CSHL.c ****                                 {
1720:.\Generated_Source\PSoC5/CapSense_1_CSHL.c ****                                     tempPos = posX;
1721:.\Generated_Source\PSoC5/CapSense_1_CSHL.c ****                                     posX = (uint8) CapSense_1_MedianFilter(posX,
1722:.\Generated_Source\PSoC5/CapSense_1_CSHL.c ****                                                                       CapSense_1_posFiltersData[pos
1723:.\Generated_Source\PSoC5/CapSense_1_CSHL.c ****                                                                       CapSense_1_posFiltersData[pos
1724:.\Generated_Source\PSoC5/CapSense_1_CSHL.c ****                                     CapSense_1_posFiltersData[posXIndex + 1u] = 
1725:.\Generated_Source\PSoC5/CapSense_1_CSHL.c ****                                                                              CapSense_1_posFiltersD
1726:.\Generated_Source\PSoC5/CapSense_1_CSHL.c ****                                     CapSense_1_posFiltersData[posXIndex] = tempPos;
1727:.\Generated_Source\PSoC5/CapSense_1_CSHL.c ****                                     
1728:.\Generated_Source\PSoC5/CapSense_1_CSHL.c ****                                     tempPos = posY;
1729:.\Generated_Source\PSoC5/CapSense_1_CSHL.c ****                                     posY = (uint8) CapSense_1_MedianFilter(posY,
1730:.\Generated_Source\PSoC5/CapSense_1_CSHL.c ****                                                                        CapSense_1_posFiltersData[po
1731:.\Generated_Source\PSoC5/CapSense_1_CSHL.c ****                                                                        CapSense_1_posFiltersData[po
1732:.\Generated_Source\PSoC5/CapSense_1_CSHL.c ****                                     CapSense_1_posFiltersData[posYIndex + 1u] = 
1733:.\Generated_Source\PSoC5/CapSense_1_CSHL.c ****                                                                              CapSense_1_posFiltersD
1734:.\Generated_Source\PSoC5/CapSense_1_CSHL.c ****                                     CapSense_1_posFiltersData[posYIndex] = tempPos;
1735:.\Generated_Source\PSoC5/CapSense_1_CSHL.c ****                                 }
1736:.\Generated_Source\PSoC5/CapSense_1_CSHL.c ****                                 
1737:.\Generated_Source\PSoC5/CapSense_1_CSHL.c ****                             #endif /* (0u != (CapSense_1_MEDIAN_FILTER & \
1738:.\Generated_Source\PSoC5/CapSense_1_CSHL.c ****                                    *          CapSense_1_TOUCH_PADS_POS_FILTERS_MASK))
1739:.\Generated_Source\PSoC5/CapSense_1_CSHL.c ****                                    */
1740:.\Generated_Source\PSoC5/CapSense_1_CSHL.c **** 
1741:.\Generated_Source\PSoC5/CapSense_1_CSHL.c ****                             #if(0u !=(CapSense_1_AVERAGING_FILTER & CapSense_1_TOUCH_PADS_POS_FILTE
1742:.\Generated_Source\PSoC5/CapSense_1_CSHL.c ****                                 if (0u != (posFiltersMask & CapSense_1_AVERAGING_FILTER))
1743:.\Generated_Source\PSoC5/CapSense_1_CSHL.c ****                                 {
1744:.\Generated_Source\PSoC5/CapSense_1_CSHL.c ****                                     tempPos = posX;
1745:.\Generated_Source\PSoC5/CapSense_1_CSHL.c ****                                     posX = (uint8) CapSense_1_AveragingFilter(posX,
1746:.\Generated_Source\PSoC5/CapSense_1_CSHL.c ****                                                                        CapSense_1_posFiltersData[po
1747:.\Generated_Source\PSoC5/CapSense_1_CSHL.c ****                                                                        CapSense_1_posFiltersData[po
1748:.\Generated_Source\PSoC5/CapSense_1_CSHL.c ****                                     CapSense_1_posFiltersData[posXIndex + 1u] = 
1749:.\Generated_Source\PSoC5/CapSense_1_CSHL.c ****                                                                              CapSense_1_posFiltersD
1750:.\Generated_Source\PSoC5/CapSense_1_CSHL.c ****                                     CapSense_1_posFiltersData[posXIndex] = tempPos;
1751:.\Generated_Source\PSoC5/CapSense_1_CSHL.c ****                                     
1752:.\Generated_Source\PSoC5/CapSense_1_CSHL.c ****                                     tempPos = posY;
1753:.\Generated_Source\PSoC5/CapSense_1_CSHL.c ****                                     posY = (uint8) CapSense_1_AveragingFilter(posY, 
1754:.\Generated_Source\PSoC5/CapSense_1_CSHL.c ****                                                                       CapSense_1_posFiltersData[pos
1755:.\Generated_Source\PSoC5/CapSense_1_CSHL.c ****                                                                       CapSense_1_posFiltersData[pos
1756:.\Generated_Source\PSoC5/CapSense_1_CSHL.c ****                                     CapSense_1_posFiltersData[posYIndex + 1u] = 
1757:.\Generated_Source\PSoC5/CapSense_1_CSHL.c ****                                                                             CapSense_1_posFiltersDa
1758:.\Generated_Source\PSoC5/CapSense_1_CSHL.c ****                                     CapSense_1_posFiltersData[posYIndex] = tempPos;
1759:.\Generated_Source\PSoC5/CapSense_1_CSHL.c ****                                 }
1760:.\Generated_Source\PSoC5/CapSense_1_CSHL.c **** 
1761:.\Generated_Source\PSoC5/CapSense_1_CSHL.c ****                             #endif /* (0u != (CapSense_1_AVERAGING_FILTER & \
1762:.\Generated_Source\PSoC5/CapSense_1_CSHL.c ****                                    *           CapSense_1_TOUCH_PADS_POS_FILTERS_MASK))
1763:.\Generated_Source\PSoC5/CapSense_1_CSHL.c ****                                    */
1764:.\Generated_Source\PSoC5/CapSense_1_CSHL.c **** 
1765:.\Generated_Source\PSoC5/CapSense_1_CSHL.c ****                             #if (0u != (CapSense_1_IIR2_FILTER & CapSense_1_TOUCH_PADS_POS_FILTERS_
1766:.\Generated_Source\PSoC5/CapSense_1_CSHL.c ****                                 if (0u != (posFiltersMask & CapSense_1_IIR2_FILTER))
1767:.\Generated_Source\PSoC5/CapSense_1_CSHL.c ****                                 {
1768:.\Generated_Source\PSoC5/CapSense_1_CSHL.c ****                                     posX = (uint8) CapSense_1_IIR2Filter(posX, 
1769:.\Generated_Source\PSoC5/CapSense_1_CSHL.c ****                                                                            CapSense_1_posFiltersDat
1770:.\Generated_Source\PSoC5/CapSense_1_CSHL.c ****                                     CapSense_1_posFiltersData[posXIndex] = posX;
1771:.\Generated_Source\PSoC5/CapSense_1_CSHL.c ****                                     
ARM GAS  C:\Users\LUKASC~1\AppData\Local\Temp\ccTi8KiV.s 			page 62


1772:.\Generated_Source\PSoC5/CapSense_1_CSHL.c ****                                     posY = (uint8) CapSense_1_IIR2Filter(posY, 
1773:.\Generated_Source\PSoC5/CapSense_1_CSHL.c ****                                                                             CapSense_1_posFiltersDa
1774:.\Generated_Source\PSoC5/CapSense_1_CSHL.c ****                                     CapSense_1_posFiltersData[posYIndex] = posY;
1775:.\Generated_Source\PSoC5/CapSense_1_CSHL.c ****                                 }
1776:.\Generated_Source\PSoC5/CapSense_1_CSHL.c ****                                 
1777:.\Generated_Source\PSoC5/CapSense_1_CSHL.c ****                             #endif /* (0u != (CapSense_1_IIR2_FILTER & \
1778:.\Generated_Source\PSoC5/CapSense_1_CSHL.c ****                                    *          CapSense_1_TOUCH_PADS_POS_FILTERS_MASK))
1779:.\Generated_Source\PSoC5/CapSense_1_CSHL.c ****                                    */
1780:.\Generated_Source\PSoC5/CapSense_1_CSHL.c **** 
1781:.\Generated_Source\PSoC5/CapSense_1_CSHL.c ****                             #if (0u != (CapSense_1_IIR4_FILTER & CapSense_1_TOUCH_PADS_POS_FILTERS_
1782:.\Generated_Source\PSoC5/CapSense_1_CSHL.c ****                                 if (0u != (posFiltersMask & CapSense_1_IIR4_FILTER))
1783:.\Generated_Source\PSoC5/CapSense_1_CSHL.c ****                                 {
1784:.\Generated_Source\PSoC5/CapSense_1_CSHL.c ****                                     posX = (uint8) CapSense_1_IIR4Filter((uint16)posX,
1785:.\Generated_Source\PSoC5/CapSense_1_CSHL.c ****                                                                     (uint16)CapSense_1_posFiltersDa
1786:.\Generated_Source\PSoC5/CapSense_1_CSHL.c ****                                     CapSense_1_posFiltersData[posXIndex] = posX;
1787:.\Generated_Source\PSoC5/CapSense_1_CSHL.c **** 
1788:.\Generated_Source\PSoC5/CapSense_1_CSHL.c ****                                     posY = (uint8) CapSense_1_IIR4Filter((uint16)posY,
1789:.\Generated_Source\PSoC5/CapSense_1_CSHL.c ****                                                                     (uint16)CapSense_1_posFiltersDa
1790:.\Generated_Source\PSoC5/CapSense_1_CSHL.c ****                                     CapSense_1_posFiltersData[posYIndex] = posY;
1791:.\Generated_Source\PSoC5/CapSense_1_CSHL.c ****                                 }
1792:.\Generated_Source\PSoC5/CapSense_1_CSHL.c ****                                 
1793:.\Generated_Source\PSoC5/CapSense_1_CSHL.c ****                             #endif /* (0u != (CapSense_1_IIR4_FILTER & \
1794:.\Generated_Source\PSoC5/CapSense_1_CSHL.c ****                                    *           CapSense_1_TOUCH_PADS_POS_FILTERS_MASK))
1795:.\Generated_Source\PSoC5/CapSense_1_CSHL.c ****                                    */
1796:.\Generated_Source\PSoC5/CapSense_1_CSHL.c **** 
1797:.\Generated_Source\PSoC5/CapSense_1_CSHL.c ****                             #if (0u != (CapSense_1_JITTER_FILTER & CapSense_1_TOUCH_PADS_POS_FILTER
1798:.\Generated_Source\PSoC5/CapSense_1_CSHL.c ****                                 if (0u != (posFiltersMask & CapSense_1_JITTER_FILTER))
1799:.\Generated_Source\PSoC5/CapSense_1_CSHL.c ****                                     {
1800:.\Generated_Source\PSoC5/CapSense_1_CSHL.c ****                                         posX = (uint8) CapSense_1_JitterFilter(posX, 
1801:.\Generated_Source\PSoC5/CapSense_1_CSHL.c ****                                                                             CapSense_1_posFiltersDa
1802:.\Generated_Source\PSoC5/CapSense_1_CSHL.c ****                                         CapSense_1_posFiltersData[posXIndex] = posX;
1803:.\Generated_Source\PSoC5/CapSense_1_CSHL.c ****                                         
1804:.\Generated_Source\PSoC5/CapSense_1_CSHL.c ****                                         posY = (uint8) CapSense_1_JitterFilter(posY, 
1805:.\Generated_Source\PSoC5/CapSense_1_CSHL.c ****                                                                             CapSense_1_posFiltersDa
1806:.\Generated_Source\PSoC5/CapSense_1_CSHL.c ****                                         CapSense_1_posFiltersData[posYIndex] = posY;
1807:.\Generated_Source\PSoC5/CapSense_1_CSHL.c ****                                     }
1808:.\Generated_Source\PSoC5/CapSense_1_CSHL.c ****                             #endif /* (0u != (CapSense_1_JITTER_FILTER & \
1809:.\Generated_Source\PSoC5/CapSense_1_CSHL.c ****                                    *           CapSense_1_TOUCH_PADS_POS_FILTERS_MASK))
1810:.\Generated_Source\PSoC5/CapSense_1_CSHL.c ****                                    */
1811:.\Generated_Source\PSoC5/CapSense_1_CSHL.c ****                         }
1812:.\Generated_Source\PSoC5/CapSense_1_CSHL.c ****                     }
1813:.\Generated_Source\PSoC5/CapSense_1_CSHL.c ****                 #endif /* (0u != CapSense_1_TOUCH_PADS_POS_FILTERS_MASK) */
1814:.\Generated_Source\PSoC5/CapSense_1_CSHL.c **** 
1815:.\Generated_Source\PSoC5/CapSense_1_CSHL.c ****                 /* Save positions */
1816:.\Generated_Source\PSoC5/CapSense_1_CSHL.c ****                 pos[0u] = posX;
1817:.\Generated_Source\PSoC5/CapSense_1_CSHL.c ****                 pos[1u] = posY;
1818:.\Generated_Source\PSoC5/CapSense_1_CSHL.c ****             }
1819:.\Generated_Source\PSoC5/CapSense_1_CSHL.c ****         }
1820:.\Generated_Source\PSoC5/CapSense_1_CSHL.c **** 
1821:.\Generated_Source\PSoC5/CapSense_1_CSHL.c ****         #if (0u != CapSense_1_TOUCH_PADS_POS_FILTERS_MASK)
1822:.\Generated_Source\PSoC5/CapSense_1_CSHL.c ****             if(touch == 0u)
1823:.\Generated_Source\PSoC5/CapSense_1_CSHL.c ****             {
1824:.\Generated_Source\PSoC5/CapSense_1_CSHL.c ****                 /* Reset the filters */
1825:.\Generated_Source\PSoC5/CapSense_1_CSHL.c ****                 if ((posFiltersMask & CapSense_1_ANY_POS_FILTER) != 0u)
1826:.\Generated_Source\PSoC5/CapSense_1_CSHL.c ****                 {
1827:.\Generated_Source\PSoC5/CapSense_1_CSHL.c ****                     CapSense_1_posFiltersData[firstTimeIndex] = 0u;
1828:.\Generated_Source\PSoC5/CapSense_1_CSHL.c ****                 }
ARM GAS  C:\Users\LUKASC~1\AppData\Local\Temp\ccTi8KiV.s 			page 63


1829:.\Generated_Source\PSoC5/CapSense_1_CSHL.c ****             }
1830:.\Generated_Source\PSoC5/CapSense_1_CSHL.c ****         #endif /* (0u != CapSense_1_TOUCH_PADS_POS_FILTERS_MASK) */
1831:.\Generated_Source\PSoC5/CapSense_1_CSHL.c ****         
1832:.\Generated_Source\PSoC5/CapSense_1_CSHL.c ****         return (touch);
1833:.\Generated_Source\PSoC5/CapSense_1_CSHL.c ****     }
1834:.\Generated_Source\PSoC5/CapSense_1_CSHL.c **** #endif /* (CapSense_1_TOTAL_TOUCH_PADS_COUNT > 0u) */
1835:.\Generated_Source\PSoC5/CapSense_1_CSHL.c **** 
1836:.\Generated_Source\PSoC5/CapSense_1_CSHL.c **** 
1837:.\Generated_Source\PSoC5/CapSense_1_CSHL.c **** #if ( (CapSense_1_RAW_FILTER_MASK & CapSense_1_MEDIAN_FILTER) | \
1838:.\Generated_Source\PSoC5/CapSense_1_CSHL.c ****       (CapSense_1_POS_FILTERS_MASK & CapSense_1_MEDIAN_FILTER) )
1839:.\Generated_Source\PSoC5/CapSense_1_CSHL.c ****     /*******************************************************************************
