ARM GAS  C:\Users\LUKASC~1\AppData\Local\Temp\ccvZYSFu.s 			page 1


   1              		.syntax unified
   2              		.cpu cortex-m3
   3              		.fpu softvfp
   4              		.eabi_attribute 20, 1
   5              		.eabi_attribute 21, 1
   6              		.eabi_attribute 23, 3
   7              		.eabi_attribute 24, 1
   8              		.eabi_attribute 25, 1
   9              		.eabi_attribute 26, 1
  10              		.eabi_attribute 30, 6
  11              		.eabi_attribute 34, 1
  12              		.eabi_attribute 18, 4
  13              		.thumb
  14              		.file	"CapSense_1_IdacCH0.c"
  15              		.text
  16              	.Ltext0:
  17              		.cfi_sections	.debug_frame
  18              		.global	CapSense_1_IdacCH0_initVar
  19              		.bss
  20              		.type	CapSense_1_IdacCH0_initVar, %object
  21              		.size	CapSense_1_IdacCH0_initVar, 1
  22              	CapSense_1_IdacCH0_initVar:
  23 0000 00       		.space	1
  24              		.section	.text.CapSense_1_IdacCH0_Init,"ax",%progbits
  25              		.align	2
  26              		.global	CapSense_1_IdacCH0_Init
  27              		.thumb
  28              		.thumb_func
  29              		.type	CapSense_1_IdacCH0_Init, %function
  30              	CapSense_1_IdacCH0_Init:
  31              	.LFB0:
  32              		.file 1 ".\\Generated_Source\\PSoC5\\CapSense_1_IdacCH0.c"
   1:.\Generated_Source\PSoC5/CapSense_1_IdacCH0.c **** /*******************************************************************************
   2:.\Generated_Source\PSoC5/CapSense_1_IdacCH0.c **** * File Name: CapSense_1_IdacCH0.c
   3:.\Generated_Source\PSoC5/CapSense_1_IdacCH0.c **** * Version 2.0
   4:.\Generated_Source\PSoC5/CapSense_1_IdacCH0.c **** *
   5:.\Generated_Source\PSoC5/CapSense_1_IdacCH0.c **** * Description:
   6:.\Generated_Source\PSoC5/CapSense_1_IdacCH0.c **** *  This file provides the source code to the API for the 8-bit Current 
   7:.\Generated_Source\PSoC5/CapSense_1_IdacCH0.c **** *  DAC (IDAC8) User Module.
   8:.\Generated_Source\PSoC5/CapSense_1_IdacCH0.c **** *
   9:.\Generated_Source\PSoC5/CapSense_1_IdacCH0.c **** * Note:
  10:.\Generated_Source\PSoC5/CapSense_1_IdacCH0.c **** *  None
  11:.\Generated_Source\PSoC5/CapSense_1_IdacCH0.c **** *
  12:.\Generated_Source\PSoC5/CapSense_1_IdacCH0.c **** ********************************************************************************
  13:.\Generated_Source\PSoC5/CapSense_1_IdacCH0.c **** * Copyright 2008-2012, Cypress Semiconductor Corporation.  All rights reserved.
  14:.\Generated_Source\PSoC5/CapSense_1_IdacCH0.c **** * You may use this file only in accordance with the license, terms, conditions, 
  15:.\Generated_Source\PSoC5/CapSense_1_IdacCH0.c **** * disclaimers, and limitations in the end user license agreement accompanying 
  16:.\Generated_Source\PSoC5/CapSense_1_IdacCH0.c **** * the software package with which this file was provided.
  17:.\Generated_Source\PSoC5/CapSense_1_IdacCH0.c **** *******************************************************************************/
  18:.\Generated_Source\PSoC5/CapSense_1_IdacCH0.c **** 
  19:.\Generated_Source\PSoC5/CapSense_1_IdacCH0.c **** #include "cytypes.h"
  20:.\Generated_Source\PSoC5/CapSense_1_IdacCH0.c **** #include "CapSense_1_IdacCH0.h"   
  21:.\Generated_Source\PSoC5/CapSense_1_IdacCH0.c **** 
  22:.\Generated_Source\PSoC5/CapSense_1_IdacCH0.c **** #if (CY_PSOC5A)
  23:.\Generated_Source\PSoC5/CapSense_1_IdacCH0.c ****     #include <CyLib.h>
  24:.\Generated_Source\PSoC5/CapSense_1_IdacCH0.c **** #endif /* CY_PSOC5A */
  25:.\Generated_Source\PSoC5/CapSense_1_IdacCH0.c **** 
ARM GAS  C:\Users\LUKASC~1\AppData\Local\Temp\ccvZYSFu.s 			page 2


  26:.\Generated_Source\PSoC5/CapSense_1_IdacCH0.c **** 
  27:.\Generated_Source\PSoC5/CapSense_1_IdacCH0.c **** uint8 CapSense_1_IdacCH0_initVar = 0u;
  28:.\Generated_Source\PSoC5/CapSense_1_IdacCH0.c **** 
  29:.\Generated_Source\PSoC5/CapSense_1_IdacCH0.c **** 
  30:.\Generated_Source\PSoC5/CapSense_1_IdacCH0.c **** #if (CY_PSOC5A)
  31:.\Generated_Source\PSoC5/CapSense_1_IdacCH0.c ****     static CapSense_1_IdacCH0_LOWPOWER_BACKUP_STRUCT  CapSense_1_IdacCH0_lowPowerBackup;
  32:.\Generated_Source\PSoC5/CapSense_1_IdacCH0.c **** #endif /* CY_PSOC5A */
  33:.\Generated_Source\PSoC5/CapSense_1_IdacCH0.c **** 
  34:.\Generated_Source\PSoC5/CapSense_1_IdacCH0.c **** /* Variable to decide whether or not to restore control register in Enable()
  35:.\Generated_Source\PSoC5/CapSense_1_IdacCH0.c ****    API. This valid only for PSoC5A */
  36:.\Generated_Source\PSoC5/CapSense_1_IdacCH0.c **** #if (CY_PSOC5A)
  37:.\Generated_Source\PSoC5/CapSense_1_IdacCH0.c ****     static uint8 CapSense_1_IdacCH0_restoreReg = 0u;
  38:.\Generated_Source\PSoC5/CapSense_1_IdacCH0.c **** #endif /* CY_PSOC5A */
  39:.\Generated_Source\PSoC5/CapSense_1_IdacCH0.c **** 
  40:.\Generated_Source\PSoC5/CapSense_1_IdacCH0.c **** 
  41:.\Generated_Source\PSoC5/CapSense_1_IdacCH0.c **** /*******************************************************************************
  42:.\Generated_Source\PSoC5/CapSense_1_IdacCH0.c **** * Function Name: CapSense_1_IdacCH0_Init
  43:.\Generated_Source\PSoC5/CapSense_1_IdacCH0.c **** ********************************************************************************
  44:.\Generated_Source\PSoC5/CapSense_1_IdacCH0.c **** * Summary:
  45:.\Generated_Source\PSoC5/CapSense_1_IdacCH0.c **** *  Initialize to the schematic state.
  46:.\Generated_Source\PSoC5/CapSense_1_IdacCH0.c **** * 
  47:.\Generated_Source\PSoC5/CapSense_1_IdacCH0.c **** * Parameters:
  48:.\Generated_Source\PSoC5/CapSense_1_IdacCH0.c **** *  void:
  49:.\Generated_Source\PSoC5/CapSense_1_IdacCH0.c **** *
  50:.\Generated_Source\PSoC5/CapSense_1_IdacCH0.c **** * Return:
  51:.\Generated_Source\PSoC5/CapSense_1_IdacCH0.c **** *  (void)
  52:.\Generated_Source\PSoC5/CapSense_1_IdacCH0.c **** *
  53:.\Generated_Source\PSoC5/CapSense_1_IdacCH0.c **** * Theory:
  54:.\Generated_Source\PSoC5/CapSense_1_IdacCH0.c **** *
  55:.\Generated_Source\PSoC5/CapSense_1_IdacCH0.c **** * Side Effects:
  56:.\Generated_Source\PSoC5/CapSense_1_IdacCH0.c **** *
  57:.\Generated_Source\PSoC5/CapSense_1_IdacCH0.c **** *******************************************************************************/
  58:.\Generated_Source\PSoC5/CapSense_1_IdacCH0.c **** void CapSense_1_IdacCH0_Init(void) 
  59:.\Generated_Source\PSoC5/CapSense_1_IdacCH0.c **** {
  33              		.loc 1 59 0
  34              		.cfi_startproc
  35              		@ args = 0, pretend = 0, frame = 0
  36              		@ frame_needed = 1, uses_anonymous_args = 0
  37 0000 80B5     		push	{r7, lr}
  38              		.cfi_def_cfa_offset 8
  39              		.cfi_offset 7, -8
  40              		.cfi_offset 14, -4
  41 0002 00AF     		add	r7, sp, #0
  42              		.cfi_def_cfa_register 7
  60:.\Generated_Source\PSoC5/CapSense_1_IdacCH0.c ****     CapSense_1_IdacCH0_CR0 = (CapSense_1_IdacCH0_MODE_I | CapSense_1_IdacCH0_DEFAULT_RANGE );
  43              		.loc 1 60 0
  44 0004 0D4B     		ldr	r3, .L2
  45 0006 1422     		movs	r2, #20
  46 0008 1A70     		strb	r2, [r3]
  61:.\Generated_Source\PSoC5/CapSense_1_IdacCH0.c **** 
  62:.\Generated_Source\PSoC5/CapSense_1_IdacCH0.c ****     /* Set default data source */
  63:.\Generated_Source\PSoC5/CapSense_1_IdacCH0.c ****     #if(CapSense_1_IdacCH0_DEFAULT_DATA_SRC != 0u )    
  64:.\Generated_Source\PSoC5/CapSense_1_IdacCH0.c ****         CapSense_1_IdacCH0_CR1 = (CapSense_1_IdacCH0_DEFAULT_CNTL | CapSense_1_IdacCH0_DACBUS_ENABL
  65:.\Generated_Source\PSoC5/CapSense_1_IdacCH0.c ****     #else
  66:.\Generated_Source\PSoC5/CapSense_1_IdacCH0.c ****         CapSense_1_IdacCH0_CR1 = (CapSense_1_IdacCH0_DEFAULT_CNTL | CapSense_1_IdacCH0_DACBUS_DISAB
  47              		.loc 1 66 0
  48 000a 0D4B     		ldr	r3, .L2+4
ARM GAS  C:\Users\LUKASC~1\AppData\Local\Temp\ccvZYSFu.s 			page 3


  49 000c 0022     		movs	r2, #0
  50 000e 1A70     		strb	r2, [r3]
  67:.\Generated_Source\PSoC5/CapSense_1_IdacCH0.c ****     #endif /* (CapSense_1_IdacCH0_DEFAULT_DATA_SRC != 0u ) */
  68:.\Generated_Source\PSoC5/CapSense_1_IdacCH0.c ****     
  69:.\Generated_Source\PSoC5/CapSense_1_IdacCH0.c ****     /*Controls polarity from UDB Control*/
  70:.\Generated_Source\PSoC5/CapSense_1_IdacCH0.c ****     #if(CapSense_1_IdacCH0_DEFAULT_POLARITY == CapSense_1_IdacCH0_HARDWARE_CONTROLLED)
  71:.\Generated_Source\PSoC5/CapSense_1_IdacCH0.c ****         CapSense_1_IdacCH0_CR1 |= CapSense_1_IdacCH0_IDIR_SRC_UDB;
  72:.\Generated_Source\PSoC5/CapSense_1_IdacCH0.c ****     #else
  73:.\Generated_Source\PSoC5/CapSense_1_IdacCH0.c ****         CapSense_1_IdacCH0_CR1 |= CapSense_1_IdacCH0_DEFAULT_POLARITY;
  51              		.loc 1 73 0
  52 0010 0B4A     		ldr	r2, .L2+4
  53 0012 0B4B     		ldr	r3, .L2+4
  54 0014 1B78     		ldrb	r3, [r3]
  55 0016 DBB2     		uxtb	r3, r3
  56 0018 43F00403 		orr	r3, r3, #4
  57 001c DBB2     		uxtb	r3, r3
  58 001e 1370     		strb	r3, [r2]
  74:.\Generated_Source\PSoC5/CapSense_1_IdacCH0.c ****     #endif/* (CapSense_1_IdacCH0_DEFAULT_POLARITY == CapSense_1_IdacCH0_HARDWARE_CONTROLLED) */
  75:.\Generated_Source\PSoC5/CapSense_1_IdacCH0.c ****     /*Controls Current Source from UDB Control*/
  76:.\Generated_Source\PSoC5/CapSense_1_IdacCH0.c ****     #if(CapSense_1_IdacCH0_HARDWARE_ENABLE != 0u ) 
  77:.\Generated_Source\PSoC5/CapSense_1_IdacCH0.c ****         CapSense_1_IdacCH0_CR1 |= CapSense_1_IdacCH0_IDIR_CTL_UDB;
  59              		.loc 1 77 0
  60 0020 074A     		ldr	r2, .L2+4
  61 0022 074B     		ldr	r3, .L2+4
  62 0024 1B78     		ldrb	r3, [r3]
  63 0026 DBB2     		uxtb	r3, r3
  64 0028 43F00203 		orr	r3, r3, #2
  65 002c DBB2     		uxtb	r3, r3
  66 002e 1370     		strb	r3, [r2]
  78:.\Generated_Source\PSoC5/CapSense_1_IdacCH0.c ****     #endif /* (CapSense_1_IdacCH0_HARDWARE_ENABLE != 0u ) */ 
  79:.\Generated_Source\PSoC5/CapSense_1_IdacCH0.c ****     
  80:.\Generated_Source\PSoC5/CapSense_1_IdacCH0.c ****     /* Set default strobe mode */
  81:.\Generated_Source\PSoC5/CapSense_1_IdacCH0.c ****     #if(CapSense_1_IdacCH0_DEFAULT_STRB != 0u)
  82:.\Generated_Source\PSoC5/CapSense_1_IdacCH0.c ****         CapSense_1_IdacCH0_Strobe |= CapSense_1_IdacCH0_STRB_EN;
  83:.\Generated_Source\PSoC5/CapSense_1_IdacCH0.c ****     #endif /* (CapSense_1_IdacCH0_DEFAULT_STRB != 0u) */
  84:.\Generated_Source\PSoC5/CapSense_1_IdacCH0.c ****     
  85:.\Generated_Source\PSoC5/CapSense_1_IdacCH0.c ****     /* Set default speed */
  86:.\Generated_Source\PSoC5/CapSense_1_IdacCH0.c ****     CapSense_1_IdacCH0_SetSpeed(CapSense_1_IdacCH0_DEFAULT_SPEED);
  67              		.loc 1 86 0
  68 0030 0020     		movs	r0, #0
  69 0032 FFF7FEFF 		bl	CapSense_1_IdacCH0_SetSpeed
  87:.\Generated_Source\PSoC5/CapSense_1_IdacCH0.c ****     
  88:.\Generated_Source\PSoC5/CapSense_1_IdacCH0.c ****     /* Set proper DAC trim */
  89:.\Generated_Source\PSoC5/CapSense_1_IdacCH0.c ****     CapSense_1_IdacCH0_DacTrim();
  70              		.loc 1 89 0
  71 0036 FFF7FEFF 		bl	CapSense_1_IdacCH0_DacTrim
  90:.\Generated_Source\PSoC5/CapSense_1_IdacCH0.c ****     
  91:.\Generated_Source\PSoC5/CapSense_1_IdacCH0.c **** }
  72              		.loc 1 91 0
  73 003a 80BD     		pop	{r7, pc}
  74              	.L3:
  75              		.align	2
  76              	.L2:
  77 003c 20580040 		.word	1073764384
  78 0040 21580040 		.word	1073764385
  79              		.cfi_endproc
  80              	.LFE0:
ARM GAS  C:\Users\LUKASC~1\AppData\Local\Temp\ccvZYSFu.s 			page 4


  81              		.size	CapSense_1_IdacCH0_Init, .-CapSense_1_IdacCH0_Init
  82              		.section	.text.CapSense_1_IdacCH0_Enable,"ax",%progbits
  83              		.align	2
  84              		.global	CapSense_1_IdacCH0_Enable
  85              		.thumb
  86              		.thumb_func
  87              		.type	CapSense_1_IdacCH0_Enable, %function
  88              	CapSense_1_IdacCH0_Enable:
  89              	.LFB1:
  92:.\Generated_Source\PSoC5/CapSense_1_IdacCH0.c **** 
  93:.\Generated_Source\PSoC5/CapSense_1_IdacCH0.c **** 
  94:.\Generated_Source\PSoC5/CapSense_1_IdacCH0.c **** /*******************************************************************************
  95:.\Generated_Source\PSoC5/CapSense_1_IdacCH0.c **** * Function Name: CapSense_1_IdacCH0_Enable
  96:.\Generated_Source\PSoC5/CapSense_1_IdacCH0.c **** ********************************************************************************
  97:.\Generated_Source\PSoC5/CapSense_1_IdacCH0.c **** * Summary:
  98:.\Generated_Source\PSoC5/CapSense_1_IdacCH0.c **** *  Enable the IDAC8
  99:.\Generated_Source\PSoC5/CapSense_1_IdacCH0.c **** * 
 100:.\Generated_Source\PSoC5/CapSense_1_IdacCH0.c **** * Parameters:
 101:.\Generated_Source\PSoC5/CapSense_1_IdacCH0.c **** *  void:
 102:.\Generated_Source\PSoC5/CapSense_1_IdacCH0.c **** *
 103:.\Generated_Source\PSoC5/CapSense_1_IdacCH0.c **** * Return:
 104:.\Generated_Source\PSoC5/CapSense_1_IdacCH0.c **** *  (void)
 105:.\Generated_Source\PSoC5/CapSense_1_IdacCH0.c **** *
 106:.\Generated_Source\PSoC5/CapSense_1_IdacCH0.c **** * Theory:
 107:.\Generated_Source\PSoC5/CapSense_1_IdacCH0.c **** *
 108:.\Generated_Source\PSoC5/CapSense_1_IdacCH0.c **** * Side Effects:
 109:.\Generated_Source\PSoC5/CapSense_1_IdacCH0.c **** *
 110:.\Generated_Source\PSoC5/CapSense_1_IdacCH0.c **** *******************************************************************************/
 111:.\Generated_Source\PSoC5/CapSense_1_IdacCH0.c **** void CapSense_1_IdacCH0_Enable(void) 
 112:.\Generated_Source\PSoC5/CapSense_1_IdacCH0.c **** {
  90              		.loc 1 112 0
  91              		.cfi_startproc
  92              		@ args = 0, pretend = 0, frame = 0
  93              		@ frame_needed = 1, uses_anonymous_args = 0
  94              		@ link register save eliminated.
  95 0000 80B4     		push	{r7}
  96              		.cfi_def_cfa_offset 4
  97              		.cfi_offset 7, -4
  98 0002 00AF     		add	r7, sp, #0
  99              		.cfi_def_cfa_register 7
 113:.\Generated_Source\PSoC5/CapSense_1_IdacCH0.c ****     CapSense_1_IdacCH0_PWRMGR |= CapSense_1_IdacCH0_ACT_PWR_EN;
 100              		.loc 1 113 0
 101 0004 094A     		ldr	r2, .L5
 102 0006 094B     		ldr	r3, .L5
 103 0008 1B78     		ldrb	r3, [r3]
 104 000a DBB2     		uxtb	r3, r3
 105 000c 43F00103 		orr	r3, r3, #1
 106 0010 DBB2     		uxtb	r3, r3
 107 0012 1370     		strb	r3, [r2]
 114:.\Generated_Source\PSoC5/CapSense_1_IdacCH0.c ****     CapSense_1_IdacCH0_STBY_PWRMGR |= CapSense_1_IdacCH0_STBY_PWR_EN;
 108              		.loc 1 114 0
 109 0014 064A     		ldr	r2, .L5+4
 110 0016 064B     		ldr	r3, .L5+4
 111 0018 1B78     		ldrb	r3, [r3]
 112 001a DBB2     		uxtb	r3, r3
 113 001c 43F00103 		orr	r3, r3, #1
 114 0020 DBB2     		uxtb	r3, r3
ARM GAS  C:\Users\LUKASC~1\AppData\Local\Temp\ccvZYSFu.s 			page 5


 115 0022 1370     		strb	r3, [r2]
 115:.\Generated_Source\PSoC5/CapSense_1_IdacCH0.c **** 
 116:.\Generated_Source\PSoC5/CapSense_1_IdacCH0.c ****     /* This is to restore the value of register CR0 which is saved 
 117:.\Generated_Source\PSoC5/CapSense_1_IdacCH0.c ****       in prior to the modification in stop() API */
 118:.\Generated_Source\PSoC5/CapSense_1_IdacCH0.c ****     #if (CY_PSOC5A)
 119:.\Generated_Source\PSoC5/CapSense_1_IdacCH0.c ****         if(CapSense_1_IdacCH0_restoreReg == 1u)
 120:.\Generated_Source\PSoC5/CapSense_1_IdacCH0.c ****         {
 121:.\Generated_Source\PSoC5/CapSense_1_IdacCH0.c ****             CapSense_1_IdacCH0_CR0 = CapSense_1_IdacCH0_lowPowerBackup.DACCR0Reg;
 122:.\Generated_Source\PSoC5/CapSense_1_IdacCH0.c **** 
 123:.\Generated_Source\PSoC5/CapSense_1_IdacCH0.c ****             /* Clear the flag */
 124:.\Generated_Source\PSoC5/CapSense_1_IdacCH0.c ****             CapSense_1_IdacCH0_restoreReg = 0u;
 125:.\Generated_Source\PSoC5/CapSense_1_IdacCH0.c ****         }
 126:.\Generated_Source\PSoC5/CapSense_1_IdacCH0.c ****     #endif /* CY_PSOC5A */
 127:.\Generated_Source\PSoC5/CapSense_1_IdacCH0.c **** }
 116              		.loc 1 127 0
 117 0024 BD46     		mov	sp, r7
 118              		.cfi_def_cfa_register 13
 119              		@ sp needed
 120 0026 5DF8047B 		ldr	r7, [sp], #4
 121              		.cfi_restore 7
 122              		.cfi_def_cfa_offset 0
 123 002a 7047     		bx	lr
 124              	.L6:
 125              		.align	2
 126              	.L5:
 127 002c A8430040 		.word	1073759144
 128 0030 B8430040 		.word	1073759160
 129              		.cfi_endproc
 130              	.LFE1:
 131              		.size	CapSense_1_IdacCH0_Enable, .-CapSense_1_IdacCH0_Enable
 132              		.section	.text.CapSense_1_IdacCH0_Start,"ax",%progbits
 133              		.align	2
 134              		.global	CapSense_1_IdacCH0_Start
 135              		.thumb
 136              		.thumb_func
 137              		.type	CapSense_1_IdacCH0_Start, %function
 138              	CapSense_1_IdacCH0_Start:
 139              	.LFB2:
 128:.\Generated_Source\PSoC5/CapSense_1_IdacCH0.c **** 
 129:.\Generated_Source\PSoC5/CapSense_1_IdacCH0.c **** 
 130:.\Generated_Source\PSoC5/CapSense_1_IdacCH0.c **** /*******************************************************************************
 131:.\Generated_Source\PSoC5/CapSense_1_IdacCH0.c **** * Function Name: CapSense_1_IdacCH0_Start
 132:.\Generated_Source\PSoC5/CapSense_1_IdacCH0.c **** ********************************************************************************
 133:.\Generated_Source\PSoC5/CapSense_1_IdacCH0.c **** * Summary:
 134:.\Generated_Source\PSoC5/CapSense_1_IdacCH0.c **** *  Set power level then turn on IDAC8.
 135:.\Generated_Source\PSoC5/CapSense_1_IdacCH0.c **** *
 136:.\Generated_Source\PSoC5/CapSense_1_IdacCH0.c **** * Parameters:  
 137:.\Generated_Source\PSoC5/CapSense_1_IdacCH0.c **** *  power: Sets power level between off (0) and (3) high power
 138:.\Generated_Source\PSoC5/CapSense_1_IdacCH0.c **** *
 139:.\Generated_Source\PSoC5/CapSense_1_IdacCH0.c **** * Return:
 140:.\Generated_Source\PSoC5/CapSense_1_IdacCH0.c **** *  (void)
 141:.\Generated_Source\PSoC5/CapSense_1_IdacCH0.c **** *
 142:.\Generated_Source\PSoC5/CapSense_1_IdacCH0.c **** * Global variables:
 143:.\Generated_Source\PSoC5/CapSense_1_IdacCH0.c **** *  CapSense_1_IdacCH0_initVar: Is modified when this function is called for 
 144:.\Generated_Source\PSoC5/CapSense_1_IdacCH0.c **** *   the first time. Is used to ensure that initialization happens only once.
 145:.\Generated_Source\PSoC5/CapSense_1_IdacCH0.c **** *
 146:.\Generated_Source\PSoC5/CapSense_1_IdacCH0.c **** *******************************************************************************/
ARM GAS  C:\Users\LUKASC~1\AppData\Local\Temp\ccvZYSFu.s 			page 6


 147:.\Generated_Source\PSoC5/CapSense_1_IdacCH0.c **** void CapSense_1_IdacCH0_Start(void) 
 148:.\Generated_Source\PSoC5/CapSense_1_IdacCH0.c **** {
 140              		.loc 1 148 0
 141              		.cfi_startproc
 142              		@ args = 0, pretend = 0, frame = 0
 143              		@ frame_needed = 1, uses_anonymous_args = 0
 144 0000 80B5     		push	{r7, lr}
 145              		.cfi_def_cfa_offset 8
 146              		.cfi_offset 7, -8
 147              		.cfi_offset 14, -4
 148 0002 00AF     		add	r7, sp, #0
 149              		.cfi_def_cfa_register 7
 149:.\Generated_Source\PSoC5/CapSense_1_IdacCH0.c ****     /* Hardware initiazation only needs to occur the first time */
 150:.\Generated_Source\PSoC5/CapSense_1_IdacCH0.c ****     if ( CapSense_1_IdacCH0_initVar == 0u)  
 150              		.loc 1 150 0
 151 0004 074B     		ldr	r3, .L9
 152 0006 1B78     		ldrb	r3, [r3]	@ zero_extendqisi2
 153 0008 002B     		cmp	r3, #0
 154 000a 04D1     		bne	.L8
 151:.\Generated_Source\PSoC5/CapSense_1_IdacCH0.c ****     {
 152:.\Generated_Source\PSoC5/CapSense_1_IdacCH0.c ****         CapSense_1_IdacCH0_Init();
 155              		.loc 1 152 0
 156 000c FFF7FEFF 		bl	CapSense_1_IdacCH0_Init
 153:.\Generated_Source\PSoC5/CapSense_1_IdacCH0.c ****         
 154:.\Generated_Source\PSoC5/CapSense_1_IdacCH0.c ****         CapSense_1_IdacCH0_initVar = 1u;
 157              		.loc 1 154 0
 158 0010 044B     		ldr	r3, .L9
 159 0012 0122     		movs	r2, #1
 160 0014 1A70     		strb	r2, [r3]
 161              	.L8:
 155:.\Generated_Source\PSoC5/CapSense_1_IdacCH0.c ****     }
 156:.\Generated_Source\PSoC5/CapSense_1_IdacCH0.c ****    
 157:.\Generated_Source\PSoC5/CapSense_1_IdacCH0.c ****     /* Enable power to DAC */
 158:.\Generated_Source\PSoC5/CapSense_1_IdacCH0.c ****     CapSense_1_IdacCH0_Enable();
 162              		.loc 1 158 0
 163 0016 FFF7FEFF 		bl	CapSense_1_IdacCH0_Enable
 159:.\Generated_Source\PSoC5/CapSense_1_IdacCH0.c **** 
 160:.\Generated_Source\PSoC5/CapSense_1_IdacCH0.c ****     /* Set default value */
 161:.\Generated_Source\PSoC5/CapSense_1_IdacCH0.c ****     CapSense_1_IdacCH0_SetValue(CapSense_1_IdacCH0_DEFAULT_DATA);
 164              		.loc 1 161 0
 165 001a 0020     		movs	r0, #0
 166 001c FFF7FEFF 		bl	CapSense_1_IdacCH0_SetValue
 162:.\Generated_Source\PSoC5/CapSense_1_IdacCH0.c **** 
 163:.\Generated_Source\PSoC5/CapSense_1_IdacCH0.c **** }
 167              		.loc 1 163 0
 168 0020 80BD     		pop	{r7, pc}
 169              	.L10:
 170 0022 00BF     		.align	2
 171              	.L9:
 172 0024 00000000 		.word	CapSense_1_IdacCH0_initVar
 173              		.cfi_endproc
 174              	.LFE2:
 175              		.size	CapSense_1_IdacCH0_Start, .-CapSense_1_IdacCH0_Start
 176              		.section	.text.CapSense_1_IdacCH0_Stop,"ax",%progbits
 177              		.align	2
 178              		.global	CapSense_1_IdacCH0_Stop
 179              		.thumb
ARM GAS  C:\Users\LUKASC~1\AppData\Local\Temp\ccvZYSFu.s 			page 7


 180              		.thumb_func
 181              		.type	CapSense_1_IdacCH0_Stop, %function
 182              	CapSense_1_IdacCH0_Stop:
 183              	.LFB3:
 164:.\Generated_Source\PSoC5/CapSense_1_IdacCH0.c **** 
 165:.\Generated_Source\PSoC5/CapSense_1_IdacCH0.c **** 
 166:.\Generated_Source\PSoC5/CapSense_1_IdacCH0.c **** /*******************************************************************************
 167:.\Generated_Source\PSoC5/CapSense_1_IdacCH0.c **** * Function Name: CapSense_1_IdacCH0_Stop
 168:.\Generated_Source\PSoC5/CapSense_1_IdacCH0.c **** ********************************************************************************
 169:.\Generated_Source\PSoC5/CapSense_1_IdacCH0.c **** * Summary:
 170:.\Generated_Source\PSoC5/CapSense_1_IdacCH0.c **** *  Powers down IDAC8 to lowest power state.
 171:.\Generated_Source\PSoC5/CapSense_1_IdacCH0.c **** *
 172:.\Generated_Source\PSoC5/CapSense_1_IdacCH0.c **** * Parameters:
 173:.\Generated_Source\PSoC5/CapSense_1_IdacCH0.c **** *  (void)
 174:.\Generated_Source\PSoC5/CapSense_1_IdacCH0.c **** *
 175:.\Generated_Source\PSoC5/CapSense_1_IdacCH0.c **** * Return:
 176:.\Generated_Source\PSoC5/CapSense_1_IdacCH0.c **** *  (void)
 177:.\Generated_Source\PSoC5/CapSense_1_IdacCH0.c **** *
 178:.\Generated_Source\PSoC5/CapSense_1_IdacCH0.c **** * Theory:
 179:.\Generated_Source\PSoC5/CapSense_1_IdacCH0.c **** *
 180:.\Generated_Source\PSoC5/CapSense_1_IdacCH0.c **** * Side Effects:
 181:.\Generated_Source\PSoC5/CapSense_1_IdacCH0.c **** *
 182:.\Generated_Source\PSoC5/CapSense_1_IdacCH0.c **** *******************************************************************************/
 183:.\Generated_Source\PSoC5/CapSense_1_IdacCH0.c **** void CapSense_1_IdacCH0_Stop(void) 
 184:.\Generated_Source\PSoC5/CapSense_1_IdacCH0.c **** {
 184              		.loc 1 184 0
 185              		.cfi_startproc
 186              		@ args = 0, pretend = 0, frame = 0
 187              		@ frame_needed = 1, uses_anonymous_args = 0
 188              		@ link register save eliminated.
 189 0000 80B4     		push	{r7}
 190              		.cfi_def_cfa_offset 4
 191              		.cfi_offset 7, -4
 192 0002 00AF     		add	r7, sp, #0
 193              		.cfi_def_cfa_register 7
 185:.\Generated_Source\PSoC5/CapSense_1_IdacCH0.c ****     /* Disble power to DAC */
 186:.\Generated_Source\PSoC5/CapSense_1_IdacCH0.c ****     CapSense_1_IdacCH0_PWRMGR &= (uint8)(~CapSense_1_IdacCH0_ACT_PWR_EN);
 194              		.loc 1 186 0
 195 0004 094A     		ldr	r2, .L12
 196 0006 094B     		ldr	r3, .L12
 197 0008 1B78     		ldrb	r3, [r3]
 198 000a DBB2     		uxtb	r3, r3
 199 000c 23F00103 		bic	r3, r3, #1
 200 0010 DBB2     		uxtb	r3, r3
 201 0012 1370     		strb	r3, [r2]
 187:.\Generated_Source\PSoC5/CapSense_1_IdacCH0.c ****     CapSense_1_IdacCH0_STBY_PWRMGR &= (uint8)(~CapSense_1_IdacCH0_STBY_PWR_EN);
 202              		.loc 1 187 0
 203 0014 064A     		ldr	r2, .L12+4
 204 0016 064B     		ldr	r3, .L12+4
 205 0018 1B78     		ldrb	r3, [r3]
 206 001a DBB2     		uxtb	r3, r3
 207 001c 23F00103 		bic	r3, r3, #1
 208 0020 DBB2     		uxtb	r3, r3
 209 0022 1370     		strb	r3, [r2]
 188:.\Generated_Source\PSoC5/CapSense_1_IdacCH0.c ****     
 189:.\Generated_Source\PSoC5/CapSense_1_IdacCH0.c ****     #if (CY_PSOC5A)
 190:.\Generated_Source\PSoC5/CapSense_1_IdacCH0.c ****     
ARM GAS  C:\Users\LUKASC~1\AppData\Local\Temp\ccvZYSFu.s 			page 8


 191:.\Generated_Source\PSoC5/CapSense_1_IdacCH0.c ****         /* Set the global variable  */
 192:.\Generated_Source\PSoC5/CapSense_1_IdacCH0.c ****         CapSense_1_IdacCH0_restoreReg = 1u;
 193:.\Generated_Source\PSoC5/CapSense_1_IdacCH0.c **** 
 194:.\Generated_Source\PSoC5/CapSense_1_IdacCH0.c ****         /* Save the control register and then Clear it. */
 195:.\Generated_Source\PSoC5/CapSense_1_IdacCH0.c ****         CapSense_1_IdacCH0_lowPowerBackup.DACCR0Reg = CapSense_1_IdacCH0_CR0;
 196:.\Generated_Source\PSoC5/CapSense_1_IdacCH0.c ****         CapSense_1_IdacCH0_CR0 = (CapSense_1_IdacCH0_MODE_I | CapSense_1_IdacCH0_RANGE_3 | CapSense
 197:.\Generated_Source\PSoC5/CapSense_1_IdacCH0.c ****     #endif /* CY_PSOC5A */
 198:.\Generated_Source\PSoC5/CapSense_1_IdacCH0.c **** }
 210              		.loc 1 198 0
 211 0024 BD46     		mov	sp, r7
 212              		.cfi_def_cfa_register 13
 213              		@ sp needed
 214 0026 5DF8047B 		ldr	r7, [sp], #4
 215              		.cfi_restore 7
 216              		.cfi_def_cfa_offset 0
 217 002a 7047     		bx	lr
 218              	.L13:
 219              		.align	2
 220              	.L12:
 221 002c A8430040 		.word	1073759144
 222 0030 B8430040 		.word	1073759160
 223              		.cfi_endproc
 224              	.LFE3:
 225              		.size	CapSense_1_IdacCH0_Stop, .-CapSense_1_IdacCH0_Stop
 226              		.section	.text.CapSense_1_IdacCH0_SetSpeed,"ax",%progbits
 227              		.align	2
 228              		.global	CapSense_1_IdacCH0_SetSpeed
 229              		.thumb
 230              		.thumb_func
 231              		.type	CapSense_1_IdacCH0_SetSpeed, %function
 232              	CapSense_1_IdacCH0_SetSpeed:
 233              	.LFB4:
 199:.\Generated_Source\PSoC5/CapSense_1_IdacCH0.c **** 
 200:.\Generated_Source\PSoC5/CapSense_1_IdacCH0.c **** 
 201:.\Generated_Source\PSoC5/CapSense_1_IdacCH0.c **** /*******************************************************************************
 202:.\Generated_Source\PSoC5/CapSense_1_IdacCH0.c **** * Function Name: CapSense_1_IdacCH0_SetSpeed
 203:.\Generated_Source\PSoC5/CapSense_1_IdacCH0.c **** ********************************************************************************
 204:.\Generated_Source\PSoC5/CapSense_1_IdacCH0.c **** * Summary:
 205:.\Generated_Source\PSoC5/CapSense_1_IdacCH0.c **** *  Set DAC speed
 206:.\Generated_Source\PSoC5/CapSense_1_IdacCH0.c **** *
 207:.\Generated_Source\PSoC5/CapSense_1_IdacCH0.c **** * Parameters:
 208:.\Generated_Source\PSoC5/CapSense_1_IdacCH0.c **** *  power: Sets speed value
 209:.\Generated_Source\PSoC5/CapSense_1_IdacCH0.c **** *
 210:.\Generated_Source\PSoC5/CapSense_1_IdacCH0.c **** * Return:
 211:.\Generated_Source\PSoC5/CapSense_1_IdacCH0.c **** *  (void)
 212:.\Generated_Source\PSoC5/CapSense_1_IdacCH0.c **** *
 213:.\Generated_Source\PSoC5/CapSense_1_IdacCH0.c **** * Theory:
 214:.\Generated_Source\PSoC5/CapSense_1_IdacCH0.c **** *
 215:.\Generated_Source\PSoC5/CapSense_1_IdacCH0.c **** * Side Effects:
 216:.\Generated_Source\PSoC5/CapSense_1_IdacCH0.c **** *
 217:.\Generated_Source\PSoC5/CapSense_1_IdacCH0.c **** *******************************************************************************/
 218:.\Generated_Source\PSoC5/CapSense_1_IdacCH0.c **** void CapSense_1_IdacCH0_SetSpeed(uint8 speed) 
 219:.\Generated_Source\PSoC5/CapSense_1_IdacCH0.c **** {
 234              		.loc 1 219 0
 235              		.cfi_startproc
 236              		@ args = 0, pretend = 0, frame = 8
 237              		@ frame_needed = 1, uses_anonymous_args = 0
ARM GAS  C:\Users\LUKASC~1\AppData\Local\Temp\ccvZYSFu.s 			page 9


 238              		@ link register save eliminated.
 239 0000 80B4     		push	{r7}
 240              		.cfi_def_cfa_offset 4
 241              		.cfi_offset 7, -4
 242 0002 83B0     		sub	sp, sp, #12
 243              		.cfi_def_cfa_offset 16
 244 0004 00AF     		add	r7, sp, #0
 245              		.cfi_def_cfa_register 7
 246 0006 0346     		mov	r3, r0
 247 0008 FB71     		strb	r3, [r7, #7]
 220:.\Generated_Source\PSoC5/CapSense_1_IdacCH0.c ****     /* Clear power mask then write in new value */
 221:.\Generated_Source\PSoC5/CapSense_1_IdacCH0.c ****     CapSense_1_IdacCH0_CR0 &= (uint8)(~CapSense_1_IdacCH0_HS_MASK);
 248              		.loc 1 221 0
 249 000a 0C4A     		ldr	r2, .L15
 250 000c 0B4B     		ldr	r3, .L15
 251 000e 1B78     		ldrb	r3, [r3]
 252 0010 DBB2     		uxtb	r3, r3
 253 0012 23F00203 		bic	r3, r3, #2
 254 0016 DBB2     		uxtb	r3, r3
 255 0018 1370     		strb	r3, [r2]
 222:.\Generated_Source\PSoC5/CapSense_1_IdacCH0.c ****     CapSense_1_IdacCH0_CR0 |=  ( speed & CapSense_1_IdacCH0_HS_MASK);
 256              		.loc 1 222 0
 257 001a 0849     		ldr	r1, .L15
 258 001c 074B     		ldr	r3, .L15
 259 001e 1B78     		ldrb	r3, [r3]
 260 0020 DAB2     		uxtb	r2, r3
 261 0022 FB79     		ldrb	r3, [r7, #7]
 262 0024 03F00203 		and	r3, r3, #2
 263 0028 DBB2     		uxtb	r3, r3
 264 002a 1343     		orrs	r3, r3, r2
 265 002c DBB2     		uxtb	r3, r3
 266 002e 0B70     		strb	r3, [r1]
 223:.\Generated_Source\PSoC5/CapSense_1_IdacCH0.c **** }
 267              		.loc 1 223 0
 268 0030 0C37     		adds	r7, r7, #12
 269              		.cfi_def_cfa_offset 4
 270 0032 BD46     		mov	sp, r7
 271              		.cfi_def_cfa_register 13
 272              		@ sp needed
 273 0034 5DF8047B 		ldr	r7, [sp], #4
 274              		.cfi_restore 7
 275              		.cfi_def_cfa_offset 0
 276 0038 7047     		bx	lr
 277              	.L16:
 278 003a 00BF     		.align	2
 279              	.L15:
 280 003c 20580040 		.word	1073764384
 281              		.cfi_endproc
 282              	.LFE4:
 283              		.size	CapSense_1_IdacCH0_SetSpeed, .-CapSense_1_IdacCH0_SetSpeed
 284              		.section	.text.CapSense_1_IdacCH0_SetPolarity,"ax",%progbits
 285              		.align	2
 286              		.global	CapSense_1_IdacCH0_SetPolarity
 287              		.thumb
 288              		.thumb_func
 289              		.type	CapSense_1_IdacCH0_SetPolarity, %function
 290              	CapSense_1_IdacCH0_SetPolarity:
ARM GAS  C:\Users\LUKASC~1\AppData\Local\Temp\ccvZYSFu.s 			page 10


 291              	.LFB5:
 224:.\Generated_Source\PSoC5/CapSense_1_IdacCH0.c **** 
 225:.\Generated_Source\PSoC5/CapSense_1_IdacCH0.c **** 
 226:.\Generated_Source\PSoC5/CapSense_1_IdacCH0.c **** /*******************************************************************************
 227:.\Generated_Source\PSoC5/CapSense_1_IdacCH0.c **** * Function Name: CapSense_1_IdacCH0_SetPolarity
 228:.\Generated_Source\PSoC5/CapSense_1_IdacCH0.c **** ********************************************************************************
 229:.\Generated_Source\PSoC5/CapSense_1_IdacCH0.c **** * Summary:
 230:.\Generated_Source\PSoC5/CapSense_1_IdacCH0.c **** *  Sets IDAC to Sink or Source current.
 231:.\Generated_Source\PSoC5/CapSense_1_IdacCH0.c **** *  
 232:.\Generated_Source\PSoC5/CapSense_1_IdacCH0.c **** * Parameters:
 233:.\Generated_Source\PSoC5/CapSense_1_IdacCH0.c **** *  Polarity: Sets the IDAC to Sink or Source 
 234:.\Generated_Source\PSoC5/CapSense_1_IdacCH0.c **** *  0x00 - Source
 235:.\Generated_Source\PSoC5/CapSense_1_IdacCH0.c **** *  0x04 - Sink
 236:.\Generated_Source\PSoC5/CapSense_1_IdacCH0.c **** *
 237:.\Generated_Source\PSoC5/CapSense_1_IdacCH0.c **** * Return:
 238:.\Generated_Source\PSoC5/CapSense_1_IdacCH0.c **** *  (void)
 239:.\Generated_Source\PSoC5/CapSense_1_IdacCH0.c **** *
 240:.\Generated_Source\PSoC5/CapSense_1_IdacCH0.c **** * Theory:
 241:.\Generated_Source\PSoC5/CapSense_1_IdacCH0.c **** *
 242:.\Generated_Source\PSoC5/CapSense_1_IdacCH0.c **** * Side Effects:
 243:.\Generated_Source\PSoC5/CapSense_1_IdacCH0.c **** *
 244:.\Generated_Source\PSoC5/CapSense_1_IdacCH0.c **** *******************************************************************************/
 245:.\Generated_Source\PSoC5/CapSense_1_IdacCH0.c **** #if(CapSense_1_IdacCH0_DEFAULT_POLARITY != CapSense_1_IdacCH0_HARDWARE_CONTROLLED)
 246:.\Generated_Source\PSoC5/CapSense_1_IdacCH0.c ****     void CapSense_1_IdacCH0_SetPolarity(uint8 polarity) 
 247:.\Generated_Source\PSoC5/CapSense_1_IdacCH0.c ****     {
 292              		.loc 1 247 0
 293              		.cfi_startproc
 294              		@ args = 0, pretend = 0, frame = 8
 295              		@ frame_needed = 1, uses_anonymous_args = 0
 296 0000 80B5     		push	{r7, lr}
 297              		.cfi_def_cfa_offset 8
 298              		.cfi_offset 7, -8
 299              		.cfi_offset 14, -4
 300 0002 82B0     		sub	sp, sp, #8
 301              		.cfi_def_cfa_offset 16
 302 0004 00AF     		add	r7, sp, #0
 303              		.cfi_def_cfa_register 7
 304 0006 0346     		mov	r3, r0
 305 0008 FB71     		strb	r3, [r7, #7]
 248:.\Generated_Source\PSoC5/CapSense_1_IdacCH0.c ****         CapSense_1_IdacCH0_CR1 &= (uint8)(~CapSense_1_IdacCH0_IDIR_MASK);                /* clear p
 306              		.loc 1 248 0
 307 000a 0C4A     		ldr	r2, .L18
 308 000c 0B4B     		ldr	r3, .L18
 309 000e 1B78     		ldrb	r3, [r3]
 310 0010 DBB2     		uxtb	r3, r3
 311 0012 23F00403 		bic	r3, r3, #4
 312 0016 DBB2     		uxtb	r3, r3
 313 0018 1370     		strb	r3, [r2]
 249:.\Generated_Source\PSoC5/CapSense_1_IdacCH0.c ****         CapSense_1_IdacCH0_CR1 |= (polarity & CapSense_1_IdacCH0_IDIR_MASK);             /* set new
 314              		.loc 1 249 0
 315 001a 0849     		ldr	r1, .L18
 316 001c 074B     		ldr	r3, .L18
 317 001e 1B78     		ldrb	r3, [r3]
 318 0020 DAB2     		uxtb	r2, r3
 319 0022 FB79     		ldrb	r3, [r7, #7]
 320 0024 03F00403 		and	r3, r3, #4
 321 0028 DBB2     		uxtb	r3, r3
ARM GAS  C:\Users\LUKASC~1\AppData\Local\Temp\ccvZYSFu.s 			page 11


 322 002a 1343     		orrs	r3, r3, r2
 323 002c DBB2     		uxtb	r3, r3
 324 002e 0B70     		strb	r3, [r1]
 250:.\Generated_Source\PSoC5/CapSense_1_IdacCH0.c ****     
 251:.\Generated_Source\PSoC5/CapSense_1_IdacCH0.c ****         CapSense_1_IdacCH0_DacTrim();
 325              		.loc 1 251 0
 326 0030 FFF7FEFF 		bl	CapSense_1_IdacCH0_DacTrim
 252:.\Generated_Source\PSoC5/CapSense_1_IdacCH0.c ****     }
 327              		.loc 1 252 0
 328 0034 0837     		adds	r7, r7, #8
 329              		.cfi_def_cfa_offset 8
 330 0036 BD46     		mov	sp, r7
 331              		.cfi_def_cfa_register 13
 332              		@ sp needed
 333 0038 80BD     		pop	{r7, pc}
 334              	.L19:
 335 003a 00BF     		.align	2
 336              	.L18:
 337 003c 21580040 		.word	1073764385
 338              		.cfi_endproc
 339              	.LFE5:
 340              		.size	CapSense_1_IdacCH0_SetPolarity, .-CapSense_1_IdacCH0_SetPolarity
 341              		.section	.text.CapSense_1_IdacCH0_SetRange,"ax",%progbits
 342              		.align	2
 343              		.global	CapSense_1_IdacCH0_SetRange
 344              		.thumb
 345              		.thumb_func
 346              		.type	CapSense_1_IdacCH0_SetRange, %function
 347              	CapSense_1_IdacCH0_SetRange:
 348              	.LFB6:
 253:.\Generated_Source\PSoC5/CapSense_1_IdacCH0.c **** #endif/*(CapSense_1_IdacCH0_DEFAULT_POLARITY != CapSense_1_IdacCH0_HARDWARE_CONTROLLED)*/
 254:.\Generated_Source\PSoC5/CapSense_1_IdacCH0.c **** 
 255:.\Generated_Source\PSoC5/CapSense_1_IdacCH0.c **** 
 256:.\Generated_Source\PSoC5/CapSense_1_IdacCH0.c **** /*******************************************************************************
 257:.\Generated_Source\PSoC5/CapSense_1_IdacCH0.c **** * Function Name: CapSense_1_IdacCH0_SetRange
 258:.\Generated_Source\PSoC5/CapSense_1_IdacCH0.c **** ********************************************************************************
 259:.\Generated_Source\PSoC5/CapSense_1_IdacCH0.c **** * Summary:
 260:.\Generated_Source\PSoC5/CapSense_1_IdacCH0.c **** *  Set current range
 261:.\Generated_Source\PSoC5/CapSense_1_IdacCH0.c **** *
 262:.\Generated_Source\PSoC5/CapSense_1_IdacCH0.c **** * Parameters:
 263:.\Generated_Source\PSoC5/CapSense_1_IdacCH0.c **** *  Range: Sets on of four valid ranges.
 264:.\Generated_Source\PSoC5/CapSense_1_IdacCH0.c **** *
 265:.\Generated_Source\PSoC5/CapSense_1_IdacCH0.c **** * Return:
 266:.\Generated_Source\PSoC5/CapSense_1_IdacCH0.c **** *  (void)
 267:.\Generated_Source\PSoC5/CapSense_1_IdacCH0.c **** *
 268:.\Generated_Source\PSoC5/CapSense_1_IdacCH0.c **** * Theory:
 269:.\Generated_Source\PSoC5/CapSense_1_IdacCH0.c **** *
 270:.\Generated_Source\PSoC5/CapSense_1_IdacCH0.c **** * Side Effects:
 271:.\Generated_Source\PSoC5/CapSense_1_IdacCH0.c **** *
 272:.\Generated_Source\PSoC5/CapSense_1_IdacCH0.c **** *******************************************************************************/
 273:.\Generated_Source\PSoC5/CapSense_1_IdacCH0.c **** void CapSense_1_IdacCH0_SetRange(uint8 range) 
 274:.\Generated_Source\PSoC5/CapSense_1_IdacCH0.c **** {
 349              		.loc 1 274 0
 350              		.cfi_startproc
 351              		@ args = 0, pretend = 0, frame = 8
 352              		@ frame_needed = 1, uses_anonymous_args = 0
 353 0000 80B5     		push	{r7, lr}
ARM GAS  C:\Users\LUKASC~1\AppData\Local\Temp\ccvZYSFu.s 			page 12


 354              		.cfi_def_cfa_offset 8
 355              		.cfi_offset 7, -8
 356              		.cfi_offset 14, -4
 357 0002 82B0     		sub	sp, sp, #8
 358              		.cfi_def_cfa_offset 16
 359 0004 00AF     		add	r7, sp, #0
 360              		.cfi_def_cfa_register 7
 361 0006 0346     		mov	r3, r0
 362 0008 FB71     		strb	r3, [r7, #7]
 275:.\Generated_Source\PSoC5/CapSense_1_IdacCH0.c ****     CapSense_1_IdacCH0_CR0 &= (uint8)(~CapSense_1_IdacCH0_RANGE_MASK);       /* Clear existing mode
 363              		.loc 1 275 0
 364 000a 0C4A     		ldr	r2, .L21
 365 000c 0B4B     		ldr	r3, .L21
 366 000e 1B78     		ldrb	r3, [r3]
 367 0010 DBB2     		uxtb	r3, r3
 368 0012 23F00C03 		bic	r3, r3, #12
 369 0016 DBB2     		uxtb	r3, r3
 370 0018 1370     		strb	r3, [r2]
 276:.\Generated_Source\PSoC5/CapSense_1_IdacCH0.c ****     CapSense_1_IdacCH0_CR0 |= ( range & CapSense_1_IdacCH0_RANGE_MASK );     /*  Set Range  */
 371              		.loc 1 276 0
 372 001a 0849     		ldr	r1, .L21
 373 001c 074B     		ldr	r3, .L21
 374 001e 1B78     		ldrb	r3, [r3]
 375 0020 DAB2     		uxtb	r2, r3
 376 0022 FB79     		ldrb	r3, [r7, #7]
 377 0024 03F00C03 		and	r3, r3, #12
 378 0028 DBB2     		uxtb	r3, r3
 379 002a 1343     		orrs	r3, r3, r2
 380 002c DBB2     		uxtb	r3, r3
 381 002e 0B70     		strb	r3, [r1]
 277:.\Generated_Source\PSoC5/CapSense_1_IdacCH0.c ****     CapSense_1_IdacCH0_DacTrim();
 382              		.loc 1 277 0
 383 0030 FFF7FEFF 		bl	CapSense_1_IdacCH0_DacTrim
 278:.\Generated_Source\PSoC5/CapSense_1_IdacCH0.c **** }
 384              		.loc 1 278 0
 385 0034 0837     		adds	r7, r7, #8
 386              		.cfi_def_cfa_offset 8
 387 0036 BD46     		mov	sp, r7
 388              		.cfi_def_cfa_register 13
 389              		@ sp needed
 390 0038 80BD     		pop	{r7, pc}
 391              	.L22:
 392 003a 00BF     		.align	2
 393              	.L21:
 394 003c 20580040 		.word	1073764384
 395              		.cfi_endproc
 396              	.LFE6:
 397              		.size	CapSense_1_IdacCH0_SetRange, .-CapSense_1_IdacCH0_SetRange
 398              		.section	.text.CapSense_1_IdacCH0_SetValue,"ax",%progbits
 399              		.align	2
 400              		.global	CapSense_1_IdacCH0_SetValue
 401              		.thumb
 402              		.thumb_func
 403              		.type	CapSense_1_IdacCH0_SetValue, %function
 404              	CapSense_1_IdacCH0_SetValue:
 405              	.LFB7:
 279:.\Generated_Source\PSoC5/CapSense_1_IdacCH0.c **** 
ARM GAS  C:\Users\LUKASC~1\AppData\Local\Temp\ccvZYSFu.s 			page 13


 280:.\Generated_Source\PSoC5/CapSense_1_IdacCH0.c **** 
 281:.\Generated_Source\PSoC5/CapSense_1_IdacCH0.c **** /*******************************************************************************
 282:.\Generated_Source\PSoC5/CapSense_1_IdacCH0.c **** * Function Name: CapSense_1_IdacCH0_SetValue
 283:.\Generated_Source\PSoC5/CapSense_1_IdacCH0.c **** ********************************************************************************
 284:.\Generated_Source\PSoC5/CapSense_1_IdacCH0.c **** * Summary:
 285:.\Generated_Source\PSoC5/CapSense_1_IdacCH0.c **** *  Set DAC value
 286:.\Generated_Source\PSoC5/CapSense_1_IdacCH0.c **** *
 287:.\Generated_Source\PSoC5/CapSense_1_IdacCH0.c **** * Parameters:
 288:.\Generated_Source\PSoC5/CapSense_1_IdacCH0.c **** *  value: Sets DAC value between 0 and 255.
 289:.\Generated_Source\PSoC5/CapSense_1_IdacCH0.c **** *
 290:.\Generated_Source\PSoC5/CapSense_1_IdacCH0.c **** * Return:
 291:.\Generated_Source\PSoC5/CapSense_1_IdacCH0.c **** *  (void)
 292:.\Generated_Source\PSoC5/CapSense_1_IdacCH0.c **** *
 293:.\Generated_Source\PSoC5/CapSense_1_IdacCH0.c **** * Theory:
 294:.\Generated_Source\PSoC5/CapSense_1_IdacCH0.c **** *
 295:.\Generated_Source\PSoC5/CapSense_1_IdacCH0.c **** * Side Effects:
 296:.\Generated_Source\PSoC5/CapSense_1_IdacCH0.c **** *
 297:.\Generated_Source\PSoC5/CapSense_1_IdacCH0.c **** *******************************************************************************/
 298:.\Generated_Source\PSoC5/CapSense_1_IdacCH0.c **** void CapSense_1_IdacCH0_SetValue(uint8 value) 
 299:.\Generated_Source\PSoC5/CapSense_1_IdacCH0.c **** {
 406              		.loc 1 299 0
 407              		.cfi_startproc
 408              		@ args = 0, pretend = 0, frame = 8
 409              		@ frame_needed = 1, uses_anonymous_args = 0
 410              		@ link register save eliminated.
 411 0000 80B4     		push	{r7}
 412              		.cfi_def_cfa_offset 4
 413              		.cfi_offset 7, -4
 414 0002 83B0     		sub	sp, sp, #12
 415              		.cfi_def_cfa_offset 16
 416 0004 00AF     		add	r7, sp, #0
 417              		.cfi_def_cfa_register 7
 418 0006 0346     		mov	r3, r0
 419 0008 FB71     		strb	r3, [r7, #7]
 300:.\Generated_Source\PSoC5/CapSense_1_IdacCH0.c **** 
 301:.\Generated_Source\PSoC5/CapSense_1_IdacCH0.c ****     #if (CY_PSOC5A)
 302:.\Generated_Source\PSoC5/CapSense_1_IdacCH0.c ****         uint8 CapSense_1_IdacCH0_intrStatus = CyEnterCriticalSection();
 303:.\Generated_Source\PSoC5/CapSense_1_IdacCH0.c ****     #endif /* CY_PSOC5A */
 304:.\Generated_Source\PSoC5/CapSense_1_IdacCH0.c **** 
 305:.\Generated_Source\PSoC5/CapSense_1_IdacCH0.c ****     CapSense_1_IdacCH0_Data = value;         /*  Set Value  */
 420              		.loc 1 305 0
 421 000a 044A     		ldr	r2, .L24
 422 000c FB79     		ldrb	r3, [r7, #7]
 423 000e 1370     		strb	r3, [r2]
 306:.\Generated_Source\PSoC5/CapSense_1_IdacCH0.c ****     
 307:.\Generated_Source\PSoC5/CapSense_1_IdacCH0.c ****     /* PSOC5A silicons require a double write */
 308:.\Generated_Source\PSoC5/CapSense_1_IdacCH0.c ****     #if (CY_PSOC5A)
 309:.\Generated_Source\PSoC5/CapSense_1_IdacCH0.c ****         CapSense_1_IdacCH0_Data = value;
 310:.\Generated_Source\PSoC5/CapSense_1_IdacCH0.c ****         CyExitCriticalSection(CapSense_1_IdacCH0_intrStatus);
 311:.\Generated_Source\PSoC5/CapSense_1_IdacCH0.c ****     #endif /* CY_PSOC5A */
 312:.\Generated_Source\PSoC5/CapSense_1_IdacCH0.c **** }
 424              		.loc 1 312 0
 425 0010 0C37     		adds	r7, r7, #12
 426              		.cfi_def_cfa_offset 4
 427 0012 BD46     		mov	sp, r7
 428              		.cfi_def_cfa_register 13
 429              		@ sp needed
ARM GAS  C:\Users\LUKASC~1\AppData\Local\Temp\ccvZYSFu.s 			page 14


 430 0014 5DF8047B 		ldr	r7, [sp], #4
 431              		.cfi_restore 7
 432              		.cfi_def_cfa_offset 0
 433 0018 7047     		bx	lr
 434              	.L25:
 435 001a 00BF     		.align	2
 436              	.L24:
 437 001c 805B0040 		.word	1073765248
 438              		.cfi_endproc
 439              	.LFE7:
 440              		.size	CapSense_1_IdacCH0_SetValue, .-CapSense_1_IdacCH0_SetValue
 441              		.section	.text.CapSense_1_IdacCH0_DacTrim,"ax",%progbits
 442              		.align	2
 443              		.global	CapSense_1_IdacCH0_DacTrim
 444              		.thumb
 445              		.thumb_func
 446              		.type	CapSense_1_IdacCH0_DacTrim, %function
 447              	CapSense_1_IdacCH0_DacTrim:
 448              	.LFB8:
 313:.\Generated_Source\PSoC5/CapSense_1_IdacCH0.c **** 
 314:.\Generated_Source\PSoC5/CapSense_1_IdacCH0.c **** 
 315:.\Generated_Source\PSoC5/CapSense_1_IdacCH0.c **** /*******************************************************************************
 316:.\Generated_Source\PSoC5/CapSense_1_IdacCH0.c **** * Function Name: CapSense_1_IdacCH0_DacTrim
 317:.\Generated_Source\PSoC5/CapSense_1_IdacCH0.c **** ********************************************************************************
 318:.\Generated_Source\PSoC5/CapSense_1_IdacCH0.c **** * Summary:
 319:.\Generated_Source\PSoC5/CapSense_1_IdacCH0.c **** *  Set the trim value for the given range.
 320:.\Generated_Source\PSoC5/CapSense_1_IdacCH0.c **** *
 321:.\Generated_Source\PSoC5/CapSense_1_IdacCH0.c **** * Parameters:
 322:.\Generated_Source\PSoC5/CapSense_1_IdacCH0.c **** *  None
 323:.\Generated_Source\PSoC5/CapSense_1_IdacCH0.c **** *
 324:.\Generated_Source\PSoC5/CapSense_1_IdacCH0.c **** * Return:
 325:.\Generated_Source\PSoC5/CapSense_1_IdacCH0.c **** *  (void) 
 326:.\Generated_Source\PSoC5/CapSense_1_IdacCH0.c **** *
 327:.\Generated_Source\PSoC5/CapSense_1_IdacCH0.c **** * Theory:
 328:.\Generated_Source\PSoC5/CapSense_1_IdacCH0.c **** *  Trim values for the IDAC blocks are stored in the "Customer Table" area in 
 329:.\Generated_Source\PSoC5/CapSense_1_IdacCH0.c **** *  Row 1 of the Hidden Flash.  There are 8 bytes of trim data for each 
 330:.\Generated_Source\PSoC5/CapSense_1_IdacCH0.c **** *  IDAC block.
 331:.\Generated_Source\PSoC5/CapSense_1_IdacCH0.c **** *  The values are:
 332:.\Generated_Source\PSoC5/CapSense_1_IdacCH0.c **** *       I Gain offset, min range, Sourcing
 333:.\Generated_Source\PSoC5/CapSense_1_IdacCH0.c **** *       I Gain offset, min range, Sinking
 334:.\Generated_Source\PSoC5/CapSense_1_IdacCH0.c **** *       I Gain offset, med range, Sourcing
 335:.\Generated_Source\PSoC5/CapSense_1_IdacCH0.c **** *       I Gain offset, med range, Sinking
 336:.\Generated_Source\PSoC5/CapSense_1_IdacCH0.c **** *       I Gain offset, max range, Sourcing
 337:.\Generated_Source\PSoC5/CapSense_1_IdacCH0.c **** *       I Gain offset, max range, Sinking
 338:.\Generated_Source\PSoC5/CapSense_1_IdacCH0.c **** *       V Gain offset, 1V range
 339:.\Generated_Source\PSoC5/CapSense_1_IdacCH0.c **** *       V Gain offset, 4V range
 340:.\Generated_Source\PSoC5/CapSense_1_IdacCH0.c **** *
 341:.\Generated_Source\PSoC5/CapSense_1_IdacCH0.c **** * Side Effects:
 342:.\Generated_Source\PSoC5/CapSense_1_IdacCH0.c **** *
 343:.\Generated_Source\PSoC5/CapSense_1_IdacCH0.c **** *******************************************************************************/
 344:.\Generated_Source\PSoC5/CapSense_1_IdacCH0.c **** void CapSense_1_IdacCH0_DacTrim(void) 
 345:.\Generated_Source\PSoC5/CapSense_1_IdacCH0.c **** {
 449              		.loc 1 345 0
 450              		.cfi_startproc
 451              		@ args = 0, pretend = 0, frame = 8
 452              		@ frame_needed = 1, uses_anonymous_args = 0
 453              		@ link register save eliminated.
ARM GAS  C:\Users\LUKASC~1\AppData\Local\Temp\ccvZYSFu.s 			page 15


 454 0000 80B4     		push	{r7}
 455              		.cfi_def_cfa_offset 4
 456              		.cfi_offset 7, -4
 457 0002 83B0     		sub	sp, sp, #12
 458              		.cfi_def_cfa_offset 16
 459 0004 00AF     		add	r7, sp, #0
 460              		.cfi_def_cfa_register 7
 346:.\Generated_Source\PSoC5/CapSense_1_IdacCH0.c ****     uint8 mode;
 347:.\Generated_Source\PSoC5/CapSense_1_IdacCH0.c **** 
 348:.\Generated_Source\PSoC5/CapSense_1_IdacCH0.c ****     mode = ((CapSense_1_IdacCH0_CR0 & CapSense_1_IdacCH0_RANGE_MASK) >> 1u);
 461              		.loc 1 348 0
 462 0006 104B     		ldr	r3, .L28
 463 0008 1B78     		ldrb	r3, [r3]
 464 000a DBB2     		uxtb	r3, r3
 465 000c 03F00C03 		and	r3, r3, #12
 466 0010 5B08     		lsrs	r3, r3, #1
 467 0012 FB71     		strb	r3, [r7, #7]
 349:.\Generated_Source\PSoC5/CapSense_1_IdacCH0.c ****     
 350:.\Generated_Source\PSoC5/CapSense_1_IdacCH0.c ****     if((CapSense_1_IdacCH0_IDIR_MASK & CapSense_1_IdacCH0_CR1) == CapSense_1_IdacCH0_IDIR_SINK)
 468              		.loc 1 350 0
 469 0014 0D4B     		ldr	r3, .L28+4
 470 0016 1B78     		ldrb	r3, [r3]
 471 0018 DBB2     		uxtb	r3, r3
 472 001a 03F00403 		and	r3, r3, #4
 473 001e DBB2     		uxtb	r3, r3
 474 0020 002B     		cmp	r3, #0
 475 0022 02D0     		beq	.L27
 351:.\Generated_Source\PSoC5/CapSense_1_IdacCH0.c ****     {
 352:.\Generated_Source\PSoC5/CapSense_1_IdacCH0.c ****         mode++;
 476              		.loc 1 352 0
 477 0024 FB79     		ldrb	r3, [r7, #7]	@ zero_extendqisi2
 478 0026 0133     		adds	r3, r3, #1
 479 0028 FB71     		strb	r3, [r7, #7]
 480              	.L27:
 353:.\Generated_Source\PSoC5/CapSense_1_IdacCH0.c ****     }
 354:.\Generated_Source\PSoC5/CapSense_1_IdacCH0.c **** 
 355:.\Generated_Source\PSoC5/CapSense_1_IdacCH0.c ****     CapSense_1_IdacCH0_TR = CY_GET_XTND_REG8((uint8 *)(CapSense_1_IdacCH0_DAC_TRIM_BASE + mode));
 481              		.loc 1 355 0
 482 002a 094A     		ldr	r2, .L28+8
 483 002c FB79     		ldrb	r3, [r7, #7]	@ zero_extendqisi2
 484 002e 03F19243 		add	r3, r3, #1224736768
 485 0032 03F59073 		add	r3, r3, #288
 486 0036 1B78     		ldrb	r3, [r3]
 487 0038 DBB2     		uxtb	r3, r3
 488 003a 1370     		strb	r3, [r2]
 356:.\Generated_Source\PSoC5/CapSense_1_IdacCH0.c **** }
 489              		.loc 1 356 0
 490 003c 0C37     		adds	r7, r7, #12
 491              		.cfi_def_cfa_offset 4
 492 003e BD46     		mov	sp, r7
 493              		.cfi_def_cfa_register 13
 494              		@ sp needed
 495 0040 5DF8047B 		ldr	r7, [sp], #4
 496              		.cfi_restore 7
 497              		.cfi_def_cfa_offset 0
 498 0044 7047     		bx	lr
 499              	.L29:
ARM GAS  C:\Users\LUKASC~1\AppData\Local\Temp\ccvZYSFu.s 			page 16


 500 0046 00BF     		.align	2
 501              	.L28:
 502 0048 20580040 		.word	1073764384
 503 004c 21580040 		.word	1073764385
 504 0050 08460040 		.word	1073759752
 505              		.cfi_endproc
 506              	.LFE8:
 507              		.size	CapSense_1_IdacCH0_DacTrim, .-CapSense_1_IdacCH0_DacTrim
 508              		.text
 509              	.Letext0:
 510              		.file 2 ".\\Generated_Source\\PSoC5\\cytypes.h"