ARM GAS  C:\Users\LUKASC~1\AppData\Local\Temp\ccr6U7F6.s 			page 1


   1              		.syntax unified
   2              		.cpu cortex-m3
   3              		.fpu softvfp
   4              		.eabi_attribute 20, 1
   5              		.eabi_attribute 21, 1
   6              		.eabi_attribute 23, 3
   7              		.eabi_attribute 24, 1
   8              		.eabi_attribute 25, 1
   9              		.eabi_attribute 26, 1
  10              		.eabi_attribute 30, 6
  11              		.eabi_attribute 34, 1
  12              		.eabi_attribute 18, 4
  13              		.thumb
  14              		.file	"cyfitter_cfg.c"
  15              		.text
  16              	.Ltext0:
  17              		.cfi_sections	.debug_frame
  18              		.section	.text.CYMEMZERO,"ax",%progbits
  19              		.align	2
  20              		.thumb
  21              		.thumb_func
  22              		.type	CYMEMZERO, %function
  23              	CYMEMZERO:
  24              	.LFB0:
  25              		.file 1 ".\\Generated_Source\\PSoC5\\cyfitter_cfg.c"
   1:.\Generated_Source\PSoC5/cyfitter_cfg.c **** /*******************************************************************************
   2:.\Generated_Source\PSoC5/cyfitter_cfg.c **** * File Name: cyfitter_cfg.c
   3:.\Generated_Source\PSoC5/cyfitter_cfg.c **** * 
   4:.\Generated_Source\PSoC5/cyfitter_cfg.c **** * PSoC Creator  3.3 SP2
   5:.\Generated_Source\PSoC5/cyfitter_cfg.c **** *
   6:.\Generated_Source\PSoC5/cyfitter_cfg.c **** * Description:
   7:.\Generated_Source\PSoC5/cyfitter_cfg.c **** * This file contains device initialization code.
   8:.\Generated_Source\PSoC5/cyfitter_cfg.c **** * Except for the user defined sections in CyClockStartupError(), this file should not be modified.
   9:.\Generated_Source\PSoC5/cyfitter_cfg.c **** * This file is automatically generated by PSoC Creator.
  10:.\Generated_Source\PSoC5/cyfitter_cfg.c **** *
  11:.\Generated_Source\PSoC5/cyfitter_cfg.c **** ********************************************************************************
  12:.\Generated_Source\PSoC5/cyfitter_cfg.c **** * Copyright (c) 2007-2016 Cypress Semiconductor.  All rights reserved.
  13:.\Generated_Source\PSoC5/cyfitter_cfg.c **** * You may use this file only in accordance with the license, terms, conditions, 
  14:.\Generated_Source\PSoC5/cyfitter_cfg.c **** * disclaimers, and limitations in the end user license agreement accompanying 
  15:.\Generated_Source\PSoC5/cyfitter_cfg.c **** * the software package with which this file was provided.
  16:.\Generated_Source\PSoC5/cyfitter_cfg.c **** ********************************************************************************/
  17:.\Generated_Source\PSoC5/cyfitter_cfg.c **** 
  18:.\Generated_Source\PSoC5/cyfitter_cfg.c **** #include <string.h>
  19:.\Generated_Source\PSoC5/cyfitter_cfg.c **** #include "cytypes.h"
  20:.\Generated_Source\PSoC5/cyfitter_cfg.c **** #include "cydevice_trm.h"
  21:.\Generated_Source\PSoC5/cyfitter_cfg.c **** #include "cyfitter.h"
  22:.\Generated_Source\PSoC5/cyfitter_cfg.c **** #include "CyLib.h"
  23:.\Generated_Source\PSoC5/cyfitter_cfg.c **** #include "cyfitter_cfg.h"
  24:.\Generated_Source\PSoC5/cyfitter_cfg.c **** 
  25:.\Generated_Source\PSoC5/cyfitter_cfg.c **** #define CY_NEED_CYCLOCKSTARTUPERROR 1
  26:.\Generated_Source\PSoC5/cyfitter_cfg.c **** 
  27:.\Generated_Source\PSoC5/cyfitter_cfg.c **** 
  28:.\Generated_Source\PSoC5/cyfitter_cfg.c **** #if defined(__GNUC__) || defined(__ARMCC_VERSION)
  29:.\Generated_Source\PSoC5/cyfitter_cfg.c ****     #define CYPACKED 
  30:.\Generated_Source\PSoC5/cyfitter_cfg.c ****     #define CYPACKED_ATTR __attribute__ ((packed))
  31:.\Generated_Source\PSoC5/cyfitter_cfg.c ****     #define CYALIGNED __attribute__ ((aligned))
  32:.\Generated_Source\PSoC5/cyfitter_cfg.c ****     #define CY_CFG_UNUSED __attribute__ ((unused))
ARM GAS  C:\Users\LUKASC~1\AppData\Local\Temp\ccr6U7F6.s 			page 2


  33:.\Generated_Source\PSoC5/cyfitter_cfg.c ****     #ifndef CY_CFG_SECTION
  34:.\Generated_Source\PSoC5/cyfitter_cfg.c ****         #define CY_CFG_SECTION __attribute__ ((section(".psocinit")))
  35:.\Generated_Source\PSoC5/cyfitter_cfg.c ****     #endif
  36:.\Generated_Source\PSoC5/cyfitter_cfg.c ****     
  37:.\Generated_Source\PSoC5/cyfitter_cfg.c ****     #if CYDEV_CONFIGURATION_DMA
  38:.\Generated_Source\PSoC5/cyfitter_cfg.c ****         #if (defined(__ARMCC_VERSION) || defined(__GNUC__))
  39:.\Generated_Source\PSoC5/cyfitter_cfg.c ****             #ifndef DMAINITSEC
  40:.\Generated_Source\PSoC5/cyfitter_cfg.c ****                 #define DMAINITSEC __attribute__ ((section(".dma_init")))
  41:.\Generated_Source\PSoC5/cyfitter_cfg.c ****             #endif
  42:.\Generated_Source\PSoC5/cyfitter_cfg.c ****         #elif defined(__ICCARM__)
  43:.\Generated_Source\PSoC5/cyfitter_cfg.c ****             #define DMAINITSEC _Pragma("location=\".dma_init\"")
  44:.\Generated_Source\PSoC5/cyfitter_cfg.c ****         #endif
  45:.\Generated_Source\PSoC5/cyfitter_cfg.c ****     #else
  46:.\Generated_Source\PSoC5/cyfitter_cfg.c ****         #define DMAINITSEC
  47:.\Generated_Source\PSoC5/cyfitter_cfg.c ****     #endif
  48:.\Generated_Source\PSoC5/cyfitter_cfg.c **** 
  49:.\Generated_Source\PSoC5/cyfitter_cfg.c ****     #if defined(__ARMCC_VERSION)
  50:.\Generated_Source\PSoC5/cyfitter_cfg.c ****         #define CY_CFG_MEMORY_BARRIER() __memory_changed()
  51:.\Generated_Source\PSoC5/cyfitter_cfg.c ****     #else
  52:.\Generated_Source\PSoC5/cyfitter_cfg.c ****         #define CY_CFG_MEMORY_BARRIER() __sync_synchronize()
  53:.\Generated_Source\PSoC5/cyfitter_cfg.c ****     #endif
  54:.\Generated_Source\PSoC5/cyfitter_cfg.c ****     
  55:.\Generated_Source\PSoC5/cyfitter_cfg.c **** #elif defined(__ICCARM__)
  56:.\Generated_Source\PSoC5/cyfitter_cfg.c ****     #include <intrinsics.h>
  57:.\Generated_Source\PSoC5/cyfitter_cfg.c **** 
  58:.\Generated_Source\PSoC5/cyfitter_cfg.c ****     #define CYPACKED __packed
  59:.\Generated_Source\PSoC5/cyfitter_cfg.c ****     #define CYPACKED_ATTR 
  60:.\Generated_Source\PSoC5/cyfitter_cfg.c ****     #define CYALIGNED _Pragma("data_alignment=4")
  61:.\Generated_Source\PSoC5/cyfitter_cfg.c ****     #define CY_CFG_UNUSED _Pragma("diag_suppress=Pe177")
  62:.\Generated_Source\PSoC5/cyfitter_cfg.c ****     #define CY_CFG_SECTION _Pragma("location=\".psocinit\"")
  63:.\Generated_Source\PSoC5/cyfitter_cfg.c ****     
  64:.\Generated_Source\PSoC5/cyfitter_cfg.c ****     #if CYDEV_CONFIGURATION_DMA
  65:.\Generated_Source\PSoC5/cyfitter_cfg.c ****         #if (defined(__ARMCC_VERSION) || defined(__GNUC__))
  66:.\Generated_Source\PSoC5/cyfitter_cfg.c ****             #ifndef DMAINITSEC
  67:.\Generated_Source\PSoC5/cyfitter_cfg.c ****                 #define DMAINITSEC __attribute__ ((section(".dma_init")))
  68:.\Generated_Source\PSoC5/cyfitter_cfg.c ****             #endif
  69:.\Generated_Source\PSoC5/cyfitter_cfg.c ****         #elif defined(__ICCARM__)
  70:.\Generated_Source\PSoC5/cyfitter_cfg.c ****             #define DMAINITSEC _Pragma("location=\".dma_init\"")
  71:.\Generated_Source\PSoC5/cyfitter_cfg.c ****         #endif
  72:.\Generated_Source\PSoC5/cyfitter_cfg.c ****     #else
  73:.\Generated_Source\PSoC5/cyfitter_cfg.c ****         #define DMAINITSEC
  74:.\Generated_Source\PSoC5/cyfitter_cfg.c ****     #endif
  75:.\Generated_Source\PSoC5/cyfitter_cfg.c **** 
  76:.\Generated_Source\PSoC5/cyfitter_cfg.c ****     #define CY_CFG_MEMORY_BARRIER() __DMB()
  77:.\Generated_Source\PSoC5/cyfitter_cfg.c ****     
  78:.\Generated_Source\PSoC5/cyfitter_cfg.c **** #else
  79:.\Generated_Source\PSoC5/cyfitter_cfg.c ****     #error Unsupported toolchain
  80:.\Generated_Source\PSoC5/cyfitter_cfg.c **** #endif
  81:.\Generated_Source\PSoC5/cyfitter_cfg.c **** 
  82:.\Generated_Source\PSoC5/cyfitter_cfg.c **** 
  83:.\Generated_Source\PSoC5/cyfitter_cfg.c **** CY_CFG_UNUSED
  84:.\Generated_Source\PSoC5/cyfitter_cfg.c **** static void CYMEMZERO(void *s, size_t n);
  85:.\Generated_Source\PSoC5/cyfitter_cfg.c **** CY_CFG_UNUSED
  86:.\Generated_Source\PSoC5/cyfitter_cfg.c **** static void CYMEMZERO(void *s, size_t n)
  87:.\Generated_Source\PSoC5/cyfitter_cfg.c **** {
  26              		.loc 1 87 0
  27              		.cfi_startproc
ARM GAS  C:\Users\LUKASC~1\AppData\Local\Temp\ccr6U7F6.s 			page 3


  28              		@ args = 0, pretend = 0, frame = 8
  29              		@ frame_needed = 1, uses_anonymous_args = 0
  30 0000 80B5     		push	{r7, lr}
  31              		.cfi_def_cfa_offset 8
  32              		.cfi_offset 7, -8
  33              		.cfi_offset 14, -4
  34 0002 82B0     		sub	sp, sp, #8
  35              		.cfi_def_cfa_offset 16
  36 0004 00AF     		add	r7, sp, #0
  37              		.cfi_def_cfa_register 7
  38 0006 7860     		str	r0, [r7, #4]
  39 0008 3960     		str	r1, [r7]
  88:.\Generated_Source\PSoC5/cyfitter_cfg.c **** 	(void)memset(s, 0, n);
  40              		.loc 1 88 0
  41 000a 7868     		ldr	r0, [r7, #4]
  42 000c 0021     		movs	r1, #0
  43 000e 3A68     		ldr	r2, [r7]
  44 0010 FFF7FEFF 		bl	memset
  89:.\Generated_Source\PSoC5/cyfitter_cfg.c **** }
  45              		.loc 1 89 0
  46 0014 0837     		adds	r7, r7, #8
  47              		.cfi_def_cfa_offset 8
  48 0016 BD46     		mov	sp, r7
  49              		.cfi_def_cfa_register 13
  50              		@ sp needed
  51 0018 80BD     		pop	{r7, pc}
  52              		.cfi_endproc
  53              	.LFE0:
  54              		.size	CYMEMZERO, .-CYMEMZERO
  55 001a 00BF     		.section	.text.CYCONFIGCPY,"ax",%progbits
  56              		.align	2
  57              		.thumb
  58              		.thumb_func
  59              		.type	CYCONFIGCPY, %function
  60              	CYCONFIGCPY:
  61              	.LFB1:
  90:.\Generated_Source\PSoC5/cyfitter_cfg.c **** CY_CFG_UNUSED
  91:.\Generated_Source\PSoC5/cyfitter_cfg.c **** static void CYCONFIGCPY(void *dest, const void *src, size_t n);
  92:.\Generated_Source\PSoC5/cyfitter_cfg.c **** CY_CFG_UNUSED
  93:.\Generated_Source\PSoC5/cyfitter_cfg.c **** static void CYCONFIGCPY(void *dest, const void *src, size_t n)
  94:.\Generated_Source\PSoC5/cyfitter_cfg.c **** {
  62              		.loc 1 94 0
  63              		.cfi_startproc
  64              		@ args = 0, pretend = 0, frame = 16
  65              		@ frame_needed = 1, uses_anonymous_args = 0
  66 0000 80B5     		push	{r7, lr}
  67              		.cfi_def_cfa_offset 8
  68              		.cfi_offset 7, -8
  69              		.cfi_offset 14, -4
  70 0002 84B0     		sub	sp, sp, #16
  71              		.cfi_def_cfa_offset 24
  72 0004 00AF     		add	r7, sp, #0
  73              		.cfi_def_cfa_register 7
  74 0006 F860     		str	r0, [r7, #12]
  75 0008 B960     		str	r1, [r7, #8]
  76 000a 7A60     		str	r2, [r7, #4]
  95:.\Generated_Source\PSoC5/cyfitter_cfg.c **** 	(void)memcpy(dest, src, n);
ARM GAS  C:\Users\LUKASC~1\AppData\Local\Temp\ccr6U7F6.s 			page 4


  77              		.loc 1 95 0
  78 000c F868     		ldr	r0, [r7, #12]
  79 000e B968     		ldr	r1, [r7, #8]
  80 0010 7A68     		ldr	r2, [r7, #4]
  81 0012 FFF7FEFF 		bl	memcpy
  96:.\Generated_Source\PSoC5/cyfitter_cfg.c **** }
  82              		.loc 1 96 0
  83 0016 1037     		adds	r7, r7, #16
  84              		.cfi_def_cfa_offset 8
  85 0018 BD46     		mov	sp, r7
  86              		.cfi_def_cfa_register 13
  87              		@ sp needed
  88 001a 80BD     		pop	{r7, pc}
  89              		.cfi_endproc
  90              	.LFE1:
  91              		.size	CYCONFIGCPY, .-CYCONFIGCPY
  92              		.section	.text.CYCONFIGCPYCODE,"ax",%progbits
  93              		.align	2
  94              		.thumb
  95              		.thumb_func
  96              		.type	CYCONFIGCPYCODE, %function
  97              	CYCONFIGCPYCODE:
  98              	.LFB2:
  97:.\Generated_Source\PSoC5/cyfitter_cfg.c **** CY_CFG_UNUSED
  98:.\Generated_Source\PSoC5/cyfitter_cfg.c **** static void CYCONFIGCPYCODE(void *dest, const void *src, size_t n);
  99:.\Generated_Source\PSoC5/cyfitter_cfg.c **** CY_CFG_UNUSED
 100:.\Generated_Source\PSoC5/cyfitter_cfg.c **** static void CYCONFIGCPYCODE(void *dest, const void *src, size_t n)
 101:.\Generated_Source\PSoC5/cyfitter_cfg.c **** {
  99              		.loc 1 101 0
 100              		.cfi_startproc
 101              		@ args = 0, pretend = 0, frame = 16
 102              		@ frame_needed = 1, uses_anonymous_args = 0
 103 0000 80B5     		push	{r7, lr}
 104              		.cfi_def_cfa_offset 8
 105              		.cfi_offset 7, -8
 106              		.cfi_offset 14, -4
 107 0002 84B0     		sub	sp, sp, #16
 108              		.cfi_def_cfa_offset 24
 109 0004 00AF     		add	r7, sp, #0
 110              		.cfi_def_cfa_register 7
 111 0006 F860     		str	r0, [r7, #12]
 112 0008 B960     		str	r1, [r7, #8]
 113 000a 7A60     		str	r2, [r7, #4]
 102:.\Generated_Source\PSoC5/cyfitter_cfg.c **** 	(void)memcpy(dest, src, n);
 114              		.loc 1 102 0
 115 000c F868     		ldr	r0, [r7, #12]
 116 000e B968     		ldr	r1, [r7, #8]
 117 0010 7A68     		ldr	r2, [r7, #4]
 118 0012 FFF7FEFF 		bl	memcpy
 103:.\Generated_Source\PSoC5/cyfitter_cfg.c **** }
 119              		.loc 1 103 0
 120 0016 1037     		adds	r7, r7, #16
 121              		.cfi_def_cfa_offset 8
 122 0018 BD46     		mov	sp, r7
 123              		.cfi_def_cfa_register 13
 124              		@ sp needed
 125 001a 80BD     		pop	{r7, pc}
ARM GAS  C:\Users\LUKASC~1\AppData\Local\Temp\ccr6U7F6.s 			page 5


 126              		.cfi_endproc
 127              	.LFE2:
 128              		.size	CYCONFIGCPYCODE, .-CYCONFIGCPYCODE
 129              		.section	.text.CyClockStartupError,"ax",%progbits
 130              		.align	2
 131              		.thumb
 132              		.thumb_func
 133              		.type	CyClockStartupError, %function
 134              	CyClockStartupError:
 135              	.LFB3:
 104:.\Generated_Source\PSoC5/cyfitter_cfg.c **** 
 105:.\Generated_Source\PSoC5/cyfitter_cfg.c **** 
 106:.\Generated_Source\PSoC5/cyfitter_cfg.c **** 
 107:.\Generated_Source\PSoC5/cyfitter_cfg.c **** /* Clock startup error codes                                                   */
 108:.\Generated_Source\PSoC5/cyfitter_cfg.c **** #define CYCLOCKSTART_NO_ERROR    0u
 109:.\Generated_Source\PSoC5/cyfitter_cfg.c **** #define CYCLOCKSTART_XTAL_ERROR  1u
 110:.\Generated_Source\PSoC5/cyfitter_cfg.c **** #define CYCLOCKSTART_32KHZ_ERROR 2u
 111:.\Generated_Source\PSoC5/cyfitter_cfg.c **** #define CYCLOCKSTART_PLL_ERROR   3u
 112:.\Generated_Source\PSoC5/cyfitter_cfg.c **** 
 113:.\Generated_Source\PSoC5/cyfitter_cfg.c **** #ifdef CY_NEED_CYCLOCKSTARTUPERROR
 114:.\Generated_Source\PSoC5/cyfitter_cfg.c **** /*******************************************************************************
 115:.\Generated_Source\PSoC5/cyfitter_cfg.c **** * Function Name: CyClockStartupError
 116:.\Generated_Source\PSoC5/cyfitter_cfg.c **** ********************************************************************************
 117:.\Generated_Source\PSoC5/cyfitter_cfg.c **** * Summary:
 118:.\Generated_Source\PSoC5/cyfitter_cfg.c **** *  If an error is encountered during clock configuration (crystal startup error,
 119:.\Generated_Source\PSoC5/cyfitter_cfg.c **** *  PLL lock error, etc.), the system will end up here.  Unless reimplemented by
 120:.\Generated_Source\PSoC5/cyfitter_cfg.c **** *  the customer, this function will stop in an infinite loop.
 121:.\Generated_Source\PSoC5/cyfitter_cfg.c **** *
 122:.\Generated_Source\PSoC5/cyfitter_cfg.c **** * Parameters:
 123:.\Generated_Source\PSoC5/cyfitter_cfg.c **** *   void
 124:.\Generated_Source\PSoC5/cyfitter_cfg.c **** *
 125:.\Generated_Source\PSoC5/cyfitter_cfg.c **** * Return:
 126:.\Generated_Source\PSoC5/cyfitter_cfg.c **** *   void
 127:.\Generated_Source\PSoC5/cyfitter_cfg.c **** *
 128:.\Generated_Source\PSoC5/cyfitter_cfg.c **** *******************************************************************************/
 129:.\Generated_Source\PSoC5/cyfitter_cfg.c **** CY_CFG_UNUSED
 130:.\Generated_Source\PSoC5/cyfitter_cfg.c **** static void CyClockStartupError(uint8 errorCode);
 131:.\Generated_Source\PSoC5/cyfitter_cfg.c **** CY_CFG_UNUSED
 132:.\Generated_Source\PSoC5/cyfitter_cfg.c **** static void CyClockStartupError(uint8 errorCode)
 133:.\Generated_Source\PSoC5/cyfitter_cfg.c **** {
 136              		.loc 1 133 0
 137              		.cfi_startproc
 138              		@ args = 0, pretend = 0, frame = 8
 139              		@ frame_needed = 1, uses_anonymous_args = 0
 140              		@ link register save eliminated.
 141 0000 80B4     		push	{r7}
 142              		.cfi_def_cfa_offset 4
 143              		.cfi_offset 7, -4
 144 0002 83B0     		sub	sp, sp, #12
 145              		.cfi_def_cfa_offset 16
 146 0004 00AF     		add	r7, sp, #0
 147              		.cfi_def_cfa_register 7
 148 0006 0346     		mov	r3, r0
 149 0008 FB71     		strb	r3, [r7, #7]
 150              	.L5:
 134:.\Generated_Source\PSoC5/cyfitter_cfg.c ****     /* To remove the compiler warning if errorCode not used.                */
 135:.\Generated_Source\PSoC5/cyfitter_cfg.c ****     errorCode = errorCode;
ARM GAS  C:\Users\LUKASC~1\AppData\Local\Temp\ccr6U7F6.s 			page 6


 136:.\Generated_Source\PSoC5/cyfitter_cfg.c **** 
 137:.\Generated_Source\PSoC5/cyfitter_cfg.c ****     /* `#START CyClockStartupError` */
 138:.\Generated_Source\PSoC5/cyfitter_cfg.c **** 
 139:.\Generated_Source\PSoC5/cyfitter_cfg.c ****     /* If we have a clock startup error (bad MHz crystal, PLL lock, etc.),  */
 140:.\Generated_Source\PSoC5/cyfitter_cfg.c ****     /* we will end up here to allow the customer to implement something to  */
 141:.\Generated_Source\PSoC5/cyfitter_cfg.c ****     /* deal with the clock condition.                                       */
 142:.\Generated_Source\PSoC5/cyfitter_cfg.c **** 
 143:.\Generated_Source\PSoC5/cyfitter_cfg.c ****     /* `#END` */
 144:.\Generated_Source\PSoC5/cyfitter_cfg.c **** 
 145:.\Generated_Source\PSoC5/cyfitter_cfg.c ****     /* If nothing else, stop here since the clocks have not started         */
 146:.\Generated_Source\PSoC5/cyfitter_cfg.c ****     /* correctly.                                                           */
 147:.\Generated_Source\PSoC5/cyfitter_cfg.c ****     while(1) {}
 151              		.loc 1 147 0 discriminator 1
 152 000a FEE7     		b	.L5
 153              		.cfi_endproc
 154              	.LFE3:
 155              		.size	CyClockStartupError, .-CyClockStartupError
 156              		.section	.text.cfg_dma_init,"ax",%progbits
 157              		.align	2
 158              		.thumb
 159              		.thumb_func
 160              		.type	cfg_dma_init, %function
 161              	cfg_dma_init:
 162              	.LFB4:
 148:.\Generated_Source\PSoC5/cyfitter_cfg.c **** }
 149:.\Generated_Source\PSoC5/cyfitter_cfg.c **** #endif
 150:.\Generated_Source\PSoC5/cyfitter_cfg.c **** 
 151:.\Generated_Source\PSoC5/cyfitter_cfg.c **** /* IOPORT_0 Address: CYDEV_PRTDSI_PRT0_BASE Size (bytes): 7 */
 152:.\Generated_Source\PSoC5/cyfitter_cfg.c **** #define BS_IOPORT_0_VAL ((const uint8 CYFAR *)0x48000000u)
 153:.\Generated_Source\PSoC5/cyfitter_cfg.c **** 
 154:.\Generated_Source\PSoC5/cyfitter_cfg.c **** /* IOPORT_1 Address: CYDEV_PRTDSI_PRT1_BASE Size (bytes): 7 */
 155:.\Generated_Source\PSoC5/cyfitter_cfg.c **** #define BS_IOPORT_1_VAL ((const uint8 CYFAR *)0x48000008u)
 156:.\Generated_Source\PSoC5/cyfitter_cfg.c **** 
 157:.\Generated_Source\PSoC5/cyfitter_cfg.c **** /* IOPORT_3 Address: CYDEV_PRTDSI_PRT3_BASE Size (bytes): 7 */
 158:.\Generated_Source\PSoC5/cyfitter_cfg.c **** #define BS_IOPORT_3_VAL ((const uint8 CYFAR *)0x48000010u)
 159:.\Generated_Source\PSoC5/cyfitter_cfg.c **** 
 160:.\Generated_Source\PSoC5/cyfitter_cfg.c **** /* IOPORT_8 Address: CYDEV_PRTDSI_PRT15_BASE Size (bytes): 7 */
 161:.\Generated_Source\PSoC5/cyfitter_cfg.c **** #define BS_IOPORT_8_VAL ((const uint8 CYFAR *)0x48000018u)
 162:.\Generated_Source\PSoC5/cyfitter_cfg.c **** 
 163:.\Generated_Source\PSoC5/cyfitter_cfg.c **** /* PICU_8 Address: CYDEV_PICU_INTTYPE_PICU15_BASE Size (bytes): 8 */
 164:.\Generated_Source\PSoC5/cyfitter_cfg.c **** #define BS_PICU_8_VAL ((const uint8 CYFAR *)0x48000020u)
 165:.\Generated_Source\PSoC5/cyfitter_cfg.c **** 
 166:.\Generated_Source\PSoC5/cyfitter_cfg.c **** /* IDMUX_IRQ Address: CYREG_IDMUX_IRQ_CTL0 Size (bytes): 8 */
 167:.\Generated_Source\PSoC5/cyfitter_cfg.c **** #define BS_IDMUX_IRQ_VAL ((const uint8 CYFAR *)0x48000028u)
 168:.\Generated_Source\PSoC5/cyfitter_cfg.c **** 
 169:.\Generated_Source\PSoC5/cyfitter_cfg.c **** /* UDB_0_2_1_CONFIG Address: CYDEV_UCFG_B0_P4_U0_BASE Size (bytes): 128 */
 170:.\Generated_Source\PSoC5/cyfitter_cfg.c **** #define BS_UDB_0_2_1_CONFIG_VAL ((const uint8 CYFAR *)0x48000030u)
 171:.\Generated_Source\PSoC5/cyfitter_cfg.c **** 
 172:.\Generated_Source\PSoC5/cyfitter_cfg.c **** /* UDB_0_2_0_CONFIG Address: CYDEV_UCFG_B0_P4_U1_BASE Size (bytes): 128 */
 173:.\Generated_Source\PSoC5/cyfitter_cfg.c **** #define BS_UDB_0_2_0_CONFIG_VAL ((const uint8 CYFAR *)0x480000B0u)
 174:.\Generated_Source\PSoC5/cyfitter_cfg.c **** 
 175:.\Generated_Source\PSoC5/cyfitter_cfg.c **** /* UDB_0_1_1_CONFIG Address: CYDEV_UCFG_B1_P4_U0_BASE Size (bytes): 128 */
 176:.\Generated_Source\PSoC5/cyfitter_cfg.c **** #define BS_UDB_0_1_1_CONFIG_VAL ((const uint8 CYFAR *)0x48000130u)
 177:.\Generated_Source\PSoC5/cyfitter_cfg.c **** 
 178:.\Generated_Source\PSoC5/cyfitter_cfg.c **** /* UDB_0_1_0_CONFIG Address: CYDEV_UCFG_B1_P4_U1_BASE Size (bytes): 128 */
 179:.\Generated_Source\PSoC5/cyfitter_cfg.c **** #define BS_UDB_0_1_0_CONFIG_VAL ((const uint8 CYFAR *)0x480001B0u)
 180:.\Generated_Source\PSoC5/cyfitter_cfg.c **** 
ARM GAS  C:\Users\LUKASC~1\AppData\Local\Temp\ccr6U7F6.s 			page 7


 181:.\Generated_Source\PSoC5/cyfitter_cfg.c **** /* UDB_0_0_0_CONFIG Address: CYDEV_UCFG_B1_P5_U0_BASE Size (bytes): 128 */
 182:.\Generated_Source\PSoC5/cyfitter_cfg.c **** #define BS_UDB_0_0_0_CONFIG_VAL ((const uint8 CYFAR *)0x48000230u)
 183:.\Generated_Source\PSoC5/cyfitter_cfg.c **** 
 184:.\Generated_Source\PSoC5/cyfitter_cfg.c **** /* UDB_0_0_1_CONFIG Address: CYDEV_UCFG_B1_P5_U1_BASE Size (bytes): 128 */
 185:.\Generated_Source\PSoC5/cyfitter_cfg.c **** #define BS_UDB_0_0_1_CONFIG_VAL ((const uint8 CYFAR *)0x480002B0u)
 186:.\Generated_Source\PSoC5/cyfitter_cfg.c **** 
 187:.\Generated_Source\PSoC5/cyfitter_cfg.c **** /* UWRK_B0_WRK_DP_BITS Address: CYDEV_UWRK_UWRK8_B0_BASE Size (bytes): 64 */
 188:.\Generated_Source\PSoC5/cyfitter_cfg.c **** #define BS_UWRK_B0_WRK_DP_BITS_VAL ((const uint8 CYFAR *)0x48000330u)
 189:.\Generated_Source\PSoC5/cyfitter_cfg.c **** 
 190:.\Generated_Source\PSoC5/cyfitter_cfg.c **** /* UWRK_B0_WRK_STATCTL_BITS Address: CYDEV_UWRK_UWRK8_B0_BASE + 0x00000070u Size (bytes): 32 */
 191:.\Generated_Source\PSoC5/cyfitter_cfg.c **** #define BS_UWRK_B0_WRK_STATCTL_BITS_VAL ((const uint8 CYFAR *)0x48000370u)
 192:.\Generated_Source\PSoC5/cyfitter_cfg.c **** 
 193:.\Generated_Source\PSoC5/cyfitter_cfg.c **** /* UWRK_B1_WRK_DP_BITS Address: CYDEV_UWRK_UWRK8_B1_BASE Size (bytes): 64 */
 194:.\Generated_Source\PSoC5/cyfitter_cfg.c **** #define BS_UWRK_B1_WRK_DP_BITS_VAL ((const uint8 CYFAR *)0x48000390u)
 195:.\Generated_Source\PSoC5/cyfitter_cfg.c **** 
 196:.\Generated_Source\PSoC5/cyfitter_cfg.c **** /* UWRK_B1_WRK_STATCTL_BITS Address: CYDEV_UWRK_UWRK8_B1_BASE + 0x00000070u Size (bytes): 32 */
 197:.\Generated_Source\PSoC5/cyfitter_cfg.c **** #define BS_UWRK_B1_WRK_STATCTL_BITS_VAL ((const uint8 CYFAR *)0x480003D0u)
 198:.\Generated_Source\PSoC5/cyfitter_cfg.c **** 
 199:.\Generated_Source\PSoC5/cyfitter_cfg.c **** /* UCFG_BCTL1 Address: CYREG_BCTL1_MDCLK_EN Size (bytes): 16 */
 200:.\Generated_Source\PSoC5/cyfitter_cfg.c **** #define BS_UCFG_BCTL1_VAL ((const uint8 CYFAR *)0x480003F0u)
 201:.\Generated_Source\PSoC5/cyfitter_cfg.c **** 
 202:.\Generated_Source\PSoC5/cyfitter_cfg.c **** /* UCFG_BCTL0 Address: CYREG_BCTL0_MDCLK_EN Size (bytes): 16 */
 203:.\Generated_Source\PSoC5/cyfitter_cfg.c **** #define BS_UCFG_BCTL0_VAL ((const uint8 CYFAR *)0x48000400u)
 204:.\Generated_Source\PSoC5/cyfitter_cfg.c **** 
 205:.\Generated_Source\PSoC5/cyfitter_cfg.c **** /* DSI0_0_HV_ROUTING Address: CYDEV_UCFG_DSI13_BASE + 0x00000080u Size (bytes): 128 */
 206:.\Generated_Source\PSoC5/cyfitter_cfg.c **** #define BS_DSI0_0_HV_ROUTING_VAL ((const uint8 CYFAR *)0x48000410u)
 207:.\Generated_Source\PSoC5/cyfitter_cfg.c **** 
 208:.\Generated_Source\PSoC5/cyfitter_cfg.c **** /* DSISWITCH_0_1 Address: CYDEV_UCFG_DSI12_BASE Size (bytes): 128 */
 209:.\Generated_Source\PSoC5/cyfitter_cfg.c **** #define BS_DSISWITCH_0_1_VAL ((const uint8 CYFAR *)0x48000490u)
 210:.\Generated_Source\PSoC5/cyfitter_cfg.c **** 
 211:.\Generated_Source\PSoC5/cyfitter_cfg.c **** /* DSI0_1_HV_ROUTING Address: CYDEV_UCFG_DSI12_BASE + 0x00000080u Size (bytes): 128 */
 212:.\Generated_Source\PSoC5/cyfitter_cfg.c **** #define BS_DSI0_1_HV_ROUTING_VAL ((const uint8 CYFAR *)0x48000510u)
 213:.\Generated_Source\PSoC5/cyfitter_cfg.c **** 
 214:.\Generated_Source\PSoC5/cyfitter_cfg.c **** /* DSISWITCH_0_2 Address: CYDEV_UCFG_DSI7_BASE Size (bytes): 128 */
 215:.\Generated_Source\PSoC5/cyfitter_cfg.c **** #define BS_DSISWITCH_0_2_VAL ((const uint8 CYFAR *)0x48000590u)
 216:.\Generated_Source\PSoC5/cyfitter_cfg.c **** 
 217:.\Generated_Source\PSoC5/cyfitter_cfg.c **** /* DSI0_2_HV_ROUTING Address: CYDEV_UCFG_DSI7_BASE + 0x00000080u Size (bytes): 128 */
 218:.\Generated_Source\PSoC5/cyfitter_cfg.c **** #define BS_DSI0_2_HV_ROUTING_VAL ((const uint8 CYFAR *)0x48000610u)
 219:.\Generated_Source\PSoC5/cyfitter_cfg.c **** 
 220:.\Generated_Source\PSoC5/cyfitter_cfg.c **** /* DSI0_3_HV_ROUTING Address: CYDEV_UCFG_DSI6_BASE + 0x00000080u Size (bytes): 128 */
 221:.\Generated_Source\PSoC5/cyfitter_cfg.c **** #define BS_DSI0_3_HV_ROUTING_VAL ((const uint8 CYFAR *)0x48000690u)
 222:.\Generated_Source\PSoC5/cyfitter_cfg.c **** 
 223:.\Generated_Source\PSoC5/cyfitter_cfg.c **** /* DSISWITCH_0_4 Address: CYDEV_UCFG_DSI5_BASE Size (bytes): 128 */
 224:.\Generated_Source\PSoC5/cyfitter_cfg.c **** #define BS_DSISWITCH_0_4_VAL ((const uint8 CYFAR *)0x48000710u)
 225:.\Generated_Source\PSoC5/cyfitter_cfg.c **** 
 226:.\Generated_Source\PSoC5/cyfitter_cfg.c **** /* DSI0_4_HV_ROUTING Address: CYDEV_UCFG_DSI5_BASE + 0x00000080u Size (bytes): 128 */
 227:.\Generated_Source\PSoC5/cyfitter_cfg.c **** #define BS_DSI0_4_HV_ROUTING_VAL ((const uint8 CYFAR *)0x48000790u)
 228:.\Generated_Source\PSoC5/cyfitter_cfg.c **** 
 229:.\Generated_Source\PSoC5/cyfitter_cfg.c **** /* UDBSWITCH_0_0 Address: CYDEV_UCFG_B1_P5_ROUTE_BASE Size (bytes): 128 */
 230:.\Generated_Source\PSoC5/cyfitter_cfg.c **** #define BS_UDBSWITCH_0_0_VAL ((const uint8 CYFAR *)0x48000810u)
 231:.\Generated_Source\PSoC5/cyfitter_cfg.c **** 
 232:.\Generated_Source\PSoC5/cyfitter_cfg.c **** /* UDB_1_0_HV_ROUTING Address: CYDEV_UCFG_B1_P5_ROUTE_BASE + 0x00000080u Size (bytes): 128 */
 233:.\Generated_Source\PSoC5/cyfitter_cfg.c **** #define BS_UDB_1_0_HV_ROUTING_VAL ((const uint8 CYFAR *)0x48000890u)
 234:.\Generated_Source\PSoC5/cyfitter_cfg.c **** 
 235:.\Generated_Source\PSoC5/cyfitter_cfg.c **** /* UDB_2_0_HV_ROUTING Address: CYDEV_UCFG_B1_P2_ROUTE_BASE + 0x00000080u Size (bytes): 128 */
 236:.\Generated_Source\PSoC5/cyfitter_cfg.c **** #define BS_UDB_2_0_HV_ROUTING_VAL ((const uint8 CYFAR *)0x48000910u)
 237:.\Generated_Source\PSoC5/cyfitter_cfg.c **** 
ARM GAS  C:\Users\LUKASC~1\AppData\Local\Temp\ccr6U7F6.s 			page 8


 238:.\Generated_Source\PSoC5/cyfitter_cfg.c **** /* UDBSWITCH_0_1 Address: CYDEV_UCFG_B1_P4_ROUTE_BASE Size (bytes): 128 */
 239:.\Generated_Source\PSoC5/cyfitter_cfg.c **** #define BS_UDBSWITCH_0_1_VAL ((const uint8 CYFAR *)0x48000990u)
 240:.\Generated_Source\PSoC5/cyfitter_cfg.c **** 
 241:.\Generated_Source\PSoC5/cyfitter_cfg.c **** /* UDB_1_1_HV_ROUTING Address: CYDEV_UCFG_B1_P4_ROUTE_BASE + 0x00000080u Size (bytes): 128 */
 242:.\Generated_Source\PSoC5/cyfitter_cfg.c **** #define BS_UDB_1_1_HV_ROUTING_VAL ((const uint8 CYFAR *)0x48000A10u)
 243:.\Generated_Source\PSoC5/cyfitter_cfg.c **** 
 244:.\Generated_Source\PSoC5/cyfitter_cfg.c **** /* UDB_2_1_HV_ROUTING Address: CYDEV_UCFG_B1_P3_ROUTE_BASE + 0x00000080u Size (bytes): 128 */
 245:.\Generated_Source\PSoC5/cyfitter_cfg.c **** #define BS_UDB_2_1_HV_ROUTING_VAL ((const uint8 CYFAR *)0x48000A90u)
 246:.\Generated_Source\PSoC5/cyfitter_cfg.c **** 
 247:.\Generated_Source\PSoC5/cyfitter_cfg.c **** /* UDBSWITCH_0_2 Address: CYDEV_UCFG_B0_P4_ROUTE_BASE Size (bytes): 128 */
 248:.\Generated_Source\PSoC5/cyfitter_cfg.c **** #define BS_UDBSWITCH_0_2_VAL ((const uint8 CYFAR *)0x48000B10u)
 249:.\Generated_Source\PSoC5/cyfitter_cfg.c **** 
 250:.\Generated_Source\PSoC5/cyfitter_cfg.c **** /* UDB_1_2_HV_ROUTING Address: CYDEV_UCFG_B0_P4_ROUTE_BASE + 0x00000080u Size (bytes): 128 */
 251:.\Generated_Source\PSoC5/cyfitter_cfg.c **** #define BS_UDB_1_2_HV_ROUTING_VAL ((const uint8 CYFAR *)0x48000B90u)
 252:.\Generated_Source\PSoC5/cyfitter_cfg.c **** 
 253:.\Generated_Source\PSoC5/cyfitter_cfg.c **** /* UDB_2_2_HV_ROUTING Address: CYDEV_UCFG_B0_P3_ROUTE_BASE + 0x00000080u Size (bytes): 128 */
 254:.\Generated_Source\PSoC5/cyfitter_cfg.c **** #define BS_UDB_2_2_HV_ROUTING_VAL ((const uint8 CYFAR *)0x48000C10u)
 255:.\Generated_Source\PSoC5/cyfitter_cfg.c **** 
 256:.\Generated_Source\PSoC5/cyfitter_cfg.c **** /* UDB_1_3_HV_ROUTING Address: CYDEV_UCFG_B0_P5_ROUTE_BASE + 0x00000080u Size (bytes): 128 */
 257:.\Generated_Source\PSoC5/cyfitter_cfg.c **** #define BS_UDB_1_3_HV_ROUTING_VAL ((const uint8 CYFAR *)0x48000C90u)
 258:.\Generated_Source\PSoC5/cyfitter_cfg.c **** 
 259:.\Generated_Source\PSoC5/cyfitter_cfg.c **** /* UDB_1_4_HV_ROUTING Address: CYDEV_UCFG_B0_P6_ROUTE_BASE + 0x00000080u Size (bytes): 128 */
 260:.\Generated_Source\PSoC5/cyfitter_cfg.c **** #define BS_UDB_1_4_HV_ROUTING_VAL ((const uint8 CYFAR *)0x48000D10u)
 261:.\Generated_Source\PSoC5/cyfitter_cfg.c **** 
 262:.\Generated_Source\PSoC5/cyfitter_cfg.c **** /* UDB_1_5_HV_ROUTING Address: CYDEV_UCFG_B0_P7_ROUTE_BASE + 0x00000080u Size (bytes): 128 */
 263:.\Generated_Source\PSoC5/cyfitter_cfg.c **** #define BS_UDB_1_5_HV_ROUTING_VAL ((const uint8 CYFAR *)0x48000D90u)
 264:.\Generated_Source\PSoC5/cyfitter_cfg.c **** 
 265:.\Generated_Source\PSoC5/cyfitter_cfg.c **** /* UDB_2_5_HV_ROUTING Address: CYDEV_UCFG_B0_P0_ROUTE_BASE + 0x00000080u Size (bytes): 128 */
 266:.\Generated_Source\PSoC5/cyfitter_cfg.c **** #define BS_UDB_2_5_HV_ROUTING_VAL ((const uint8 CYFAR *)0x48000E10u)
 267:.\Generated_Source\PSoC5/cyfitter_cfg.c **** 
 268:.\Generated_Source\PSoC5/cyfitter_cfg.c **** /* DSISWITCH_1_0 Address: CYDEV_UCFG_DSI9_BASE Size (bytes): 128 */
 269:.\Generated_Source\PSoC5/cyfitter_cfg.c **** #define BS_DSISWITCH_1_0_VAL ((const uint8 CYFAR *)0x48000E90u)
 270:.\Generated_Source\PSoC5/cyfitter_cfg.c **** 
 271:.\Generated_Source\PSoC5/cyfitter_cfg.c **** /* DSI3_0_HV_ROUTING Address: CYDEV_UCFG_DSI9_BASE + 0x00000080u Size (bytes): 128 */
 272:.\Generated_Source\PSoC5/cyfitter_cfg.c **** #define BS_DSI3_0_HV_ROUTING_VAL ((const uint8 CYFAR *)0x48000F10u)
 273:.\Generated_Source\PSoC5/cyfitter_cfg.c **** 
 274:.\Generated_Source\PSoC5/cyfitter_cfg.c **** /* DSI3_1_HV_ROUTING Address: CYDEV_UCFG_DSI8_BASE + 0x00000080u Size (bytes): 128 */
 275:.\Generated_Source\PSoC5/cyfitter_cfg.c **** #define BS_DSI3_1_HV_ROUTING_VAL ((const uint8 CYFAR *)0x48000F90u)
 276:.\Generated_Source\PSoC5/cyfitter_cfg.c **** 
 277:.\Generated_Source\PSoC5/cyfitter_cfg.c **** /* DSI3_2_HV_ROUTING Address: CYDEV_UCFG_DSI3_BASE + 0x00000080u Size (bytes): 128 */
 278:.\Generated_Source\PSoC5/cyfitter_cfg.c **** #define BS_DSI3_2_HV_ROUTING_VAL ((const uint8 CYFAR *)0x48001010u)
 279:.\Generated_Source\PSoC5/cyfitter_cfg.c **** 
 280:.\Generated_Source\PSoC5/cyfitter_cfg.c **** /* DSI3_3_HV_ROUTING Address: CYDEV_UCFG_DSI2_BASE + 0x00000080u Size (bytes): 128 */
 281:.\Generated_Source\PSoC5/cyfitter_cfg.c **** #define BS_DSI3_3_HV_ROUTING_VAL ((const uint8 CYFAR *)0x48001090u)
 282:.\Generated_Source\PSoC5/cyfitter_cfg.c **** 
 283:.\Generated_Source\PSoC5/cyfitter_cfg.c **** /* DSISWITCH_1_4 Address: CYDEV_UCFG_DSI1_BASE Size (bytes): 128 */
 284:.\Generated_Source\PSoC5/cyfitter_cfg.c **** #define BS_DSISWITCH_1_4_VAL ((const uint8 CYFAR *)0x48001110u)
 285:.\Generated_Source\PSoC5/cyfitter_cfg.c **** 
 286:.\Generated_Source\PSoC5/cyfitter_cfg.c **** /* DSI3_4_HV_ROUTING Address: CYDEV_UCFG_DSI1_BASE + 0x00000080u Size (bytes): 128 */
 287:.\Generated_Source\PSoC5/cyfitter_cfg.c **** #define BS_DSI3_4_HV_ROUTING_VAL ((const uint8 CYFAR *)0x48001190u)
 288:.\Generated_Source\PSoC5/cyfitter_cfg.c **** 
 289:.\Generated_Source\PSoC5/cyfitter_cfg.c **** /* DSISWITCH_1_5 Address: CYDEV_UCFG_DSI0_BASE Size (bytes): 128 */
 290:.\Generated_Source\PSoC5/cyfitter_cfg.c **** #define BS_DSISWITCH_1_5_VAL ((const uint8 CYFAR *)0x48001210u)
 291:.\Generated_Source\PSoC5/cyfitter_cfg.c **** 
 292:.\Generated_Source\PSoC5/cyfitter_cfg.c **** /* DSI3_5_HV_ROUTING Address: CYDEV_UCFG_DSI0_BASE + 0x00000080u Size (bytes): 128 */
 293:.\Generated_Source\PSoC5/cyfitter_cfg.c **** #define BS_DSI3_5_HV_ROUTING_VAL ((const uint8 CYFAR *)0x48001290u)
 294:.\Generated_Source\PSoC5/cyfitter_cfg.c **** 
ARM GAS  C:\Users\LUKASC~1\AppData\Local\Temp\ccr6U7F6.s 			page 9


 295:.\Generated_Source\PSoC5/cyfitter_cfg.c **** /* IOPINS0_0 Address: CYREG_PRT0_DM0 Size (bytes): 8 */
 296:.\Generated_Source\PSoC5/cyfitter_cfg.c **** #define BS_IOPINS0_0_VAL ((const uint8 CYFAR *)0x48001310u)
 297:.\Generated_Source\PSoC5/cyfitter_cfg.c **** 
 298:.\Generated_Source\PSoC5/cyfitter_cfg.c **** /* IOPINS0_7 Address: CYREG_PRT12_DM0 Size (bytes): 8 */
 299:.\Generated_Source\PSoC5/cyfitter_cfg.c **** #define BS_IOPINS0_7_VAL ((const uint8 CYFAR *)0x48001318u)
 300:.\Generated_Source\PSoC5/cyfitter_cfg.c **** 
 301:.\Generated_Source\PSoC5/cyfitter_cfg.c **** /* IOPINS0_8 Address: CYREG_PRT15_DR Size (bytes): 10 */
 302:.\Generated_Source\PSoC5/cyfitter_cfg.c **** #define BS_IOPINS0_8_VAL ((const uint8 CYFAR *)0x48001320u)
 303:.\Generated_Source\PSoC5/cyfitter_cfg.c **** 
 304:.\Generated_Source\PSoC5/cyfitter_cfg.c **** /* IOPINS0_1 Address: CYREG_PRT1_DM0 Size (bytes): 8 */
 305:.\Generated_Source\PSoC5/cyfitter_cfg.c **** #define BS_IOPINS0_1_VAL ((const uint8 CYFAR *)0x4800132Cu)
 306:.\Generated_Source\PSoC5/cyfitter_cfg.c **** 
 307:.\Generated_Source\PSoC5/cyfitter_cfg.c **** /* IOPINS0_2 Address: CYREG_PRT2_DM0 Size (bytes): 8 */
 308:.\Generated_Source\PSoC5/cyfitter_cfg.c **** #define BS_IOPINS0_2_VAL ((const uint8 CYFAR *)0x48001334u)
 309:.\Generated_Source\PSoC5/cyfitter_cfg.c **** 
 310:.\Generated_Source\PSoC5/cyfitter_cfg.c **** /* IOPINS0_3 Address: CYREG_PRT3_DM0 Size (bytes): 8 */
 311:.\Generated_Source\PSoC5/cyfitter_cfg.c **** #define BS_IOPINS0_3_VAL ((const uint8 CYFAR *)0x4800133Cu)
 312:.\Generated_Source\PSoC5/cyfitter_cfg.c **** 
 313:.\Generated_Source\PSoC5/cyfitter_cfg.c **** 
 314:.\Generated_Source\PSoC5/cyfitter_cfg.c **** /*******************************************************************************
 315:.\Generated_Source\PSoC5/cyfitter_cfg.c **** * Function Name: cfg_dma_init
 316:.\Generated_Source\PSoC5/cyfitter_cfg.c **** ********************************************************************************
 317:.\Generated_Source\PSoC5/cyfitter_cfg.c **** * Summary:
 318:.\Generated_Source\PSoC5/cyfitter_cfg.c **** *  This function is used to copy device configuration data from constant values
 319:.\Generated_Source\PSoC5/cyfitter_cfg.c **** *  stored in memory into the proper chip configuration registers using DMA.  It
 320:.\Generated_Source\PSoC5/cyfitter_cfg.c **** *  pulls data out of the CFG_TD_LISTs to know exactly how/what to configure.
 321:.\Generated_Source\PSoC5/cyfitter_cfg.c **** *
 322:.\Generated_Source\PSoC5/cyfitter_cfg.c **** * Parameters:  
 323:.\Generated_Source\PSoC5/cyfitter_cfg.c **** *   void
 324:.\Generated_Source\PSoC5/cyfitter_cfg.c **** *
 325:.\Generated_Source\PSoC5/cyfitter_cfg.c **** * Return:
 326:.\Generated_Source\PSoC5/cyfitter_cfg.c **** *   void
 327:.\Generated_Source\PSoC5/cyfitter_cfg.c **** *
 328:.\Generated_Source\PSoC5/cyfitter_cfg.c **** *******************************************************************************/
 329:.\Generated_Source\PSoC5/cyfitter_cfg.c **** static void cfg_dma_init(void);
 330:.\Generated_Source\PSoC5/cyfitter_cfg.c **** static void cfg_dma_init(void)
 331:.\Generated_Source\PSoC5/cyfitter_cfg.c **** {
 163              		.loc 1 331 0
 164              		.cfi_startproc
 165              		@ args = 0, pretend = 0, frame = 8
 166              		@ frame_needed = 1, uses_anonymous_args = 0
 167              		@ link register save eliminated.
 168 0000 80B4     		push	{r7}
 169              		.cfi_def_cfa_offset 4
 170              		.cfi_offset 7, -4
 171 0002 83B0     		sub	sp, sp, #12
 172              		.cfi_def_cfa_offset 16
 173 0004 00AF     		add	r7, sp, #0
 174              		.cfi_def_cfa_register 7
 332:.\Generated_Source\PSoC5/cyfitter_cfg.c **** 	/* TD structure for little-endian systems. Does not require endian swap */
 333:.\Generated_Source\PSoC5/cyfitter_cfg.c **** 	CYPACKED struct td_t {
 334:.\Generated_Source\PSoC5/cyfitter_cfg.c **** 		uint16 size;
 335:.\Generated_Source\PSoC5/cyfitter_cfg.c **** 		uint8 next_td_ptr;
 336:.\Generated_Source\PSoC5/cyfitter_cfg.c **** 		uint8 flags;
 337:.\Generated_Source\PSoC5/cyfitter_cfg.c **** 		uint16 src;
 338:.\Generated_Source\PSoC5/cyfitter_cfg.c **** 		uint16 dest;
 339:.\Generated_Source\PSoC5/cyfitter_cfg.c **** 	} CYPACKED_ATTR;
ARM GAS  C:\Users\LUKASC~1\AppData\Local\Temp\ccr6U7F6.s 			page 10


 340:.\Generated_Source\PSoC5/cyfitter_cfg.c **** 
 341:.\Generated_Source\PSoC5/cyfitter_cfg.c **** 	/* PHUB_CH1_CFGMEM_CFG0/1 initialization data */
 342:.\Generated_Source\PSoC5/cyfitter_cfg.c **** 	DMAINITSEC static const uint8 CYCODE CH1_ADDR_DATA0[] = { 0x01u, 0x00u, 0x00u, 0x00u, 0x00u, 0x20u
 343:.\Generated_Source\PSoC5/cyfitter_cfg.c **** 
 344:.\Generated_Source\PSoC5/cyfitter_cfg.c **** 	/* PHUB_CH2_CFGMEM_CFG0/1 initialization data */
 345:.\Generated_Source\PSoC5/cyfitter_cfg.c **** 	DMAINITSEC static const uint8 CYCODE CH2_ADDR_DATA0[] = { 0x01u, 0x00u, 0x00u, 0x00u, 0x00u, 0x20u
 346:.\Generated_Source\PSoC5/cyfitter_cfg.c **** 
 347:.\Generated_Source\PSoC5/cyfitter_cfg.c **** 	/* PHUB_CH5_CFGMEM_CFG0/1 initialization data */
 348:.\Generated_Source\PSoC5/cyfitter_cfg.c **** 	DMAINITSEC static const uint8 CYCODE CH5_ADDR_DATA0[] = { 0x01u, 0x00u, 0x00u, 0x00u, 0x00u, 0x48u
 349:.\Generated_Source\PSoC5/cyfitter_cfg.c **** 
 350:.\Generated_Source\PSoC5/cyfitter_cfg.c **** 	/* PHUB_CH6_CFGMEM_CFG0/1 initialization data */
 351:.\Generated_Source\PSoC5/cyfitter_cfg.c **** 	DMAINITSEC static const uint8 CYCODE CH6_ADDR_DATA0[] = { 0x01u, 0x00u, 0x00u, 0x00u, 0x00u, 0x48u
 352:.\Generated_Source\PSoC5/cyfitter_cfg.c **** 
 353:.\Generated_Source\PSoC5/cyfitter_cfg.c **** 	/* Initialization data for each DMA channel's TD registers */
 354:.\Generated_Source\PSoC5/cyfitter_cfg.c **** 	DMAINITSEC static const uint8 CYCODE DMA_TD_START_CMD[] = { 0x01u, 0x00u, 0x00u, 0x00u, 0x01u };
 355:.\Generated_Source\PSoC5/cyfitter_cfg.c **** 
 356:.\Generated_Source\PSoC5/cyfitter_cfg.c **** 	CYALIGNED static uint32 CYXDATA DMA_ZERO_VAL;
 357:.\Generated_Source\PSoC5/cyfitter_cfg.c **** 
 358:.\Generated_Source\PSoC5/cyfitter_cfg.c **** 	/* This table holds all of the initialization data necessary for the DMA
 359:.\Generated_Source\PSoC5/cyfitter_cfg.c **** 	   process to transfer data from the source location to the destination. */
 360:.\Generated_Source\PSoC5/cyfitter_cfg.c **** 	/* Source addresses can be relocated, but only when in 32bit addresses.
 361:.\Generated_Source\PSoC5/cyfitter_cfg.c **** 	   Because the standard TD table only has 16bit addresses, we generate a
 362:.\Generated_Source\PSoC5/cyfitter_cfg.c **** 	   separate CFG_TD_ADDR table for the source addresses that supports 32bit
 363:.\Generated_Source\PSoC5/cyfitter_cfg.c **** 	   addresses. */
 364:.\Generated_Source\PSoC5/cyfitter_cfg.c **** 	DMAINITSEC static const struct td_t CYCODE CFG_TD_LIST0[] = {
 365:.\Generated_Source\PSoC5/cyfitter_cfg.c **** 		/* Size, Next, Flags, Source, Destination */
 366:.\Generated_Source\PSoC5/cyfitter_cfg.c **** 		{ 8u, 0x02u, 0x23u, (uint16)(uint32)(0u), (uint16)(CYREG_PHUB_CFGMEM1_CFG0) },	/* TD 1 */
 367:.\Generated_Source\PSoC5/cyfitter_cfg.c **** 		{ 8u, 0x03u, 0x23u, (uint16)(uint32)(0u), (uint16)(CYREG_PHUB_CFGMEM2_CFG0) },	/* TD 2 */
 368:.\Generated_Source\PSoC5/cyfitter_cfg.c **** 		{ 8u, 0x04u, 0x23u, (uint16)(uint32)(0u), (uint16)(CYREG_PHUB_CFGMEM5_CFG0) },	/* TD 3 */
 369:.\Generated_Source\PSoC5/cyfitter_cfg.c **** 		{ 8u, 0x05u, 0x23u, (uint16)(uint32)(0u), (uint16)(CYREG_PHUB_CFGMEM6_CFG0) },	/* TD 4 */
 370:.\Generated_Source\PSoC5/cyfitter_cfg.c **** 		{ 5u, 0x06u, 0x23u, (uint16)(uint32)(0u), (uint16)(CYREG_PHUB_CH1_BASIC_CFG) },	/* TD 5 */
 371:.\Generated_Source\PSoC5/cyfitter_cfg.c **** 		{ 5u, 0x07u, 0x23u, (uint16)(uint32)(0u), (uint16)(CYREG_PHUB_CH2_BASIC_CFG) },	/* TD 6 */
 372:.\Generated_Source\PSoC5/cyfitter_cfg.c **** 		{ 5u, 0x08u, 0x23u, (uint16)(uint32)(0u), (uint16)(CYREG_PHUB_CH5_BASIC_CFG) },	/* TD 7 */
 373:.\Generated_Source\PSoC5/cyfitter_cfg.c **** 		{ 5u, 0xFEu, 0x23u, (uint16)(uint32)(0u), (uint16)(CYREG_PHUB_CH6_BASIC_CFG) },	/* TD 8 */
 374:.\Generated_Source\PSoC5/cyfitter_cfg.c **** 		{ 48u, 0xFEu, 0x22u, (uint16)(uint32)(0u), (uint16)(CYREG_PRT4_DR) },	/* TD 9 */
 375:.\Generated_Source\PSoC5/cyfitter_cfg.c **** 		{ 384u, 0x0Bu, 0x22u, (uint16)(uint32)(0u), (uint16)(CYDEV_UCFG_B0_P0_U0_BASE) },	/* TD 10 */
 376:.\Generated_Source\PSoC5/cyfitter_cfg.c **** 		{ 1408u, 0x0Cu, 0x22u, (uint16)(uint32)(0u), (uint16)(CYDEV_UCFG_B0_P1_U0_BASE) },	/* TD 11 */
 377:.\Generated_Source\PSoC5/cyfitter_cfg.c **** 		{ 384u, 0x0Du, 0x22u, (uint16)(uint32)(0u), (uint16)(CYDEV_UCFG_B0_P5_U0_BASE) },	/* TD 12 */
 378:.\Generated_Source\PSoC5/cyfitter_cfg.c **** 		{ 384u, 0x0Eu, 0x22u, (uint16)(uint32)(0u), (uint16)(CYDEV_UCFG_B0_P6_U0_BASE) },	/* TD 13 */
 379:.\Generated_Source\PSoC5/cyfitter_cfg.c **** 		{ 384u, 0x0Fu, 0x22u, (uint16)(uint32)(0u), (uint16)(CYDEV_UCFG_B0_P7_U0_BASE) },	/* TD 14 */
 380:.\Generated_Source\PSoC5/cyfitter_cfg.c **** 		{ 384u, 0x10u, 0x22u, (uint16)(uint32)(0u), (uint16)(CYDEV_UCFG_B1_P2_U0_BASE) },	/* TD 15 */
 381:.\Generated_Source\PSoC5/cyfitter_cfg.c **** 		{ 384u, 0x11u, 0x22u, (uint16)(uint32)(0u), (uint16)(CYDEV_UCFG_B1_P3_U0_BASE) },	/* TD 16 */
 382:.\Generated_Source\PSoC5/cyfitter_cfg.c **** 		{ 128u, 0x12u, 0x22u, (uint16)(uint32)(0u), (uint16)(CYDEV_UCFG_DSI2_BASE) },	/* TD 17 */
 383:.\Generated_Source\PSoC5/cyfitter_cfg.c **** 		{ 128u, 0x13u, 0x22u, (uint16)(uint32)(0u), (uint16)(CYDEV_UCFG_DSI3_BASE) },	/* TD 18 */
 384:.\Generated_Source\PSoC5/cyfitter_cfg.c **** 		{ 256u, 0x14u, 0x22u, (uint16)(uint32)(0u), (uint16)(CYDEV_UCFG_DSI4_BASE) },	/* TD 19 */
 385:.\Generated_Source\PSoC5/cyfitter_cfg.c **** 		{ 128u, 0x15u, 0x22u, (uint16)(uint32)(0u), (uint16)(CYDEV_UCFG_DSI6_BASE) },	/* TD 20 */
 386:.\Generated_Source\PSoC5/cyfitter_cfg.c **** 		{ 128u, 0x16u, 0x22u, (uint16)(uint32)(0u), (uint16)(CYDEV_UCFG_DSI8_BASE) },	/* TD 21 */
 387:.\Generated_Source\PSoC5/cyfitter_cfg.c **** 		{ 128u, 0xFEu, 0x22u, (uint16)(uint32)(0u), (uint16)(CYDEV_UCFG_DSI13_BASE) },	/* TD 22 */
 388:.\Generated_Source\PSoC5/cyfitter_cfg.c **** 		{ 7u, 0x18u, 0x23u, (uint16)(uint32)(0u), (uint16)(CYDEV_PRTDSI_PRT0_BASE) },	/* TD 23 */
 389:.\Generated_Source\PSoC5/cyfitter_cfg.c **** 		{ 7u, 0x19u, 0x23u, (uint16)(uint32)(0u), (uint16)(CYDEV_PRTDSI_PRT1_BASE) },	/* TD 24 */
 390:.\Generated_Source\PSoC5/cyfitter_cfg.c **** 		{ 7u, 0x1Au, 0x23u, (uint16)(uint32)(0u), (uint16)(CYDEV_PRTDSI_PRT3_BASE) },	/* TD 25 */
 391:.\Generated_Source\PSoC5/cyfitter_cfg.c **** 		{ 7u, 0x1Bu, 0x23u, (uint16)(uint32)(0u), (uint16)(CYDEV_PRTDSI_PRT15_BASE) },	/* TD 26 */
 392:.\Generated_Source\PSoC5/cyfitter_cfg.c **** 		{ 8u, 0x1Cu, 0x23u, (uint16)(uint32)(0u), (uint16)(CYDEV_PICU_INTTYPE_PICU15_BASE) },	/* TD 27 */
 393:.\Generated_Source\PSoC5/cyfitter_cfg.c **** 		{ 64u, 0x1Du, 0x23u, (uint16)(uint32)(0u), (uint16)(CYDEV_UWRK_UWRK8_B0_BASE) },	/* TD 28 */
 394:.\Generated_Source\PSoC5/cyfitter_cfg.c **** 		{ 32u, 0x1Eu, 0x23u, (uint16)(uint32)(0u), (uint16)(CYDEV_UWRK_UWRK8_B0_BASE + 0x00000070u) },	/*
 395:.\Generated_Source\PSoC5/cyfitter_cfg.c **** 		{ 64u, 0x1Fu, 0x23u, (uint16)(uint32)(0u), (uint16)(CYDEV_UWRK_UWRK8_B1_BASE) },	/* TD 30 */
 396:.\Generated_Source\PSoC5/cyfitter_cfg.c **** 		{ 32u, 0xFEu, 0x23u, (uint16)(uint32)(0u), (uint16)(CYDEV_UWRK_UWRK8_B1_BASE + 0x00000070u) },	/*
ARM GAS  C:\Users\LUKASC~1\AppData\Local\Temp\ccr6U7F6.s 			page 11


 397:.\Generated_Source\PSoC5/cyfitter_cfg.c **** 		{ 8u, 0x21u, 0x23u, (uint16)(uint32)(0u), (uint16)(CYREG_IDMUX_IRQ_CTL0) },	/* TD 32 */
 398:.\Generated_Source\PSoC5/cyfitter_cfg.c **** 		{ 128u, 0x22u, 0x23u, (uint16)(uint32)(0u), (uint16)(CYDEV_UCFG_B0_P4_U0_BASE) },	/* TD 33 */
 399:.\Generated_Source\PSoC5/cyfitter_cfg.c **** 		{ 128u, 0x23u, 0x23u, (uint16)(uint32)(0u), (uint16)(CYDEV_UCFG_B0_P4_U1_BASE) },	/* TD 34 */
 400:.\Generated_Source\PSoC5/cyfitter_cfg.c **** 		{ 128u, 0x24u, 0x23u, (uint16)(uint32)(0u), (uint16)(CYDEV_UCFG_B1_P4_U0_BASE) },	/* TD 35 */
 401:.\Generated_Source\PSoC5/cyfitter_cfg.c **** 		{ 128u, 0x25u, 0x23u, (uint16)(uint32)(0u), (uint16)(CYDEV_UCFG_B1_P4_U1_BASE) },	/* TD 36 */
 402:.\Generated_Source\PSoC5/cyfitter_cfg.c **** 		{ 128u, 0x26u, 0x23u, (uint16)(uint32)(0u), (uint16)(CYDEV_UCFG_B1_P5_U0_BASE) },	/* TD 37 */
 403:.\Generated_Source\PSoC5/cyfitter_cfg.c **** 		{ 128u, 0x27u, 0x23u, (uint16)(uint32)(0u), (uint16)(CYDEV_UCFG_B1_P5_U1_BASE) },	/* TD 38 */
 404:.\Generated_Source\PSoC5/cyfitter_cfg.c **** 		{ 16u, 0x28u, 0x23u, (uint16)(uint32)(0u), (uint16)(CYREG_BCTL1_MDCLK_EN) },	/* TD 39 */
 405:.\Generated_Source\PSoC5/cyfitter_cfg.c **** 		{ 16u, 0x29u, 0x23u, (uint16)(uint32)(0u), (uint16)(CYREG_BCTL0_MDCLK_EN) },	/* TD 40 */
 406:.\Generated_Source\PSoC5/cyfitter_cfg.c **** 		{ 128u, 0x2Au, 0x23u, (uint16)(uint32)(0u), (uint16)(CYDEV_UCFG_DSI13_BASE + 0x00000080u) },	/* T
 407:.\Generated_Source\PSoC5/cyfitter_cfg.c **** 		{ 128u, 0x2Bu, 0x23u, (uint16)(uint32)(0u), (uint16)(CYDEV_UCFG_DSI12_BASE) },	/* TD 42 */
 408:.\Generated_Source\PSoC5/cyfitter_cfg.c **** 		{ 128u, 0x2Cu, 0x23u, (uint16)(uint32)(0u), (uint16)(CYDEV_UCFG_DSI12_BASE + 0x00000080u) },	/* T
 409:.\Generated_Source\PSoC5/cyfitter_cfg.c **** 		{ 128u, 0x2Du, 0x23u, (uint16)(uint32)(0u), (uint16)(CYDEV_UCFG_DSI7_BASE) },	/* TD 44 */
 410:.\Generated_Source\PSoC5/cyfitter_cfg.c **** 		{ 128u, 0x2Eu, 0x23u, (uint16)(uint32)(0u), (uint16)(CYDEV_UCFG_DSI7_BASE + 0x00000080u) },	/* TD
 411:.\Generated_Source\PSoC5/cyfitter_cfg.c **** 		{ 128u, 0x2Fu, 0x23u, (uint16)(uint32)(0u), (uint16)(CYDEV_UCFG_DSI6_BASE + 0x00000080u) },	/* TD
 412:.\Generated_Source\PSoC5/cyfitter_cfg.c **** 		{ 128u, 0x30u, 0x23u, (uint16)(uint32)(0u), (uint16)(CYDEV_UCFG_DSI5_BASE) },	/* TD 47 */
 413:.\Generated_Source\PSoC5/cyfitter_cfg.c **** 		{ 128u, 0x31u, 0x23u, (uint16)(uint32)(0u), (uint16)(CYDEV_UCFG_DSI5_BASE + 0x00000080u) },	/* TD
 414:.\Generated_Source\PSoC5/cyfitter_cfg.c **** 		{ 128u, 0x32u, 0x23u, (uint16)(uint32)(0u), (uint16)(CYDEV_UCFG_B1_P5_ROUTE_BASE) },	/* TD 49 */
 415:.\Generated_Source\PSoC5/cyfitter_cfg.c **** 		{ 128u, 0x33u, 0x23u, (uint16)(uint32)(0u), (uint16)(CYDEV_UCFG_B1_P5_ROUTE_BASE + 0x00000080u) }
 416:.\Generated_Source\PSoC5/cyfitter_cfg.c **** 		{ 128u, 0x34u, 0x23u, (uint16)(uint32)(0u), (uint16)(CYDEV_UCFG_B1_P2_ROUTE_BASE + 0x00000080u) }
 417:.\Generated_Source\PSoC5/cyfitter_cfg.c **** 		{ 128u, 0x35u, 0x23u, (uint16)(uint32)(0u), (uint16)(CYDEV_UCFG_B1_P4_ROUTE_BASE) },	/* TD 52 */
 418:.\Generated_Source\PSoC5/cyfitter_cfg.c **** 		{ 128u, 0x36u, 0x23u, (uint16)(uint32)(0u), (uint16)(CYDEV_UCFG_B1_P4_ROUTE_BASE + 0x00000080u) }
 419:.\Generated_Source\PSoC5/cyfitter_cfg.c **** 		{ 128u, 0x37u, 0x23u, (uint16)(uint32)(0u), (uint16)(CYDEV_UCFG_B1_P3_ROUTE_BASE + 0x00000080u) }
 420:.\Generated_Source\PSoC5/cyfitter_cfg.c **** 		{ 128u, 0x38u, 0x23u, (uint16)(uint32)(0u), (uint16)(CYDEV_UCFG_B0_P4_ROUTE_BASE) },	/* TD 55 */
 421:.\Generated_Source\PSoC5/cyfitter_cfg.c **** 		{ 128u, 0x39u, 0x23u, (uint16)(uint32)(0u), (uint16)(CYDEV_UCFG_B0_P4_ROUTE_BASE + 0x00000080u) }
 422:.\Generated_Source\PSoC5/cyfitter_cfg.c **** 		{ 128u, 0x3Au, 0x23u, (uint16)(uint32)(0u), (uint16)(CYDEV_UCFG_B0_P3_ROUTE_BASE + 0x00000080u) }
 423:.\Generated_Source\PSoC5/cyfitter_cfg.c **** 		{ 128u, 0x3Bu, 0x23u, (uint16)(uint32)(0u), (uint16)(CYDEV_UCFG_B0_P5_ROUTE_BASE + 0x00000080u) }
 424:.\Generated_Source\PSoC5/cyfitter_cfg.c **** 		{ 128u, 0x3Cu, 0x23u, (uint16)(uint32)(0u), (uint16)(CYDEV_UCFG_B0_P6_ROUTE_BASE + 0x00000080u) }
 425:.\Generated_Source\PSoC5/cyfitter_cfg.c **** 		{ 128u, 0x3Du, 0x23u, (uint16)(uint32)(0u), (uint16)(CYDEV_UCFG_B0_P7_ROUTE_BASE + 0x00000080u) }
 426:.\Generated_Source\PSoC5/cyfitter_cfg.c **** 		{ 128u, 0x3Eu, 0x23u, (uint16)(uint32)(0u), (uint16)(CYDEV_UCFG_B0_P0_ROUTE_BASE + 0x00000080u) }
 427:.\Generated_Source\PSoC5/cyfitter_cfg.c **** 		{ 128u, 0x3Fu, 0x23u, (uint16)(uint32)(0u), (uint16)(CYDEV_UCFG_DSI9_BASE) },	/* TD 62 */
 428:.\Generated_Source\PSoC5/cyfitter_cfg.c **** 		{ 128u, 0x40u, 0x23u, (uint16)(uint32)(0u), (uint16)(CYDEV_UCFG_DSI9_BASE + 0x00000080u) },	/* TD
 429:.\Generated_Source\PSoC5/cyfitter_cfg.c **** 		{ 128u, 0x41u, 0x23u, (uint16)(uint32)(0u), (uint16)(CYDEV_UCFG_DSI8_BASE + 0x00000080u) },	/* TD
 430:.\Generated_Source\PSoC5/cyfitter_cfg.c **** 		{ 128u, 0x42u, 0x23u, (uint16)(uint32)(0u), (uint16)(CYDEV_UCFG_DSI3_BASE + 0x00000080u) },	/* TD
 431:.\Generated_Source\PSoC5/cyfitter_cfg.c **** 		{ 128u, 0x43u, 0x23u, (uint16)(uint32)(0u), (uint16)(CYDEV_UCFG_DSI2_BASE + 0x00000080u) },	/* TD
 432:.\Generated_Source\PSoC5/cyfitter_cfg.c **** 		{ 128u, 0x44u, 0x23u, (uint16)(uint32)(0u), (uint16)(CYDEV_UCFG_DSI1_BASE) },	/* TD 67 */
 433:.\Generated_Source\PSoC5/cyfitter_cfg.c **** 		{ 128u, 0x45u, 0x23u, (uint16)(uint32)(0u), (uint16)(CYDEV_UCFG_DSI1_BASE + 0x00000080u) },	/* TD
 434:.\Generated_Source\PSoC5/cyfitter_cfg.c **** 		{ 128u, 0x46u, 0x23u, (uint16)(uint32)(0u), (uint16)(CYDEV_UCFG_DSI0_BASE) },	/* TD 69 */
 435:.\Generated_Source\PSoC5/cyfitter_cfg.c **** 		{ 128u, 0xFEu, 0x23u, (uint16)(uint32)(0u), (uint16)(CYDEV_UCFG_DSI0_BASE + 0x00000080u) },	/* TD
 436:.\Generated_Source\PSoC5/cyfitter_cfg.c **** 	};
 437:.\Generated_Source\PSoC5/cyfitter_cfg.c **** 
 438:.\Generated_Source\PSoC5/cyfitter_cfg.c **** 	/* Source addresses can be relocated, but only when in 32bit addresses.
 439:.\Generated_Source\PSoC5/cyfitter_cfg.c **** 	   Because the standard TD table only has 16bit addresses, we generate a
 440:.\Generated_Source\PSoC5/cyfitter_cfg.c **** 	   separate table for the source addresses that does use 32bit addresses. This
 441:.\Generated_Source\PSoC5/cyfitter_cfg.c **** 	   table will be re-merged with the corresponding CFG_TD_LIST table during
 442:.\Generated_Source\PSoC5/cyfitter_cfg.c **** 	   initialization. */
 443:.\Generated_Source\PSoC5/cyfitter_cfg.c **** 	static const void * const CFG_TD_ADDR0[] = {
 444:.\Generated_Source\PSoC5/cyfitter_cfg.c **** 		(const void *)(CH1_ADDR_DATA0),	/* TD 1 */
 445:.\Generated_Source\PSoC5/cyfitter_cfg.c **** 		(const void *)(CH2_ADDR_DATA0),	/* TD 2 */
 446:.\Generated_Source\PSoC5/cyfitter_cfg.c **** 		(const void *)(CH5_ADDR_DATA0),	/* TD 3 */
 447:.\Generated_Source\PSoC5/cyfitter_cfg.c **** 		(const void *)(CH6_ADDR_DATA0),	/* TD 4 */
 448:.\Generated_Source\PSoC5/cyfitter_cfg.c **** 		(const void *)(DMA_TD_START_CMD),	/* TD 5 */
 449:.\Generated_Source\PSoC5/cyfitter_cfg.c **** 		(const void *)(DMA_TD_START_CMD),	/* TD 6 */
 450:.\Generated_Source\PSoC5/cyfitter_cfg.c **** 		(const void *)(DMA_TD_START_CMD),	/* TD 7 */
 451:.\Generated_Source\PSoC5/cyfitter_cfg.c **** 		(const void *)(DMA_TD_START_CMD),	/* TD 8 */
 452:.\Generated_Source\PSoC5/cyfitter_cfg.c **** 		(const void *)(&DMA_ZERO_VAL),	/* TD 9 */
 453:.\Generated_Source\PSoC5/cyfitter_cfg.c **** 		(const void *)(&DMA_ZERO_VAL),	/* TD 10 */
ARM GAS  C:\Users\LUKASC~1\AppData\Local\Temp\ccr6U7F6.s 			page 12


 454:.\Generated_Source\PSoC5/cyfitter_cfg.c **** 		(const void *)(&DMA_ZERO_VAL),	/* TD 11 */
 455:.\Generated_Source\PSoC5/cyfitter_cfg.c **** 		(const void *)(&DMA_ZERO_VAL),	/* TD 12 */
 456:.\Generated_Source\PSoC5/cyfitter_cfg.c **** 		(const void *)(&DMA_ZERO_VAL),	/* TD 13 */
 457:.\Generated_Source\PSoC5/cyfitter_cfg.c **** 		(const void *)(&DMA_ZERO_VAL),	/* TD 14 */
 458:.\Generated_Source\PSoC5/cyfitter_cfg.c **** 		(const void *)(&DMA_ZERO_VAL),	/* TD 15 */
 459:.\Generated_Source\PSoC5/cyfitter_cfg.c **** 		(const void *)(&DMA_ZERO_VAL),	/* TD 16 */
 460:.\Generated_Source\PSoC5/cyfitter_cfg.c **** 		(const void *)(&DMA_ZERO_VAL),	/* TD 17 */
 461:.\Generated_Source\PSoC5/cyfitter_cfg.c **** 		(const void *)(&DMA_ZERO_VAL),	/* TD 18 */
 462:.\Generated_Source\PSoC5/cyfitter_cfg.c **** 		(const void *)(&DMA_ZERO_VAL),	/* TD 19 */
 463:.\Generated_Source\PSoC5/cyfitter_cfg.c **** 		(const void *)(&DMA_ZERO_VAL),	/* TD 20 */
 464:.\Generated_Source\PSoC5/cyfitter_cfg.c **** 		(const void *)(&DMA_ZERO_VAL),	/* TD 21 */
 465:.\Generated_Source\PSoC5/cyfitter_cfg.c **** 		(const void *)(&DMA_ZERO_VAL),	/* TD 22 */
 466:.\Generated_Source\PSoC5/cyfitter_cfg.c **** 		(const void *)(BS_IOPORT_0_VAL),	/* TD 23 */
 467:.\Generated_Source\PSoC5/cyfitter_cfg.c **** 		(const void *)(BS_IOPORT_1_VAL),	/* TD 24 */
 468:.\Generated_Source\PSoC5/cyfitter_cfg.c **** 		(const void *)(BS_IOPORT_3_VAL),	/* TD 25 */
 469:.\Generated_Source\PSoC5/cyfitter_cfg.c **** 		(const void *)(BS_IOPORT_8_VAL),	/* TD 26 */
 470:.\Generated_Source\PSoC5/cyfitter_cfg.c **** 		(const void *)(BS_PICU_8_VAL),	/* TD 27 */
 471:.\Generated_Source\PSoC5/cyfitter_cfg.c **** 		(const void *)(BS_UWRK_B0_WRK_DP_BITS_VAL),	/* TD 28 */
 472:.\Generated_Source\PSoC5/cyfitter_cfg.c **** 		(const void *)(BS_UWRK_B0_WRK_STATCTL_BITS_VAL),	/* TD 29 */
 473:.\Generated_Source\PSoC5/cyfitter_cfg.c **** 		(const void *)(BS_UWRK_B1_WRK_DP_BITS_VAL),	/* TD 30 */
 474:.\Generated_Source\PSoC5/cyfitter_cfg.c **** 		(const void *)(BS_UWRK_B1_WRK_STATCTL_BITS_VAL),	/* TD 31 */
 475:.\Generated_Source\PSoC5/cyfitter_cfg.c **** 		(const void *)(BS_IDMUX_IRQ_VAL),	/* TD 32 */
 476:.\Generated_Source\PSoC5/cyfitter_cfg.c **** 		(const void *)(BS_UDB_0_2_1_CONFIG_VAL),	/* TD 33 */
 477:.\Generated_Source\PSoC5/cyfitter_cfg.c **** 		(const void *)(BS_UDB_0_2_0_CONFIG_VAL),	/* TD 34 */
 478:.\Generated_Source\PSoC5/cyfitter_cfg.c **** 		(const void *)(BS_UDB_0_1_1_CONFIG_VAL),	/* TD 35 */
 479:.\Generated_Source\PSoC5/cyfitter_cfg.c **** 		(const void *)(BS_UDB_0_1_0_CONFIG_VAL),	/* TD 36 */
 480:.\Generated_Source\PSoC5/cyfitter_cfg.c **** 		(const void *)(BS_UDB_0_0_0_CONFIG_VAL),	/* TD 37 */
 481:.\Generated_Source\PSoC5/cyfitter_cfg.c **** 		(const void *)(BS_UDB_0_0_1_CONFIG_VAL),	/* TD 38 */
 482:.\Generated_Source\PSoC5/cyfitter_cfg.c **** 		(const void *)(BS_UCFG_BCTL1_VAL),	/* TD 39 */
 483:.\Generated_Source\PSoC5/cyfitter_cfg.c **** 		(const void *)(BS_UCFG_BCTL0_VAL),	/* TD 40 */
 484:.\Generated_Source\PSoC5/cyfitter_cfg.c **** 		(const void *)(BS_DSI0_0_HV_ROUTING_VAL),	/* TD 41 */
 485:.\Generated_Source\PSoC5/cyfitter_cfg.c **** 		(const void *)(BS_DSISWITCH_0_1_VAL),	/* TD 42 */
 486:.\Generated_Source\PSoC5/cyfitter_cfg.c **** 		(const void *)(BS_DSI0_1_HV_ROUTING_VAL),	/* TD 43 */
 487:.\Generated_Source\PSoC5/cyfitter_cfg.c **** 		(const void *)(BS_DSISWITCH_0_2_VAL),	/* TD 44 */
 488:.\Generated_Source\PSoC5/cyfitter_cfg.c **** 		(const void *)(BS_DSI0_2_HV_ROUTING_VAL),	/* TD 45 */
 489:.\Generated_Source\PSoC5/cyfitter_cfg.c **** 		(const void *)(BS_DSI0_3_HV_ROUTING_VAL),	/* TD 46 */
 490:.\Generated_Source\PSoC5/cyfitter_cfg.c **** 		(const void *)(BS_DSISWITCH_0_4_VAL),	/* TD 47 */
 491:.\Generated_Source\PSoC5/cyfitter_cfg.c **** 		(const void *)(BS_DSI0_4_HV_ROUTING_VAL),	/* TD 48 */
 492:.\Generated_Source\PSoC5/cyfitter_cfg.c **** 		(const void *)(BS_UDBSWITCH_0_0_VAL),	/* TD 49 */
 493:.\Generated_Source\PSoC5/cyfitter_cfg.c **** 		(const void *)(BS_UDB_1_0_HV_ROUTING_VAL),	/* TD 50 */
 494:.\Generated_Source\PSoC5/cyfitter_cfg.c **** 		(const void *)(BS_UDB_2_0_HV_ROUTING_VAL),	/* TD 51 */
 495:.\Generated_Source\PSoC5/cyfitter_cfg.c **** 		(const void *)(BS_UDBSWITCH_0_1_VAL),	/* TD 52 */
 496:.\Generated_Source\PSoC5/cyfitter_cfg.c **** 		(const void *)(BS_UDB_1_1_HV_ROUTING_VAL),	/* TD 53 */
 497:.\Generated_Source\PSoC5/cyfitter_cfg.c **** 		(const void *)(BS_UDB_2_1_HV_ROUTING_VAL),	/* TD 54 */
 498:.\Generated_Source\PSoC5/cyfitter_cfg.c **** 		(const void *)(BS_UDBSWITCH_0_2_VAL),	/* TD 55 */
 499:.\Generated_Source\PSoC5/cyfitter_cfg.c **** 		(const void *)(BS_UDB_1_2_HV_ROUTING_VAL),	/* TD 56 */
 500:.\Generated_Source\PSoC5/cyfitter_cfg.c **** 		(const void *)(BS_UDB_2_2_HV_ROUTING_VAL),	/* TD 57 */
 501:.\Generated_Source\PSoC5/cyfitter_cfg.c **** 		(const void *)(BS_UDB_1_3_HV_ROUTING_VAL),	/* TD 58 */
 502:.\Generated_Source\PSoC5/cyfitter_cfg.c **** 		(const void *)(BS_UDB_1_4_HV_ROUTING_VAL),	/* TD 59 */
 503:.\Generated_Source\PSoC5/cyfitter_cfg.c **** 		(const void *)(BS_UDB_1_5_HV_ROUTING_VAL),	/* TD 60 */
 504:.\Generated_Source\PSoC5/cyfitter_cfg.c **** 		(const void *)(BS_UDB_2_5_HV_ROUTING_VAL),	/* TD 61 */
 505:.\Generated_Source\PSoC5/cyfitter_cfg.c **** 		(const void *)(BS_DSISWITCH_1_0_VAL),	/* TD 62 */
 506:.\Generated_Source\PSoC5/cyfitter_cfg.c **** 		(const void *)(BS_DSI3_0_HV_ROUTING_VAL),	/* TD 63 */
 507:.\Generated_Source\PSoC5/cyfitter_cfg.c **** 		(const void *)(BS_DSI3_1_HV_ROUTING_VAL),	/* TD 64 */
 508:.\Generated_Source\PSoC5/cyfitter_cfg.c **** 		(const void *)(BS_DSI3_2_HV_ROUTING_VAL),	/* TD 65 */
 509:.\Generated_Source\PSoC5/cyfitter_cfg.c **** 		(const void *)(BS_DSI3_3_HV_ROUTING_VAL),	/* TD 66 */
 510:.\Generated_Source\PSoC5/cyfitter_cfg.c **** 		(const void *)(BS_DSISWITCH_1_4_VAL),	/* TD 67 */
ARM GAS  C:\Users\LUKASC~1\AppData\Local\Temp\ccr6U7F6.s 			page 13


 511:.\Generated_Source\PSoC5/cyfitter_cfg.c **** 		(const void *)(BS_DSI3_4_HV_ROUTING_VAL),	/* TD 68 */
 512:.\Generated_Source\PSoC5/cyfitter_cfg.c **** 		(const void *)(BS_DSISWITCH_1_5_VAL),	/* TD 69 */
 513:.\Generated_Source\PSoC5/cyfitter_cfg.c **** 		(const void *)(BS_DSI3_5_HV_ROUTING_VAL),	/* TD 70 */
 514:.\Generated_Source\PSoC5/cyfitter_cfg.c **** 	};
 515:.\Generated_Source\PSoC5/cyfitter_cfg.c **** 
 516:.\Generated_Source\PSoC5/cyfitter_cfg.c **** 
 517:.\Generated_Source\PSoC5/cyfitter_cfg.c **** 	uint32 i;
 518:.\Generated_Source\PSoC5/cyfitter_cfg.c **** 
 519:.\Generated_Source\PSoC5/cyfitter_cfg.c **** 	DMA_ZERO_VAL = 0u;
 175              		.loc 1 519 0
 176 0006 434B     		ldr	r3, .L15
 177 0008 0022     		movs	r2, #0
 178 000a 1A60     		str	r2, [r3]
 520:.\Generated_Source\PSoC5/cyfitter_cfg.c **** 	CY_SET_REG8((void CYXDATA *)CYREG_PHUB_CFGMEM0_CFG0, 0x10u);	/* set burstcnt */
 179              		.loc 1 520 0
 180 000c 424B     		ldr	r3, .L15+4
 181 000e 1022     		movs	r2, #16
 182 0010 1A70     		strb	r2, [r3]
 521:.\Generated_Source\PSoC5/cyfitter_cfg.c **** 	CY_SET_REG8((void CYXDATA *)CYREG_PHUB_CH0_BASIC_CFG, 0x01u);	/* enable ch0 */
 183              		.loc 1 521 0
 184 0012 424B     		ldr	r3, .L15+8
 185 0014 0122     		movs	r2, #1
 186 0016 1A70     		strb	r2, [r3]
 522:.\Generated_Source\PSoC5/cyfitter_cfg.c **** 	CY_SET_REG8((void CYXDATA *)(CYREG_PHUB_CH0_BASIC_STATUS+1u), 0x00u);	/* set first TD to 0 */
 187              		.loc 1 522 0
 188 0018 414B     		ldr	r3, .L15+12
 189 001a 0022     		movs	r2, #0
 190 001c 1A70     		strb	r2, [r3]
 523:.\Generated_Source\PSoC5/cyfitter_cfg.c **** 	CY_SET_REG16((void CYXDATA *)CYREG_PHUB_TDMEM0_ORIG_TD0, 70u*8u);	/* transfer size */
 191              		.loc 1 523 0
 192 001e 414B     		ldr	r3, .L15+16
 193 0020 4FF40C72 		mov	r2, #560
 194 0024 1A80     		strh	r2, [r3]	@ movhi
 524:.\Generated_Source\PSoC5/cyfitter_cfg.c **** 	CY_SET_REG8((void CYXDATA *)(CYREG_PHUB_TDMEM0_ORIG_TD0+2u), 0x01u);	/* set next TD to 1 */
 195              		.loc 1 524 0
 196 0026 404B     		ldr	r3, .L15+20
 197 0028 0122     		movs	r2, #1
 198 002a 1A70     		strb	r2, [r3]
 525:.\Generated_Source\PSoC5/cyfitter_cfg.c **** 	CY_SET_REG8((void CYXDATA *)(CYREG_PHUB_TDMEM0_ORIG_TD0+3u), 0x03u);	/* set TD flags */
 199              		.loc 1 525 0
 200 002c 3F4B     		ldr	r3, .L15+24
 201 002e 0322     		movs	r2, #3
 202 0030 1A70     		strb	r2, [r3]
 526:.\Generated_Source\PSoC5/cyfitter_cfg.c **** 	CY_SET_REG16((void CYXDATA *)CYREG_PHUB_TDMEM0_ORIG_TD1, (uint16)((uint32)CFG_TD_LIST0 & 0x0000FFF
 203              		.loc 1 526 0
 204 0032 3F4B     		ldr	r3, .L15+28
 205 0034 3F4A     		ldr	r2, .L15+32
 206 0036 92B2     		uxth	r2, r2
 207 0038 1A80     		strh	r2, [r3]	@ movhi
 527:.\Generated_Source\PSoC5/cyfitter_cfg.c **** 	CY_SET_REG16((void CYXDATA *)(CYREG_PHUB_TDMEM0_ORIG_TD1+2u), CYDEV_PHUB_TDMEM1_BASE);	/* set td0'
 208              		.loc 1 527 0
 209 003a 3F4B     		ldr	r3, .L15+36
 210 003c 47F60802 		movw	r2, #30728
 211 0040 1A80     		strh	r2, [r3]	@ movhi
 528:.\Generated_Source\PSoC5/cyfitter_cfg.c **** 	CY_SET_REG16((void CYXDATA *)CYREG_PHUB_CFGMEM0_CFG1, (uint16)(CYDEV_FLASH_BASE >> 16));	/* set ch
 212              		.loc 1 528 0
 213 0042 3E4B     		ldr	r3, .L15+40
ARM GAS  C:\Users\LUKASC~1\AppData\Local\Temp\ccr6U7F6.s 			page 14


 214 0044 0022     		movs	r2, #0
 215 0046 1A80     		strh	r2, [r3]	@ movhi
 529:.\Generated_Source\PSoC5/cyfitter_cfg.c **** 	CY_SET_REG16((void CYXDATA *)(CYREG_PHUB_CFGMEM0_CFG1+2u), (uint16)(CYDEV_PHUB_TDMEM1_BASE >> 16))
 216              		.loc 1 529 0
 217 0048 3D4B     		ldr	r3, .L15+44
 218 004a 4FF48042 		mov	r2, #16384
 219 004e 1A80     		strh	r2, [r3]	@ movhi
 530:.\Generated_Source\PSoC5/cyfitter_cfg.c **** 	CY_SET_REG8((void CYXDATA *)(CYREG_PHUB_CH1_BASIC_STATUS+1u), 0x09u);	/* ch1 first TD: 9 */
 220              		.loc 1 530 0
 221 0050 3C4B     		ldr	r3, .L15+48
 222 0052 0922     		movs	r2, #9
 223 0054 1A70     		strb	r2, [r3]
 531:.\Generated_Source\PSoC5/cyfitter_cfg.c **** 	CY_SET_REG8((void CYXDATA *)(CYREG_PHUB_CH2_BASIC_STATUS+1u), 0x0Au);	/* ch2 first TD: 10 */
 224              		.loc 1 531 0
 225 0056 3C4B     		ldr	r3, .L15+52
 226 0058 0A22     		movs	r2, #10
 227 005a 1A70     		strb	r2, [r3]
 532:.\Generated_Source\PSoC5/cyfitter_cfg.c **** 	CY_SET_REG8((void CYXDATA *)(CYREG_PHUB_CH5_BASIC_STATUS+1u), 0x17u);	/* ch5 first TD: 23 */
 228              		.loc 1 532 0
 229 005c 3B4B     		ldr	r3, .L15+56
 230 005e 1722     		movs	r2, #23
 231 0060 1A70     		strb	r2, [r3]
 533:.\Generated_Source\PSoC5/cyfitter_cfg.c **** 	CY_SET_REG8((void CYXDATA *)(CYREG_PHUB_CH6_BASIC_STATUS+1u), 0x20u);	/* ch6 first TD: 32 */
 232              		.loc 1 533 0
 233 0062 3B4B     		ldr	r3, .L15+60
 234 0064 2022     		movs	r2, #32
 235 0066 1A70     		strb	r2, [r3]
 534:.\Generated_Source\PSoC5/cyfitter_cfg.c **** 
 535:.\Generated_Source\PSoC5/cyfitter_cfg.c **** 	CY_CFG_MEMORY_BARRIER();
 236              		.loc 1 535 0
 237 0068 BFF35F8F 		dmb	sy
 536:.\Generated_Source\PSoC5/cyfitter_cfg.c **** 	CY_SET_REG8((void CYXDATA *)CYREG_PHUB_CH0_ACTION, 0x01u); /* cpu_req */
 238              		.loc 1 536 0
 239 006c 394B     		ldr	r3, .L15+64
 240 006e 0122     		movs	r2, #1
 241 0070 1A70     		strb	r2, [r3]
 537:.\Generated_Source\PSoC5/cyfitter_cfg.c **** 	CY_CFG_MEMORY_BARRIER();
 242              		.loc 1 537 0
 243 0072 BFF35F8F 		dmb	sy
 538:.\Generated_Source\PSoC5/cyfitter_cfg.c **** 
 539:.\Generated_Source\PSoC5/cyfitter_cfg.c **** 	/* Wait for TDs to be copied into TDMEM */
 540:.\Generated_Source\PSoC5/cyfitter_cfg.c **** 	while (CY_GET_REG16((void CYXDATA *)CYREG_PHUB_TDMEM0_ORIG_TD0) != 0u) { }
 244              		.loc 1 540 0
 245 0076 00BF     		nop
 246              	.L7:
 247              		.loc 1 540 0 is_stmt 0 discriminator 1
 248 0078 2A4B     		ldr	r3, .L15+16
 249 007a 1B88     		ldrh	r3, [r3]	@ movhi
 250 007c 9BB2     		uxth	r3, r3
 251 007e 002B     		cmp	r3, #0
 252 0080 FAD1     		bne	.L7
 541:.\Generated_Source\PSoC5/cyfitter_cfg.c **** 
 542:.\Generated_Source\PSoC5/cyfitter_cfg.c **** 	/* Recombine TD source table (CFG_TD_ADDR0) with full TD table (CFG_TD_LIST0) */
 543:.\Generated_Source\PSoC5/cyfitter_cfg.c **** 	for (i = 0u; i < 70u; i++)
 253              		.loc 1 543 0 is_stmt 1
 254 0082 0023     		movs	r3, #0
 255 0084 7B60     		str	r3, [r7, #4]
ARM GAS  C:\Users\LUKASC~1\AppData\Local\Temp\ccr6U7F6.s 			page 15


 256 0086 0DE0     		b	.L8
 257              	.L9:
 544:.\Generated_Source\PSoC5/cyfitter_cfg.c **** 	{
 545:.\Generated_Source\PSoC5/cyfitter_cfg.c **** 		CY_SET_REG16((void CYXDATA *)(CYREG_PHUB_TDMEM1_ORIG_TD1 + (sizeof(struct td_t)*i)), (uint16)(uin
 258              		.loc 1 545 0 discriminator 3
 259 0088 7B68     		ldr	r3, [r7, #4]
 260 008a DA00     		lsls	r2, r3, #3
 261 008c 324B     		ldr	r3, .L15+68
 262 008e 1344     		add	r3, r3, r2
 263 0090 1946     		mov	r1, r3
 264 0092 324A     		ldr	r2, .L15+72
 265 0094 7B68     		ldr	r3, [r7, #4]
 266 0096 52F82330 		ldr	r3, [r2, r3, lsl #2]
 267 009a 9BB2     		uxth	r3, r3
 268 009c 0B80     		strh	r3, [r1]	@ movhi
 543:.\Generated_Source\PSoC5/cyfitter_cfg.c **** 	{
 269              		.loc 1 543 0 discriminator 3
 270 009e 7B68     		ldr	r3, [r7, #4]
 271 00a0 0133     		adds	r3, r3, #1
 272 00a2 7B60     		str	r3, [r7, #4]
 273              	.L8:
 543:.\Generated_Source\PSoC5/cyfitter_cfg.c **** 	{
 274              		.loc 1 543 0 is_stmt 0 discriminator 1
 275 00a4 7B68     		ldr	r3, [r7, #4]
 276 00a6 452B     		cmp	r3, #69
 277 00a8 EED9     		bls	.L9
 546:.\Generated_Source\PSoC5/cyfitter_cfg.c **** 	}
 547:.\Generated_Source\PSoC5/cyfitter_cfg.c **** 
 548:.\Generated_Source\PSoC5/cyfitter_cfg.c **** 	CY_CFG_MEMORY_BARRIER();
 278              		.loc 1 548 0 is_stmt 1
 279 00aa BFF35F8F 		dmb	sy
 549:.\Generated_Source\PSoC5/cyfitter_cfg.c **** 	CY_SET_REG8((void CYXDATA *)CYREG_PHUB_CH0_ACTION, 0x01u); /* cpu_req */
 280              		.loc 1 549 0
 281 00ae 294B     		ldr	r3, .L15+64
 282 00b0 0122     		movs	r2, #1
 283 00b2 1A70     		strb	r2, [r3]
 550:.\Generated_Source\PSoC5/cyfitter_cfg.c **** 	CY_CFG_MEMORY_BARRIER();
 284              		.loc 1 550 0
 285 00b4 BFF35F8F 		dmb	sy
 551:.\Generated_Source\PSoC5/cyfitter_cfg.c **** 
 552:.\Generated_Source\PSoC5/cyfitter_cfg.c **** 	/* Wait for all DMA transfers to complete */
 553:.\Generated_Source\PSoC5/cyfitter_cfg.c **** 	while(0u != (CY_GET_REG8((void CYXDATA *)CYREG_PHUB_CH0_BASIC_STATUS) & 0x01u)){}
 286              		.loc 1 553 0
 287 00b8 00BF     		nop
 288              	.L10:
 289              		.loc 1 553 0 is_stmt 0 discriminator 1
 290 00ba 294B     		ldr	r3, .L15+76
 291 00bc 1B78     		ldrb	r3, [r3]
 292 00be DBB2     		uxtb	r3, r3
 293 00c0 03F00103 		and	r3, r3, #1
 294 00c4 002B     		cmp	r3, #0
 295 00c6 F8D1     		bne	.L10
 554:.\Generated_Source\PSoC5/cyfitter_cfg.c **** 	while(0u != (CY_GET_REG8((void CYXDATA *)CYREG_PHUB_CH1_BASIC_STATUS) & 0x01u)){}
 296              		.loc 1 554 0 is_stmt 1
 297 00c8 00BF     		nop
 298              	.L11:
 299              		.loc 1 554 0 is_stmt 0 discriminator 1
ARM GAS  C:\Users\LUKASC~1\AppData\Local\Temp\ccr6U7F6.s 			page 16


 300 00ca 264B     		ldr	r3, .L15+80
 301 00cc 1B78     		ldrb	r3, [r3]
 302 00ce DBB2     		uxtb	r3, r3
 303 00d0 03F00103 		and	r3, r3, #1
 304 00d4 002B     		cmp	r3, #0
 305 00d6 F8D1     		bne	.L11
 555:.\Generated_Source\PSoC5/cyfitter_cfg.c **** 	while(0u != (CY_GET_REG8((void CYXDATA *)CYREG_PHUB_CH2_BASIC_STATUS) & 0x01u)){}
 306              		.loc 1 555 0 is_stmt 1
 307 00d8 00BF     		nop
 308              	.L12:
 309              		.loc 1 555 0 is_stmt 0 discriminator 1
 310 00da 234B     		ldr	r3, .L15+84
 311 00dc 1B78     		ldrb	r3, [r3]
 312 00de DBB2     		uxtb	r3, r3
 313 00e0 03F00103 		and	r3, r3, #1
 314 00e4 002B     		cmp	r3, #0
 315 00e6 F8D1     		bne	.L12
 556:.\Generated_Source\PSoC5/cyfitter_cfg.c **** 	while(0u != (CY_GET_REG8((void CYXDATA *)CYREG_PHUB_CH5_BASIC_STATUS) & 0x01u)){}
 316              		.loc 1 556 0 is_stmt 1
 317 00e8 00BF     		nop
 318              	.L13:
 319              		.loc 1 556 0 is_stmt 0 discriminator 1
 320 00ea 204B     		ldr	r3, .L15+88
 321 00ec 1B78     		ldrb	r3, [r3]
 322 00ee DBB2     		uxtb	r3, r3
 323 00f0 03F00103 		and	r3, r3, #1
 324 00f4 002B     		cmp	r3, #0
 325 00f6 F8D1     		bne	.L13
 557:.\Generated_Source\PSoC5/cyfitter_cfg.c **** 	while(0u != (CY_GET_REG8((void CYXDATA *)CYREG_PHUB_CH6_BASIC_STATUS) & 0x01u)){}
 326              		.loc 1 557 0 is_stmt 1
 327 00f8 00BF     		nop
 328              	.L14:
 329              		.loc 1 557 0 is_stmt 0 discriminator 1
 330 00fa 1D4B     		ldr	r3, .L15+92
 331 00fc 1B78     		ldrb	r3, [r3]
 332 00fe DBB2     		uxtb	r3, r3
 333 0100 03F00103 		and	r3, r3, #1
 334 0104 002B     		cmp	r3, #0
 335 0106 F8D1     		bne	.L14
 558:.\Generated_Source\PSoC5/cyfitter_cfg.c **** 
 559:.\Generated_Source\PSoC5/cyfitter_cfg.c **** 
 560:.\Generated_Source\PSoC5/cyfitter_cfg.c **** }
 336              		.loc 1 560 0 is_stmt 1
 337 0108 0C37     		adds	r7, r7, #12
 338              		.cfi_def_cfa_offset 4
 339 010a BD46     		mov	sp, r7
 340              		.cfi_def_cfa_register 13
 341              		@ sp needed
 342 010c 5DF8047B 		ldr	r7, [sp], #4
 343              		.cfi_restore 7
 344              		.cfi_def_cfa_offset 0
 345 0110 7047     		bx	lr
 346              	.L16:
 347 0112 00BF     		.align	2
 348              	.L15:
 349 0114 00000000 		.word	DMA_ZERO_VAL.4854
 350 0118 00760040 		.word	1073772032
ARM GAS  C:\Users\LUKASC~1\AppData\Local\Temp\ccr6U7F6.s 			page 17


 351 011c 10700040 		.word	1073770512
 352 0120 19700040 		.word	1073770521
 353 0124 00780040 		.word	1073772544
 354 0128 02780040 		.word	1073772546
 355 012c 03780040 		.word	1073772547
 356 0130 04780040 		.word	1073772548
 357 0134 00000000 		.word	CFG_TD_LIST0.4855
 358 0138 06780040 		.word	1073772550
 359 013c 04760040 		.word	1073772036
 360 0140 06760040 		.word	1073772038
 361 0144 29700040 		.word	1073770537
 362 0148 39700040 		.word	1073770553
 363 014c 69700040 		.word	1073770601
 364 0150 79700040 		.word	1073770617
 365 0154 14700040 		.word	1073770516
 366 0158 0C780040 		.word	1073772556
 367 015c 80000000 		.word	CFG_TD_ADDR0.4856
 368 0160 18700040 		.word	1073770520
 369 0164 28700040 		.word	1073770536
 370 0168 38700040 		.word	1073770552
 371 016c 68700040 		.word	1073770600
 372 0170 78700040 		.word	1073770616
 373              		.cfi_endproc
 374              	.LFE4:
 375              		.size	cfg_dma_init, .-cfg_dma_init
 376              		.section	.text.ClockSetup,"ax",%progbits
 377              		.align	2
 378              		.thumb
 379              		.thumb_func
 380              		.type	ClockSetup, %function
 381              	ClockSetup:
 382              	.LFB5:
 561:.\Generated_Source\PSoC5/cyfitter_cfg.c **** /*******************************************************************************
 562:.\Generated_Source\PSoC5/cyfitter_cfg.c **** * Function Name: ClockSetup
 563:.\Generated_Source\PSoC5/cyfitter_cfg.c **** ********************************************************************************
 564:.\Generated_Source\PSoC5/cyfitter_cfg.c **** *
 565:.\Generated_Source\PSoC5/cyfitter_cfg.c **** * Summary:
 566:.\Generated_Source\PSoC5/cyfitter_cfg.c **** *  Performs the initialization of all of the clocks in the device based on the
 567:.\Generated_Source\PSoC5/cyfitter_cfg.c **** *  settings in the Clock tab of the DWR.  This includes enabling the requested
 568:.\Generated_Source\PSoC5/cyfitter_cfg.c **** *  clocks and setting the necessary dividers to produce the desired frequency. 
 569:.\Generated_Source\PSoC5/cyfitter_cfg.c **** *
 570:.\Generated_Source\PSoC5/cyfitter_cfg.c **** * Parameters:
 571:.\Generated_Source\PSoC5/cyfitter_cfg.c **** *  void
 572:.\Generated_Source\PSoC5/cyfitter_cfg.c **** *
 573:.\Generated_Source\PSoC5/cyfitter_cfg.c **** * Return:
 574:.\Generated_Source\PSoC5/cyfitter_cfg.c **** *  void
 575:.\Generated_Source\PSoC5/cyfitter_cfg.c **** *
 576:.\Generated_Source\PSoC5/cyfitter_cfg.c **** *******************************************************************************/
 577:.\Generated_Source\PSoC5/cyfitter_cfg.c **** static void ClockSetup(void);
 578:.\Generated_Source\PSoC5/cyfitter_cfg.c **** static void ClockSetup(void)
 579:.\Generated_Source\PSoC5/cyfitter_cfg.c **** {
 383              		.loc 1 579 0
 384              		.cfi_startproc
 385              		@ args = 0, pretend = 0, frame = 8
 386              		@ frame_needed = 1, uses_anonymous_args = 0
 387 0000 80B5     		push	{r7, lr}
 388              		.cfi_def_cfa_offset 8
ARM GAS  C:\Users\LUKASC~1\AppData\Local\Temp\ccr6U7F6.s 			page 18


 389              		.cfi_offset 7, -8
 390              		.cfi_offset 14, -4
 391 0002 82B0     		sub	sp, sp, #8
 392              		.cfi_def_cfa_offset 16
 393 0004 00AF     		add	r7, sp, #0
 394              		.cfi_def_cfa_register 7
 580:.\Generated_Source\PSoC5/cyfitter_cfg.c **** 	uint32 timeout;
 581:.\Generated_Source\PSoC5/cyfitter_cfg.c **** 	uint8 pllLock;
 582:.\Generated_Source\PSoC5/cyfitter_cfg.c **** 
 583:.\Generated_Source\PSoC5/cyfitter_cfg.c **** 
 584:.\Generated_Source\PSoC5/cyfitter_cfg.c **** 	/* Configure Digital Clocks based on settings from Clock DWR */
 585:.\Generated_Source\PSoC5/cyfitter_cfg.c **** 	CY_SET_XTND_REG16((void CYFAR *)(CYREG_CLKDIST_DCFG0_CFG0), 0x0001u);
 395              		.loc 1 585 0
 396 0006 334B     		ldr	r3, .L22
 397 0008 0122     		movs	r2, #1
 398 000a 1A80     		strh	r2, [r3]	@ movhi
 586:.\Generated_Source\PSoC5/cyfitter_cfg.c **** 	CY_SET_XTND_REG8((void CYFAR *)(CYREG_CLKDIST_DCFG0_CFG0 + 0x2u), 0x19u);
 399              		.loc 1 586 0
 400 000c 324B     		ldr	r3, .L22+4
 401 000e 1922     		movs	r2, #25
 402 0010 1A70     		strb	r2, [r3]
 587:.\Generated_Source\PSoC5/cyfitter_cfg.c **** 	CY_SET_XTND_REG16((void CYFAR *)(CYREG_CLKDIST_DCFG1_CFG0), 0x0041u);
 403              		.loc 1 587 0
 404 0012 324B     		ldr	r3, .L22+8
 405 0014 4122     		movs	r2, #65
 406 0016 1A80     		strh	r2, [r3]	@ movhi
 588:.\Generated_Source\PSoC5/cyfitter_cfg.c **** 	CY_SET_XTND_REG8((void CYFAR *)(CYREG_CLKDIST_DCFG1_CFG0 + 0x2u), 0x18u);
 407              		.loc 1 588 0
 408 0018 314B     		ldr	r3, .L22+12
 409 001a 1822     		movs	r2, #24
 410 001c 1A70     		strb	r2, [r3]
 589:.\Generated_Source\PSoC5/cyfitter_cfg.c **** 
 590:.\Generated_Source\PSoC5/cyfitter_cfg.c **** 	/* Configure ILO based on settings from Clock DWR */
 591:.\Generated_Source\PSoC5/cyfitter_cfg.c **** 	CY_SET_XTND_REG8((void CYFAR *)(CYREG_SLOWCLK_ILO_CR0), 0x06u);
 411              		.loc 1 591 0
 412 001e 314B     		ldr	r3, .L22+16
 413 0020 0622     		movs	r2, #6
 414 0022 1A70     		strb	r2, [r3]
 592:.\Generated_Source\PSoC5/cyfitter_cfg.c **** 
 593:.\Generated_Source\PSoC5/cyfitter_cfg.c **** 	/* Configure IMO based on settings from Clock DWR */
 594:.\Generated_Source\PSoC5/cyfitter_cfg.c **** 	CY_SET_XTND_REG8((void CYFAR *)(CYREG_FASTCLK_IMO_CR), 0x52u);
 415              		.loc 1 594 0
 416 0024 304B     		ldr	r3, .L22+20
 417 0026 5222     		movs	r2, #82
 418 0028 1A70     		strb	r2, [r3]
 595:.\Generated_Source\PSoC5/cyfitter_cfg.c **** 	CY_SET_XTND_REG8((void CYFAR *)(CYREG_IMO_TR1), (CY_GET_XTND_REG8((void CYFAR *)CYREG_FLSHID_CUST_
 419              		.loc 1 595 0
 420 002a 304B     		ldr	r3, .L22+24
 421 002c 304A     		ldr	r2, .L22+28
 422 002e 1278     		ldrb	r2, [r2]
 423 0030 D2B2     		uxtb	r2, r2
 424 0032 1A70     		strb	r2, [r3]
 596:.\Generated_Source\PSoC5/cyfitter_cfg.c **** 
 597:.\Generated_Source\PSoC5/cyfitter_cfg.c **** 	/* Configure PLL based on settings from Clock DWR */
 598:.\Generated_Source\PSoC5/cyfitter_cfg.c **** 	CY_SET_XTND_REG16((void CYFAR *)(CYREG_FASTCLK_PLL_P), 0x070Bu);
 425              		.loc 1 598 0
 426 0034 2F4B     		ldr	r3, .L22+32
ARM GAS  C:\Users\LUKASC~1\AppData\Local\Temp\ccr6U7F6.s 			page 19


 427 0036 40F20B72 		movw	r2, #1803
 428 003a 1A80     		strh	r2, [r3]	@ movhi
 599:.\Generated_Source\PSoC5/cyfitter_cfg.c **** 	CY_SET_XTND_REG16((void CYFAR *)(CYREG_FASTCLK_PLL_CFG0), 0x1251u);
 429              		.loc 1 599 0
 430 003c 2E4B     		ldr	r3, .L22+36
 431 003e 41F25122 		movw	r2, #4689
 432 0042 1A80     		strh	r2, [r3]	@ movhi
 600:.\Generated_Source\PSoC5/cyfitter_cfg.c **** 	/* Wait up to 250us for the PLL to lock */
 601:.\Generated_Source\PSoC5/cyfitter_cfg.c **** 	pllLock = 0u;
 433              		.loc 1 601 0
 434 0044 0023     		movs	r3, #0
 435 0046 FB70     		strb	r3, [r7, #3]
 602:.\Generated_Source\PSoC5/cyfitter_cfg.c **** 	for (timeout = 250u / 10u; (timeout > 0u) && (pllLock != 0x03u); timeout--)
 436              		.loc 1 602 0
 437 0048 1923     		movs	r3, #25
 438 004a 7B60     		str	r3, [r7, #4]
 439 004c 14E0     		b	.L18
 440              	.L20:
 603:.\Generated_Source\PSoC5/cyfitter_cfg.c **** 	{ 
 604:.\Generated_Source\PSoC5/cyfitter_cfg.c **** 		pllLock = 0x03u & ((uint8)((uint8)pllLock << 1) | ((CY_GET_XTND_REG8((void CYFAR *)CYREG_FASTCLK_
 441              		.loc 1 604 0 discriminator 4
 442 004e FB78     		ldrb	r3, [r7, #3]
 443 0050 5B00     		lsls	r3, r3, #1
 444 0052 DAB2     		uxtb	r2, r3
 445 0054 294B     		ldr	r3, .L22+40
 446 0056 1B78     		ldrb	r3, [r3]
 447 0058 DBB2     		uxtb	r3, r3
 448 005a 03F00103 		and	r3, r3, #1
 449 005e DBB2     		uxtb	r3, r3
 450 0060 1343     		orrs	r3, r3, r2
 451 0062 DBB2     		uxtb	r3, r3
 452 0064 03F00303 		and	r3, r3, #3
 453 0068 FB70     		strb	r3, [r7, #3]
 605:.\Generated_Source\PSoC5/cyfitter_cfg.c **** 		CyDelayCycles(10u * 48u); /* Delay 10us based on 48MHz clock */
 454              		.loc 1 605 0 discriminator 4
 455 006a 4FF4F070 		mov	r0, #480
 456 006e FFF7FEFF 		bl	CyDelayCycles
 602:.\Generated_Source\PSoC5/cyfitter_cfg.c **** 	for (timeout = 250u / 10u; (timeout > 0u) && (pllLock != 0x03u); timeout--)
 457              		.loc 1 602 0 discriminator 4
 458 0072 7B68     		ldr	r3, [r7, #4]
 459 0074 013B     		subs	r3, r3, #1
 460 0076 7B60     		str	r3, [r7, #4]
 461              	.L18:
 602:.\Generated_Source\PSoC5/cyfitter_cfg.c **** 	for (timeout = 250u / 10u; (timeout > 0u) && (pllLock != 0x03u); timeout--)
 462              		.loc 1 602 0 is_stmt 0 discriminator 1
 463 0078 7B68     		ldr	r3, [r7, #4]
 464 007a 002B     		cmp	r3, #0
 465 007c 02D0     		beq	.L19
 602:.\Generated_Source\PSoC5/cyfitter_cfg.c **** 	for (timeout = 250u / 10u; (timeout > 0u) && (pllLock != 0x03u); timeout--)
 466              		.loc 1 602 0 discriminator 3
 467 007e FB78     		ldrb	r3, [r7, #3]	@ zero_extendqisi2
 468 0080 032B     		cmp	r3, #3
 469 0082 E4D1     		bne	.L20
 470              	.L19:
 606:.\Generated_Source\PSoC5/cyfitter_cfg.c **** 	}
 607:.\Generated_Source\PSoC5/cyfitter_cfg.c **** 	/* If we ran out of time the PLL didn't lock so go to the error function */
 608:.\Generated_Source\PSoC5/cyfitter_cfg.c **** 	if (timeout == 0u)
ARM GAS  C:\Users\LUKASC~1\AppData\Local\Temp\ccr6U7F6.s 			page 20


 471              		.loc 1 608 0 is_stmt 1
 472 0084 7B68     		ldr	r3, [r7, #4]
 473 0086 002B     		cmp	r3, #0
 474 0088 02D1     		bne	.L21
 609:.\Generated_Source\PSoC5/cyfitter_cfg.c **** 	{
 610:.\Generated_Source\PSoC5/cyfitter_cfg.c **** 		CyClockStartupError(CYCLOCKSTART_PLL_ERROR);
 475              		.loc 1 610 0
 476 008a 0320     		movs	r0, #3
 477 008c FFF7FEFF 		bl	CyClockStartupError
 478              	.L21:
 611:.\Generated_Source\PSoC5/cyfitter_cfg.c **** 	}
 612:.\Generated_Source\PSoC5/cyfitter_cfg.c **** 
 613:.\Generated_Source\PSoC5/cyfitter_cfg.c **** 	/* Configure Bus/Master Clock based on settings from Clock DWR */
 614:.\Generated_Source\PSoC5/cyfitter_cfg.c **** 	CY_SET_XTND_REG16((void CYFAR *)(CYREG_CLKDIST_MSTR0), 0x0100u);
 479              		.loc 1 614 0
 480 0090 1B4B     		ldr	r3, .L22+44
 481 0092 4FF48072 		mov	r2, #256
 482 0096 1A80     		strh	r2, [r3]	@ movhi
 615:.\Generated_Source\PSoC5/cyfitter_cfg.c **** 	CY_SET_XTND_REG8((void CYFAR *)(CYREG_CLKDIST_MSTR0), 0x07u);
 483              		.loc 1 615 0
 484 0098 194B     		ldr	r3, .L22+44
 485 009a 0722     		movs	r2, #7
 486 009c 1A70     		strb	r2, [r3]
 616:.\Generated_Source\PSoC5/cyfitter_cfg.c **** 	CY_SET_XTND_REG8((void CYFAR *)(CYREG_CLKDIST_BCFG0), 0x00u);
 487              		.loc 1 616 0
 488 009e 194B     		ldr	r3, .L22+48
 489 00a0 0022     		movs	r2, #0
 490 00a2 1A70     		strb	r2, [r3]
 617:.\Generated_Source\PSoC5/cyfitter_cfg.c **** 	CY_SET_XTND_REG8((void CYFAR *)(CYREG_CLKDIST_BCFG2), 0x48u);
 491              		.loc 1 617 0
 492 00a4 184B     		ldr	r3, .L22+52
 493 00a6 4822     		movs	r2, #72
 494 00a8 1A70     		strb	r2, [r3]
 618:.\Generated_Source\PSoC5/cyfitter_cfg.c **** 	CY_SET_XTND_REG8((void CYFAR *)(CYREG_CLKDIST_MSTR0), 0x00u);
 495              		.loc 1 618 0
 496 00aa 154B     		ldr	r3, .L22+44
 497 00ac 0022     		movs	r2, #0
 498 00ae 1A70     		strb	r2, [r3]
 619:.\Generated_Source\PSoC5/cyfitter_cfg.c **** 
 620:.\Generated_Source\PSoC5/cyfitter_cfg.c **** 	/* Configure USB Clock based on settings from Clock DWR */
 621:.\Generated_Source\PSoC5/cyfitter_cfg.c **** 	CY_SET_XTND_REG8((void CYFAR *)(CYREG_CLKDIST_UCFG), 0x00u);
 499              		.loc 1 621 0
 500 00b0 164B     		ldr	r3, .L22+56
 501 00b2 0022     		movs	r2, #0
 502 00b4 1A70     		strb	r2, [r3]
 622:.\Generated_Source\PSoC5/cyfitter_cfg.c **** 	CY_SET_XTND_REG8((void CYFAR *)(CYREG_CLKDIST_LD), 0x02u);
 503              		.loc 1 622 0
 504 00b6 164B     		ldr	r3, .L22+60
 505 00b8 0222     		movs	r2, #2
 506 00ba 1A70     		strb	r2, [r3]
 623:.\Generated_Source\PSoC5/cyfitter_cfg.c **** 
 624:.\Generated_Source\PSoC5/cyfitter_cfg.c **** 	CY_SET_XTND_REG8((void CYFAR *)(CYREG_PM_ACT_CFG2), ((CY_GET_XTND_REG8((void CYFAR *)CYREG_PM_ACT_
 507              		.loc 1 624 0
 508 00bc 154A     		ldr	r2, .L22+64
 509 00be 154B     		ldr	r3, .L22+64
 510 00c0 1B78     		ldrb	r3, [r3]
 511 00c2 DBB2     		uxtb	r3, r3
ARM GAS  C:\Users\LUKASC~1\AppData\Local\Temp\ccr6U7F6.s 			page 21


 512 00c4 43F00303 		orr	r3, r3, #3
 513 00c8 DBB2     		uxtb	r3, r3
 514 00ca 1370     		strb	r3, [r2]
 625:.\Generated_Source\PSoC5/cyfitter_cfg.c **** }
 515              		.loc 1 625 0
 516 00cc 0837     		adds	r7, r7, #8
 517              		.cfi_def_cfa_offset 8
 518 00ce BD46     		mov	sp, r7
 519              		.cfi_def_cfa_register 13
 520              		@ sp needed
 521 00d0 80BD     		pop	{r7, pc}
 522              	.L23:
 523 00d2 00BF     		.align	2
 524              	.L22:
 525 00d4 80400040 		.word	1073758336
 526 00d8 82400040 		.word	1073758338
 527 00dc 84400040 		.word	1073758340
 528 00e0 86400040 		.word	1073758342
 529 00e4 00430040 		.word	1073758976
 530 00e8 00420040 		.word	1073758720
 531 00ec A1460040 		.word	1073759905
 532 00f0 0F010049 		.word	1224737039
 533 00f4 22420040 		.word	1073758754
 534 00f8 20420040 		.word	1073758752
 535 00fc 25420040 		.word	1073758757
 536 0100 04400040 		.word	1073758212
 537 0104 06400040 		.word	1073758214
 538 0108 08400040 		.word	1073758216
 539 010c 09400040 		.word	1073758217
 540 0110 01400040 		.word	1073758209
 541 0114 A2430040 		.word	1073759138
 542              		.cfi_endproc
 543              	.LFE5:
 544              		.size	ClockSetup, .-ClockSetup
 545              		.section	.text.AnalogSetDefault,"ax",%progbits
 546              		.align	2
 547              		.thumb
 548              		.thumb_func
 549              		.type	AnalogSetDefault, %function
 550              	AnalogSetDefault:
 551              	.LFB6:
 626:.\Generated_Source\PSoC5/cyfitter_cfg.c **** 
 627:.\Generated_Source\PSoC5/cyfitter_cfg.c **** 
 628:.\Generated_Source\PSoC5/cyfitter_cfg.c **** /* Analog API Functions */
 629:.\Generated_Source\PSoC5/cyfitter_cfg.c **** 
 630:.\Generated_Source\PSoC5/cyfitter_cfg.c **** 
 631:.\Generated_Source\PSoC5/cyfitter_cfg.c **** /*******************************************************************************
 632:.\Generated_Source\PSoC5/cyfitter_cfg.c **** * Function Name: AnalogSetDefault
 633:.\Generated_Source\PSoC5/cyfitter_cfg.c **** ********************************************************************************
 634:.\Generated_Source\PSoC5/cyfitter_cfg.c **** *
 635:.\Generated_Source\PSoC5/cyfitter_cfg.c **** * Summary:
 636:.\Generated_Source\PSoC5/cyfitter_cfg.c **** *  Sets up the analog portions of the chip to default values based on chip
 637:.\Generated_Source\PSoC5/cyfitter_cfg.c **** *  configuration options from the project.
 638:.\Generated_Source\PSoC5/cyfitter_cfg.c **** *
 639:.\Generated_Source\PSoC5/cyfitter_cfg.c **** * Parameters:
 640:.\Generated_Source\PSoC5/cyfitter_cfg.c **** *  void
 641:.\Generated_Source\PSoC5/cyfitter_cfg.c **** *
ARM GAS  C:\Users\LUKASC~1\AppData\Local\Temp\ccr6U7F6.s 			page 22


 642:.\Generated_Source\PSoC5/cyfitter_cfg.c **** * Return:
 643:.\Generated_Source\PSoC5/cyfitter_cfg.c **** *  void
 644:.\Generated_Source\PSoC5/cyfitter_cfg.c **** *
 645:.\Generated_Source\PSoC5/cyfitter_cfg.c **** *******************************************************************************/
 646:.\Generated_Source\PSoC5/cyfitter_cfg.c **** static void AnalogSetDefault(void);
 647:.\Generated_Source\PSoC5/cyfitter_cfg.c **** static void AnalogSetDefault(void)
 648:.\Generated_Source\PSoC5/cyfitter_cfg.c **** {
 552              		.loc 1 648 0
 553              		.cfi_startproc
 554              		@ args = 0, pretend = 0, frame = 8
 555              		@ frame_needed = 1, uses_anonymous_args = 0
 556              		@ link register save eliminated.
 557 0000 80B4     		push	{r7}
 558              		.cfi_def_cfa_offset 4
 559              		.cfi_offset 7, -4
 560 0002 83B0     		sub	sp, sp, #12
 561              		.cfi_def_cfa_offset 16
 562 0004 00AF     		add	r7, sp, #0
 563              		.cfi_def_cfa_register 7
 649:.\Generated_Source\PSoC5/cyfitter_cfg.c **** 	uint8 bg_xover_inl_trim = CY_GET_XTND_REG8((void CYFAR *)(CYREG_FLSHID_MFG_CFG_BG_XOVER_INL_TRIM +
 564              		.loc 1 649 0
 565 0006 144B     		ldr	r3, .L25
 566 0008 1B78     		ldrb	r3, [r3]
 567 000a FB71     		strb	r3, [r7, #7]
 650:.\Generated_Source\PSoC5/cyfitter_cfg.c **** 	CY_SET_XTND_REG8((void CYFAR *)(CYREG_BG_DFT0), (bg_xover_inl_trim & 0x07u));
 568              		.loc 1 650 0
 569 000c 134A     		ldr	r2, .L25+4
 570 000e FB79     		ldrb	r3, [r7, #7]
 571 0010 03F00703 		and	r3, r3, #7
 572 0014 DBB2     		uxtb	r3, r3
 573 0016 1370     		strb	r3, [r2]
 651:.\Generated_Source\PSoC5/cyfitter_cfg.c **** 	CY_SET_XTND_REG8((void CYFAR *)(CYREG_BG_DFT1), ((bg_xover_inl_trim >> 4) & 0x0Fu));
 574              		.loc 1 651 0
 575 0018 114A     		ldr	r2, .L25+8
 576 001a FB79     		ldrb	r3, [r7, #7]	@ zero_extendqisi2
 577 001c 1B09     		lsrs	r3, r3, #4
 578 001e DBB2     		uxtb	r3, r3
 579 0020 1370     		strb	r3, [r2]
 652:.\Generated_Source\PSoC5/cyfitter_cfg.c **** 	CY_SET_XTND_REG8((void CYFAR *)CYREG_PRT2_AG, 0x81u);
 580              		.loc 1 652 0
 581 0022 104B     		ldr	r3, .L25+12
 582 0024 8122     		movs	r2, #129
 583 0026 1A70     		strb	r2, [r3]
 653:.\Generated_Source\PSoC5/cyfitter_cfg.c **** 	CY_SET_XTND_REG8((void CYFAR *)CYREG_CAPSL_CFG0, 0x00u);
 584              		.loc 1 653 0
 585 0028 0F4B     		ldr	r3, .L25+16
 586 002a 0022     		movs	r2, #0
 587 002c 1A70     		strb	r2, [r3]
 654:.\Generated_Source\PSoC5/cyfitter_cfg.c **** 	CY_SET_XTND_REG8((void CYFAR *)CYREG_DAC2_SW0, 0x20u);
 588              		.loc 1 654 0
 589 002e 0F4B     		ldr	r3, .L25+20
 590 0030 2022     		movs	r2, #32
 591 0032 1A70     		strb	r2, [r3]
 655:.\Generated_Source\PSoC5/cyfitter_cfg.c **** 	CY_SET_XTND_REG8((void CYFAR *)CYREG_CMP1_SW3, 0x20u);
 592              		.loc 1 655 0
 593 0034 0E4B     		ldr	r3, .L25+24
 594 0036 2022     		movs	r2, #32
ARM GAS  C:\Users\LUKASC~1\AppData\Local\Temp\ccr6U7F6.s 			page 23


 595 0038 1A70     		strb	r2, [r3]
 656:.\Generated_Source\PSoC5/cyfitter_cfg.c **** 	CY_SET_XTND_REG8((void CYFAR *)CYREG_DSM0_SW0, 0x28u);
 596              		.loc 1 656 0
 597 003a 0E4B     		ldr	r3, .L25+28
 598 003c 2822     		movs	r2, #40
 599 003e 1A70     		strb	r2, [r3]
 657:.\Generated_Source\PSoC5/cyfitter_cfg.c **** 	CY_SET_XTND_REG8((void CYFAR *)CYREG_BUS_SW3, 0x01u);
 600              		.loc 1 657 0
 601 0040 0D4B     		ldr	r3, .L25+32
 602 0042 0122     		movs	r2, #1
 603 0044 1A70     		strb	r2, [r3]
 658:.\Generated_Source\PSoC5/cyfitter_cfg.c **** 	CY_SET_XTND_REG8((void CYFAR *)CYREG_PUMP_CR0, 0x44u);
 604              		.loc 1 658 0
 605 0046 0D4B     		ldr	r3, .L25+36
 606 0048 4422     		movs	r2, #68
 607 004a 1A70     		strb	r2, [r3]
 659:.\Generated_Source\PSoC5/cyfitter_cfg.c **** }
 608              		.loc 1 659 0
 609 004c 0C37     		adds	r7, r7, #12
 610              		.cfi_def_cfa_offset 4
 611 004e BD46     		mov	sp, r7
 612              		.cfi_def_cfa_register 13
 613              		@ sp needed
 614 0050 5DF8047B 		ldr	r7, [sp], #4
 615              		.cfi_restore 7
 616              		.cfi_def_cfa_offset 0
 617 0054 7047     		bx	lr
 618              	.L26:
 619 0056 00BF     		.align	2
 620              	.L25:
 621 0058 CF010049 		.word	1224737231
 622 005c 6E580040 		.word	1073764462
 623 0060 6F580040 		.word	1073764463
 624 0064 2D510040 		.word	1073762605
 625 0068 70580040 		.word	1073764464
 626 006c 905A0040 		.word	1073765008
 627 0070 CB5A0040 		.word	1073765067
 628 0074 005B0040 		.word	1073765120
 629 0078 5B5B0040 		.word	1073765211
 630 007c 76580040 		.word	1073764470
 631              		.cfi_endproc
 632              	.LFE6:
 633              		.size	AnalogSetDefault, .-AnalogSetDefault
 634              		.section	.text.SetAnalogRoutingPumps,"ax",%progbits
 635              		.align	2
 636              		.global	SetAnalogRoutingPumps
 637              		.thumb
 638              		.thumb_func
 639              		.type	SetAnalogRoutingPumps, %function
 640              	SetAnalogRoutingPumps:
 641              	.LFB7:
 660:.\Generated_Source\PSoC5/cyfitter_cfg.c **** 
 661:.\Generated_Source\PSoC5/cyfitter_cfg.c **** 
 662:.\Generated_Source\PSoC5/cyfitter_cfg.c **** /*******************************************************************************
 663:.\Generated_Source\PSoC5/cyfitter_cfg.c **** * Function Name: SetAnalogRoutingPumps
 664:.\Generated_Source\PSoC5/cyfitter_cfg.c **** ********************************************************************************
 665:.\Generated_Source\PSoC5/cyfitter_cfg.c **** *
ARM GAS  C:\Users\LUKASC~1\AppData\Local\Temp\ccr6U7F6.s 			page 24


 666:.\Generated_Source\PSoC5/cyfitter_cfg.c **** * Summary:
 667:.\Generated_Source\PSoC5/cyfitter_cfg.c **** * Enables or disables the analog pumps feeding analog routing switches.
 668:.\Generated_Source\PSoC5/cyfitter_cfg.c **** * Intended to be called at startup, based on the Vdda system configuration;
 669:.\Generated_Source\PSoC5/cyfitter_cfg.c **** * may be called during operation when the user informs us that the Vdda voltage
 670:.\Generated_Source\PSoC5/cyfitter_cfg.c **** * crossed the pump threshold.
 671:.\Generated_Source\PSoC5/cyfitter_cfg.c **** *
 672:.\Generated_Source\PSoC5/cyfitter_cfg.c **** * Parameters:
 673:.\Generated_Source\PSoC5/cyfitter_cfg.c **** *  enabled - 1 to enable the pumps, 0 to disable the pumps
 674:.\Generated_Source\PSoC5/cyfitter_cfg.c **** *
 675:.\Generated_Source\PSoC5/cyfitter_cfg.c **** * Return:
 676:.\Generated_Source\PSoC5/cyfitter_cfg.c **** *  void
 677:.\Generated_Source\PSoC5/cyfitter_cfg.c **** *
 678:.\Generated_Source\PSoC5/cyfitter_cfg.c **** *******************************************************************************/
 679:.\Generated_Source\PSoC5/cyfitter_cfg.c **** void SetAnalogRoutingPumps(uint8 enabled)
 680:.\Generated_Source\PSoC5/cyfitter_cfg.c **** {
 642              		.loc 1 680 0
 643              		.cfi_startproc
 644              		@ args = 0, pretend = 0, frame = 16
 645              		@ frame_needed = 1, uses_anonymous_args = 0
 646              		@ link register save eliminated.
 647 0000 80B4     		push	{r7}
 648              		.cfi_def_cfa_offset 4
 649              		.cfi_offset 7, -4
 650 0002 85B0     		sub	sp, sp, #20
 651              		.cfi_def_cfa_offset 24
 652 0004 00AF     		add	r7, sp, #0
 653              		.cfi_def_cfa_register 7
 654 0006 0346     		mov	r3, r0
 655 0008 FB71     		strb	r3, [r7, #7]
 681:.\Generated_Source\PSoC5/cyfitter_cfg.c **** 	uint8 regValue = CY_GET_XTND_REG8((void CYFAR *)CYREG_PUMP_CR0);
 656              		.loc 1 681 0
 657 000a 0B4B     		ldr	r3, .L30
 658 000c 1B78     		ldrb	r3, [r3]
 659 000e FB73     		strb	r3, [r7, #15]
 682:.\Generated_Source\PSoC5/cyfitter_cfg.c **** 	if (enabled != 0u)
 660              		.loc 1 682 0
 661 0010 FB79     		ldrb	r3, [r7, #7]	@ zero_extendqisi2
 662 0012 002B     		cmp	r3, #0
 663 0014 04D0     		beq	.L28
 683:.\Generated_Source\PSoC5/cyfitter_cfg.c **** 	{
 684:.\Generated_Source\PSoC5/cyfitter_cfg.c **** 		regValue |= 0x22u;
 664              		.loc 1 684 0
 665 0016 FB7B     		ldrb	r3, [r7, #15]
 666 0018 43F02203 		orr	r3, r3, #34
 667 001c FB73     		strb	r3, [r7, #15]
 668 001e 03E0     		b	.L29
 669              	.L28:
 685:.\Generated_Source\PSoC5/cyfitter_cfg.c **** 	}
 686:.\Generated_Source\PSoC5/cyfitter_cfg.c **** 	else
 687:.\Generated_Source\PSoC5/cyfitter_cfg.c **** 	{
 688:.\Generated_Source\PSoC5/cyfitter_cfg.c **** 		regValue &= (uint8)~0x22u;
 670              		.loc 1 688 0
 671 0020 FB7B     		ldrb	r3, [r7, #15]
 672 0022 23F02203 		bic	r3, r3, #34
 673 0026 FB73     		strb	r3, [r7, #15]
 674              	.L29:
 689:.\Generated_Source\PSoC5/cyfitter_cfg.c **** 	}
ARM GAS  C:\Users\LUKASC~1\AppData\Local\Temp\ccr6U7F6.s 			page 25


 690:.\Generated_Source\PSoC5/cyfitter_cfg.c **** 	CY_SET_XTND_REG8((void CYFAR *)CYREG_PUMP_CR0, regValue);
 675              		.loc 1 690 0
 676 0028 034A     		ldr	r2, .L30
 677 002a FB7B     		ldrb	r3, [r7, #15]
 678 002c 1370     		strb	r3, [r2]
 691:.\Generated_Source\PSoC5/cyfitter_cfg.c **** }
 679              		.loc 1 691 0
 680 002e 1437     		adds	r7, r7, #20
 681              		.cfi_def_cfa_offset 4
 682 0030 BD46     		mov	sp, r7
 683              		.cfi_def_cfa_register 13
 684              		@ sp needed
 685 0032 5DF8047B 		ldr	r7, [sp], #4
 686              		.cfi_restore 7
 687              		.cfi_def_cfa_offset 0
 688 0036 7047     		bx	lr
 689              	.L31:
 690              		.align	2
 691              	.L30:
 692 0038 76580040 		.word	1073764470
 693              		.cfi_endproc
 694              	.LFE7:
 695              		.size	SetAnalogRoutingPumps, .-SetAnalogRoutingPumps
 696              		.global	CapSense_1_AMuxCH0__addrTable
 697              		.section	.rodata
 698              		.align	2
 699              		.type	CapSense_1_AMuxCH0__addrTable, %object
 700              		.size	CapSense_1_AMuxCH0__addrTable, 100
 701              	CapSense_1_AMuxCH0__addrTable:
 702 0000 0C510040 		.word	1073762572
 703 0004 0C510040 		.word	1073762572
 704 0008 3C510040 		.word	1073762620
 705 000c 3C510040 		.word	1073762620
 706 0010 3C510040 		.word	1073762620
 707 0014 3C510040 		.word	1073762620
 708 0018 3C510040 		.word	1073762620
 709 001c 3C510040 		.word	1073762620
 710 0020 3C510040 		.word	1073762620
 711 0024 3C510040 		.word	1073762620
 712 0028 FC510040 		.word	1073762812
 713 002c FC510040 		.word	1073762812
 714 0030 FC510040 		.word	1073762812
 715 0034 FC510040 		.word	1073762812
 716 0038 FC510040 		.word	1073762812
 717 003c FC510040 		.word	1073762812
 718 0040 0C510040 		.word	1073762572
 719 0044 0C510040 		.word	1073762572
 720 0048 0C510040 		.word	1073762572
 721 004c 0C510040 		.word	1073762572
 722 0050 0C510040 		.word	1073762572
 723 0054 0C510040 		.word	1073762572
 724 0058 2C510040 		.word	1073762604
 725 005c CB5A0040 		.word	1073765067
 726 0060 8B5A0040 		.word	1073765003
 727              		.global	CapSense_1_AMuxCH0__maskTable
 728              		.align	2
 729              		.type	CapSense_1_AMuxCH0__maskTable, %object
ARM GAS  C:\Users\LUKASC~1\AppData\Local\Temp\ccr6U7F6.s 			page 26


 730              		.size	CapSense_1_AMuxCH0__maskTable, 25
 731              	CapSense_1_AMuxCH0__maskTable:
 732 0064 80       		.byte	-128
 733 0065 40       		.byte	64
 734 0066 01       		.byte	1
 735 0067 02       		.byte	2
 736 0068 04       		.byte	4
 737 0069 08       		.byte	8
 738 006a 10       		.byte	16
 739 006b 20       		.byte	32
 740 006c 40       		.byte	64
 741 006d 80       		.byte	-128
 742 006e 01       		.byte	1
 743 006f 02       		.byte	2
 744 0070 04       		.byte	4
 745 0071 08       		.byte	8
 746 0072 10       		.byte	16
 747 0073 20       		.byte	32
 748 0074 01       		.byte	1
 749 0075 02       		.byte	2
 750 0076 04       		.byte	4
 751 0077 08       		.byte	8
 752 0078 10       		.byte	16
 753 0079 20       		.byte	32
 754 007a 01       		.byte	1
 755 007b 01       		.byte	1
 756 007c 10       		.byte	16
 757              		.section	.text.CapSense_1_AMuxCH0_Set,"ax",%progbits
 758              		.align	2
 759              		.global	CapSense_1_AMuxCH0_Set
 760              		.thumb
 761              		.thumb_func
 762              		.type	CapSense_1_AMuxCH0_Set, %function
 763              	CapSense_1_AMuxCH0_Set:
 764              	.LFB8:
 692:.\Generated_Source\PSoC5/cyfitter_cfg.c **** 
 693:.\Generated_Source\PSoC5/cyfitter_cfg.c **** #define CY_AMUX_UNUSED CYREG_BOOST_SR
 694:.\Generated_Source\PSoC5/cyfitter_cfg.c **** /* This is an implementation detail of the AMux. Code that depends on it may be
 695:.\Generated_Source\PSoC5/cyfitter_cfg.c ****    incompatible with other versions of PSoC Creator. */
 696:.\Generated_Source\PSoC5/cyfitter_cfg.c **** uint8 CYXDATA * const CYCODE CapSense_1_AMuxCH0__addrTable[25] = {
 697:.\Generated_Source\PSoC5/cyfitter_cfg.c **** 	(uint8 CYXDATA *)CYREG_PRT0_AMUX, 
 698:.\Generated_Source\PSoC5/cyfitter_cfg.c **** 	(uint8 CYXDATA *)CYREG_PRT0_AMUX, 
 699:.\Generated_Source\PSoC5/cyfitter_cfg.c **** 	(uint8 CYXDATA *)CYREG_PRT3_AMUX, 
 700:.\Generated_Source\PSoC5/cyfitter_cfg.c **** 	(uint8 CYXDATA *)CYREG_PRT3_AMUX, 
 701:.\Generated_Source\PSoC5/cyfitter_cfg.c **** 	(uint8 CYXDATA *)CYREG_PRT3_AMUX, 
 702:.\Generated_Source\PSoC5/cyfitter_cfg.c **** 	(uint8 CYXDATA *)CYREG_PRT3_AMUX, 
 703:.\Generated_Source\PSoC5/cyfitter_cfg.c **** 	(uint8 CYXDATA *)CYREG_PRT3_AMUX, 
 704:.\Generated_Source\PSoC5/cyfitter_cfg.c **** 	(uint8 CYXDATA *)CYREG_PRT3_AMUX, 
 705:.\Generated_Source\PSoC5/cyfitter_cfg.c **** 	(uint8 CYXDATA *)CYREG_PRT3_AMUX, 
 706:.\Generated_Source\PSoC5/cyfitter_cfg.c **** 	(uint8 CYXDATA *)CYREG_PRT3_AMUX, 
 707:.\Generated_Source\PSoC5/cyfitter_cfg.c **** 	(uint8 CYXDATA *)CYREG_PRT15_AMUX, 
 708:.\Generated_Source\PSoC5/cyfitter_cfg.c **** 	(uint8 CYXDATA *)CYREG_PRT15_AMUX, 
 709:.\Generated_Source\PSoC5/cyfitter_cfg.c **** 	(uint8 CYXDATA *)CYREG_PRT15_AMUX, 
 710:.\Generated_Source\PSoC5/cyfitter_cfg.c **** 	(uint8 CYXDATA *)CYREG_PRT15_AMUX, 
 711:.\Generated_Source\PSoC5/cyfitter_cfg.c **** 	(uint8 CYXDATA *)CYREG_PRT15_AMUX, 
 712:.\Generated_Source\PSoC5/cyfitter_cfg.c **** 	(uint8 CYXDATA *)CYREG_PRT15_AMUX, 
 713:.\Generated_Source\PSoC5/cyfitter_cfg.c **** 	(uint8 CYXDATA *)CYREG_PRT0_AMUX, 
ARM GAS  C:\Users\LUKASC~1\AppData\Local\Temp\ccr6U7F6.s 			page 27


 714:.\Generated_Source\PSoC5/cyfitter_cfg.c **** 	(uint8 CYXDATA *)CYREG_PRT0_AMUX, 
 715:.\Generated_Source\PSoC5/cyfitter_cfg.c **** 	(uint8 CYXDATA *)CYREG_PRT0_AMUX, 
 716:.\Generated_Source\PSoC5/cyfitter_cfg.c **** 	(uint8 CYXDATA *)CYREG_PRT0_AMUX, 
 717:.\Generated_Source\PSoC5/cyfitter_cfg.c **** 	(uint8 CYXDATA *)CYREG_PRT0_AMUX, 
 718:.\Generated_Source\PSoC5/cyfitter_cfg.c **** 	(uint8 CYXDATA *)CYREG_PRT0_AMUX, 
 719:.\Generated_Source\PSoC5/cyfitter_cfg.c **** 	(uint8 CYXDATA *)CYREG_PRT2_AMUX, 
 720:.\Generated_Source\PSoC5/cyfitter_cfg.c **** 	(uint8 CYXDATA *)CYREG_CMP1_SW3, 
 721:.\Generated_Source\PSoC5/cyfitter_cfg.c **** 	(uint8 CYXDATA *)CYREG_DAC1_SW3, 
 722:.\Generated_Source\PSoC5/cyfitter_cfg.c **** };
 723:.\Generated_Source\PSoC5/cyfitter_cfg.c **** 
 724:.\Generated_Source\PSoC5/cyfitter_cfg.c **** /* This is an implementation detail of the AMux. Code that depends on it may be
 725:.\Generated_Source\PSoC5/cyfitter_cfg.c ****    incompatible with other versions of PSoC Creator. */
 726:.\Generated_Source\PSoC5/cyfitter_cfg.c **** const uint8 CYCODE CapSense_1_AMuxCH0__maskTable[25] = {
 727:.\Generated_Source\PSoC5/cyfitter_cfg.c **** 	0x80u, 
 728:.\Generated_Source\PSoC5/cyfitter_cfg.c **** 	0x40u, 
 729:.\Generated_Source\PSoC5/cyfitter_cfg.c **** 	0x01u, 
 730:.\Generated_Source\PSoC5/cyfitter_cfg.c **** 	0x02u, 
 731:.\Generated_Source\PSoC5/cyfitter_cfg.c **** 	0x04u, 
 732:.\Generated_Source\PSoC5/cyfitter_cfg.c **** 	0x08u, 
 733:.\Generated_Source\PSoC5/cyfitter_cfg.c **** 	0x10u, 
 734:.\Generated_Source\PSoC5/cyfitter_cfg.c **** 	0x20u, 
 735:.\Generated_Source\PSoC5/cyfitter_cfg.c **** 	0x40u, 
 736:.\Generated_Source\PSoC5/cyfitter_cfg.c **** 	0x80u, 
 737:.\Generated_Source\PSoC5/cyfitter_cfg.c **** 	0x01u, 
 738:.\Generated_Source\PSoC5/cyfitter_cfg.c **** 	0x02u, 
 739:.\Generated_Source\PSoC5/cyfitter_cfg.c **** 	0x04u, 
 740:.\Generated_Source\PSoC5/cyfitter_cfg.c **** 	0x08u, 
 741:.\Generated_Source\PSoC5/cyfitter_cfg.c **** 	0x10u, 
 742:.\Generated_Source\PSoC5/cyfitter_cfg.c **** 	0x20u, 
 743:.\Generated_Source\PSoC5/cyfitter_cfg.c **** 	0x01u, 
 744:.\Generated_Source\PSoC5/cyfitter_cfg.c **** 	0x02u, 
 745:.\Generated_Source\PSoC5/cyfitter_cfg.c **** 	0x04u, 
 746:.\Generated_Source\PSoC5/cyfitter_cfg.c **** 	0x08u, 
 747:.\Generated_Source\PSoC5/cyfitter_cfg.c **** 	0x10u, 
 748:.\Generated_Source\PSoC5/cyfitter_cfg.c **** 	0x20u, 
 749:.\Generated_Source\PSoC5/cyfitter_cfg.c **** 	0x01u, 
 750:.\Generated_Source\PSoC5/cyfitter_cfg.c **** 	0x01u, 
 751:.\Generated_Source\PSoC5/cyfitter_cfg.c **** 	0x10u, 
 752:.\Generated_Source\PSoC5/cyfitter_cfg.c **** };
 753:.\Generated_Source\PSoC5/cyfitter_cfg.c **** 
 754:.\Generated_Source\PSoC5/cyfitter_cfg.c **** /*******************************************************************************
 755:.\Generated_Source\PSoC5/cyfitter_cfg.c **** * Function Name: CapSense_1_AMuxCH0_Set
 756:.\Generated_Source\PSoC5/cyfitter_cfg.c **** ********************************************************************************
 757:.\Generated_Source\PSoC5/cyfitter_cfg.c **** * Summary:
 758:.\Generated_Source\PSoC5/cyfitter_cfg.c **** *  This function is used to set a particular channel as active on the AMux.
 759:.\Generated_Source\PSoC5/cyfitter_cfg.c **** *
 760:.\Generated_Source\PSoC5/cyfitter_cfg.c **** * Parameters:  
 761:.\Generated_Source\PSoC5/cyfitter_cfg.c **** *   channel - The mux channel input to set as active
 762:.\Generated_Source\PSoC5/cyfitter_cfg.c **** *
 763:.\Generated_Source\PSoC5/cyfitter_cfg.c **** * Return:
 764:.\Generated_Source\PSoC5/cyfitter_cfg.c **** *   void
 765:.\Generated_Source\PSoC5/cyfitter_cfg.c **** *
 766:.\Generated_Source\PSoC5/cyfitter_cfg.c **** *******************************************************************************/
 767:.\Generated_Source\PSoC5/cyfitter_cfg.c **** void CapSense_1_AMuxCH0_Set(uint8 channel)
 768:.\Generated_Source\PSoC5/cyfitter_cfg.c **** {
 765              		.loc 1 768 0
 766              		.cfi_startproc
ARM GAS  C:\Users\LUKASC~1\AppData\Local\Temp\ccr6U7F6.s 			page 28


 767              		@ args = 0, pretend = 0, frame = 8
 768              		@ frame_needed = 1, uses_anonymous_args = 0
 769              		@ link register save eliminated.
 770 0000 80B4     		push	{r7}
 771              		.cfi_def_cfa_offset 4
 772              		.cfi_offset 7, -4
 773 0002 83B0     		sub	sp, sp, #12
 774              		.cfi_def_cfa_offset 16
 775 0004 00AF     		add	r7, sp, #0
 776              		.cfi_def_cfa_register 7
 777 0006 0346     		mov	r3, r0
 778 0008 FB71     		strb	r3, [r7, #7]
 769:.\Generated_Source\PSoC5/cyfitter_cfg.c **** 	if (channel < 25)
 779              		.loc 1 769 0
 780 000a FB79     		ldrb	r3, [r7, #7]	@ zero_extendqisi2
 781 000c 182B     		cmp	r3, #24
 782 000e 0ED8     		bhi	.L32
 770:.\Generated_Source\PSoC5/cyfitter_cfg.c **** 	{
 771:.\Generated_Source\PSoC5/cyfitter_cfg.c **** 		*CapSense_1_AMuxCH0__addrTable[channel] |= CapSense_1_AMuxCH0__maskTable[channel];
 783              		.loc 1 771 0
 784 0010 FB79     		ldrb	r3, [r7, #7]	@ zero_extendqisi2
 785 0012 094A     		ldr	r2, .L34
 786 0014 52F82330 		ldr	r3, [r2, r3, lsl #2]
 787 0018 FA79     		ldrb	r2, [r7, #7]	@ zero_extendqisi2
 788 001a 0749     		ldr	r1, .L34
 789 001c 51F82220 		ldr	r2, [r1, r2, lsl #2]
 790 0020 1178     		ldrb	r1, [r2]	@ zero_extendqisi2
 791 0022 FA79     		ldrb	r2, [r7, #7]	@ zero_extendqisi2
 792 0024 0548     		ldr	r0, .L34+4
 793 0026 825C     		ldrb	r2, [r0, r2]	@ zero_extendqisi2
 794 0028 0A43     		orrs	r2, r2, r1
 795 002a D2B2     		uxtb	r2, r2
 796 002c 1A70     		strb	r2, [r3]
 797              	.L32:
 772:.\Generated_Source\PSoC5/cyfitter_cfg.c **** 	}
 773:.\Generated_Source\PSoC5/cyfitter_cfg.c **** }
 798              		.loc 1 773 0
 799 002e 0C37     		adds	r7, r7, #12
 800              		.cfi_def_cfa_offset 4
 801 0030 BD46     		mov	sp, r7
 802              		.cfi_def_cfa_register 13
 803              		@ sp needed
 804 0032 5DF8047B 		ldr	r7, [sp], #4
 805              		.cfi_restore 7
 806              		.cfi_def_cfa_offset 0
 807 0036 7047     		bx	lr
 808              	.L35:
 809              		.align	2
 810              	.L34:
 811 0038 00000000 		.word	CapSense_1_AMuxCH0__addrTable
 812 003c 00000000 		.word	CapSense_1_AMuxCH0__maskTable
 813              		.cfi_endproc
 814              	.LFE8:
 815              		.size	CapSense_1_AMuxCH0_Set, .-CapSense_1_AMuxCH0_Set
 816              		.section	.text.CapSense_1_AMuxCH0_Unset,"ax",%progbits
 817              		.align	2
 818              		.global	CapSense_1_AMuxCH0_Unset
ARM GAS  C:\Users\LUKASC~1\AppData\Local\Temp\ccr6U7F6.s 			page 29


 819              		.thumb
 820              		.thumb_func
 821              		.type	CapSense_1_AMuxCH0_Unset, %function
 822              	CapSense_1_AMuxCH0_Unset:
 823              	.LFB9:
 774:.\Generated_Source\PSoC5/cyfitter_cfg.c **** 
 775:.\Generated_Source\PSoC5/cyfitter_cfg.c **** /*******************************************************************************
 776:.\Generated_Source\PSoC5/cyfitter_cfg.c **** * Function Name: CapSense_1_AMuxCH0_Unset
 777:.\Generated_Source\PSoC5/cyfitter_cfg.c **** ********************************************************************************
 778:.\Generated_Source\PSoC5/cyfitter_cfg.c **** * Summary:
 779:.\Generated_Source\PSoC5/cyfitter_cfg.c **** *  This function is used to clear a particular channel from being active on the
 780:.\Generated_Source\PSoC5/cyfitter_cfg.c **** *  AMux.
 781:.\Generated_Source\PSoC5/cyfitter_cfg.c **** *
 782:.\Generated_Source\PSoC5/cyfitter_cfg.c **** * Parameters:  
 783:.\Generated_Source\PSoC5/cyfitter_cfg.c **** *   channel - The mux channel input to mark inactive
 784:.\Generated_Source\PSoC5/cyfitter_cfg.c **** *
 785:.\Generated_Source\PSoC5/cyfitter_cfg.c **** * Return:
 786:.\Generated_Source\PSoC5/cyfitter_cfg.c **** *   void
 787:.\Generated_Source\PSoC5/cyfitter_cfg.c **** *
 788:.\Generated_Source\PSoC5/cyfitter_cfg.c **** *******************************************************************************/
 789:.\Generated_Source\PSoC5/cyfitter_cfg.c **** void CapSense_1_AMuxCH0_Unset(uint8 channel)
 790:.\Generated_Source\PSoC5/cyfitter_cfg.c **** {
 824              		.loc 1 790 0
 825              		.cfi_startproc
 826              		@ args = 0, pretend = 0, frame = 8
 827              		@ frame_needed = 1, uses_anonymous_args = 0
 828              		@ link register save eliminated.
 829 0000 80B4     		push	{r7}
 830              		.cfi_def_cfa_offset 4
 831              		.cfi_offset 7, -4
 832 0002 83B0     		sub	sp, sp, #12
 833              		.cfi_def_cfa_offset 16
 834 0004 00AF     		add	r7, sp, #0
 835              		.cfi_def_cfa_register 7
 836 0006 0346     		mov	r3, r0
 837 0008 FB71     		strb	r3, [r7, #7]
 791:.\Generated_Source\PSoC5/cyfitter_cfg.c **** 	if (channel < 25)
 838              		.loc 1 791 0
 839 000a FB79     		ldrb	r3, [r7, #7]	@ zero_extendqisi2
 840 000c 182B     		cmp	r3, #24
 841 000e 10D8     		bhi	.L36
 792:.\Generated_Source\PSoC5/cyfitter_cfg.c **** 	{
 793:.\Generated_Source\PSoC5/cyfitter_cfg.c **** 		*CapSense_1_AMuxCH0__addrTable[channel] &= (uint8)~CapSense_1_AMuxCH0__maskTable[channel];
 842              		.loc 1 793 0
 843 0010 FB79     		ldrb	r3, [r7, #7]	@ zero_extendqisi2
 844 0012 0A4A     		ldr	r2, .L38
 845 0014 52F82330 		ldr	r3, [r2, r3, lsl #2]
 846 0018 FA79     		ldrb	r2, [r7, #7]	@ zero_extendqisi2
 847 001a 0849     		ldr	r1, .L38
 848 001c 51F82220 		ldr	r2, [r1, r2, lsl #2]
 849 0020 1178     		ldrb	r1, [r2]	@ zero_extendqisi2
 850 0022 FA79     		ldrb	r2, [r7, #7]	@ zero_extendqisi2
 851 0024 0648     		ldr	r0, .L38+4
 852 0026 825C     		ldrb	r2, [r0, r2]	@ zero_extendqisi2
 853 0028 D243     		mvns	r2, r2
 854 002a D2B2     		uxtb	r2, r2
 855 002c 0A40     		ands	r2, r2, r1
ARM GAS  C:\Users\LUKASC~1\AppData\Local\Temp\ccr6U7F6.s 			page 30


 856 002e D2B2     		uxtb	r2, r2
 857 0030 1A70     		strb	r2, [r3]
 858              	.L36:
 794:.\Generated_Source\PSoC5/cyfitter_cfg.c **** 	}
 795:.\Generated_Source\PSoC5/cyfitter_cfg.c **** }
 859              		.loc 1 795 0
 860 0032 0C37     		adds	r7, r7, #12
 861              		.cfi_def_cfa_offset 4
 862 0034 BD46     		mov	sp, r7
 863              		.cfi_def_cfa_register 13
 864              		@ sp needed
 865 0036 5DF8047B 		ldr	r7, [sp], #4
 866              		.cfi_restore 7
 867              		.cfi_def_cfa_offset 0
 868 003a 7047     		bx	lr
 869              	.L39:
 870              		.align	2
 871              	.L38:
 872 003c 00000000 		.word	CapSense_1_AMuxCH0__addrTable
 873 0040 00000000 		.word	CapSense_1_AMuxCH0__maskTable
 874              		.cfi_endproc
 875              	.LFE9:
 876              		.size	CapSense_1_AMuxCH0_Unset, .-CapSense_1_AMuxCH0_Unset
 877              		.section	.text.cyfitter_cfg,"ax",%progbits
 878              		.align	2
 879              		.global	cyfitter_cfg
 880              		.thumb
 881              		.thumb_func
 882              		.type	cyfitter_cfg, %function
 883              	cyfitter_cfg:
 884              	.LFB10:
 796:.\Generated_Source\PSoC5/cyfitter_cfg.c **** 
 797:.\Generated_Source\PSoC5/cyfitter_cfg.c **** 
 798:.\Generated_Source\PSoC5/cyfitter_cfg.c **** 
 799:.\Generated_Source\PSoC5/cyfitter_cfg.c **** /*******************************************************************************
 800:.\Generated_Source\PSoC5/cyfitter_cfg.c **** * Function Name: cyfitter_cfg
 801:.\Generated_Source\PSoC5/cyfitter_cfg.c **** ********************************************************************************
 802:.\Generated_Source\PSoC5/cyfitter_cfg.c **** * Summary:
 803:.\Generated_Source\PSoC5/cyfitter_cfg.c **** *  This function is called by the start-up code for the selected device. It
 804:.\Generated_Source\PSoC5/cyfitter_cfg.c **** *  performs all of the necessary device configuration based on the design
 805:.\Generated_Source\PSoC5/cyfitter_cfg.c **** *  settings.  This includes settings from the Design Wide Resources (DWR) such
 806:.\Generated_Source\PSoC5/cyfitter_cfg.c **** *  as Clocks and Pins as well as any component configuration that is necessary.
 807:.\Generated_Source\PSoC5/cyfitter_cfg.c **** *
 808:.\Generated_Source\PSoC5/cyfitter_cfg.c **** * Parameters:  
 809:.\Generated_Source\PSoC5/cyfitter_cfg.c **** *   void
 810:.\Generated_Source\PSoC5/cyfitter_cfg.c **** *
 811:.\Generated_Source\PSoC5/cyfitter_cfg.c **** * Return:
 812:.\Generated_Source\PSoC5/cyfitter_cfg.c **** *   void
 813:.\Generated_Source\PSoC5/cyfitter_cfg.c **** *
 814:.\Generated_Source\PSoC5/cyfitter_cfg.c **** *******************************************************************************/
 815:.\Generated_Source\PSoC5/cyfitter_cfg.c **** 
 816:.\Generated_Source\PSoC5/cyfitter_cfg.c **** void cyfitter_cfg(void)
 817:.\Generated_Source\PSoC5/cyfitter_cfg.c **** {
 885              		.loc 1 817 0
 886              		.cfi_startproc
 887              		@ args = 0, pretend = 0, frame = 0
 888              		@ frame_needed = 1, uses_anonymous_args = 0
ARM GAS  C:\Users\LUKASC~1\AppData\Local\Temp\ccr6U7F6.s 			page 31


 889 0000 80B5     		push	{r7, lr}
 890              		.cfi_def_cfa_offset 8
 891              		.cfi_offset 7, -8
 892              		.cfi_offset 14, -4
 893 0002 00AF     		add	r7, sp, #0
 894              		.cfi_def_cfa_register 7
 818:.\Generated_Source\PSoC5/cyfitter_cfg.c **** #ifdef CYGlobalIntDisable
 819:.\Generated_Source\PSoC5/cyfitter_cfg.c **** 	/* Disable interrupts by default. Let user enable if/when they want. */
 820:.\Generated_Source\PSoC5/cyfitter_cfg.c **** 	CYGlobalIntDisable
 895              		.loc 1 820 0
 896              	@ 820 ".\Generated_Source\PSoC5\cyfitter_cfg.c" 1
 897 0004 72B6     		CPSID   i
 898              	@ 0 "" 2
 821:.\Generated_Source\PSoC5/cyfitter_cfg.c **** #endif
 822:.\Generated_Source\PSoC5/cyfitter_cfg.c **** 
 823:.\Generated_Source\PSoC5/cyfitter_cfg.c **** 	/* Enable/Disable Debug functionality based on settings from System DWR */
 824:.\Generated_Source\PSoC5/cyfitter_cfg.c **** 	CY_SET_XTND_REG8((void CYFAR *)CYREG_MLOGIC_DEBUG, (CY_GET_XTND_REG8((void CYFAR *)CYREG_MLOGIC_DE
 899              		.loc 1 824 0
 900              		.thumb
 901 0006 374A     		ldr	r2, .L41
 902 0008 364B     		ldr	r3, .L41
 903 000a 1B78     		ldrb	r3, [r3]
 904 000c DBB2     		uxtb	r3, r3
 905 000e 43F00403 		orr	r3, r3, #4
 906 0012 DBB2     		uxtb	r3, r3
 907 0014 1370     		strb	r3, [r2]
 825:.\Generated_Source\PSoC5/cyfitter_cfg.c **** 
 826:.\Generated_Source\PSoC5/cyfitter_cfg.c **** 	{
 827:.\Generated_Source\PSoC5/cyfitter_cfg.c **** 		cfg_dma_init();
 908              		.loc 1 827 0
 909 0016 FFF7FEFF 		bl	cfg_dma_init
 828:.\Generated_Source\PSoC5/cyfitter_cfg.c **** 
 829:.\Generated_Source\PSoC5/cyfitter_cfg.c **** 		/* Perform normal device configuration. Order is not critical for these items. */
 830:.\Generated_Source\PSoC5/cyfitter_cfg.c **** 		CY_SET_XTND_REG16((void CYFAR *)(CYREG_CAPSL_CFG0), 0x0300u);
 910              		.loc 1 830 0
 911 001a 334B     		ldr	r3, .L41+4
 912 001c 4FF44072 		mov	r2, #768
 913 0020 1A80     		strh	r2, [r3]	@ movhi
 831:.\Generated_Source\PSoC5/cyfitter_cfg.c **** 		CY_SET_XTND_REG16((void CYFAR *)(CYREG_CAPSR_CFG0), 0x0300u);
 914              		.loc 1 831 0
 915 0022 324B     		ldr	r3, .L41+8
 916 0024 4FF44072 		mov	r2, #768
 917 0028 1A80     		strh	r2, [r3]	@ movhi
 832:.\Generated_Source\PSoC5/cyfitter_cfg.c **** 		CY_SET_XTND_REG16((void CYFAR *)(CYREG_LUT1_CR), 0x0103u);
 918              		.loc 1 832 0
 919 002a 314B     		ldr	r3, .L41+12
 920 002c 40F20312 		movw	r2, #259
 921 0030 1A80     		strh	r2, [r3]	@ movhi
 833:.\Generated_Source\PSoC5/cyfitter_cfg.c **** 
 834:.\Generated_Source\PSoC5/cyfitter_cfg.c **** 		/* Enable digital routing */
 835:.\Generated_Source\PSoC5/cyfitter_cfg.c **** 		CY_SET_XTND_REG8((void CYFAR *)CYREG_BCTL0_BANK_CTL, CY_GET_XTND_REG8((void CYFAR *)CYREG_BCTL0_B
 922              		.loc 1 835 0
 923 0032 304A     		ldr	r2, .L41+16
 924 0034 2F4B     		ldr	r3, .L41+16
 925 0036 1B78     		ldrb	r3, [r3]
 926 0038 DBB2     		uxtb	r3, r3
 927 003a 43F00203 		orr	r3, r3, #2
ARM GAS  C:\Users\LUKASC~1\AppData\Local\Temp\ccr6U7F6.s 			page 32


 928 003e DBB2     		uxtb	r3, r3
 929 0040 1370     		strb	r3, [r2]
 836:.\Generated_Source\PSoC5/cyfitter_cfg.c **** 		CY_SET_XTND_REG8((void CYFAR *)CYREG_BCTL1_BANK_CTL, CY_GET_XTND_REG8((void CYFAR *)CYREG_BCTL1_B
 930              		.loc 1 836 0
 931 0042 2D4A     		ldr	r2, .L41+20
 932 0044 2C4B     		ldr	r3, .L41+20
 933 0046 1B78     		ldrb	r3, [r3]
 934 0048 DBB2     		uxtb	r3, r3
 935 004a 43F00203 		orr	r3, r3, #2
 936 004e DBB2     		uxtb	r3, r3
 937 0050 1370     		strb	r3, [r2]
 837:.\Generated_Source\PSoC5/cyfitter_cfg.c **** 
 838:.\Generated_Source\PSoC5/cyfitter_cfg.c **** 		/* Enable UDB array */
 839:.\Generated_Source\PSoC5/cyfitter_cfg.c **** 		CY_SET_XTND_REG8((void CYFAR *)CYREG_PM_ACT_CFG0, CY_GET_XTND_REG8((void CYFAR *)CYREG_PM_ACT_CFG
 938              		.loc 1 839 0
 939 0052 2A4A     		ldr	r2, .L41+24
 940 0054 294B     		ldr	r3, .L41+24
 941 0056 1B78     		ldrb	r3, [r3]
 942 0058 DBB2     		uxtb	r3, r3
 943 005a 43F04003 		orr	r3, r3, #64
 944 005e DBB2     		uxtb	r3, r3
 945 0060 1370     		strb	r3, [r2]
 840:.\Generated_Source\PSoC5/cyfitter_cfg.c **** 		CY_SET_XTND_REG8((void CYFAR *)CYREG_PM_AVAIL_CR2, CY_GET_XTND_REG8((void CYFAR *)CYREG_PM_AVAIL_
 946              		.loc 1 840 0
 947 0062 274A     		ldr	r2, .L41+28
 948 0064 264B     		ldr	r3, .L41+28
 949 0066 1B78     		ldrb	r3, [r3]
 950 0068 DBB2     		uxtb	r3, r3
 951 006a 43F01003 		orr	r3, r3, #16
 952 006e DBB2     		uxtb	r3, r3
 953 0070 1370     		strb	r3, [r2]
 841:.\Generated_Source\PSoC5/cyfitter_cfg.c **** 	}
 842:.\Generated_Source\PSoC5/cyfitter_cfg.c **** 
 843:.\Generated_Source\PSoC5/cyfitter_cfg.c **** 
 844:.\Generated_Source\PSoC5/cyfitter_cfg.c **** 	/* Perform second pass device configuration. These items must be configured in specific order afte
 845:.\Generated_Source\PSoC5/cyfitter_cfg.c **** 	CYCONFIGCPY((void CYFAR *)(CYREG_PRT0_DM0), (const void CYFAR *)(BS_IOPINS0_0_VAL), 8u);
 954              		.loc 1 845 0
 955 0072 2448     		ldr	r0, .L41+32
 956 0074 2449     		ldr	r1, .L41+36
 957 0076 0822     		movs	r2, #8
 958 0078 FFF7FEFF 		bl	CYCONFIGCPY
 846:.\Generated_Source\PSoC5/cyfitter_cfg.c **** 	CYCONFIGCPY((void CYFAR *)(CYREG_PRT12_DM0), (const void CYFAR *)(BS_IOPINS0_7_VAL), 8u);
 959              		.loc 1 846 0
 960 007c 2348     		ldr	r0, .L41+40
 961 007e 2449     		ldr	r1, .L41+44
 962 0080 0822     		movs	r2, #8
 963 0082 FFF7FEFF 		bl	CYCONFIGCPY
 847:.\Generated_Source\PSoC5/cyfitter_cfg.c **** 	CYCONFIGCPY((void CYFAR *)(CYREG_PRT15_DR), (const void CYFAR *)(BS_IOPINS0_8_VAL), 10u);
 964              		.loc 1 847 0
 965 0086 2348     		ldr	r0, .L41+48
 966 0088 2349     		ldr	r1, .L41+52
 967 008a 0A22     		movs	r2, #10
 968 008c FFF7FEFF 		bl	CYCONFIGCPY
 848:.\Generated_Source\PSoC5/cyfitter_cfg.c **** 	CYCONFIGCPY((void CYFAR *)(CYREG_PRT1_DM0), (const void CYFAR *)(BS_IOPINS0_1_VAL), 8u);
 969              		.loc 1 848 0
 970 0090 2248     		ldr	r0, .L41+56
 971 0092 2349     		ldr	r1, .L41+60
ARM GAS  C:\Users\LUKASC~1\AppData\Local\Temp\ccr6U7F6.s 			page 33


 972 0094 0822     		movs	r2, #8
 973 0096 FFF7FEFF 		bl	CYCONFIGCPY
 849:.\Generated_Source\PSoC5/cyfitter_cfg.c **** 	CYCONFIGCPY((void CYFAR *)(CYREG_PRT2_DM0), (const void CYFAR *)(BS_IOPINS0_2_VAL), 8u);
 974              		.loc 1 849 0
 975 009a 2248     		ldr	r0, .L41+64
 976 009c 2249     		ldr	r1, .L41+68
 977 009e 0822     		movs	r2, #8
 978 00a0 FFF7FEFF 		bl	CYCONFIGCPY
 850:.\Generated_Source\PSoC5/cyfitter_cfg.c **** 	CYCONFIGCPY((void CYFAR *)(CYREG_PRT3_DM0), (const void CYFAR *)(BS_IOPINS0_3_VAL), 8u);
 979              		.loc 1 850 0
 980 00a4 2148     		ldr	r0, .L41+72
 981 00a6 2249     		ldr	r1, .L41+76
 982 00a8 0822     		movs	r2, #8
 983 00aa FFF7FEFF 		bl	CYCONFIGCPY
 851:.\Generated_Source\PSoC5/cyfitter_cfg.c **** 	CY_SET_XTND_REG8((void CYFAR *)(CYREG_B0_P4_U0_CFG27), 0x84u);
 984              		.loc 1 851 0
 985 00ae 214B     		ldr	r3, .L41+80
 986 00b0 8422     		movs	r2, #132
 987 00b2 1A70     		strb	r2, [r3]
 852:.\Generated_Source\PSoC5/cyfitter_cfg.c **** 	/* Switch Boost to the precision bandgap reference from its internal reference */
 853:.\Generated_Source\PSoC5/cyfitter_cfg.c **** 	CY_SET_REG8((void CYXDATA *)CYREG_BOOST_CR2, (CY_GET_REG8((void CYXDATA *)CYREG_BOOST_CR2) | 0x08u
 988              		.loc 1 853 0
 989 00b4 204A     		ldr	r2, .L41+84
 990 00b6 204B     		ldr	r3, .L41+84
 991 00b8 1B78     		ldrb	r3, [r3]
 992 00ba DBB2     		uxtb	r3, r3
 993 00bc 43F00803 		orr	r3, r3, #8
 994 00c0 DBB2     		uxtb	r3, r3
 995 00c2 1370     		strb	r3, [r2]
 854:.\Generated_Source\PSoC5/cyfitter_cfg.c **** 
 855:.\Generated_Source\PSoC5/cyfitter_cfg.c **** 	/* Set Flash Cycles based on max possible frequency in case a glitch occurs during ClockSetup(). *
 856:.\Generated_Source\PSoC5/cyfitter_cfg.c **** 	CY_SET_XTND_REG8((void CYFAR *)(CYREG_CACHE_CC_CTL), (((CYDEV_INSTRUCT_CACHE_ENABLED) != 0) ? 0x61
 996              		.loc 1 856 0
 997 00c4 1D4B     		ldr	r3, .L41+88
 998 00c6 6122     		movs	r2, #97
 999 00c8 1A70     		strb	r2, [r3]
 857:.\Generated_Source\PSoC5/cyfitter_cfg.c **** 	/* Setup clocks based on selections from Clock DWR */
 858:.\Generated_Source\PSoC5/cyfitter_cfg.c **** 	ClockSetup();
 1000              		.loc 1 858 0
 1001 00ca FFF7FEFF 		bl	ClockSetup
 859:.\Generated_Source\PSoC5/cyfitter_cfg.c **** 	/* Set Flash Cycles based on newly configured 33.00MHz Bus Clock. */
 860:.\Generated_Source\PSoC5/cyfitter_cfg.c **** 	CY_SET_XTND_REG8((void CYFAR *)(CYREG_CACHE_CC_CTL), (((CYDEV_INSTRUCT_CACHE_ENABLED) != 0) ? 0x81
 1002              		.loc 1 860 0
 1003 00ce 1B4B     		ldr	r3, .L41+88
 1004 00d0 8122     		movs	r2, #129
 1005 00d2 1A70     		strb	r2, [r3]
 861:.\Generated_Source\PSoC5/cyfitter_cfg.c **** 
 862:.\Generated_Source\PSoC5/cyfitter_cfg.c **** 	/* Perform basic analog initialization to defaults */
 863:.\Generated_Source\PSoC5/cyfitter_cfg.c **** 	AnalogSetDefault();
 1006              		.loc 1 863 0
 1007 00d4 FFF7FEFF 		bl	AnalogSetDefault
 864:.\Generated_Source\PSoC5/cyfitter_cfg.c **** 
 865:.\Generated_Source\PSoC5/cyfitter_cfg.c **** 	/* Configure alternate active mode */
 866:.\Generated_Source\PSoC5/cyfitter_cfg.c **** 	CYCONFIGCPY((void CYFAR *)CYDEV_PM_STBY_BASE, (const void CYFAR *)CYDEV_PM_ACT_BASE, 14u);
 1008              		.loc 1 866 0
 1009 00d8 1948     		ldr	r0, .L41+92
 1010 00da 0849     		ldr	r1, .L41+24
ARM GAS  C:\Users\LUKASC~1\AppData\Local\Temp\ccr6U7F6.s 			page 34


 1011 00dc 0E22     		movs	r2, #14
 1012 00de FFF7FEFF 		bl	CYCONFIGCPY
 867:.\Generated_Source\PSoC5/cyfitter_cfg.c **** }
 1013              		.loc 1 867 0
 1014 00e2 80BD     		pop	{r7, pc}
 1015              	.L42:
 1016              		.align	2
 1017              	.L41:
 1018 00e4 E8460040 		.word	1073759976
 1019 00e8 70580040 		.word	1073764464
 1020 00ec 72580040 		.word	1073764466
 1021 00f0 4A580040 		.word	1073764426
 1022 00f4 03500140 		.word	1073827843
 1023 00f8 13500140 		.word	1073827859
 1024 00fc A0430040 		.word	1073759136
 1025 0100 C2430040 		.word	1073759170
 1026 0104 02510040 		.word	1073762562
 1027 0108 10130048 		.word	1207964432
 1028 010c C2510040 		.word	1073762754
 1029 0110 18130048 		.word	1207964440
 1030 0114 F0510040 		.word	1073762800
 1031 0118 20130048 		.word	1207964448
 1032 011c 12510040 		.word	1073762578
 1033 0120 2C130048 		.word	1207964460
 1034 0124 22510040 		.word	1073762594
 1035 0128 34130048 		.word	1207964468
 1036 012c 32510040 		.word	1073762610
 1037 0130 3C130048 		.word	1207964476
 1038 0134 5B080140 		.word	1073809499
 1039 0138 22430040 		.word	1073759010
 1040 013c 00480040 		.word	1073760256
 1041 0140 B0430040 		.word	1073759152
 1042              		.cfi_endproc
 1043              	.LFE10:
 1044              		.size	cyfitter_cfg, .-cyfitter_cfg
 1045              		.bss
 1046              		.align	3
 1047              	DMA_ZERO_VAL.4854:
 1048 0000 00000000 		.space	4
 1049 0004 00000000 		.section	.dma_init,"a",%progbits
 1050              		.align	2
 1051              		.type	CFG_TD_LIST0.4855, %object
 1052              		.size	CFG_TD_LIST0.4855, 560
 1053              	CFG_TD_LIST0.4855:
 1054 0000 0800     		.short	8
 1055 0002 02       		.byte	2
 1056 0003 23       		.byte	35
 1057 0004 0000     		.short	0
 1058 0006 0876     		.short	30216
 1059 0008 0800     		.short	8
 1060 000a 03       		.byte	3
 1061 000b 23       		.byte	35
 1062 000c 0000     		.short	0
 1063 000e 1076     		.short	30224
 1064 0010 0800     		.short	8
 1065 0012 04       		.byte	4
 1066 0013 23       		.byte	35
ARM GAS  C:\Users\LUKASC~1\AppData\Local\Temp\ccr6U7F6.s 			page 35


 1067 0014 0000     		.short	0
 1068 0016 2876     		.short	30248
 1069 0018 0800     		.short	8
 1070 001a 05       		.byte	5
 1071 001b 23       		.byte	35
 1072 001c 0000     		.short	0
 1073 001e 3076     		.short	30256
 1074 0020 0500     		.short	5
 1075 0022 06       		.byte	6
 1076 0023 23       		.byte	35
 1077 0024 0000     		.short	0
 1078 0026 2070     		.short	28704
 1079 0028 0500     		.short	5
 1080 002a 07       		.byte	7
 1081 002b 23       		.byte	35
 1082 002c 0000     		.short	0
 1083 002e 3070     		.short	28720
 1084 0030 0500     		.short	5
 1085 0032 08       		.byte	8
 1086 0033 23       		.byte	35
 1087 0034 0000     		.short	0
 1088 0036 6070     		.short	28768
 1089 0038 0500     		.short	5
 1090 003a FE       		.byte	-2
 1091 003b 23       		.byte	35
 1092 003c 0000     		.short	0
 1093 003e 7070     		.short	28784
 1094 0040 3000     		.short	48
 1095 0042 FE       		.byte	-2
 1096 0043 22       		.byte	34
 1097 0044 0000     		.short	0
 1098 0046 4051     		.short	20800
 1099 0048 8001     		.short	384
 1100 004a 0B       		.byte	11
 1101 004b 22       		.byte	34
 1102 004c 0000     		.short	0
 1103 004e 0000     		.short	0
 1104 0050 8005     		.short	1408
 1105 0052 0C       		.byte	12
 1106 0053 22       		.byte	34
 1107 0054 0000     		.short	0
 1108 0056 0002     		.short	512
 1109 0058 8001     		.short	384
 1110 005a 0D       		.byte	13
 1111 005b 22       		.byte	34
 1112 005c 0000     		.short	0
 1113 005e 000A     		.short	2560
 1114 0060 8001     		.short	384
 1115 0062 0E       		.byte	14
 1116 0063 22       		.byte	34
 1117 0064 0000     		.short	0
 1118 0066 000C     		.short	3072
 1119 0068 8001     		.short	384
 1120 006a 0F       		.byte	15
 1121 006b 22       		.byte	34
 1122 006c 0000     		.short	0
 1123 006e 000E     		.short	3584
ARM GAS  C:\Users\LUKASC~1\AppData\Local\Temp\ccr6U7F6.s 			page 36


 1124 0070 8001     		.short	384
 1125 0072 10       		.byte	16
 1126 0073 22       		.byte	34
 1127 0074 0000     		.short	0
 1128 0076 0014     		.short	5120
 1129 0078 8001     		.short	384
 1130 007a 11       		.byte	17
 1131 007b 22       		.byte	34
 1132 007c 0000     		.short	0
 1133 007e 0016     		.short	5632
 1134 0080 8000     		.short	128
 1135 0082 12       		.byte	18
 1136 0083 22       		.byte	34
 1137 0084 0000     		.short	0
 1138 0086 0042     		.short	16896
 1139 0088 8000     		.short	128
 1140 008a 13       		.byte	19
 1141 008b 22       		.byte	34
 1142 008c 0000     		.short	0
 1143 008e 0043     		.short	17152
 1144 0090 0001     		.short	256
 1145 0092 14       		.byte	20
 1146 0093 22       		.byte	34
 1147 0094 0000     		.short	0
 1148 0096 0044     		.short	17408
 1149 0098 8000     		.short	128
 1150 009a 15       		.byte	21
 1151 009b 22       		.byte	34
 1152 009c 0000     		.short	0
 1153 009e 0046     		.short	17920
 1154 00a0 8000     		.short	128
 1155 00a2 16       		.byte	22
 1156 00a3 22       		.byte	34
 1157 00a4 0000     		.short	0
 1158 00a6 0048     		.short	18432
 1159 00a8 8000     		.short	128
 1160 00aa FE       		.byte	-2
 1161 00ab 22       		.byte	34
 1162 00ac 0000     		.short	0
 1163 00ae 004D     		.short	19712
 1164 00b0 0700     		.short	7
 1165 00b2 18       		.byte	24
 1166 00b3 23       		.byte	35
 1167 00b4 0000     		.short	0
 1168 00b6 0052     		.short	20992
 1169 00b8 0700     		.short	7
 1170 00ba 19       		.byte	25
 1171 00bb 23       		.byte	35
 1172 00bc 0000     		.short	0
 1173 00be 0852     		.short	21000
 1174 00c0 0700     		.short	7
 1175 00c2 1A       		.byte	26
 1176 00c3 23       		.byte	35
 1177 00c4 0000     		.short	0
 1178 00c6 1852     		.short	21016
 1179 00c8 0700     		.short	7
 1180 00ca 1B       		.byte	27
ARM GAS  C:\Users\LUKASC~1\AppData\Local\Temp\ccr6U7F6.s 			page 37


 1181 00cb 23       		.byte	35
 1182 00cc 0000     		.short	0
 1183 00ce 7852     		.short	21112
 1184 00d0 0800     		.short	8
 1185 00d2 1C       		.byte	28
 1186 00d3 23       		.byte	35
 1187 00d4 0000     		.short	0
 1188 00d6 7845     		.short	17784
 1189 00d8 4000     		.short	64
 1190 00da 1D       		.byte	29
 1191 00db 23       		.byte	35
 1192 00dc 0000     		.short	0
 1193 00de 0064     		.short	25600
 1194 00e0 2000     		.short	32
 1195 00e2 1E       		.byte	30
 1196 00e3 23       		.byte	35
 1197 00e4 0000     		.short	0
 1198 00e6 7064     		.short	25712
 1199 00e8 4000     		.short	64
 1200 00ea 1F       		.byte	31
 1201 00eb 23       		.byte	35
 1202 00ec 0000     		.short	0
 1203 00ee 0065     		.short	25856
 1204 00f0 2000     		.short	32
 1205 00f2 FE       		.byte	-2
 1206 00f3 23       		.byte	35
 1207 00f4 0000     		.short	0
 1208 00f6 7065     		.short	25968
 1209 00f8 0800     		.short	8
 1210 00fa 21       		.byte	33
 1211 00fb 23       		.byte	35
 1212 00fc 0000     		.short	0
 1213 00fe 0051     		.short	20736
 1214 0100 8000     		.short	128
 1215 0102 22       		.byte	34
 1216 0103 23       		.byte	35
 1217 0104 0000     		.short	0
 1218 0106 0008     		.short	2048
 1219 0108 8000     		.short	128
 1220 010a 23       		.byte	35
 1221 010b 23       		.byte	35
 1222 010c 0000     		.short	0
 1223 010e 8008     		.short	2176
 1224 0110 8000     		.short	128
 1225 0112 24       		.byte	36
 1226 0113 23       		.byte	35
 1227 0114 0000     		.short	0
 1228 0116 0018     		.short	6144
 1229 0118 8000     		.short	128
 1230 011a 25       		.byte	37
 1231 011b 23       		.byte	35
 1232 011c 0000     		.short	0
 1233 011e 8018     		.short	6272
 1234 0120 8000     		.short	128
 1235 0122 26       		.byte	38
 1236 0123 23       		.byte	35
 1237 0124 0000     		.short	0
ARM GAS  C:\Users\LUKASC~1\AppData\Local\Temp\ccr6U7F6.s 			page 38


 1238 0126 001A     		.short	6656
 1239 0128 8000     		.short	128
 1240 012a 27       		.byte	39
 1241 012b 23       		.byte	35
 1242 012c 0000     		.short	0
 1243 012e 801A     		.short	6784
 1244 0130 1000     		.short	16
 1245 0132 28       		.byte	40
 1246 0133 23       		.byte	35
 1247 0134 0000     		.short	0
 1248 0136 1050     		.short	20496
 1249 0138 1000     		.short	16
 1250 013a 29       		.byte	41
 1251 013b 23       		.byte	35
 1252 013c 0000     		.short	0
 1253 013e 0050     		.short	20480
 1254 0140 8000     		.short	128
 1255 0142 2A       		.byte	42
 1256 0143 23       		.byte	35
 1257 0144 0000     		.short	0
 1258 0146 804D     		.short	19840
 1259 0148 8000     		.short	128
 1260 014a 2B       		.byte	43
 1261 014b 23       		.byte	35
 1262 014c 0000     		.short	0
 1263 014e 004C     		.short	19456
 1264 0150 8000     		.short	128
 1265 0152 2C       		.byte	44
 1266 0153 23       		.byte	35
 1267 0154 0000     		.short	0
 1268 0156 804C     		.short	19584
 1269 0158 8000     		.short	128
 1270 015a 2D       		.byte	45
 1271 015b 23       		.byte	35
 1272 015c 0000     		.short	0
 1273 015e 0047     		.short	18176
 1274 0160 8000     		.short	128
 1275 0162 2E       		.byte	46
 1276 0163 23       		.byte	35
 1277 0164 0000     		.short	0
 1278 0166 8047     		.short	18304
 1279 0168 8000     		.short	128
 1280 016a 2F       		.byte	47
 1281 016b 23       		.byte	35
 1282 016c 0000     		.short	0
 1283 016e 8046     		.short	18048
 1284 0170 8000     		.short	128
 1285 0172 30       		.byte	48
 1286 0173 23       		.byte	35
 1287 0174 0000     		.short	0
 1288 0176 0045     		.short	17664
 1289 0178 8000     		.short	128
 1290 017a 31       		.byte	49
 1291 017b 23       		.byte	35
 1292 017c 0000     		.short	0
 1293 017e 8045     		.short	17792
 1294 0180 8000     		.short	128
ARM GAS  C:\Users\LUKASC~1\AppData\Local\Temp\ccr6U7F6.s 			page 39


 1295 0182 32       		.byte	50
 1296 0183 23       		.byte	35
 1297 0184 0000     		.short	0
 1298 0186 001B     		.short	6912
 1299 0188 8000     		.short	128
 1300 018a 33       		.byte	51
 1301 018b 23       		.byte	35
 1302 018c 0000     		.short	0
 1303 018e 801B     		.short	7040
 1304 0190 8000     		.short	128
 1305 0192 34       		.byte	52
 1306 0193 23       		.byte	35
 1307 0194 0000     		.short	0
 1308 0196 8015     		.short	5504
 1309 0198 8000     		.short	128
 1310 019a 35       		.byte	53
 1311 019b 23       		.byte	35
 1312 019c 0000     		.short	0
 1313 019e 0019     		.short	6400
 1314 01a0 8000     		.short	128
 1315 01a2 36       		.byte	54
 1316 01a3 23       		.byte	35
 1317 01a4 0000     		.short	0
 1318 01a6 8019     		.short	6528
 1319 01a8 8000     		.short	128
 1320 01aa 37       		.byte	55
 1321 01ab 23       		.byte	35
 1322 01ac 0000     		.short	0
 1323 01ae 8017     		.short	6016
 1324 01b0 8000     		.short	128
 1325 01b2 38       		.byte	56
 1326 01b3 23       		.byte	35
 1327 01b4 0000     		.short	0
 1328 01b6 0009     		.short	2304
 1329 01b8 8000     		.short	128
 1330 01ba 39       		.byte	57
 1331 01bb 23       		.byte	35
 1332 01bc 0000     		.short	0
 1333 01be 8009     		.short	2432
 1334 01c0 8000     		.short	128
 1335 01c2 3A       		.byte	58
 1336 01c3 23       		.byte	35
 1337 01c4 0000     		.short	0
 1338 01c6 8007     		.short	1920
 1339 01c8 8000     		.short	128
 1340 01ca 3B       		.byte	59
 1341 01cb 23       		.byte	35
 1342 01cc 0000     		.short	0
 1343 01ce 800B     		.short	2944
 1344 01d0 8000     		.short	128
 1345 01d2 3C       		.byte	60
 1346 01d3 23       		.byte	35
 1347 01d4 0000     		.short	0
 1348 01d6 800D     		.short	3456
 1349 01d8 8000     		.short	128
 1350 01da 3D       		.byte	61
 1351 01db 23       		.byte	35
ARM GAS  C:\Users\LUKASC~1\AppData\Local\Temp\ccr6U7F6.s 			page 40


 1352 01dc 0000     		.short	0
 1353 01de 800F     		.short	3968
 1354 01e0 8000     		.short	128
 1355 01e2 3E       		.byte	62
 1356 01e3 23       		.byte	35
 1357 01e4 0000     		.short	0
 1358 01e6 8001     		.short	384
 1359 01e8 8000     		.short	128
 1360 01ea 3F       		.byte	63
 1361 01eb 23       		.byte	35
 1362 01ec 0000     		.short	0
 1363 01ee 0049     		.short	18688
 1364 01f0 8000     		.short	128
 1365 01f2 40       		.byte	64
 1366 01f3 23       		.byte	35
 1367 01f4 0000     		.short	0
 1368 01f6 8049     		.short	18816
 1369 01f8 8000     		.short	128
 1370 01fa 41       		.byte	65
 1371 01fb 23       		.byte	35
 1372 01fc 0000     		.short	0
 1373 01fe 8048     		.short	18560
 1374 0200 8000     		.short	128
 1375 0202 42       		.byte	66
 1376 0203 23       		.byte	35
 1377 0204 0000     		.short	0
 1378 0206 8043     		.short	17280
 1379 0208 8000     		.short	128
 1380 020a 43       		.byte	67
 1381 020b 23       		.byte	35
 1382 020c 0000     		.short	0
 1383 020e 8042     		.short	17024
 1384 0210 8000     		.short	128
 1385 0212 44       		.byte	68
 1386 0213 23       		.byte	35
 1387 0214 0000     		.short	0
 1388 0216 0041     		.short	16640
 1389 0218 8000     		.short	128
 1390 021a 45       		.byte	69
 1391 021b 23       		.byte	35
 1392 021c 0000     		.short	0
 1393 021e 8041     		.short	16768
 1394 0220 8000     		.short	128
 1395 0222 46       		.byte	70
 1396 0223 23       		.byte	35
 1397 0224 0000     		.short	0
 1398 0226 0040     		.short	16384
 1399 0228 8000     		.short	128
 1400 022a FE       		.byte	-2
 1401 022b 23       		.byte	35
 1402 022c 0000     		.short	0
 1403 022e 8040     		.short	16512
 1404              		.section	.rodata
 1405 007d 000000   		.align	2
 1406              		.type	CFG_TD_ADDR0.4856, %object
 1407              		.size	CFG_TD_ADDR0.4856, 280
 1408              	CFG_TD_ADDR0.4856:
ARM GAS  C:\Users\LUKASC~1\AppData\Local\Temp\ccr6U7F6.s 			page 41


 1409 0080 50020000 		.word	CH1_ADDR_DATA0.4849
 1410 0084 48020000 		.word	CH2_ADDR_DATA0.4850
 1411 0088 40020000 		.word	CH5_ADDR_DATA0.4851
 1412 008c 38020000 		.word	CH6_ADDR_DATA0.4852
 1413 0090 30020000 		.word	DMA_TD_START_CMD.4853
 1414 0094 30020000 		.word	DMA_TD_START_CMD.4853
 1415 0098 30020000 		.word	DMA_TD_START_CMD.4853
 1416 009c 30020000 		.word	DMA_TD_START_CMD.4853
 1417 00a0 00000000 		.word	DMA_ZERO_VAL.4854
 1418 00a4 00000000 		.word	DMA_ZERO_VAL.4854
 1419 00a8 00000000 		.word	DMA_ZERO_VAL.4854
 1420 00ac 00000000 		.word	DMA_ZERO_VAL.4854
 1421 00b0 00000000 		.word	DMA_ZERO_VAL.4854
 1422 00b4 00000000 		.word	DMA_ZERO_VAL.4854
 1423 00b8 00000000 		.word	DMA_ZERO_VAL.4854
 1424 00bc 00000000 		.word	DMA_ZERO_VAL.4854
 1425 00c0 00000000 		.word	DMA_ZERO_VAL.4854
 1426 00c4 00000000 		.word	DMA_ZERO_VAL.4854
 1427 00c8 00000000 		.word	DMA_ZERO_VAL.4854
 1428 00cc 00000000 		.word	DMA_ZERO_VAL.4854
 1429 00d0 00000000 		.word	DMA_ZERO_VAL.4854
 1430 00d4 00000000 		.word	DMA_ZERO_VAL.4854
 1431 00d8 00000048 		.word	1207959552
 1432 00dc 08000048 		.word	1207959560
 1433 00e0 10000048 		.word	1207959568
 1434 00e4 18000048 		.word	1207959576
 1435 00e8 20000048 		.word	1207959584
 1436 00ec 30030048 		.word	1207960368
 1437 00f0 70030048 		.word	1207960432
 1438 00f4 90030048 		.word	1207960464
 1439 00f8 D0030048 		.word	1207960528
 1440 00fc 28000048 		.word	1207959592
 1441 0100 30000048 		.word	1207959600
 1442 0104 B0000048 		.word	1207959728
 1443 0108 30010048 		.word	1207959856
 1444 010c B0010048 		.word	1207959984
 1445 0110 30020048 		.word	1207960112
 1446 0114 B0020048 		.word	1207960240
 1447 0118 F0030048 		.word	1207960560
 1448 011c 00040048 		.word	1207960576
 1449 0120 10040048 		.word	1207960592
 1450 0124 90040048 		.word	1207960720
 1451 0128 10050048 		.word	1207960848
 1452 012c 90050048 		.word	1207960976
 1453 0130 10060048 		.word	1207961104
 1454 0134 90060048 		.word	1207961232
 1455 0138 10070048 		.word	1207961360
 1456 013c 90070048 		.word	1207961488
 1457 0140 10080048 		.word	1207961616
 1458 0144 90080048 		.word	1207961744
 1459 0148 10090048 		.word	1207961872
 1460 014c 90090048 		.word	1207962000
 1461 0150 100A0048 		.word	1207962128
 1462 0154 900A0048 		.word	1207962256
 1463 0158 100B0048 		.word	1207962384
 1464 015c 900B0048 		.word	1207962512
 1465 0160 100C0048 		.word	1207962640
ARM GAS  C:\Users\LUKASC~1\AppData\Local\Temp\ccr6U7F6.s 			page 42


 1466 0164 900C0048 		.word	1207962768
 1467 0168 100D0048 		.word	1207962896
 1468 016c 900D0048 		.word	1207963024
 1469 0170 100E0048 		.word	1207963152
 1470 0174 900E0048 		.word	1207963280
 1471 0178 100F0048 		.word	1207963408
 1472 017c 900F0048 		.word	1207963536
 1473 0180 10100048 		.word	1207963664
 1474 0184 90100048 		.word	1207963792
 1475 0188 10110048 		.word	1207963920
 1476 018c 90110048 		.word	1207964048
 1477 0190 10120048 		.word	1207964176
 1478 0194 90120048 		.word	1207964304
 1479              		.section	.dma_init
 1480              		.align	2
 1481              		.type	DMA_TD_START_CMD.4853, %object
 1482              		.size	DMA_TD_START_CMD.4853, 5
 1483              	DMA_TD_START_CMD.4853:
 1484 0230 01       		.byte	1
 1485 0231 00       		.byte	0
 1486 0232 00       		.byte	0
 1487 0233 00       		.byte	0
 1488 0234 01       		.byte	1
 1489 0235 000000   		.align	2
 1490              		.type	CH6_ADDR_DATA0.4852, %object
 1491              		.size	CH6_ADDR_DATA0.4852, 8
 1492              	CH6_ADDR_DATA0.4852:
 1493 0238 01       		.byte	1
 1494 0239 00       		.byte	0
 1495 023a 00       		.byte	0
 1496 023b 00       		.byte	0
 1497 023c 00       		.byte	0
 1498 023d 48       		.byte	72
 1499 023e 01       		.byte	1
 1500 023f 40       		.byte	64
 1501              		.align	2
 1502              		.type	CH5_ADDR_DATA0.4851, %object
 1503              		.size	CH5_ADDR_DATA0.4851, 8
 1504              	CH5_ADDR_DATA0.4851:
 1505 0240 01       		.byte	1
 1506 0241 00       		.byte	0
 1507 0242 00       		.byte	0
 1508 0243 00       		.byte	0
 1509 0244 00       		.byte	0
 1510 0245 48       		.byte	72
 1511 0246 00       		.byte	0
 1512 0247 40       		.byte	64
 1513              		.align	2
 1514              		.type	CH2_ADDR_DATA0.4850, %object
 1515              		.size	CH2_ADDR_DATA0.4850, 8
 1516              	CH2_ADDR_DATA0.4850:
 1517 0248 01       		.byte	1
 1518 0249 00       		.byte	0
 1519 024a 00       		.byte	0
 1520 024b 00       		.byte	0
 1521 024c 00       		.byte	0
 1522 024d 20       		.byte	32
ARM GAS  C:\Users\LUKASC~1\AppData\Local\Temp\ccr6U7F6.s 			page 43


 1523 024e 01       		.byte	1
 1524 024f 40       		.byte	64
 1525              		.align	2
 1526              		.type	CH1_ADDR_DATA0.4849, %object
 1527              		.size	CH1_ADDR_DATA0.4849, 8
 1528              	CH1_ADDR_DATA0.4849:
 1529 0250 01       		.byte	1
 1530 0251 00       		.byte	0
 1531 0252 00       		.byte	0
 1532 0253 00       		.byte	0
 1533 0254 00       		.byte	0
 1534 0255 20       		.byte	32
 1535 0256 00       		.byte	0
 1536 0257 40       		.byte	64
 1537              		.text
 1538              	.Letext0:
 1539              		.file 2 "c:\\program files (x86)\\cypress\\psoc creator\\3.3\\psoc creator\\import\\gnu\\arm\\4.9.
 1540              		.file 3 ".\\Generated_Source\\PSoC5\\cytypes.h"