ARM GAS  C:\Users\LUKASC~1\AppData\Local\Temp\cczfPSDM.s 			page 1


   1              		.syntax unified
   2              		.cpu cortex-m3
   3              		.fpu softvfp
   4              		.eabi_attribute 20, 1
   5              		.eabi_attribute 21, 1
   6              		.eabi_attribute 23, 3
   7              		.eabi_attribute 24, 1
   8              		.eabi_attribute 25, 1
   9              		.eabi_attribute 26, 1
  10              		.eabi_attribute 30, 6
  11              		.eabi_attribute 34, 1
  12              		.eabi_attribute 18, 4
  13              		.thumb
  14              		.file	"EzI2C_PM.c"
  15              		.text
  16              	.Ltext0:
  17              		.cfi_sections	.debug_frame
  18              		.global	EzI2C_backup
  19              		.data
  20              		.align	2
  21              		.type	EzI2C_backup, %object
  22              		.size	EzI2C_backup, 6
  23              	EzI2C_backup:
  24 0000 00       		.byte	0
  25 0001 81       		.byte	-127
  26 0002 04       		.byte	4
  27 0003 01       		.byte	1
  28 0004 05       		.byte	5
  29 0005 00       		.byte	0
  30 0006 0000     		.section	.text.EzI2C_SaveConfig,"ax",%progbits
  31              		.align	2
  32              		.global	EzI2C_SaveConfig
  33              		.thumb
  34              		.thumb_func
  35              		.type	EzI2C_SaveConfig, %function
  36              	EzI2C_SaveConfig:
  37              	.LFB0:
  38              		.file 1 ".\\Generated_Source\\PSoC5\\EzI2C_PM.c"
   1:.\Generated_Source\PSoC5/EzI2C_PM.c **** /*******************************************************************************
   2:.\Generated_Source\PSoC5/EzI2C_PM.c **** * File Name: EzI2C_PM.c
   3:.\Generated_Source\PSoC5/EzI2C_PM.c **** * Version 2.0
   4:.\Generated_Source\PSoC5/EzI2C_PM.c **** *
   5:.\Generated_Source\PSoC5/EzI2C_PM.c **** * Description:
   6:.\Generated_Source\PSoC5/EzI2C_PM.c **** *  This file contains the API for the proper switching to/from the low power
   7:.\Generated_Source\PSoC5/EzI2C_PM.c **** *  modes.
   8:.\Generated_Source\PSoC5/EzI2C_PM.c **** *
   9:.\Generated_Source\PSoC5/EzI2C_PM.c **** ********************************************************************************
  10:.\Generated_Source\PSoC5/EzI2C_PM.c **** * Copyright 2008-2015, Cypress Semiconductor Corporation.  All rights reserved.
  11:.\Generated_Source\PSoC5/EzI2C_PM.c **** * You may use this file only in accordance with the license, terms, conditions,
  12:.\Generated_Source\PSoC5/EzI2C_PM.c **** * disclaimers, and limitations in the end user license agreement accompanying
  13:.\Generated_Source\PSoC5/EzI2C_PM.c **** * the software package with which this file was provided.
  14:.\Generated_Source\PSoC5/EzI2C_PM.c **** *******************************************************************************/
  15:.\Generated_Source\PSoC5/EzI2C_PM.c **** 
  16:.\Generated_Source\PSoC5/EzI2C_PM.c **** #include "EzI2C_PVT.h"
  17:.\Generated_Source\PSoC5/EzI2C_PM.c **** 
  18:.\Generated_Source\PSoC5/EzI2C_PM.c **** EzI2C_BACKUP_STRUCT EzI2C_backup =
  19:.\Generated_Source\PSoC5/EzI2C_PM.c **** {
ARM GAS  C:\Users\LUKASC~1\AppData\Local\Temp\cczfPSDM.s 			page 2


  20:.\Generated_Source\PSoC5/EzI2C_PM.c ****     EzI2C_DISABLED,
  21:.\Generated_Source\PSoC5/EzI2C_PM.c ****     EzI2C_DEFAULT_XCFG,
  22:.\Generated_Source\PSoC5/EzI2C_PM.c ****     EzI2C_DEFAULT_ADDR,
  23:.\Generated_Source\PSoC5/EzI2C_PM.c ****     EzI2C_DEFAULT_CFG,
  24:.\Generated_Source\PSoC5/EzI2C_PM.c ****     EzI2C_DEFAULT_CLKDIV1,
  25:.\Generated_Source\PSoC5/EzI2C_PM.c ****     EzI2C_DEFAULT_CLKDIV2
  26:.\Generated_Source\PSoC5/EzI2C_PM.c **** };
  27:.\Generated_Source\PSoC5/EzI2C_PM.c **** 
  28:.\Generated_Source\PSoC5/EzI2C_PM.c **** #if (EzI2C_WAKEUP_ENABLED)
  29:.\Generated_Source\PSoC5/EzI2C_PM.c ****     volatile uint8 EzI2C_wakeupSource;
  30:.\Generated_Source\PSoC5/EzI2C_PM.c **** #endif /* (EzI2C_WAKEUP_ENABLED) */
  31:.\Generated_Source\PSoC5/EzI2C_PM.c **** 
  32:.\Generated_Source\PSoC5/EzI2C_PM.c **** 
  33:.\Generated_Source\PSoC5/EzI2C_PM.c **** /*******************************************************************************
  34:.\Generated_Source\PSoC5/EzI2C_PM.c **** * Function Name: EzI2C_SaveConfig
  35:.\Generated_Source\PSoC5/EzI2C_PM.c **** ********************************************************************************
  36:.\Generated_Source\PSoC5/EzI2C_PM.c **** *
  37:.\Generated_Source\PSoC5/EzI2C_PM.c **** * Summary:
  38:.\Generated_Source\PSoC5/EzI2C_PM.c **** *  The Enable wakeup from Sleep Mode selection influences this function
  39:.\Generated_Source\PSoC5/EzI2C_PM.c **** *  implementation:
  40:.\Generated_Source\PSoC5/EzI2C_PM.c **** *   Unchecked: Stores the component non-retention configuration registers.
  41:.\Generated_Source\PSoC5/EzI2C_PM.c **** *   Checked:   Enables backup regulator of the I2C hardware. If a transaction
  42:.\Generated_Source\PSoC5/EzI2C_PM.c **** *              intended for component executes during this function call,
  43:.\Generated_Source\PSoC5/EzI2C_PM.c **** *              it waits until the current transaction is completed and
  44:.\Generated_Source\PSoC5/EzI2C_PM.c **** *              I2C hardware is ready to go to sleep mode. All subsequent
  45:.\Generated_Source\PSoC5/EzI2C_PM.c **** *              I2C traffic is NAKed until the device is put to sleep mode.
  46:.\Generated_Source\PSoC5/EzI2C_PM.c **** *
  47:.\Generated_Source\PSoC5/EzI2C_PM.c **** * Parameters:
  48:.\Generated_Source\PSoC5/EzI2C_PM.c **** *  None.
  49:.\Generated_Source\PSoC5/EzI2C_PM.c **** *
  50:.\Generated_Source\PSoC5/EzI2C_PM.c **** * Return:
  51:.\Generated_Source\PSoC5/EzI2C_PM.c **** *  None.
  52:.\Generated_Source\PSoC5/EzI2C_PM.c **** *
  53:.\Generated_Source\PSoC5/EzI2C_PM.c **** * Global variables:
  54:.\Generated_Source\PSoC5/EzI2C_PM.c **** *  EzI2C_backup - The non-retention registers are saved to.
  55:.\Generated_Source\PSoC5/EzI2C_PM.c **** *
  56:.\Generated_Source\PSoC5/EzI2C_PM.c **** * Reentrant:
  57:.\Generated_Source\PSoC5/EzI2C_PM.c **** *  No.
  58:.\Generated_Source\PSoC5/EzI2C_PM.c **** *
  59:.\Generated_Source\PSoC5/EzI2C_PM.c **** *******************************************************************************/
  60:.\Generated_Source\PSoC5/EzI2C_PM.c **** void EzI2C_SaveConfig(void) 
  61:.\Generated_Source\PSoC5/EzI2C_PM.c **** {
  39              		.loc 1 61 0
  40              		.cfi_startproc
  41              		@ args = 0, pretend = 0, frame = 0
  42              		@ frame_needed = 1, uses_anonymous_args = 0
  43              		@ link register save eliminated.
  44 0000 80B4     		push	{r7}
  45              		.cfi_def_cfa_offset 4
  46              		.cfi_offset 7, -4
  47 0002 00AF     		add	r7, sp, #0
  48              		.cfi_def_cfa_register 7
  62:.\Generated_Source\PSoC5/EzI2C_PM.c **** #if (EzI2C_WAKEUP_ENABLED)
  63:.\Generated_Source\PSoC5/EzI2C_PM.c ****     uint8 interruptState;
  64:.\Generated_Source\PSoC5/EzI2C_PM.c **** #endif /* (EzI2C_WAKEUP_ENABLED) */
  65:.\Generated_Source\PSoC5/EzI2C_PM.c **** 
  66:.\Generated_Source\PSoC5/EzI2C_PM.c ****     /* Store component configuration into backup structure */
ARM GAS  C:\Users\LUKASC~1\AppData\Local\Temp\cczfPSDM.s 			page 3


  67:.\Generated_Source\PSoC5/EzI2C_PM.c ****     EzI2C_backup.cfg     = EzI2C_CFG_REG;
  49              		.loc 1 67 0
  50 0004 0E4B     		ldr	r3, .L2
  51 0006 1B78     		ldrb	r3, [r3]
  52 0008 DAB2     		uxtb	r2, r3
  53 000a 0E4B     		ldr	r3, .L2+4
  54 000c DA70     		strb	r2, [r3, #3]
  68:.\Generated_Source\PSoC5/EzI2C_PM.c ****     EzI2C_backup.xcfg    = EzI2C_XCFG_REG;
  55              		.loc 1 68 0
  56 000e 0E4B     		ldr	r3, .L2+8
  57 0010 1B78     		ldrb	r3, [r3]
  58 0012 DAB2     		uxtb	r2, r3
  59 0014 0B4B     		ldr	r3, .L2+4
  60 0016 5A70     		strb	r2, [r3, #1]
  69:.\Generated_Source\PSoC5/EzI2C_PM.c ****     EzI2C_backup.adr     = EzI2C_ADDR_REG;
  61              		.loc 1 69 0
  62 0018 0C4B     		ldr	r3, .L2+12
  63 001a 1B78     		ldrb	r3, [r3]
  64 001c DAB2     		uxtb	r2, r3
  65 001e 094B     		ldr	r3, .L2+4
  66 0020 9A70     		strb	r2, [r3, #2]
  70:.\Generated_Source\PSoC5/EzI2C_PM.c ****     EzI2C_backup.clkDiv1 = EzI2C_CLKDIV1_REG;
  67              		.loc 1 70 0
  68 0022 0B4B     		ldr	r3, .L2+16
  69 0024 1B78     		ldrb	r3, [r3]
  70 0026 DAB2     		uxtb	r2, r3
  71 0028 064B     		ldr	r3, .L2+4
  72 002a 1A71     		strb	r2, [r3, #4]
  71:.\Generated_Source\PSoC5/EzI2C_PM.c ****     EzI2C_backup.clkDiv2 = EzI2C_CLKDIV2_REG;
  73              		.loc 1 71 0
  74 002c 094B     		ldr	r3, .L2+20
  75 002e 1B78     		ldrb	r3, [r3]
  76 0030 DAB2     		uxtb	r2, r3
  77 0032 044B     		ldr	r3, .L2+4
  78 0034 5A71     		strb	r2, [r3, #5]
  72:.\Generated_Source\PSoC5/EzI2C_PM.c **** 
  73:.\Generated_Source\PSoC5/EzI2C_PM.c **** #if (EzI2C_WAKEUP_ENABLED)
  74:.\Generated_Source\PSoC5/EzI2C_PM.c ****     /* Enable I2C backup regulator */
  75:.\Generated_Source\PSoC5/EzI2C_PM.c ****     interruptState = CyEnterCriticalSection();
  76:.\Generated_Source\PSoC5/EzI2C_PM.c ****     EzI2C_PWRSYS_CR1_REG |= EzI2C_PWRSYS_CR1_I2C_BACKUP;
  77:.\Generated_Source\PSoC5/EzI2C_PM.c ****     CyExitCriticalSection(interruptState);
  78:.\Generated_Source\PSoC5/EzI2C_PM.c **** 
  79:.\Generated_Source\PSoC5/EzI2C_PM.c ****     /* Wait for completion of the current transaction. The following
  80:.\Generated_Source\PSoC5/EzI2C_PM.c ****     * transactions have to be NACKed until the device enters the low power mode.
  81:.\Generated_Source\PSoC5/EzI2C_PM.c ****     * After a wakeup, the force NACK bit is cleared automatically.
  82:.\Generated_Source\PSoC5/EzI2C_PM.c ****     */
  83:.\Generated_Source\PSoC5/EzI2C_PM.c ****     EzI2C_XCFG_REG |= EzI2C_XCFG_FORCE_NACK;
  84:.\Generated_Source\PSoC5/EzI2C_PM.c ****     while (0u == (EzI2C_XCFG_REG & EzI2C_XCFG_SLEEP_READY))
  85:.\Generated_Source\PSoC5/EzI2C_PM.c ****     {
  86:.\Generated_Source\PSoC5/EzI2C_PM.c ****     }
  87:.\Generated_Source\PSoC5/EzI2C_PM.c **** 
  88:.\Generated_Source\PSoC5/EzI2C_PM.c ****      /* Setup wakeup interrupt */
  89:.\Generated_Source\PSoC5/EzI2C_PM.c ****     EzI2C_DisableInt();
  90:.\Generated_Source\PSoC5/EzI2C_PM.c ****     EzI2C_wakeupSource = 0u; /* Clear wakeup event */
  91:.\Generated_Source\PSoC5/EzI2C_PM.c ****     (void) CyIntSetVector(EzI2C_ISR_NUMBER, &EzI2C_WAKEUP_ISR);
  92:.\Generated_Source\PSoC5/EzI2C_PM.c ****     EzI2C_EnableInt();
  93:.\Generated_Source\PSoC5/EzI2C_PM.c **** #endif /* (EzI2C_WAKEUP_ENABLED) */
ARM GAS  C:\Users\LUKASC~1\AppData\Local\Temp\cczfPSDM.s 			page 4


  94:.\Generated_Source\PSoC5/EzI2C_PM.c **** }
  79              		.loc 1 94 0
  80 0036 BD46     		mov	sp, r7
  81              		.cfi_def_cfa_register 13
  82              		@ sp needed
  83 0038 5DF8047B 		ldr	r7, [sp], #4
  84              		.cfi_restore 7
  85              		.cfi_def_cfa_offset 0
  86 003c 7047     		bx	lr
  87              	.L3:
  88 003e 00BF     		.align	2
  89              	.L2:
  90 0040 D6490040 		.word	1073760726
  91 0044 00000000 		.word	EzI2C_backup
  92 0048 C8490040 		.word	1073760712
  93 004c CA490040 		.word	1073760714
  94 0050 DB490040 		.word	1073760731
  95 0054 DC490040 		.word	1073760732
  96              		.cfi_endproc
  97              	.LFE0:
  98              		.size	EzI2C_SaveConfig, .-EzI2C_SaveConfig
  99              		.section	.text.EzI2C_RestoreConfig,"ax",%progbits
 100              		.align	2
 101              		.global	EzI2C_RestoreConfig
 102              		.thumb
 103              		.thumb_func
 104              		.type	EzI2C_RestoreConfig, %function
 105              	EzI2C_RestoreConfig:
 106              	.LFB1:
  95:.\Generated_Source\PSoC5/EzI2C_PM.c **** 
  96:.\Generated_Source\PSoC5/EzI2C_PM.c **** 
  97:.\Generated_Source\PSoC5/EzI2C_PM.c **** /*******************************************************************************
  98:.\Generated_Source\PSoC5/EzI2C_PM.c **** * Function Name: EzI2C_RestoreConfig
  99:.\Generated_Source\PSoC5/EzI2C_PM.c **** ********************************************************************************
 100:.\Generated_Source\PSoC5/EzI2C_PM.c **** *
 101:.\Generated_Source\PSoC5/EzI2C_PM.c **** * Summary:
 102:.\Generated_Source\PSoC5/EzI2C_PM.c **** *  The Enable wakeup from Sleep Mode selection influences this function
 103:.\Generated_Source\PSoC5/EzI2C_PM.c **** *  implementation:
 104:.\Generated_Source\PSoC5/EzI2C_PM.c **** *   Unchecked: Restores the component non-retention configuration registers
 105:.\Generated_Source\PSoC5/EzI2C_PM.c **** *              to the state they were in before I2C_Sleep() or I2C_SaveConfig()
 106:.\Generated_Source\PSoC5/EzI2C_PM.c **** *              was called.
 107:.\Generated_Source\PSoC5/EzI2C_PM.c **** *   Checked:   Disables the backup regulator of the I2C hardware. Sets up the
 108:.\Generated_Source\PSoC5/EzI2C_PM.c **** *              regular component interrupt handler and generates the component
 109:.\Generated_Source\PSoC5/EzI2C_PM.c **** *              interrupt if it was wake up source to release the bus and
 110:.\Generated_Source\PSoC5/EzI2C_PM.c **** *              continue in-coming I2C transaction.
 111:.\Generated_Source\PSoC5/EzI2C_PM.c **** *
 112:.\Generated_Source\PSoC5/EzI2C_PM.c **** * Parameters:
 113:.\Generated_Source\PSoC5/EzI2C_PM.c **** *  None.
 114:.\Generated_Source\PSoC5/EzI2C_PM.c **** *
 115:.\Generated_Source\PSoC5/EzI2C_PM.c **** * Return:
 116:.\Generated_Source\PSoC5/EzI2C_PM.c **** *  None.
 117:.\Generated_Source\PSoC5/EzI2C_PM.c **** *
 118:.\Generated_Source\PSoC5/EzI2C_PM.c **** * Global variables:
 119:.\Generated_Source\PSoC5/EzI2C_PM.c **** *  EzI2C_backup - the non-retention registers are restored from.
 120:.\Generated_Source\PSoC5/EzI2C_PM.c **** *
 121:.\Generated_Source\PSoC5/EzI2C_PM.c **** * Reentrant:
 122:.\Generated_Source\PSoC5/EzI2C_PM.c **** *  No.
ARM GAS  C:\Users\LUKASC~1\AppData\Local\Temp\cczfPSDM.s 			page 5


 123:.\Generated_Source\PSoC5/EzI2C_PM.c **** *
 124:.\Generated_Source\PSoC5/EzI2C_PM.c **** * Side Effects:
 125:.\Generated_Source\PSoC5/EzI2C_PM.c **** *  Calling this function before EzI2C_SaveConfig() or
 126:.\Generated_Source\PSoC5/EzI2C_PM.c **** *  EzI2C_Sleep() may produce unexpected behavior.
 127:.\Generated_Source\PSoC5/EzI2C_PM.c **** *
 128:.\Generated_Source\PSoC5/EzI2C_PM.c **** *******************************************************************************/
 129:.\Generated_Source\PSoC5/EzI2C_PM.c **** void EzI2C_RestoreConfig(void) 
 130:.\Generated_Source\PSoC5/EzI2C_PM.c **** {
 107              		.loc 1 130 0
 108              		.cfi_startproc
 109              		@ args = 0, pretend = 0, frame = 8
 110              		@ frame_needed = 1, uses_anonymous_args = 0
 111 0000 80B5     		push	{r7, lr}
 112              		.cfi_def_cfa_offset 8
 113              		.cfi_offset 7, -8
 114              		.cfi_offset 14, -4
 115 0002 82B0     		sub	sp, sp, #8
 116              		.cfi_def_cfa_offset 16
 117 0004 00AF     		add	r7, sp, #0
 118              		.cfi_def_cfa_register 7
 131:.\Generated_Source\PSoC5/EzI2C_PM.c ****     uint8 intState;
 132:.\Generated_Source\PSoC5/EzI2C_PM.c **** 
 133:.\Generated_Source\PSoC5/EzI2C_PM.c ****     if (0u != (EzI2C_PWRSYS_CR1_I2C_BACKUP & EzI2C_PWRSYS_CR1_REG))
 119              		.loc 1 133 0
 120 0006 184B     		ldr	r3, .L7
 121 0008 1B78     		ldrb	r3, [r3]
 122 000a DBB2     		uxtb	r3, r3
 123 000c 03F00403 		and	r3, r3, #4
 124 0010 DBB2     		uxtb	r3, r3
 125 0012 002B     		cmp	r3, #0
 126 0014 10D0     		beq	.L5
 134:.\Generated_Source\PSoC5/EzI2C_PM.c ****     /* Exit from Sleep */
 135:.\Generated_Source\PSoC5/EzI2C_PM.c ****     {
 136:.\Generated_Source\PSoC5/EzI2C_PM.c ****         /* Disable I2C backup regulator */
 137:.\Generated_Source\PSoC5/EzI2C_PM.c ****         intState = CyEnterCriticalSection();
 127              		.loc 1 137 0
 128 0016 FFF7FEFF 		bl	CyEnterCriticalSection
 129 001a 0346     		mov	r3, r0
 130 001c FB71     		strb	r3, [r7, #7]
 138:.\Generated_Source\PSoC5/EzI2C_PM.c ****         EzI2C_PWRSYS_CR1_REG &= (uint8) ~EzI2C_PWRSYS_CR1_I2C_BACKUP;
 131              		.loc 1 138 0
 132 001e 124A     		ldr	r2, .L7
 133 0020 114B     		ldr	r3, .L7
 134 0022 1B78     		ldrb	r3, [r3]
 135 0024 DBB2     		uxtb	r3, r3
 136 0026 23F00403 		bic	r3, r3, #4
 137 002a DBB2     		uxtb	r3, r3
 138 002c 1370     		strb	r3, [r2]
 139:.\Generated_Source\PSoC5/EzI2C_PM.c ****         CyExitCriticalSection(intState);
 139              		.loc 1 139 0
 140 002e FB79     		ldrb	r3, [r7, #7]	@ zero_extendqisi2
 141 0030 1846     		mov	r0, r3
 142 0032 FFF7FEFF 		bl	CyExitCriticalSection
 143 0036 13E0     		b	.L4
 144              	.L5:
 140:.\Generated_Source\PSoC5/EzI2C_PM.c ****     }
 141:.\Generated_Source\PSoC5/EzI2C_PM.c ****     else /* Exit from Hibernate (bit is cleared) or wakeup disabled */
ARM GAS  C:\Users\LUKASC~1\AppData\Local\Temp\cczfPSDM.s 			page 6


 142:.\Generated_Source\PSoC5/EzI2C_PM.c ****     {
 143:.\Generated_Source\PSoC5/EzI2C_PM.c ****     #if (EzI2C_WAKEUP_ENABLED)
 144:.\Generated_Source\PSoC5/EzI2C_PM.c ****         /* Disable power to I2C block before register restore */
 145:.\Generated_Source\PSoC5/EzI2C_PM.c ****         intState = CyEnterCriticalSection();
 146:.\Generated_Source\PSoC5/EzI2C_PM.c ****         EzI2C_PM_ACT_CFG_REG  &= (uint8) ~EzI2C_ACT_PWR_EN;
 147:.\Generated_Source\PSoC5/EzI2C_PM.c ****         EzI2C_PM_STBY_CFG_REG &= (uint8) ~EzI2C_STBY_PWR_EN;
 148:.\Generated_Source\PSoC5/EzI2C_PM.c ****         CyExitCriticalSection(intState);
 149:.\Generated_Source\PSoC5/EzI2C_PM.c **** 
 150:.\Generated_Source\PSoC5/EzI2C_PM.c ****         /* Enable component after restore complete */
 151:.\Generated_Source\PSoC5/EzI2C_PM.c ****         EzI2C_backup.enableState = EzI2C_ENABLED;
 152:.\Generated_Source\PSoC5/EzI2C_PM.c ****     #endif /* (EzI2C_WAKEUP_ENABLED) */
 153:.\Generated_Source\PSoC5/EzI2C_PM.c **** 
 154:.\Generated_Source\PSoC5/EzI2C_PM.c ****         /* Restore component registers: Hibernate disable power */
 155:.\Generated_Source\PSoC5/EzI2C_PM.c ****         EzI2C_CFG_REG     = EzI2C_backup.cfg;
 145              		.loc 1 155 0
 146 0038 0C4B     		ldr	r3, .L7+4
 147 003a 0D4A     		ldr	r2, .L7+8
 148 003c D278     		ldrb	r2, [r2, #3]	@ zero_extendqisi2
 149 003e 1A70     		strb	r2, [r3]
 156:.\Generated_Source\PSoC5/EzI2C_PM.c ****         EzI2C_XCFG_REG    = EzI2C_backup.xcfg;
 150              		.loc 1 156 0
 151 0040 0C4B     		ldr	r3, .L7+12
 152 0042 0B4A     		ldr	r2, .L7+8
 153 0044 5278     		ldrb	r2, [r2, #1]	@ zero_extendqisi2
 154 0046 1A70     		strb	r2, [r3]
 157:.\Generated_Source\PSoC5/EzI2C_PM.c ****         EzI2C_ADDR_REG    = EzI2C_backup.adr;
 155              		.loc 1 157 0
 156 0048 0B4B     		ldr	r3, .L7+16
 157 004a 094A     		ldr	r2, .L7+8
 158 004c 9278     		ldrb	r2, [r2, #2]	@ zero_extendqisi2
 159 004e 1A70     		strb	r2, [r3]
 158:.\Generated_Source\PSoC5/EzI2C_PM.c ****         EzI2C_CLKDIV1_REG = EzI2C_backup.clkDiv1;
 160              		.loc 1 158 0
 161 0050 0A4B     		ldr	r3, .L7+20
 162 0052 074A     		ldr	r2, .L7+8
 163 0054 1279     		ldrb	r2, [r2, #4]	@ zero_extendqisi2
 164 0056 1A70     		strb	r2, [r3]
 159:.\Generated_Source\PSoC5/EzI2C_PM.c ****         EzI2C_CLKDIV2_REG = EzI2C_backup.clkDiv2;
 165              		.loc 1 159 0
 166 0058 094B     		ldr	r3, .L7+24
 167 005a 054A     		ldr	r2, .L7+8
 168 005c 5279     		ldrb	r2, [r2, #5]	@ zero_extendqisi2
 169 005e 1A70     		strb	r2, [r3]
 170              	.L4:
 160:.\Generated_Source\PSoC5/EzI2C_PM.c ****     }
 161:.\Generated_Source\PSoC5/EzI2C_PM.c **** 
 162:.\Generated_Source\PSoC5/EzI2C_PM.c **** #if (EzI2C_WAKEUP_ENABLED)
 163:.\Generated_Source\PSoC5/EzI2C_PM.c ****     /* Set I2C interrupt to be pending if component is source of wake up */
 164:.\Generated_Source\PSoC5/EzI2C_PM.c ****     EzI2C_DisableInt();
 165:.\Generated_Source\PSoC5/EzI2C_PM.c ****     (void) CyIntSetVector(EzI2C_ISR_NUMBER, &EzI2C_ISR);
 166:.\Generated_Source\PSoC5/EzI2C_PM.c ****     if (0u != EzI2C_wakeupSource)
 167:.\Generated_Source\PSoC5/EzI2C_PM.c ****     {
 168:.\Generated_Source\PSoC5/EzI2C_PM.c ****         /* Generate interrupt to release I2C bus */
 169:.\Generated_Source\PSoC5/EzI2C_PM.c ****         (void) CyIntSetPending(EzI2C_ISR_NUMBER);
 170:.\Generated_Source\PSoC5/EzI2C_PM.c ****     }
 171:.\Generated_Source\PSoC5/EzI2C_PM.c ****     EzI2C_EnableInt();
 172:.\Generated_Source\PSoC5/EzI2C_PM.c **** #endif /* (EzI2C_WAKEUP_ENABLED) */
ARM GAS  C:\Users\LUKASC~1\AppData\Local\Temp\cczfPSDM.s 			page 7


 173:.\Generated_Source\PSoC5/EzI2C_PM.c **** }
 171              		.loc 1 173 0
 172 0060 0837     		adds	r7, r7, #8
 173              		.cfi_def_cfa_offset 8
 174 0062 BD46     		mov	sp, r7
 175              		.cfi_def_cfa_register 13
 176              		@ sp needed
 177 0064 80BD     		pop	{r7, pc}
 178              	.L8:
 179 0066 00BF     		.align	2
 180              	.L7:
 181 0068 31430040 		.word	1073759025
 182 006c D6490040 		.word	1073760726
 183 0070 00000000 		.word	EzI2C_backup
 184 0074 C8490040 		.word	1073760712
 185 0078 CA490040 		.word	1073760714
 186 007c DB490040 		.word	1073760731
 187 0080 DC490040 		.word	1073760732
 188              		.cfi_endproc
 189              	.LFE1:
 190              		.size	EzI2C_RestoreConfig, .-EzI2C_RestoreConfig
 191              		.section	.text.EzI2C_Sleep,"ax",%progbits
 192              		.align	2
 193              		.global	EzI2C_Sleep
 194              		.thumb
 195              		.thumb_func
 196              		.type	EzI2C_Sleep, %function
 197              	EzI2C_Sleep:
 198              	.LFB2:
 174:.\Generated_Source\PSoC5/EzI2C_PM.c **** 
 175:.\Generated_Source\PSoC5/EzI2C_PM.c **** 
 176:.\Generated_Source\PSoC5/EzI2C_PM.c **** /*******************************************************************************
 177:.\Generated_Source\PSoC5/EzI2C_PM.c **** * Function Name: EzI2C_Sleep
 178:.\Generated_Source\PSoC5/EzI2C_PM.c **** ********************************************************************************
 179:.\Generated_Source\PSoC5/EzI2C_PM.c **** *
 180:.\Generated_Source\PSoC5/EzI2C_PM.c **** * Summary:
 181:.\Generated_Source\PSoC5/EzI2C_PM.c **** *  This is the preferred method to prepare the component before device enters
 182:.\Generated_Source\PSoC5/EzI2C_PM.c **** *  sleep mode.
 183:.\Generated_Source\PSoC5/EzI2C_PM.c **** *  The Enable wakeup from Sleep Mode selection influences this function
 184:.\Generated_Source\PSoC5/EzI2C_PM.c **** *  implementation:
 185:.\Generated_Source\PSoC5/EzI2C_PM.c **** *   Unchecked: Checks current EZI2C component state, saves it, and disables the
 186:.\Generated_Source\PSoC5/EzI2C_PM.c **** *              component by calling EZI2C_Stop() if it is currently enabled.
 187:.\Generated_Source\PSoC5/EzI2C_PM.c **** *              EZI2C_SaveConfig() is then called to save the component
 188:.\Generated_Source\PSoC5/EzI2C_PM.c **** *              non-retention configuration registers.
 189:.\Generated_Source\PSoC5/EzI2C_PM.c **** *   Checked:   If a transaction intended for component is in progress during
 190:.\Generated_Source\PSoC5/EzI2C_PM.c **** *              this function call, it waits until the current transaction is
 191:.\Generated_Source\PSoC5/EzI2C_PM.c **** *              completed. All subsequent I2C traffic intended for component is
 192:.\Generated_Source\PSoC5/EzI2C_PM.c **** *              NAKed until the device is put to sleep mode. The address match
 193:.\Generated_Source\PSoC5/EzI2C_PM.c **** *              event wakes up the device.
 194:.\Generated_Source\PSoC5/EzI2C_PM.c **** *
 195:.\Generated_Source\PSoC5/EzI2C_PM.c **** *  Call the EZI2C_Sleep() function before calling the CyPmSleep() or the
 196:.\Generated_Source\PSoC5/EzI2C_PM.c **** *  CyPmHibernate() function. Refer to the PSoC Creator System Reference Guide
 197:.\Generated_Source\PSoC5/EzI2C_PM.c **** *  for more information about power-management functions.
 198:.\Generated_Source\PSoC5/EzI2C_PM.c **** *
 199:.\Generated_Source\PSoC5/EzI2C_PM.c **** * Parameters:
 200:.\Generated_Source\PSoC5/EzI2C_PM.c **** *  None.
 201:.\Generated_Source\PSoC5/EzI2C_PM.c **** *
ARM GAS  C:\Users\LUKASC~1\AppData\Local\Temp\cczfPSDM.s 			page 8


 202:.\Generated_Source\PSoC5/EzI2C_PM.c **** * Return:
 203:.\Generated_Source\PSoC5/EzI2C_PM.c **** *  None.
 204:.\Generated_Source\PSoC5/EzI2C_PM.c **** *
 205:.\Generated_Source\PSoC5/EzI2C_PM.c **** * Global variables:
 206:.\Generated_Source\PSoC5/EzI2C_PM.c **** *  EzI2C_backup - The non retention registers are saved to. Changed
 207:.\Generated_Source\PSoC5/EzI2C_PM.c **** *  by EzI2C_SaveConfig() function call.
 208:.\Generated_Source\PSoC5/EzI2C_PM.c **** *
 209:.\Generated_Source\PSoC5/EzI2C_PM.c **** * Reentrant:
 210:.\Generated_Source\PSoC5/EzI2C_PM.c **** *  No.
 211:.\Generated_Source\PSoC5/EzI2C_PM.c **** *
 212:.\Generated_Source\PSoC5/EzI2C_PM.c **** *******************************************************************************/
 213:.\Generated_Source\PSoC5/EzI2C_PM.c **** void EzI2C_Sleep(void) 
 214:.\Generated_Source\PSoC5/EzI2C_PM.c **** {
 199              		.loc 1 214 0
 200              		.cfi_startproc
 201              		@ args = 0, pretend = 0, frame = 0
 202              		@ frame_needed = 1, uses_anonymous_args = 0
 203 0000 80B5     		push	{r7, lr}
 204              		.cfi_def_cfa_offset 8
 205              		.cfi_offset 7, -8
 206              		.cfi_offset 14, -4
 207 0002 00AF     		add	r7, sp, #0
 208              		.cfi_def_cfa_register 7
 215:.\Generated_Source\PSoC5/EzI2C_PM.c **** #if (EzI2C_WAKEUP_ENABLED)
 216:.\Generated_Source\PSoC5/EzI2C_PM.c ****     /* Do not re-enable component in EzI2C_Wakeup(). It remains enabled as it is wakeup source */
 217:.\Generated_Source\PSoC5/EzI2C_PM.c ****     EzI2C_backup.enableState = EzI2C_DISABLED;
 218:.\Generated_Source\PSoC5/EzI2C_PM.c **** #else
 219:.\Generated_Source\PSoC5/EzI2C_PM.c ****     /* Store component state enabled or disable to restore after wakeup */
 220:.\Generated_Source\PSoC5/EzI2C_PM.c ****     EzI2C_backup.enableState = (EzI2C_PM_ACT_CFG_REG & EzI2C_ACT_PWR_EN);
 209              		.loc 1 220 0
 210 0004 084B     		ldr	r3, .L11
 211 0006 1B78     		ldrb	r3, [r3]
 212 0008 DBB2     		uxtb	r3, r3
 213 000a 03F00403 		and	r3, r3, #4
 214 000e DAB2     		uxtb	r2, r3
 215 0010 064B     		ldr	r3, .L11+4
 216 0012 1A70     		strb	r2, [r3]
 221:.\Generated_Source\PSoC5/EzI2C_PM.c **** 
 222:.\Generated_Source\PSoC5/EzI2C_PM.c ****     if (0u != EzI2C_backup.enableState)
 217              		.loc 1 222 0
 218 0014 054B     		ldr	r3, .L11+4
 219 0016 1B78     		ldrb	r3, [r3]	@ zero_extendqisi2
 220 0018 002B     		cmp	r3, #0
 221 001a 01D0     		beq	.L10
 223:.\Generated_Source\PSoC5/EzI2C_PM.c ****     {
 224:.\Generated_Source\PSoC5/EzI2C_PM.c ****         /* Disable component before enter Sleep */
 225:.\Generated_Source\PSoC5/EzI2C_PM.c ****         EzI2C_Stop();
 222              		.loc 1 225 0
 223 001c FFF7FEFF 		bl	EzI2C_Stop
 224              	.L10:
 226:.\Generated_Source\PSoC5/EzI2C_PM.c ****     }
 227:.\Generated_Source\PSoC5/EzI2C_PM.c **** #endif /* (EzI2C_WAKEUP_ENABLED) */
 228:.\Generated_Source\PSoC5/EzI2C_PM.c **** 
 229:.\Generated_Source\PSoC5/EzI2C_PM.c ****     EzI2C_SaveConfig();
 225              		.loc 1 229 0
 226 0020 FFF7FEFF 		bl	EzI2C_SaveConfig
 230:.\Generated_Source\PSoC5/EzI2C_PM.c **** }
ARM GAS  C:\Users\LUKASC~1\AppData\Local\Temp\cczfPSDM.s 			page 9


 227              		.loc 1 230 0
 228 0024 80BD     		pop	{r7, pc}
 229              	.L12:
 230 0026 00BF     		.align	2
 231              	.L11:
 232 0028 A5430040 		.word	1073759141
 233 002c 00000000 		.word	EzI2C_backup
 234              		.cfi_endproc
 235              	.LFE2:
 236              		.size	EzI2C_Sleep, .-EzI2C_Sleep
 237              		.section	.text.EzI2C_Wakeup,"ax",%progbits
 238              		.align	2
 239              		.global	EzI2C_Wakeup
 240              		.thumb
 241              		.thumb_func
 242              		.type	EzI2C_Wakeup, %function
 243              	EzI2C_Wakeup:
 244              	.LFB3:
 231:.\Generated_Source\PSoC5/EzI2C_PM.c **** 
 232:.\Generated_Source\PSoC5/EzI2C_PM.c **** 
 233:.\Generated_Source\PSoC5/EzI2C_PM.c **** /*******************************************************************************
 234:.\Generated_Source\PSoC5/EzI2C_PM.c **** * Function Name: EzI2C_Wakeup
 235:.\Generated_Source\PSoC5/EzI2C_PM.c **** ********************************************************************************
 236:.\Generated_Source\PSoC5/EzI2C_PM.c **** *
 237:.\Generated_Source\PSoC5/EzI2C_PM.c **** * Summary:
 238:.\Generated_Source\PSoC5/EzI2C_PM.c **** *  This is the preferred method to prepare the component for active mode
 239:.\Generated_Source\PSoC5/EzI2C_PM.c **** *  operation (when device exits sleep mode).
 240:.\Generated_Source\PSoC5/EzI2C_PM.c **** *  The Enable wakeup from Sleep Mode selection influences this function
 241:.\Generated_Source\PSoC5/EzI2C_PM.c **** *  implementation:
 242:.\Generated_Source\PSoC5/EzI2C_PM.c **** *   Unchecked: Restores the component non-retention configuration registers
 243:.\Generated_Source\PSoC5/EzI2C_PM.c **** *              by calling EZI2C_RestoreConfig(). If the component was enabled
 244:.\Generated_Source\PSoC5/EzI2C_PM.c **** *              before the EZI2C_Sleep() function was called, EZI2C_Wakeup()
 245:.\Generated_Source\PSoC5/EzI2C_PM.c **** *              re-enables it.
 246:.\Generated_Source\PSoC5/EzI2C_PM.c **** *   Checked:   Disables the backup regulator of I2C hardware. The incoming
 247:.\Generated_Source\PSoC5/EzI2C_PM.c **** *              transaction continues as soon as the regular EZI2C interrupt
 248:.\Generated_Source\PSoC5/EzI2C_PM.c **** *              handler is set up (global interrupts has to be  enabled to
 249:.\Generated_Source\PSoC5/EzI2C_PM.c **** *              service EZI2C component interrupt).
 250:.\Generated_Source\PSoC5/EzI2C_PM.c **** *
 251:.\Generated_Source\PSoC5/EzI2C_PM.c **** * Parameters:
 252:.\Generated_Source\PSoC5/EzI2C_PM.c **** *  None.
 253:.\Generated_Source\PSoC5/EzI2C_PM.c **** *
 254:.\Generated_Source\PSoC5/EzI2C_PM.c **** * Return:
 255:.\Generated_Source\PSoC5/EzI2C_PM.c **** *  None.
 256:.\Generated_Source\PSoC5/EzI2C_PM.c **** *
 257:.\Generated_Source\PSoC5/EzI2C_PM.c **** * Global variables:
 258:.\Generated_Source\PSoC5/EzI2C_PM.c **** *  EzI2C_backup - The non retention registers are restored from.
 259:.\Generated_Source\PSoC5/EzI2C_PM.c **** *
 260:.\Generated_Source\PSoC5/EzI2C_PM.c **** * Reentrant:
 261:.\Generated_Source\PSoC5/EzI2C_PM.c **** *  No.
 262:.\Generated_Source\PSoC5/EzI2C_PM.c **** *
 263:.\Generated_Source\PSoC5/EzI2C_PM.c **** * Side Effects:
 264:.\Generated_Source\PSoC5/EzI2C_PM.c **** *  Calling this function before EzI2C_SaveConfig() or
 265:.\Generated_Source\PSoC5/EzI2C_PM.c **** *  EzI2C_Sleep() will lead to unpredictable results.
 266:.\Generated_Source\PSoC5/EzI2C_PM.c **** *
 267:.\Generated_Source\PSoC5/EzI2C_PM.c **** *******************************************************************************/
 268:.\Generated_Source\PSoC5/EzI2C_PM.c **** void EzI2C_Wakeup(void) 
 269:.\Generated_Source\PSoC5/EzI2C_PM.c **** {
ARM GAS  C:\Users\LUKASC~1\AppData\Local\Temp\cczfPSDM.s 			page 10


 245              		.loc 1 269 0
 246              		.cfi_startproc
 247              		@ args = 0, pretend = 0, frame = 0
 248              		@ frame_needed = 1, uses_anonymous_args = 0
 249 0000 80B5     		push	{r7, lr}
 250              		.cfi_def_cfa_offset 8
 251              		.cfi_offset 7, -8
 252              		.cfi_offset 14, -4
 253 0002 00AF     		add	r7, sp, #0
 254              		.cfi_def_cfa_register 7
 270:.\Generated_Source\PSoC5/EzI2C_PM.c ****     EzI2C_RestoreConfig();
 255              		.loc 1 270 0
 256 0004 FFF7FEFF 		bl	EzI2C_RestoreConfig
 271:.\Generated_Source\PSoC5/EzI2C_PM.c **** 
 272:.\Generated_Source\PSoC5/EzI2C_PM.c ****     if (0u != EzI2C_backup.enableState)
 257              		.loc 1 272 0
 258 0008 034B     		ldr	r3, .L15
 259 000a 1B78     		ldrb	r3, [r3]	@ zero_extendqisi2
 260 000c 002B     		cmp	r3, #0
 261 000e 01D0     		beq	.L13
 273:.\Generated_Source\PSoC5/EzI2C_PM.c ****     {
 274:.\Generated_Source\PSoC5/EzI2C_PM.c ****         /* Enable component as it was enabled before Sleep */
 275:.\Generated_Source\PSoC5/EzI2C_PM.c ****         EzI2C_Enable();
 262              		.loc 1 275 0
 263 0010 FFF7FEFF 		bl	EzI2C_Enable
 264              	.L13:
 276:.\Generated_Source\PSoC5/EzI2C_PM.c ****     }
 277:.\Generated_Source\PSoC5/EzI2C_PM.c **** }
 265              		.loc 1 277 0
 266 0014 80BD     		pop	{r7, pc}
 267              	.L16:
 268 0016 00BF     		.align	2
 269              	.L15:
 270 0018 00000000 		.word	EzI2C_backup
 271              		.cfi_endproc
 272              	.LFE3:
 273              		.size	EzI2C_Wakeup, .-EzI2C_Wakeup
 274              		.text
 275              	.Letext0:
 276              		.file 2 ".\\Generated_Source\\PSoC5\\cytypes.h"
 277              		.file 3 ".\\Generated_Source\\PSoC5\\EzI2C.h"