ARM GAS  C:\Users\LUKASC~1\AppData\Local\Temp\ccaP0pWK.s 			page 1


   1              		.syntax unified
   2              		.cpu cortex-m3
   3              		.fpu softvfp
   4              		.eabi_attribute 20, 1
   5              		.eabi_attribute 21, 1
   6              		.eabi_attribute 23, 3
   7              		.eabi_attribute 24, 1
   8              		.eabi_attribute 25, 1
   9              		.eabi_attribute 26, 1
  10              		.eabi_attribute 30, 6
  11              		.eabi_attribute 34, 1
  12              		.eabi_attribute 18, 4
  13              		.thumb
  14              		.file	"funk.c"
  15              		.text
  16              	.Ltext0:
  17              		.cfi_sections	.debug_frame
  18              		.global _printf_float
  19              		.thumb
  20              		.comm	temp,1,1
  21              		.global	q
  22              		.bss
  23              		.type	q, %object
  24              		.size	q, 1
  25              	q:
  26 0000 00       		.space	1
  27              		.comm	data_array,4,4
  28              		.global	tx_address
  29              		.data
  30              		.align	2
  31              		.type	tx_address, %object
  32              		.size	tx_address, 5
  33              	tx_address:
  34 0000 E7       		.byte	-25
  35 0001 E7       		.byte	-25
  36 0002 E7       		.byte	-25
  37 0003 E7       		.byte	-25
  38 0004 E7       		.byte	-25
  39              		.global	rx_address
  40 0005 000000   		.align	2
  41              		.type	rx_address, %object
  42              		.size	rx_address, 5
  43              	rx_address:
  44 0008 D7       		.byte	-41
  45 0009 D7       		.byte	-41
  46 000a D7       		.byte	-41
  47 000b D7       		.byte	-41
  48 000c D7       		.byte	-41
  49 000d 000000   		.section	.rodata
  50              		.align	2
  51              	.LC0:
  52 0000 54582069 		.ascii	"TX init\000"
  52      6E697400 
  53              		.align	2
  54              	.LC1:
  55 0008 3E205472 		.ascii	"> Tranmission went OK\015\012\000"
  55      616E6D69 
ARM GAS  C:\Users\LUKASC~1\AppData\Local\Temp\ccaP0pWK.s 			page 2


  55      7373696F 
  55      6E207765 
  55      6E74204F 
  56              		.align	2
  57              	.LC2:
  58 0020 3E204D65 		.ascii	"> Message is lost ...\015\012\000"
  58      73736167 
  58      65206973 
  58      206C6F73 
  58      74202E2E 
  59              		.align	2
  60              	.LC3:
  61 0038 3E20536F 		.ascii	"> Something strange happened\015\012\000"
  61      6D657468 
  61      696E6720 
  61      73747261 
  61      6E676520 
  62 0057 00       		.align	2
  63              	.LC4:
  64 0058 3E205265 		.ascii	"> Retranmission count: \000"
  64      7472616E 
  64      6D697373 
  64      696F6E20 
  64      636F756E 
  65              		.section	.text.funkTxTest,"ax",%progbits
  66              		.align	2
  67              		.global	funkTxTest
  68              		.thumb
  69              		.thumb_func
  70              		.type	funkTxTest, %function
  71              	funkTxTest:
  72              	.LFB63:
  73              		.file 1 ".\\funk.c"
   1:.\funk.c      **** /*
   2:.\funk.c      **** * funk.c 
   3:.\funk.c      **** * Author: Lukas Creutzburg
   4:.\funk.c      **** * Based on:
   5:.\funk.c      **** * ----------------------------------------------------------------------------
   6:.\funk.c      **** * THE COFFEEWARE LICENSE (Revision 1):
   7:.\funk.c      **** * <ihsan@kehribar.me> wrote this file. As long as you retain this notice you
   8:.\funk.c      **** * can do whatever you want with this stuff. If we meet some day, and you think
   9:.\funk.c      **** * this stuff is worth it, you can buy me a coffee in return.
  10:.\funk.c      **** * -----------------------------------------------------------------------------
  11:.\funk.c      **** *
  12:.\funk.c      **** * Version: 0.1
  13:.\funk.c      **** */
  14:.\funk.c      **** 
  15:.\funk.c      **** #include "funk.h"
  16:.\funk.c      **** 
  17:.\funk.c      **** 
  18:.\funk.c      **** /* ------------------------------------------------------------------------- */
  19:.\funk.c      **** uint8 temp;
  20:.\funk.c      **** uint8 q = 0;
  21:.\funk.c      **** uint8 data_array[4];
  22:.\funk.c      **** uint8 tx_address[5] = {0xE7,0xE7,0xE7,0xE7,0xE7};
  23:.\funk.c      **** uint8 rx_address[5] = {0xD7,0xD7,0xD7,0xD7,0xD7};
  24:.\funk.c      **** /* ------------------------------------------------------------------------- */
ARM GAS  C:\Users\LUKASC~1\AppData\Local\Temp\ccaP0pWK.s 			page 3


  25:.\funk.c      **** int funkTxTest()
  26:.\funk.c      **** {
  74              		.loc 1 26 0
  75              		.cfi_startproc
  76              		@ args = 0, pretend = 0, frame = 0
  77              		@ frame_needed = 1, uses_anonymous_args = 0
  78 0000 80B5     		push	{r7, lr}
  79              		.cfi_def_cfa_offset 8
  80              		.cfi_offset 7, -8
  81              		.cfi_offset 14, -4
  82 0002 00AF     		add	r7, sp, #0
  83              		.cfi_def_cfa_register 7
  27:.\funk.c      ****     UARTsendString("TX init");
  84              		.loc 1 27 0
  85 0004 2F48     		ldr	r0, .L7
  86 0006 FFF7FEFF 		bl	UARTsendString
  28:.\funk.c      ****     
  29:.\funk.c      ****     /* init hardware pins */
  30:.\funk.c      ****     nrf24_init();
  87              		.loc 1 30 0
  88 000a FFF7FEFF 		bl	nrf24_init
  31:.\funk.c      ****     
  32:.\funk.c      ****     /* Channel #2 , payload length: 4 */
  33:.\funk.c      ****     nrf24_config(2,4);
  89              		.loc 1 33 0
  90 000e 0220     		movs	r0, #2
  91 0010 0421     		movs	r1, #4
  92 0012 FFF7FEFF 		bl	nrf24_config
  34:.\funk.c      **** 
  35:.\funk.c      ****     /* Set the device addresses */
  36:.\funk.c      ****     nrf24_tx_address(tx_address);
  93              		.loc 1 36 0
  94 0016 2C48     		ldr	r0, .L7+4
  95 0018 FFF7FEFF 		bl	nrf24_tx_address
  37:.\funk.c      ****     nrf24_rx_address(rx_address);    
  96              		.loc 1 37 0
  97 001c 2B48     		ldr	r0, .L7+8
  98 001e FFF7FEFF 		bl	nrf24_rx_address
  99              	.L6:
  38:.\funk.c      **** 
  39:.\funk.c      ****     while(1)
  40:.\funk.c      ****     {                
  41:.\funk.c      ****         /* Fill the data buffer */
  42:.\funk.c      ****         data_array[0] = 0x00;
 100              		.loc 1 42 0
 101 0022 2B4B     		ldr	r3, .L7+12
 102 0024 0022     		movs	r2, #0
 103 0026 1A70     		strb	r2, [r3]
  43:.\funk.c      ****         data_array[1] = 0xAA;
 104              		.loc 1 43 0
 105 0028 294B     		ldr	r3, .L7+12
 106 002a AA22     		movs	r2, #170
 107 002c 5A70     		strb	r2, [r3, #1]
  44:.\funk.c      ****         data_array[2] = 0x55;
 108              		.loc 1 44 0
 109 002e 284B     		ldr	r3, .L7+12
 110 0030 5522     		movs	r2, #85
ARM GAS  C:\Users\LUKASC~1\AppData\Local\Temp\ccaP0pWK.s 			page 4


 111 0032 9A70     		strb	r2, [r3, #2]
  45:.\funk.c      ****         data_array[3] = q++;                                    
 112              		.loc 1 45 0
 113 0034 274B     		ldr	r3, .L7+16
 114 0036 1B78     		ldrb	r3, [r3]	@ zero_extendqisi2
 115 0038 5A1C     		adds	r2, r3, #1
 116 003a D1B2     		uxtb	r1, r2
 117 003c 254A     		ldr	r2, .L7+16
 118 003e 1170     		strb	r1, [r2]
 119 0040 234A     		ldr	r2, .L7+12
 120 0042 D370     		strb	r3, [r2, #3]
  46:.\funk.c      **** 
  47:.\funk.c      ****         /* Automatically goes to TX mode */
  48:.\funk.c      ****         nrf24_send(data_array);        
 121              		.loc 1 48 0
 122 0044 2248     		ldr	r0, .L7+12
 123 0046 FFF7FEFF 		bl	nrf24_send
  49:.\funk.c      ****         
  50:.\funk.c      ****         /* Wait for transmission to end */
  51:.\funk.c      ****         while(nrf24_isSending());
 124              		.loc 1 51 0
 125 004a 00BF     		nop
 126              	.L2:
 127              		.loc 1 51 0 is_stmt 0 discriminator 1
 128 004c FFF7FEFF 		bl	nrf24_isSending
 129 0050 0346     		mov	r3, r0
 130 0052 002B     		cmp	r3, #0
 131 0054 FAD1     		bne	.L2
  52:.\funk.c      **** 
  53:.\funk.c      ****         /* Make analysis on last tranmission attempt */
  54:.\funk.c      ****         temp = nrf24_lastMessageStatus();
 132              		.loc 1 54 0 is_stmt 1
 133 0056 FFF7FEFF 		bl	nrf24_lastMessageStatus
 134 005a 0346     		mov	r3, r0
 135 005c 1A46     		mov	r2, r3
 136 005e 1E4B     		ldr	r3, .L7+20
 137 0060 1A70     		strb	r2, [r3]
  55:.\funk.c      **** 
  56:.\funk.c      ****         if(temp == NRF24_TRANSMISSON_OK)
 138              		.loc 1 56 0
 139 0062 1D4B     		ldr	r3, .L7+20
 140 0064 1B78     		ldrb	r3, [r3]	@ zero_extendqisi2
 141 0066 002B     		cmp	r3, #0
 142 0068 0ED1     		bne	.L3
  57:.\funk.c      ****         {                    
  58:.\funk.c      ****             UARTsendString("> Tranmission went OK\r\n");
 143              		.loc 1 58 0
 144 006a 1C48     		ldr	r0, .L7+24
 145 006c FFF7FEFF 		bl	UARTsendString
  59:.\funk.c      ****             LED_Write(!LED_Read());
 146              		.loc 1 59 0
 147 0070 FFF7FEFF 		bl	LED_Read
 148 0074 0346     		mov	r3, r0
 149 0076 002B     		cmp	r3, #0
 150 0078 0CBF     		ite	eq
 151 007a 0123     		moveq	r3, #1
 152 007c 0023     		movne	r3, #0
ARM GAS  C:\Users\LUKASC~1\AppData\Local\Temp\ccaP0pWK.s 			page 5


 153 007e DBB2     		uxtb	r3, r3
 154 0080 1846     		mov	r0, r3
 155 0082 FFF7FEFF 		bl	LED_Write
 156 0086 0AE0     		b	.L4
 157              	.L3:
  60:.\funk.c      ****         }
  61:.\funk.c      ****         else if(temp == NRF24_MESSAGE_LOST)
 158              		.loc 1 61 0
 159 0088 134B     		ldr	r3, .L7+20
 160 008a 1B78     		ldrb	r3, [r3]	@ zero_extendqisi2
 161 008c 012B     		cmp	r3, #1
 162 008e 03D1     		bne	.L5
  62:.\funk.c      ****         {                    
  63:.\funk.c      ****             UARTsendString("> Message is lost ...\r\n");    
 163              		.loc 1 63 0
 164 0090 1348     		ldr	r0, .L7+28
 165 0092 FFF7FEFF 		bl	UARTsendString
 166 0096 02E0     		b	.L4
 167              	.L5:
  64:.\funk.c      ****         }
  65:.\funk.c      ****         else
  66:.\funk.c      ****         {
  67:.\funk.c      ****             UARTsendString("> Something strange happened\r\n");    
 168              		.loc 1 67 0
 169 0098 1248     		ldr	r0, .L7+32
 170 009a FFF7FEFF 		bl	UARTsendString
 171              	.L4:
  68:.\funk.c      ****         }
  69:.\funk.c      ****         
  70:.\funk.c      **** 		/* Retranmission count indicates the tranmission quality */
  71:.\funk.c      **** 		temp = nrf24_retransmissionCount();
 172              		.loc 1 71 0
 173 009e FFF7FEFF 		bl	nrf24_retransmissionCount
 174 00a2 0346     		mov	r3, r0
 175 00a4 1A46     		mov	r2, r3
 176 00a6 0C4B     		ldr	r3, .L7+20
 177 00a8 1A70     		strb	r2, [r3]
  72:.\funk.c      **** 		UARTsendString("> Retranmission count: ");
 178              		.loc 1 72 0
 179 00aa 0F48     		ldr	r0, .L7+36
 180 00ac FFF7FEFF 		bl	UARTsendString
  73:.\funk.c      ****         UARTsendNumber(temp);
 181              		.loc 1 73 0
 182 00b0 094B     		ldr	r3, .L7+20
 183 00b2 1B78     		ldrb	r3, [r3]	@ zero_extendqisi2
 184 00b4 1846     		mov	r0, r3
 185 00b6 FFF7FEFF 		bl	UARTsendNumber
  74:.\funk.c      **** 
  75:.\funk.c      **** 		/* Optionally, go back to RX mode ... */
  76:.\funk.c      **** 		//nrf24_powerUpRx();
  77:.\funk.c      **** 
  78:.\funk.c      **** 		/* Or you might want to power down after TX */
  79:.\funk.c      **** 		// nrf24_powerDown();            
  80:.\funk.c      **** 
  81:.\funk.c      **** 		/* Wait a little ... */
  82:.\funk.c      **** 		CyDelay(100);
 186              		.loc 1 82 0
ARM GAS  C:\Users\LUKASC~1\AppData\Local\Temp\ccaP0pWK.s 			page 6


 187 00ba 6420     		movs	r0, #100
 188 00bc FFF7FEFF 		bl	CyDelay
  83:.\funk.c      ****     }
 189              		.loc 1 83 0
 190 00c0 AFE7     		b	.L6
 191              	.L8:
 192 00c2 00BF     		.align	2
 193              	.L7:
 194 00c4 00000000 		.word	.LC0
 195 00c8 00000000 		.word	tx_address
 196 00cc 00000000 		.word	rx_address
 197 00d0 00000000 		.word	data_array
 198 00d4 00000000 		.word	q
 199 00d8 00000000 		.word	temp
 200 00dc 08000000 		.word	.LC1
 201 00e0 20000000 		.word	.LC2
 202 00e4 38000000 		.word	.LC3
 203 00e8 58000000 		.word	.LC4
 204              		.cfi_endproc
 205              	.LFE63:
 206              		.size	funkTxTest, .-funkTxTest
 207              		.section	.rodata
 208              		.align	2
 209              	.LC5:
 210 0070 52582069 		.ascii	"RX init...\000"
 210      6E69742E 
 210      2E2E00
 211 007b 00       		.align	2
 212              	.LC6:
 213 007c 3E2000   		.ascii	"> \000"
 214 007f 00       		.section	.text.funkRxTest,"ax",%progbits
 215              		.align	2
 216              		.global	funkRxTest
 217              		.thumb
 218              		.thumb_func
 219              		.type	funkRxTest, %function
 220              	funkRxTest:
 221              	.LFB64:
  84:.\funk.c      **** }
  85:.\funk.c      **** 
  86:.\funk.c      **** int funkRxTest()
  87:.\funk.c      **** {
 222              		.loc 1 87 0
 223              		.cfi_startproc
 224              		@ args = 0, pretend = 0, frame = 0
 225              		@ frame_needed = 1, uses_anonymous_args = 0
 226 0000 80B5     		push	{r7, lr}
 227              		.cfi_def_cfa_offset 8
 228              		.cfi_offset 7, -8
 229              		.cfi_offset 14, -4
 230 0002 00AF     		add	r7, sp, #0
 231              		.cfi_def_cfa_register 7
  88:.\funk.c      ****     UARTsendString("RX init...");
 232              		.loc 1 88 0
 233 0004 1748     		ldr	r0, .L12
 234 0006 FFF7FEFF 		bl	UARTsendString
  89:.\funk.c      ****     /* init hardware pins */
ARM GAS  C:\Users\LUKASC~1\AppData\Local\Temp\ccaP0pWK.s 			page 7


  90:.\funk.c      ****     nrf24_init();
 235              		.loc 1 90 0
 236 000a FFF7FEFF 		bl	nrf24_init
  91:.\funk.c      ****     
  92:.\funk.c      ****     /* Channel #2 , payload length: 4 */
  93:.\funk.c      ****     nrf24_config(2,4);
 237              		.loc 1 93 0
 238 000e 0220     		movs	r0, #2
 239 0010 0421     		movs	r1, #4
 240 0012 FFF7FEFF 		bl	nrf24_config
  94:.\funk.c      ****  
  95:.\funk.c      ****     /* Set the device addresses */
  96:.\funk.c      ****     nrf24_tx_address(tx_address);
 241              		.loc 1 96 0
 242 0016 1448     		ldr	r0, .L12+4
 243 0018 FFF7FEFF 		bl	nrf24_tx_address
  97:.\funk.c      ****     nrf24_rx_address(rx_address);
 244              		.loc 1 97 0
 245 001c 1348     		ldr	r0, .L12+8
 246 001e FFF7FEFF 		bl	nrf24_rx_address
 247              	.L11:
  98:.\funk.c      **** 
  99:.\funk.c      ****     while(1)
 100:.\funk.c      ****     {    
 101:.\funk.c      ****         if(nrf24_dataReady())
 248              		.loc 1 101 0
 249 0022 FFF7FEFF 		bl	nrf24_dataReady
 250 0026 0346     		mov	r3, r0
 251 0028 002B     		cmp	r3, #0
 252 002a 19D0     		beq	.L10
 102:.\funk.c      ****         {
 103:.\funk.c      ****             nrf24_getData(data_array);        
 253              		.loc 1 103 0
 254 002c 1048     		ldr	r0, .L12+12
 255 002e FFF7FEFF 		bl	nrf24_getData
 104:.\funk.c      ****             UARTsendString("> ");
 256              		.loc 1 104 0
 257 0032 1048     		ldr	r0, .L12+16
 258 0034 FFF7FEFF 		bl	UARTsendString
 105:.\funk.c      ****             UARTsendNumber(data_array[0]);
 259              		.loc 1 105 0
 260 0038 0D4B     		ldr	r3, .L12+12
 261 003a 1B78     		ldrb	r3, [r3]	@ zero_extendqisi2
 262 003c 1846     		mov	r0, r3
 263 003e FFF7FEFF 		bl	UARTsendNumber
 106:.\funk.c      ****             UARTsendNumber(data_array[1]);
 264              		.loc 1 106 0
 265 0042 0B4B     		ldr	r3, .L12+12
 266 0044 5B78     		ldrb	r3, [r3, #1]	@ zero_extendqisi2
 267 0046 1846     		mov	r0, r3
 268 0048 FFF7FEFF 		bl	UARTsendNumber
 107:.\funk.c      ****             UARTsendNumber(data_array[2]);
 269              		.loc 1 107 0
 270 004c 084B     		ldr	r3, .L12+12
 271 004e 9B78     		ldrb	r3, [r3, #2]	@ zero_extendqisi2
 272 0050 1846     		mov	r0, r3
 273 0052 FFF7FEFF 		bl	UARTsendNumber
ARM GAS  C:\Users\LUKASC~1\AppData\Local\Temp\ccaP0pWK.s 			page 8


 108:.\funk.c      ****             UARTsendNumber(data_array[3]);
 274              		.loc 1 108 0
 275 0056 064B     		ldr	r3, .L12+12
 276 0058 DB78     		ldrb	r3, [r3, #3]	@ zero_extendqisi2
 277 005a 1846     		mov	r0, r3
 278 005c FFF7FEFF 		bl	UARTsendNumber
 279              	.L10:
 109:.\funk.c      ****         }
 110:.\funk.c      ****     }
 280              		.loc 1 110 0
 281 0060 DFE7     		b	.L11
 282              	.L13:
 283 0062 00BF     		.align	2
 284              	.L12:
 285 0064 70000000 		.word	.LC5
 286 0068 00000000 		.word	tx_address
 287 006c 00000000 		.word	rx_address
 288 0070 00000000 		.word	data_array
 289 0074 7C000000 		.word	.LC6
 290              		.cfi_endproc
 291              	.LFE64:
 292              		.size	funkRxTest, .-funkRxTest
 293              		.text
 294              	.Letext0:
 295              		.file 2 "c:\\program files (x86)\\cypress\\psoc creator\\3.3\\psoc creator\\import\\gnu\\arm\\4.9.
 296              		.file 3 "c:\\program files (x86)\\cypress\\psoc creator\\3.3\\psoc creator\\import\\gnu\\arm\\4.9.
 297              		.file 4 "Generated_Source\\PSoC5/cytypes.h"
 298              		.file 5 "Generated_Source\\PSoC5/core_cm3.h"