ARM GAS  C:\Users\LUKASC~1\AppData\Local\Temp\ccd0WYp6.s 			page 1


   1              		.syntax unified
   2              		.cpu cortex-m3
   3              		.fpu softvfp
   4              		.eabi_attribute 20, 1
   5              		.eabi_attribute 21, 1
   6              		.eabi_attribute 23, 3
   7              		.eabi_attribute 24, 1
   8              		.eabi_attribute 25, 1
   9              		.eabi_attribute 26, 1
  10              		.eabi_attribute 30, 6
  11              		.eabi_attribute 34, 1
  12              		.eabi_attribute 18, 4
  13              		.thumb
  14              		.file	"main.c"
  15              		.text
  16              	.Ltext0:
  17              		.cfi_sections	.debug_frame
  18              		.global _printf_float
  19              		.global _printf_float
  20              		.thumb
  21              		.comm	wrBuffer,64,4
  22              		.comm	temp,1,1
  23              		.section	.text.main,"ax",%progbits
  24              		.align	2
  25              		.global	main
  26              		.thumb
  27              		.thumb_func
  28              		.type	main, %function
  29              	main:
  30              	.LFB63:
  31              		.file 1 ".\\main.c"
   1:.\main.c      **** /*******************************************************************************
   2:.\main.c      **** * File Name: main.c
   3:.\main.c      **** *
   4:.\main.c      **** * Version: 1.0
   5:.\main.c      **** * Author: Lukas Creutzburg
   6:.\main.c      **** *
   7:.\main.c      **** * Description:
   8:.\main.c      **** *  Interaction with DSP
   9:.\main.c      **** *
  10:.\main.c      **** * Copyright:
  11:.\main.c      **** * Released under Creative Commons Attribution Share-Alike 4.0 license.This 
  12:.\main.c      **** * allows for both personal and commercial derivative works, as long as they 
  13:.\main.c      **** * credit freeDSP and release their designs under the same license. The freeDSP 
  14:.\main.c      **** * brand and freeDSP logo are protected by copyright and cannot be used without 
  15:.\main.c      **** * formal permission. Please contact Sebastian Merchel for further information.
  16:.\main.c      **** * https://creativecommons.org/licenses/by-sa/4.0/legalcode
  17:.\main.c      **** *
  18:.\main.c      **** *******************************************************************************/
  19:.\main.c      **** 
  20:.\main.c      **** #include "main.h"
  21:.\main.c      **** 
  22:.\main.c      **** //int main()
  23:.\main.c      **** //{
  24:.\main.c      **** //    //Tuning
  25:.\main.c      **** //    CYGlobalIntEnable;
  26:.\main.c      **** //    CapSense_1_TunerStart();
ARM GAS  C:\Users\LUKASC~1\AppData\Local\Temp\ccd0WYp6.s 			page 2


  27:.\main.c      **** //    /*All widgets are enabled by default except proximity widgets. Proximity
  28:.\main.c      **** //    widgets must be manually enabled as their long scan time is incompatible
  29:.\main.c      **** //    with the fast response required of other widget types.
  30:.\main.c      **** //    */
  31:.\main.c      **** //    while(1)
  32:.\main.c      **** //    {
  33:.\main.c      **** //    CapSense_1_TunerComm();
  34:.\main.c      **** //    }
  35:.\main.c      **** //}
  36:.\main.c      **** 
  37:.\main.c      **** /*******************************************************************************
  38:.\main.c      **** * Function Name: main
  39:.\main.c      **** ********************************************************************************
  40:.\main.c      **** *
  41:.\main.c      **** * Summary:
  42:.\main.c      **** *  main() sends things via SPI and UART simmultaniously
  43:.\main.c      **** *
  44:.\main.c      **** * Parameters:
  45:.\main.c      **** *  None.
  46:.\main.c      **** *
  47:.\main.c      **** * Return:
  48:.\main.c      **** *  None.
  49:.\main.c      **** *
  50:.\main.c      **** *******************************************************************************/
  51:.\main.c      **** int main()
  52:.\main.c      **** {
  32              		.loc 1 52 0
  33              		.cfi_startproc
  34              		@ args = 0, pretend = 0, frame = 16
  35              		@ frame_needed = 1, uses_anonymous_args = 0
  36 0000 80B5     		push	{r7, lr}
  37              		.cfi_def_cfa_offset 8
  38              		.cfi_offset 7, -8
  39              		.cfi_offset 14, -4
  40 0002 84B0     		sub	sp, sp, #16
  41              		.cfi_def_cfa_offset 24
  42 0004 00AF     		add	r7, sp, #0
  43              		.cfi_def_cfa_register 7
  53:.\main.c      **** 
  54:.\main.c      ****     /* Enable Global interrupts */
  55:.\main.c      ****     CyGlobalIntEnable;
  44              		.loc 1 55 0
  45              	@ 55 ".\main.c" 1
  46 0006 62B6     		CPSIE   i
  47              	@ 0 "" 2
  56:.\main.c      ****     /*Activating UART */
  57:.\main.c      ****     //UARTinit();
  58:.\main.c      ****     CapSenseInit();
  48              		.loc 1 58 0
  49              		.thumb
  50 0008 FFF7FEFF 		bl	CapSenseInit
  59:.\main.c      ****     SPIinit();
  51              		.loc 1 59 0
  52 000c FFF7FEFF 		bl	SPIinit
  60:.\main.c      ****     /***** Initialization completed *****/
  61:.\main.c      ****     
  62:.\main.c      ****     uint32 pos = 130;
ARM GAS  C:\Users\LUKASC~1\AppData\Local\Temp\ccd0WYp6.s 			page 3


  53              		.loc 1 62 0
  54 0010 8223     		movs	r3, #130
  55 0012 BB60     		str	r3, [r7, #8]
  63:.\main.c      ****     uint32 pos_old = 130;
  56              		.loc 1 63 0
  57 0014 8223     		movs	r3, #130
  58 0016 FB60     		str	r3, [r7, #12]
  64:.\main.c      ****     int32 div=0;
  59              		.loc 1 64 0
  60 0018 0023     		movs	r3, #0
  61 001a 7B60     		str	r3, [r7, #4]
  65:.\main.c      ****     
  66:.\main.c      ****     CyDelay(1000);
  62              		.loc 1 66 0
  63 001c 4FF47A70 		mov	r0, #1000
  64 0020 FFF7FEFF 		bl	CyDelay
  65              	.L6:
  67:.\main.c      ****     
  68:.\main.c      ****     
  69:.\main.c      ****     for(;;)
  70:.\main.c      ****     {
  71:.\main.c      **** 
  72:.\main.c      ****         LED_Write(!LED_Read());
  66              		.loc 1 72 0
  67 0024 FFF7FEFF 		bl	LED_Read
  68 0028 0346     		mov	r3, r0
  69 002a 002B     		cmp	r3, #0
  70 002c 0CBF     		ite	eq
  71 002e 0123     		moveq	r3, #1
  72 0030 0023     		movne	r3, #0
  73 0032 DBB2     		uxtb	r3, r3
  74 0034 1846     		mov	r0, r3
  75 0036 FFF7FEFF 		bl	LED_Write
  73:.\main.c      ****         /* Next command to be written */
  74:.\main.c      ****         pos = CapSense_Refresh();
  76              		.loc 1 74 0
  77 003a FFF7FEFF 		bl	CapSense_Refresh
  78 003e 0346     		mov	r3, r0
  79 0040 BB60     		str	r3, [r7, #8]
  75:.\main.c      ****         if((pos!=0xFFFFFFFF) && (pos!=0x0) && (pos!=0x1) && (pos!=0x2)){
  80              		.loc 1 75 0
  81 0042 BB68     		ldr	r3, [r7, #8]
  82 0044 B3F1FF3F 		cmp	r3, #-1
  83 0048 22D0     		beq	.L2
  84              		.loc 1 75 0 is_stmt 0 discriminator 1
  85 004a BB68     		ldr	r3, [r7, #8]
  86 004c 002B     		cmp	r3, #0
  87 004e 1FD0     		beq	.L2
  88              		.loc 1 75 0 discriminator 2
  89 0050 BB68     		ldr	r3, [r7, #8]
  90 0052 012B     		cmp	r3, #1
  91 0054 1CD0     		beq	.L2
  92              		.loc 1 75 0 discriminator 3
  93 0056 BB68     		ldr	r3, [r7, #8]
  94 0058 022B     		cmp	r3, #2
  95 005a 19D0     		beq	.L2
  76:.\main.c      ****             div=pos-pos_old;
ARM GAS  C:\Users\LUKASC~1\AppData\Local\Temp\ccd0WYp6.s 			page 4


  96              		.loc 1 76 0 is_stmt 1
  97 005c BA68     		ldr	r2, [r7, #8]
  98 005e FB68     		ldr	r3, [r7, #12]
  99 0060 D31A     		subs	r3, r2, r3
 100 0062 7B60     		str	r3, [r7, #4]
  77:.\main.c      ****             if(div>50) pos_old+=50;
 101              		.loc 1 77 0
 102 0064 7B68     		ldr	r3, [r7, #4]
 103 0066 322B     		cmp	r3, #50
 104 0068 03DD     		ble	.L3
 105              		.loc 1 77 0 is_stmt 0 discriminator 1
 106 006a FB68     		ldr	r3, [r7, #12]
 107 006c 3233     		adds	r3, r3, #50
 108 006e FB60     		str	r3, [r7, #12]
 109 0070 09E0     		b	.L4
 110              	.L3:
  78:.\main.c      ****             else
  79:.\main.c      ****             {
  80:.\main.c      ****                 if(div<-50) pos_old-=50;
 111              		.loc 1 80 0 is_stmt 1
 112 0072 7B68     		ldr	r3, [r7, #4]
 113 0074 13F1320F 		cmn	r3, #50
 114 0078 03DA     		bge	.L5
 115              		.loc 1 80 0 is_stmt 0 discriminator 1
 116 007a FB68     		ldr	r3, [r7, #12]
 117 007c 323B     		subs	r3, r3, #50
 118 007e FB60     		str	r3, [r7, #12]
 119 0080 01E0     		b	.L4
 120              	.L5:
  81:.\main.c      ****                 else pos_old=pos;
 121              		.loc 1 81 0 is_stmt 1
 122 0082 BB68     		ldr	r3, [r7, #8]
 123 0084 FB60     		str	r3, [r7, #12]
 124              	.L4:
  82:.\main.c      ****             }
  83:.\main.c      ****             //UARTsendNumber((uint8)pos);
  84:.\main.c      ****             SPIsendNumber((uint8)pos_old);
 125              		.loc 1 84 0
 126 0086 FB68     		ldr	r3, [r7, #12]
 127 0088 DBB2     		uxtb	r3, r3
 128 008a 1846     		mov	r0, r3
 129 008c FFF7FEFF 		bl	SPIsendNumber
 130              	.L2:
  85:.\main.c      ****         }
  86:.\main.c      **** 
  87:.\main.c      **** 
  88:.\main.c      ****     }  /* End of forever loop */
 131              		.loc 1 88 0
 132 0090 C8E7     		b	.L6
 133              		.cfi_endproc
 134              	.LFE63:
 135              		.size	main, .-main
 136 0092 00BF     		.text
 137              	.Letext0:
 138              		.file 2 "c:\\program files (x86)\\cypress\\psoc creator\\3.3\\psoc creator\\import\\gnu\\arm\\4.9.
 139              		.file 3 "c:\\program files (x86)\\cypress\\psoc creator\\3.3\\psoc creator\\import\\gnu\\arm\\4.9.
 140              		.file 4 "Generated_Source\\PSoC5/cytypes.h"
ARM GAS  C:\Users\LUKASC~1\AppData\Local\Temp\ccd0WYp6.s 			page 5


 141              		.file 5 "Generated_Source\\PSoC5/core_cm3.h"
 142              		.file 6 ".\\spimaster.h"