ARM GAS  C:\Users\LUKASC~1\AppData\Local\Temp\cc0KBhRw.s 			page 1


   1              		.syntax unified
   2              		.cpu cortex-m3
   3              		.fpu softvfp
   4              		.eabi_attribute 20, 1
   5              		.eabi_attribute 21, 1
   6              		.eabi_attribute 23, 3
   7              		.eabi_attribute 24, 1
   8              		.eabi_attribute 25, 1
   9              		.eabi_attribute 26, 1
  10              		.eabi_attribute 30, 6
  11              		.eabi_attribute 34, 1
  12              		.eabi_attribute 18, 4
  13              		.thumb
  14              		.file	"Pins.c"
  15              		.text
  16              	.Ltext0:
  17              		.cfi_sections	.debug_frame
  18              		.section	.text.Pins_Write,"ax",%progbits
  19              		.align	2
  20              		.global	Pins_Write
  21              		.thumb
  22              		.thumb_func
  23              		.type	Pins_Write, %function
  24              	Pins_Write:
  25              	.LFB0:
  26              		.file 1 ".\\Generated_Source\\PSoC5\\Pins.c"
   1:.\Generated_Source\PSoC5/Pins.c **** /*******************************************************************************
   2:.\Generated_Source\PSoC5/Pins.c **** * File Name: Pins.c  
   3:.\Generated_Source\PSoC5/Pins.c **** * Version 2.20
   4:.\Generated_Source\PSoC5/Pins.c **** *
   5:.\Generated_Source\PSoC5/Pins.c **** * Description:
   6:.\Generated_Source\PSoC5/Pins.c **** *  This file contains API to enable firmware control of a Pins component.
   7:.\Generated_Source\PSoC5/Pins.c **** *
   8:.\Generated_Source\PSoC5/Pins.c **** * Note:
   9:.\Generated_Source\PSoC5/Pins.c **** *
  10:.\Generated_Source\PSoC5/Pins.c **** ********************************************************************************
  11:.\Generated_Source\PSoC5/Pins.c **** * Copyright 2008-2015, Cypress Semiconductor Corporation.  All rights reserved.
  12:.\Generated_Source\PSoC5/Pins.c **** * You may use this file only in accordance with the license, terms, conditions, 
  13:.\Generated_Source\PSoC5/Pins.c **** * disclaimers, and limitations in the end user license agreement accompanying 
  14:.\Generated_Source\PSoC5/Pins.c **** * the software package with which this file was provided.
  15:.\Generated_Source\PSoC5/Pins.c **** *******************************************************************************/
  16:.\Generated_Source\PSoC5/Pins.c **** 
  17:.\Generated_Source\PSoC5/Pins.c **** #include "cytypes.h"
  18:.\Generated_Source\PSoC5/Pins.c **** #include "Pins.h"
  19:.\Generated_Source\PSoC5/Pins.c **** 
  20:.\Generated_Source\PSoC5/Pins.c **** /* APIs are not generated for P15[7:6] on PSoC 5 */
  21:.\Generated_Source\PSoC5/Pins.c **** #if !(CY_PSOC5A &&\
  22:.\Generated_Source\PSoC5/Pins.c **** 	 Pins__PORT == 15 && ((Pins__MASK & 0xC0) != 0))
  23:.\Generated_Source\PSoC5/Pins.c **** 
  24:.\Generated_Source\PSoC5/Pins.c **** 
  25:.\Generated_Source\PSoC5/Pins.c **** /*******************************************************************************
  26:.\Generated_Source\PSoC5/Pins.c **** * Function Name: Pins_Write
  27:.\Generated_Source\PSoC5/Pins.c **** ****************************************************************************//**
  28:.\Generated_Source\PSoC5/Pins.c **** *
  29:.\Generated_Source\PSoC5/Pins.c **** * \brief Writes the value to the physical port (data output register), masking
  30:.\Generated_Source\PSoC5/Pins.c **** *  and shifting the bits appropriately. 
  31:.\Generated_Source\PSoC5/Pins.c **** *
ARM GAS  C:\Users\LUKASC~1\AppData\Local\Temp\cc0KBhRw.s 			page 2


  32:.\Generated_Source\PSoC5/Pins.c **** * The data output register controls the signal applied to the physical pin in 
  33:.\Generated_Source\PSoC5/Pins.c **** * conjunction with the drive mode parameter. This function avoids changing 
  34:.\Generated_Source\PSoC5/Pins.c **** * other bits in the port by using the appropriate method (read-modify-write or
  35:.\Generated_Source\PSoC5/Pins.c **** * bit banding).
  36:.\Generated_Source\PSoC5/Pins.c **** *
  37:.\Generated_Source\PSoC5/Pins.c **** * <b>Note</b> This function should not be used on a hardware digital output pin 
  38:.\Generated_Source\PSoC5/Pins.c **** * as it is driven by the hardware signal attached to it.
  39:.\Generated_Source\PSoC5/Pins.c **** *
  40:.\Generated_Source\PSoC5/Pins.c **** * \param value
  41:.\Generated_Source\PSoC5/Pins.c **** *  Value to write to the component instance.
  42:.\Generated_Source\PSoC5/Pins.c **** *
  43:.\Generated_Source\PSoC5/Pins.c **** * \return 
  44:.\Generated_Source\PSoC5/Pins.c **** *  None 
  45:.\Generated_Source\PSoC5/Pins.c **** *
  46:.\Generated_Source\PSoC5/Pins.c **** * \sideeffect
  47:.\Generated_Source\PSoC5/Pins.c **** *  If you use read-modify-write operations that are not atomic; the Interrupt 
  48:.\Generated_Source\PSoC5/Pins.c **** *  Service Routines (ISR) can cause corruption of this function. An ISR that 
  49:.\Generated_Source\PSoC5/Pins.c **** *  interrupts this function and performs writes to the Pins component data 
  50:.\Generated_Source\PSoC5/Pins.c **** *  register can cause corrupted port data. To avoid this issue, you should 
  51:.\Generated_Source\PSoC5/Pins.c **** *  either use the Per-Pin APIs (primary method) or disable interrupts around 
  52:.\Generated_Source\PSoC5/Pins.c **** *  this function.
  53:.\Generated_Source\PSoC5/Pins.c **** *
  54:.\Generated_Source\PSoC5/Pins.c **** * \funcusage
  55:.\Generated_Source\PSoC5/Pins.c **** *  \snippet Pins_SUT.c usage_Pins_Write
  56:.\Generated_Source\PSoC5/Pins.c **** *******************************************************************************/
  57:.\Generated_Source\PSoC5/Pins.c **** void Pins_Write(uint8 value)
  58:.\Generated_Source\PSoC5/Pins.c **** {
  27              		.loc 1 58 0
  28              		.cfi_startproc
  29              		@ args = 0, pretend = 0, frame = 16
  30              		@ frame_needed = 1, uses_anonymous_args = 0
  31              		@ link register save eliminated.
  32 0000 80B4     		push	{r7}
  33              		.cfi_def_cfa_offset 4
  34              		.cfi_offset 7, -4
  35 0002 85B0     		sub	sp, sp, #20
  36              		.cfi_def_cfa_offset 24
  37 0004 00AF     		add	r7, sp, #0
  38              		.cfi_def_cfa_register 7
  39 0006 0346     		mov	r3, r0
  40 0008 FB71     		strb	r3, [r7, #7]
  59:.\Generated_Source\PSoC5/Pins.c ****     uint8 staticBits = (Pins_DR & (uint8)(~Pins_MASK));
  41              		.loc 1 59 0
  42 000a 0A4B     		ldr	r3, .L2
  43 000c 1B78     		ldrb	r3, [r3]
  44 000e DBB2     		uxtb	r3, r3
  45 0010 23F00303 		bic	r3, r3, #3
  46 0014 FB73     		strb	r3, [r7, #15]
  60:.\Generated_Source\PSoC5/Pins.c ****     Pins_DR = staticBits | ((uint8)(value << Pins_SHIFT) & Pins_MASK);
  47              		.loc 1 60 0
  48 0016 0749     		ldr	r1, .L2
  49 0018 FB79     		ldrb	r3, [r7, #7]
  50 001a 03F00303 		and	r3, r3, #3
  51 001e DAB2     		uxtb	r2, r3
  52 0020 FB7B     		ldrb	r3, [r7, #15]
  53 0022 1343     		orrs	r3, r3, r2
  54 0024 DBB2     		uxtb	r3, r3
ARM GAS  C:\Users\LUKASC~1\AppData\Local\Temp\cc0KBhRw.s 			page 3


  55 0026 0B70     		strb	r3, [r1]
  61:.\Generated_Source\PSoC5/Pins.c **** }
  56              		.loc 1 61 0
  57 0028 1437     		adds	r7, r7, #20
  58              		.cfi_def_cfa_offset 4
  59 002a BD46     		mov	sp, r7
  60              		.cfi_def_cfa_register 13
  61              		@ sp needed
  62 002c 5DF8047B 		ldr	r7, [sp], #4
  63              		.cfi_restore 7
  64              		.cfi_def_cfa_offset 0
  65 0030 7047     		bx	lr
  66              	.L3:
  67 0032 00BF     		.align	2
  68              	.L2:
  69 0034 C0510040 		.word	1073762752
  70              		.cfi_endproc
  71              	.LFE0:
  72              		.size	Pins_Write, .-Pins_Write
  73              		.section	.text.Pins_SetDriveMode,"ax",%progbits
  74              		.align	2
  75              		.global	Pins_SetDriveMode
  76              		.thumb
  77              		.thumb_func
  78              		.type	Pins_SetDriveMode, %function
  79              	Pins_SetDriveMode:
  80              	.LFB1:
  62:.\Generated_Source\PSoC5/Pins.c **** 
  63:.\Generated_Source\PSoC5/Pins.c **** 
  64:.\Generated_Source\PSoC5/Pins.c **** /*******************************************************************************
  65:.\Generated_Source\PSoC5/Pins.c **** * Function Name: Pins_SetDriveMode
  66:.\Generated_Source\PSoC5/Pins.c **** ****************************************************************************//**
  67:.\Generated_Source\PSoC5/Pins.c **** *
  68:.\Generated_Source\PSoC5/Pins.c **** * \brief Sets the drive mode for each of the Pins component's pins.
  69:.\Generated_Source\PSoC5/Pins.c **** * 
  70:.\Generated_Source\PSoC5/Pins.c **** * <b>Note</b> This affects all pins in the Pins component instance. Use the
  71:.\Generated_Source\PSoC5/Pins.c **** * Per-Pin APIs if you wish to control individual pin's drive modes.
  72:.\Generated_Source\PSoC5/Pins.c **** *
  73:.\Generated_Source\PSoC5/Pins.c **** * \param mode
  74:.\Generated_Source\PSoC5/Pins.c **** *  Mode for the selected signals. Valid options are documented in 
  75:.\Generated_Source\PSoC5/Pins.c **** *  \ref driveMode.
  76:.\Generated_Source\PSoC5/Pins.c **** *
  77:.\Generated_Source\PSoC5/Pins.c **** * \return
  78:.\Generated_Source\PSoC5/Pins.c **** *  None
  79:.\Generated_Source\PSoC5/Pins.c **** *
  80:.\Generated_Source\PSoC5/Pins.c **** * \sideeffect
  81:.\Generated_Source\PSoC5/Pins.c **** *  If you use read-modify-write operations that are not atomic, the ISR can
  82:.\Generated_Source\PSoC5/Pins.c **** *  cause corruption of this function. An ISR that interrupts this function 
  83:.\Generated_Source\PSoC5/Pins.c **** *  and performs writes to the Pins component Drive Mode registers can cause 
  84:.\Generated_Source\PSoC5/Pins.c **** *  corrupted port data. To avoid this issue, you should either use the Per-Pin
  85:.\Generated_Source\PSoC5/Pins.c **** *  APIs (primary method) or disable interrupts around this function.
  86:.\Generated_Source\PSoC5/Pins.c **** *
  87:.\Generated_Source\PSoC5/Pins.c **** * \funcusage
  88:.\Generated_Source\PSoC5/Pins.c **** *  \snippet Pins_SUT.c usage_Pins_SetDriveMode
  89:.\Generated_Source\PSoC5/Pins.c **** *******************************************************************************/
  90:.\Generated_Source\PSoC5/Pins.c **** void Pins_SetDriveMode(uint8 mode)
  91:.\Generated_Source\PSoC5/Pins.c **** {
ARM GAS  C:\Users\LUKASC~1\AppData\Local\Temp\cc0KBhRw.s 			page 4


  81              		.loc 1 91 0
  82              		.cfi_startproc
  83              		@ args = 0, pretend = 0, frame = 8
  84              		@ frame_needed = 1, uses_anonymous_args = 0
  85              		@ link register save eliminated.
  86 0000 80B4     		push	{r7}
  87              		.cfi_def_cfa_offset 4
  88              		.cfi_offset 7, -4
  89 0002 83B0     		sub	sp, sp, #12
  90              		.cfi_def_cfa_offset 16
  91 0004 00AF     		add	r7, sp, #0
  92              		.cfi_def_cfa_register 7
  93 0006 0346     		mov	r3, r0
  94 0008 FB71     		strb	r3, [r7, #7]
  92:.\Generated_Source\PSoC5/Pins.c **** 	CyPins_SetPinDriveMode(Pins_0, mode);
  95              		.loc 1 92 0
  96 000a 124B     		ldr	r3, .L5
  97 000c 114A     		ldr	r2, .L5
  98 000e 1278     		ldrb	r2, [r2]
  99 0010 D2B2     		uxtb	r2, r2
 100 0012 D2B2     		uxtb	r2, r2
 101 0014 22F00E02 		bic	r2, r2, #14
 102 0018 D1B2     		uxtb	r1, r2
 103 001a FA79     		ldrb	r2, [r7, #7]	@ zero_extendqisi2
 104 001c 02F00E02 		and	r2, r2, #14
 105 0020 D2B2     		uxtb	r2, r2
 106 0022 0A43     		orrs	r2, r2, r1
 107 0024 D2B2     		uxtb	r2, r2
 108 0026 D2B2     		uxtb	r2, r2
 109 0028 1A70     		strb	r2, [r3]
  93:.\Generated_Source\PSoC5/Pins.c **** 	CyPins_SetPinDriveMode(Pins_1, mode);
 110              		.loc 1 93 0
 111 002a 0B4B     		ldr	r3, .L5+4
 112 002c 0A4A     		ldr	r2, .L5+4
 113 002e 1278     		ldrb	r2, [r2]
 114 0030 D2B2     		uxtb	r2, r2
 115 0032 D2B2     		uxtb	r2, r2
 116 0034 22F00E02 		bic	r2, r2, #14
 117 0038 D1B2     		uxtb	r1, r2
 118 003a FA79     		ldrb	r2, [r7, #7]	@ zero_extendqisi2
 119 003c 02F00E02 		and	r2, r2, #14
 120 0040 D2B2     		uxtb	r2, r2
 121 0042 0A43     		orrs	r2, r2, r1
 122 0044 D2B2     		uxtb	r2, r2
 123 0046 D2B2     		uxtb	r2, r2
 124 0048 1A70     		strb	r2, [r3]
  94:.\Generated_Source\PSoC5/Pins.c **** }
 125              		.loc 1 94 0
 126 004a 0C37     		adds	r7, r7, #12
 127              		.cfi_def_cfa_offset 4
 128 004c BD46     		mov	sp, r7
 129              		.cfi_def_cfa_register 13
 130              		@ sp needed
 131 004e 5DF8047B 		ldr	r7, [sp], #4
 132              		.cfi_restore 7
 133              		.cfi_def_cfa_offset 0
 134 0052 7047     		bx	lr
ARM GAS  C:\Users\LUKASC~1\AppData\Local\Temp\cc0KBhRw.s 			page 5


 135              	.L6:
 136              		.align	2
 137              	.L5:
 138 0054 60500040 		.word	1073762400
 139 0058 61500040 		.word	1073762401
 140              		.cfi_endproc
 141              	.LFE1:
 142              		.size	Pins_SetDriveMode, .-Pins_SetDriveMode
 143              		.section	.text.Pins_Read,"ax",%progbits
 144              		.align	2
 145              		.global	Pins_Read
 146              		.thumb
 147              		.thumb_func
 148              		.type	Pins_Read, %function
 149              	Pins_Read:
 150              	.LFB2:
  95:.\Generated_Source\PSoC5/Pins.c **** 
  96:.\Generated_Source\PSoC5/Pins.c **** 
  97:.\Generated_Source\PSoC5/Pins.c **** /*******************************************************************************
  98:.\Generated_Source\PSoC5/Pins.c **** * Function Name: Pins_Read
  99:.\Generated_Source\PSoC5/Pins.c **** ****************************************************************************//**
 100:.\Generated_Source\PSoC5/Pins.c **** *
 101:.\Generated_Source\PSoC5/Pins.c **** * \brief Reads the associated physical port (pin status register) and masks 
 102:.\Generated_Source\PSoC5/Pins.c **** *  the required bits according to the width and bit position of the component
 103:.\Generated_Source\PSoC5/Pins.c **** *  instance. 
 104:.\Generated_Source\PSoC5/Pins.c **** *
 105:.\Generated_Source\PSoC5/Pins.c **** * The pin's status register returns the current logic level present on the 
 106:.\Generated_Source\PSoC5/Pins.c **** * physical pin.
 107:.\Generated_Source\PSoC5/Pins.c **** *
 108:.\Generated_Source\PSoC5/Pins.c **** * \return 
 109:.\Generated_Source\PSoC5/Pins.c **** *  The current value for the pins in the component as a right justified number.
 110:.\Generated_Source\PSoC5/Pins.c **** *
 111:.\Generated_Source\PSoC5/Pins.c **** * \funcusage
 112:.\Generated_Source\PSoC5/Pins.c **** *  \snippet Pins_SUT.c usage_Pins_Read  
 113:.\Generated_Source\PSoC5/Pins.c **** *******************************************************************************/
 114:.\Generated_Source\PSoC5/Pins.c **** uint8 Pins_Read(void)
 115:.\Generated_Source\PSoC5/Pins.c **** {
 151              		.loc 1 115 0
 152              		.cfi_startproc
 153              		@ args = 0, pretend = 0, frame = 0
 154              		@ frame_needed = 1, uses_anonymous_args = 0
 155              		@ link register save eliminated.
 156 0000 80B4     		push	{r7}
 157              		.cfi_def_cfa_offset 4
 158              		.cfi_offset 7, -4
 159 0002 00AF     		add	r7, sp, #0
 160              		.cfi_def_cfa_register 7
 116:.\Generated_Source\PSoC5/Pins.c ****     return (Pins_PS & Pins_MASK) >> Pins_SHIFT;
 161              		.loc 1 116 0
 162 0004 054B     		ldr	r3, .L9
 163 0006 1B78     		ldrb	r3, [r3]
 164 0008 DBB2     		uxtb	r3, r3
 165 000a 03F00303 		and	r3, r3, #3
 166 000e DBB2     		uxtb	r3, r3
 117:.\Generated_Source\PSoC5/Pins.c **** }
 167              		.loc 1 117 0
 168 0010 1846     		mov	r0, r3
ARM GAS  C:\Users\LUKASC~1\AppData\Local\Temp\cc0KBhRw.s 			page 6


 169 0012 BD46     		mov	sp, r7
 170              		.cfi_def_cfa_register 13
 171              		@ sp needed
 172 0014 5DF8047B 		ldr	r7, [sp], #4
 173              		.cfi_restore 7
 174              		.cfi_def_cfa_offset 0
 175 0018 7047     		bx	lr
 176              	.L10:
 177 001a 00BF     		.align	2
 178              	.L9:
 179 001c C1510040 		.word	1073762753
 180              		.cfi_endproc
 181              	.LFE2:
 182              		.size	Pins_Read, .-Pins_Read
 183              		.section	.text.Pins_ReadDataReg,"ax",%progbits
 184              		.align	2
 185              		.global	Pins_ReadDataReg
 186              		.thumb
 187              		.thumb_func
 188              		.type	Pins_ReadDataReg, %function
 189              	Pins_ReadDataReg:
 190              	.LFB3:
 118:.\Generated_Source\PSoC5/Pins.c **** 
 119:.\Generated_Source\PSoC5/Pins.c **** 
 120:.\Generated_Source\PSoC5/Pins.c **** /*******************************************************************************
 121:.\Generated_Source\PSoC5/Pins.c **** * Function Name: Pins_ReadDataReg
 122:.\Generated_Source\PSoC5/Pins.c **** ****************************************************************************//**
 123:.\Generated_Source\PSoC5/Pins.c **** *
 124:.\Generated_Source\PSoC5/Pins.c **** * \brief Reads the associated physical port's data output register and masks 
 125:.\Generated_Source\PSoC5/Pins.c **** *  the correct bits according to the width and bit position of the component 
 126:.\Generated_Source\PSoC5/Pins.c **** *  instance. 
 127:.\Generated_Source\PSoC5/Pins.c **** *
 128:.\Generated_Source\PSoC5/Pins.c **** * The data output register controls the signal applied to the physical pin in 
 129:.\Generated_Source\PSoC5/Pins.c **** * conjunction with the drive mode parameter. This is not the same as the 
 130:.\Generated_Source\PSoC5/Pins.c **** * preferred Pins_Read() API because the 
 131:.\Generated_Source\PSoC5/Pins.c **** * Pins_ReadDataReg() reads the data register instead of the status 
 132:.\Generated_Source\PSoC5/Pins.c **** * register. For output pins this is a useful function to determine the value 
 133:.\Generated_Source\PSoC5/Pins.c **** * just written to the pin.
 134:.\Generated_Source\PSoC5/Pins.c **** *
 135:.\Generated_Source\PSoC5/Pins.c **** * \return 
 136:.\Generated_Source\PSoC5/Pins.c **** *  The current value of the data register masked and shifted into a right 
 137:.\Generated_Source\PSoC5/Pins.c **** *  justified number for the component instance.
 138:.\Generated_Source\PSoC5/Pins.c **** *
 139:.\Generated_Source\PSoC5/Pins.c **** * \funcusage
 140:.\Generated_Source\PSoC5/Pins.c **** *  \snippet Pins_SUT.c usage_Pins_ReadDataReg 
 141:.\Generated_Source\PSoC5/Pins.c **** *******************************************************************************/
 142:.\Generated_Source\PSoC5/Pins.c **** uint8 Pins_ReadDataReg(void)
 143:.\Generated_Source\PSoC5/Pins.c **** {
 191              		.loc 1 143 0
 192              		.cfi_startproc
 193              		@ args = 0, pretend = 0, frame = 0
 194              		@ frame_needed = 1, uses_anonymous_args = 0
 195              		@ link register save eliminated.
 196 0000 80B4     		push	{r7}
 197              		.cfi_def_cfa_offset 4
 198              		.cfi_offset 7, -4
 199 0002 00AF     		add	r7, sp, #0
ARM GAS  C:\Users\LUKASC~1\AppData\Local\Temp\cc0KBhRw.s 			page 7


 200              		.cfi_def_cfa_register 7
 144:.\Generated_Source\PSoC5/Pins.c ****     return (Pins_DR & Pins_MASK) >> Pins_SHIFT;
 201              		.loc 1 144 0
 202 0004 054B     		ldr	r3, .L13
 203 0006 1B78     		ldrb	r3, [r3]
 204 0008 DBB2     		uxtb	r3, r3
 205 000a 03F00303 		and	r3, r3, #3
 206 000e DBB2     		uxtb	r3, r3
 145:.\Generated_Source\PSoC5/Pins.c **** }
 207              		.loc 1 145 0
 208 0010 1846     		mov	r0, r3
 209 0012 BD46     		mov	sp, r7
 210              		.cfi_def_cfa_register 13
 211              		@ sp needed
 212 0014 5DF8047B 		ldr	r7, [sp], #4
 213              		.cfi_restore 7
 214              		.cfi_def_cfa_offset 0
 215 0018 7047     		bx	lr
 216              	.L14:
 217 001a 00BF     		.align	2
 218              	.L13:
 219 001c C0510040 		.word	1073762752
 220              		.cfi_endproc
 221              	.LFE3:
 222              		.size	Pins_ReadDataReg, .-Pins_ReadDataReg
 223              		.text
 224              	.Letext0:
 225              		.file 2 ".\\Generated_Source\\PSoC5\\cytypes.h"