ARM GAS  C:\Users\LUKASC~1\AppData\Local\Temp\ccKY6jmp.s 			page 1


   1              		.syntax unified
   2              		.cpu cortex-m3
   3              		.fpu softvfp
   4              		.eabi_attribute 20, 1
   5              		.eabi_attribute 21, 1
   6              		.eabi_attribute 23, 3
   7              		.eabi_attribute 24, 1
   8              		.eabi_attribute 25, 1
   9              		.eabi_attribute 26, 1
  10              		.eabi_attribute 30, 6
  11              		.eabi_attribute 34, 1
  12              		.eabi_attribute 18, 4
  13              		.thumb
  14              		.file	"CapSense_CSD_AMuxCH0.c"
  15              		.text
  16              	.Ltext0:
  17              		.cfi_sections	.debug_frame
  18              		.global	CapSense_CSD_AMuxCH0_initVar
  19              		.bss
  20              		.type	CapSense_CSD_AMuxCH0_initVar, %object
  21              		.size	CapSense_CSD_AMuxCH0_initVar, 1
  22              	CapSense_CSD_AMuxCH0_initVar:
  23 0000 00       		.space	1
  24              		.global	CapSense_CSD_AMuxCH0_lastChannel
  25              		.data
  26              		.type	CapSense_CSD_AMuxCH0_lastChannel, %object
  27              		.size	CapSense_CSD_AMuxCH0_lastChannel, 1
  28              	CapSense_CSD_AMuxCH0_lastChannel:
  29 0000 FF       		.byte	-1
  30              		.section	.text.CapSense_CSD_AMuxCH0_Start,"ax",%progbits
  31              		.align	2
  32              		.global	CapSense_CSD_AMuxCH0_Start
  33              		.thumb
  34              		.thumb_func
  35              		.type	CapSense_CSD_AMuxCH0_Start, %function
  36              	CapSense_CSD_AMuxCH0_Start:
  37              	.LFB0:
  38              		.file 1 ".\\Generated_Source\\PSoC5\\CapSense_CSD_AMuxCH0.c"
   1:.\Generated_Source\PSoC5/CapSense_CSD_AMuxCH0.c **** /*******************************************************************************
   2:.\Generated_Source\PSoC5/CapSense_CSD_AMuxCH0.c **** * File Name: CapSense_CSD_AMuxCH0.c
   3:.\Generated_Source\PSoC5/CapSense_CSD_AMuxCH0.c **** * Version 3.50
   4:.\Generated_Source\PSoC5/CapSense_CSD_AMuxCH0.c **** *
   5:.\Generated_Source\PSoC5/CapSense_CSD_AMuxCH0.c **** *  Description:
   6:.\Generated_Source\PSoC5/CapSense_CSD_AMuxCH0.c **** *    This file contains all functions required for the analog multiplexer
   7:.\Generated_Source\PSoC5/CapSense_CSD_AMuxCH0.c **** *    CapSense_CSD_AMux User Module.
   8:.\Generated_Source\PSoC5/CapSense_CSD_AMuxCH0.c **** *
   9:.\Generated_Source\PSoC5/CapSense_CSD_AMuxCH0.c **** *   Note:
  10:.\Generated_Source\PSoC5/CapSense_CSD_AMuxCH0.c **** *
  11:.\Generated_Source\PSoC5/CapSense_CSD_AMuxCH0.c **** *******************************************************************************
  12:.\Generated_Source\PSoC5/CapSense_CSD_AMuxCH0.c **** * Copyright 2008-2012, Cypress Semiconductor Corporation.  All rights reserved.
  13:.\Generated_Source\PSoC5/CapSense_CSD_AMuxCH0.c **** * You may use this file only in accordance with the license, terms, conditions, 
  14:.\Generated_Source\PSoC5/CapSense_CSD_AMuxCH0.c **** * disclaimers, and limitations in the end user license agreement accompanying 
  15:.\Generated_Source\PSoC5/CapSense_CSD_AMuxCH0.c **** * the software package with which this file was provided.
  16:.\Generated_Source\PSoC5/CapSense_CSD_AMuxCH0.c **** ********************************************************************************/
  17:.\Generated_Source\PSoC5/CapSense_CSD_AMuxCH0.c **** 
  18:.\Generated_Source\PSoC5/CapSense_CSD_AMuxCH0.c **** #include "CapSense_CSD_AMuxCH0.h"
  19:.\Generated_Source\PSoC5/CapSense_CSD_AMuxCH0.c **** 
ARM GAS  C:\Users\LUKASC~1\AppData\Local\Temp\ccKY6jmp.s 			page 2


  20:.\Generated_Source\PSoC5/CapSense_CSD_AMuxCH0.c **** uint8 CapSense_CSD_AMuxCH0_initVar = 0u;
  21:.\Generated_Source\PSoC5/CapSense_CSD_AMuxCH0.c **** uint8 CapSense_CSD_AMuxCH0_lastChannel = CapSense_CSD_AMuxCH0_NULL_CHANNEL;
  22:.\Generated_Source\PSoC5/CapSense_CSD_AMuxCH0.c **** 
  23:.\Generated_Source\PSoC5/CapSense_CSD_AMuxCH0.c **** 
  24:.\Generated_Source\PSoC5/CapSense_CSD_AMuxCH0.c **** /*******************************************************************************
  25:.\Generated_Source\PSoC5/CapSense_CSD_AMuxCH0.c **** * Function Name: CapSense_CSD_AMuxCH0_Start
  26:.\Generated_Source\PSoC5/CapSense_CSD_AMuxCH0.c **** ********************************************************************************
  27:.\Generated_Source\PSoC5/CapSense_CSD_AMuxCH0.c **** * Summary:
  28:.\Generated_Source\PSoC5/CapSense_CSD_AMuxCH0.c **** *  Disconnect all channels.
  29:.\Generated_Source\PSoC5/CapSense_CSD_AMuxCH0.c **** *
  30:.\Generated_Source\PSoC5/CapSense_CSD_AMuxCH0.c **** * Parameters:
  31:.\Generated_Source\PSoC5/CapSense_CSD_AMuxCH0.c **** *  void
  32:.\Generated_Source\PSoC5/CapSense_CSD_AMuxCH0.c **** *
  33:.\Generated_Source\PSoC5/CapSense_CSD_AMuxCH0.c **** * Return:
  34:.\Generated_Source\PSoC5/CapSense_CSD_AMuxCH0.c **** *  void
  35:.\Generated_Source\PSoC5/CapSense_CSD_AMuxCH0.c **** *
  36:.\Generated_Source\PSoC5/CapSense_CSD_AMuxCH0.c **** *******************************************************************************/
  37:.\Generated_Source\PSoC5/CapSense_CSD_AMuxCH0.c **** void CapSense_CSD_AMuxCH0_Start(void)
  38:.\Generated_Source\PSoC5/CapSense_CSD_AMuxCH0.c **** {
  39              		.loc 1 38 0
  40              		.cfi_startproc
  41              		@ args = 0, pretend = 0, frame = 0
  42              		@ frame_needed = 1, uses_anonymous_args = 0
  43 0000 80B5     		push	{r7, lr}
  44              		.cfi_def_cfa_offset 8
  45              		.cfi_offset 7, -8
  46              		.cfi_offset 14, -4
  47 0002 00AF     		add	r7, sp, #0
  48              		.cfi_def_cfa_register 7
  39:.\Generated_Source\PSoC5/CapSense_CSD_AMuxCH0.c ****     CapSense_CSD_AMuxCH0_DisconnectAll();
  49              		.loc 1 39 0
  50 0004 FFF7FEFF 		bl	CapSense_CSD_AMuxCH0_DisconnectAll
  40:.\Generated_Source\PSoC5/CapSense_CSD_AMuxCH0.c ****     CapSense_CSD_AMuxCH0_initVar = 1u;
  51              		.loc 1 40 0
  52 0008 014B     		ldr	r3, .L2
  53 000a 0122     		movs	r2, #1
  54 000c 1A70     		strb	r2, [r3]
  41:.\Generated_Source\PSoC5/CapSense_CSD_AMuxCH0.c **** }
  55              		.loc 1 41 0
  56 000e 80BD     		pop	{r7, pc}
  57              	.L3:
  58              		.align	2
  59              	.L2:
  60 0010 00000000 		.word	CapSense_CSD_AMuxCH0_initVar
  61              		.cfi_endproc
  62              	.LFE0:
  63              		.size	CapSense_CSD_AMuxCH0_Start, .-CapSense_CSD_AMuxCH0_Start
  64              		.section	.text.CapSense_CSD_AMuxCH0_Init,"ax",%progbits
  65              		.align	2
  66              		.global	CapSense_CSD_AMuxCH0_Init
  67              		.thumb
  68              		.thumb_func
  69              		.type	CapSense_CSD_AMuxCH0_Init, %function
  70              	CapSense_CSD_AMuxCH0_Init:
  71              	.LFB1:
  42:.\Generated_Source\PSoC5/CapSense_CSD_AMuxCH0.c **** 
  43:.\Generated_Source\PSoC5/CapSense_CSD_AMuxCH0.c **** 
ARM GAS  C:\Users\LUKASC~1\AppData\Local\Temp\ccKY6jmp.s 			page 3


  44:.\Generated_Source\PSoC5/CapSense_CSD_AMuxCH0.c **** /*******************************************************************************
  45:.\Generated_Source\PSoC5/CapSense_CSD_AMuxCH0.c **** * Function Name: CapSense_CSD_AMuxCH0_Init
  46:.\Generated_Source\PSoC5/CapSense_CSD_AMuxCH0.c **** ********************************************************************************
  47:.\Generated_Source\PSoC5/CapSense_CSD_AMuxCH0.c **** * Summary:
  48:.\Generated_Source\PSoC5/CapSense_CSD_AMuxCH0.c **** *  Disconnect all channels.
  49:.\Generated_Source\PSoC5/CapSense_CSD_AMuxCH0.c **** *
  50:.\Generated_Source\PSoC5/CapSense_CSD_AMuxCH0.c **** * Parameters:
  51:.\Generated_Source\PSoC5/CapSense_CSD_AMuxCH0.c **** *  void
  52:.\Generated_Source\PSoC5/CapSense_CSD_AMuxCH0.c **** *
  53:.\Generated_Source\PSoC5/CapSense_CSD_AMuxCH0.c **** * Return:
  54:.\Generated_Source\PSoC5/CapSense_CSD_AMuxCH0.c **** *  void
  55:.\Generated_Source\PSoC5/CapSense_CSD_AMuxCH0.c **** *
  56:.\Generated_Source\PSoC5/CapSense_CSD_AMuxCH0.c **** *******************************************************************************/
  57:.\Generated_Source\PSoC5/CapSense_CSD_AMuxCH0.c **** void CapSense_CSD_AMuxCH0_Init(void)
  58:.\Generated_Source\PSoC5/CapSense_CSD_AMuxCH0.c **** {
  72              		.loc 1 58 0
  73              		.cfi_startproc
  74              		@ args = 0, pretend = 0, frame = 0
  75              		@ frame_needed = 1, uses_anonymous_args = 0
  76 0000 80B5     		push	{r7, lr}
  77              		.cfi_def_cfa_offset 8
  78              		.cfi_offset 7, -8
  79              		.cfi_offset 14, -4
  80 0002 00AF     		add	r7, sp, #0
  81              		.cfi_def_cfa_register 7
  59:.\Generated_Source\PSoC5/CapSense_CSD_AMuxCH0.c ****     CapSense_CSD_AMuxCH0_DisconnectAll();
  82              		.loc 1 59 0
  83 0004 FFF7FEFF 		bl	CapSense_CSD_AMuxCH0_DisconnectAll
  60:.\Generated_Source\PSoC5/CapSense_CSD_AMuxCH0.c **** }
  84              		.loc 1 60 0
  85 0008 80BD     		pop	{r7, pc}
  86              		.cfi_endproc
  87              	.LFE1:
  88              		.size	CapSense_CSD_AMuxCH0_Init, .-CapSense_CSD_AMuxCH0_Init
  89 000a 00BF     		.section	.text.CapSense_CSD_AMuxCH0_Stop,"ax",%progbits
  90              		.align	2
  91              		.global	CapSense_CSD_AMuxCH0_Stop
  92              		.thumb
  93              		.thumb_func
  94              		.type	CapSense_CSD_AMuxCH0_Stop, %function
  95              	CapSense_CSD_AMuxCH0_Stop:
  96              	.LFB2:
  61:.\Generated_Source\PSoC5/CapSense_CSD_AMuxCH0.c **** 
  62:.\Generated_Source\PSoC5/CapSense_CSD_AMuxCH0.c **** 
  63:.\Generated_Source\PSoC5/CapSense_CSD_AMuxCH0.c **** /*******************************************************************************
  64:.\Generated_Source\PSoC5/CapSense_CSD_AMuxCH0.c **** * Function Name: CapSense_CSD_AMuxCH0_Stop
  65:.\Generated_Source\PSoC5/CapSense_CSD_AMuxCH0.c **** ********************************************************************************
  66:.\Generated_Source\PSoC5/CapSense_CSD_AMuxCH0.c **** * Summary:
  67:.\Generated_Source\PSoC5/CapSense_CSD_AMuxCH0.c **** *  Disconnect all channels.
  68:.\Generated_Source\PSoC5/CapSense_CSD_AMuxCH0.c **** *
  69:.\Generated_Source\PSoC5/CapSense_CSD_AMuxCH0.c **** * Parameters:
  70:.\Generated_Source\PSoC5/CapSense_CSD_AMuxCH0.c **** *  void
  71:.\Generated_Source\PSoC5/CapSense_CSD_AMuxCH0.c **** *
  72:.\Generated_Source\PSoC5/CapSense_CSD_AMuxCH0.c **** * Return:
  73:.\Generated_Source\PSoC5/CapSense_CSD_AMuxCH0.c **** *  void
  74:.\Generated_Source\PSoC5/CapSense_CSD_AMuxCH0.c **** *
  75:.\Generated_Source\PSoC5/CapSense_CSD_AMuxCH0.c **** *******************************************************************************/
ARM GAS  C:\Users\LUKASC~1\AppData\Local\Temp\ccKY6jmp.s 			page 4


  76:.\Generated_Source\PSoC5/CapSense_CSD_AMuxCH0.c **** void CapSense_CSD_AMuxCH0_Stop(void)
  77:.\Generated_Source\PSoC5/CapSense_CSD_AMuxCH0.c **** {
  97              		.loc 1 77 0
  98              		.cfi_startproc
  99              		@ args = 0, pretend = 0, frame = 0
 100              		@ frame_needed = 1, uses_anonymous_args = 0
 101 0000 80B5     		push	{r7, lr}
 102              		.cfi_def_cfa_offset 8
 103              		.cfi_offset 7, -8
 104              		.cfi_offset 14, -4
 105 0002 00AF     		add	r7, sp, #0
 106              		.cfi_def_cfa_register 7
  78:.\Generated_Source\PSoC5/CapSense_CSD_AMuxCH0.c ****     CapSense_CSD_AMuxCH0_DisconnectAll();
 107              		.loc 1 78 0
 108 0004 FFF7FEFF 		bl	CapSense_CSD_AMuxCH0_DisconnectAll
  79:.\Generated_Source\PSoC5/CapSense_CSD_AMuxCH0.c **** }
 109              		.loc 1 79 0
 110 0008 80BD     		pop	{r7, pc}
 111              		.cfi_endproc
 112              	.LFE2:
 113              		.size	CapSense_CSD_AMuxCH0_Stop, .-CapSense_CSD_AMuxCH0_Stop
 114 000a 00BF     		.section	.text.CapSense_CSD_AMuxCH0_Select,"ax",%progbits
 115              		.align	2
 116              		.global	CapSense_CSD_AMuxCH0_Select
 117              		.thumb
 118              		.thumb_func
 119              		.type	CapSense_CSD_AMuxCH0_Select, %function
 120              	CapSense_CSD_AMuxCH0_Select:
 121              	.LFB3:
  80:.\Generated_Source\PSoC5/CapSense_CSD_AMuxCH0.c **** 
  81:.\Generated_Source\PSoC5/CapSense_CSD_AMuxCH0.c **** 
  82:.\Generated_Source\PSoC5/CapSense_CSD_AMuxCH0.c **** /*******************************************************************************
  83:.\Generated_Source\PSoC5/CapSense_CSD_AMuxCH0.c **** * Function Name: CapSense_CSD_AMuxCH0_Select
  84:.\Generated_Source\PSoC5/CapSense_CSD_AMuxCH0.c **** ********************************************************************************
  85:.\Generated_Source\PSoC5/CapSense_CSD_AMuxCH0.c **** * Summary:
  86:.\Generated_Source\PSoC5/CapSense_CSD_AMuxCH0.c **** *  This functions first disconnects all channels then connects the given
  87:.\Generated_Source\PSoC5/CapSense_CSD_AMuxCH0.c **** *  channel.
  88:.\Generated_Source\PSoC5/CapSense_CSD_AMuxCH0.c **** *
  89:.\Generated_Source\PSoC5/CapSense_CSD_AMuxCH0.c **** * Parameters:
  90:.\Generated_Source\PSoC5/CapSense_CSD_AMuxCH0.c **** *  channel:  The channel to connect to the common terminal.
  91:.\Generated_Source\PSoC5/CapSense_CSD_AMuxCH0.c **** *
  92:.\Generated_Source\PSoC5/CapSense_CSD_AMuxCH0.c **** * Return:
  93:.\Generated_Source\PSoC5/CapSense_CSD_AMuxCH0.c **** *  void
  94:.\Generated_Source\PSoC5/CapSense_CSD_AMuxCH0.c **** *
  95:.\Generated_Source\PSoC5/CapSense_CSD_AMuxCH0.c **** *******************************************************************************/
  96:.\Generated_Source\PSoC5/CapSense_CSD_AMuxCH0.c **** void CapSense_CSD_AMuxCH0_Select(uint8 channel) CYREENTRANT
  97:.\Generated_Source\PSoC5/CapSense_CSD_AMuxCH0.c **** {
 122              		.loc 1 97 0
 123              		.cfi_startproc
 124              		@ args = 0, pretend = 0, frame = 8
 125              		@ frame_needed = 1, uses_anonymous_args = 0
 126 0000 80B5     		push	{r7, lr}
 127              		.cfi_def_cfa_offset 8
 128              		.cfi_offset 7, -8
 129              		.cfi_offset 14, -4
 130 0002 82B0     		sub	sp, sp, #8
 131              		.cfi_def_cfa_offset 16
ARM GAS  C:\Users\LUKASC~1\AppData\Local\Temp\ccKY6jmp.s 			page 5


 132 0004 00AF     		add	r7, sp, #0
 133              		.cfi_def_cfa_register 7
 134 0006 0346     		mov	r3, r0
 135 0008 FB71     		strb	r3, [r7, #7]
  98:.\Generated_Source\PSoC5/CapSense_CSD_AMuxCH0.c ****     CapSense_CSD_AMuxCH0_DisconnectAll();        /* Disconnect all previous connections */
 136              		.loc 1 98 0
 137 000a FFF7FEFF 		bl	CapSense_CSD_AMuxCH0_DisconnectAll
  99:.\Generated_Source\PSoC5/CapSense_CSD_AMuxCH0.c ****     CapSense_CSD_AMuxCH0_Connect(channel);       /* Make the given selection */
 138              		.loc 1 99 0
 139 000e FB79     		ldrb	r3, [r7, #7]	@ zero_extendqisi2
 140 0010 1846     		mov	r0, r3
 141 0012 FFF7FEFF 		bl	CapSense_CSD_AMuxCH0_Set
 100:.\Generated_Source\PSoC5/CapSense_CSD_AMuxCH0.c ****     CapSense_CSD_AMuxCH0_lastChannel = channel;  /* Update last channel */
 142              		.loc 1 100 0
 143 0016 034A     		ldr	r2, .L7
 144 0018 FB79     		ldrb	r3, [r7, #7]
 145 001a 1370     		strb	r3, [r2]
 101:.\Generated_Source\PSoC5/CapSense_CSD_AMuxCH0.c **** }
 146              		.loc 1 101 0
 147 001c 0837     		adds	r7, r7, #8
 148              		.cfi_def_cfa_offset 8
 149 001e BD46     		mov	sp, r7
 150              		.cfi_def_cfa_register 13
 151              		@ sp needed
 152 0020 80BD     		pop	{r7, pc}
 153              	.L8:
 154 0022 00BF     		.align	2
 155              	.L7:
 156 0024 00000000 		.word	CapSense_CSD_AMuxCH0_lastChannel
 157              		.cfi_endproc
 158              	.LFE3:
 159              		.size	CapSense_CSD_AMuxCH0_Select, .-CapSense_CSD_AMuxCH0_Select
 160              		.section	.text.CapSense_CSD_AMuxCH0_FastSelect,"ax",%progbits
 161              		.align	2
 162              		.global	CapSense_CSD_AMuxCH0_FastSelect
 163              		.thumb
 164              		.thumb_func
 165              		.type	CapSense_CSD_AMuxCH0_FastSelect, %function
 166              	CapSense_CSD_AMuxCH0_FastSelect:
 167              	.LFB4:
 102:.\Generated_Source\PSoC5/CapSense_CSD_AMuxCH0.c **** 
 103:.\Generated_Source\PSoC5/CapSense_CSD_AMuxCH0.c **** 
 104:.\Generated_Source\PSoC5/CapSense_CSD_AMuxCH0.c **** /*******************************************************************************
 105:.\Generated_Source\PSoC5/CapSense_CSD_AMuxCH0.c **** * Function Name: CapSense_CSD_AMuxCH0_FastSelect
 106:.\Generated_Source\PSoC5/CapSense_CSD_AMuxCH0.c **** ********************************************************************************
 107:.\Generated_Source\PSoC5/CapSense_CSD_AMuxCH0.c **** * Summary:
 108:.\Generated_Source\PSoC5/CapSense_CSD_AMuxCH0.c **** *  This function first disconnects the last connection made with FastSelect or
 109:.\Generated_Source\PSoC5/CapSense_CSD_AMuxCH0.c **** *  Select, then connects the given channel. The FastSelect function is similar
 110:.\Generated_Source\PSoC5/CapSense_CSD_AMuxCH0.c **** *  to the Select function, except it is faster since it only disconnects the
 111:.\Generated_Source\PSoC5/CapSense_CSD_AMuxCH0.c **** *  last channel selected rather than all channels.
 112:.\Generated_Source\PSoC5/CapSense_CSD_AMuxCH0.c **** *
 113:.\Generated_Source\PSoC5/CapSense_CSD_AMuxCH0.c **** * Parameters:
 114:.\Generated_Source\PSoC5/CapSense_CSD_AMuxCH0.c **** *  channel:  The channel to connect to the common terminal.
 115:.\Generated_Source\PSoC5/CapSense_CSD_AMuxCH0.c **** *
 116:.\Generated_Source\PSoC5/CapSense_CSD_AMuxCH0.c **** * Return:
 117:.\Generated_Source\PSoC5/CapSense_CSD_AMuxCH0.c **** *  void
 118:.\Generated_Source\PSoC5/CapSense_CSD_AMuxCH0.c **** *
ARM GAS  C:\Users\LUKASC~1\AppData\Local\Temp\ccKY6jmp.s 			page 6


 119:.\Generated_Source\PSoC5/CapSense_CSD_AMuxCH0.c **** *******************************************************************************/
 120:.\Generated_Source\PSoC5/CapSense_CSD_AMuxCH0.c **** void CapSense_CSD_AMuxCH0_FastSelect(uint8 channel) CYREENTRANT
 121:.\Generated_Source\PSoC5/CapSense_CSD_AMuxCH0.c **** {
 168              		.loc 1 121 0
 169              		.cfi_startproc
 170              		@ args = 0, pretend = 0, frame = 8
 171              		@ frame_needed = 1, uses_anonymous_args = 0
 172 0000 80B5     		push	{r7, lr}
 173              		.cfi_def_cfa_offset 8
 174              		.cfi_offset 7, -8
 175              		.cfi_offset 14, -4
 176 0002 82B0     		sub	sp, sp, #8
 177              		.cfi_def_cfa_offset 16
 178 0004 00AF     		add	r7, sp, #0
 179              		.cfi_def_cfa_register 7
 180 0006 0346     		mov	r3, r0
 181 0008 FB71     		strb	r3, [r7, #7]
 122:.\Generated_Source\PSoC5/CapSense_CSD_AMuxCH0.c ****     /* Disconnect the last valid channel */
 123:.\Generated_Source\PSoC5/CapSense_CSD_AMuxCH0.c ****     if( CapSense_CSD_AMuxCH0_lastChannel != CapSense_CSD_AMuxCH0_NULL_CHANNEL)   /* Update last cha
 182              		.loc 1 123 0
 183 000a 094B     		ldr	r3, .L11
 184 000c 1B78     		ldrb	r3, [r3]	@ zero_extendqisi2
 185 000e FF2B     		cmp	r3, #255
 186 0010 04D0     		beq	.L10
 124:.\Generated_Source\PSoC5/CapSense_CSD_AMuxCH0.c ****     {
 125:.\Generated_Source\PSoC5/CapSense_CSD_AMuxCH0.c ****         CapSense_CSD_AMuxCH0_Disconnect(CapSense_CSD_AMuxCH0_lastChannel);
 187              		.loc 1 125 0
 188 0012 074B     		ldr	r3, .L11
 189 0014 1B78     		ldrb	r3, [r3]	@ zero_extendqisi2
 190 0016 1846     		mov	r0, r3
 191 0018 FFF7FEFF 		bl	CapSense_CSD_AMuxCH0_Unset
 192              	.L10:
 126:.\Generated_Source\PSoC5/CapSense_CSD_AMuxCH0.c ****     }
 127:.\Generated_Source\PSoC5/CapSense_CSD_AMuxCH0.c **** 
 128:.\Generated_Source\PSoC5/CapSense_CSD_AMuxCH0.c ****     /* Make the new channel connection */
 129:.\Generated_Source\PSoC5/CapSense_CSD_AMuxCH0.c ****     CapSense_CSD_AMuxCH0_Connect(channel);
 193              		.loc 1 129 0
 194 001c FB79     		ldrb	r3, [r7, #7]	@ zero_extendqisi2
 195 001e 1846     		mov	r0, r3
 196 0020 FFF7FEFF 		bl	CapSense_CSD_AMuxCH0_Set
 130:.\Generated_Source\PSoC5/CapSense_CSD_AMuxCH0.c ****     CapSense_CSD_AMuxCH0_lastChannel = channel;   /* Update last channel */
 197              		.loc 1 130 0
 198 0024 024A     		ldr	r2, .L11
 199 0026 FB79     		ldrb	r3, [r7, #7]
 200 0028 1370     		strb	r3, [r2]
 131:.\Generated_Source\PSoC5/CapSense_CSD_AMuxCH0.c **** }
 201              		.loc 1 131 0
 202 002a 0837     		adds	r7, r7, #8
 203              		.cfi_def_cfa_offset 8
 204 002c BD46     		mov	sp, r7
 205              		.cfi_def_cfa_register 13
 206              		@ sp needed
 207 002e 80BD     		pop	{r7, pc}
 208              	.L12:
 209              		.align	2
 210              	.L11:
 211 0030 00000000 		.word	CapSense_CSD_AMuxCH0_lastChannel
ARM GAS  C:\Users\LUKASC~1\AppData\Local\Temp\ccKY6jmp.s 			page 7


 212              		.cfi_endproc
 213              	.LFE4:
 214              		.size	CapSense_CSD_AMuxCH0_FastSelect, .-CapSense_CSD_AMuxCH0_FastSelect
 215              		.section	.text.CapSense_CSD_AMuxCH0_DisconnectAll,"ax",%progbits
 216              		.align	2
 217              		.global	CapSense_CSD_AMuxCH0_DisconnectAll
 218              		.thumb
 219              		.thumb_func
 220              		.type	CapSense_CSD_AMuxCH0_DisconnectAll, %function
 221              	CapSense_CSD_AMuxCH0_DisconnectAll:
 222              	.LFB5:
 132:.\Generated_Source\PSoC5/CapSense_CSD_AMuxCH0.c **** 
 133:.\Generated_Source\PSoC5/CapSense_CSD_AMuxCH0.c **** 
 134:.\Generated_Source\PSoC5/CapSense_CSD_AMuxCH0.c **** #if(CapSense_CSD_AMuxCH0_MUXTYPE == CapSense_CSD_AMuxCH0_MUX_DIFF)
 135:.\Generated_Source\PSoC5/CapSense_CSD_AMuxCH0.c ****     /*******************************************************************************
 136:.\Generated_Source\PSoC5/CapSense_CSD_AMuxCH0.c ****     * Function Name: CapSense_CSD_AMuxCH0_Connect
 137:.\Generated_Source\PSoC5/CapSense_CSD_AMuxCH0.c ****     ********************************************************************************
 138:.\Generated_Source\PSoC5/CapSense_CSD_AMuxCH0.c ****     * Summary:
 139:.\Generated_Source\PSoC5/CapSense_CSD_AMuxCH0.c ****     *  This function connects the given channel without affecting other connections.
 140:.\Generated_Source\PSoC5/CapSense_CSD_AMuxCH0.c ****     *
 141:.\Generated_Source\PSoC5/CapSense_CSD_AMuxCH0.c ****     * Parameters:
 142:.\Generated_Source\PSoC5/CapSense_CSD_AMuxCH0.c ****     *  channel:  The channel to connect to the common terminal.
 143:.\Generated_Source\PSoC5/CapSense_CSD_AMuxCH0.c ****     *
 144:.\Generated_Source\PSoC5/CapSense_CSD_AMuxCH0.c ****     * Return:
 145:.\Generated_Source\PSoC5/CapSense_CSD_AMuxCH0.c ****     *  void
 146:.\Generated_Source\PSoC5/CapSense_CSD_AMuxCH0.c ****     *
 147:.\Generated_Source\PSoC5/CapSense_CSD_AMuxCH0.c ****     *******************************************************************************/
 148:.\Generated_Source\PSoC5/CapSense_CSD_AMuxCH0.c ****     void CapSense_CSD_AMuxCH0_Connect(uint8 channel) CYREENTRANT
 149:.\Generated_Source\PSoC5/CapSense_CSD_AMuxCH0.c ****     {
 150:.\Generated_Source\PSoC5/CapSense_CSD_AMuxCH0.c ****         CapSense_CSD_AMuxCH0_CYAMUXSIDE_A_Set(channel);
 151:.\Generated_Source\PSoC5/CapSense_CSD_AMuxCH0.c ****         CapSense_CSD_AMuxCH0_CYAMUXSIDE_B_Set(channel);
 152:.\Generated_Source\PSoC5/CapSense_CSD_AMuxCH0.c ****     }
 153:.\Generated_Source\PSoC5/CapSense_CSD_AMuxCH0.c ****     
 154:.\Generated_Source\PSoC5/CapSense_CSD_AMuxCH0.c ****     
 155:.\Generated_Source\PSoC5/CapSense_CSD_AMuxCH0.c ****     /*******************************************************************************
 156:.\Generated_Source\PSoC5/CapSense_CSD_AMuxCH0.c ****     * Function Name: CapSense_CSD_AMuxCH0_Disconnect
 157:.\Generated_Source\PSoC5/CapSense_CSD_AMuxCH0.c ****     ********************************************************************************
 158:.\Generated_Source\PSoC5/CapSense_CSD_AMuxCH0.c ****     * Summary:
 159:.\Generated_Source\PSoC5/CapSense_CSD_AMuxCH0.c ****     *  This function disconnects the given channel from the common or output
 160:.\Generated_Source\PSoC5/CapSense_CSD_AMuxCH0.c ****     *  terminal without affecting other connections.
 161:.\Generated_Source\PSoC5/CapSense_CSD_AMuxCH0.c ****     *
 162:.\Generated_Source\PSoC5/CapSense_CSD_AMuxCH0.c ****     * Parameters:
 163:.\Generated_Source\PSoC5/CapSense_CSD_AMuxCH0.c ****     *  channel:  The channel to disconnect from the common terminal.
 164:.\Generated_Source\PSoC5/CapSense_CSD_AMuxCH0.c ****     *
 165:.\Generated_Source\PSoC5/CapSense_CSD_AMuxCH0.c ****     * Return:
 166:.\Generated_Source\PSoC5/CapSense_CSD_AMuxCH0.c ****     *  void
 167:.\Generated_Source\PSoC5/CapSense_CSD_AMuxCH0.c ****     *
 168:.\Generated_Source\PSoC5/CapSense_CSD_AMuxCH0.c ****     *******************************************************************************/
 169:.\Generated_Source\PSoC5/CapSense_CSD_AMuxCH0.c ****     void CapSense_CSD_AMuxCH0_Disconnect(uint8 channel) CYREENTRANT
 170:.\Generated_Source\PSoC5/CapSense_CSD_AMuxCH0.c ****     {
 171:.\Generated_Source\PSoC5/CapSense_CSD_AMuxCH0.c ****         CapSense_CSD_AMuxCH0_CYAMUXSIDE_A_Unset(channel);
 172:.\Generated_Source\PSoC5/CapSense_CSD_AMuxCH0.c ****         CapSense_CSD_AMuxCH0_CYAMUXSIDE_B_Unset(channel);
 173:.\Generated_Source\PSoC5/CapSense_CSD_AMuxCH0.c ****     }
 174:.\Generated_Source\PSoC5/CapSense_CSD_AMuxCH0.c ****     
 175:.\Generated_Source\PSoC5/CapSense_CSD_AMuxCH0.c **** #endif  /* End (CapSense_CSD_AMuxCH0_MUXTYPE == CapSense_CSD_AMuxCH0_MUX_DIFF) */
 176:.\Generated_Source\PSoC5/CapSense_CSD_AMuxCH0.c **** 
 177:.\Generated_Source\PSoC5/CapSense_CSD_AMuxCH0.c **** 
ARM GAS  C:\Users\LUKASC~1\AppData\Local\Temp\ccKY6jmp.s 			page 8


 178:.\Generated_Source\PSoC5/CapSense_CSD_AMuxCH0.c **** /*******************************************************************************
 179:.\Generated_Source\PSoC5/CapSense_CSD_AMuxCH0.c **** * Function Name: CapSense_CSD_AMuxCH0_DisconnectAll
 180:.\Generated_Source\PSoC5/CapSense_CSD_AMuxCH0.c **** ********************************************************************************
 181:.\Generated_Source\PSoC5/CapSense_CSD_AMuxCH0.c **** * Summary:
 182:.\Generated_Source\PSoC5/CapSense_CSD_AMuxCH0.c **** *  This function disconnects all channels.
 183:.\Generated_Source\PSoC5/CapSense_CSD_AMuxCH0.c **** *
 184:.\Generated_Source\PSoC5/CapSense_CSD_AMuxCH0.c **** * Parameters:
 185:.\Generated_Source\PSoC5/CapSense_CSD_AMuxCH0.c **** *  void
 186:.\Generated_Source\PSoC5/CapSense_CSD_AMuxCH0.c **** *
 187:.\Generated_Source\PSoC5/CapSense_CSD_AMuxCH0.c **** * Return:
 188:.\Generated_Source\PSoC5/CapSense_CSD_AMuxCH0.c **** *  void
 189:.\Generated_Source\PSoC5/CapSense_CSD_AMuxCH0.c **** *
 190:.\Generated_Source\PSoC5/CapSense_CSD_AMuxCH0.c **** *******************************************************************************/
 191:.\Generated_Source\PSoC5/CapSense_CSD_AMuxCH0.c **** void CapSense_CSD_AMuxCH0_DisconnectAll(void) CYREENTRANT
 192:.\Generated_Source\PSoC5/CapSense_CSD_AMuxCH0.c **** {
 223              		.loc 1 192 0
 224              		.cfi_startproc
 225              		@ args = 0, pretend = 0, frame = 8
 226              		@ frame_needed = 1, uses_anonymous_args = 0
 227 0000 80B5     		push	{r7, lr}
 228              		.cfi_def_cfa_offset 8
 229              		.cfi_offset 7, -8
 230              		.cfi_offset 14, -4
 231 0002 82B0     		sub	sp, sp, #8
 232              		.cfi_def_cfa_offset 16
 233 0004 00AF     		add	r7, sp, #0
 234              		.cfi_def_cfa_register 7
 193:.\Generated_Source\PSoC5/CapSense_CSD_AMuxCH0.c ****     uint8 chan;
 194:.\Generated_Source\PSoC5/CapSense_CSD_AMuxCH0.c **** 
 195:.\Generated_Source\PSoC5/CapSense_CSD_AMuxCH0.c ****     #if(CapSense_CSD_AMuxCH0_MUXTYPE == CapSense_CSD_AMuxCH0_MUX_SINGLE)
 196:.\Generated_Source\PSoC5/CapSense_CSD_AMuxCH0.c ****         for(chan = 0; chan < CapSense_CSD_AMuxCH0_CHANNELS ; chan++)
 235              		.loc 1 196 0
 236 0006 0023     		movs	r3, #0
 237 0008 FB71     		strb	r3, [r7, #7]
 238 000a 06E0     		b	.L14
 239              	.L15:
 197:.\Generated_Source\PSoC5/CapSense_CSD_AMuxCH0.c ****         {
 198:.\Generated_Source\PSoC5/CapSense_CSD_AMuxCH0.c ****             CapSense_CSD_AMuxCH0_Unset(chan);
 240              		.loc 1 198 0 discriminator 3
 241 000c FB79     		ldrb	r3, [r7, #7]	@ zero_extendqisi2
 242 000e 1846     		mov	r0, r3
 243 0010 FFF7FEFF 		bl	CapSense_CSD_AMuxCH0_Unset
 196:.\Generated_Source\PSoC5/CapSense_CSD_AMuxCH0.c ****         {
 244              		.loc 1 196 0 discriminator 3
 245 0014 FB79     		ldrb	r3, [r7, #7]	@ zero_extendqisi2
 246 0016 0133     		adds	r3, r3, #1
 247 0018 FB71     		strb	r3, [r7, #7]
 248              	.L14:
 196:.\Generated_Source\PSoC5/CapSense_CSD_AMuxCH0.c ****         {
 249              		.loc 1 196 0 is_stmt 0 discriminator 1
 250 001a FB79     		ldrb	r3, [r7, #7]	@ zero_extendqisi2
 251 001c 092B     		cmp	r3, #9
 252 001e F5D9     		bls	.L15
 199:.\Generated_Source\PSoC5/CapSense_CSD_AMuxCH0.c ****         }
 200:.\Generated_Source\PSoC5/CapSense_CSD_AMuxCH0.c ****     #else
 201:.\Generated_Source\PSoC5/CapSense_CSD_AMuxCH0.c ****         for(chan = 0; chan < CapSense_CSD_AMuxCH0_CHANNELS ; chan++)
 202:.\Generated_Source\PSoC5/CapSense_CSD_AMuxCH0.c ****         {
ARM GAS  C:\Users\LUKASC~1\AppData\Local\Temp\ccKY6jmp.s 			page 9


 203:.\Generated_Source\PSoC5/CapSense_CSD_AMuxCH0.c ****             CapSense_CSD_AMuxCH0_CYAMUXSIDE_A_Unset(chan);
 204:.\Generated_Source\PSoC5/CapSense_CSD_AMuxCH0.c ****             CapSense_CSD_AMuxCH0_CYAMUXSIDE_B_Unset(chan);
 205:.\Generated_Source\PSoC5/CapSense_CSD_AMuxCH0.c ****         }
 206:.\Generated_Source\PSoC5/CapSense_CSD_AMuxCH0.c ****     #endif  /* End (CapSense_CSD_AMuxCH0_MUXTYPE == CapSense_CSD_AMuxCH0_MUX_SINGLE) */
 207:.\Generated_Source\PSoC5/CapSense_CSD_AMuxCH0.c **** }
 253              		.loc 1 207 0 is_stmt 1
 254 0020 0837     		adds	r7, r7, #8
 255              		.cfi_def_cfa_offset 8
 256 0022 BD46     		mov	sp, r7
 257              		.cfi_def_cfa_register 13
 258              		@ sp needed
 259 0024 80BD     		pop	{r7, pc}
 260              		.cfi_endproc
 261              	.LFE5:
 262              		.size	CapSense_CSD_AMuxCH0_DisconnectAll, .-CapSense_CSD_AMuxCH0_DisconnectAll
 263 0026 00BF     		.text
 264              	.Letext0:
 265              		.file 2 ".\\Generated_Source\\PSoC5\\cytypes.h"