ARM GAS  C:\Users\LUKASC~1\AppData\Local\Temp\cc8hNEP4.s 			page 1


   1              		.syntax unified
   2              		.cpu cortex-m3
   3              		.fpu softvfp
   4              		.eabi_attribute 20, 1
   5              		.eabi_attribute 21, 1
   6              		.eabi_attribute 23, 3
   7              		.eabi_attribute 24, 1
   8              		.eabi_attribute 25, 1
   9              		.eabi_attribute 26, 1
  10              		.eabi_attribute 30, 6
  11              		.eabi_attribute 34, 1
  12              		.eabi_attribute 18, 4
  13              		.thumb
  14              		.file	"CapSense_CSD_TunerHelper.c"
  15              		.text
  16              	.Ltext0:
  17              		.cfi_sections	.debug_frame
  18              		.comm	CapSense_CSD_mailboxesComm,63,4
  19              		.section	.text.CapSense_CSD_TunerStart,"ax",%progbits
  20              		.align	2
  21              		.global	CapSense_CSD_TunerStart
  22              		.thumb
  23              		.thumb_func
  24              		.type	CapSense_CSD_TunerStart, %function
  25              	CapSense_CSD_TunerStart:
  26              	.LFB0:
  27              		.file 1 ".\\Generated_Source\\PSoC5\\CapSense_CSD_TunerHelper.c"
   1:.\Generated_Source\PSoC5/CapSense_CSD_TunerHelper.c **** /*******************************************************************************
   2:.\Generated_Source\PSoC5/CapSense_CSD_TunerHelper.c **** * File Name: CapSense_CSD_TunerHelper.c
   3:.\Generated_Source\PSoC5/CapSense_CSD_TunerHelper.c **** * Version 3.40
   4:.\Generated_Source\PSoC5/CapSense_CSD_TunerHelper.c **** *
   5:.\Generated_Source\PSoC5/CapSense_CSD_TunerHelper.c **** * Description:
   6:.\Generated_Source\PSoC5/CapSense_CSD_TunerHelper.c **** *  This file provides the source code of Tuner helper APIs for the CapSense CSD 
   7:.\Generated_Source\PSoC5/CapSense_CSD_TunerHelper.c **** *  component.
   8:.\Generated_Source\PSoC5/CapSense_CSD_TunerHelper.c **** *
   9:.\Generated_Source\PSoC5/CapSense_CSD_TunerHelper.c **** * Note:
  10:.\Generated_Source\PSoC5/CapSense_CSD_TunerHelper.c **** *
  11:.\Generated_Source\PSoC5/CapSense_CSD_TunerHelper.c **** ********************************************************************************
  12:.\Generated_Source\PSoC5/CapSense_CSD_TunerHelper.c **** * Copyright 2008-2013, Cypress Semiconductor Corporation.  All rights reserved.
  13:.\Generated_Source\PSoC5/CapSense_CSD_TunerHelper.c **** * You may use this file only in accordance with the license, terms, conditions,
  14:.\Generated_Source\PSoC5/CapSense_CSD_TunerHelper.c **** * disclaimers, and limitations in the end user license agreement accompanying
  15:.\Generated_Source\PSoC5/CapSense_CSD_TunerHelper.c **** * the software package with which this file was provided.
  16:.\Generated_Source\PSoC5/CapSense_CSD_TunerHelper.c **** *******************************************************************************/
  17:.\Generated_Source\PSoC5/CapSense_CSD_TunerHelper.c **** 
  18:.\Generated_Source\PSoC5/CapSense_CSD_TunerHelper.c **** #include "CapSense_CSD_TunerHelper.h"
  19:.\Generated_Source\PSoC5/CapSense_CSD_TunerHelper.c **** 
  20:.\Generated_Source\PSoC5/CapSense_CSD_TunerHelper.c **** #if (CapSense_CSD_TUNER_API_GENERATE)
  21:.\Generated_Source\PSoC5/CapSense_CSD_TunerHelper.c ****     volatile CapSense_CSD_MAILBOXES CapSense_CSD_mailboxesComm;
  22:.\Generated_Source\PSoC5/CapSense_CSD_TunerHelper.c **** #endif  /* (CapSense_CSD_TUNER_API_GENERATE) */
  23:.\Generated_Source\PSoC5/CapSense_CSD_TunerHelper.c **** 
  24:.\Generated_Source\PSoC5/CapSense_CSD_TunerHelper.c **** 
  25:.\Generated_Source\PSoC5/CapSense_CSD_TunerHelper.c **** /*******************************************************************************
  26:.\Generated_Source\PSoC5/CapSense_CSD_TunerHelper.c **** * Function Name: CapSense_CSD_TunerStart
  27:.\Generated_Source\PSoC5/CapSense_CSD_TunerHelper.c **** ********************************************************************************
  28:.\Generated_Source\PSoC5/CapSense_CSD_TunerHelper.c **** *
  29:.\Generated_Source\PSoC5/CapSense_CSD_TunerHelper.c **** * Summary:
  30:.\Generated_Source\PSoC5/CapSense_CSD_TunerHelper.c **** *  Initializes CapSense CSD component and EzI2C communication componenet to use
ARM GAS  C:\Users\LUKASC~1\AppData\Local\Temp\cc8hNEP4.s 			page 2


  31:.\Generated_Source\PSoC5/CapSense_CSD_TunerHelper.c **** *  mailbox data structure for communication with Tuner GUI.
  32:.\Generated_Source\PSoC5/CapSense_CSD_TunerHelper.c **** *  Start the scanning, after initialization complete.
  33:.\Generated_Source\PSoC5/CapSense_CSD_TunerHelper.c **** *
  34:.\Generated_Source\PSoC5/CapSense_CSD_TunerHelper.c **** * Parameters:
  35:.\Generated_Source\PSoC5/CapSense_CSD_TunerHelper.c **** *  None
  36:.\Generated_Source\PSoC5/CapSense_CSD_TunerHelper.c **** *
  37:.\Generated_Source\PSoC5/CapSense_CSD_TunerHelper.c **** * Return:
  38:.\Generated_Source\PSoC5/CapSense_CSD_TunerHelper.c **** *  None
  39:.\Generated_Source\PSoC5/CapSense_CSD_TunerHelper.c **** *
  40:.\Generated_Source\PSoC5/CapSense_CSD_TunerHelper.c **** * Reentrant:
  41:.\Generated_Source\PSoC5/CapSense_CSD_TunerHelper.c **** *  No
  42:.\Generated_Source\PSoC5/CapSense_CSD_TunerHelper.c **** *
  43:.\Generated_Source\PSoC5/CapSense_CSD_TunerHelper.c **** * Note:
  44:.\Generated_Source\PSoC5/CapSense_CSD_TunerHelper.c **** *  All widgets are enabled by default except proximity widgets. Proximity widgets 
  45:.\Generated_Source\PSoC5/CapSense_CSD_TunerHelper.c **** *  must be manually enabled as their long scan time is incompatible 
  46:.\Generated_Source\PSoC5/CapSense_CSD_TunerHelper.c **** *  with the fast response required of other widget types. 
  47:.\Generated_Source\PSoC5/CapSense_CSD_TunerHelper.c **** *
  48:.\Generated_Source\PSoC5/CapSense_CSD_TunerHelper.c **** *******************************************************************************/
  49:.\Generated_Source\PSoC5/CapSense_CSD_TunerHelper.c **** void CapSense_CSD_TunerStart(void) 
  50:.\Generated_Source\PSoC5/CapSense_CSD_TunerHelper.c **** {
  28              		.loc 1 50 0
  29              		.cfi_startproc
  30              		@ args = 0, pretend = 0, frame = 0
  31              		@ frame_needed = 1, uses_anonymous_args = 0
  32 0000 80B5     		push	{r7, lr}
  33              		.cfi_def_cfa_offset 8
  34              		.cfi_offset 7, -8
  35              		.cfi_offset 14, -4
  36 0002 00AF     		add	r7, sp, #0
  37              		.cfi_def_cfa_register 7
  51:.\Generated_Source\PSoC5/CapSense_CSD_TunerHelper.c ****     #if (CapSense_CSD_TUNER_API_GENERATE)
  52:.\Generated_Source\PSoC5/CapSense_CSD_TunerHelper.c ****         
  53:.\Generated_Source\PSoC5/CapSense_CSD_TunerHelper.c ****         /* Init mbx and quick check */
  54:.\Generated_Source\PSoC5/CapSense_CSD_TunerHelper.c ****         CapSense_CSD_InitMailbox(&CapSense_CSD_mailboxesComm.csdMailbox);
  38              		.loc 1 54 0
  39 0004 0A48     		ldr	r0, .L2
  40 0006 FFF7FEFF 		bl	CapSense_CSD_InitMailbox
  55:.\Generated_Source\PSoC5/CapSense_CSD_TunerHelper.c ****         CapSense_CSD_mailboxesComm.numMailBoxes = CapSense_CSD_DEFAULT_MAILBOXES_NUMBER;
  41              		.loc 1 55 0
  42 000a 0A4B     		ldr	r3, .L2+4
  43 000c 0122     		movs	r2, #1
  44 000e 1A70     		strb	r2, [r3]
  56:.\Generated_Source\PSoC5/CapSense_CSD_TunerHelper.c ****         
  57:.\Generated_Source\PSoC5/CapSense_CSD_TunerHelper.c ****         /* Start CapSense and baselines */
  58:.\Generated_Source\PSoC5/CapSense_CSD_TunerHelper.c ****         CapSense_CSD_Start();
  45              		.loc 1 58 0
  46 0010 FFF7FEFF 		bl	CapSense_CSD_Start
  59:.\Generated_Source\PSoC5/CapSense_CSD_TunerHelper.c ****         
  60:.\Generated_Source\PSoC5/CapSense_CSD_TunerHelper.c ****         /* Initialize baselines */ 
  61:.\Generated_Source\PSoC5/CapSense_CSD_TunerHelper.c ****         CapSense_CSD_InitializeAllBaselines();
  47              		.loc 1 61 0
  48 0014 FFF7FEFF 		bl	CapSense_CSD_InitializeAllBaselines
  62:.\Generated_Source\PSoC5/CapSense_CSD_TunerHelper.c ****         CapSense_CSD_InitializeAllBaselines();
  49              		.loc 1 62 0
  50 0018 FFF7FEFF 		bl	CapSense_CSD_InitializeAllBaselines
  63:.\Generated_Source\PSoC5/CapSense_CSD_TunerHelper.c ****         
  64:.\Generated_Source\PSoC5/CapSense_CSD_TunerHelper.c ****         /* Start EzI2C, clears buf pointers */
ARM GAS  C:\Users\LUKASC~1\AppData\Local\Temp\cc8hNEP4.s 			page 3


  65:.\Generated_Source\PSoC5/CapSense_CSD_TunerHelper.c ****         EZI2C_Start();
  51              		.loc 1 65 0
  52 001c FFF7FEFF 		bl	EZI2C_Start
  66:.\Generated_Source\PSoC5/CapSense_CSD_TunerHelper.c ****         
  67:.\Generated_Source\PSoC5/CapSense_CSD_TunerHelper.c ****         /* Setup EzI2C buffers */
  68:.\Generated_Source\PSoC5/CapSense_CSD_TunerHelper.c ****         EZI2C_SetBuffer1(sizeof(CapSense_CSD_mailboxesComm), sizeof(CapSense_CSD_mailboxesComm),
  53              		.loc 1 68 0
  54 0020 3F20     		movs	r0, #63
  55 0022 3F21     		movs	r1, #63
  56 0024 034A     		ldr	r2, .L2+4
  57 0026 FFF7FEFF 		bl	EZI2C_SetBuffer1
  69:.\Generated_Source\PSoC5/CapSense_CSD_TunerHelper.c ****                                         (void *) &CapSense_CSD_mailboxesComm);
  70:.\Generated_Source\PSoC5/CapSense_CSD_TunerHelper.c ****         
  71:.\Generated_Source\PSoC5/CapSense_CSD_TunerHelper.c ****         /* Starts scan all enabled sensors */
  72:.\Generated_Source\PSoC5/CapSense_CSD_TunerHelper.c ****         CapSense_CSD_ScanEnabledWidgets();
  58              		.loc 1 72 0
  59 002a FFF7FEFF 		bl	CapSense_CSD_ScanEnabledWidgets
  73:.\Generated_Source\PSoC5/CapSense_CSD_TunerHelper.c ****     
  74:.\Generated_Source\PSoC5/CapSense_CSD_TunerHelper.c ****     #endif  /* (CapSense_CSD_TUNER_API_GENERATE) */
  75:.\Generated_Source\PSoC5/CapSense_CSD_TunerHelper.c **** }
  60              		.loc 1 75 0
  61 002e 80BD     		pop	{r7, pc}
  62              	.L3:
  63              		.align	2
  64              	.L2:
  65 0030 01000000 		.word	CapSense_CSD_mailboxesComm+1
  66 0034 00000000 		.word	CapSense_CSD_mailboxesComm
  67              		.cfi_endproc
  68              	.LFE0:
  69              		.size	CapSense_CSD_TunerStart, .-CapSense_CSD_TunerStart
  70              		.section	.text.CapSense_CSD_TunerComm,"ax",%progbits
  71              		.align	2
  72              		.global	CapSense_CSD_TunerComm
  73              		.thumb
  74              		.thumb_func
  75              		.type	CapSense_CSD_TunerComm, %function
  76              	CapSense_CSD_TunerComm:
  77              	.LFB1:
  76:.\Generated_Source\PSoC5/CapSense_CSD_TunerHelper.c **** 
  77:.\Generated_Source\PSoC5/CapSense_CSD_TunerHelper.c **** 
  78:.\Generated_Source\PSoC5/CapSense_CSD_TunerHelper.c **** /*******************************************************************************
  79:.\Generated_Source\PSoC5/CapSense_CSD_TunerHelper.c **** * Function Name: CapSense_CSD_TunerComm
  80:.\Generated_Source\PSoC5/CapSense_CSD_TunerHelper.c **** ********************************************************************************
  81:.\Generated_Source\PSoC5/CapSense_CSD_TunerHelper.c **** *
  82:.\Generated_Source\PSoC5/CapSense_CSD_TunerHelper.c **** * Summary:
  83:.\Generated_Source\PSoC5/CapSense_CSD_TunerHelper.c **** *  This function is blocking. It waits till scaning loop is completed and apply
  84:.\Generated_Source\PSoC5/CapSense_CSD_TunerHelper.c **** *  new parameters from Tuner GUI if available (manual tuning mode only). Updates
  85:.\Generated_Source\PSoC5/CapSense_CSD_TunerHelper.c **** *  enabled baselines and state of widgets. Waits while Tuner GUI reports that 
  86:.\Generated_Source\PSoC5/CapSense_CSD_TunerHelper.c **** *  content of mailbox could be modified. Then loads the report data into outbox 
  87:.\Generated_Source\PSoC5/CapSense_CSD_TunerHelper.c **** *  and sets the busy flag. Starts new scanning loop.
  88:.\Generated_Source\PSoC5/CapSense_CSD_TunerHelper.c **** *  
  89:.\Generated_Source\PSoC5/CapSense_CSD_TunerHelper.c **** * Parameters:
  90:.\Generated_Source\PSoC5/CapSense_CSD_TunerHelper.c **** *  None
  91:.\Generated_Source\PSoC5/CapSense_CSD_TunerHelper.c **** *
  92:.\Generated_Source\PSoC5/CapSense_CSD_TunerHelper.c **** * Return:
  93:.\Generated_Source\PSoC5/CapSense_CSD_TunerHelper.c **** *  None
  94:.\Generated_Source\PSoC5/CapSense_CSD_TunerHelper.c **** *
ARM GAS  C:\Users\LUKASC~1\AppData\Local\Temp\cc8hNEP4.s 			page 4


  95:.\Generated_Source\PSoC5/CapSense_CSD_TunerHelper.c **** * Reentrant:
  96:.\Generated_Source\PSoC5/CapSense_CSD_TunerHelper.c **** *  No
  97:.\Generated_Source\PSoC5/CapSense_CSD_TunerHelper.c **** *
  98:.\Generated_Source\PSoC5/CapSense_CSD_TunerHelper.c **** *******************************************************************************/
  99:.\Generated_Source\PSoC5/CapSense_CSD_TunerHelper.c **** void CapSense_CSD_TunerComm(void) 
 100:.\Generated_Source\PSoC5/CapSense_CSD_TunerHelper.c **** {
  78              		.loc 1 100 0
  79              		.cfi_startproc
  80              		@ args = 0, pretend = 0, frame = 0
  81              		@ frame_needed = 1, uses_anonymous_args = 0
  82 0000 80B5     		push	{r7, lr}
  83              		.cfi_def_cfa_offset 8
  84              		.cfi_offset 7, -8
  85              		.cfi_offset 14, -4
  86 0002 00AF     		add	r7, sp, #0
  87              		.cfi_def_cfa_register 7
 101:.\Generated_Source\PSoC5/CapSense_CSD_TunerHelper.c ****     #if (CapSense_CSD_TUNER_API_GENERATE)
 102:.\Generated_Source\PSoC5/CapSense_CSD_TunerHelper.c ****         if (0u == CapSense_CSD_IsBusy())
  88              		.loc 1 102 0
  89 0004 FFF7FEFF 		bl	CapSense_CSD_IsBusy
  90 0008 0346     		mov	r3, r0
  91 000a 002B     		cmp	r3, #0
  92 000c 21D1     		bne	.L4
 103:.\Generated_Source\PSoC5/CapSense_CSD_TunerHelper.c ****         {   
 104:.\Generated_Source\PSoC5/CapSense_CSD_TunerHelper.c ****             /* Apply new settings */
 105:.\Generated_Source\PSoC5/CapSense_CSD_TunerHelper.c ****             #if (CapSense_CSD_TUNING_METHOD == CapSense_CSD_MANUAL_TUNING)
 106:.\Generated_Source\PSoC5/CapSense_CSD_TunerHelper.c ****                 CapSense_CSD_ReadMessage(&CapSense_CSD_mailboxesComm.csdMailbox);
  93              		.loc 1 106 0
  94 000e 1148     		ldr	r0, .L7
  95 0010 FFF7FEFF 		bl	CapSense_CSD_ReadMessage
 107:.\Generated_Source\PSoC5/CapSense_CSD_TunerHelper.c ****             #endif  /* (CapSense_CSD_TUNING_METHOD == CapSense_CSD_MANUAL_TUNING) */
 108:.\Generated_Source\PSoC5/CapSense_CSD_TunerHelper.c **** 
 109:.\Generated_Source\PSoC5/CapSense_CSD_TunerHelper.c ****             /* Update all baselines and process all widgets */
 110:.\Generated_Source\PSoC5/CapSense_CSD_TunerHelper.c ****             CapSense_CSD_UpdateEnabledBaselines();
  96              		.loc 1 110 0
  97 0014 FFF7FEFF 		bl	CapSense_CSD_UpdateEnabledBaselines
 111:.\Generated_Source\PSoC5/CapSense_CSD_TunerHelper.c ****             CapSense_CSD_ProcessAllWidgets(&CapSense_CSD_mailboxesComm.csdMailbox.outbox);
  98              		.loc 1 111 0
  99 0018 0F48     		ldr	r0, .L7+4
 100 001a FFF7FEFF 		bl	CapSense_CSD_ProcessAllWidgets
 112:.\Generated_Source\PSoC5/CapSense_CSD_TunerHelper.c ****             CapSense_CSD_PostMessage(&CapSense_CSD_mailboxesComm.csdMailbox);
 101              		.loc 1 112 0
 102 001e 0D48     		ldr	r0, .L7
 103 0020 FFF7FEFF 		bl	CapSense_CSD_PostMessage
 113:.\Generated_Source\PSoC5/CapSense_CSD_TunerHelper.c **** 
 114:.\Generated_Source\PSoC5/CapSense_CSD_TunerHelper.c ****             /* Enable EZI2C interrupts, after scan complete */
 115:.\Generated_Source\PSoC5/CapSense_CSD_TunerHelper.c ****             EZI2C_EnableInt();
 104              		.loc 1 115 0
 105 0024 0D4B     		ldr	r3, .L7+8
 106 0026 4FF40042 		mov	r2, #32768
 107 002a 1A60     		str	r2, [r3]
 116:.\Generated_Source\PSoC5/CapSense_CSD_TunerHelper.c **** 
 117:.\Generated_Source\PSoC5/CapSense_CSD_TunerHelper.c ****             while((CapSense_CSD_mailboxesComm.csdMailbox.type != CapSense_CSD_TYPE_ID) || \
 108              		.loc 1 117 0
 109 002c 00BF     		nop
 110              	.L6:
 111              		.loc 1 117 0 is_stmt 0 discriminator 3
ARM GAS  C:\Users\LUKASC~1\AppData\Local\Temp\cc8hNEP4.s 			page 5


 112 002e 0C4B     		ldr	r3, .L7+12
 113 0030 5B78     		ldrb	r3, [r3, #1]
 114 0032 DBB2     		uxtb	r3, r3
 115 0034 042B     		cmp	r3, #4
 116 0036 FAD1     		bne	.L6
 118:.\Generated_Source\PSoC5/CapSense_CSD_TunerHelper.c ****                   ((EZI2C_GetActivity() & EZI2C_STATUS_BUSY) != 0u)){}
 117              		.loc 1 118 0 is_stmt 1 discriminator 2
 118 0038 FFF7FEFF 		bl	EZI2C_GetActivity
 119 003c 0346     		mov	r3, r0
 120 003e 03F01003 		and	r3, r3, #16
 117:.\Generated_Source\PSoC5/CapSense_CSD_TunerHelper.c ****                   ((EZI2C_GetActivity() & EZI2C_STATUS_BUSY) != 0u)){}
 121              		.loc 1 117 0 discriminator 2
 122 0042 002B     		cmp	r3, #0
 123 0044 F3D1     		bne	.L6
 119:.\Generated_Source\PSoC5/CapSense_CSD_TunerHelper.c ****             
 120:.\Generated_Source\PSoC5/CapSense_CSD_TunerHelper.c ****             /* Disable EZI2C interrupts, while scanning */
 121:.\Generated_Source\PSoC5/CapSense_CSD_TunerHelper.c ****             EZI2C_DisableInt();
 124              		.loc 1 121 0
 125 0046 074B     		ldr	r3, .L7+16
 126 0048 4FF40042 		mov	r2, #32768
 127 004c 1A60     		str	r2, [r3]
 122:.\Generated_Source\PSoC5/CapSense_CSD_TunerHelper.c ****             
 123:.\Generated_Source\PSoC5/CapSense_CSD_TunerHelper.c ****             /* Start scan all sensors */
 124:.\Generated_Source\PSoC5/CapSense_CSD_TunerHelper.c ****             CapSense_CSD_ScanEnabledWidgets();
 128              		.loc 1 124 0
 129 004e FFF7FEFF 		bl	CapSense_CSD_ScanEnabledWidgets
 130              	.L4:
 125:.\Generated_Source\PSoC5/CapSense_CSD_TunerHelper.c ****         }
 126:.\Generated_Source\PSoC5/CapSense_CSD_TunerHelper.c ****     #endif /* (CapSense_CSD_TUNER_API_GENERATE) */
 127:.\Generated_Source\PSoC5/CapSense_CSD_TunerHelper.c **** }
 131              		.loc 1 127 0
 132 0052 80BD     		pop	{r7, pc}
 133              	.L8:
 134              		.align	2
 135              	.L7:
 136 0054 01000000 		.word	CapSense_CSD_mailboxesComm+1
 137 0058 04000000 		.word	CapSense_CSD_mailboxesComm+4
 138 005c 00E100E0 		.word	-536813312
 139 0060 00000000 		.word	CapSense_CSD_mailboxesComm
 140 0064 80E100E0 		.word	-536813184
 141              		.cfi_endproc
 142              	.LFE1:
 143              		.size	CapSense_CSD_TunerComm, .-CapSense_CSD_TunerComm
 144              		.section	.text.CapSense_CSD_ProcessAllWidgets,"ax",%progbits
 145              		.align	2
 146              		.global	CapSense_CSD_ProcessAllWidgets
 147              		.thumb
 148              		.thumb_func
 149              		.type	CapSense_CSD_ProcessAllWidgets, %function
 150              	CapSense_CSD_ProcessAllWidgets:
 151              	.LFB2:
 128:.\Generated_Source\PSoC5/CapSense_CSD_TunerHelper.c **** 
 129:.\Generated_Source\PSoC5/CapSense_CSD_TunerHelper.c **** 
 130:.\Generated_Source\PSoC5/CapSense_CSD_TunerHelper.c **** #if (CapSense_CSD_TUNER_API_GENERATE)
 131:.\Generated_Source\PSoC5/CapSense_CSD_TunerHelper.c ****     /*******************************************************************************
 132:.\Generated_Source\PSoC5/CapSense_CSD_TunerHelper.c ****     * Function Name: CapSense_CSD_ProcessAllWidgets
 133:.\Generated_Source\PSoC5/CapSense_CSD_TunerHelper.c ****     ********************************************************************************
ARM GAS  C:\Users\LUKASC~1\AppData\Local\Temp\cc8hNEP4.s 			page 6


 134:.\Generated_Source\PSoC5/CapSense_CSD_TunerHelper.c ****     *
 135:.\Generated_Source\PSoC5/CapSense_CSD_TunerHelper.c ****     * Summary:
 136:.\Generated_Source\PSoC5/CapSense_CSD_TunerHelper.c ****     *  Call required functions to update all widgets state:
 137:.\Generated_Source\PSoC5/CapSense_CSD_TunerHelper.c ****     *   - CapSense_CSD_GetCentroidPos() - calls only if linear sliders 
 138:.\Generated_Source\PSoC5/CapSense_CSD_TunerHelper.c ****     *     available.
 139:.\Generated_Source\PSoC5/CapSense_CSD_TunerHelper.c ****     *   - CapSense_CSD_GetRadialCentroidPos() - calls only if radial slider 
 140:.\Generated_Source\PSoC5/CapSense_CSD_TunerHelper.c ****     *     available.
 141:.\Generated_Source\PSoC5/CapSense_CSD_TunerHelper.c ****     *   - CapSense_CSD_GetTouchCentroidPos() - calls only if touch pad slider 
 142:.\Generated_Source\PSoC5/CapSense_CSD_TunerHelper.c ****     *     available.
 143:.\Generated_Source\PSoC5/CapSense_CSD_TunerHelper.c ****     *   - CapSense_CSD_CheckIsAnyWidgetActive();
 144:.\Generated_Source\PSoC5/CapSense_CSD_TunerHelper.c ****     *  The results of opeartions are copied to OUTBOX.
 145:.\Generated_Source\PSoC5/CapSense_CSD_TunerHelper.c ****     *   
 146:.\Generated_Source\PSoC5/CapSense_CSD_TunerHelper.c ****     * Parameters:
 147:.\Generated_Source\PSoC5/CapSense_CSD_TunerHelper.c ****     *  None
 148:.\Generated_Source\PSoC5/CapSense_CSD_TunerHelper.c ****     *
 149:.\Generated_Source\PSoC5/CapSense_CSD_TunerHelper.c ****     * Return:
 150:.\Generated_Source\PSoC5/CapSense_CSD_TunerHelper.c ****     *  None
 151:.\Generated_Source\PSoC5/CapSense_CSD_TunerHelper.c ****     *
 152:.\Generated_Source\PSoC5/CapSense_CSD_TunerHelper.c ****     * Global Variables:
 153:.\Generated_Source\PSoC5/CapSense_CSD_TunerHelper.c ****     *  CapSense_CSD_OUTBOX outbox - structure which is used as ouput 
 154:.\Generated_Source\PSoC5/CapSense_CSD_TunerHelper.c ****     *  buffer for report data to Tuner GUI.
 155:.\Generated_Source\PSoC5/CapSense_CSD_TunerHelper.c ****     *  Update fields:
 156:.\Generated_Source\PSoC5/CapSense_CSD_TunerHelper.c ****     *    - position[];
 157:.\Generated_Source\PSoC5/CapSense_CSD_TunerHelper.c ****     *    - OnMask[];
 158:.\Generated_Source\PSoC5/CapSense_CSD_TunerHelper.c ****     *
 159:.\Generated_Source\PSoC5/CapSense_CSD_TunerHelper.c ****     * Reentrant:
 160:.\Generated_Source\PSoC5/CapSense_CSD_TunerHelper.c ****     *  No
 161:.\Generated_Source\PSoC5/CapSense_CSD_TunerHelper.c ****     *
 162:.\Generated_Source\PSoC5/CapSense_CSD_TunerHelper.c ****     *******************************************************************************/
 163:.\Generated_Source\PSoC5/CapSense_CSD_TunerHelper.c ****     void CapSense_CSD_ProcessAllWidgets(volatile CapSense_CSD_OUTBOX *outbox)
 164:.\Generated_Source\PSoC5/CapSense_CSD_TunerHelper.c **** 	                                        
 165:.\Generated_Source\PSoC5/CapSense_CSD_TunerHelper.c ****     {
 152              		.loc 1 165 0
 153              		.cfi_startproc
 154              		@ args = 0, pretend = 0, frame = 16
 155              		@ frame_needed = 1, uses_anonymous_args = 0
 156 0000 B0B5     		push	{r4, r5, r7, lr}
 157              		.cfi_def_cfa_offset 16
 158              		.cfi_offset 4, -16
 159              		.cfi_offset 5, -12
 160              		.cfi_offset 7, -8
 161              		.cfi_offset 14, -4
 162 0002 84B0     		sub	sp, sp, #16
 163              		.cfi_def_cfa_offset 32
 164 0004 00AF     		add	r7, sp, #0
 165              		.cfi_def_cfa_register 7
 166 0006 7860     		str	r0, [r7, #4]
 166:.\Generated_Source\PSoC5/CapSense_CSD_TunerHelper.c ****         uint8 i = 0u;
 167              		.loc 1 166 0
 168 0008 0023     		movs	r3, #0
 169 000a FB73     		strb	r3, [r7, #15]
 167:.\Generated_Source\PSoC5/CapSense_CSD_TunerHelper.c **** 		#if (CapSense_CSD_TOTAL_MATRIX_BUTTONS_COUNT)
 168:.\Generated_Source\PSoC5/CapSense_CSD_TunerHelper.c ****         	volatile uint8 *mbPositionAddr;
 169:.\Generated_Source\PSoC5/CapSense_CSD_TunerHelper.c **** 		#endif /* (CapSense_CSD_TOTAL_MATRIX_BUTTONS_COUNT) */
 170:.\Generated_Source\PSoC5/CapSense_CSD_TunerHelper.c **** 
 171:.\Generated_Source\PSoC5/CapSense_CSD_TunerHelper.c ****         #if (CapSense_CSD_TOTAL_TOUCH_PADS_COUNT)
 172:.\Generated_Source\PSoC5/CapSense_CSD_TunerHelper.c ****             uint16 pos[2];
ARM GAS  C:\Users\LUKASC~1\AppData\Local\Temp\cc8hNEP4.s 			page 7


 173:.\Generated_Source\PSoC5/CapSense_CSD_TunerHelper.c ****         #endif  /* (CapSense_CSD_TOTAL_TOUCH_PADS_COUNT) */
 174:.\Generated_Source\PSoC5/CapSense_CSD_TunerHelper.c ****         
 175:.\Generated_Source\PSoC5/CapSense_CSD_TunerHelper.c ****         #if ( (CapSense_CSD_TOTAL_RADIAL_SLIDERS_COUNT) || (CapSense_CSD_TOTAL_TOUCH_PADS_COUNT) ||
 176:.\Generated_Source\PSoC5/CapSense_CSD_TunerHelper.c ****               (CapSense_CSD_TOTAL_MATRIX_BUTTONS_COUNT) )
 177:.\Generated_Source\PSoC5/CapSense_CSD_TunerHelper.c ****             uint8 widgetCnt;
 178:.\Generated_Source\PSoC5/CapSense_CSD_TunerHelper.c ****         #endif  /* ((CapSense_CSD_TOTAL_RADIAL_SLIDERS_COUNT) || (CapSense_CSD_TOTAL_TOUCH_PADS_COU
 179:.\Generated_Source\PSoC5/CapSense_CSD_TunerHelper.c ****                 *   (CapSense_CSD_TOTAL_MATRIX_BUTTONS_COUNT)
 180:.\Generated_Source\PSoC5/CapSense_CSD_TunerHelper.c ****                 */
 181:.\Generated_Source\PSoC5/CapSense_CSD_TunerHelper.c ****         
 182:.\Generated_Source\PSoC5/CapSense_CSD_TunerHelper.c ****         /* Calculate widget with centroids */
 183:.\Generated_Source\PSoC5/CapSense_CSD_TunerHelper.c ****         #if (CapSense_CSD_TOTAL_LINEAR_SLIDERS_COUNT)
 184:.\Generated_Source\PSoC5/CapSense_CSD_TunerHelper.c ****             for(; i < CapSense_CSD_TOTAL_LINEAR_SLIDERS_COUNT; i++)
 170              		.loc 1 184 0
 171 000c 19E0     		b	.L10
 172              	.L11:
 185:.\Generated_Source\PSoC5/CapSense_CSD_TunerHelper.c ****             {
 186:.\Generated_Source\PSoC5/CapSense_CSD_TunerHelper.c ****                 outbox->position[i] = CapSense_CSD_SWAP_ENDIAN16(CapSense_CSD_GetCentroidPos(i));
 173              		.loc 1 186 0 discriminator 2
 174 000e FC7B     		ldrb	r4, [r7, #15]	@ zero_extendqisi2
 175 0010 FB7B     		ldrb	r3, [r7, #15]	@ zero_extendqisi2
 176 0012 1846     		mov	r0, r3
 177 0014 FFF7FEFF 		bl	CapSense_CSD_GetCentroidPos
 178 0018 0346     		mov	r3, r0
 179 001a 1B02     		lsls	r3, r3, #8
 180 001c 9DB2     		uxth	r5, r3
 181 001e FB7B     		ldrb	r3, [r7, #15]	@ zero_extendqisi2
 182 0020 1846     		mov	r0, r3
 183 0022 FFF7FEFF 		bl	CapSense_CSD_GetCentroidPos
 184 0026 0346     		mov	r3, r0
 185 0028 1B0A     		lsrs	r3, r3, #8
 186 002a 9BB2     		uxth	r3, r3
 187 002c 9BB2     		uxth	r3, r3
 188 002e 2A46     		mov	r2, r5	@ movhi
 189 0030 1343     		orrs	r3, r3, r2
 190 0032 9BB2     		uxth	r3, r3
 191 0034 9AB2     		uxth	r2, r3
 192 0036 7B68     		ldr	r3, [r7, #4]
 193 0038 23F81420 		strh	r2, [r3, r4, lsl #1]	@ unaligned
 184:.\Generated_Source\PSoC5/CapSense_CSD_TunerHelper.c ****             {
 194              		.loc 1 184 0 discriminator 2
 195 003c FB7B     		ldrb	r3, [r7, #15]	@ zero_extendqisi2
 196 003e 0133     		adds	r3, r3, #1
 197 0040 FB73     		strb	r3, [r7, #15]
 198              	.L10:
 184:.\Generated_Source\PSoC5/CapSense_CSD_TunerHelper.c ****             {
 199              		.loc 1 184 0 is_stmt 0 discriminator 1
 200 0042 FB7B     		ldrb	r3, [r7, #15]	@ zero_extendqisi2
 201 0044 002B     		cmp	r3, #0
 202 0046 E2D0     		beq	.L11
 187:.\Generated_Source\PSoC5/CapSense_CSD_TunerHelper.c ****             }
 188:.\Generated_Source\PSoC5/CapSense_CSD_TunerHelper.c ****         #endif /* (CapSense_CSD_TOTAL_LINEAR_SLIDERS_COUNT) */
 189:.\Generated_Source\PSoC5/CapSense_CSD_TunerHelper.c ****         
 190:.\Generated_Source\PSoC5/CapSense_CSD_TunerHelper.c ****         #if (CapSense_CSD_TOTAL_RADIAL_SLIDERS_COUNT)
 191:.\Generated_Source\PSoC5/CapSense_CSD_TunerHelper.c ****             widgetCnt = i;
 192:.\Generated_Source\PSoC5/CapSense_CSD_TunerHelper.c ****             for(; i < (widgetCnt + CapSense_CSD_TOTAL_RADIAL_SLIDERS_COUNT); i++)
 193:.\Generated_Source\PSoC5/CapSense_CSD_TunerHelper.c ****             {
 194:.\Generated_Source\PSoC5/CapSense_CSD_TunerHelper.c ****                 outbox->position[i] = CapSense_CSD_SWAP_ENDIAN16(CapSense_CSD_GetRadialCentroidPos(
ARM GAS  C:\Users\LUKASC~1\AppData\Local\Temp\cc8hNEP4.s 			page 8


 195:.\Generated_Source\PSoC5/CapSense_CSD_TunerHelper.c ****             }
 196:.\Generated_Source\PSoC5/CapSense_CSD_TunerHelper.c ****         #endif /* (CapSense_CSD_TOTAL_RADIAL_SLIDERS_COUNT) */
 197:.\Generated_Source\PSoC5/CapSense_CSD_TunerHelper.c ****         
 198:.\Generated_Source\PSoC5/CapSense_CSD_TunerHelper.c ****         #if (CapSense_CSD_TOTAL_TOUCH_PADS_COUNT)
 199:.\Generated_Source\PSoC5/CapSense_CSD_TunerHelper.c ****             widgetCnt = i;
 200:.\Generated_Source\PSoC5/CapSense_CSD_TunerHelper.c ****             for(; i < (widgetCnt + (CapSense_CSD_TOTAL_TOUCH_PADS_COUNT * 2u)); i = (i+2u))
 201:.\Generated_Source\PSoC5/CapSense_CSD_TunerHelper.c ****             {
 202:.\Generated_Source\PSoC5/CapSense_CSD_TunerHelper.c ****                 if(CapSense_CSD_GetTouchCentroidPos(i, pos) == 0u)
 203:.\Generated_Source\PSoC5/CapSense_CSD_TunerHelper.c ****                 {
 204:.\Generated_Source\PSoC5/CapSense_CSD_TunerHelper.c ****                     outbox->position[i] = 0xFFFFu;
 205:.\Generated_Source\PSoC5/CapSense_CSD_TunerHelper.c ****                     outbox->position[i+1u] = 0xFFFFu;
 206:.\Generated_Source\PSoC5/CapSense_CSD_TunerHelper.c ****                 }
 207:.\Generated_Source\PSoC5/CapSense_CSD_TunerHelper.c ****                 else
 208:.\Generated_Source\PSoC5/CapSense_CSD_TunerHelper.c ****                 {
 209:.\Generated_Source\PSoC5/CapSense_CSD_TunerHelper.c ****                     outbox->position[i] = CapSense_CSD_SWAP_ENDIAN16( (uint16) pos[0u]);
 210:.\Generated_Source\PSoC5/CapSense_CSD_TunerHelper.c ****                     outbox->position[i+1u] = CapSense_CSD_SWAP_ENDIAN16( (uint16) pos[1u]);
 211:.\Generated_Source\PSoC5/CapSense_CSD_TunerHelper.c ****                 }
 212:.\Generated_Source\PSoC5/CapSense_CSD_TunerHelper.c ****             }
 213:.\Generated_Source\PSoC5/CapSense_CSD_TunerHelper.c ****         #endif /* (CapSense_CSD_TOTAL_TOUCH_PADS_COUNT) */
 214:.\Generated_Source\PSoC5/CapSense_CSD_TunerHelper.c **** 
 215:.\Generated_Source\PSoC5/CapSense_CSD_TunerHelper.c ****         #if (CapSense_CSD_TOTAL_MATRIX_BUTTONS_COUNT)
 216:.\Generated_Source\PSoC5/CapSense_CSD_TunerHelper.c ****             i += CapSense_CSD_TOTAL_BUTTONS_COUNT;
 217:.\Generated_Source\PSoC5/CapSense_CSD_TunerHelper.c ****             widgetCnt = 0u;
 218:.\Generated_Source\PSoC5/CapSense_CSD_TunerHelper.c ****             for(; widgetCnt < (CapSense_CSD_TOTAL_MATRIX_BUTTONS_COUNT * 2u); widgetCnt += 2u)
 219:.\Generated_Source\PSoC5/CapSense_CSD_TunerHelper.c ****             {
 220:.\Generated_Source\PSoC5/CapSense_CSD_TunerHelper.c ****                 mbPositionAddr = &outbox->mbPosition[widgetCnt];
 221:.\Generated_Source\PSoC5/CapSense_CSD_TunerHelper.c ****                 if(CapSense_CSD_GetMatrixButtonPos(i, ((uint8*) mbPositionAddr)) == 0u)
 222:.\Generated_Source\PSoC5/CapSense_CSD_TunerHelper.c ****                 {
 223:.\Generated_Source\PSoC5/CapSense_CSD_TunerHelper.c ****                     outbox->mbPosition[widgetCnt] = 0xFFu;
 224:.\Generated_Source\PSoC5/CapSense_CSD_TunerHelper.c ****                     outbox->mbPosition[widgetCnt+1u] = 0xFFu;
 225:.\Generated_Source\PSoC5/CapSense_CSD_TunerHelper.c ****                 }
 226:.\Generated_Source\PSoC5/CapSense_CSD_TunerHelper.c ****                 i += 2u;
 227:.\Generated_Source\PSoC5/CapSense_CSD_TunerHelper.c ****             }
 228:.\Generated_Source\PSoC5/CapSense_CSD_TunerHelper.c ****         #endif /* (CapSense_CSD_TOTAL_MATRIX_BUTTONS_COUNT) */
 229:.\Generated_Source\PSoC5/CapSense_CSD_TunerHelper.c **** 
 230:.\Generated_Source\PSoC5/CapSense_CSD_TunerHelper.c ****         /* Update On/Off State */
 231:.\Generated_Source\PSoC5/CapSense_CSD_TunerHelper.c ****         (void)CapSense_CSD_CheckIsAnyWidgetActive();
 203              		.loc 1 231 0 is_stmt 1
 204 0048 FFF7FEFF 		bl	CapSense_CSD_CheckIsAnyWidgetActive
 232:.\Generated_Source\PSoC5/CapSense_CSD_TunerHelper.c **** 
 233:.\Generated_Source\PSoC5/CapSense_CSD_TunerHelper.c ****         /* Copy OnMask */
 234:.\Generated_Source\PSoC5/CapSense_CSD_TunerHelper.c ****         for(i = 0u; i < CapSense_CSD_TOTAL_SENSOR_MASK_COUNT; i++)
 205              		.loc 1 234 0
 206 004c 0023     		movs	r3, #0
 207 004e FB73     		strb	r3, [r7, #15]
 208 0050 0BE0     		b	.L12
 209              	.L13:
 235:.\Generated_Source\PSoC5/CapSense_CSD_TunerHelper.c ****         {
 236:.\Generated_Source\PSoC5/CapSense_CSD_TunerHelper.c ****             outbox->onMask[i]  = CapSense_CSD_sensorOnMask[i];
 210              		.loc 1 236 0 discriminator 3
 211 0052 FB7B     		ldrb	r3, [r7, #15]	@ zero_extendqisi2
 212 0054 FA7B     		ldrb	r2, [r7, #15]	@ zero_extendqisi2
 213 0056 0849     		ldr	r1, .L14
 214 0058 895C     		ldrb	r1, [r1, r2]	@ zero_extendqisi2
 215 005a 7A68     		ldr	r2, [r7, #4]
 216 005c 1344     		add	r3, r3, r2
 217 005e 0A46     		mov	r2, r1
ARM GAS  C:\Users\LUKASC~1\AppData\Local\Temp\cc8hNEP4.s 			page 9


 218 0060 83F82C20 		strb	r2, [r3, #44]
 234:.\Generated_Source\PSoC5/CapSense_CSD_TunerHelper.c ****         {
 219              		.loc 1 234 0 discriminator 3
 220 0064 FB7B     		ldrb	r3, [r7, #15]	@ zero_extendqisi2
 221 0066 0133     		adds	r3, r3, #1
 222 0068 FB73     		strb	r3, [r7, #15]
 223              	.L12:
 234:.\Generated_Source\PSoC5/CapSense_CSD_TunerHelper.c ****         {
 224              		.loc 1 234 0 is_stmt 0 discriminator 1
 225 006a FB7B     		ldrb	r3, [r7, #15]	@ zero_extendqisi2
 226 006c 002B     		cmp	r3, #0
 227 006e F0D0     		beq	.L13
 237:.\Generated_Source\PSoC5/CapSense_CSD_TunerHelper.c ****         }
 238:.\Generated_Source\PSoC5/CapSense_CSD_TunerHelper.c ****     }
 228              		.loc 1 238 0 is_stmt 1
 229 0070 1037     		adds	r7, r7, #16
 230              		.cfi_def_cfa_offset 16
 231 0072 BD46     		mov	sp, r7
 232              		.cfi_def_cfa_register 13
 233              		@ sp needed
 234 0074 B0BD     		pop	{r4, r5, r7, pc}
 235              	.L15:
 236 0076 00BF     		.align	2
 237              	.L14:
 238 0078 00000000 		.word	CapSense_CSD_sensorOnMask
 239              		.cfi_endproc
 240              	.LFE2:
 241              		.size	CapSense_CSD_ProcessAllWidgets, .-CapSense_CSD_ProcessAllWidgets
 242              		.text
 243              	.Letext0:
 244              		.file 2 ".\\Generated_Source\\PSoC5\\cytypes.h"
 245              		.file 3 ".\\Generated_Source\\PSoC5\\CapSense_CSD_MBX.h"
 246              		.file 4 ".\\Generated_Source\\PSoC5\\CapSense_CSD_CSHL.h"