ARM GAS  C:\Users\LUKASC~1\AppData\Local\Temp\ccEGG6Um.s 			page 1


   1              		.syntax unified
   2              		.cpu cortex-m3
   3              		.fpu softvfp
   4              		.eabi_attribute 20, 1
   5              		.eabi_attribute 21, 1
   6              		.eabi_attribute 23, 3
   7              		.eabi_attribute 24, 1
   8              		.eabi_attribute 25, 1
   9              		.eabi_attribute 26, 1
  10              		.eabi_attribute 30, 6
  11              		.eabi_attribute 34, 1
  12              		.eabi_attribute 18, 4
  13              		.thumb
  14              		.file	"I2C_S_SLAVE.c"
  15              		.text
  16              	.Ltext0:
  17              		.cfi_sections	.debug_frame
  18              		.comm	I2C_S_slStatus,1,1
  19              		.comm	I2C_S_slRdBufPtr,4,4
  20              		.comm	I2C_S_slRdBufSize,1,1
  21              		.comm	I2C_S_slRdBufIndex,1,1
  22              		.comm	I2C_S_slWrBufPtr,4,4
  23              		.comm	I2C_S_slWrBufSize,1,1
  24              		.comm	I2C_S_slWrBufIndex,1,1
  25              		.section	.text.I2C_S_SlaveStatus,"ax",%progbits
  26              		.align	2
  27              		.global	I2C_S_SlaveStatus
  28              		.thumb
  29              		.thumb_func
  30              		.type	I2C_S_SlaveStatus, %function
  31              	I2C_S_SlaveStatus:
  32              	.LFB0:
  33              		.file 1 ".\\Generated_Source\\PSoC5\\I2C_S_SLAVE.c"
   1:.\Generated_Source\PSoC5/I2C_S_SLAVE.c **** /*******************************************************************************
   2:.\Generated_Source\PSoC5/I2C_S_SLAVE.c **** * File Name: I2C_S_SLAVE.c
   3:.\Generated_Source\PSoC5/I2C_S_SLAVE.c **** * Version 3.50
   4:.\Generated_Source\PSoC5/I2C_S_SLAVE.c **** *
   5:.\Generated_Source\PSoC5/I2C_S_SLAVE.c **** * Description:
   6:.\Generated_Source\PSoC5/I2C_S_SLAVE.c **** *  This file provides the source code of APIs for the I2C component Slave mode.
   7:.\Generated_Source\PSoC5/I2C_S_SLAVE.c **** *
   8:.\Generated_Source\PSoC5/I2C_S_SLAVE.c **** * Note:
   9:.\Generated_Source\PSoC5/I2C_S_SLAVE.c **** *
  10:.\Generated_Source\PSoC5/I2C_S_SLAVE.c **** *******************************************************************************
  11:.\Generated_Source\PSoC5/I2C_S_SLAVE.c **** * Copyright 2012-2015, Cypress Semiconductor Corporation. All rights reserved.
  12:.\Generated_Source\PSoC5/I2C_S_SLAVE.c **** * You may use this file only in accordance with the license, terms, conditions,
  13:.\Generated_Source\PSoC5/I2C_S_SLAVE.c **** * disclaimers, and limitations in the end user license agreement accompanying
  14:.\Generated_Source\PSoC5/I2C_S_SLAVE.c **** * the software package with which this file was provided.
  15:.\Generated_Source\PSoC5/I2C_S_SLAVE.c **** *******************************************************************************/
  16:.\Generated_Source\PSoC5/I2C_S_SLAVE.c **** 
  17:.\Generated_Source\PSoC5/I2C_S_SLAVE.c **** #include "I2C_S_PVT.h"
  18:.\Generated_Source\PSoC5/I2C_S_SLAVE.c **** 
  19:.\Generated_Source\PSoC5/I2C_S_SLAVE.c **** #if (I2C_S_MODE_SLAVE_ENABLED)
  20:.\Generated_Source\PSoC5/I2C_S_SLAVE.c **** 
  21:.\Generated_Source\PSoC5/I2C_S_SLAVE.c **** /**********************************
  22:.\Generated_Source\PSoC5/I2C_S_SLAVE.c **** *      System variables
  23:.\Generated_Source\PSoC5/I2C_S_SLAVE.c **** **********************************/
  24:.\Generated_Source\PSoC5/I2C_S_SLAVE.c **** 
ARM GAS  C:\Users\LUKASC~1\AppData\Local\Temp\ccEGG6Um.s 			page 2


  25:.\Generated_Source\PSoC5/I2C_S_SLAVE.c **** volatile uint8 I2C_S_slStatus;   /* Slave Status  */
  26:.\Generated_Source\PSoC5/I2C_S_SLAVE.c **** 
  27:.\Generated_Source\PSoC5/I2C_S_SLAVE.c **** /* Transmit buffer variables */
  28:.\Generated_Source\PSoC5/I2C_S_SLAVE.c **** volatile uint8 * I2C_S_slRdBufPtr;   /* Pointer to Transmit buffer  */
  29:.\Generated_Source\PSoC5/I2C_S_SLAVE.c **** volatile uint8   I2C_S_slRdBufSize;  /* Slave Transmit buffer size  */
  30:.\Generated_Source\PSoC5/I2C_S_SLAVE.c **** volatile uint8   I2C_S_slRdBufIndex; /* Slave Transmit buffer Index */
  31:.\Generated_Source\PSoC5/I2C_S_SLAVE.c **** 
  32:.\Generated_Source\PSoC5/I2C_S_SLAVE.c **** /* Receive buffer variables */
  33:.\Generated_Source\PSoC5/I2C_S_SLAVE.c **** volatile uint8 * I2C_S_slWrBufPtr;   /* Pointer to Receive buffer  */
  34:.\Generated_Source\PSoC5/I2C_S_SLAVE.c **** volatile uint8   I2C_S_slWrBufSize;  /* Slave Receive buffer size  */
  35:.\Generated_Source\PSoC5/I2C_S_SLAVE.c **** volatile uint8   I2C_S_slWrBufIndex; /* Slave Receive buffer Index */
  36:.\Generated_Source\PSoC5/I2C_S_SLAVE.c **** 
  37:.\Generated_Source\PSoC5/I2C_S_SLAVE.c **** #if (I2C_S_SW_ADRR_DECODE)
  38:.\Generated_Source\PSoC5/I2C_S_SLAVE.c ****     volatile uint8 I2C_S_slAddress;  /* Software address variable */
  39:.\Generated_Source\PSoC5/I2C_S_SLAVE.c **** #endif /* (I2C_S_SW_ADRR_DECODE) */
  40:.\Generated_Source\PSoC5/I2C_S_SLAVE.c **** 
  41:.\Generated_Source\PSoC5/I2C_S_SLAVE.c **** 
  42:.\Generated_Source\PSoC5/I2C_S_SLAVE.c **** /*******************************************************************************
  43:.\Generated_Source\PSoC5/I2C_S_SLAVE.c **** * Function Name: I2C_S_SlaveStatus
  44:.\Generated_Source\PSoC5/I2C_S_SLAVE.c **** ********************************************************************************
  45:.\Generated_Source\PSoC5/I2C_S_SLAVE.c **** *
  46:.\Generated_Source\PSoC5/I2C_S_SLAVE.c **** * Summary:
  47:.\Generated_Source\PSoC5/I2C_S_SLAVE.c **** *  Returns I2C slave's communication status.
  48:.\Generated_Source\PSoC5/I2C_S_SLAVE.c **** *
  49:.\Generated_Source\PSoC5/I2C_S_SLAVE.c **** * Parameters:
  50:.\Generated_Source\PSoC5/I2C_S_SLAVE.c **** *  None.
  51:.\Generated_Source\PSoC5/I2C_S_SLAVE.c **** *
  52:.\Generated_Source\PSoC5/I2C_S_SLAVE.c **** * Return:
  53:.\Generated_Source\PSoC5/I2C_S_SLAVE.c **** *  Current status of I2C slave.
  54:.\Generated_Source\PSoC5/I2C_S_SLAVE.c **** *
  55:.\Generated_Source\PSoC5/I2C_S_SLAVE.c **** * Global variables:
  56:.\Generated_Source\PSoC5/I2C_S_SLAVE.c **** *  I2C_S_slStatus - The global variable used to store a current
  57:.\Generated_Source\PSoC5/I2C_S_SLAVE.c **** *                              status of the I2C slave.
  58:.\Generated_Source\PSoC5/I2C_S_SLAVE.c **** *
  59:.\Generated_Source\PSoC5/I2C_S_SLAVE.c **** *******************************************************************************/
  60:.\Generated_Source\PSoC5/I2C_S_SLAVE.c **** uint8 I2C_S_SlaveStatus(void) 
  61:.\Generated_Source\PSoC5/I2C_S_SLAVE.c **** {
  34              		.loc 1 61 0
  35              		.cfi_startproc
  36              		@ args = 0, pretend = 0, frame = 0
  37              		@ frame_needed = 1, uses_anonymous_args = 0
  38              		@ link register save eliminated.
  39 0000 80B4     		push	{r7}
  40              		.cfi_def_cfa_offset 4
  41              		.cfi_offset 7, -4
  42 0002 00AF     		add	r7, sp, #0
  43              		.cfi_def_cfa_register 7
  62:.\Generated_Source\PSoC5/I2C_S_SLAVE.c ****     return (I2C_S_slStatus);
  44              		.loc 1 62 0
  45 0004 034B     		ldr	r3, .L3
  46 0006 1B78     		ldrb	r3, [r3]
  47 0008 DBB2     		uxtb	r3, r3
  63:.\Generated_Source\PSoC5/I2C_S_SLAVE.c **** }
  48              		.loc 1 63 0
  49 000a 1846     		mov	r0, r3
  50 000c BD46     		mov	sp, r7
  51              		.cfi_def_cfa_register 13
ARM GAS  C:\Users\LUKASC~1\AppData\Local\Temp\ccEGG6Um.s 			page 3


  52              		@ sp needed
  53 000e 5DF8047B 		ldr	r7, [sp], #4
  54              		.cfi_restore 7
  55              		.cfi_def_cfa_offset 0
  56 0012 7047     		bx	lr
  57              	.L4:
  58              		.align	2
  59              	.L3:
  60 0014 00000000 		.word	I2C_S_slStatus
  61              		.cfi_endproc
  62              	.LFE0:
  63              		.size	I2C_S_SlaveStatus, .-I2C_S_SlaveStatus
  64              		.section	.text.I2C_S_SlaveClearReadStatus,"ax",%progbits
  65              		.align	2
  66              		.global	I2C_S_SlaveClearReadStatus
  67              		.thumb
  68              		.thumb_func
  69              		.type	I2C_S_SlaveClearReadStatus, %function
  70              	I2C_S_SlaveClearReadStatus:
  71              	.LFB1:
  64:.\Generated_Source\PSoC5/I2C_S_SLAVE.c **** 
  65:.\Generated_Source\PSoC5/I2C_S_SLAVE.c **** 
  66:.\Generated_Source\PSoC5/I2C_S_SLAVE.c **** /*******************************************************************************
  67:.\Generated_Source\PSoC5/I2C_S_SLAVE.c **** * Function Name: I2C_S_SlaveClearReadStatus
  68:.\Generated_Source\PSoC5/I2C_S_SLAVE.c **** ********************************************************************************
  69:.\Generated_Source\PSoC5/I2C_S_SLAVE.c **** *
  70:.\Generated_Source\PSoC5/I2C_S_SLAVE.c **** * Summary:
  71:.\Generated_Source\PSoC5/I2C_S_SLAVE.c **** *  Clears the read status flags and returns they values.
  72:.\Generated_Source\PSoC5/I2C_S_SLAVE.c **** *  The I2C_S_SSTAT_RD_BUSY flag is not effected by clear.
  73:.\Generated_Source\PSoC5/I2C_S_SLAVE.c **** *
  74:.\Generated_Source\PSoC5/I2C_S_SLAVE.c **** * Parameters:
  75:.\Generated_Source\PSoC5/I2C_S_SLAVE.c **** *  None.
  76:.\Generated_Source\PSoC5/I2C_S_SLAVE.c **** *
  77:.\Generated_Source\PSoC5/I2C_S_SLAVE.c **** * Return:
  78:.\Generated_Source\PSoC5/I2C_S_SLAVE.c **** *  Current read status of I2C slave.
  79:.\Generated_Source\PSoC5/I2C_S_SLAVE.c **** *
  80:.\Generated_Source\PSoC5/I2C_S_SLAVE.c **** * Global variables:
  81:.\Generated_Source\PSoC5/I2C_S_SLAVE.c **** *  I2C_S_slStatus - The global variable used to store a current
  82:.\Generated_Source\PSoC5/I2C_S_SLAVE.c **** *                              status of the I2C slave.
  83:.\Generated_Source\PSoC5/I2C_S_SLAVE.c **** *
  84:.\Generated_Source\PSoC5/I2C_S_SLAVE.c **** * Reentrant:
  85:.\Generated_Source\PSoC5/I2C_S_SLAVE.c **** *  No.
  86:.\Generated_Source\PSoC5/I2C_S_SLAVE.c **** *
  87:.\Generated_Source\PSoC5/I2C_S_SLAVE.c **** *******************************************************************************/
  88:.\Generated_Source\PSoC5/I2C_S_SLAVE.c **** uint8 I2C_S_SlaveClearReadStatus(void) 
  89:.\Generated_Source\PSoC5/I2C_S_SLAVE.c **** {
  72              		.loc 1 89 0
  73              		.cfi_startproc
  74              		@ args = 0, pretend = 0, frame = 8
  75              		@ frame_needed = 1, uses_anonymous_args = 0
  76              		@ link register save eliminated.
  77 0000 80B4     		push	{r7}
  78              		.cfi_def_cfa_offset 4
  79              		.cfi_offset 7, -4
  80 0002 83B0     		sub	sp, sp, #12
  81              		.cfi_def_cfa_offset 16
  82 0004 00AF     		add	r7, sp, #0
ARM GAS  C:\Users\LUKASC~1\AppData\Local\Temp\ccEGG6Um.s 			page 4


  83              		.cfi_def_cfa_register 7
  90:.\Generated_Source\PSoC5/I2C_S_SLAVE.c ****     uint8 status;
  91:.\Generated_Source\PSoC5/I2C_S_SLAVE.c **** 
  92:.\Generated_Source\PSoC5/I2C_S_SLAVE.c ****     I2C_S_DisableInt(); /* Lock from interrupt */
  84              		.loc 1 92 0
  85 0006 0E4B     		ldr	r3, .L7
  86 0008 4FF40042 		mov	r2, #32768
  87 000c 1A60     		str	r2, [r3]
  93:.\Generated_Source\PSoC5/I2C_S_SLAVE.c **** 
  94:.\Generated_Source\PSoC5/I2C_S_SLAVE.c ****     /* Mask of transfer complete flag and Error status */
  95:.\Generated_Source\PSoC5/I2C_S_SLAVE.c ****     status = (I2C_S_slStatus & I2C_S_SSTAT_RD_MASK);
  88              		.loc 1 95 0
  89 000e 0D4B     		ldr	r3, .L7+4
  90 0010 1B78     		ldrb	r3, [r3]
  91 0012 DBB2     		uxtb	r3, r3
  92 0014 03F00F03 		and	r3, r3, #15
  93 0018 FB71     		strb	r3, [r7, #7]
  96:.\Generated_Source\PSoC5/I2C_S_SLAVE.c ****     I2C_S_slStatus &= (uint8) ~I2C_S_SSTAT_RD_CLEAR;
  94              		.loc 1 96 0
  95 001a 0A4B     		ldr	r3, .L7+4
  96 001c 1B78     		ldrb	r3, [r3]
  97 001e DBB2     		uxtb	r3, r3
  98 0020 23F00D03 		bic	r3, r3, #13
  99 0024 DAB2     		uxtb	r2, r3
 100 0026 074B     		ldr	r3, .L7+4
 101 0028 1A70     		strb	r2, [r3]
  97:.\Generated_Source\PSoC5/I2C_S_SLAVE.c **** 
  98:.\Generated_Source\PSoC5/I2C_S_SLAVE.c ****     I2C_S_EnableInt(); /* Release lock */
 102              		.loc 1 98 0
 103 002a 074B     		ldr	r3, .L7+8
 104 002c 4FF40042 		mov	r2, #32768
 105 0030 1A60     		str	r2, [r3]
  99:.\Generated_Source\PSoC5/I2C_S_SLAVE.c **** 
 100:.\Generated_Source\PSoC5/I2C_S_SLAVE.c ****     return (status);
 106              		.loc 1 100 0
 107 0032 FB79     		ldrb	r3, [r7, #7]	@ zero_extendqisi2
 101:.\Generated_Source\PSoC5/I2C_S_SLAVE.c **** }
 108              		.loc 1 101 0
 109 0034 1846     		mov	r0, r3
 110 0036 0C37     		adds	r7, r7, #12
 111              		.cfi_def_cfa_offset 4
 112 0038 BD46     		mov	sp, r7
 113              		.cfi_def_cfa_register 13
 114              		@ sp needed
 115 003a 5DF8047B 		ldr	r7, [sp], #4
 116              		.cfi_restore 7
 117              		.cfi_def_cfa_offset 0
 118 003e 7047     		bx	lr
 119              	.L8:
 120              		.align	2
 121              	.L7:
 122 0040 80E100E0 		.word	-536813184
 123 0044 00000000 		.word	I2C_S_slStatus
 124 0048 00E100E0 		.word	-536813312
 125              		.cfi_endproc
 126              	.LFE1:
 127              		.size	I2C_S_SlaveClearReadStatus, .-I2C_S_SlaveClearReadStatus
ARM GAS  C:\Users\LUKASC~1\AppData\Local\Temp\ccEGG6Um.s 			page 5


 128              		.section	.text.I2C_S_SlaveClearWriteStatus,"ax",%progbits
 129              		.align	2
 130              		.global	I2C_S_SlaveClearWriteStatus
 131              		.thumb
 132              		.thumb_func
 133              		.type	I2C_S_SlaveClearWriteStatus, %function
 134              	I2C_S_SlaveClearWriteStatus:
 135              	.LFB2:
 102:.\Generated_Source\PSoC5/I2C_S_SLAVE.c **** 
 103:.\Generated_Source\PSoC5/I2C_S_SLAVE.c **** 
 104:.\Generated_Source\PSoC5/I2C_S_SLAVE.c **** /*******************************************************************************
 105:.\Generated_Source\PSoC5/I2C_S_SLAVE.c **** * Function Name: I2C_S_SlaveClearWriteStatus
 106:.\Generated_Source\PSoC5/I2C_S_SLAVE.c **** ********************************************************************************
 107:.\Generated_Source\PSoC5/I2C_S_SLAVE.c **** *
 108:.\Generated_Source\PSoC5/I2C_S_SLAVE.c **** * Summary:
 109:.\Generated_Source\PSoC5/I2C_S_SLAVE.c **** *  Clears the write status flags and returns they values.
 110:.\Generated_Source\PSoC5/I2C_S_SLAVE.c **** *  The I2C_S_SSTAT_WR_BUSY flag is not effected by clear.
 111:.\Generated_Source\PSoC5/I2C_S_SLAVE.c **** *
 112:.\Generated_Source\PSoC5/I2C_S_SLAVE.c **** * Parameters:
 113:.\Generated_Source\PSoC5/I2C_S_SLAVE.c **** *  None.
 114:.\Generated_Source\PSoC5/I2C_S_SLAVE.c **** *
 115:.\Generated_Source\PSoC5/I2C_S_SLAVE.c **** * Return:
 116:.\Generated_Source\PSoC5/I2C_S_SLAVE.c **** *  Current write status of I2C slave.
 117:.\Generated_Source\PSoC5/I2C_S_SLAVE.c **** *
 118:.\Generated_Source\PSoC5/I2C_S_SLAVE.c **** * Global variables:
 119:.\Generated_Source\PSoC5/I2C_S_SLAVE.c **** *  I2C_S_slStatus - The global variable used to store a current
 120:.\Generated_Source\PSoC5/I2C_S_SLAVE.c **** *                              status of the I2C slave.
 121:.\Generated_Source\PSoC5/I2C_S_SLAVE.c **** *
 122:.\Generated_Source\PSoC5/I2C_S_SLAVE.c **** * Reentrant:
 123:.\Generated_Source\PSoC5/I2C_S_SLAVE.c **** *  No.
 124:.\Generated_Source\PSoC5/I2C_S_SLAVE.c **** *
 125:.\Generated_Source\PSoC5/I2C_S_SLAVE.c **** *******************************************************************************/
 126:.\Generated_Source\PSoC5/I2C_S_SLAVE.c **** uint8 I2C_S_SlaveClearWriteStatus(void) 
 127:.\Generated_Source\PSoC5/I2C_S_SLAVE.c **** {
 136              		.loc 1 127 0
 137              		.cfi_startproc
 138              		@ args = 0, pretend = 0, frame = 8
 139              		@ frame_needed = 1, uses_anonymous_args = 0
 140              		@ link register save eliminated.
 141 0000 80B4     		push	{r7}
 142              		.cfi_def_cfa_offset 4
 143              		.cfi_offset 7, -4
 144 0002 83B0     		sub	sp, sp, #12
 145              		.cfi_def_cfa_offset 16
 146 0004 00AF     		add	r7, sp, #0
 147              		.cfi_def_cfa_register 7
 128:.\Generated_Source\PSoC5/I2C_S_SLAVE.c ****     uint8 status;
 129:.\Generated_Source\PSoC5/I2C_S_SLAVE.c **** 
 130:.\Generated_Source\PSoC5/I2C_S_SLAVE.c ****     I2C_S_DisableInt(); /* Lock from interrupt */
 148              		.loc 1 130 0
 149 0006 0E4B     		ldr	r3, .L11
 150 0008 4FF40042 		mov	r2, #32768
 151 000c 1A60     		str	r2, [r3]
 131:.\Generated_Source\PSoC5/I2C_S_SLAVE.c **** 
 132:.\Generated_Source\PSoC5/I2C_S_SLAVE.c ****     /* Mask of transfer complete flag and Error status */
 133:.\Generated_Source\PSoC5/I2C_S_SLAVE.c ****     status = (I2C_S_slStatus & I2C_S_SSTAT_WR_MASK);
 152              		.loc 1 133 0
ARM GAS  C:\Users\LUKASC~1\AppData\Local\Temp\ccEGG6Um.s 			page 6


 153 000e 0D4B     		ldr	r3, .L11+4
 154 0010 1B78     		ldrb	r3, [r3]
 155 0012 DBB2     		uxtb	r3, r3
 156 0014 23F00F03 		bic	r3, r3, #15
 157 0018 FB71     		strb	r3, [r7, #7]
 134:.\Generated_Source\PSoC5/I2C_S_SLAVE.c ****     I2C_S_slStatus &= (uint8) ~I2C_S_SSTAT_WR_CLEAR;
 158              		.loc 1 134 0
 159 001a 0A4B     		ldr	r3, .L11+4
 160 001c 1B78     		ldrb	r3, [r3]
 161 001e DBB2     		uxtb	r3, r3
 162 0020 03F02F03 		and	r3, r3, #47
 163 0024 DAB2     		uxtb	r2, r3
 164 0026 074B     		ldr	r3, .L11+4
 165 0028 1A70     		strb	r2, [r3]
 135:.\Generated_Source\PSoC5/I2C_S_SLAVE.c **** 
 136:.\Generated_Source\PSoC5/I2C_S_SLAVE.c ****     I2C_S_EnableInt(); /* Release lock */
 166              		.loc 1 136 0
 167 002a 074B     		ldr	r3, .L11+8
 168 002c 4FF40042 		mov	r2, #32768
 169 0030 1A60     		str	r2, [r3]
 137:.\Generated_Source\PSoC5/I2C_S_SLAVE.c **** 
 138:.\Generated_Source\PSoC5/I2C_S_SLAVE.c ****     return (status);
 170              		.loc 1 138 0
 171 0032 FB79     		ldrb	r3, [r7, #7]	@ zero_extendqisi2
 139:.\Generated_Source\PSoC5/I2C_S_SLAVE.c **** }
 172              		.loc 1 139 0
 173 0034 1846     		mov	r0, r3
 174 0036 0C37     		adds	r7, r7, #12
 175              		.cfi_def_cfa_offset 4
 176 0038 BD46     		mov	sp, r7
 177              		.cfi_def_cfa_register 13
 178              		@ sp needed
 179 003a 5DF8047B 		ldr	r7, [sp], #4
 180              		.cfi_restore 7
 181              		.cfi_def_cfa_offset 0
 182 003e 7047     		bx	lr
 183              	.L12:
 184              		.align	2
 185              	.L11:
 186 0040 80E100E0 		.word	-536813184
 187 0044 00000000 		.word	I2C_S_slStatus
 188 0048 00E100E0 		.word	-536813312
 189              		.cfi_endproc
 190              	.LFE2:
 191              		.size	I2C_S_SlaveClearWriteStatus, .-I2C_S_SlaveClearWriteStatus
 192              		.section	.text.I2C_S_SlaveSetAddress,"ax",%progbits
 193              		.align	2
 194              		.global	I2C_S_SlaveSetAddress
 195              		.thumb
 196              		.thumb_func
 197              		.type	I2C_S_SlaveSetAddress, %function
 198              	I2C_S_SlaveSetAddress:
 199              	.LFB3:
 140:.\Generated_Source\PSoC5/I2C_S_SLAVE.c **** 
 141:.\Generated_Source\PSoC5/I2C_S_SLAVE.c **** 
 142:.\Generated_Source\PSoC5/I2C_S_SLAVE.c **** /*******************************************************************************
 143:.\Generated_Source\PSoC5/I2C_S_SLAVE.c **** * Function Name: I2C_S_SlaveSetAddress
ARM GAS  C:\Users\LUKASC~1\AppData\Local\Temp\ccEGG6Um.s 			page 7


 144:.\Generated_Source\PSoC5/I2C_S_SLAVE.c **** ********************************************************************************
 145:.\Generated_Source\PSoC5/I2C_S_SLAVE.c **** *
 146:.\Generated_Source\PSoC5/I2C_S_SLAVE.c **** * Summary:
 147:.\Generated_Source\PSoC5/I2C_S_SLAVE.c **** *  Sets the I2C slave address.
 148:.\Generated_Source\PSoC5/I2C_S_SLAVE.c **** *
 149:.\Generated_Source\PSoC5/I2C_S_SLAVE.c **** * Parameters:
 150:.\Generated_Source\PSoC5/I2C_S_SLAVE.c **** *  address: I2C slave address for the primary device. This value may be any
 151:.\Generated_Source\PSoC5/I2C_S_SLAVE.c **** *  address between 0 and 127.
 152:.\Generated_Source\PSoC5/I2C_S_SLAVE.c **** *
 153:.\Generated_Source\PSoC5/I2C_S_SLAVE.c **** * Return:
 154:.\Generated_Source\PSoC5/I2C_S_SLAVE.c **** *  None.
 155:.\Generated_Source\PSoC5/I2C_S_SLAVE.c **** *
 156:.\Generated_Source\PSoC5/I2C_S_SLAVE.c **** * Global variables:
 157:.\Generated_Source\PSoC5/I2C_S_SLAVE.c **** *  I2C_S_Address  - The global variable used to store an I2C slave
 158:.\Generated_Source\PSoC5/I2C_S_SLAVE.c **** *                              address for the primary device when the software
 159:.\Generated_Source\PSoC5/I2C_S_SLAVE.c **** *                              address detect feature is used.
 160:.\Generated_Source\PSoC5/I2C_S_SLAVE.c **** *
 161:.\Generated_Source\PSoC5/I2C_S_SLAVE.c **** * Reentrant:
 162:.\Generated_Source\PSoC5/I2C_S_SLAVE.c **** *  No.
 163:.\Generated_Source\PSoC5/I2C_S_SLAVE.c **** *
 164:.\Generated_Source\PSoC5/I2C_S_SLAVE.c **** *******************************************************************************/
 165:.\Generated_Source\PSoC5/I2C_S_SLAVE.c **** void I2C_S_SlaveSetAddress(uint8 address) 
 166:.\Generated_Source\PSoC5/I2C_S_SLAVE.c **** {
 200              		.loc 1 166 0
 201              		.cfi_startproc
 202              		@ args = 0, pretend = 0, frame = 8
 203              		@ frame_needed = 1, uses_anonymous_args = 0
 204              		@ link register save eliminated.
 205 0000 80B4     		push	{r7}
 206              		.cfi_def_cfa_offset 4
 207              		.cfi_offset 7, -4
 208 0002 83B0     		sub	sp, sp, #12
 209              		.cfi_def_cfa_offset 16
 210 0004 00AF     		add	r7, sp, #0
 211              		.cfi_def_cfa_register 7
 212 0006 0346     		mov	r3, r0
 213 0008 FB71     		strb	r3, [r7, #7]
 167:.\Generated_Source\PSoC5/I2C_S_SLAVE.c **** #if (I2C_S_SW_ADRR_DECODE)
 168:.\Generated_Source\PSoC5/I2C_S_SLAVE.c ****     I2C_S_slAddress = (address & I2C_S_SLAVE_ADDR_MASK);
 169:.\Generated_Source\PSoC5/I2C_S_SLAVE.c **** #else
 170:.\Generated_Source\PSoC5/I2C_S_SLAVE.c ****     I2C_S_ADDR_REG  = (address & I2C_S_SLAVE_ADDR_MASK);
 214              		.loc 1 170 0
 215 000a 054A     		ldr	r2, .L14
 216 000c FB79     		ldrb	r3, [r7, #7]
 217 000e 03F07F03 		and	r3, r3, #127
 218 0012 DBB2     		uxtb	r3, r3
 219 0014 1370     		strb	r3, [r2]
 171:.\Generated_Source\PSoC5/I2C_S_SLAVE.c **** #endif /* (I2C_S_SW_ADRR_DECODE) */
 172:.\Generated_Source\PSoC5/I2C_S_SLAVE.c **** }
 220              		.loc 1 172 0
 221 0016 0C37     		adds	r7, r7, #12
 222              		.cfi_def_cfa_offset 4
 223 0018 BD46     		mov	sp, r7
 224              		.cfi_def_cfa_register 13
 225              		@ sp needed
 226 001a 5DF8047B 		ldr	r7, [sp], #4
 227              		.cfi_restore 7
ARM GAS  C:\Users\LUKASC~1\AppData\Local\Temp\ccEGG6Um.s 			page 8


 228              		.cfi_def_cfa_offset 0
 229 001e 7047     		bx	lr
 230              	.L15:
 231              		.align	2
 232              	.L14:
 233 0020 CA490040 		.word	1073760714
 234              		.cfi_endproc
 235              	.LFE3:
 236              		.size	I2C_S_SlaveSetAddress, .-I2C_S_SlaveSetAddress
 237              		.section	.text.I2C_S_SlaveInitReadBuf,"ax",%progbits
 238              		.align	2
 239              		.global	I2C_S_SlaveInitReadBuf
 240              		.thumb
 241              		.thumb_func
 242              		.type	I2C_S_SlaveInitReadBuf, %function
 243              	I2C_S_SlaveInitReadBuf:
 244              	.LFB4:
 173:.\Generated_Source\PSoC5/I2C_S_SLAVE.c **** 
 174:.\Generated_Source\PSoC5/I2C_S_SLAVE.c **** 
 175:.\Generated_Source\PSoC5/I2C_S_SLAVE.c **** /*******************************************************************************
 176:.\Generated_Source\PSoC5/I2C_S_SLAVE.c **** * Function Name: I2C_S_SlaveInitReadBuf
 177:.\Generated_Source\PSoC5/I2C_S_SLAVE.c **** ********************************************************************************
 178:.\Generated_Source\PSoC5/I2C_S_SLAVE.c **** *
 179:.\Generated_Source\PSoC5/I2C_S_SLAVE.c **** * Summary:
 180:.\Generated_Source\PSoC5/I2C_S_SLAVE.c **** *  Sets the buffer pointer and size of the read buffer. This function also
 181:.\Generated_Source\PSoC5/I2C_S_SLAVE.c **** *  resets the transfer count returned with the I2C_SlaveGetReadBufSize function.
 182:.\Generated_Source\PSoC5/I2C_S_SLAVE.c **** *
 183:.\Generated_Source\PSoC5/I2C_S_SLAVE.c **** * Parameters:
 184:.\Generated_Source\PSoC5/I2C_S_SLAVE.c **** *  readBuf:  Pointer to the data buffer to be read by the master.
 185:.\Generated_Source\PSoC5/I2C_S_SLAVE.c **** *  bufSize:  Size of the read buffer exposed to the I2C master.
 186:.\Generated_Source\PSoC5/I2C_S_SLAVE.c **** *
 187:.\Generated_Source\PSoC5/I2C_S_SLAVE.c **** * Return:
 188:.\Generated_Source\PSoC5/I2C_S_SLAVE.c **** *  None.
 189:.\Generated_Source\PSoC5/I2C_S_SLAVE.c **** *
 190:.\Generated_Source\PSoC5/I2C_S_SLAVE.c **** * Global variables:
 191:.\Generated_Source\PSoC5/I2C_S_SLAVE.c **** *  I2C_S_slRdBufPtr   - The global variable used to store a pointer
 192:.\Generated_Source\PSoC5/I2C_S_SLAVE.c **** *                                  to the slave read buffer.
 193:.\Generated_Source\PSoC5/I2C_S_SLAVE.c **** *  I2C_S_slRdBufSize  - The global variable used to store a slave
 194:.\Generated_Source\PSoC5/I2C_S_SLAVE.c **** *                                  read buffer size.
 195:.\Generated_Source\PSoC5/I2C_S_SLAVE.c **** *  I2C_S_slRdBufIndex - The global variable used to store a current
 196:.\Generated_Source\PSoC5/I2C_S_SLAVE.c **** *                                  index within the slave read buffer.
 197:.\Generated_Source\PSoC5/I2C_S_SLAVE.c **** *
 198:.\Generated_Source\PSoC5/I2C_S_SLAVE.c **** * Side Effects:
 199:.\Generated_Source\PSoC5/I2C_S_SLAVE.c **** *  If this function is called during a bus transaction, data from the previous
 200:.\Generated_Source\PSoC5/I2C_S_SLAVE.c **** *  buffer location and the beginning of the current buffer may be transmitted.
 201:.\Generated_Source\PSoC5/I2C_S_SLAVE.c **** *
 202:.\Generated_Source\PSoC5/I2C_S_SLAVE.c **** * Reentrant:
 203:.\Generated_Source\PSoC5/I2C_S_SLAVE.c **** *  No.
 204:.\Generated_Source\PSoC5/I2C_S_SLAVE.c **** *
 205:.\Generated_Source\PSoC5/I2C_S_SLAVE.c **** *******************************************************************************/
 206:.\Generated_Source\PSoC5/I2C_S_SLAVE.c **** void I2C_S_SlaveInitReadBuf(uint8 * rdBuf, uint8 bufSize)
 207:.\Generated_Source\PSoC5/I2C_S_SLAVE.c ****      
 208:.\Generated_Source\PSoC5/I2C_S_SLAVE.c **** {
 245              		.loc 1 208 0
 246              		.cfi_startproc
 247              		@ args = 0, pretend = 0, frame = 8
 248              		@ frame_needed = 1, uses_anonymous_args = 0
ARM GAS  C:\Users\LUKASC~1\AppData\Local\Temp\ccEGG6Um.s 			page 9


 249              		@ link register save eliminated.
 250 0000 80B4     		push	{r7}
 251              		.cfi_def_cfa_offset 4
 252              		.cfi_offset 7, -4
 253 0002 83B0     		sub	sp, sp, #12
 254              		.cfi_def_cfa_offset 16
 255 0004 00AF     		add	r7, sp, #0
 256              		.cfi_def_cfa_register 7
 257 0006 7860     		str	r0, [r7, #4]
 258 0008 0B46     		mov	r3, r1
 259 000a FB70     		strb	r3, [r7, #3]
 209:.\Generated_Source\PSoC5/I2C_S_SLAVE.c ****     if (NULL != rdBuf)
 260              		.loc 1 209 0
 261 000c 7B68     		ldr	r3, [r7, #4]
 262 000e 002B     		cmp	r3, #0
 263 0010 10D0     		beq	.L16
 210:.\Generated_Source\PSoC5/I2C_S_SLAVE.c ****     {
 211:.\Generated_Source\PSoC5/I2C_S_SLAVE.c ****         I2C_S_DisableInt(); /* Lock from interrupt */
 264              		.loc 1 211 0
 265 0012 0B4B     		ldr	r3, .L18
 266 0014 4FF40042 		mov	r2, #32768
 267 0018 1A60     		str	r2, [r3]
 212:.\Generated_Source\PSoC5/I2C_S_SLAVE.c **** 
 213:.\Generated_Source\PSoC5/I2C_S_SLAVE.c ****         /* Set buffer pointer */
 214:.\Generated_Source\PSoC5/I2C_S_SLAVE.c ****         I2C_S_slRdBufPtr   = (volatile uint8 *) rdBuf;
 268              		.loc 1 214 0
 269 001a 0A4A     		ldr	r2, .L18+4
 270 001c 7B68     		ldr	r3, [r7, #4]
 271 001e 1360     		str	r3, [r2]
 215:.\Generated_Source\PSoC5/I2C_S_SLAVE.c ****         I2C_S_slRdBufSize  = bufSize;    /* Set buffer size     */
 272              		.loc 1 215 0
 273 0020 094A     		ldr	r2, .L18+8
 274 0022 FB78     		ldrb	r3, [r7, #3]
 275 0024 1370     		strb	r3, [r2]
 216:.\Generated_Source\PSoC5/I2C_S_SLAVE.c ****         I2C_S_slRdBufIndex = 0u;         /* Clears buffer index */
 276              		.loc 1 216 0
 277 0026 094B     		ldr	r3, .L18+12
 278 0028 0022     		movs	r2, #0
 279 002a 1A70     		strb	r2, [r3]
 217:.\Generated_Source\PSoC5/I2C_S_SLAVE.c **** 
 218:.\Generated_Source\PSoC5/I2C_S_SLAVE.c ****         I2C_S_EnableInt(); /* Release lock */
 280              		.loc 1 218 0
 281 002c 084B     		ldr	r3, .L18+16
 282 002e 4FF40042 		mov	r2, #32768
 283 0032 1A60     		str	r2, [r3]
 284              	.L16:
 219:.\Generated_Source\PSoC5/I2C_S_SLAVE.c ****     }
 220:.\Generated_Source\PSoC5/I2C_S_SLAVE.c **** }
 285              		.loc 1 220 0
 286 0034 0C37     		adds	r7, r7, #12
 287              		.cfi_def_cfa_offset 4
 288 0036 BD46     		mov	sp, r7
 289              		.cfi_def_cfa_register 13
 290              		@ sp needed
 291 0038 5DF8047B 		ldr	r7, [sp], #4
 292              		.cfi_restore 7
 293              		.cfi_def_cfa_offset 0
ARM GAS  C:\Users\LUKASC~1\AppData\Local\Temp\ccEGG6Um.s 			page 10


 294 003c 7047     		bx	lr
 295              	.L19:
 296 003e 00BF     		.align	2
 297              	.L18:
 298 0040 80E100E0 		.word	-536813184
 299 0044 00000000 		.word	I2C_S_slRdBufPtr
 300 0048 00000000 		.word	I2C_S_slRdBufSize
 301 004c 00000000 		.word	I2C_S_slRdBufIndex
 302 0050 00E100E0 		.word	-536813312
 303              		.cfi_endproc
 304              	.LFE4:
 305              		.size	I2C_S_SlaveInitReadBuf, .-I2C_S_SlaveInitReadBuf
 306              		.section	.text.I2C_S_SlaveInitWriteBuf,"ax",%progbits
 307              		.align	2
 308              		.global	I2C_S_SlaveInitWriteBuf
 309              		.thumb
 310              		.thumb_func
 311              		.type	I2C_S_SlaveInitWriteBuf, %function
 312              	I2C_S_SlaveInitWriteBuf:
 313              	.LFB5:
 221:.\Generated_Source\PSoC5/I2C_S_SLAVE.c **** 
 222:.\Generated_Source\PSoC5/I2C_S_SLAVE.c **** 
 223:.\Generated_Source\PSoC5/I2C_S_SLAVE.c **** /*******************************************************************************
 224:.\Generated_Source\PSoC5/I2C_S_SLAVE.c **** * Function Name: I2C_S_SlaveInitWriteBuf
 225:.\Generated_Source\PSoC5/I2C_S_SLAVE.c **** ********************************************************************************
 226:.\Generated_Source\PSoC5/I2C_S_SLAVE.c **** *
 227:.\Generated_Source\PSoC5/I2C_S_SLAVE.c **** * Summary:
 228:.\Generated_Source\PSoC5/I2C_S_SLAVE.c **** *  Sets the buffer pointer and size of the read buffer. This function also
 229:.\Generated_Source\PSoC5/I2C_S_SLAVE.c **** *  resets the transfer count returned with the I2C_SlaveGetReadBufSize function.
 230:.\Generated_Source\PSoC5/I2C_S_SLAVE.c **** *
 231:.\Generated_Source\PSoC5/I2C_S_SLAVE.c **** * Parameters:
 232:.\Generated_Source\PSoC5/I2C_S_SLAVE.c **** *  writeBuf:  Pointer to the data buffer to be read by the master.
 233:.\Generated_Source\PSoC5/I2C_S_SLAVE.c **** *  bufSize:  Size of the buffer exposed to the I2C master.
 234:.\Generated_Source\PSoC5/I2C_S_SLAVE.c **** *
 235:.\Generated_Source\PSoC5/I2C_S_SLAVE.c **** * Return:
 236:.\Generated_Source\PSoC5/I2C_S_SLAVE.c **** *  None.
 237:.\Generated_Source\PSoC5/I2C_S_SLAVE.c **** *
 238:.\Generated_Source\PSoC5/I2C_S_SLAVE.c **** * Global variables:
 239:.\Generated_Source\PSoC5/I2C_S_SLAVE.c **** *  I2C_S_slWrBufPtr   - The global variable used to store a pointer
 240:.\Generated_Source\PSoC5/I2C_S_SLAVE.c **** *                                  to the slave write buffer.
 241:.\Generated_Source\PSoC5/I2C_S_SLAVE.c **** *  I2C_S_slWrBufSize  - The global variable used to store a slave
 242:.\Generated_Source\PSoC5/I2C_S_SLAVE.c **** *                                  write buffer size.
 243:.\Generated_Source\PSoC5/I2C_S_SLAVE.c **** *  I2C_S_slWrBufIndex - The global variable used to store a current
 244:.\Generated_Source\PSoC5/I2C_S_SLAVE.c **** *                                  index within the slave write buffer.
 245:.\Generated_Source\PSoC5/I2C_S_SLAVE.c **** *
 246:.\Generated_Source\PSoC5/I2C_S_SLAVE.c **** * Side Effects:
 247:.\Generated_Source\PSoC5/I2C_S_SLAVE.c **** *  If this function is called during a bus transaction, data from the previous
 248:.\Generated_Source\PSoC5/I2C_S_SLAVE.c **** *  buffer location and the beginning of the current buffer may be transmitted.
 249:.\Generated_Source\PSoC5/I2C_S_SLAVE.c **** *
 250:.\Generated_Source\PSoC5/I2C_S_SLAVE.c **** * Reentrant:
 251:.\Generated_Source\PSoC5/I2C_S_SLAVE.c **** *  No.
 252:.\Generated_Source\PSoC5/I2C_S_SLAVE.c **** *
 253:.\Generated_Source\PSoC5/I2C_S_SLAVE.c **** *******************************************************************************/
 254:.\Generated_Source\PSoC5/I2C_S_SLAVE.c **** void I2C_S_SlaveInitWriteBuf(uint8 * wrBuf, uint8 bufSize)
 255:.\Generated_Source\PSoC5/I2C_S_SLAVE.c ****      
 256:.\Generated_Source\PSoC5/I2C_S_SLAVE.c **** {
 314              		.loc 1 256 0
ARM GAS  C:\Users\LUKASC~1\AppData\Local\Temp\ccEGG6Um.s 			page 11


 315              		.cfi_startproc
 316              		@ args = 0, pretend = 0, frame = 8
 317              		@ frame_needed = 1, uses_anonymous_args = 0
 318              		@ link register save eliminated.
 319 0000 80B4     		push	{r7}
 320              		.cfi_def_cfa_offset 4
 321              		.cfi_offset 7, -4
 322 0002 83B0     		sub	sp, sp, #12
 323              		.cfi_def_cfa_offset 16
 324 0004 00AF     		add	r7, sp, #0
 325              		.cfi_def_cfa_register 7
 326 0006 7860     		str	r0, [r7, #4]
 327 0008 0B46     		mov	r3, r1
 328 000a FB70     		strb	r3, [r7, #3]
 257:.\Generated_Source\PSoC5/I2C_S_SLAVE.c ****     if (NULL != wrBuf)
 329              		.loc 1 257 0
 330 000c 7B68     		ldr	r3, [r7, #4]
 331 000e 002B     		cmp	r3, #0
 332 0010 10D0     		beq	.L20
 258:.\Generated_Source\PSoC5/I2C_S_SLAVE.c ****     {
 259:.\Generated_Source\PSoC5/I2C_S_SLAVE.c ****         I2C_S_DisableInt(); /* Lock from interrupt */
 333              		.loc 1 259 0
 334 0012 0B4B     		ldr	r3, .L22
 335 0014 4FF40042 		mov	r2, #32768
 336 0018 1A60     		str	r2, [r3]
 260:.\Generated_Source\PSoC5/I2C_S_SLAVE.c **** 
 261:.\Generated_Source\PSoC5/I2C_S_SLAVE.c ****          /* Set buffer pointer */
 262:.\Generated_Source\PSoC5/I2C_S_SLAVE.c ****         I2C_S_slWrBufPtr   = (volatile uint8 *) wrBuf;
 337              		.loc 1 262 0
 338 001a 0A4A     		ldr	r2, .L22+4
 339 001c 7B68     		ldr	r3, [r7, #4]
 340 001e 1360     		str	r3, [r2]
 263:.\Generated_Source\PSoC5/I2C_S_SLAVE.c ****         I2C_S_slWrBufSize  = bufSize;    /* Set buffer size     */
 341              		.loc 1 263 0
 342 0020 094A     		ldr	r2, .L22+8
 343 0022 FB78     		ldrb	r3, [r7, #3]
 344 0024 1370     		strb	r3, [r2]
 264:.\Generated_Source\PSoC5/I2C_S_SLAVE.c ****         I2C_S_slWrBufIndex = 0u;         /* Clears buffer index */
 345              		.loc 1 264 0
 346 0026 094B     		ldr	r3, .L22+12
 347 0028 0022     		movs	r2, #0
 348 002a 1A70     		strb	r2, [r3]
 265:.\Generated_Source\PSoC5/I2C_S_SLAVE.c **** 
 266:.\Generated_Source\PSoC5/I2C_S_SLAVE.c ****         I2C_S_EnableInt(); /* Release lock */
 349              		.loc 1 266 0
 350 002c 084B     		ldr	r3, .L22+16
 351 002e 4FF40042 		mov	r2, #32768
 352 0032 1A60     		str	r2, [r3]
 353              	.L20:
 267:.\Generated_Source\PSoC5/I2C_S_SLAVE.c ****     }
 268:.\Generated_Source\PSoC5/I2C_S_SLAVE.c **** }
 354              		.loc 1 268 0
 355 0034 0C37     		adds	r7, r7, #12
 356              		.cfi_def_cfa_offset 4
 357 0036 BD46     		mov	sp, r7
 358              		.cfi_def_cfa_register 13
 359              		@ sp needed
ARM GAS  C:\Users\LUKASC~1\AppData\Local\Temp\ccEGG6Um.s 			page 12


 360 0038 5DF8047B 		ldr	r7, [sp], #4
 361              		.cfi_restore 7
 362              		.cfi_def_cfa_offset 0
 363 003c 7047     		bx	lr
 364              	.L23:
 365 003e 00BF     		.align	2
 366              	.L22:
 367 0040 80E100E0 		.word	-536813184
 368 0044 00000000 		.word	I2C_S_slWrBufPtr
 369 0048 00000000 		.word	I2C_S_slWrBufSize
 370 004c 00000000 		.word	I2C_S_slWrBufIndex
 371 0050 00E100E0 		.word	-536813312
 372              		.cfi_endproc
 373              	.LFE5:
 374              		.size	I2C_S_SlaveInitWriteBuf, .-I2C_S_SlaveInitWriteBuf
 375              		.section	.text.I2C_S_SlaveGetReadBufSize,"ax",%progbits
 376              		.align	2
 377              		.global	I2C_S_SlaveGetReadBufSize
 378              		.thumb
 379              		.thumb_func
 380              		.type	I2C_S_SlaveGetReadBufSize, %function
 381              	I2C_S_SlaveGetReadBufSize:
 382              	.LFB6:
 269:.\Generated_Source\PSoC5/I2C_S_SLAVE.c **** 
 270:.\Generated_Source\PSoC5/I2C_S_SLAVE.c **** 
 271:.\Generated_Source\PSoC5/I2C_S_SLAVE.c **** /*******************************************************************************
 272:.\Generated_Source\PSoC5/I2C_S_SLAVE.c **** * Function Name: I2C_S_SlaveGetReadBufSize
 273:.\Generated_Source\PSoC5/I2C_S_SLAVE.c **** ********************************************************************************
 274:.\Generated_Source\PSoC5/I2C_S_SLAVE.c **** *
 275:.\Generated_Source\PSoC5/I2C_S_SLAVE.c **** * Summary:
 276:.\Generated_Source\PSoC5/I2C_S_SLAVE.c **** *  Returns the number of bytes read by the I2C master since an
 277:.\Generated_Source\PSoC5/I2C_S_SLAVE.c **** *  I2C_SlaveInitReadBuf or I2C_SlaveClearReadBuf function was executed.
 278:.\Generated_Source\PSoC5/I2C_S_SLAVE.c **** *  The maximum return value will be the size of the read buffer.
 279:.\Generated_Source\PSoC5/I2C_S_SLAVE.c **** *
 280:.\Generated_Source\PSoC5/I2C_S_SLAVE.c **** * Parameters:
 281:.\Generated_Source\PSoC5/I2C_S_SLAVE.c **** *  None.
 282:.\Generated_Source\PSoC5/I2C_S_SLAVE.c **** *
 283:.\Generated_Source\PSoC5/I2C_S_SLAVE.c **** * Return:
 284:.\Generated_Source\PSoC5/I2C_S_SLAVE.c **** *  Bytes read by master.
 285:.\Generated_Source\PSoC5/I2C_S_SLAVE.c **** *
 286:.\Generated_Source\PSoC5/I2C_S_SLAVE.c **** * Global variables:
 287:.\Generated_Source\PSoC5/I2C_S_SLAVE.c **** *  I2C_S_slRdBufIndex - The global variable used to store a current
 288:.\Generated_Source\PSoC5/I2C_S_SLAVE.c **** *                                  index within the slave read buffer.
 289:.\Generated_Source\PSoC5/I2C_S_SLAVE.c **** *
 290:.\Generated_Source\PSoC5/I2C_S_SLAVE.c **** *******************************************************************************/
 291:.\Generated_Source\PSoC5/I2C_S_SLAVE.c **** uint8 I2C_S_SlaveGetReadBufSize(void) 
 292:.\Generated_Source\PSoC5/I2C_S_SLAVE.c **** {
 383              		.loc 1 292 0
 384              		.cfi_startproc
 385              		@ args = 0, pretend = 0, frame = 0
 386              		@ frame_needed = 1, uses_anonymous_args = 0
 387              		@ link register save eliminated.
 388 0000 80B4     		push	{r7}
 389              		.cfi_def_cfa_offset 4
 390              		.cfi_offset 7, -4
 391 0002 00AF     		add	r7, sp, #0
 392              		.cfi_def_cfa_register 7
ARM GAS  C:\Users\LUKASC~1\AppData\Local\Temp\ccEGG6Um.s 			page 13


 293:.\Generated_Source\PSoC5/I2C_S_SLAVE.c ****     return (I2C_S_slRdBufIndex);
 393              		.loc 1 293 0
 394 0004 034B     		ldr	r3, .L26
 395 0006 1B78     		ldrb	r3, [r3]
 396 0008 DBB2     		uxtb	r3, r3
 294:.\Generated_Source\PSoC5/I2C_S_SLAVE.c **** }
 397              		.loc 1 294 0
 398 000a 1846     		mov	r0, r3
 399 000c BD46     		mov	sp, r7
 400              		.cfi_def_cfa_register 13
 401              		@ sp needed
 402 000e 5DF8047B 		ldr	r7, [sp], #4
 403              		.cfi_restore 7
 404              		.cfi_def_cfa_offset 0
 405 0012 7047     		bx	lr
 406              	.L27:
 407              		.align	2
 408              	.L26:
 409 0014 00000000 		.word	I2C_S_slRdBufIndex
 410              		.cfi_endproc
 411              	.LFE6:
 412              		.size	I2C_S_SlaveGetReadBufSize, .-I2C_S_SlaveGetReadBufSize
 413              		.section	.text.I2C_S_SlaveGetWriteBufSize,"ax",%progbits
 414              		.align	2
 415              		.global	I2C_S_SlaveGetWriteBufSize
 416              		.thumb
 417              		.thumb_func
 418              		.type	I2C_S_SlaveGetWriteBufSize, %function
 419              	I2C_S_SlaveGetWriteBufSize:
 420              	.LFB7:
 295:.\Generated_Source\PSoC5/I2C_S_SLAVE.c **** 
 296:.\Generated_Source\PSoC5/I2C_S_SLAVE.c **** 
 297:.\Generated_Source\PSoC5/I2C_S_SLAVE.c **** /*******************************************************************************
 298:.\Generated_Source\PSoC5/I2C_S_SLAVE.c **** * Function Name: I2C_S_SlaveGetWriteBufSize
 299:.\Generated_Source\PSoC5/I2C_S_SLAVE.c **** ********************************************************************************
 300:.\Generated_Source\PSoC5/I2C_S_SLAVE.c **** *
 301:.\Generated_Source\PSoC5/I2C_S_SLAVE.c **** * Summary:
 302:.\Generated_Source\PSoC5/I2C_S_SLAVE.c **** *  Returns the number of bytes written by the I2C master since an
 303:.\Generated_Source\PSoC5/I2C_S_SLAVE.c **** *  I2C_SlaveInitWriteBuf or I2C_SlaveClearWriteBuf function was executed.
 304:.\Generated_Source\PSoC5/I2C_S_SLAVE.c **** *  The maximum return value will be the size of the write buffer.
 305:.\Generated_Source\PSoC5/I2C_S_SLAVE.c **** *
 306:.\Generated_Source\PSoC5/I2C_S_SLAVE.c **** * Parameters:
 307:.\Generated_Source\PSoC5/I2C_S_SLAVE.c **** *  None.
 308:.\Generated_Source\PSoC5/I2C_S_SLAVE.c **** *
 309:.\Generated_Source\PSoC5/I2C_S_SLAVE.c **** * Return:
 310:.\Generated_Source\PSoC5/I2C_S_SLAVE.c **** *  Bytes written by master.
 311:.\Generated_Source\PSoC5/I2C_S_SLAVE.c **** *
 312:.\Generated_Source\PSoC5/I2C_S_SLAVE.c **** * Global variables:
 313:.\Generated_Source\PSoC5/I2C_S_SLAVE.c **** *  I2C_S_slWrBufIndex - The global variable used to store a current
 314:.\Generated_Source\PSoC5/I2C_S_SLAVE.c **** *                                  index within the slave write buffer.
 315:.\Generated_Source\PSoC5/I2C_S_SLAVE.c **** *
 316:.\Generated_Source\PSoC5/I2C_S_SLAVE.c **** *******************************************************************************/
 317:.\Generated_Source\PSoC5/I2C_S_SLAVE.c **** uint8 I2C_S_SlaveGetWriteBufSize(void) 
 318:.\Generated_Source\PSoC5/I2C_S_SLAVE.c **** {
 421              		.loc 1 318 0
 422              		.cfi_startproc
 423              		@ args = 0, pretend = 0, frame = 0
ARM GAS  C:\Users\LUKASC~1\AppData\Local\Temp\ccEGG6Um.s 			page 14


 424              		@ frame_needed = 1, uses_anonymous_args = 0
 425              		@ link register save eliminated.
 426 0000 80B4     		push	{r7}
 427              		.cfi_def_cfa_offset 4
 428              		.cfi_offset 7, -4
 429 0002 00AF     		add	r7, sp, #0
 430              		.cfi_def_cfa_register 7
 319:.\Generated_Source\PSoC5/I2C_S_SLAVE.c ****     return (I2C_S_slWrBufIndex);
 431              		.loc 1 319 0
 432 0004 034B     		ldr	r3, .L30
 433 0006 1B78     		ldrb	r3, [r3]
 434 0008 DBB2     		uxtb	r3, r3
 320:.\Generated_Source\PSoC5/I2C_S_SLAVE.c **** }
 435              		.loc 1 320 0
 436 000a 1846     		mov	r0, r3
 437 000c BD46     		mov	sp, r7
 438              		.cfi_def_cfa_register 13
 439              		@ sp needed
 440 000e 5DF8047B 		ldr	r7, [sp], #4
 441              		.cfi_restore 7
 442              		.cfi_def_cfa_offset 0
 443 0012 7047     		bx	lr
 444              	.L31:
 445              		.align	2
 446              	.L30:
 447 0014 00000000 		.word	I2C_S_slWrBufIndex
 448              		.cfi_endproc
 449              	.LFE7:
 450              		.size	I2C_S_SlaveGetWriteBufSize, .-I2C_S_SlaveGetWriteBufSize
 451              		.section	.text.I2C_S_SlaveClearReadBuf,"ax",%progbits
 452              		.align	2
 453              		.global	I2C_S_SlaveClearReadBuf
 454              		.thumb
 455              		.thumb_func
 456              		.type	I2C_S_SlaveClearReadBuf, %function
 457              	I2C_S_SlaveClearReadBuf:
 458              	.LFB8:
 321:.\Generated_Source\PSoC5/I2C_S_SLAVE.c **** 
 322:.\Generated_Source\PSoC5/I2C_S_SLAVE.c **** 
 323:.\Generated_Source\PSoC5/I2C_S_SLAVE.c **** /*******************************************************************************
 324:.\Generated_Source\PSoC5/I2C_S_SLAVE.c **** * Function Name: I2C_S_SlaveClearReadBuf
 325:.\Generated_Source\PSoC5/I2C_S_SLAVE.c **** ********************************************************************************
 326:.\Generated_Source\PSoC5/I2C_S_SLAVE.c **** *
 327:.\Generated_Source\PSoC5/I2C_S_SLAVE.c **** * Summary:
 328:.\Generated_Source\PSoC5/I2C_S_SLAVE.c **** *  Resets the read pointer to the first byte in the read buffer. The next byte
 329:.\Generated_Source\PSoC5/I2C_S_SLAVE.c **** *  read by the master will be the first byte in the read buffer.
 330:.\Generated_Source\PSoC5/I2C_S_SLAVE.c **** *
 331:.\Generated_Source\PSoC5/I2C_S_SLAVE.c **** * Parameters:
 332:.\Generated_Source\PSoC5/I2C_S_SLAVE.c **** *  None.
 333:.\Generated_Source\PSoC5/I2C_S_SLAVE.c **** *
 334:.\Generated_Source\PSoC5/I2C_S_SLAVE.c **** * Return:
 335:.\Generated_Source\PSoC5/I2C_S_SLAVE.c **** *  None.
 336:.\Generated_Source\PSoC5/I2C_S_SLAVE.c **** *
 337:.\Generated_Source\PSoC5/I2C_S_SLAVE.c **** * Global variables:
 338:.\Generated_Source\PSoC5/I2C_S_SLAVE.c **** *  I2C_S_slRdBufIndex - The global variable used to store a current
 339:.\Generated_Source\PSoC5/I2C_S_SLAVE.c **** *                                  index the within slave read buffer.
 340:.\Generated_Source\PSoC5/I2C_S_SLAVE.c **** *
ARM GAS  C:\Users\LUKASC~1\AppData\Local\Temp\ccEGG6Um.s 			page 15


 341:.\Generated_Source\PSoC5/I2C_S_SLAVE.c **** * Reentrant:
 342:.\Generated_Source\PSoC5/I2C_S_SLAVE.c **** *  No.
 343:.\Generated_Source\PSoC5/I2C_S_SLAVE.c **** *
 344:.\Generated_Source\PSoC5/I2C_S_SLAVE.c **** *******************************************************************************/
 345:.\Generated_Source\PSoC5/I2C_S_SLAVE.c **** void I2C_S_SlaveClearReadBuf(void) 
 346:.\Generated_Source\PSoC5/I2C_S_SLAVE.c **** {
 459              		.loc 1 346 0
 460              		.cfi_startproc
 461              		@ args = 0, pretend = 0, frame = 0
 462              		@ frame_needed = 1, uses_anonymous_args = 0
 463              		@ link register save eliminated.
 464 0000 80B4     		push	{r7}
 465              		.cfi_def_cfa_offset 4
 466              		.cfi_offset 7, -4
 467 0002 00AF     		add	r7, sp, #0
 468              		.cfi_def_cfa_register 7
 347:.\Generated_Source\PSoC5/I2C_S_SLAVE.c ****     I2C_S_slRdBufIndex = 0u;
 469              		.loc 1 347 0
 470 0004 034B     		ldr	r3, .L33
 471 0006 0022     		movs	r2, #0
 472 0008 1A70     		strb	r2, [r3]
 348:.\Generated_Source\PSoC5/I2C_S_SLAVE.c **** }
 473              		.loc 1 348 0
 474 000a BD46     		mov	sp, r7
 475              		.cfi_def_cfa_register 13
 476              		@ sp needed
 477 000c 5DF8047B 		ldr	r7, [sp], #4
 478              		.cfi_restore 7
 479              		.cfi_def_cfa_offset 0
 480 0010 7047     		bx	lr
 481              	.L34:
 482 0012 00BF     		.align	2
 483              	.L33:
 484 0014 00000000 		.word	I2C_S_slRdBufIndex
 485              		.cfi_endproc
 486              	.LFE8:
 487              		.size	I2C_S_SlaveClearReadBuf, .-I2C_S_SlaveClearReadBuf
 488              		.section	.text.I2C_S_SlaveClearWriteBuf,"ax",%progbits
 489              		.align	2
 490              		.global	I2C_S_SlaveClearWriteBuf
 491              		.thumb
 492              		.thumb_func
 493              		.type	I2C_S_SlaveClearWriteBuf, %function
 494              	I2C_S_SlaveClearWriteBuf:
 495              	.LFB9:
 349:.\Generated_Source\PSoC5/I2C_S_SLAVE.c **** 
 350:.\Generated_Source\PSoC5/I2C_S_SLAVE.c **** 
 351:.\Generated_Source\PSoC5/I2C_S_SLAVE.c **** /*******************************************************************************
 352:.\Generated_Source\PSoC5/I2C_S_SLAVE.c **** * Function Name: I2C_S_SlaveClearRxBuf
 353:.\Generated_Source\PSoC5/I2C_S_SLAVE.c **** ********************************************************************************
 354:.\Generated_Source\PSoC5/I2C_S_SLAVE.c **** *
 355:.\Generated_Source\PSoC5/I2C_S_SLAVE.c **** * Summary:
 356:.\Generated_Source\PSoC5/I2C_S_SLAVE.c **** *  Resets the write pointer to the first byte in the write buffer. The next byte
 357:.\Generated_Source\PSoC5/I2C_S_SLAVE.c **** *  written by the master will be the first byte in the write buffer.
 358:.\Generated_Source\PSoC5/I2C_S_SLAVE.c **** *
 359:.\Generated_Source\PSoC5/I2C_S_SLAVE.c **** * Parameters:
 360:.\Generated_Source\PSoC5/I2C_S_SLAVE.c **** *  None.
ARM GAS  C:\Users\LUKASC~1\AppData\Local\Temp\ccEGG6Um.s 			page 16


 361:.\Generated_Source\PSoC5/I2C_S_SLAVE.c **** *
 362:.\Generated_Source\PSoC5/I2C_S_SLAVE.c **** * Return:
 363:.\Generated_Source\PSoC5/I2C_S_SLAVE.c **** *  None.
 364:.\Generated_Source\PSoC5/I2C_S_SLAVE.c **** *
 365:.\Generated_Source\PSoC5/I2C_S_SLAVE.c **** * Global variables:
 366:.\Generated_Source\PSoC5/I2C_S_SLAVE.c **** *  I2C_S_slWrBufIndex - The global variable used to store a current
 367:.\Generated_Source\PSoC5/I2C_S_SLAVE.c **** *                                  index within the slave write buffer.
 368:.\Generated_Source\PSoC5/I2C_S_SLAVE.c **** *
 369:.\Generated_Source\PSoC5/I2C_S_SLAVE.c **** * Reentrant:
 370:.\Generated_Source\PSoC5/I2C_S_SLAVE.c **** *  No.
 371:.\Generated_Source\PSoC5/I2C_S_SLAVE.c **** *
 372:.\Generated_Source\PSoC5/I2C_S_SLAVE.c **** *******************************************************************************/
 373:.\Generated_Source\PSoC5/I2C_S_SLAVE.c **** void I2C_S_SlaveClearWriteBuf(void) 
 374:.\Generated_Source\PSoC5/I2C_S_SLAVE.c **** {
 496              		.loc 1 374 0
 497              		.cfi_startproc
 498              		@ args = 0, pretend = 0, frame = 0
 499              		@ frame_needed = 1, uses_anonymous_args = 0
 500              		@ link register save eliminated.
 501 0000 80B4     		push	{r7}
 502              		.cfi_def_cfa_offset 4
 503              		.cfi_offset 7, -4
 504 0002 00AF     		add	r7, sp, #0
 505              		.cfi_def_cfa_register 7
 375:.\Generated_Source\PSoC5/I2C_S_SLAVE.c ****     I2C_S_slWrBufIndex = 0u;
 506              		.loc 1 375 0
 507 0004 034B     		ldr	r3, .L36
 508 0006 0022     		movs	r2, #0
 509 0008 1A70     		strb	r2, [r3]
 376:.\Generated_Source\PSoC5/I2C_S_SLAVE.c **** }
 510              		.loc 1 376 0
 511 000a BD46     		mov	sp, r7
 512              		.cfi_def_cfa_register 13
 513              		@ sp needed
 514 000c 5DF8047B 		ldr	r7, [sp], #4
 515              		.cfi_restore 7
 516              		.cfi_def_cfa_offset 0
 517 0010 7047     		bx	lr
 518              	.L37:
 519 0012 00BF     		.align	2
 520              	.L36:
 521 0014 00000000 		.word	I2C_S_slWrBufIndex
 522              		.cfi_endproc
 523              	.LFE9:
 524              		.size	I2C_S_SlaveClearWriteBuf, .-I2C_S_SlaveClearWriteBuf
 525              		.text
 526              	.Letext0:
 527              		.file 2 ".\\Generated_Source\\PSoC5\\cytypes.h"