ARM GAS  C:\Users\LUKASC~1\AppData\Local\Temp\ccKTxC9g.s 			page 1


   1              		.syntax unified
   2              		.cpu cortex-m3
   3              		.fpu softvfp
   4              		.eabi_attribute 20, 1
   5              		.eabi_attribute 21, 1
   6              		.eabi_attribute 23, 3
   7              		.eabi_attribute 24, 1
   8              		.eabi_attribute 25, 1
   9              		.eabi_attribute 26, 1
  10              		.eabi_attribute 30, 6
  11              		.eabi_attribute 34, 1
  12              		.eabi_attribute 18, 4
  13              		.thumb
  14              		.file	"I2C_S_PM.c"
  15              		.text
  16              	.Ltext0:
  17              		.cfi_sections	.debug_frame
  18              		.global	I2C_S_backup
  19              		.data
  20              		.align	2
  21              		.type	I2C_S_backup, %object
  22              		.size	I2C_S_backup, 6
  23              	I2C_S_backup:
  24 0000 00       		.byte	0
  25 0001 81       		.byte	-127
  26 0002 01       		.byte	1
  27 0003 08       		.byte	8
  28 0004 28       		.byte	40
  29 0005 00       		.byte	0
  30 0006 0000     		.section	.text.I2C_S_SaveConfig,"ax",%progbits
  31              		.align	2
  32              		.global	I2C_S_SaveConfig
  33              		.thumb
  34              		.thumb_func
  35              		.type	I2C_S_SaveConfig, %function
  36              	I2C_S_SaveConfig:
  37              	.LFB0:
  38              		.file 1 ".\\Generated_Source\\PSoC5\\I2C_S_PM.c"
   1:.\Generated_Source\PSoC5/I2C_S_PM.c **** /*******************************************************************************
   2:.\Generated_Source\PSoC5/I2C_S_PM.c **** * File Name: I2C_S_PM.c
   3:.\Generated_Source\PSoC5/I2C_S_PM.c **** * Version 3.50
   4:.\Generated_Source\PSoC5/I2C_S_PM.c **** *
   5:.\Generated_Source\PSoC5/I2C_S_PM.c **** * Description:
   6:.\Generated_Source\PSoC5/I2C_S_PM.c **** *  This file provides low power mode APIs for the I2C component.
   7:.\Generated_Source\PSoC5/I2C_S_PM.c **** *
   8:.\Generated_Source\PSoC5/I2C_S_PM.c **** ********************************************************************************
   9:.\Generated_Source\PSoC5/I2C_S_PM.c **** * Copyright 2008-2015, Cypress Semiconductor Corporation. All rights reserved.
  10:.\Generated_Source\PSoC5/I2C_S_PM.c **** * You may use this file only in accordance with the license, terms, conditions,
  11:.\Generated_Source\PSoC5/I2C_S_PM.c **** * disclaimers, and limitations in the end user license agreement accompanying
  12:.\Generated_Source\PSoC5/I2C_S_PM.c **** * the software package with which this file was provided.
  13:.\Generated_Source\PSoC5/I2C_S_PM.c **** *******************************************************************************/
  14:.\Generated_Source\PSoC5/I2C_S_PM.c **** 
  15:.\Generated_Source\PSoC5/I2C_S_PM.c **** #include "I2C_S_PVT.h"
  16:.\Generated_Source\PSoC5/I2C_S_PM.c **** 
  17:.\Generated_Source\PSoC5/I2C_S_PM.c **** I2C_S_BACKUP_STRUCT I2C_S_backup =
  18:.\Generated_Source\PSoC5/I2C_S_PM.c **** {
  19:.\Generated_Source\PSoC5/I2C_S_PM.c ****     I2C_S_DISABLE,
ARM GAS  C:\Users\LUKASC~1\AppData\Local\Temp\ccKTxC9g.s 			page 2


  20:.\Generated_Source\PSoC5/I2C_S_PM.c **** 
  21:.\Generated_Source\PSoC5/I2C_S_PM.c **** #if (I2C_S_FF_IMPLEMENTED)
  22:.\Generated_Source\PSoC5/I2C_S_PM.c ****     I2C_S_DEFAULT_XCFG,
  23:.\Generated_Source\PSoC5/I2C_S_PM.c ****     I2C_S_DEFAULT_CFG,
  24:.\Generated_Source\PSoC5/I2C_S_PM.c ****     I2C_S_DEFAULT_ADDR,
  25:.\Generated_Source\PSoC5/I2C_S_PM.c ****     LO8(I2C_S_DEFAULT_DIVIDE_FACTOR),
  26:.\Generated_Source\PSoC5/I2C_S_PM.c ****     HI8(I2C_S_DEFAULT_DIVIDE_FACTOR),
  27:.\Generated_Source\PSoC5/I2C_S_PM.c **** #else  /* (I2C_S_UDB_IMPLEMENTED) */
  28:.\Generated_Source\PSoC5/I2C_S_PM.c ****     I2C_S_DEFAULT_CFG,
  29:.\Generated_Source\PSoC5/I2C_S_PM.c **** #endif /* (I2C_S_FF_IMPLEMENTED) */
  30:.\Generated_Source\PSoC5/I2C_S_PM.c **** 
  31:.\Generated_Source\PSoC5/I2C_S_PM.c **** #if (I2C_S_TIMEOUT_ENABLED)
  32:.\Generated_Source\PSoC5/I2C_S_PM.c ****     I2C_S_DEFAULT_TMOUT_PERIOD,
  33:.\Generated_Source\PSoC5/I2C_S_PM.c ****     I2C_S_DEFAULT_TMOUT_INTR_MASK,
  34:.\Generated_Source\PSoC5/I2C_S_PM.c **** #endif /* (I2C_S_TIMEOUT_ENABLED) */
  35:.\Generated_Source\PSoC5/I2C_S_PM.c **** };
  36:.\Generated_Source\PSoC5/I2C_S_PM.c **** 
  37:.\Generated_Source\PSoC5/I2C_S_PM.c **** #if ((I2C_S_FF_IMPLEMENTED) && (I2C_S_WAKEUP_ENABLED))
  38:.\Generated_Source\PSoC5/I2C_S_PM.c ****     volatile uint8 I2C_S_wakeupSource;
  39:.\Generated_Source\PSoC5/I2C_S_PM.c **** #endif /* ((I2C_S_FF_IMPLEMENTED) && (I2C_S_WAKEUP_ENABLED)) */
  40:.\Generated_Source\PSoC5/I2C_S_PM.c **** 
  41:.\Generated_Source\PSoC5/I2C_S_PM.c **** 
  42:.\Generated_Source\PSoC5/I2C_S_PM.c **** /*******************************************************************************
  43:.\Generated_Source\PSoC5/I2C_S_PM.c **** * Function Name: I2C_S_SaveConfig
  44:.\Generated_Source\PSoC5/I2C_S_PM.c **** ********************************************************************************
  45:.\Generated_Source\PSoC5/I2C_S_PM.c **** *
  46:.\Generated_Source\PSoC5/I2C_S_PM.c **** * Summary:
  47:.\Generated_Source\PSoC5/I2C_S_PM.c **** *  The Enable wakeup from Sleep Mode selection influences this function
  48:.\Generated_Source\PSoC5/I2C_S_PM.c **** *  implementation:
  49:.\Generated_Source\PSoC5/I2C_S_PM.c **** *   Unchecked: Stores the component non-retention configuration registers.
  50:.\Generated_Source\PSoC5/I2C_S_PM.c **** *   Checked:   Disables the master, if it was enabled before, and enables
  51:.\Generated_Source\PSoC5/I2C_S_PM.c **** *              backup regulator of the I2C hardware. If a transaction intended
  52:.\Generated_Source\PSoC5/I2C_S_PM.c **** *              for component executes during this function call, it waits until
  53:.\Generated_Source\PSoC5/I2C_S_PM.c **** *              the current transaction is completed and I2C hardware is ready
  54:.\Generated_Source\PSoC5/I2C_S_PM.c **** *              to enter sleep mode. All subsequent I2C traffic is NAKed until
  55:.\Generated_Source\PSoC5/I2C_S_PM.c **** *              the device is put into sleep mode.
  56:.\Generated_Source\PSoC5/I2C_S_PM.c **** *
  57:.\Generated_Source\PSoC5/I2C_S_PM.c **** * Parameters:
  58:.\Generated_Source\PSoC5/I2C_S_PM.c **** *  None.
  59:.\Generated_Source\PSoC5/I2C_S_PM.c **** *
  60:.\Generated_Source\PSoC5/I2C_S_PM.c **** * Return:
  61:.\Generated_Source\PSoC5/I2C_S_PM.c **** *  None.
  62:.\Generated_Source\PSoC5/I2C_S_PM.c **** *
  63:.\Generated_Source\PSoC5/I2C_S_PM.c **** * Global Variables:
  64:.\Generated_Source\PSoC5/I2C_S_PM.c **** *  I2C_S_backup - The global variable used to save the component
  65:.\Generated_Source\PSoC5/I2C_S_PM.c **** *                            configuration and non-retention registers before
  66:.\Generated_Source\PSoC5/I2C_S_PM.c **** *                            entering the sleep mode.
  67:.\Generated_Source\PSoC5/I2C_S_PM.c **** *
  68:.\Generated_Source\PSoC5/I2C_S_PM.c **** * Reentrant:
  69:.\Generated_Source\PSoC5/I2C_S_PM.c **** *  No.
  70:.\Generated_Source\PSoC5/I2C_S_PM.c **** *
  71:.\Generated_Source\PSoC5/I2C_S_PM.c **** *******************************************************************************/
  72:.\Generated_Source\PSoC5/I2C_S_PM.c **** void I2C_S_SaveConfig(void) 
  73:.\Generated_Source\PSoC5/I2C_S_PM.c **** {
  39              		.loc 1 73 0
  40              		.cfi_startproc
  41              		@ args = 0, pretend = 0, frame = 0
ARM GAS  C:\Users\LUKASC~1\AppData\Local\Temp\ccKTxC9g.s 			page 3


  42              		@ frame_needed = 1, uses_anonymous_args = 0
  43              		@ link register save eliminated.
  44 0000 80B4     		push	{r7}
  45              		.cfi_def_cfa_offset 4
  46              		.cfi_offset 7, -4
  47 0002 00AF     		add	r7, sp, #0
  48              		.cfi_def_cfa_register 7
  74:.\Generated_Source\PSoC5/I2C_S_PM.c **** #if (I2C_S_FF_IMPLEMENTED)
  75:.\Generated_Source\PSoC5/I2C_S_PM.c ****     #if (I2C_S_WAKEUP_ENABLED)
  76:.\Generated_Source\PSoC5/I2C_S_PM.c ****         uint8 intState;
  77:.\Generated_Source\PSoC5/I2C_S_PM.c ****     #endif /* (I2C_S_WAKEUP_ENABLED) */
  78:.\Generated_Source\PSoC5/I2C_S_PM.c **** 
  79:.\Generated_Source\PSoC5/I2C_S_PM.c ****     /* Store registers before enter low power mode */
  80:.\Generated_Source\PSoC5/I2C_S_PM.c ****     I2C_S_backup.cfg     = I2C_S_CFG_REG;
  49              		.loc 1 80 0
  50 0004 0E4B     		ldr	r3, .L2
  51 0006 1B78     		ldrb	r3, [r3]
  52 0008 DAB2     		uxtb	r2, r3
  53 000a 0E4B     		ldr	r3, .L2+4
  54 000c 9A70     		strb	r2, [r3, #2]
  81:.\Generated_Source\PSoC5/I2C_S_PM.c ****     I2C_S_backup.xcfg    = I2C_S_XCFG_REG;
  55              		.loc 1 81 0
  56 000e 0E4B     		ldr	r3, .L2+8
  57 0010 1B78     		ldrb	r3, [r3]
  58 0012 DAB2     		uxtb	r2, r3
  59 0014 0B4B     		ldr	r3, .L2+4
  60 0016 5A70     		strb	r2, [r3, #1]
  82:.\Generated_Source\PSoC5/I2C_S_PM.c ****     I2C_S_backup.addr    = I2C_S_ADDR_REG;
  61              		.loc 1 82 0
  62 0018 0C4B     		ldr	r3, .L2+12
  63 001a 1B78     		ldrb	r3, [r3]
  64 001c DAB2     		uxtb	r2, r3
  65 001e 094B     		ldr	r3, .L2+4
  66 0020 DA70     		strb	r2, [r3, #3]
  83:.\Generated_Source\PSoC5/I2C_S_PM.c ****     I2C_S_backup.clkDiv1 = I2C_S_CLKDIV1_REG;
  67              		.loc 1 83 0
  68 0022 0B4B     		ldr	r3, .L2+16
  69 0024 1B78     		ldrb	r3, [r3]
  70 0026 DAB2     		uxtb	r2, r3
  71 0028 064B     		ldr	r3, .L2+4
  72 002a 1A71     		strb	r2, [r3, #4]
  84:.\Generated_Source\PSoC5/I2C_S_PM.c ****     I2C_S_backup.clkDiv2 = I2C_S_CLKDIV2_REG;
  73              		.loc 1 84 0
  74 002c 094B     		ldr	r3, .L2+20
  75 002e 1B78     		ldrb	r3, [r3]
  76 0030 DAB2     		uxtb	r2, r3
  77 0032 044B     		ldr	r3, .L2+4
  78 0034 5A71     		strb	r2, [r3, #5]
  85:.\Generated_Source\PSoC5/I2C_S_PM.c **** 
  86:.\Generated_Source\PSoC5/I2C_S_PM.c **** #if (I2C_S_WAKEUP_ENABLED)
  87:.\Generated_Source\PSoC5/I2C_S_PM.c ****     /* Disable master */
  88:.\Generated_Source\PSoC5/I2C_S_PM.c ****     I2C_S_CFG_REG &= (uint8) ~I2C_S_ENABLE_MASTER;
  89:.\Generated_Source\PSoC5/I2C_S_PM.c **** 
  90:.\Generated_Source\PSoC5/I2C_S_PM.c ****     /* Enable backup regulator to keep block powered in low power mode */
  91:.\Generated_Source\PSoC5/I2C_S_PM.c ****     intState = CyEnterCriticalSection();
  92:.\Generated_Source\PSoC5/I2C_S_PM.c ****     I2C_S_PWRSYS_CR1_REG |= I2C_S_PWRSYS_CR1_I2C_REG_BACKUP;
  93:.\Generated_Source\PSoC5/I2C_S_PM.c ****     CyExitCriticalSection(intState);
ARM GAS  C:\Users\LUKASC~1\AppData\Local\Temp\ccKTxC9g.s 			page 4


  94:.\Generated_Source\PSoC5/I2C_S_PM.c **** 
  95:.\Generated_Source\PSoC5/I2C_S_PM.c ****     /* 1) Set force NACK to ignore I2C transactions;
  96:.\Generated_Source\PSoC5/I2C_S_PM.c ****     *  2) Wait unti I2C is ready go to Sleep; !!
  97:.\Generated_Source\PSoC5/I2C_S_PM.c ****     *  3) These bits are cleared on wake up.
  98:.\Generated_Source\PSoC5/I2C_S_PM.c ****     */
  99:.\Generated_Source\PSoC5/I2C_S_PM.c ****     /* Wait when block is ready for sleep */
 100:.\Generated_Source\PSoC5/I2C_S_PM.c ****     I2C_S_XCFG_REG |= I2C_S_XCFG_FORCE_NACK;
 101:.\Generated_Source\PSoC5/I2C_S_PM.c ****     while (0u == (I2C_S_XCFG_REG & I2C_S_XCFG_RDY_TO_SLEEP))
 102:.\Generated_Source\PSoC5/I2C_S_PM.c ****     {
 103:.\Generated_Source\PSoC5/I2C_S_PM.c ****     }
 104:.\Generated_Source\PSoC5/I2C_S_PM.c **** 
 105:.\Generated_Source\PSoC5/I2C_S_PM.c ****     /* Setup wakeup interrupt */
 106:.\Generated_Source\PSoC5/I2C_S_PM.c ****     I2C_S_DisableInt();
 107:.\Generated_Source\PSoC5/I2C_S_PM.c ****     (void) CyIntSetVector(I2C_S_ISR_NUMBER, &I2C_S_WAKEUP_ISR);
 108:.\Generated_Source\PSoC5/I2C_S_PM.c ****     I2C_S_wakeupSource = 0u;
 109:.\Generated_Source\PSoC5/I2C_S_PM.c ****     I2C_S_EnableInt();
 110:.\Generated_Source\PSoC5/I2C_S_PM.c **** #endif /* (I2C_S_WAKEUP_ENABLED) */
 111:.\Generated_Source\PSoC5/I2C_S_PM.c **** 
 112:.\Generated_Source\PSoC5/I2C_S_PM.c **** #else
 113:.\Generated_Source\PSoC5/I2C_S_PM.c ****     /* Store only address match bit */
 114:.\Generated_Source\PSoC5/I2C_S_PM.c ****     I2C_S_backup.control = (I2C_S_CFG_REG & I2C_S_CTRL_ANY_ADDRESS_MASK);
 115:.\Generated_Source\PSoC5/I2C_S_PM.c **** #endif /* (I2C_S_FF_IMPLEMENTED) */
 116:.\Generated_Source\PSoC5/I2C_S_PM.c **** 
 117:.\Generated_Source\PSoC5/I2C_S_PM.c **** #if (I2C_S_TIMEOUT_ENABLED)
 118:.\Generated_Source\PSoC5/I2C_S_PM.c ****     I2C_S_TimeoutSaveConfig();
 119:.\Generated_Source\PSoC5/I2C_S_PM.c **** #endif /* (I2C_S_TIMEOUT_ENABLED) */
 120:.\Generated_Source\PSoC5/I2C_S_PM.c **** }
  79              		.loc 1 120 0
  80 0036 BD46     		mov	sp, r7
  81              		.cfi_def_cfa_register 13
  82              		@ sp needed
  83 0038 5DF8047B 		ldr	r7, [sp], #4
  84              		.cfi_restore 7
  85              		.cfi_def_cfa_offset 0
  86 003c 7047     		bx	lr
  87              	.L3:
  88 003e 00BF     		.align	2
  89              	.L2:
  90 0040 D6490040 		.word	1073760726
  91 0044 00000000 		.word	I2C_S_backup
  92 0048 C8490040 		.word	1073760712
  93 004c CA490040 		.word	1073760714
  94 0050 DB490040 		.word	1073760731
  95 0054 DC490040 		.word	1073760732
  96              		.cfi_endproc
  97              	.LFE0:
  98              		.size	I2C_S_SaveConfig, .-I2C_S_SaveConfig
  99              		.section	.text.I2C_S_Sleep,"ax",%progbits
 100              		.align	2
 101              		.global	I2C_S_Sleep
 102              		.thumb
 103              		.thumb_func
 104              		.type	I2C_S_Sleep, %function
 105              	I2C_S_Sleep:
 106              	.LFB1:
 121:.\Generated_Source\PSoC5/I2C_S_PM.c **** 
 122:.\Generated_Source\PSoC5/I2C_S_PM.c **** 
ARM GAS  C:\Users\LUKASC~1\AppData\Local\Temp\ccKTxC9g.s 			page 5


 123:.\Generated_Source\PSoC5/I2C_S_PM.c **** /*******************************************************************************
 124:.\Generated_Source\PSoC5/I2C_S_PM.c **** * Function Name: I2C_S_Sleep
 125:.\Generated_Source\PSoC5/I2C_S_PM.c **** ********************************************************************************
 126:.\Generated_Source\PSoC5/I2C_S_PM.c **** *
 127:.\Generated_Source\PSoC5/I2C_S_PM.c **** * Summary:
 128:.\Generated_Source\PSoC5/I2C_S_PM.c **** *  This is the preferred method to prepare the component before device enters
 129:.\Generated_Source\PSoC5/I2C_S_PM.c **** *  sleep mode. The Enable wakeup from Sleep Mode selection influences this
 130:.\Generated_Source\PSoC5/I2C_S_PM.c **** *  function implementation:
 131:.\Generated_Source\PSoC5/I2C_S_PM.c **** *   Unchecked: Checks current I2C component state, saves it, and disables the
 132:.\Generated_Source\PSoC5/I2C_S_PM.c **** *              component by calling I2C_Stop() if it is currently enabled.
 133:.\Generated_Source\PSoC5/I2C_S_PM.c **** *              I2C_SaveConfig() is then called to save the component
 134:.\Generated_Source\PSoC5/I2C_S_PM.c **** *              non-retention configuration registers.
 135:.\Generated_Source\PSoC5/I2C_S_PM.c **** *   Checked:   If a transaction intended for component executes during this
 136:.\Generated_Source\PSoC5/I2C_S_PM.c **** *              function call, it waits until the current transaction is
 137:.\Generated_Source\PSoC5/I2C_S_PM.c **** *              completed. All subsequent I2C traffic intended for component
 138:.\Generated_Source\PSoC5/I2C_S_PM.c **** *              is NAKed until the device is put to sleep mode. The address
 139:.\Generated_Source\PSoC5/I2C_S_PM.c **** *              match event wakes up the device.
 140:.\Generated_Source\PSoC5/I2C_S_PM.c **** *
 141:.\Generated_Source\PSoC5/I2C_S_PM.c **** * Parameters:
 142:.\Generated_Source\PSoC5/I2C_S_PM.c **** *  None.
 143:.\Generated_Source\PSoC5/I2C_S_PM.c **** *
 144:.\Generated_Source\PSoC5/I2C_S_PM.c **** * Return:
 145:.\Generated_Source\PSoC5/I2C_S_PM.c **** *  None.
 146:.\Generated_Source\PSoC5/I2C_S_PM.c **** *
 147:.\Generated_Source\PSoC5/I2C_S_PM.c **** * Reentrant:
 148:.\Generated_Source\PSoC5/I2C_S_PM.c **** *  No.
 149:.\Generated_Source\PSoC5/I2C_S_PM.c **** *
 150:.\Generated_Source\PSoC5/I2C_S_PM.c **** *******************************************************************************/
 151:.\Generated_Source\PSoC5/I2C_S_PM.c **** void I2C_S_Sleep(void) 
 152:.\Generated_Source\PSoC5/I2C_S_PM.c **** {
 107              		.loc 1 152 0
 108              		.cfi_startproc
 109              		@ args = 0, pretend = 0, frame = 0
 110              		@ frame_needed = 1, uses_anonymous_args = 0
 111 0000 80B5     		push	{r7, lr}
 112              		.cfi_def_cfa_offset 8
 113              		.cfi_offset 7, -8
 114              		.cfi_offset 14, -4
 115 0002 00AF     		add	r7, sp, #0
 116              		.cfi_def_cfa_register 7
 153:.\Generated_Source\PSoC5/I2C_S_PM.c **** #if (I2C_S_WAKEUP_ENABLED)
 154:.\Generated_Source\PSoC5/I2C_S_PM.c ****     /* Do not enable block after exit low power mode if it is wakeup source */
 155:.\Generated_Source\PSoC5/I2C_S_PM.c ****     I2C_S_backup.enableState = I2C_S_DISABLE;
 156:.\Generated_Source\PSoC5/I2C_S_PM.c **** 
 157:.\Generated_Source\PSoC5/I2C_S_PM.c ****     #if (I2C_S_TIMEOUT_ENABLED)
 158:.\Generated_Source\PSoC5/I2C_S_PM.c ****         I2C_S_TimeoutStop();
 159:.\Generated_Source\PSoC5/I2C_S_PM.c ****     #endif /* (I2C_S_TIMEOUT_ENABLED) */
 160:.\Generated_Source\PSoC5/I2C_S_PM.c **** 
 161:.\Generated_Source\PSoC5/I2C_S_PM.c **** #else
 162:.\Generated_Source\PSoC5/I2C_S_PM.c ****     /* Store enable state */
 163:.\Generated_Source\PSoC5/I2C_S_PM.c ****     I2C_S_backup.enableState = (uint8) I2C_S_IS_ENABLED;
 117              		.loc 1 163 0
 118 0004 0A4B     		ldr	r3, .L6
 119 0006 1B78     		ldrb	r3, [r3]
 120 0008 DBB2     		uxtb	r3, r3
 121 000a 03F00403 		and	r3, r3, #4
 122 000e 002B     		cmp	r3, #0
ARM GAS  C:\Users\LUKASC~1\AppData\Local\Temp\ccKTxC9g.s 			page 6


 123 0010 14BF     		ite	ne
 124 0012 0123     		movne	r3, #1
 125 0014 0023     		moveq	r3, #0
 126 0016 DBB2     		uxtb	r3, r3
 127 0018 1A46     		mov	r2, r3
 128 001a 064B     		ldr	r3, .L6+4
 129 001c 1A70     		strb	r2, [r3]
 164:.\Generated_Source\PSoC5/I2C_S_PM.c **** 
 165:.\Generated_Source\PSoC5/I2C_S_PM.c ****     if (0u != I2C_S_backup.enableState)
 130              		.loc 1 165 0
 131 001e 054B     		ldr	r3, .L6+4
 132 0020 1B78     		ldrb	r3, [r3]	@ zero_extendqisi2
 133 0022 002B     		cmp	r3, #0
 134 0024 01D0     		beq	.L5
 166:.\Generated_Source\PSoC5/I2C_S_PM.c ****     {
 167:.\Generated_Source\PSoC5/I2C_S_PM.c ****         I2C_S_Stop();
 135              		.loc 1 167 0
 136 0026 FFF7FEFF 		bl	I2C_S_Stop
 137              	.L5:
 168:.\Generated_Source\PSoC5/I2C_S_PM.c ****     }
 169:.\Generated_Source\PSoC5/I2C_S_PM.c **** #endif /* (I2C_S_WAKEUP_ENABLED) */
 170:.\Generated_Source\PSoC5/I2C_S_PM.c **** 
 171:.\Generated_Source\PSoC5/I2C_S_PM.c ****     I2C_S_SaveConfig();
 138              		.loc 1 171 0
 139 002a FFF7FEFF 		bl	I2C_S_SaveConfig
 172:.\Generated_Source\PSoC5/I2C_S_PM.c **** }
 140              		.loc 1 172 0
 141 002e 80BD     		pop	{r7, pc}
 142              	.L7:
 143              		.align	2
 144              	.L6:
 145 0030 A5430040 		.word	1073759141
 146 0034 00000000 		.word	I2C_S_backup
 147              		.cfi_endproc
 148              	.LFE1:
 149              		.size	I2C_S_Sleep, .-I2C_S_Sleep
 150              		.section	.text.I2C_S_RestoreConfig,"ax",%progbits
 151              		.align	2
 152              		.global	I2C_S_RestoreConfig
 153              		.thumb
 154              		.thumb_func
 155              		.type	I2C_S_RestoreConfig, %function
 156              	I2C_S_RestoreConfig:
 157              	.LFB2:
 173:.\Generated_Source\PSoC5/I2C_S_PM.c **** 
 174:.\Generated_Source\PSoC5/I2C_S_PM.c **** 
 175:.\Generated_Source\PSoC5/I2C_S_PM.c **** /*******************************************************************************
 176:.\Generated_Source\PSoC5/I2C_S_PM.c **** * Function Name: I2C_S_RestoreConfig
 177:.\Generated_Source\PSoC5/I2C_S_PM.c **** ********************************************************************************
 178:.\Generated_Source\PSoC5/I2C_S_PM.c **** *
 179:.\Generated_Source\PSoC5/I2C_S_PM.c **** * Summary:
 180:.\Generated_Source\PSoC5/I2C_S_PM.c **** *  The Enable wakeup from Sleep Mode selection influences this function
 181:.\Generated_Source\PSoC5/I2C_S_PM.c **** *  implementation:
 182:.\Generated_Source\PSoC5/I2C_S_PM.c **** *   Unchecked: Restores the component non-retention configuration registers
 183:.\Generated_Source\PSoC5/I2C_S_PM.c **** *              to the state they were in before I2C_Sleep() or I2C_SaveConfig()
 184:.\Generated_Source\PSoC5/I2C_S_PM.c **** *              was called.
 185:.\Generated_Source\PSoC5/I2C_S_PM.c **** *   Checked:   Disables the backup regulator of the I2C hardware. Sets up the
ARM GAS  C:\Users\LUKASC~1\AppData\Local\Temp\ccKTxC9g.s 			page 7


 186:.\Generated_Source\PSoC5/I2C_S_PM.c **** *              regular component interrupt handler and generates the component
 187:.\Generated_Source\PSoC5/I2C_S_PM.c **** *              interrupt if it was wake up source to release the bus and
 188:.\Generated_Source\PSoC5/I2C_S_PM.c **** *              continue in-coming I2C transaction.
 189:.\Generated_Source\PSoC5/I2C_S_PM.c **** *
 190:.\Generated_Source\PSoC5/I2C_S_PM.c **** * Parameters:
 191:.\Generated_Source\PSoC5/I2C_S_PM.c **** *  None.
 192:.\Generated_Source\PSoC5/I2C_S_PM.c **** *
 193:.\Generated_Source\PSoC5/I2C_S_PM.c **** * Return:
 194:.\Generated_Source\PSoC5/I2C_S_PM.c **** *  None.
 195:.\Generated_Source\PSoC5/I2C_S_PM.c **** *
 196:.\Generated_Source\PSoC5/I2C_S_PM.c **** * Global Variables:
 197:.\Generated_Source\PSoC5/I2C_S_PM.c **** *  I2C_S_backup - The global variable used to save the component
 198:.\Generated_Source\PSoC5/I2C_S_PM.c **** *                            configuration and non-retention registers before
 199:.\Generated_Source\PSoC5/I2C_S_PM.c **** *                            exiting the sleep mode.
 200:.\Generated_Source\PSoC5/I2C_S_PM.c **** *
 201:.\Generated_Source\PSoC5/I2C_S_PM.c **** * Reentrant:
 202:.\Generated_Source\PSoC5/I2C_S_PM.c **** *  No.
 203:.\Generated_Source\PSoC5/I2C_S_PM.c **** *
 204:.\Generated_Source\PSoC5/I2C_S_PM.c **** * Side Effects:
 205:.\Generated_Source\PSoC5/I2C_S_PM.c **** *  Calling this function before I2C_S_SaveConfig() or
 206:.\Generated_Source\PSoC5/I2C_S_PM.c **** *  I2C_S_Sleep() will lead to unpredictable results.
 207:.\Generated_Source\PSoC5/I2C_S_PM.c **** *
 208:.\Generated_Source\PSoC5/I2C_S_PM.c **** *******************************************************************************/
 209:.\Generated_Source\PSoC5/I2C_S_PM.c **** void I2C_S_RestoreConfig(void) 
 210:.\Generated_Source\PSoC5/I2C_S_PM.c **** {
 158              		.loc 1 210 0
 159              		.cfi_startproc
 160              		@ args = 0, pretend = 0, frame = 8
 161              		@ frame_needed = 1, uses_anonymous_args = 0
 162 0000 80B5     		push	{r7, lr}
 163              		.cfi_def_cfa_offset 8
 164              		.cfi_offset 7, -8
 165              		.cfi_offset 14, -4
 166 0002 82B0     		sub	sp, sp, #8
 167              		.cfi_def_cfa_offset 16
 168 0004 00AF     		add	r7, sp, #0
 169              		.cfi_def_cfa_register 7
 211:.\Generated_Source\PSoC5/I2C_S_PM.c **** #if (I2C_S_FF_IMPLEMENTED)
 212:.\Generated_Source\PSoC5/I2C_S_PM.c ****     uint8 intState;
 213:.\Generated_Source\PSoC5/I2C_S_PM.c **** 
 214:.\Generated_Source\PSoC5/I2C_S_PM.c ****     if (I2C_S_CHECK_PWRSYS_I2C_BACKUP)
 170              		.loc 1 214 0
 171 0006 1A4B     		ldr	r3, .L11
 172 0008 1B78     		ldrb	r3, [r3]
 173 000a DBB2     		uxtb	r3, r3
 174 000c 03F00403 		and	r3, r3, #4
 175 0010 DBB2     		uxtb	r3, r3
 176 0012 002B     		cmp	r3, #0
 177 0014 14D0     		beq	.L9
 215:.\Generated_Source\PSoC5/I2C_S_PM.c ****     /* Low power mode was Sleep - backup regulator is enabled */
 216:.\Generated_Source\PSoC5/I2C_S_PM.c ****     {
 217:.\Generated_Source\PSoC5/I2C_S_PM.c ****         /* Enable backup regulator in active mode */
 218:.\Generated_Source\PSoC5/I2C_S_PM.c ****         intState = CyEnterCriticalSection();
 178              		.loc 1 218 0
 179 0016 FFF7FEFF 		bl	CyEnterCriticalSection
 180 001a 0346     		mov	r3, r0
 181 001c FB71     		strb	r3, [r7, #7]
ARM GAS  C:\Users\LUKASC~1\AppData\Local\Temp\ccKTxC9g.s 			page 8


 219:.\Generated_Source\PSoC5/I2C_S_PM.c ****         I2C_S_PWRSYS_CR1_REG &= (uint8) ~I2C_S_PWRSYS_CR1_I2C_REG_BACKUP;
 182              		.loc 1 219 0
 183 001e 144A     		ldr	r2, .L11
 184 0020 134B     		ldr	r3, .L11
 185 0022 1B78     		ldrb	r3, [r3]
 186 0024 DBB2     		uxtb	r3, r3
 187 0026 23F00403 		bic	r3, r3, #4
 188 002a DBB2     		uxtb	r3, r3
 189 002c 1370     		strb	r3, [r2]
 220:.\Generated_Source\PSoC5/I2C_S_PM.c ****         CyExitCriticalSection(intState);
 190              		.loc 1 220 0
 191 002e FB79     		ldrb	r3, [r7, #7]	@ zero_extendqisi2
 192 0030 1846     		mov	r0, r3
 193 0032 FFF7FEFF 		bl	CyExitCriticalSection
 221:.\Generated_Source\PSoC5/I2C_S_PM.c **** 
 222:.\Generated_Source\PSoC5/I2C_S_PM.c ****         /* Restore master */
 223:.\Generated_Source\PSoC5/I2C_S_PM.c ****         I2C_S_CFG_REG = I2C_S_backup.cfg;
 194              		.loc 1 223 0
 195 0036 0F4B     		ldr	r3, .L11+4
 196 0038 0F4A     		ldr	r2, .L11+8
 197 003a 9278     		ldrb	r2, [r2, #2]	@ zero_extendqisi2
 198 003c 1A70     		strb	r2, [r3]
 199 003e 13E0     		b	.L8
 200              	.L9:
 224:.\Generated_Source\PSoC5/I2C_S_PM.c ****     }
 225:.\Generated_Source\PSoC5/I2C_S_PM.c ****     else
 226:.\Generated_Source\PSoC5/I2C_S_PM.c ****     /* Low power mode was Hibernate - backup regulator is disabled. All registers are cleared */
 227:.\Generated_Source\PSoC5/I2C_S_PM.c ****     {
 228:.\Generated_Source\PSoC5/I2C_S_PM.c ****     #if (I2C_S_WAKEUP_ENABLED)
 229:.\Generated_Source\PSoC5/I2C_S_PM.c ****         /* Disable power to block before register restore */
 230:.\Generated_Source\PSoC5/I2C_S_PM.c ****         intState = CyEnterCriticalSection();
 231:.\Generated_Source\PSoC5/I2C_S_PM.c ****         I2C_S_ACT_PWRMGR_REG  &= (uint8) ~I2C_S_ACT_PWR_EN;
 232:.\Generated_Source\PSoC5/I2C_S_PM.c ****         I2C_S_STBY_PWRMGR_REG &= (uint8) ~I2C_S_STBY_PWR_EN;
 233:.\Generated_Source\PSoC5/I2C_S_PM.c ****         CyExitCriticalSection(intState);
 234:.\Generated_Source\PSoC5/I2C_S_PM.c **** 
 235:.\Generated_Source\PSoC5/I2C_S_PM.c ****         /* Enable component in I2C_Wakeup() after register restore */
 236:.\Generated_Source\PSoC5/I2C_S_PM.c ****         I2C_S_backup.enableState = I2C_S_ENABLE;
 237:.\Generated_Source\PSoC5/I2C_S_PM.c ****     #endif /* (I2C_S_WAKEUP_ENABLED) */
 238:.\Generated_Source\PSoC5/I2C_S_PM.c **** 
 239:.\Generated_Source\PSoC5/I2C_S_PM.c ****         /* Restore component registers after Hibernate */
 240:.\Generated_Source\PSoC5/I2C_S_PM.c ****         I2C_S_XCFG_REG    = I2C_S_backup.xcfg;
 201              		.loc 1 240 0
 202 0040 0E4B     		ldr	r3, .L11+12
 203 0042 0D4A     		ldr	r2, .L11+8
 204 0044 5278     		ldrb	r2, [r2, #1]	@ zero_extendqisi2
 205 0046 1A70     		strb	r2, [r3]
 241:.\Generated_Source\PSoC5/I2C_S_PM.c ****         I2C_S_CFG_REG     = I2C_S_backup.cfg;
 206              		.loc 1 241 0
 207 0048 0A4B     		ldr	r3, .L11+4
 208 004a 0B4A     		ldr	r2, .L11+8
 209 004c 9278     		ldrb	r2, [r2, #2]	@ zero_extendqisi2
 210 004e 1A70     		strb	r2, [r3]
 242:.\Generated_Source\PSoC5/I2C_S_PM.c ****         I2C_S_ADDR_REG    = I2C_S_backup.addr;
 211              		.loc 1 242 0
 212 0050 0B4B     		ldr	r3, .L11+16
 213 0052 094A     		ldr	r2, .L11+8
 214 0054 D278     		ldrb	r2, [r2, #3]	@ zero_extendqisi2
ARM GAS  C:\Users\LUKASC~1\AppData\Local\Temp\ccKTxC9g.s 			page 9


 215 0056 1A70     		strb	r2, [r3]
 243:.\Generated_Source\PSoC5/I2C_S_PM.c ****         I2C_S_CLKDIV1_REG = I2C_S_backup.clkDiv1;
 216              		.loc 1 243 0
 217 0058 0A4B     		ldr	r3, .L11+20
 218 005a 074A     		ldr	r2, .L11+8
 219 005c 1279     		ldrb	r2, [r2, #4]	@ zero_extendqisi2
 220 005e 1A70     		strb	r2, [r3]
 244:.\Generated_Source\PSoC5/I2C_S_PM.c ****         I2C_S_CLKDIV2_REG = I2C_S_backup.clkDiv2;
 221              		.loc 1 244 0
 222 0060 094B     		ldr	r3, .L11+24
 223 0062 054A     		ldr	r2, .L11+8
 224 0064 5279     		ldrb	r2, [r2, #5]	@ zero_extendqisi2
 225 0066 1A70     		strb	r2, [r3]
 226              	.L8:
 245:.\Generated_Source\PSoC5/I2C_S_PM.c ****     }
 246:.\Generated_Source\PSoC5/I2C_S_PM.c **** 
 247:.\Generated_Source\PSoC5/I2C_S_PM.c **** #if (I2C_S_WAKEUP_ENABLED)
 248:.\Generated_Source\PSoC5/I2C_S_PM.c ****     I2C_S_DisableInt();
 249:.\Generated_Source\PSoC5/I2C_S_PM.c ****     (void) CyIntSetVector(I2C_S_ISR_NUMBER, &I2C_S_ISR);
 250:.\Generated_Source\PSoC5/I2C_S_PM.c ****     if (0u != I2C_S_wakeupSource)
 251:.\Generated_Source\PSoC5/I2C_S_PM.c ****     {
 252:.\Generated_Source\PSoC5/I2C_S_PM.c ****         /* Generate interrupt to process incoming transaction */
 253:.\Generated_Source\PSoC5/I2C_S_PM.c ****         I2C_S_SetPendingInt();
 254:.\Generated_Source\PSoC5/I2C_S_PM.c ****     }
 255:.\Generated_Source\PSoC5/I2C_S_PM.c ****     I2C_S_EnableInt();
 256:.\Generated_Source\PSoC5/I2C_S_PM.c **** #endif /* (I2C_S_WAKEUP_ENABLED) */
 257:.\Generated_Source\PSoC5/I2C_S_PM.c **** 
 258:.\Generated_Source\PSoC5/I2C_S_PM.c **** #else
 259:.\Generated_Source\PSoC5/I2C_S_PM.c ****     I2C_S_CFG_REG = I2C_S_backup.control;
 260:.\Generated_Source\PSoC5/I2C_S_PM.c **** #endif /* (I2C_S_FF_IMPLEMENTED) */
 261:.\Generated_Source\PSoC5/I2C_S_PM.c **** 
 262:.\Generated_Source\PSoC5/I2C_S_PM.c **** #if (I2C_S_TIMEOUT_ENABLED)
 263:.\Generated_Source\PSoC5/I2C_S_PM.c ****     I2C_S_TimeoutRestoreConfig();
 264:.\Generated_Source\PSoC5/I2C_S_PM.c **** #endif /* (I2C_S_TIMEOUT_ENABLED) */
 265:.\Generated_Source\PSoC5/I2C_S_PM.c **** }
 227              		.loc 1 265 0
 228 0068 0837     		adds	r7, r7, #8
 229              		.cfi_def_cfa_offset 8
 230 006a BD46     		mov	sp, r7
 231              		.cfi_def_cfa_register 13
 232              		@ sp needed
 233 006c 80BD     		pop	{r7, pc}
 234              	.L12:
 235 006e 00BF     		.align	2
 236              	.L11:
 237 0070 31430040 		.word	1073759025
 238 0074 D6490040 		.word	1073760726
 239 0078 00000000 		.word	I2C_S_backup
 240 007c C8490040 		.word	1073760712
 241 0080 CA490040 		.word	1073760714
 242 0084 DB490040 		.word	1073760731
 243 0088 DC490040 		.word	1073760732
 244              		.cfi_endproc
 245              	.LFE2:
 246              		.size	I2C_S_RestoreConfig, .-I2C_S_RestoreConfig
 247              		.section	.text.I2C_S_Wakeup,"ax",%progbits
 248              		.align	2
ARM GAS  C:\Users\LUKASC~1\AppData\Local\Temp\ccKTxC9g.s 			page 10


 249              		.global	I2C_S_Wakeup
 250              		.thumb
 251              		.thumb_func
 252              		.type	I2C_S_Wakeup, %function
 253              	I2C_S_Wakeup:
 254              	.LFB3:
 266:.\Generated_Source\PSoC5/I2C_S_PM.c **** 
 267:.\Generated_Source\PSoC5/I2C_S_PM.c **** 
 268:.\Generated_Source\PSoC5/I2C_S_PM.c **** /*******************************************************************************
 269:.\Generated_Source\PSoC5/I2C_S_PM.c **** * Function Name: I2C_S_Wakeup
 270:.\Generated_Source\PSoC5/I2C_S_PM.c **** ********************************************************************************
 271:.\Generated_Source\PSoC5/I2C_S_PM.c **** *
 272:.\Generated_Source\PSoC5/I2C_S_PM.c **** * Summary:
 273:.\Generated_Source\PSoC5/I2C_S_PM.c **** *  This is the preferred method to prepare the component for active mode
 274:.\Generated_Source\PSoC5/I2C_S_PM.c **** *  operation (when device exits sleep mode). The Enable wakeup from Sleep Mode
 275:.\Generated_Source\PSoC5/I2C_S_PM.c **** *  selection influences this function implementation:
 276:.\Generated_Source\PSoC5/I2C_S_PM.c **** *   Unchecked: Restores the component non-retention configuration registers
 277:.\Generated_Source\PSoC5/I2C_S_PM.c **** *              by calling I2C_RestoreConfig(). If the component was enabled
 278:.\Generated_Source\PSoC5/I2C_S_PM.c **** *              before the I2C_Sleep() function was called, I2C_Wakeup()
 279:.\Generated_Source\PSoC5/I2C_S_PM.c **** *              re-enables it.
 280:.\Generated_Source\PSoC5/I2C_S_PM.c **** *   Checked:   Enables  master functionality if it was enabled before sleep,
 281:.\Generated_Source\PSoC5/I2C_S_PM.c **** *              and disables the backup regulator of the I2C hardware.
 282:.\Generated_Source\PSoC5/I2C_S_PM.c **** *              The incoming transaction continues as soon as the regular
 283:.\Generated_Source\PSoC5/I2C_S_PM.c **** *              I2C interrupt handler is set up (global interrupts has to be
 284:.\Generated_Source\PSoC5/I2C_S_PM.c **** *              enabled to service I2C component interrupt).
 285:.\Generated_Source\PSoC5/I2C_S_PM.c **** *
 286:.\Generated_Source\PSoC5/I2C_S_PM.c **** * Parameters:
 287:.\Generated_Source\PSoC5/I2C_S_PM.c **** *  None.
 288:.\Generated_Source\PSoC5/I2C_S_PM.c **** *
 289:.\Generated_Source\PSoC5/I2C_S_PM.c **** * Return:
 290:.\Generated_Source\PSoC5/I2C_S_PM.c **** *  None.
 291:.\Generated_Source\PSoC5/I2C_S_PM.c **** *
 292:.\Generated_Source\PSoC5/I2C_S_PM.c **** * Reentrant:
 293:.\Generated_Source\PSoC5/I2C_S_PM.c **** *  No.
 294:.\Generated_Source\PSoC5/I2C_S_PM.c **** *
 295:.\Generated_Source\PSoC5/I2C_S_PM.c **** * Side Effects:
 296:.\Generated_Source\PSoC5/I2C_S_PM.c **** *  Calling this function before I2C_S_SaveConfig() or
 297:.\Generated_Source\PSoC5/I2C_S_PM.c **** *  I2C_S_Sleep() will lead to unpredictable results.
 298:.\Generated_Source\PSoC5/I2C_S_PM.c **** *
 299:.\Generated_Source\PSoC5/I2C_S_PM.c **** *******************************************************************************/
 300:.\Generated_Source\PSoC5/I2C_S_PM.c **** void I2C_S_Wakeup(void) 
 301:.\Generated_Source\PSoC5/I2C_S_PM.c **** {
 255              		.loc 1 301 0
 256              		.cfi_startproc
 257              		@ args = 0, pretend = 0, frame = 0
 258              		@ frame_needed = 1, uses_anonymous_args = 0
 259 0000 80B5     		push	{r7, lr}
 260              		.cfi_def_cfa_offset 8
 261              		.cfi_offset 7, -8
 262              		.cfi_offset 14, -4
 263 0002 00AF     		add	r7, sp, #0
 264              		.cfi_def_cfa_register 7
 302:.\Generated_Source\PSoC5/I2C_S_PM.c ****     I2C_S_RestoreConfig();
 265              		.loc 1 302 0
 266 0004 FFF7FEFF 		bl	I2C_S_RestoreConfig
 303:.\Generated_Source\PSoC5/I2C_S_PM.c **** 
 304:.\Generated_Source\PSoC5/I2C_S_PM.c ****     /* Restore component enable state */
ARM GAS  C:\Users\LUKASC~1\AppData\Local\Temp\ccKTxC9g.s 			page 11


 305:.\Generated_Source\PSoC5/I2C_S_PM.c ****     if (0u != I2C_S_backup.enableState)
 267              		.loc 1 305 0
 268 0008 054B     		ldr	r3, .L15
 269 000a 1B78     		ldrb	r3, [r3]	@ zero_extendqisi2
 270 000c 002B     		cmp	r3, #0
 271 000e 05D0     		beq	.L13
 306:.\Generated_Source\PSoC5/I2C_S_PM.c ****     {
 307:.\Generated_Source\PSoC5/I2C_S_PM.c ****         I2C_S_Enable();
 272              		.loc 1 307 0
 273 0010 FFF7FEFF 		bl	I2C_S_Enable
 308:.\Generated_Source\PSoC5/I2C_S_PM.c ****         I2C_S_EnableInt();
 274              		.loc 1 308 0
 275 0014 034B     		ldr	r3, .L15+4
 276 0016 4FF40042 		mov	r2, #32768
 277 001a 1A60     		str	r2, [r3]
 278              	.L13:
 309:.\Generated_Source\PSoC5/I2C_S_PM.c ****     }
 310:.\Generated_Source\PSoC5/I2C_S_PM.c ****     else
 311:.\Generated_Source\PSoC5/I2C_S_PM.c ****     {
 312:.\Generated_Source\PSoC5/I2C_S_PM.c ****     #if (I2C_S_TIMEOUT_ENABLED)
 313:.\Generated_Source\PSoC5/I2C_S_PM.c ****         I2C_S_TimeoutEnable();
 314:.\Generated_Source\PSoC5/I2C_S_PM.c ****     #endif /* (I2C_S_TIMEOUT_ENABLED) */
 315:.\Generated_Source\PSoC5/I2C_S_PM.c ****     }
 316:.\Generated_Source\PSoC5/I2C_S_PM.c **** }
 279              		.loc 1 316 0
 280 001c 80BD     		pop	{r7, pc}
 281              	.L16:
 282 001e 00BF     		.align	2
 283              	.L15:
 284 0020 00000000 		.word	I2C_S_backup
 285 0024 00E100E0 		.word	-536813312
 286              		.cfi_endproc
 287              	.LFE3:
 288              		.size	I2C_S_Wakeup, .-I2C_S_Wakeup
 289              		.text
 290              	.Letext0:
 291              		.file 2 ".\\Generated_Source\\PSoC5\\cytypes.h"
 292              		.file 3 ".\\Generated_Source\\PSoC5\\I2C_S.h"