ARM GAS  C:\Users\LUKASC~1\AppData\Local\Temp\cc6PxJXw.s 			page 1


   1              		.syntax unified
   2              		.cpu cortex-m3
   3              		.fpu softvfp
   4              		.eabi_attribute 20, 1
   5              		.eabi_attribute 21, 1
   6              		.eabi_attribute 23, 3
   7              		.eabi_attribute 24, 1
   8              		.eabi_attribute 25, 1
   9              		.eabi_attribute 26, 1
  10              		.eabi_attribute 30, 6
  11              		.eabi_attribute 34, 1
  12              		.eabi_attribute 18, 4
  13              		.thumb
  14              		.file	"USBUART_hid.c"
  15              		.text
  16              	.Ltext0:
  17              		.cfi_sections	.debug_frame
  18              		.comm	USBUART_hidProtocol,2,4
  19              		.comm	USBUART_hidIdleRate,2,4
  20              		.comm	USBUART_hidIdleTimer,2,4
  21              		.section	.text.USBUART_UpdateHIDTimer,"ax",%progbits
  22              		.align	2
  23              		.global	USBUART_UpdateHIDTimer
  24              		.thumb
  25              		.thumb_func
  26              		.type	USBUART_UpdateHIDTimer, %function
  27              	USBUART_UpdateHIDTimer:
  28              	.LFB0:
  29              		.file 1 ".\\Generated_Source\\PSoC5\\USBUART_hid.c"
   1:.\Generated_Source\PSoC5/USBUART_hid.c **** /***************************************************************************//**
   2:.\Generated_Source\PSoC5/USBUART_hid.c **** * \file USBUART_hid.c
   3:.\Generated_Source\PSoC5/USBUART_hid.c **** * \version 3.0
   4:.\Generated_Source\PSoC5/USBUART_hid.c **** *
   5:.\Generated_Source\PSoC5/USBUART_hid.c **** * \brief
   6:.\Generated_Source\PSoC5/USBUART_hid.c **** *  This file contains the USB HID Class request handler. 
   7:.\Generated_Source\PSoC5/USBUART_hid.c **** *
   8:.\Generated_Source\PSoC5/USBUART_hid.c **** * Related Document:
   9:.\Generated_Source\PSoC5/USBUART_hid.c **** *  Device Class Definition for Human Interface Devices (HID) Version 1.11
  10:.\Generated_Source\PSoC5/USBUART_hid.c **** *
  11:.\Generated_Source\PSoC5/USBUART_hid.c **** ********************************************************************************
  12:.\Generated_Source\PSoC5/USBUART_hid.c **** * \copyright
  13:.\Generated_Source\PSoC5/USBUART_hid.c **** * Copyright 2008-2015, Cypress Semiconductor Corporation.  All rights reserved.
  14:.\Generated_Source\PSoC5/USBUART_hid.c **** * You may use this file only in accordance with the license, terms, conditions,
  15:.\Generated_Source\PSoC5/USBUART_hid.c **** * disclaimers, and limitations in the end user license agreement accompanying
  16:.\Generated_Source\PSoC5/USBUART_hid.c **** * the software package with which this file was provided.
  17:.\Generated_Source\PSoC5/USBUART_hid.c **** *******************************************************************************/
  18:.\Generated_Source\PSoC5/USBUART_hid.c **** 
  19:.\Generated_Source\PSoC5/USBUART_hid.c **** #include "USBUART_hid.h"
  20:.\Generated_Source\PSoC5/USBUART_hid.c **** #include "USBUART_pvt.h"
  21:.\Generated_Source\PSoC5/USBUART_hid.c **** #include "cyapicallbacks.h"
  22:.\Generated_Source\PSoC5/USBUART_hid.c **** 
  23:.\Generated_Source\PSoC5/USBUART_hid.c **** 
  24:.\Generated_Source\PSoC5/USBUART_hid.c **** #if defined(USBUART_ENABLE_HID_CLASS)
  25:.\Generated_Source\PSoC5/USBUART_hid.c **** 
  26:.\Generated_Source\PSoC5/USBUART_hid.c **** /***************************************
  27:.\Generated_Source\PSoC5/USBUART_hid.c **** *    HID Variables
  28:.\Generated_Source\PSoC5/USBUART_hid.c **** ***************************************/
ARM GAS  C:\Users\LUKASC~1\AppData\Local\Temp\cc6PxJXw.s 			page 2


  29:.\Generated_Source\PSoC5/USBUART_hid.c **** /** This variable is initialized in the USBFS_InitComponent() API to the 
  30:.\Generated_Source\PSoC5/USBUART_hid.c ****  * PROTOCOL_REPORT value. It is controlled by the host using the 
  31:.\Generated_Source\PSoC5/USBUART_hid.c ****  * HID_SET_PROTOCOL request. The value is returned to the user code by the 
  32:.\Generated_Source\PSoC5/USBUART_hid.c ****  * USBFS_GetProtocol() API.*/
  33:.\Generated_Source\PSoC5/USBUART_hid.c **** volatile uint8 USBUART_hidProtocol[USBUART_MAX_INTERFACES_NUMBER];
  34:.\Generated_Source\PSoC5/USBUART_hid.c **** 
  35:.\Generated_Source\PSoC5/USBUART_hid.c **** /** This variable controls the HID report rate. It is controlled by the host 
  36:.\Generated_Source\PSoC5/USBUART_hid.c ****  * using the HID_SET_IDLE request and used by the USBFS_UpdateHIDTimer() API to 
  37:.\Generated_Source\PSoC5/USBUART_hid.c ****  * reload timer.*/
  38:.\Generated_Source\PSoC5/USBUART_hid.c **** volatile uint8 USBUART_hidIdleRate[USBUART_MAX_INTERFACES_NUMBER];
  39:.\Generated_Source\PSoC5/USBUART_hid.c **** 
  40:.\Generated_Source\PSoC5/USBUART_hid.c **** /** This variable contains the timer counter, which is decremented and reloaded 
  41:.\Generated_Source\PSoC5/USBUART_hid.c ****  * by the USBFS_UpdateHIDTimer() API.*/
  42:.\Generated_Source\PSoC5/USBUART_hid.c **** volatile uint8 USBUART_hidIdleTimer[USBUART_MAX_INTERFACES_NUMBER]; /* HID device idle rate value *
  43:.\Generated_Source\PSoC5/USBUART_hid.c **** 
  44:.\Generated_Source\PSoC5/USBUART_hid.c **** 
  45:.\Generated_Source\PSoC5/USBUART_hid.c **** /***************************************
  46:.\Generated_Source\PSoC5/USBUART_hid.c **** * Custom Declarations
  47:.\Generated_Source\PSoC5/USBUART_hid.c **** ***************************************/
  48:.\Generated_Source\PSoC5/USBUART_hid.c **** 
  49:.\Generated_Source\PSoC5/USBUART_hid.c **** /* `#START HID_CUSTOM_DECLARATIONS` Place your declaration here */
  50:.\Generated_Source\PSoC5/USBUART_hid.c **** 
  51:.\Generated_Source\PSoC5/USBUART_hid.c **** /* `#END` */
  52:.\Generated_Source\PSoC5/USBUART_hid.c **** 
  53:.\Generated_Source\PSoC5/USBUART_hid.c **** 
  54:.\Generated_Source\PSoC5/USBUART_hid.c **** /*******************************************************************************
  55:.\Generated_Source\PSoC5/USBUART_hid.c **** * Function Name: USBUART_UpdateHIDTimer
  56:.\Generated_Source\PSoC5/USBUART_hid.c **** ****************************************************************************//**
  57:.\Generated_Source\PSoC5/USBUART_hid.c **** *
  58:.\Generated_Source\PSoC5/USBUART_hid.c **** *  This function updates the HID Report idle timer and returns the status and 
  59:.\Generated_Source\PSoC5/USBUART_hid.c **** *  reloads the timer if it expires.
  60:.\Generated_Source\PSoC5/USBUART_hid.c **** *
  61:.\Generated_Source\PSoC5/USBUART_hid.c **** *  \param interface Contains the interface number.
  62:.\Generated_Source\PSoC5/USBUART_hid.c **** *
  63:.\Generated_Source\PSoC5/USBUART_hid.c **** * \return
  64:.\Generated_Source\PSoC5/USBUART_hid.c **** *  Returns the state of the HID timer. Symbolic names and their associated values are given here:
  65:.\Generated_Source\PSoC5/USBUART_hid.c **** *  Return Value               |Notes
  66:.\Generated_Source\PSoC5/USBUART_hid.c **** *  ---------------------------|------------------------------------------------
  67:.\Generated_Source\PSoC5/USBUART_hid.c **** *  USBFS_IDLE_TIMER_EXPIRED   | The timer expired.
  68:.\Generated_Source\PSoC5/USBUART_hid.c **** *  USBFS_IDLE_TIMER_RUNNING   | The timer is running.
  69:.\Generated_Source\PSoC5/USBUART_hid.c **** *  USBFS_IDLE_TIMER_IDEFINITE | The report is sent when data or state changes.
  70:.\Generated_Source\PSoC5/USBUART_hid.c **** *
  71:.\Generated_Source\PSoC5/USBUART_hid.c **** *
  72:.\Generated_Source\PSoC5/USBUART_hid.c **** * \reentrant
  73:.\Generated_Source\PSoC5/USBUART_hid.c **** *  No.
  74:.\Generated_Source\PSoC5/USBUART_hid.c **** *
  75:.\Generated_Source\PSoC5/USBUART_hid.c **** *******************************************************************************/
  76:.\Generated_Source\PSoC5/USBUART_hid.c **** uint8 USBUART_UpdateHIDTimer(uint8 interface) 
  77:.\Generated_Source\PSoC5/USBUART_hid.c **** {
  30              		.loc 1 77 0
  31              		.cfi_startproc
  32              		@ args = 0, pretend = 0, frame = 16
  33              		@ frame_needed = 1, uses_anonymous_args = 0
  34              		@ link register save eliminated.
  35 0000 80B4     		push	{r7}
  36              		.cfi_def_cfa_offset 4
  37              		.cfi_offset 7, -4
ARM GAS  C:\Users\LUKASC~1\AppData\Local\Temp\cc6PxJXw.s 			page 3


  38 0002 85B0     		sub	sp, sp, #20
  39              		.cfi_def_cfa_offset 24
  40 0004 00AF     		add	r7, sp, #0
  41              		.cfi_def_cfa_register 7
  42 0006 0346     		mov	r3, r0
  43 0008 FB71     		strb	r3, [r7, #7]
  78:.\Generated_Source\PSoC5/USBUART_hid.c ****     uint8 stat = USBUART_IDLE_TIMER_INDEFINITE;
  44              		.loc 1 78 0
  45 000a 0023     		movs	r3, #0
  46 000c FB73     		strb	r3, [r7, #15]
  79:.\Generated_Source\PSoC5/USBUART_hid.c **** 
  80:.\Generated_Source\PSoC5/USBUART_hid.c ****     if(USBUART_hidIdleRate[interface] != 0u)
  47              		.loc 1 80 0
  48 000e FB79     		ldrb	r3, [r7, #7]	@ zero_extendqisi2
  49 0010 124A     		ldr	r2, .L5
  50 0012 D35C     		ldrb	r3, [r2, r3]
  51 0014 DBB2     		uxtb	r3, r3
  52 0016 002B     		cmp	r3, #0
  53 0018 19D0     		beq	.L2
  81:.\Generated_Source\PSoC5/USBUART_hid.c ****     {
  82:.\Generated_Source\PSoC5/USBUART_hid.c ****         if(USBUART_hidIdleTimer[interface] > 0u)
  54              		.loc 1 82 0
  55 001a FB79     		ldrb	r3, [r7, #7]	@ zero_extendqisi2
  56 001c 104A     		ldr	r2, .L5+4
  57 001e D35C     		ldrb	r3, [r2, r3]
  58 0020 DBB2     		uxtb	r3, r3
  59 0022 002B     		cmp	r3, #0
  60 0024 0AD0     		beq	.L3
  83:.\Generated_Source\PSoC5/USBUART_hid.c ****         {
  84:.\Generated_Source\PSoC5/USBUART_hid.c ****             USBUART_hidIdleTimer[interface]--;
  61              		.loc 1 84 0
  62 0026 FB79     		ldrb	r3, [r7, #7]	@ zero_extendqisi2
  63 0028 0D4A     		ldr	r2, .L5+4
  64 002a D25C     		ldrb	r2, [r2, r3]
  65 002c D2B2     		uxtb	r2, r2
  66 002e 013A     		subs	r2, r2, #1
  67 0030 D1B2     		uxtb	r1, r2
  68 0032 0B4A     		ldr	r2, .L5+4
  69 0034 D154     		strb	r1, [r2, r3]
  85:.\Generated_Source\PSoC5/USBUART_hid.c ****             stat = USBUART_IDLE_TIMER_RUNNING;
  70              		.loc 1 85 0
  71 0036 0223     		movs	r3, #2
  72 0038 FB73     		strb	r3, [r7, #15]
  73 003a 08E0     		b	.L2
  74              	.L3:
  86:.\Generated_Source\PSoC5/USBUART_hid.c ****         }
  87:.\Generated_Source\PSoC5/USBUART_hid.c ****         else
  88:.\Generated_Source\PSoC5/USBUART_hid.c ****         {
  89:.\Generated_Source\PSoC5/USBUART_hid.c ****             USBUART_hidIdleTimer[interface] = USBUART_hidIdleRate[interface];
  75              		.loc 1 89 0
  76 003c FB79     		ldrb	r3, [r7, #7]	@ zero_extendqisi2
  77 003e FA79     		ldrb	r2, [r7, #7]	@ zero_extendqisi2
  78 0040 0649     		ldr	r1, .L5
  79 0042 8A5C     		ldrb	r2, [r1, r2]
  80 0044 D1B2     		uxtb	r1, r2
  81 0046 064A     		ldr	r2, .L5+4
  82 0048 D154     		strb	r1, [r2, r3]
ARM GAS  C:\Users\LUKASC~1\AppData\Local\Temp\cc6PxJXw.s 			page 4


  90:.\Generated_Source\PSoC5/USBUART_hid.c ****             stat = USBUART_IDLE_TIMER_EXPIRED;
  83              		.loc 1 90 0
  84 004a 0123     		movs	r3, #1
  85 004c FB73     		strb	r3, [r7, #15]
  86              	.L2:
  91:.\Generated_Source\PSoC5/USBUART_hid.c ****         }
  92:.\Generated_Source\PSoC5/USBUART_hid.c ****     }
  93:.\Generated_Source\PSoC5/USBUART_hid.c **** 
  94:.\Generated_Source\PSoC5/USBUART_hid.c ****     return((uint8)stat);
  87              		.loc 1 94 0
  88 004e FB7B     		ldrb	r3, [r7, #15]	@ zero_extendqisi2
  95:.\Generated_Source\PSoC5/USBUART_hid.c **** }
  89              		.loc 1 95 0
  90 0050 1846     		mov	r0, r3
  91 0052 1437     		adds	r7, r7, #20
  92              		.cfi_def_cfa_offset 4
  93 0054 BD46     		mov	sp, r7
  94              		.cfi_def_cfa_register 13
  95              		@ sp needed
  96 0056 5DF8047B 		ldr	r7, [sp], #4
  97              		.cfi_restore 7
  98              		.cfi_def_cfa_offset 0
  99 005a 7047     		bx	lr
 100              	.L6:
 101              		.align	2
 102              	.L5:
 103 005c 00000000 		.word	USBUART_hidIdleRate
 104 0060 00000000 		.word	USBUART_hidIdleTimer
 105              		.cfi_endproc
 106              	.LFE0:
 107              		.size	USBUART_UpdateHIDTimer, .-USBUART_UpdateHIDTimer
 108              		.section	.text.USBUART_GetProtocol,"ax",%progbits
 109              		.align	2
 110              		.global	USBUART_GetProtocol
 111              		.thumb
 112              		.thumb_func
 113              		.type	USBUART_GetProtocol, %function
 114              	USBUART_GetProtocol:
 115              	.LFB1:
  96:.\Generated_Source\PSoC5/USBUART_hid.c **** 
  97:.\Generated_Source\PSoC5/USBUART_hid.c **** 
  98:.\Generated_Source\PSoC5/USBUART_hid.c **** /*******************************************************************************
  99:.\Generated_Source\PSoC5/USBUART_hid.c **** * Function Name: USBUART_GetProtocol
 100:.\Generated_Source\PSoC5/USBUART_hid.c **** ****************************************************************************//**
 101:.\Generated_Source\PSoC5/USBUART_hid.c **** *
 102:.\Generated_Source\PSoC5/USBUART_hid.c **** *  This function returns the HID protocol value for the selected interface.
 103:.\Generated_Source\PSoC5/USBUART_hid.c **** *
 104:.\Generated_Source\PSoC5/USBUART_hid.c **** *  \param interface:  Contains the interface number.
 105:.\Generated_Source\PSoC5/USBUART_hid.c **** *
 106:.\Generated_Source\PSoC5/USBUART_hid.c **** *  \return
 107:.\Generated_Source\PSoC5/USBUART_hid.c **** *  Returns the protocol value. 
 108:.\Generated_Source\PSoC5/USBUART_hid.c **** *
 109:.\Generated_Source\PSoC5/USBUART_hid.c **** *******************************************************************************/
 110:.\Generated_Source\PSoC5/USBUART_hid.c **** uint8 USBUART_GetProtocol(uint8 interface) 
 111:.\Generated_Source\PSoC5/USBUART_hid.c **** {
 116              		.loc 1 111 0
 117              		.cfi_startproc
ARM GAS  C:\Users\LUKASC~1\AppData\Local\Temp\cc6PxJXw.s 			page 5


 118              		@ args = 0, pretend = 0, frame = 8
 119              		@ frame_needed = 1, uses_anonymous_args = 0
 120              		@ link register save eliminated.
 121 0000 80B4     		push	{r7}
 122              		.cfi_def_cfa_offset 4
 123              		.cfi_offset 7, -4
 124 0002 83B0     		sub	sp, sp, #12
 125              		.cfi_def_cfa_offset 16
 126 0004 00AF     		add	r7, sp, #0
 127              		.cfi_def_cfa_register 7
 128 0006 0346     		mov	r3, r0
 129 0008 FB71     		strb	r3, [r7, #7]
 112:.\Generated_Source\PSoC5/USBUART_hid.c ****     return(USBUART_hidProtocol[interface]);
 130              		.loc 1 112 0
 131 000a FB79     		ldrb	r3, [r7, #7]	@ zero_extendqisi2
 132 000c 044A     		ldr	r2, .L9
 133 000e D35C     		ldrb	r3, [r2, r3]
 134 0010 DBB2     		uxtb	r3, r3
 113:.\Generated_Source\PSoC5/USBUART_hid.c **** }
 135              		.loc 1 113 0
 136 0012 1846     		mov	r0, r3
 137 0014 0C37     		adds	r7, r7, #12
 138              		.cfi_def_cfa_offset 4
 139 0016 BD46     		mov	sp, r7
 140              		.cfi_def_cfa_register 13
 141              		@ sp needed
 142 0018 5DF8047B 		ldr	r7, [sp], #4
 143              		.cfi_restore 7
 144              		.cfi_def_cfa_offset 0
 145 001c 7047     		bx	lr
 146              	.L10:
 147 001e 00BF     		.align	2
 148              	.L9:
 149 0020 00000000 		.word	USBUART_hidProtocol
 150              		.cfi_endproc
 151              	.LFE1:
 152              		.size	USBUART_GetProtocol, .-USBUART_GetProtocol
 153              		.section	.text.USBUART_DispatchHIDClassRqst,"ax",%progbits
 154              		.align	2
 155              		.global	USBUART_DispatchHIDClassRqst
 156              		.thumb
 157              		.thumb_func
 158              		.type	USBUART_DispatchHIDClassRqst, %function
 159              	USBUART_DispatchHIDClassRqst:
 160              	.LFB2:
 114:.\Generated_Source\PSoC5/USBUART_hid.c **** 
 115:.\Generated_Source\PSoC5/USBUART_hid.c **** 
 116:.\Generated_Source\PSoC5/USBUART_hid.c **** /*******************************************************************************
 117:.\Generated_Source\PSoC5/USBUART_hid.c **** * Function Name: USBUART_DispatchHIDClassRqst
 118:.\Generated_Source\PSoC5/USBUART_hid.c **** ****************************************************************************//**
 119:.\Generated_Source\PSoC5/USBUART_hid.c **** *
 120:.\Generated_Source\PSoC5/USBUART_hid.c **** *  This routine dispatches class requests
 121:.\Generated_Source\PSoC5/USBUART_hid.c **** *
 122:.\Generated_Source\PSoC5/USBUART_hid.c **** * \return
 123:.\Generated_Source\PSoC5/USBUART_hid.c **** *  Results of HID Class request handling: 
 124:.\Generated_Source\PSoC5/USBUART_hid.c **** *  - USBUART_TRUE  - request was handled without errors
 125:.\Generated_Source\PSoC5/USBUART_hid.c **** *  - USBUART_FALSE - error occurs during handling of request  
ARM GAS  C:\Users\LUKASC~1\AppData\Local\Temp\cc6PxJXw.s 			page 6


 126:.\Generated_Source\PSoC5/USBUART_hid.c **** *
 127:.\Generated_Source\PSoC5/USBUART_hid.c **** * \reentrant
 128:.\Generated_Source\PSoC5/USBUART_hid.c **** *  No.
 129:.\Generated_Source\PSoC5/USBUART_hid.c **** *
 130:.\Generated_Source\PSoC5/USBUART_hid.c **** *******************************************************************************/
 131:.\Generated_Source\PSoC5/USBUART_hid.c **** uint8 USBUART_DispatchHIDClassRqst(void) 
 132:.\Generated_Source\PSoC5/USBUART_hid.c **** {
 161              		.loc 1 132 0
 162              		.cfi_startproc
 163              		@ args = 0, pretend = 0, frame = 8
 164              		@ frame_needed = 1, uses_anonymous_args = 0
 165 0000 80B5     		push	{r7, lr}
 166              		.cfi_def_cfa_offset 8
 167              		.cfi_offset 7, -8
 168              		.cfi_offset 14, -4
 169 0002 82B0     		sub	sp, sp, #8
 170              		.cfi_def_cfa_offset 16
 171 0004 00AF     		add	r7, sp, #0
 172              		.cfi_def_cfa_register 7
 133:.\Generated_Source\PSoC5/USBUART_hid.c ****     uint8 requestHandled = USBUART_FALSE;
 173              		.loc 1 133 0
 174 0006 0023     		movs	r3, #0
 175 0008 FB71     		strb	r3, [r7, #7]
 134:.\Generated_Source\PSoC5/USBUART_hid.c **** 
 135:.\Generated_Source\PSoC5/USBUART_hid.c ****     uint8 interfaceNumber = (uint8) USBUART_wIndexLoReg;
 176              		.loc 1 135 0
 177 000a 6C4B     		ldr	r3, .L40
 178 000c 1B79     		ldrb	r3, [r3, #4]
 179 000e BB71     		strb	r3, [r7, #6]
 136:.\Generated_Source\PSoC5/USBUART_hid.c ****     
 137:.\Generated_Source\PSoC5/USBUART_hid.c ****     /* Check request direction: D2H or H2D. */
 138:.\Generated_Source\PSoC5/USBUART_hid.c ****     if (0u != (USBUART_bmRequestTypeReg & USBUART_RQST_DIR_D2H))
 180              		.loc 1 138 0
 181 0010 6A4B     		ldr	r3, .L40
 182 0012 1B78     		ldrb	r3, [r3]
 183 0014 DBB2     		uxtb	r3, r3
 184 0016 DBB2     		uxtb	r3, r3
 185 0018 5BB2     		sxtb	r3, r3
 186 001a 002B     		cmp	r3, #0
 187 001c 6DDA     		bge	.L12
 139:.\Generated_Source\PSoC5/USBUART_hid.c ****     {
 140:.\Generated_Source\PSoC5/USBUART_hid.c ****         /* Handle direction from device to host. */
 141:.\Generated_Source\PSoC5/USBUART_hid.c ****         
 142:.\Generated_Source\PSoC5/USBUART_hid.c ****         switch (USBUART_bRequestReg)
 188              		.loc 1 142 0
 189 001e 674B     		ldr	r3, .L40
 190 0020 5B78     		ldrb	r3, [r3, #1]
 191 0022 DBB2     		uxtb	r3, r3
 192 0024 013B     		subs	r3, r3, #1
 193 0026 052B     		cmp	r3, #5
 194 0028 65D8     		bhi	.L38
 195 002a 01A2     		adr	r2, .L15
 196 002c 52F823F0 		ldr	pc, [r2, r3, lsl #2]
 197              		.p2align 2
 198              	.L15:
 199 0030 8F000000 		.word	.L14+1
 200 0034 A9000000 		.word	.L16+1
ARM GAS  C:\Users\LUKASC~1\AppData\Local\Temp\cc6PxJXw.s 			page 7


 201 0038 D5000000 		.word	.L17+1
 202 003c F7000000 		.word	.L38+1
 203 0040 F7000000 		.word	.L38+1
 204 0044 49000000 		.word	.L18+1
 205              		.p2align 1
 206              	.L18:
 143:.\Generated_Source\PSoC5/USBUART_hid.c ****         {
 144:.\Generated_Source\PSoC5/USBUART_hid.c ****             case USBUART_GET_DESCRIPTOR:
 145:.\Generated_Source\PSoC5/USBUART_hid.c ****                 if (USBUART_wValueHiReg == USBUART_DESCR_HID_CLASS)
 207              		.loc 1 145 0
 208 0048 5C4B     		ldr	r3, .L40
 209 004a DB78     		ldrb	r3, [r3, #3]
 210 004c DBB2     		uxtb	r3, r3
 211 004e 212B     		cmp	r3, #33
 212 0050 0BD1     		bne	.L19
 146:.\Generated_Source\PSoC5/USBUART_hid.c ****                 {
 147:.\Generated_Source\PSoC5/USBUART_hid.c ****                     USBUART_FindHidClassDecriptor();
 213              		.loc 1 147 0
 214 0052 FFF7FEFF 		bl	USBUART_FindHidClassDecriptor
 148:.\Generated_Source\PSoC5/USBUART_hid.c ****                     if (USBUART_currentTD.count != 0u)
 215              		.loc 1 148 0
 216 0056 5A4B     		ldr	r3, .L40+4
 217 0058 1B88     		ldrh	r3, [r3]	@ movhi
 218 005a 9BB2     		uxth	r3, r3
 219 005c 002B     		cmp	r3, #0
 220 005e 15D0     		beq	.L21
 149:.\Generated_Source\PSoC5/USBUART_hid.c ****                     {
 150:.\Generated_Source\PSoC5/USBUART_hid.c ****                         requestHandled = USBUART_InitControlRead();
 221              		.loc 1 150 0
 222 0060 FFF7FEFF 		bl	USBUART_InitControlRead
 223 0064 0346     		mov	r3, r0
 224 0066 FB71     		strb	r3, [r7, #7]
 151:.\Generated_Source\PSoC5/USBUART_hid.c ****                     }
 152:.\Generated_Source\PSoC5/USBUART_hid.c ****                 }
 153:.\Generated_Source\PSoC5/USBUART_hid.c ****                 else if (USBUART_wValueHiReg == USBUART_DESCR_HID_REPORT)
 154:.\Generated_Source\PSoC5/USBUART_hid.c ****                 {
 155:.\Generated_Source\PSoC5/USBUART_hid.c ****                     USBUART_FindReportDescriptor();
 156:.\Generated_Source\PSoC5/USBUART_hid.c ****                     if (USBUART_currentTD.count != 0u)
 157:.\Generated_Source\PSoC5/USBUART_hid.c ****                     {
 158:.\Generated_Source\PSoC5/USBUART_hid.c ****                         requestHandled = USBUART_InitControlRead();
 159:.\Generated_Source\PSoC5/USBUART_hid.c ****                     }
 160:.\Generated_Source\PSoC5/USBUART_hid.c ****                 }
 161:.\Generated_Source\PSoC5/USBUART_hid.c ****                 else
 162:.\Generated_Source\PSoC5/USBUART_hid.c ****                 {   
 163:.\Generated_Source\PSoC5/USBUART_hid.c ****                     /* Do not handle this request. */
 164:.\Generated_Source\PSoC5/USBUART_hid.c ****                 }
 165:.\Generated_Source\PSoC5/USBUART_hid.c ****                 break;
 225              		.loc 1 165 0
 226 0068 46E0     		b	.L23
 227              	.L19:
 153:.\Generated_Source\PSoC5/USBUART_hid.c ****                 {
 228              		.loc 1 153 0
 229 006a 544B     		ldr	r3, .L40
 230 006c DB78     		ldrb	r3, [r3, #3]
 231 006e DBB2     		uxtb	r3, r3
 232 0070 222B     		cmp	r3, #34
 233 0072 0BD1     		bne	.L21
ARM GAS  C:\Users\LUKASC~1\AppData\Local\Temp\cc6PxJXw.s 			page 8


 155:.\Generated_Source\PSoC5/USBUART_hid.c ****                     if (USBUART_currentTD.count != 0u)
 234              		.loc 1 155 0
 235 0074 FFF7FEFF 		bl	USBUART_FindReportDescriptor
 156:.\Generated_Source\PSoC5/USBUART_hid.c ****                     {
 236              		.loc 1 156 0
 237 0078 514B     		ldr	r3, .L40+4
 238 007a 1B88     		ldrh	r3, [r3]	@ movhi
 239 007c 9BB2     		uxth	r3, r3
 240 007e 002B     		cmp	r3, #0
 241 0080 04D0     		beq	.L21
 158:.\Generated_Source\PSoC5/USBUART_hid.c ****                     }
 242              		.loc 1 158 0
 243 0082 FFF7FEFF 		bl	USBUART_InitControlRead
 244 0086 0346     		mov	r3, r0
 245 0088 FB71     		strb	r3, [r7, #7]
 246              		.loc 1 165 0
 247 008a 35E0     		b	.L23
 248              	.L21:
 249              		.loc 1 165 0 is_stmt 0 discriminator 1
 250 008c 34E0     		b	.L23
 251              	.L14:
 166:.\Generated_Source\PSoC5/USBUART_hid.c ****                 
 167:.\Generated_Source\PSoC5/USBUART_hid.c ****             case USBUART_HID_GET_REPORT:
 168:.\Generated_Source\PSoC5/USBUART_hid.c ****                 USBUART_FindReport();
 252              		.loc 1 168 0 is_stmt 1
 253 008e FFF7FEFF 		bl	USBUART_FindReport
 169:.\Generated_Source\PSoC5/USBUART_hid.c ****                 if (USBUART_currentTD.count != 0u)
 254              		.loc 1 169 0
 255 0092 4B4B     		ldr	r3, .L40+4
 256 0094 1B88     		ldrh	r3, [r3]	@ movhi
 257 0096 9BB2     		uxth	r3, r3
 258 0098 002B     		cmp	r3, #0
 259 009a 04D0     		beq	.L24
 170:.\Generated_Source\PSoC5/USBUART_hid.c ****                 {
 171:.\Generated_Source\PSoC5/USBUART_hid.c ****                     requestHandled = USBUART_InitControlRead();
 260              		.loc 1 171 0
 261 009c FFF7FEFF 		bl	USBUART_InitControlRead
 262 00a0 0346     		mov	r3, r0
 263 00a2 FB71     		strb	r3, [r7, #7]
 172:.\Generated_Source\PSoC5/USBUART_hid.c ****                 }
 173:.\Generated_Source\PSoC5/USBUART_hid.c ****                 break;
 264              		.loc 1 173 0
 265 00a4 28E0     		b	.L23
 266              	.L24:
 267              		.loc 1 173 0 is_stmt 0 discriminator 4
 268 00a6 27E0     		b	.L23
 269              	.L16:
 174:.\Generated_Source\PSoC5/USBUART_hid.c **** 
 175:.\Generated_Source\PSoC5/USBUART_hid.c ****             case USBUART_HID_GET_IDLE:
 176:.\Generated_Source\PSoC5/USBUART_hid.c ****                 /* This function does not support multiple reports per interface*/
 177:.\Generated_Source\PSoC5/USBUART_hid.c ****                 /* Validate interfaceNumber and Report ID (should be 0): Do not support Idle per Re
 178:.\Generated_Source\PSoC5/USBUART_hid.c ****                 if ((interfaceNumber < USBUART_MAX_INTERFACES_NUMBER) && (USBUART_wValueLoReg == 0u
 270              		.loc 1 178 0 is_stmt 1
 271 00a8 BB79     		ldrb	r3, [r7, #6]	@ zero_extendqisi2
 272 00aa 012B     		cmp	r3, #1
 273 00ac 11D8     		bhi	.L25
 274              		.loc 1 178 0 is_stmt 0 discriminator 1
ARM GAS  C:\Users\LUKASC~1\AppData\Local\Temp\cc6PxJXw.s 			page 9


 275 00ae 434B     		ldr	r3, .L40
 276 00b0 9B78     		ldrb	r3, [r3, #2]
 277 00b2 DBB2     		uxtb	r3, r3
 278 00b4 002B     		cmp	r3, #0
 279 00b6 0CD1     		bne	.L25
 179:.\Generated_Source\PSoC5/USBUART_hid.c ****                 {
 180:.\Generated_Source\PSoC5/USBUART_hid.c ****                     USBUART_currentTD.count = 1u;
 280              		.loc 1 180 0 is_stmt 1
 281 00b8 414B     		ldr	r3, .L40+4
 282 00ba 0122     		movs	r2, #1
 283 00bc 1A80     		strh	r2, [r3]	@ movhi
 181:.\Generated_Source\PSoC5/USBUART_hid.c ****                     USBUART_currentTD.pData = &USBUART_hidIdleRate[interfaceNumber];
 284              		.loc 1 181 0
 285 00be BB79     		ldrb	r3, [r7, #6]	@ zero_extendqisi2
 286 00c0 404A     		ldr	r2, .L40+8
 287 00c2 1344     		add	r3, r3, r2
 288 00c4 3E4A     		ldr	r2, .L40+4
 289 00c6 5360     		str	r3, [r2, #4]
 182:.\Generated_Source\PSoC5/USBUART_hid.c ****                     requestHandled  = USBUART_InitControlRead();
 290              		.loc 1 182 0
 291 00c8 FFF7FEFF 		bl	USBUART_InitControlRead
 292 00cc 0346     		mov	r3, r0
 293 00ce FB71     		strb	r3, [r7, #7]
 183:.\Generated_Source\PSoC5/USBUART_hid.c ****                 }
 184:.\Generated_Source\PSoC5/USBUART_hid.c ****                 break;
 294              		.loc 1 184 0
 295 00d0 12E0     		b	.L23
 296              	.L25:
 297              		.loc 1 184 0 is_stmt 0 discriminator 5
 298 00d2 11E0     		b	.L23
 299              	.L17:
 185:.\Generated_Source\PSoC5/USBUART_hid.c ****                 
 186:.\Generated_Source\PSoC5/USBUART_hid.c ****             case USBUART_HID_GET_PROTOCOL:
 187:.\Generated_Source\PSoC5/USBUART_hid.c ****                 /* Validate interfaceNumber */
 188:.\Generated_Source\PSoC5/USBUART_hid.c ****                 if( interfaceNumber < USBUART_MAX_INTERFACES_NUMBER)
 300              		.loc 1 188 0 is_stmt 1
 301 00d4 BB79     		ldrb	r3, [r7, #6]	@ zero_extendqisi2
 302 00d6 012B     		cmp	r3, #1
 303 00d8 0CD8     		bhi	.L26
 189:.\Generated_Source\PSoC5/USBUART_hid.c ****                 {
 190:.\Generated_Source\PSoC5/USBUART_hid.c ****                     USBUART_currentTD.count = 1u;
 304              		.loc 1 190 0
 305 00da 394B     		ldr	r3, .L40+4
 306 00dc 0122     		movs	r2, #1
 307 00de 1A80     		strh	r2, [r3]	@ movhi
 191:.\Generated_Source\PSoC5/USBUART_hid.c ****                     USBUART_currentTD.pData = &USBUART_hidProtocol[interfaceNumber];
 308              		.loc 1 191 0
 309 00e0 BB79     		ldrb	r3, [r7, #6]	@ zero_extendqisi2
 310 00e2 394A     		ldr	r2, .L40+12
 311 00e4 1344     		add	r3, r3, r2
 312 00e6 364A     		ldr	r2, .L40+4
 313 00e8 5360     		str	r3, [r2, #4]
 192:.\Generated_Source\PSoC5/USBUART_hid.c ****                     requestHandled  = USBUART_InitControlRead();
 314              		.loc 1 192 0
 315 00ea FFF7FEFF 		bl	USBUART_InitControlRead
 316 00ee 0346     		mov	r3, r0
 317 00f0 FB71     		strb	r3, [r7, #7]
ARM GAS  C:\Users\LUKASC~1\AppData\Local\Temp\cc6PxJXw.s 			page 10


 193:.\Generated_Source\PSoC5/USBUART_hid.c ****                 }
 194:.\Generated_Source\PSoC5/USBUART_hid.c ****                 break;
 318              		.loc 1 194 0
 319 00f2 01E0     		b	.L23
 320              	.L26:
 321              		.loc 1 194 0 is_stmt 0 discriminator 6
 322 00f4 00E0     		b	.L23
 323              	.L38:
 195:.\Generated_Source\PSoC5/USBUART_hid.c ****                 
 196:.\Generated_Source\PSoC5/USBUART_hid.c ****             default:    /* requestHandled is initialized as FALSE by default */
 197:.\Generated_Source\PSoC5/USBUART_hid.c ****                 break;
 324              		.loc 1 197 0 is_stmt 1
 325 00f6 00BF     		nop
 326              	.L23:
 327 00f8 5AE0     		b	.L27
 328              	.L12:
 198:.\Generated_Source\PSoC5/USBUART_hid.c ****         }
 199:.\Generated_Source\PSoC5/USBUART_hid.c ****     }
 200:.\Generated_Source\PSoC5/USBUART_hid.c ****     else
 201:.\Generated_Source\PSoC5/USBUART_hid.c ****     {   
 202:.\Generated_Source\PSoC5/USBUART_hid.c ****         /* Handle direction from host to device. */
 203:.\Generated_Source\PSoC5/USBUART_hid.c ****         
 204:.\Generated_Source\PSoC5/USBUART_hid.c ****         switch (USBUART_bRequestReg)
 329              		.loc 1 204 0
 330 00fa 304B     		ldr	r3, .L40
 331 00fc 5B78     		ldrb	r3, [r3, #1]
 332 00fe DBB2     		uxtb	r3, r3
 333 0100 0A2B     		cmp	r3, #10
 334 0102 11D0     		beq	.L29
 335 0104 0B2B     		cmp	r3, #11
 336 0106 3FD0     		beq	.L30
 337 0108 092B     		cmp	r3, #9
 338 010a 00D0     		beq	.L31
 205:.\Generated_Source\PSoC5/USBUART_hid.c ****         {
 206:.\Generated_Source\PSoC5/USBUART_hid.c ****             case USBUART_HID_SET_REPORT:
 207:.\Generated_Source\PSoC5/USBUART_hid.c ****                 USBUART_FindReport();
 208:.\Generated_Source\PSoC5/USBUART_hid.c ****                 if (USBUART_currentTD.count != 0u)
 209:.\Generated_Source\PSoC5/USBUART_hid.c ****                 {
 210:.\Generated_Source\PSoC5/USBUART_hid.c ****                     requestHandled = USBUART_InitControlWrite();
 211:.\Generated_Source\PSoC5/USBUART_hid.c ****                 }
 212:.\Generated_Source\PSoC5/USBUART_hid.c ****                 break;
 213:.\Generated_Source\PSoC5/USBUART_hid.c ****                 
 214:.\Generated_Source\PSoC5/USBUART_hid.c ****             case USBUART_HID_SET_IDLE:
 215:.\Generated_Source\PSoC5/USBUART_hid.c ****                 /* This function does not support multiple reports per interface */
 216:.\Generated_Source\PSoC5/USBUART_hid.c ****                 /* Validate interfaceNumber and Report ID (should be 0): Do not support Idle per Re
 217:.\Generated_Source\PSoC5/USBUART_hid.c ****                 if ((interfaceNumber < USBUART_MAX_INTERFACES_NUMBER) && (USBUART_wValueLoReg == 0u
 218:.\Generated_Source\PSoC5/USBUART_hid.c ****                 {
 219:.\Generated_Source\PSoC5/USBUART_hid.c ****                     USBUART_hidIdleRate[interfaceNumber] = (uint8)USBUART_wValueHiReg;
 220:.\Generated_Source\PSoC5/USBUART_hid.c ****                     /* With regards to HID spec: "7.2.4 Set_Idle Request"
 221:.\Generated_Source\PSoC5/USBUART_hid.c ****                     *  Latency. If the current period has gone past the
 222:.\Generated_Source\PSoC5/USBUART_hid.c ****                     *  newly proscribed time duration, then a report
 223:.\Generated_Source\PSoC5/USBUART_hid.c ****                     *  will be generated immediately.
 224:.\Generated_Source\PSoC5/USBUART_hid.c ****                     */
 225:.\Generated_Source\PSoC5/USBUART_hid.c ****                     if(USBUART_hidIdleRate[interfaceNumber] <
 226:.\Generated_Source\PSoC5/USBUART_hid.c ****                        USBUART_hidIdleTimer[interfaceNumber])
 227:.\Generated_Source\PSoC5/USBUART_hid.c ****                     {
 228:.\Generated_Source\PSoC5/USBUART_hid.c ****                         /* Set the timer to zero and let the UpdateHIDTimer() API return IDLE_TIMER
ARM GAS  C:\Users\LUKASC~1\AppData\Local\Temp\cc6PxJXw.s 			page 11


 229:.\Generated_Source\PSoC5/USBUART_hid.c ****                         USBUART_hidIdleTimer[interfaceNumber] = 0u;
 230:.\Generated_Source\PSoC5/USBUART_hid.c ****                     }
 231:.\Generated_Source\PSoC5/USBUART_hid.c ****                     /* If the new request is received within 4 milliseconds
 232:.\Generated_Source\PSoC5/USBUART_hid.c ****                     *  (1 count) of the end of the current period, then the
 233:.\Generated_Source\PSoC5/USBUART_hid.c ****                     *  new request will have no effect until after the report.
 234:.\Generated_Source\PSoC5/USBUART_hid.c ****                     */
 235:.\Generated_Source\PSoC5/USBUART_hid.c ****                     else if(USBUART_hidIdleTimer[interfaceNumber] <= 1u)
 236:.\Generated_Source\PSoC5/USBUART_hid.c ****                     {
 237:.\Generated_Source\PSoC5/USBUART_hid.c ****                         /* Do nothing.
 238:.\Generated_Source\PSoC5/USBUART_hid.c ****                         *  Let the UpdateHIDTimer() API continue to work and
 239:.\Generated_Source\PSoC5/USBUART_hid.c ****                         *  return IDLE_TIMER_EXPIRED status
 240:.\Generated_Source\PSoC5/USBUART_hid.c ****                         */
 241:.\Generated_Source\PSoC5/USBUART_hid.c ****                     }
 242:.\Generated_Source\PSoC5/USBUART_hid.c ****                     else
 243:.\Generated_Source\PSoC5/USBUART_hid.c ****                     {   /* Reload the timer*/
 244:.\Generated_Source\PSoC5/USBUART_hid.c ****                         USBUART_hidIdleTimer[interfaceNumber] =
 245:.\Generated_Source\PSoC5/USBUART_hid.c ****                         USBUART_hidIdleRate[interfaceNumber];
 246:.\Generated_Source\PSoC5/USBUART_hid.c ****                     }
 247:.\Generated_Source\PSoC5/USBUART_hid.c ****                     requestHandled = USBUART_InitNoDataControlTransfer();
 248:.\Generated_Source\PSoC5/USBUART_hid.c ****                 }
 249:.\Generated_Source\PSoC5/USBUART_hid.c ****                 break;
 250:.\Generated_Source\PSoC5/USBUART_hid.c **** 
 251:.\Generated_Source\PSoC5/USBUART_hid.c ****             case USBUART_HID_SET_PROTOCOL:
 252:.\Generated_Source\PSoC5/USBUART_hid.c ****                 /* Validate interfaceNumber and protocol (must be 0 or 1) */
 253:.\Generated_Source\PSoC5/USBUART_hid.c ****                 if ((interfaceNumber < USBUART_MAX_INTERFACES_NUMBER) && (USBUART_wValueLoReg <= 1u
 254:.\Generated_Source\PSoC5/USBUART_hid.c ****                 {
 255:.\Generated_Source\PSoC5/USBUART_hid.c ****                     USBUART_hidProtocol[interfaceNumber] = (uint8)USBUART_wValueLoReg;
 256:.\Generated_Source\PSoC5/USBUART_hid.c ****                     requestHandled = USBUART_InitNoDataControlTransfer();
 257:.\Generated_Source\PSoC5/USBUART_hid.c ****                 }
 258:.\Generated_Source\PSoC5/USBUART_hid.c ****                 break;
 259:.\Generated_Source\PSoC5/USBUART_hid.c ****             
 260:.\Generated_Source\PSoC5/USBUART_hid.c ****             default:    
 261:.\Generated_Source\PSoC5/USBUART_hid.c ****                 /* Unknown class request is not handled. */
 262:.\Generated_Source\PSoC5/USBUART_hid.c ****                 break;
 339              		.loc 1 262 0
 340 010c 50E0     		b	.L27
 341              	.L31:
 207:.\Generated_Source\PSoC5/USBUART_hid.c ****                 if (USBUART_currentTD.count != 0u)
 342              		.loc 1 207 0
 343 010e FFF7FEFF 		bl	USBUART_FindReport
 208:.\Generated_Source\PSoC5/USBUART_hid.c ****                 {
 344              		.loc 1 208 0
 345 0112 2B4B     		ldr	r3, .L40+4
 346 0114 1B88     		ldrh	r3, [r3]	@ movhi
 347 0116 9BB2     		uxth	r3, r3
 348 0118 002B     		cmp	r3, #0
 349 011a 04D0     		beq	.L32
 210:.\Generated_Source\PSoC5/USBUART_hid.c ****                 }
 350              		.loc 1 210 0
 351 011c FFF7FEFF 		bl	USBUART_InitControlWrite
 352 0120 0346     		mov	r3, r0
 353 0122 FB71     		strb	r3, [r7, #7]
 212:.\Generated_Source\PSoC5/USBUART_hid.c ****                 
 354              		.loc 1 212 0
 355 0124 44E0     		b	.L27
 356              	.L32:
 357 0126 43E0     		b	.L27
ARM GAS  C:\Users\LUKASC~1\AppData\Local\Temp\cc6PxJXw.s 			page 12


 358              	.L29:
 217:.\Generated_Source\PSoC5/USBUART_hid.c ****                 {
 359              		.loc 1 217 0
 360 0128 BB79     		ldrb	r3, [r7, #6]	@ zero_extendqisi2
 361 012a 012B     		cmp	r3, #1
 362 012c 2BD8     		bhi	.L33
 217:.\Generated_Source\PSoC5/USBUART_hid.c ****                 {
 363              		.loc 1 217 0 is_stmt 0 discriminator 1
 364 012e 234B     		ldr	r3, .L40
 365 0130 9B78     		ldrb	r3, [r3, #2]
 366 0132 DBB2     		uxtb	r3, r3
 367 0134 002B     		cmp	r3, #0
 368 0136 26D1     		bne	.L33
 219:.\Generated_Source\PSoC5/USBUART_hid.c ****                     /* With regards to HID spec: "7.2.4 Set_Idle Request"
 369              		.loc 1 219 0 is_stmt 1
 370 0138 BB79     		ldrb	r3, [r7, #6]	@ zero_extendqisi2
 371 013a 204A     		ldr	r2, .L40
 372 013c D278     		ldrb	r2, [r2, #3]
 373 013e D1B2     		uxtb	r1, r2
 374 0140 204A     		ldr	r2, .L40+8
 375 0142 D154     		strb	r1, [r2, r3]
 225:.\Generated_Source\PSoC5/USBUART_hid.c ****                        USBUART_hidIdleTimer[interfaceNumber])
 376              		.loc 1 225 0
 377 0144 BB79     		ldrb	r3, [r7, #6]	@ zero_extendqisi2
 378 0146 1F4A     		ldr	r2, .L40+8
 379 0148 D35C     		ldrb	r3, [r2, r3]
 380 014a DAB2     		uxtb	r2, r3
 226:.\Generated_Source\PSoC5/USBUART_hid.c ****                     {
 381              		.loc 1 226 0
 382 014c BB79     		ldrb	r3, [r7, #6]	@ zero_extendqisi2
 383 014e 1F49     		ldr	r1, .L40+16
 384 0150 CB5C     		ldrb	r3, [r1, r3]
 385 0152 DBB2     		uxtb	r3, r3
 225:.\Generated_Source\PSoC5/USBUART_hid.c ****                        USBUART_hidIdleTimer[interfaceNumber])
 386              		.loc 1 225 0
 387 0154 9A42     		cmp	r2, r3
 388 0156 04D2     		bcs	.L34
 229:.\Generated_Source\PSoC5/USBUART_hid.c ****                     }
 389              		.loc 1 229 0
 390 0158 BB79     		ldrb	r3, [r7, #6]	@ zero_extendqisi2
 391 015a 1C4A     		ldr	r2, .L40+16
 392 015c 0021     		movs	r1, #0
 393 015e D154     		strb	r1, [r2, r3]
 394 0160 0CE0     		b	.L35
 395              	.L34:
 235:.\Generated_Source\PSoC5/USBUART_hid.c ****                     {
 396              		.loc 1 235 0
 397 0162 BB79     		ldrb	r3, [r7, #6]	@ zero_extendqisi2
 398 0164 194A     		ldr	r2, .L40+16
 399 0166 D35C     		ldrb	r3, [r2, r3]
 400 0168 DBB2     		uxtb	r3, r3
 401 016a 012B     		cmp	r3, #1
 402 016c 06D9     		bls	.L35
 244:.\Generated_Source\PSoC5/USBUART_hid.c ****                         USBUART_hidIdleRate[interfaceNumber];
 403              		.loc 1 244 0
 404 016e BB79     		ldrb	r3, [r7, #6]	@ zero_extendqisi2
 245:.\Generated_Source\PSoC5/USBUART_hid.c ****                     }
ARM GAS  C:\Users\LUKASC~1\AppData\Local\Temp\cc6PxJXw.s 			page 13


 405              		.loc 1 245 0
 406 0170 BA79     		ldrb	r2, [r7, #6]	@ zero_extendqisi2
 407 0172 1449     		ldr	r1, .L40+8
 408 0174 8A5C     		ldrb	r2, [r1, r2]
 409 0176 D1B2     		uxtb	r1, r2
 244:.\Generated_Source\PSoC5/USBUART_hid.c ****                         USBUART_hidIdleRate[interfaceNumber];
 410              		.loc 1 244 0
 411 0178 144A     		ldr	r2, .L40+16
 412 017a D154     		strb	r1, [r2, r3]
 413              	.L35:
 247:.\Generated_Source\PSoC5/USBUART_hid.c ****                 }
 414              		.loc 1 247 0
 415 017c FFF7FEFF 		bl	USBUART_InitNoDataControlTransfer
 416 0180 0346     		mov	r3, r0
 417 0182 FB71     		strb	r3, [r7, #7]
 249:.\Generated_Source\PSoC5/USBUART_hid.c **** 
 418              		.loc 1 249 0
 419 0184 14E0     		b	.L27
 420              	.L33:
 421 0186 13E0     		b	.L27
 422              	.L30:
 253:.\Generated_Source\PSoC5/USBUART_hid.c ****                 {
 423              		.loc 1 253 0
 424 0188 BB79     		ldrb	r3, [r7, #6]	@ zero_extendqisi2
 425 018a 012B     		cmp	r3, #1
 426 018c 0FD8     		bhi	.L36
 253:.\Generated_Source\PSoC5/USBUART_hid.c ****                 {
 427              		.loc 1 253 0 is_stmt 0 discriminator 1
 428 018e 0B4B     		ldr	r3, .L40
 429 0190 9B78     		ldrb	r3, [r3, #2]
 430 0192 DBB2     		uxtb	r3, r3
 431 0194 012B     		cmp	r3, #1
 432 0196 0AD8     		bhi	.L36
 255:.\Generated_Source\PSoC5/USBUART_hid.c ****                     requestHandled = USBUART_InitNoDataControlTransfer();
 433              		.loc 1 255 0 is_stmt 1
 434 0198 BB79     		ldrb	r3, [r7, #6]	@ zero_extendqisi2
 435 019a 084A     		ldr	r2, .L40
 436 019c 9278     		ldrb	r2, [r2, #2]
 437 019e D1B2     		uxtb	r1, r2
 438 01a0 094A     		ldr	r2, .L40+12
 439 01a2 D154     		strb	r1, [r2, r3]
 256:.\Generated_Source\PSoC5/USBUART_hid.c ****                 }
 440              		.loc 1 256 0
 441 01a4 FFF7FEFF 		bl	USBUART_InitNoDataControlTransfer
 442 01a8 0346     		mov	r3, r0
 443 01aa FB71     		strb	r3, [r7, #7]
 258:.\Generated_Source\PSoC5/USBUART_hid.c ****             
 444              		.loc 1 258 0
 445 01ac FFE7     		b	.L39
 446              	.L36:
 447              	.L39:
 448 01ae 00BF     		nop
 449              	.L27:
 263:.\Generated_Source\PSoC5/USBUART_hid.c ****         }
 264:.\Generated_Source\PSoC5/USBUART_hid.c ****     }
 265:.\Generated_Source\PSoC5/USBUART_hid.c **** 
 266:.\Generated_Source\PSoC5/USBUART_hid.c ****     return (requestHandled);
ARM GAS  C:\Users\LUKASC~1\AppData\Local\Temp\cc6PxJXw.s 			page 14


 450              		.loc 1 266 0
 451 01b0 FB79     		ldrb	r3, [r7, #7]	@ zero_extendqisi2
 267:.\Generated_Source\PSoC5/USBUART_hid.c **** }
 452              		.loc 1 267 0
 453 01b2 1846     		mov	r0, r3
 454 01b4 0837     		adds	r7, r7, #8
 455              		.cfi_def_cfa_offset 8
 456 01b6 BD46     		mov	sp, r7
 457              		.cfi_def_cfa_register 13
 458              		@ sp needed
 459 01b8 80BD     		pop	{r7, pc}
 460              	.L41:
 461 01ba 00BF     		.align	2
 462              	.L40:
 463 01bc 00600040 		.word	1073766400
 464 01c0 00000000 		.word	USBUART_currentTD
 465 01c4 00000000 		.word	USBUART_hidIdleRate
 466 01c8 00000000 		.word	USBUART_hidProtocol
 467 01cc 00000000 		.word	USBUART_hidIdleTimer
 468              		.cfi_endproc
 469              	.LFE2:
 470              		.size	USBUART_DispatchHIDClassRqst, .-USBUART_DispatchHIDClassRqst
 471              		.section	.text.USBUART_FindHidClassDecriptor,"ax",%progbits
 472              		.align	2
 473              		.global	USBUART_FindHidClassDecriptor
 474              		.thumb
 475              		.thumb_func
 476              		.type	USBUART_FindHidClassDecriptor, %function
 477              	USBUART_FindHidClassDecriptor:
 478              	.LFB3:
 268:.\Generated_Source\PSoC5/USBUART_hid.c **** 
 269:.\Generated_Source\PSoC5/USBUART_hid.c **** 
 270:.\Generated_Source\PSoC5/USBUART_hid.c **** /*******************************************************************************
 271:.\Generated_Source\PSoC5/USBUART_hid.c **** * Function Name: USB_FindHidClassDescriptor
 272:.\Generated_Source\PSoC5/USBUART_hid.c **** ****************************************************************************//**
 273:.\Generated_Source\PSoC5/USBUART_hid.c **** *
 274:.\Generated_Source\PSoC5/USBUART_hid.c **** *  This routine find Hid Class Descriptor pointer based on the Interface number
 275:.\Generated_Source\PSoC5/USBUART_hid.c **** *  and Alternate setting then loads the currentTD structure with the address of
 276:.\Generated_Source\PSoC5/USBUART_hid.c **** *  the buffer and the size.
 277:.\Generated_Source\PSoC5/USBUART_hid.c **** *  The HID Class Descriptor resides inside the config descriptor.
 278:.\Generated_Source\PSoC5/USBUART_hid.c **** *
 279:.\Generated_Source\PSoC5/USBUART_hid.c **** * \return
 280:.\Generated_Source\PSoC5/USBUART_hid.c **** *  currentTD
 281:.\Generated_Source\PSoC5/USBUART_hid.c **** *
 282:.\Generated_Source\PSoC5/USBUART_hid.c **** * \reentrant
 283:.\Generated_Source\PSoC5/USBUART_hid.c **** *  No.
 284:.\Generated_Source\PSoC5/USBUART_hid.c **** *
 285:.\Generated_Source\PSoC5/USBUART_hid.c **** *******************************************************************************/
 286:.\Generated_Source\PSoC5/USBUART_hid.c **** void USBUART_FindHidClassDecriptor(void) 
 287:.\Generated_Source\PSoC5/USBUART_hid.c **** {
 479              		.loc 1 287 0
 480              		.cfi_startproc
 481              		@ args = 0, pretend = 0, frame = 16
 482              		@ frame_needed = 1, uses_anonymous_args = 0
 483 0000 80B5     		push	{r7, lr}
 484              		.cfi_def_cfa_offset 8
 485              		.cfi_offset 7, -8
ARM GAS  C:\Users\LUKASC~1\AppData\Local\Temp\cc6PxJXw.s 			page 15


 486              		.cfi_offset 14, -4
 487 0002 84B0     		sub	sp, sp, #16
 488              		.cfi_def_cfa_offset 24
 489 0004 00AF     		add	r7, sp, #0
 490              		.cfi_def_cfa_register 7
 288:.\Generated_Source\PSoC5/USBUART_hid.c ****     const T_USBUART_LUT CYCODE *pTmp;
 289:.\Generated_Source\PSoC5/USBUART_hid.c ****     volatile uint8 *pDescr;
 290:.\Generated_Source\PSoC5/USBUART_hid.c ****     uint8 interfaceN;
 291:.\Generated_Source\PSoC5/USBUART_hid.c **** 
 292:.\Generated_Source\PSoC5/USBUART_hid.c ****     pTmp = USBUART_GetConfigTablePtr(USBUART_configuration - 1u);
 491              		.loc 1 292 0
 492 0006 194B     		ldr	r3, .L43
 493 0008 1B78     		ldrb	r3, [r3]
 494 000a DBB2     		uxtb	r3, r3
 495 000c 013B     		subs	r3, r3, #1
 496 000e DBB2     		uxtb	r3, r3
 497 0010 1846     		mov	r0, r3
 498 0012 FFF7FEFF 		bl	USBUART_GetConfigTablePtr
 499 0016 F860     		str	r0, [r7, #12]
 293:.\Generated_Source\PSoC5/USBUART_hid.c ****     
 294:.\Generated_Source\PSoC5/USBUART_hid.c ****     interfaceN = (uint8) USBUART_wIndexLoReg;
 500              		.loc 1 294 0
 501 0018 154B     		ldr	r3, .L43+4
 502 001a 1B79     		ldrb	r3, [r3, #4]
 503 001c FB72     		strb	r3, [r7, #11]
 295:.\Generated_Source\PSoC5/USBUART_hid.c ****     /* Third entry in the LUT starts the Interface Table pointers */
 296:.\Generated_Source\PSoC5/USBUART_hid.c ****     /* Now use the request interface number*/
 297:.\Generated_Source\PSoC5/USBUART_hid.c ****     pTmp = &pTmp[interfaceN + 2u];
 504              		.loc 1 297 0
 505 001e FB7A     		ldrb	r3, [r7, #11]	@ zero_extendqisi2
 506 0020 0233     		adds	r3, r3, #2
 507 0022 DB00     		lsls	r3, r3, #3
 508 0024 FA68     		ldr	r2, [r7, #12]
 509 0026 1344     		add	r3, r3, r2
 510 0028 FB60     		str	r3, [r7, #12]
 298:.\Generated_Source\PSoC5/USBUART_hid.c ****     
 299:.\Generated_Source\PSoC5/USBUART_hid.c ****     /* USB_DEVICEx_CONFIGURATIONy_INTERFACEz_TABLE */
 300:.\Generated_Source\PSoC5/USBUART_hid.c ****     pTmp = (const T_USBUART_LUT CYCODE *) pTmp->p_list;
 511              		.loc 1 300 0
 512 002a FB68     		ldr	r3, [r7, #12]
 513 002c 5B68     		ldr	r3, [r3, #4]
 514 002e FB60     		str	r3, [r7, #12]
 301:.\Generated_Source\PSoC5/USBUART_hid.c ****     
 302:.\Generated_Source\PSoC5/USBUART_hid.c ****     /* Now use Alternate setting number */
 303:.\Generated_Source\PSoC5/USBUART_hid.c ****     pTmp = &pTmp[USBUART_interfaceSetting[interfaceN]];
 515              		.loc 1 303 0
 516 0030 FB7A     		ldrb	r3, [r7, #11]	@ zero_extendqisi2
 517 0032 104A     		ldr	r2, .L43+8
 518 0034 D35C     		ldrb	r3, [r2, r3]
 519 0036 DBB2     		uxtb	r3, r3
 520 0038 DB00     		lsls	r3, r3, #3
 521 003a FA68     		ldr	r2, [r7, #12]
 522 003c 1344     		add	r3, r3, r2
 523 003e FB60     		str	r3, [r7, #12]
 304:.\Generated_Source\PSoC5/USBUART_hid.c ****     
 305:.\Generated_Source\PSoC5/USBUART_hid.c ****     /* USB_DEVICEx_CONFIGURATIONy_INTERFACEz_ALTERNATEi_HID_TABLE */
 306:.\Generated_Source\PSoC5/USBUART_hid.c ****     pTmp = (const T_USBUART_LUT CYCODE *) pTmp->p_list;
ARM GAS  C:\Users\LUKASC~1\AppData\Local\Temp\cc6PxJXw.s 			page 16


 524              		.loc 1 306 0
 525 0040 FB68     		ldr	r3, [r7, #12]
 526 0042 5B68     		ldr	r3, [r3, #4]
 527 0044 FB60     		str	r3, [r7, #12]
 307:.\Generated_Source\PSoC5/USBUART_hid.c ****     
 308:.\Generated_Source\PSoC5/USBUART_hid.c ****     /* Fifth entry in the LUT points to Hid Class Descriptor in Configuration Descriptor */
 309:.\Generated_Source\PSoC5/USBUART_hid.c ****     pTmp = &pTmp[4u];
 528              		.loc 1 309 0
 529 0046 FB68     		ldr	r3, [r7, #12]
 530 0048 2033     		adds	r3, r3, #32
 531 004a FB60     		str	r3, [r7, #12]
 310:.\Generated_Source\PSoC5/USBUART_hid.c ****     pDescr = (volatile uint8 *)pTmp->p_list;
 532              		.loc 1 310 0
 533 004c FB68     		ldr	r3, [r7, #12]
 534 004e 5B68     		ldr	r3, [r3, #4]
 535 0050 7B60     		str	r3, [r7, #4]
 311:.\Generated_Source\PSoC5/USBUART_hid.c ****     
 312:.\Generated_Source\PSoC5/USBUART_hid.c ****     /* The first byte contains the descriptor length */
 313:.\Generated_Source\PSoC5/USBUART_hid.c ****     USBUART_currentTD.count = *pDescr;
 536              		.loc 1 313 0
 537 0052 7B68     		ldr	r3, [r7, #4]
 538 0054 1B78     		ldrb	r3, [r3]
 539 0056 DBB2     		uxtb	r3, r3
 540 0058 9AB2     		uxth	r2, r3
 541 005a 074B     		ldr	r3, .L43+12
 542 005c 1A80     		strh	r2, [r3]	@ movhi
 314:.\Generated_Source\PSoC5/USBUART_hid.c ****     USBUART_currentTD.pData = pDescr;
 543              		.loc 1 314 0
 544 005e 064A     		ldr	r2, .L43+12
 545 0060 7B68     		ldr	r3, [r7, #4]
 546 0062 5360     		str	r3, [r2, #4]
 315:.\Generated_Source\PSoC5/USBUART_hid.c **** }
 547              		.loc 1 315 0
 548 0064 1037     		adds	r7, r7, #16
 549              		.cfi_def_cfa_offset 8
 550 0066 BD46     		mov	sp, r7
 551              		.cfi_def_cfa_register 13
 552              		@ sp needed
 553 0068 80BD     		pop	{r7, pc}
 554              	.L44:
 555 006a 00BF     		.align	2
 556              	.L43:
 557 006c 00000000 		.word	USBUART_configuration
 558 0070 00600040 		.word	1073766400
 559 0074 00000000 		.word	USBUART_interfaceSetting
 560 0078 00000000 		.word	USBUART_currentTD
 561              		.cfi_endproc
 562              	.LFE3:
 563              		.size	USBUART_FindHidClassDecriptor, .-USBUART_FindHidClassDecriptor
 564              		.section	.text.USBUART_FindReportDescriptor,"ax",%progbits
 565              		.align	2
 566              		.global	USBUART_FindReportDescriptor
 567              		.thumb
 568              		.thumb_func
 569              		.type	USBUART_FindReportDescriptor, %function
 570              	USBUART_FindReportDescriptor:
 571              	.LFB4:
ARM GAS  C:\Users\LUKASC~1\AppData\Local\Temp\cc6PxJXw.s 			page 17


 316:.\Generated_Source\PSoC5/USBUART_hid.c **** 
 317:.\Generated_Source\PSoC5/USBUART_hid.c **** 
 318:.\Generated_Source\PSoC5/USBUART_hid.c **** /*******************************************************************************
 319:.\Generated_Source\PSoC5/USBUART_hid.c **** * Function Name: USB_FindReportDescriptor
 320:.\Generated_Source\PSoC5/USBUART_hid.c **** ****************************************************************************//**
 321:.\Generated_Source\PSoC5/USBUART_hid.c **** *
 322:.\Generated_Source\PSoC5/USBUART_hid.c **** *  This routine find Hid Report Descriptor pointer based on the Interface
 323:.\Generated_Source\PSoC5/USBUART_hid.c **** *  number, then loads the currentTD structure with the address of the buffer
 324:.\Generated_Source\PSoC5/USBUART_hid.c **** *  and the size.
 325:.\Generated_Source\PSoC5/USBUART_hid.c **** *  Hid Report Descriptor is located after IN/OUT/FEATURE reports.
 326:.\Generated_Source\PSoC5/USBUART_hid.c **** *
 327:.\Generated_Source\PSoC5/USBUART_hid.c **** * \return
 328:.\Generated_Source\PSoC5/USBUART_hid.c **** *  currentTD
 329:.\Generated_Source\PSoC5/USBUART_hid.c **** *
 330:.\Generated_Source\PSoC5/USBUART_hid.c **** * \reentrant
 331:.\Generated_Source\PSoC5/USBUART_hid.c **** *  No.
 332:.\Generated_Source\PSoC5/USBUART_hid.c **** *
 333:.\Generated_Source\PSoC5/USBUART_hid.c **** *******************************************************************************/
 334:.\Generated_Source\PSoC5/USBUART_hid.c **** void USBUART_FindReportDescriptor(void) 
 335:.\Generated_Source\PSoC5/USBUART_hid.c **** {
 572              		.loc 1 335 0
 573              		.cfi_startproc
 574              		@ args = 0, pretend = 0, frame = 16
 575              		@ frame_needed = 1, uses_anonymous_args = 0
 576 0000 80B5     		push	{r7, lr}
 577              		.cfi_def_cfa_offset 8
 578              		.cfi_offset 7, -8
 579              		.cfi_offset 14, -4
 580 0002 84B0     		sub	sp, sp, #16
 581              		.cfi_def_cfa_offset 24
 582 0004 00AF     		add	r7, sp, #0
 583              		.cfi_def_cfa_register 7
 336:.\Generated_Source\PSoC5/USBUART_hid.c ****     const T_USBUART_LUT CYCODE *pTmp;
 337:.\Generated_Source\PSoC5/USBUART_hid.c ****     volatile uint8 *pDescr;
 338:.\Generated_Source\PSoC5/USBUART_hid.c ****     uint8 interfaceN;
 339:.\Generated_Source\PSoC5/USBUART_hid.c **** 
 340:.\Generated_Source\PSoC5/USBUART_hid.c ****     pTmp = USBUART_GetConfigTablePtr(USBUART_configuration - 1u);
 584              		.loc 1 340 0
 585 0006 1E4B     		ldr	r3, .L46
 586 0008 1B78     		ldrb	r3, [r3]
 587 000a DBB2     		uxtb	r3, r3
 588 000c 013B     		subs	r3, r3, #1
 589 000e DBB2     		uxtb	r3, r3
 590 0010 1846     		mov	r0, r3
 591 0012 FFF7FEFF 		bl	USBUART_GetConfigTablePtr
 592 0016 F860     		str	r0, [r7, #12]
 341:.\Generated_Source\PSoC5/USBUART_hid.c ****     interfaceN = (uint8) USBUART_wIndexLoReg;
 593              		.loc 1 341 0
 594 0018 1A4B     		ldr	r3, .L46+4
 595 001a 1B79     		ldrb	r3, [r3, #4]
 596 001c FB72     		strb	r3, [r7, #11]
 342:.\Generated_Source\PSoC5/USBUART_hid.c ****     
 343:.\Generated_Source\PSoC5/USBUART_hid.c ****     /* Third entry in the LUT starts the Interface Table pointers */
 344:.\Generated_Source\PSoC5/USBUART_hid.c ****     /* Now use the request interface number */
 345:.\Generated_Source\PSoC5/USBUART_hid.c ****     pTmp = &pTmp[interfaceN + 2u];
 597              		.loc 1 345 0
 598 001e FB7A     		ldrb	r3, [r7, #11]	@ zero_extendqisi2
ARM GAS  C:\Users\LUKASC~1\AppData\Local\Temp\cc6PxJXw.s 			page 18


 599 0020 0233     		adds	r3, r3, #2
 600 0022 DB00     		lsls	r3, r3, #3
 601 0024 FA68     		ldr	r2, [r7, #12]
 602 0026 1344     		add	r3, r3, r2
 603 0028 FB60     		str	r3, [r7, #12]
 346:.\Generated_Source\PSoC5/USBUART_hid.c ****     
 347:.\Generated_Source\PSoC5/USBUART_hid.c ****     /* USB_DEVICEx_CONFIGURATIONy_INTERFACEz_TABLE */
 348:.\Generated_Source\PSoC5/USBUART_hid.c ****     pTmp = (const T_USBUART_LUT CYCODE *) pTmp->p_list;
 604              		.loc 1 348 0
 605 002a FB68     		ldr	r3, [r7, #12]
 606 002c 5B68     		ldr	r3, [r3, #4]
 607 002e FB60     		str	r3, [r7, #12]
 349:.\Generated_Source\PSoC5/USBUART_hid.c ****     
 350:.\Generated_Source\PSoC5/USBUART_hid.c ****     /* Now use Alternate setting number */
 351:.\Generated_Source\PSoC5/USBUART_hid.c ****     pTmp = &pTmp[USBUART_interfaceSetting[interfaceN]];
 608              		.loc 1 351 0
 609 0030 FB7A     		ldrb	r3, [r7, #11]	@ zero_extendqisi2
 610 0032 154A     		ldr	r2, .L46+8
 611 0034 D35C     		ldrb	r3, [r2, r3]
 612 0036 DBB2     		uxtb	r3, r3
 613 0038 DB00     		lsls	r3, r3, #3
 614 003a FA68     		ldr	r2, [r7, #12]
 615 003c 1344     		add	r3, r3, r2
 616 003e FB60     		str	r3, [r7, #12]
 352:.\Generated_Source\PSoC5/USBUART_hid.c ****     
 353:.\Generated_Source\PSoC5/USBUART_hid.c ****     /* USB_DEVICEx_CONFIGURATIONy_INTERFACEz_ALTERNATEi_HID_TABLE */
 354:.\Generated_Source\PSoC5/USBUART_hid.c ****     pTmp = (const T_USBUART_LUT CYCODE *) pTmp->p_list;
 617              		.loc 1 354 0
 618 0040 FB68     		ldr	r3, [r7, #12]
 619 0042 5B68     		ldr	r3, [r3, #4]
 620 0044 FB60     		str	r3, [r7, #12]
 355:.\Generated_Source\PSoC5/USBUART_hid.c ****     
 356:.\Generated_Source\PSoC5/USBUART_hid.c ****     /* Fourth entry in the LUT starts the Hid Report Descriptor */
 357:.\Generated_Source\PSoC5/USBUART_hid.c ****     pTmp = &pTmp[3u];
 621              		.loc 1 357 0
 622 0046 FB68     		ldr	r3, [r7, #12]
 623 0048 1833     		adds	r3, r3, #24
 624 004a FB60     		str	r3, [r7, #12]
 358:.\Generated_Source\PSoC5/USBUART_hid.c ****     pDescr = (volatile uint8 *)pTmp->p_list;
 625              		.loc 1 358 0
 626 004c FB68     		ldr	r3, [r7, #12]
 627 004e 5B68     		ldr	r3, [r3, #4]
 628 0050 7B60     		str	r3, [r7, #4]
 359:.\Generated_Source\PSoC5/USBUART_hid.c ****     
 360:.\Generated_Source\PSoC5/USBUART_hid.c ****     /* The 1st and 2nd bytes of descriptor contain its length. LSB is 1st. */
 361:.\Generated_Source\PSoC5/USBUART_hid.c ****     USBUART_currentTD.count =  ((uint16)((uint16) pDescr[1u] << 8u) | pDescr[0u]);
 629              		.loc 1 361 0
 630 0052 7B68     		ldr	r3, [r7, #4]
 631 0054 0133     		adds	r3, r3, #1
 632 0056 1B78     		ldrb	r3, [r3]
 633 0058 DBB2     		uxtb	r3, r3
 634 005a 9BB2     		uxth	r3, r3
 635 005c 1B02     		lsls	r3, r3, #8
 636 005e 9AB2     		uxth	r2, r3
 637 0060 7B68     		ldr	r3, [r7, #4]
 638 0062 1B78     		ldrb	r3, [r3]
 639 0064 DBB2     		uxtb	r3, r3
ARM GAS  C:\Users\LUKASC~1\AppData\Local\Temp\cc6PxJXw.s 			page 19


 640 0066 9BB2     		uxth	r3, r3
 641 0068 1343     		orrs	r3, r3, r2
 642 006a 9AB2     		uxth	r2, r3
 643 006c 074B     		ldr	r3, .L46+12
 644 006e 1A80     		strh	r2, [r3]	@ movhi
 362:.\Generated_Source\PSoC5/USBUART_hid.c ****     USBUART_currentTD.pData = &pDescr[2u];
 645              		.loc 1 362 0
 646 0070 7B68     		ldr	r3, [r7, #4]
 647 0072 0233     		adds	r3, r3, #2
 648 0074 054A     		ldr	r2, .L46+12
 649 0076 5360     		str	r3, [r2, #4]
 363:.\Generated_Source\PSoC5/USBUART_hid.c **** }
 650              		.loc 1 363 0
 651 0078 1037     		adds	r7, r7, #16
 652              		.cfi_def_cfa_offset 8
 653 007a BD46     		mov	sp, r7
 654              		.cfi_def_cfa_register 13
 655              		@ sp needed
 656 007c 80BD     		pop	{r7, pc}
 657              	.L47:
 658 007e 00BF     		.align	2
 659              	.L46:
 660 0080 00000000 		.word	USBUART_configuration
 661 0084 00600040 		.word	1073766400
 662 0088 00000000 		.word	USBUART_interfaceSetting
 663 008c 00000000 		.word	USBUART_currentTD
 664              		.cfi_endproc
 665              	.LFE4:
 666              		.size	USBUART_FindReportDescriptor, .-USBUART_FindReportDescriptor
 667              		.section	.text.USBUART_FindReport,"ax",%progbits
 668              		.align	2
 669              		.global	USBUART_FindReport
 670              		.thumb
 671              		.thumb_func
 672              		.type	USBUART_FindReport, %function
 673              	USBUART_FindReport:
 674              	.LFB5:
 364:.\Generated_Source\PSoC5/USBUART_hid.c **** 
 365:.\Generated_Source\PSoC5/USBUART_hid.c **** 
 366:.\Generated_Source\PSoC5/USBUART_hid.c **** /*******************************************************************************
 367:.\Generated_Source\PSoC5/USBUART_hid.c **** * Function Name: USBUART_FindReport
 368:.\Generated_Source\PSoC5/USBUART_hid.c **** ****************************************************************************//**
 369:.\Generated_Source\PSoC5/USBUART_hid.c **** *
 370:.\Generated_Source\PSoC5/USBUART_hid.c **** *  This routine sets up a transfer based on the Interface number, Report Type
 371:.\Generated_Source\PSoC5/USBUART_hid.c **** *  and Report ID, then loads the currentTD structure with the address of the
 372:.\Generated_Source\PSoC5/USBUART_hid.c **** *  buffer and the size.  The caller has to decide if it is a control read or
 373:.\Generated_Source\PSoC5/USBUART_hid.c **** *  control write.
 374:.\Generated_Source\PSoC5/USBUART_hid.c **** *
 375:.\Generated_Source\PSoC5/USBUART_hid.c **** * \return
 376:.\Generated_Source\PSoC5/USBUART_hid.c **** *  currentTD
 377:.\Generated_Source\PSoC5/USBUART_hid.c **** *
 378:.\Generated_Source\PSoC5/USBUART_hid.c **** * \reentrant
 379:.\Generated_Source\PSoC5/USBUART_hid.c **** *  No.
 380:.\Generated_Source\PSoC5/USBUART_hid.c **** *
 381:.\Generated_Source\PSoC5/USBUART_hid.c **** *******************************************************************************/
 382:.\Generated_Source\PSoC5/USBUART_hid.c **** void USBUART_FindReport(void) 
 383:.\Generated_Source\PSoC5/USBUART_hid.c **** {
ARM GAS  C:\Users\LUKASC~1\AppData\Local\Temp\cc6PxJXw.s 			page 20


 675              		.loc 1 383 0
 676              		.cfi_startproc
 677              		@ args = 0, pretend = 0, frame = 16
 678              		@ frame_needed = 1, uses_anonymous_args = 0
 679 0000 80B5     		push	{r7, lr}
 680              		.cfi_def_cfa_offset 8
 681              		.cfi_offset 7, -8
 682              		.cfi_offset 14, -4
 683 0002 84B0     		sub	sp, sp, #16
 684              		.cfi_def_cfa_offset 24
 685 0004 00AF     		add	r7, sp, #0
 686              		.cfi_def_cfa_register 7
 384:.\Generated_Source\PSoC5/USBUART_hid.c ****     const T_USBUART_LUT CYCODE *pTmp;
 385:.\Generated_Source\PSoC5/USBUART_hid.c ****     T_USBUART_TD *pTD;
 386:.\Generated_Source\PSoC5/USBUART_hid.c ****     uint8 reportType;
 387:.\Generated_Source\PSoC5/USBUART_hid.c ****     uint8 interfaceN;
 388:.\Generated_Source\PSoC5/USBUART_hid.c ****  
 389:.\Generated_Source\PSoC5/USBUART_hid.c ****     /* `#START HID_FINDREPORT` Place custom handling here */
 390:.\Generated_Source\PSoC5/USBUART_hid.c **** 
 391:.\Generated_Source\PSoC5/USBUART_hid.c ****     /* `#END` */
 392:.\Generated_Source\PSoC5/USBUART_hid.c ****     
 393:.\Generated_Source\PSoC5/USBUART_hid.c **** #ifdef USBUART_FIND_REPORT_CALLBACK
 394:.\Generated_Source\PSoC5/USBUART_hid.c ****     USBUART_FindReport_Callback();
 395:.\Generated_Source\PSoC5/USBUART_hid.c **** #endif /* (USBUART_FIND_REPORT_CALLBACK) */
 396:.\Generated_Source\PSoC5/USBUART_hid.c ****     
 397:.\Generated_Source\PSoC5/USBUART_hid.c ****     USBUART_currentTD.count = 0u;   /* Init not supported condition */
 687              		.loc 1 397 0
 688 0006 2D4B     		ldr	r3, .L50
 689 0008 0022     		movs	r2, #0
 690 000a 1A80     		strh	r2, [r3]	@ movhi
 398:.\Generated_Source\PSoC5/USBUART_hid.c ****     pTmp = USBUART_GetConfigTablePtr(USBUART_configuration - 1u);
 691              		.loc 1 398 0
 692 000c 2C4B     		ldr	r3, .L50+4
 693 000e 1B78     		ldrb	r3, [r3]
 694 0010 DBB2     		uxtb	r3, r3
 695 0012 013B     		subs	r3, r3, #1
 696 0014 DBB2     		uxtb	r3, r3
 697 0016 1846     		mov	r0, r3
 698 0018 FFF7FEFF 		bl	USBUART_GetConfigTablePtr
 699 001c F860     		str	r0, [r7, #12]
 399:.\Generated_Source\PSoC5/USBUART_hid.c ****     reportType = (uint8) USBUART_wValueHiReg;
 700              		.loc 1 399 0
 701 001e 294B     		ldr	r3, .L50+8
 702 0020 DB78     		ldrb	r3, [r3, #3]
 703 0022 FB72     		strb	r3, [r7, #11]
 400:.\Generated_Source\PSoC5/USBUART_hid.c ****     interfaceN = (uint8) USBUART_wIndexLoReg;
 704              		.loc 1 400 0
 705 0024 274B     		ldr	r3, .L50+8
 706 0026 1B79     		ldrb	r3, [r3, #4]
 707 0028 BB72     		strb	r3, [r7, #10]
 401:.\Generated_Source\PSoC5/USBUART_hid.c ****     
 402:.\Generated_Source\PSoC5/USBUART_hid.c ****     /* Third entry in the LUT Configuration Table starts the Interface Table pointers */
 403:.\Generated_Source\PSoC5/USBUART_hid.c ****     /* Now use the request interface number */
 404:.\Generated_Source\PSoC5/USBUART_hid.c ****     pTmp = &pTmp[interfaceN + 2u];
 708              		.loc 1 404 0
 709 002a BB7A     		ldrb	r3, [r7, #10]	@ zero_extendqisi2
 710 002c 0233     		adds	r3, r3, #2
ARM GAS  C:\Users\LUKASC~1\AppData\Local\Temp\cc6PxJXw.s 			page 21


 711 002e DB00     		lsls	r3, r3, #3
 712 0030 FA68     		ldr	r2, [r7, #12]
 713 0032 1344     		add	r3, r3, r2
 714 0034 FB60     		str	r3, [r7, #12]
 405:.\Generated_Source\PSoC5/USBUART_hid.c ****     
 406:.\Generated_Source\PSoC5/USBUART_hid.c ****     /* USB_DEVICEx_CONFIGURATIONy_INTERFACEz_TABLE */
 407:.\Generated_Source\PSoC5/USBUART_hid.c ****     pTmp = (const T_USBUART_LUT CYCODE *) pTmp->p_list;
 715              		.loc 1 407 0
 716 0036 FB68     		ldr	r3, [r7, #12]
 717 0038 5B68     		ldr	r3, [r3, #4]
 718 003a FB60     		str	r3, [r7, #12]
 408:.\Generated_Source\PSoC5/USBUART_hid.c ****     if (interfaceN < USBUART_MAX_INTERFACES_NUMBER)
 719              		.loc 1 408 0
 720 003c BB7A     		ldrb	r3, [r7, #10]	@ zero_extendqisi2
 721 003e 012B     		cmp	r3, #1
 722 0040 38D8     		bhi	.L48
 409:.\Generated_Source\PSoC5/USBUART_hid.c ****     {
 410:.\Generated_Source\PSoC5/USBUART_hid.c ****         /* Now use Alternate setting number */
 411:.\Generated_Source\PSoC5/USBUART_hid.c ****         pTmp = &pTmp[USBUART_interfaceSetting[interfaceN]];
 723              		.loc 1 411 0
 724 0042 BB7A     		ldrb	r3, [r7, #10]	@ zero_extendqisi2
 725 0044 204A     		ldr	r2, .L50+12
 726 0046 D35C     		ldrb	r3, [r2, r3]
 727 0048 DBB2     		uxtb	r3, r3
 728 004a DB00     		lsls	r3, r3, #3
 729 004c FA68     		ldr	r2, [r7, #12]
 730 004e 1344     		add	r3, r3, r2
 731 0050 FB60     		str	r3, [r7, #12]
 412:.\Generated_Source\PSoC5/USBUART_hid.c ****         
 413:.\Generated_Source\PSoC5/USBUART_hid.c ****         /* USB_DEVICEx_CONFIGURATIONy_INTERFACEz_ALTERNATEi_HID_TABLE */
 414:.\Generated_Source\PSoC5/USBUART_hid.c ****         pTmp = (const T_USBUART_LUT CYCODE *) pTmp->p_list;
 732              		.loc 1 414 0
 733 0052 FB68     		ldr	r3, [r7, #12]
 734 0054 5B68     		ldr	r3, [r3, #4]
 735 0056 FB60     		str	r3, [r7, #12]
 415:.\Generated_Source\PSoC5/USBUART_hid.c ****         
 416:.\Generated_Source\PSoC5/USBUART_hid.c ****         /* Validate reportType to comply with "7.2.1 Get_Report Request" */
 417:.\Generated_Source\PSoC5/USBUART_hid.c ****         if ((reportType >= USBUART_HID_GET_REPORT_INPUT) &&
 736              		.loc 1 417 0
 737 0058 FB7A     		ldrb	r3, [r7, #11]	@ zero_extendqisi2
 738 005a 002B     		cmp	r3, #0
 739 005c 2AD0     		beq	.L48
 740              		.loc 1 417 0 is_stmt 0 discriminator 1
 741 005e FB7A     		ldrb	r3, [r7, #11]	@ zero_extendqisi2
 742 0060 032B     		cmp	r3, #3
 743 0062 27D8     		bhi	.L48
 418:.\Generated_Source\PSoC5/USBUART_hid.c ****             (reportType <= USBUART_HID_GET_REPORT_FEATURE))
 419:.\Generated_Source\PSoC5/USBUART_hid.c ****         {
 420:.\Generated_Source\PSoC5/USBUART_hid.c ****             /* Get the entry proper TD (IN, OUT or Feature Report Table)*/
 421:.\Generated_Source\PSoC5/USBUART_hid.c ****             pTmp = &pTmp[reportType - 1u];
 744              		.loc 1 421 0 is_stmt 1
 745 0064 FB7A     		ldrb	r3, [r7, #11]	@ zero_extendqisi2
 746 0066 03F10053 		add	r3, r3, #536870912
 747 006a 013B     		subs	r3, r3, #1
 748 006c DB00     		lsls	r3, r3, #3
 749 006e FA68     		ldr	r2, [r7, #12]
 750 0070 1344     		add	r3, r3, r2
ARM GAS  C:\Users\LUKASC~1\AppData\Local\Temp\cc6PxJXw.s 			page 22


 751 0072 FB60     		str	r3, [r7, #12]
 422:.\Generated_Source\PSoC5/USBUART_hid.c ****             
 423:.\Generated_Source\PSoC5/USBUART_hid.c ****             /* Get reportID */
 424:.\Generated_Source\PSoC5/USBUART_hid.c ****             reportType = (uint8) USBUART_wValueLoReg;
 752              		.loc 1 424 0
 753 0074 134B     		ldr	r3, .L50+8
 754 0076 9B78     		ldrb	r3, [r3, #2]
 755 0078 FB72     		strb	r3, [r7, #11]
 425:.\Generated_Source\PSoC5/USBUART_hid.c ****             
 426:.\Generated_Source\PSoC5/USBUART_hid.c ****             /* Validate table support by the HID descriptor, compare table count with reportID */
 427:.\Generated_Source\PSoC5/USBUART_hid.c ****             if (pTmp->c >= reportType)
 756              		.loc 1 427 0
 757 007a FB68     		ldr	r3, [r7, #12]
 758 007c 1B78     		ldrb	r3, [r3]	@ zero_extendqisi2
 759 007e FA7A     		ldrb	r2, [r7, #11]	@ zero_extendqisi2
 760 0080 9A42     		cmp	r2, r3
 761 0082 17D8     		bhi	.L48
 428:.\Generated_Source\PSoC5/USBUART_hid.c ****             {
 429:.\Generated_Source\PSoC5/USBUART_hid.c ****                 pTD = (T_USBUART_TD *) pTmp->p_list;
 762              		.loc 1 429 0
 763 0084 FB68     		ldr	r3, [r7, #12]
 764 0086 5B68     		ldr	r3, [r3, #4]
 765 0088 7B60     		str	r3, [r7, #4]
 430:.\Generated_Source\PSoC5/USBUART_hid.c ****                 pTD = &pTD[reportType];                          /* select entry depend on report I
 766              		.loc 1 430 0
 767 008a FA7A     		ldrb	r2, [r7, #11]	@ zero_extendqisi2
 768 008c 1346     		mov	r3, r2
 769 008e 5B00     		lsls	r3, r3, #1
 770 0090 1344     		add	r3, r3, r2
 771 0092 9B00     		lsls	r3, r3, #2
 772 0094 1A46     		mov	r2, r3
 773 0096 7B68     		ldr	r3, [r7, #4]
 774 0098 1344     		add	r3, r3, r2
 775 009a 7B60     		str	r3, [r7, #4]
 431:.\Generated_Source\PSoC5/USBUART_hid.c ****                 USBUART_currentTD.pData = pTD->pData;   /* Buffer pointer */
 776              		.loc 1 431 0
 777 009c 7B68     		ldr	r3, [r7, #4]
 778 009e 5B68     		ldr	r3, [r3, #4]
 779 00a0 064A     		ldr	r2, .L50
 780 00a2 5360     		str	r3, [r2, #4]
 432:.\Generated_Source\PSoC5/USBUART_hid.c ****                 USBUART_currentTD.count = pTD->count;   /* Buffer Size */
 781              		.loc 1 432 0
 782 00a4 7B68     		ldr	r3, [r7, #4]
 783 00a6 1A88     		ldrh	r2, [r3]
 784 00a8 044B     		ldr	r3, .L50
 785 00aa 1A80     		strh	r2, [r3]	@ movhi
 433:.\Generated_Source\PSoC5/USBUART_hid.c ****                 USBUART_currentTD.pStatusBlock = pTD->pStatusBlock;
 786              		.loc 1 433 0
 787 00ac 7B68     		ldr	r3, [r7, #4]
 788 00ae 9B68     		ldr	r3, [r3, #8]
 789 00b0 024A     		ldr	r2, .L50
 790 00b2 9360     		str	r3, [r2, #8]
 791              	.L48:
 434:.\Generated_Source\PSoC5/USBUART_hid.c ****             }
 435:.\Generated_Source\PSoC5/USBUART_hid.c ****         }
 436:.\Generated_Source\PSoC5/USBUART_hid.c ****     }
 437:.\Generated_Source\PSoC5/USBUART_hid.c **** }
ARM GAS  C:\Users\LUKASC~1\AppData\Local\Temp\cc6PxJXw.s 			page 23


 792              		.loc 1 437 0
 793 00b4 1037     		adds	r7, r7, #16
 794              		.cfi_def_cfa_offset 8
 795 00b6 BD46     		mov	sp, r7
 796              		.cfi_def_cfa_register 13
 797              		@ sp needed
 798 00b8 80BD     		pop	{r7, pc}
 799              	.L51:
 800 00ba 00BF     		.align	2
 801              	.L50:
 802 00bc 00000000 		.word	USBUART_currentTD
 803 00c0 00000000 		.word	USBUART_configuration
 804 00c4 00600040 		.word	1073766400
 805 00c8 00000000 		.word	USBUART_interfaceSetting
 806              		.cfi_endproc
 807              	.LFE5:
 808              		.size	USBUART_FindReport, .-USBUART_FindReport
 809              		.text
 810              	.Letext0:
 811              		.file 2 ".\\Generated_Source\\PSoC5\\cytypes.h"
 812              		.file 3 ".\\Generated_Source\\PSoC5\\USBUART.h"
 813              		.file 4 ".\\Generated_Source\\PSoC5\\USBUART_pvt.h"
 814              		.section	.debug_info,"",%progbits
 815              	.Ldebug_info0:
 816 0000 70030000 		.4byte	0x370
 817 0004 0400     		.2byte	0x4
 818 0006 00000000 		.4byte	.Ldebug_abbrev0
 819 000a 04       		.byte	0x4
 820 000b 01       		.uleb128 0x1
 821 000c 22010000 		.4byte	.LASF46
 822 0010 01       		.byte	0x1
 823 0011 94020000 		.4byte	.LASF47
 824 0015 49030000 		.4byte	.LASF48
 825 0019 00000000 		.4byte	.Ldebug_ranges0+0
 826 001d 00000000 		.4byte	0
 827 0021 00000000 		.4byte	.Ldebug_line0
 828 0025 02       		.uleb128 0x2
 829 0026 01       		.byte	0x1
 830 0027 06       		.byte	0x6
 831 0028 3D030000 		.4byte	.LASF0
 832 002c 02       		.uleb128 0x2
 833 002d 01       		.byte	0x1
 834 002e 08       		.byte	0x8
 835 002f B7000000 		.4byte	.LASF1
 836 0033 02       		.uleb128 0x2
 837 0034 02       		.byte	0x2
 838 0035 05       		.byte	0x5
 839 0036 F2020000 		.4byte	.LASF2
 840 003a 02       		.uleb128 0x2
 841 003b 02       		.byte	0x2
 842 003c 07       		.byte	0x7
 843 003d 35000000 		.4byte	.LASF3
 844 0041 02       		.uleb128 0x2
 845 0042 04       		.byte	0x4
 846 0043 05       		.byte	0x5
 847 0044 14030000 		.4byte	.LASF4
 848 0048 02       		.uleb128 0x2
ARM GAS  C:\Users\LUKASC~1\AppData\Local\Temp\cc6PxJXw.s 			page 24


 849 0049 04       		.byte	0x4
 850 004a 07       		.byte	0x7
 851 004b E6000000 		.4byte	.LASF5
 852 004f 02       		.uleb128 0x2
 853 0050 08       		.byte	0x8
 854 0051 05       		.byte	0x5
 855 0052 DA020000 		.4byte	.LASF6
 856 0056 02       		.uleb128 0x2
 857 0057 08       		.byte	0x8
 858 0058 07       		.byte	0x7
 859 0059 0F020000 		.4byte	.LASF7
 860 005d 03       		.uleb128 0x3
 861 005e 04       		.byte	0x4
 862 005f 05       		.byte	0x5
 863 0060 696E7400 		.ascii	"int\000"
 864 0064 02       		.uleb128 0x2
 865 0065 04       		.byte	0x4
 866 0066 07       		.byte	0x7
 867 0067 D7010000 		.4byte	.LASF8
 868 006b 04       		.uleb128 0x4
 869 006c F8000000 		.4byte	.LASF9
 870 0070 02       		.byte	0x2
 871 0071 3801     		.2byte	0x138
 872 0073 2C000000 		.4byte	0x2c
 873 0077 04       		.uleb128 0x4
 874 0078 C9010000 		.4byte	.LASF10
 875 007c 02       		.byte	0x2
 876 007d 3901     		.2byte	0x139
 877 007f 3A000000 		.4byte	0x3a
 878 0083 02       		.uleb128 0x2
 879 0084 04       		.byte	0x4
 880 0085 04       		.byte	0x4
 881 0086 A6000000 		.4byte	.LASF11
 882 008a 02       		.uleb128 0x2
 883 008b 08       		.byte	0x8
 884 008c 04       		.byte	0x4
 885 008d B0010000 		.4byte	.LASF12
 886 0091 02       		.uleb128 0x2
 887 0092 01       		.byte	0x1
 888 0093 08       		.byte	0x8
 889 0094 E8020000 		.4byte	.LASF13
 890 0098 05       		.uleb128 0x5
 891 0099 6B000000 		.4byte	0x6b
 892 009d 02       		.uleb128 0x2
 893 009e 04       		.byte	0x4
 894 009f 07       		.byte	0x7
 895 00a0 BB020000 		.4byte	.LASF14
 896 00a4 06       		.uleb128 0x6
 897 00a5 04       		.byte	0x4
 898 00a6 03       		.byte	0x3
 899 00a7 A8       		.byte	0xa8
 900 00a8 C5000000 		.4byte	0xc5
 901 00ac 07       		.uleb128 0x7
 902 00ad 66000000 		.4byte	.LASF15
 903 00b1 03       		.byte	0x3
 904 00b2 AA       		.byte	0xaa
 905 00b3 6B000000 		.4byte	0x6b
ARM GAS  C:\Users\LUKASC~1\AppData\Local\Temp\cc6PxJXw.s 			page 25


 906 00b7 00       		.byte	0
 907 00b8 07       		.uleb128 0x7
 908 00b9 36030000 		.4byte	.LASF16
 909 00bd 03       		.byte	0x3
 910 00be AB       		.byte	0xab
 911 00bf 77000000 		.4byte	0x77
 912 00c3 02       		.byte	0x2
 913 00c4 00       		.byte	0
 914 00c5 08       		.uleb128 0x8
 915 00c6 60020000 		.4byte	.LASF17
 916 00ca 03       		.byte	0x3
 917 00cb AC       		.byte	0xac
 918 00cc A4000000 		.4byte	0xa4
 919 00d0 06       		.uleb128 0x6
 920 00d1 0C       		.byte	0xc
 921 00d2 03       		.byte	0x3
 922 00d3 AE       		.byte	0xae
 923 00d4 FD000000 		.4byte	0xfd
 924 00d8 07       		.uleb128 0x7
 925 00d9 2F000000 		.4byte	.LASF18
 926 00dd 03       		.byte	0x3
 927 00de B0       		.byte	0xb0
 928 00df 77000000 		.4byte	0x77
 929 00e3 00       		.byte	0
 930 00e4 07       		.uleb128 0x7
 931 00e5 8A000000 		.4byte	.LASF19
 932 00e9 03       		.byte	0x3
 933 00ea B1       		.byte	0xb1
 934 00eb FD000000 		.4byte	0xfd
 935 00ef 04       		.byte	0x4
 936 00f0 07       		.uleb128 0x7
 937 00f1 1D000000 		.4byte	.LASF20
 938 00f5 03       		.byte	0x3
 939 00f6 B2       		.byte	0xb2
 940 00f7 03010000 		.4byte	0x103
 941 00fb 08       		.byte	0x8
 942 00fc 00       		.byte	0
 943 00fd 09       		.uleb128 0x9
 944 00fe 04       		.byte	0x4
 945 00ff 98000000 		.4byte	0x98
 946 0103 09       		.uleb128 0x9
 947 0104 04       		.byte	0x4
 948 0105 C5000000 		.4byte	0xc5
 949 0109 08       		.uleb128 0x8
 950 010a D9000000 		.4byte	.LASF21
 951 010e 03       		.byte	0x3
 952 010f B3       		.byte	0xb3
 953 0110 D0000000 		.4byte	0xd0
 954 0114 06       		.uleb128 0x6
 955 0115 08       		.byte	0x8
 956 0116 03       		.byte	0x3
 957 0117 B5       		.byte	0xb5
 958 0118 33010000 		.4byte	0x133
 959 011c 0A       		.uleb128 0xa
 960 011d 6300     		.ascii	"c\000"
 961 011f 03       		.byte	0x3
 962 0120 B7       		.byte	0xb7
ARM GAS  C:\Users\LUKASC~1\AppData\Local\Temp\cc6PxJXw.s 			page 26


 963 0121 6B000000 		.4byte	0x6b
 964 0125 00       		.byte	0
 965 0126 07       		.uleb128 0x7
 966 0127 44020000 		.4byte	.LASF22
 967 012b 03       		.byte	0x3
 968 012c B8       		.byte	0xb8
 969 012d 33010000 		.4byte	0x133
 970 0131 04       		.byte	0x4
 971 0132 00       		.byte	0
 972 0133 09       		.uleb128 0x9
 973 0134 04       		.byte	0x4
 974 0135 39010000 		.4byte	0x139
 975 0139 0B       		.uleb128 0xb
 976 013a 08       		.uleb128 0x8
 977 013b 06030000 		.4byte	.LASF23
 978 013f 03       		.byte	0x3
 979 0140 B9       		.byte	0xb9
 980 0141 14010000 		.4byte	0x114
 981 0145 06       		.uleb128 0x6
 982 0146 08       		.byte	0x8
 983 0147 03       		.byte	0x3
 984 0148 C9       		.byte	0xc9
 985 0149 5A010000 		.4byte	0x15a
 986 014d 07       		.uleb128 0x7
 987 014e 90000000 		.4byte	.LASF24
 988 0152 03       		.byte	0x3
 989 0153 CB       		.byte	0xcb
 990 0154 5A010000 		.4byte	0x15a
 991 0158 00       		.byte	0
 992 0159 00       		.byte	0
 993 015a 0C       		.uleb128 0xc
 994 015b 6B000000 		.4byte	0x6b
 995 015f 6A010000 		.4byte	0x16a
 996 0163 0D       		.uleb128 0xd
 997 0164 9D000000 		.4byte	0x9d
 998 0168 07       		.byte	0x7
 999 0169 00       		.byte	0
 1000 016a 08       		.uleb128 0x8
 1001 016b 7C020000 		.4byte	.LASF25
 1002 016f 03       		.byte	0x3
 1003 0170 CC       		.byte	0xcc
 1004 0171 45010000 		.4byte	0x145
 1005 0175 0E       		.uleb128 0xe
 1006 0176 F8010000 		.4byte	.LASF26
 1007 017a 01       		.byte	0x1
 1008 017b 4C       		.byte	0x4c
 1009 017c 6B000000 		.4byte	0x6b
 1010 0180 00000000 		.4byte	.LFB0
 1011 0184 64000000 		.4byte	.LFE0-.LFB0
 1012 0188 01       		.uleb128 0x1
 1013 0189 9C       		.byte	0x9c
 1014 018a AB010000 		.4byte	0x1ab
 1015 018e 0F       		.uleb128 0xf
 1016 018f FC020000 		.4byte	.LASF28
 1017 0193 01       		.byte	0x1
 1018 0194 4C       		.byte	0x4c
 1019 0195 6B000000 		.4byte	0x6b
ARM GAS  C:\Users\LUKASC~1\AppData\Local\Temp\cc6PxJXw.s 			page 27


 1020 0199 02       		.uleb128 0x2
 1021 019a 91       		.byte	0x91
 1022 019b 6F       		.sleb128 -17
 1023 019c 10       		.uleb128 0x10
 1024 019d 2A000000 		.4byte	.LASF30
 1025 01a1 01       		.byte	0x1
 1026 01a2 4E       		.byte	0x4e
 1027 01a3 6B000000 		.4byte	0x6b
 1028 01a7 02       		.uleb128 0x2
 1029 01a8 91       		.byte	0x91
 1030 01a9 77       		.sleb128 -9
 1031 01aa 00       		.byte	0
 1032 01ab 0E       		.uleb128 0xe
 1033 01ac 0E010000 		.4byte	.LASF27
 1034 01b0 01       		.byte	0x1
 1035 01b1 6E       		.byte	0x6e
 1036 01b2 6B000000 		.4byte	0x6b
 1037 01b6 00000000 		.4byte	.LFB1
 1038 01ba 24000000 		.4byte	.LFE1-.LFB1
 1039 01be 01       		.uleb128 0x1
 1040 01bf 9C       		.byte	0x9c
 1041 01c0 D3010000 		.4byte	0x1d3
 1042 01c4 0F       		.uleb128 0xf
 1043 01c5 FC020000 		.4byte	.LASF28
 1044 01c9 01       		.byte	0x1
 1045 01ca 6E       		.byte	0x6e
 1046 01cb 6B000000 		.4byte	0x6b
 1047 01cf 02       		.uleb128 0x2
 1048 01d0 91       		.byte	0x91
 1049 01d1 77       		.sleb128 -9
 1050 01d2 00       		.byte	0
 1051 01d3 11       		.uleb128 0x11
 1052 01d4 00000000 		.4byte	.LASF29
 1053 01d8 01       		.byte	0x1
 1054 01d9 83       		.byte	0x83
 1055 01da 6B000000 		.4byte	0x6b
 1056 01de 00000000 		.4byte	.LFB2
 1057 01e2 D0010000 		.4byte	.LFE2-.LFB2
 1058 01e6 01       		.uleb128 0x1
 1059 01e7 9C       		.byte	0x9c
 1060 01e8 09020000 		.4byte	0x209
 1061 01ec 10       		.uleb128 0x10
 1062 01ed 97000000 		.4byte	.LASF31
 1063 01f1 01       		.byte	0x1
 1064 01f2 85       		.byte	0x85
 1065 01f3 6B000000 		.4byte	0x6b
 1066 01f7 02       		.uleb128 0x2
 1067 01f8 91       		.byte	0x91
 1068 01f9 77       		.sleb128 -9
 1069 01fa 10       		.uleb128 0x10
 1070 01fb FE000000 		.4byte	.LASF32
 1071 01ff 01       		.byte	0x1
 1072 0200 87       		.byte	0x87
 1073 0201 6B000000 		.4byte	0x6b
 1074 0205 02       		.uleb128 0x2
 1075 0206 91       		.byte	0x91
 1076 0207 76       		.sleb128 -10
ARM GAS  C:\Users\LUKASC~1\AppData\Local\Temp\cc6PxJXw.s 			page 28


 1077 0208 00       		.byte	0
 1078 0209 12       		.uleb128 0x12
 1079 020a 26020000 		.4byte	.LASF36
 1080 020e 01       		.byte	0x1
 1081 020f 1E01     		.2byte	0x11e
 1082 0211 00000000 		.4byte	.LFB3
 1083 0215 7C000000 		.4byte	.LFE3-.LFB3
 1084 0219 01       		.uleb128 0x1
 1085 021a 9C       		.byte	0x9c
 1086 021b 4D020000 		.4byte	0x24d
 1087 021f 13       		.uleb128 0x13
 1088 0220 ED020000 		.4byte	.LASF33
 1089 0224 01       		.byte	0x1
 1090 0225 2001     		.2byte	0x120
 1091 0227 4D020000 		.4byte	0x24d
 1092 022b 02       		.uleb128 0x2
 1093 022c 91       		.byte	0x91
 1094 022d 74       		.sleb128 -12
 1095 022e 13       		.uleb128 0x13
 1096 022f D0010000 		.4byte	.LASF34
 1097 0233 01       		.byte	0x1
 1098 0234 2101     		.2byte	0x121
 1099 0236 FD000000 		.4byte	0xfd
 1100 023a 02       		.uleb128 0x2
 1101 023b 91       		.byte	0x91
 1102 023c 6C       		.sleb128 -20
 1103 023d 13       		.uleb128 0x13
 1104 023e 5B000000 		.4byte	.LASF35
 1105 0242 01       		.byte	0x1
 1106 0243 2201     		.2byte	0x122
 1107 0245 6B000000 		.4byte	0x6b
 1108 0249 02       		.uleb128 0x2
 1109 024a 91       		.byte	0x91
 1110 024b 73       		.sleb128 -13
 1111 024c 00       		.byte	0
 1112 024d 09       		.uleb128 0x9
 1113 024e 04       		.byte	0x4
 1114 024f 53020000 		.4byte	0x253
 1115 0253 14       		.uleb128 0x14
 1116 0254 3A010000 		.4byte	0x13a
 1117 0258 12       		.uleb128 0x12
 1118 0259 6D000000 		.4byte	.LASF37
 1119 025d 01       		.byte	0x1
 1120 025e 4E01     		.2byte	0x14e
 1121 0260 00000000 		.4byte	.LFB4
 1122 0264 90000000 		.4byte	.LFE4-.LFB4
 1123 0268 01       		.uleb128 0x1
 1124 0269 9C       		.byte	0x9c
 1125 026a 9C020000 		.4byte	0x29c
 1126 026e 13       		.uleb128 0x13
 1127 026f ED020000 		.4byte	.LASF33
 1128 0273 01       		.byte	0x1
 1129 0274 5001     		.2byte	0x150
 1130 0276 4D020000 		.4byte	0x24d
 1131 027a 02       		.uleb128 0x2
 1132 027b 91       		.byte	0x91
 1133 027c 74       		.sleb128 -12
ARM GAS  C:\Users\LUKASC~1\AppData\Local\Temp\cc6PxJXw.s 			page 29


 1134 027d 13       		.uleb128 0x13
 1135 027e D0010000 		.4byte	.LASF34
 1136 0282 01       		.byte	0x1
 1137 0283 5101     		.2byte	0x151
 1138 0285 FD000000 		.4byte	0xfd
 1139 0289 02       		.uleb128 0x2
 1140 028a 91       		.byte	0x91
 1141 028b 6C       		.sleb128 -20
 1142 028c 13       		.uleb128 0x13
 1143 028d 5B000000 		.4byte	.LASF35
 1144 0291 01       		.byte	0x1
 1145 0292 5201     		.2byte	0x152
 1146 0294 6B000000 		.4byte	0x6b
 1147 0298 02       		.uleb128 0x2
 1148 0299 91       		.byte	0x91
 1149 029a 73       		.sleb128 -13
 1150 029b 00       		.byte	0
 1151 029c 12       		.uleb128 0x12
 1152 029d 48000000 		.4byte	.LASF38
 1153 02a1 01       		.byte	0x1
 1154 02a2 7E01     		.2byte	0x17e
 1155 02a4 00000000 		.4byte	.LFB5
 1156 02a8 CC000000 		.4byte	.LFE5-.LFB5
 1157 02ac 01       		.uleb128 0x1
 1158 02ad 9C       		.byte	0x9c
 1159 02ae EF020000 		.4byte	0x2ef
 1160 02b2 13       		.uleb128 0x13
 1161 02b3 ED020000 		.4byte	.LASF33
 1162 02b7 01       		.byte	0x1
 1163 02b8 8001     		.2byte	0x180
 1164 02ba 4D020000 		.4byte	0x24d
 1165 02be 02       		.uleb128 0x2
 1166 02bf 91       		.byte	0x91
 1167 02c0 74       		.sleb128 -12
 1168 02c1 15       		.uleb128 0x15
 1169 02c2 70544400 		.ascii	"pTD\000"
 1170 02c6 01       		.byte	0x1
 1171 02c7 8101     		.2byte	0x181
 1172 02c9 EF020000 		.4byte	0x2ef
 1173 02cd 02       		.uleb128 0x2
 1174 02ce 91       		.byte	0x91
 1175 02cf 6C       		.sleb128 -20
 1176 02d0 13       		.uleb128 0x13
 1177 02d1 AC000000 		.4byte	.LASF39
 1178 02d5 01       		.byte	0x1
 1179 02d6 8201     		.2byte	0x182
 1180 02d8 6B000000 		.4byte	0x6b
 1181 02dc 02       		.uleb128 0x2
 1182 02dd 91       		.byte	0x91
 1183 02de 73       		.sleb128 -13
 1184 02df 13       		.uleb128 0x13
 1185 02e0 5B000000 		.4byte	.LASF35
 1186 02e4 01       		.byte	0x1
 1187 02e5 8301     		.2byte	0x183
 1188 02e7 6B000000 		.4byte	0x6b
 1189 02eb 02       		.uleb128 0x2
 1190 02ec 91       		.byte	0x91
ARM GAS  C:\Users\LUKASC~1\AppData\Local\Temp\cc6PxJXw.s 			page 30


 1191 02ed 72       		.sleb128 -14
 1192 02ee 00       		.byte	0
 1193 02ef 09       		.uleb128 0x9
 1194 02f0 04       		.byte	0x4
 1195 02f1 09010000 		.4byte	0x109
 1196 02f5 16       		.uleb128 0x16
 1197 02f6 C4020000 		.4byte	.LASF40
 1198 02fa 03       		.byte	0x3
 1199 02fb D802     		.2byte	0x2d8
 1200 02fd 98000000 		.4byte	0x98
 1201 0301 0C       		.uleb128 0xc
 1202 0302 6B000000 		.4byte	0x6b
 1203 0306 11030000 		.4byte	0x311
 1204 030a 0D       		.uleb128 0xd
 1205 030b 9D000000 		.4byte	0x9d
 1206 030f 01       		.byte	0x1
 1207 0310 00       		.byte	0
 1208 0311 17       		.uleb128 0x17
 1209 0312 E4010000 		.4byte	.LASF41
 1210 0316 01       		.byte	0x1
 1211 0317 21       		.byte	0x21
 1212 0318 22030000 		.4byte	0x322
 1213 031c 05       		.uleb128 0x5
 1214 031d 03       		.byte	0x3
 1215 031e 00000000 		.4byte	USBUART_hidProtocol
 1216 0322 05       		.uleb128 0x5
 1217 0323 01030000 		.4byte	0x301
 1218 0327 17       		.uleb128 0x17
 1219 0328 C5000000 		.4byte	.LASF42
 1220 032c 01       		.byte	0x1
 1221 032d 26       		.byte	0x26
 1222 032e 38030000 		.4byte	0x338
 1223 0332 05       		.uleb128 0x5
 1224 0333 03       		.byte	0x3
 1225 0334 00000000 		.4byte	USBUART_hidIdleRate
 1226 0338 05       		.uleb128 0x5
 1227 0339 01030000 		.4byte	0x301
 1228 033d 17       		.uleb128 0x17
 1229 033e 4B020000 		.4byte	.LASF43
 1230 0342 01       		.byte	0x1
 1231 0343 2A       		.byte	0x2a
 1232 0344 4E030000 		.4byte	0x34e
 1233 0348 05       		.uleb128 0x5
 1234 0349 03       		.byte	0x3
 1235 034a 00000000 		.4byte	USBUART_hidIdleTimer
 1236 034e 05       		.uleb128 0x5
 1237 034f 01030000 		.4byte	0x301
 1238 0353 18       		.uleb128 0x18
 1239 0354 1D030000 		.4byte	.LASF44
 1240 0358 04       		.byte	0x4
 1241 0359 74       		.byte	0x74
 1242 035a 5E030000 		.4byte	0x35e
 1243 035e 05       		.uleb128 0x5
 1244 035f 01030000 		.4byte	0x301
 1245 0363 18       		.uleb128 0x18
 1246 0364 B7010000 		.4byte	.LASF45
 1247 0368 04       		.byte	0x4
ARM GAS  C:\Users\LUKASC~1\AppData\Local\Temp\cc6PxJXw.s 			page 31


 1248 0369 7B       		.byte	0x7b
 1249 036a 6E030000 		.4byte	0x36e
 1250 036e 05       		.uleb128 0x5
 1251 036f 09010000 		.4byte	0x109
 1252 0373 00       		.byte	0
 1253              		.section	.debug_abbrev,"",%progbits
 1254              	.Ldebug_abbrev0:
 1255 0000 01       		.uleb128 0x1
 1256 0001 11       		.uleb128 0x11
 1257 0002 01       		.byte	0x1
 1258 0003 25       		.uleb128 0x25
 1259 0004 0E       		.uleb128 0xe
 1260 0005 13       		.uleb128 0x13
 1261 0006 0B       		.uleb128 0xb
 1262 0007 03       		.uleb128 0x3
 1263 0008 0E       		.uleb128 0xe
 1264 0009 1B       		.uleb128 0x1b
 1265 000a 0E       		.uleb128 0xe
 1266 000b 55       		.uleb128 0x55
 1267 000c 17       		.uleb128 0x17
 1268 000d 11       		.uleb128 0x11
 1269 000e 01       		.uleb128 0x1
 1270 000f 10       		.uleb128 0x10
 1271 0010 17       		.uleb128 0x17
 1272 0011 00       		.byte	0
 1273 0012 00       		.byte	0
 1274 0013 02       		.uleb128 0x2
 1275 0014 24       		.uleb128 0x24
 1276 0015 00       		.byte	0
 1277 0016 0B       		.uleb128 0xb
 1278 0017 0B       		.uleb128 0xb
 1279 0018 3E       		.uleb128 0x3e
 1280 0019 0B       		.uleb128 0xb
 1281 001a 03       		.uleb128 0x3
 1282 001b 0E       		.uleb128 0xe
 1283 001c 00       		.byte	0
 1284 001d 00       		.byte	0
 1285 001e 03       		.uleb128 0x3
 1286 001f 24       		.uleb128 0x24
 1287 0020 00       		.byte	0
 1288 0021 0B       		.uleb128 0xb
 1289 0022 0B       		.uleb128 0xb
 1290 0023 3E       		.uleb128 0x3e
 1291 0024 0B       		.uleb128 0xb
 1292 0025 03       		.uleb128 0x3
 1293 0026 08       		.uleb128 0x8
 1294 0027 00       		.byte	0
 1295 0028 00       		.byte	0
 1296 0029 04       		.uleb128 0x4
 1297 002a 16       		.uleb128 0x16
 1298 002b 00       		.byte	0
 1299 002c 03       		.uleb128 0x3
 1300 002d 0E       		.uleb128 0xe
 1301 002e 3A       		.uleb128 0x3a
 1302 002f 0B       		.uleb128 0xb
 1303 0030 3B       		.uleb128 0x3b
 1304 0031 05       		.uleb128 0x5
ARM GAS  C:\Users\LUKASC~1\AppData\Local\Temp\cc6PxJXw.s 			page 32


 1305 0032 49       		.uleb128 0x49
 1306 0033 13       		.uleb128 0x13
 1307 0034 00       		.byte	0
 1308 0035 00       		.byte	0
 1309 0036 05       		.uleb128 0x5
 1310 0037 35       		.uleb128 0x35
 1311 0038 00       		.byte	0
 1312 0039 49       		.uleb128 0x49
 1313 003a 13       		.uleb128 0x13
 1314 003b 00       		.byte	0
 1315 003c 00       		.byte	0
 1316 003d 06       		.uleb128 0x6
 1317 003e 13       		.uleb128 0x13
 1318 003f 01       		.byte	0x1
 1319 0040 0B       		.uleb128 0xb
 1320 0041 0B       		.uleb128 0xb
 1321 0042 3A       		.uleb128 0x3a
 1322 0043 0B       		.uleb128 0xb
 1323 0044 3B       		.uleb128 0x3b
 1324 0045 0B       		.uleb128 0xb
 1325 0046 01       		.uleb128 0x1
 1326 0047 13       		.uleb128 0x13
 1327 0048 00       		.byte	0
 1328 0049 00       		.byte	0
 1329 004a 07       		.uleb128 0x7
 1330 004b 0D       		.uleb128 0xd
 1331 004c 00       		.byte	0
 1332 004d 03       		.uleb128 0x3
 1333 004e 0E       		.uleb128 0xe
 1334 004f 3A       		.uleb128 0x3a
 1335 0050 0B       		.uleb128 0xb
 1336 0051 3B       		.uleb128 0x3b
 1337 0052 0B       		.uleb128 0xb
 1338 0053 49       		.uleb128 0x49
 1339 0054 13       		.uleb128 0x13
 1340 0055 38       		.uleb128 0x38
 1341 0056 0B       		.uleb128 0xb
 1342 0057 00       		.byte	0
 1343 0058 00       		.byte	0
 1344 0059 08       		.uleb128 0x8
 1345 005a 16       		.uleb128 0x16
 1346 005b 00       		.byte	0
 1347 005c 03       		.uleb128 0x3
 1348 005d 0E       		.uleb128 0xe
 1349 005e 3A       		.uleb128 0x3a
 1350 005f 0B       		.uleb128 0xb
 1351 0060 3B       		.uleb128 0x3b
 1352 0061 0B       		.uleb128 0xb
 1353 0062 49       		.uleb128 0x49
 1354 0063 13       		.uleb128 0x13
 1355 0064 00       		.byte	0
 1356 0065 00       		.byte	0
 1357 0066 09       		.uleb128 0x9
 1358 0067 0F       		.uleb128 0xf
 1359 0068 00       		.byte	0
 1360 0069 0B       		.uleb128 0xb
 1361 006a 0B       		.uleb128 0xb
ARM GAS  C:\Users\LUKASC~1\AppData\Local\Temp\cc6PxJXw.s 			page 33


 1362 006b 49       		.uleb128 0x49
 1363 006c 13       		.uleb128 0x13
 1364 006d 00       		.byte	0
 1365 006e 00       		.byte	0
 1366 006f 0A       		.uleb128 0xa
 1367 0070 0D       		.uleb128 0xd
 1368 0071 00       		.byte	0
 1369 0072 03       		.uleb128 0x3
 1370 0073 08       		.uleb128 0x8
 1371 0074 3A       		.uleb128 0x3a
 1372 0075 0B       		.uleb128 0xb
 1373 0076 3B       		.uleb128 0x3b
 1374 0077 0B       		.uleb128 0xb
 1375 0078 49       		.uleb128 0x49
 1376 0079 13       		.uleb128 0x13
 1377 007a 38       		.uleb128 0x38
 1378 007b 0B       		.uleb128 0xb
 1379 007c 00       		.byte	0
 1380 007d 00       		.byte	0
 1381 007e 0B       		.uleb128 0xb
 1382 007f 26       		.uleb128 0x26
 1383 0080 00       		.byte	0
 1384 0081 00       		.byte	0
 1385 0082 00       		.byte	0
 1386 0083 0C       		.uleb128 0xc
 1387 0084 01       		.uleb128 0x1
 1388 0085 01       		.byte	0x1
 1389 0086 49       		.uleb128 0x49
 1390 0087 13       		.uleb128 0x13
 1391 0088 01       		.uleb128 0x1
 1392 0089 13       		.uleb128 0x13
 1393 008a 00       		.byte	0
 1394 008b 00       		.byte	0
 1395 008c 0D       		.uleb128 0xd
 1396 008d 21       		.uleb128 0x21
 1397 008e 00       		.byte	0
 1398 008f 49       		.uleb128 0x49
 1399 0090 13       		.uleb128 0x13
 1400 0091 2F       		.uleb128 0x2f
 1401 0092 0B       		.uleb128 0xb
 1402 0093 00       		.byte	0
 1403 0094 00       		.byte	0
 1404 0095 0E       		.uleb128 0xe
 1405 0096 2E       		.uleb128 0x2e
 1406 0097 01       		.byte	0x1
 1407 0098 3F       		.uleb128 0x3f
 1408 0099 19       		.uleb128 0x19
 1409 009a 03       		.uleb128 0x3
 1410 009b 0E       		.uleb128 0xe
 1411 009c 3A       		.uleb128 0x3a
 1412 009d 0B       		.uleb128 0xb
 1413 009e 3B       		.uleb128 0x3b
 1414 009f 0B       		.uleb128 0xb
 1415 00a0 27       		.uleb128 0x27
 1416 00a1 19       		.uleb128 0x19
 1417 00a2 49       		.uleb128 0x49
 1418 00a3 13       		.uleb128 0x13
ARM GAS  C:\Users\LUKASC~1\AppData\Local\Temp\cc6PxJXw.s 			page 34


 1419 00a4 11       		.uleb128 0x11
 1420 00a5 01       		.uleb128 0x1
 1421 00a6 12       		.uleb128 0x12
 1422 00a7 06       		.uleb128 0x6
 1423 00a8 40       		.uleb128 0x40
 1424 00a9 18       		.uleb128 0x18
 1425 00aa 9742     		.uleb128 0x2117
 1426 00ac 19       		.uleb128 0x19
 1427 00ad 01       		.uleb128 0x1
 1428 00ae 13       		.uleb128 0x13
 1429 00af 00       		.byte	0
 1430 00b0 00       		.byte	0
 1431 00b1 0F       		.uleb128 0xf
 1432 00b2 05       		.uleb128 0x5
 1433 00b3 00       		.byte	0
 1434 00b4 03       		.uleb128 0x3
 1435 00b5 0E       		.uleb128 0xe
 1436 00b6 3A       		.uleb128 0x3a
 1437 00b7 0B       		.uleb128 0xb
 1438 00b8 3B       		.uleb128 0x3b
 1439 00b9 0B       		.uleb128 0xb
 1440 00ba 49       		.uleb128 0x49
 1441 00bb 13       		.uleb128 0x13
 1442 00bc 02       		.uleb128 0x2
 1443 00bd 18       		.uleb128 0x18
 1444 00be 00       		.byte	0
 1445 00bf 00       		.byte	0
 1446 00c0 10       		.uleb128 0x10
 1447 00c1 34       		.uleb128 0x34
 1448 00c2 00       		.byte	0
 1449 00c3 03       		.uleb128 0x3
 1450 00c4 0E       		.uleb128 0xe
 1451 00c5 3A       		.uleb128 0x3a
 1452 00c6 0B       		.uleb128 0xb
 1453 00c7 3B       		.uleb128 0x3b
 1454 00c8 0B       		.uleb128 0xb
 1455 00c9 49       		.uleb128 0x49
 1456 00ca 13       		.uleb128 0x13
 1457 00cb 02       		.uleb128 0x2
 1458 00cc 18       		.uleb128 0x18
 1459 00cd 00       		.byte	0
 1460 00ce 00       		.byte	0
 1461 00cf 11       		.uleb128 0x11
 1462 00d0 2E       		.uleb128 0x2e
 1463 00d1 01       		.byte	0x1
 1464 00d2 3F       		.uleb128 0x3f
 1465 00d3 19       		.uleb128 0x19
 1466 00d4 03       		.uleb128 0x3
 1467 00d5 0E       		.uleb128 0xe
 1468 00d6 3A       		.uleb128 0x3a
 1469 00d7 0B       		.uleb128 0xb
 1470 00d8 3B       		.uleb128 0x3b
 1471 00d9 0B       		.uleb128 0xb
 1472 00da 27       		.uleb128 0x27
 1473 00db 19       		.uleb128 0x19
 1474 00dc 49       		.uleb128 0x49
 1475 00dd 13       		.uleb128 0x13
ARM GAS  C:\Users\LUKASC~1\AppData\Local\Temp\cc6PxJXw.s 			page 35


 1476 00de 11       		.uleb128 0x11
 1477 00df 01       		.uleb128 0x1
 1478 00e0 12       		.uleb128 0x12
 1479 00e1 06       		.uleb128 0x6
 1480 00e2 40       		.uleb128 0x40
 1481 00e3 18       		.uleb128 0x18
 1482 00e4 9642     		.uleb128 0x2116
 1483 00e6 19       		.uleb128 0x19
 1484 00e7 01       		.uleb128 0x1
 1485 00e8 13       		.uleb128 0x13
 1486 00e9 00       		.byte	0
 1487 00ea 00       		.byte	0
 1488 00eb 12       		.uleb128 0x12
 1489 00ec 2E       		.uleb128 0x2e
 1490 00ed 01       		.byte	0x1
 1491 00ee 3F       		.uleb128 0x3f
 1492 00ef 19       		.uleb128 0x19
 1493 00f0 03       		.uleb128 0x3
 1494 00f1 0E       		.uleb128 0xe
 1495 00f2 3A       		.uleb128 0x3a
 1496 00f3 0B       		.uleb128 0xb
 1497 00f4 3B       		.uleb128 0x3b
 1498 00f5 05       		.uleb128 0x5
 1499 00f6 27       		.uleb128 0x27
 1500 00f7 19       		.uleb128 0x19
 1501 00f8 11       		.uleb128 0x11
 1502 00f9 01       		.uleb128 0x1
 1503 00fa 12       		.uleb128 0x12
 1504 00fb 06       		.uleb128 0x6
 1505 00fc 40       		.uleb128 0x40
 1506 00fd 18       		.uleb128 0x18
 1507 00fe 9642     		.uleb128 0x2116
 1508 0100 19       		.uleb128 0x19
 1509 0101 01       		.uleb128 0x1
 1510 0102 13       		.uleb128 0x13
 1511 0103 00       		.byte	0
 1512 0104 00       		.byte	0
 1513 0105 13       		.uleb128 0x13
 1514 0106 34       		.uleb128 0x34
 1515 0107 00       		.byte	0
 1516 0108 03       		.uleb128 0x3
 1517 0109 0E       		.uleb128 0xe
 1518 010a 3A       		.uleb128 0x3a
 1519 010b 0B       		.uleb128 0xb
 1520 010c 3B       		.uleb128 0x3b
 1521 010d 05       		.uleb128 0x5
 1522 010e 49       		.uleb128 0x49
 1523 010f 13       		.uleb128 0x13
 1524 0110 02       		.uleb128 0x2
 1525 0111 18       		.uleb128 0x18
 1526 0112 00       		.byte	0
 1527 0113 00       		.byte	0
 1528 0114 14       		.uleb128 0x14
 1529 0115 26       		.uleb128 0x26
 1530 0116 00       		.byte	0
 1531 0117 49       		.uleb128 0x49
 1532 0118 13       		.uleb128 0x13
ARM GAS  C:\Users\LUKASC~1\AppData\Local\Temp\cc6PxJXw.s 			page 36


 1533 0119 00       		.byte	0
 1534 011a 00       		.byte	0
 1535 011b 15       		.uleb128 0x15
 1536 011c 34       		.uleb128 0x34
 1537 011d 00       		.byte	0
 1538 011e 03       		.uleb128 0x3
 1539 011f 08       		.uleb128 0x8
 1540 0120 3A       		.uleb128 0x3a
 1541 0121 0B       		.uleb128 0xb
 1542 0122 3B       		.uleb128 0x3b
 1543 0123 05       		.uleb128 0x5
 1544 0124 49       		.uleb128 0x49
 1545 0125 13       		.uleb128 0x13
 1546 0126 02       		.uleb128 0x2
 1547 0127 18       		.uleb128 0x18
 1548 0128 00       		.byte	0
 1549 0129 00       		.byte	0
 1550 012a 16       		.uleb128 0x16
 1551 012b 34       		.uleb128 0x34
 1552 012c 00       		.byte	0
 1553 012d 03       		.uleb128 0x3
 1554 012e 0E       		.uleb128 0xe
 1555 012f 3A       		.uleb128 0x3a
 1556 0130 0B       		.uleb128 0xb
 1557 0131 3B       		.uleb128 0x3b
 1558 0132 05       		.uleb128 0x5
 1559 0133 49       		.uleb128 0x49
 1560 0134 13       		.uleb128 0x13
 1561 0135 3F       		.uleb128 0x3f
 1562 0136 19       		.uleb128 0x19
 1563 0137 3C       		.uleb128 0x3c
 1564 0138 19       		.uleb128 0x19
 1565 0139 00       		.byte	0
 1566 013a 00       		.byte	0
 1567 013b 17       		.uleb128 0x17
 1568 013c 34       		.uleb128 0x34
 1569 013d 00       		.byte	0
 1570 013e 03       		.uleb128 0x3
 1571 013f 0E       		.uleb128 0xe
 1572 0140 3A       		.uleb128 0x3a
 1573 0141 0B       		.uleb128 0xb
 1574 0142 3B       		.uleb128 0x3b
 1575 0143 0B       		.uleb128 0xb
 1576 0144 49       		.uleb128 0x49
 1577 0145 13       		.uleb128 0x13
 1578 0146 3F       		.uleb128 0x3f
 1579 0147 19       		.uleb128 0x19
 1580 0148 02       		.uleb128 0x2
 1581 0149 18       		.uleb128 0x18
 1582 014a 00       		.byte	0
 1583 014b 00       		.byte	0
 1584 014c 18       		.uleb128 0x18
 1585 014d 34       		.uleb128 0x34
 1586 014e 00       		.byte	0
 1587 014f 03       		.uleb128 0x3
 1588 0150 0E       		.uleb128 0xe
 1589 0151 3A       		.uleb128 0x3a
ARM GAS  C:\Users\LUKASC~1\AppData\Local\Temp\cc6PxJXw.s 			page 37


 1590 0152 0B       		.uleb128 0xb
 1591 0153 3B       		.uleb128 0x3b
 1592 0154 0B       		.uleb128 0xb
 1593 0155 49       		.uleb128 0x49
 1594 0156 13       		.uleb128 0x13
 1595 0157 3F       		.uleb128 0x3f
 1596 0158 19       		.uleb128 0x19
 1597 0159 3C       		.uleb128 0x3c
 1598 015a 19       		.uleb128 0x19
 1599 015b 00       		.byte	0
 1600 015c 00       		.byte	0
 1601 015d 00       		.byte	0
 1602              		.section	.debug_aranges,"",%progbits
 1603 0000 44000000 		.4byte	0x44
 1604 0004 0200     		.2byte	0x2
 1605 0006 00000000 		.4byte	.Ldebug_info0
 1606 000a 04       		.byte	0x4
 1607 000b 00       		.byte	0
 1608 000c 0000     		.2byte	0
 1609 000e 0000     		.2byte	0
 1610 0010 00000000 		.4byte	.LFB0
 1611 0014 64000000 		.4byte	.LFE0-.LFB0
 1612 0018 00000000 		.4byte	.LFB1
 1613 001c 24000000 		.4byte	.LFE1-.LFB1
 1614 0020 00000000 		.4byte	.LFB2
 1615 0024 D0010000 		.4byte	.LFE2-.LFB2
 1616 0028 00000000 		.4byte	.LFB3
 1617 002c 7C000000 		.4byte	.LFE3-.LFB3
 1618 0030 00000000 		.4byte	.LFB4
 1619 0034 90000000 		.4byte	.LFE4-.LFB4
 1620 0038 00000000 		.4byte	.LFB5
 1621 003c CC000000 		.4byte	.LFE5-.LFB5
 1622 0040 00000000 		.4byte	0
 1623 0044 00000000 		.4byte	0
 1624              		.section	.debug_ranges,"",%progbits
 1625              	.Ldebug_ranges0:
 1626 0000 00000000 		.4byte	.LFB0
 1627 0004 64000000 		.4byte	.LFE0
 1628 0008 00000000 		.4byte	.LFB1
 1629 000c 24000000 		.4byte	.LFE1
 1630 0010 00000000 		.4byte	.LFB2
 1631 0014 D0010000 		.4byte	.LFE2
 1632 0018 00000000 		.4byte	.LFB3
 1633 001c 7C000000 		.4byte	.LFE3
 1634 0020 00000000 		.4byte	.LFB4
 1635 0024 90000000 		.4byte	.LFE4
 1636 0028 00000000 		.4byte	.LFB5
 1637 002c CC000000 		.4byte	.LFE5
 1638 0030 00000000 		.4byte	0
 1639 0034 00000000 		.4byte	0
 1640              		.section	.debug_line,"",%progbits
 1641              	.Ldebug_line0:
 1642 0000 7C010000 		.section	.debug_str,"MS",%progbits,1
 1642      02006800 
 1642      00000201 
 1642      FB0E0D00 
 1642      01010101 
ARM GAS  C:\Users\LUKASC~1\AppData\Local\Temp\cc6PxJXw.s 			page 38


 1643              	.LASF29:
 1644 0000 55534255 		.ascii	"USBUART_DispatchHIDClassRqst\000"
 1644      4152545F 
 1644      44697370 
 1644      61746368 
 1644      48494443 
 1645              	.LASF20:
 1646 001d 70537461 		.ascii	"pStatusBlock\000"
 1646      74757342 
 1646      6C6F636B 
 1646      00
 1647              	.LASF30:
 1648 002a 73746174 		.ascii	"stat\000"
 1648      00
 1649              	.LASF18:
 1650 002f 636F756E 		.ascii	"count\000"
 1650      7400
 1651              	.LASF3:
 1652 0035 73686F72 		.ascii	"short unsigned int\000"
 1652      7420756E 
 1652      7369676E 
 1652      65642069 
 1652      6E7400
 1653              	.LASF38:
 1654 0048 55534255 		.ascii	"USBUART_FindReport\000"
 1654      4152545F 
 1654      46696E64 
 1654      5265706F 
 1654      727400
 1655              	.LASF35:
 1656 005b 696E7465 		.ascii	"interfaceN\000"
 1656      72666163 
 1656      654E00
 1657              	.LASF15:
 1658 0066 73746174 		.ascii	"status\000"
 1658      757300
 1659              	.LASF37:
 1660 006d 55534255 		.ascii	"USBUART_FindReportDescriptor\000"
 1660      4152545F 
 1660      46696E64 
 1660      5265706F 
 1660      72744465 
 1661              	.LASF19:
 1662 008a 70446174 		.ascii	"pData\000"
 1662      6100
 1663              	.LASF24:
 1664 0090 65704461 		.ascii	"epData\000"
 1664      746100
 1665              	.LASF31:
 1666 0097 72657175 		.ascii	"requestHandled\000"
 1666      65737448 
 1666      616E646C 
 1666      656400
 1667              	.LASF11:
 1668 00a6 666C6F61 		.ascii	"float\000"
 1668      7400
 1669              	.LASF39:
ARM GAS  C:\Users\LUKASC~1\AppData\Local\Temp\cc6PxJXw.s 			page 39


 1670 00ac 7265706F 		.ascii	"reportType\000"
 1670      72745479 
 1670      706500
 1671              	.LASF1:
 1672 00b7 756E7369 		.ascii	"unsigned char\000"
 1672      676E6564 
 1672      20636861 
 1672      7200
 1673              	.LASF42:
 1674 00c5 55534255 		.ascii	"USBUART_hidIdleRate\000"
 1674      4152545F 
 1674      68696449 
 1674      646C6552 
 1674      61746500 
 1675              	.LASF21:
 1676 00d9 545F5553 		.ascii	"T_USBUART_TD\000"
 1676      42554152 
 1676      545F5444 
 1676      00
 1677              	.LASF5:
 1678 00e6 6C6F6E67 		.ascii	"long unsigned int\000"
 1678      20756E73 
 1678      69676E65 
 1678      6420696E 
 1678      7400
 1679              	.LASF9:
 1680 00f8 75696E74 		.ascii	"uint8\000"
 1680      3800
 1681              	.LASF32:
 1682 00fe 696E7465 		.ascii	"interfaceNumber\000"
 1682      72666163 
 1682      654E756D 
 1682      62657200 
 1683              	.LASF27:
 1684 010e 55534255 		.ascii	"USBUART_GetProtocol\000"
 1684      4152545F 
 1684      47657450 
 1684      726F746F 
 1684      636F6C00 
 1685              	.LASF46:
 1686 0122 474E5520 		.ascii	"GNU C 4.9.3 20150303 (release) [ARM/embedded-4_9-br"
 1686      4320342E 
 1686      392E3320 
 1686      32303135 
 1686      30333033 
 1687 0155 616E6368 		.ascii	"anch revision 221220] -mcpu=cortex-m3 -mthumb -g -O"
 1687      20726576 
 1687      6973696F 
 1687      6E203232 
 1687      31323230 
 1688 0188 30202D66 		.ascii	"0 -ffunction-sections -ffat-lto-objects\000"
 1688      66756E63 
 1688      74696F6E 
 1688      2D736563 
 1688      74696F6E 
 1689              	.LASF12:
 1690 01b0 646F7562 		.ascii	"double\000"
ARM GAS  C:\Users\LUKASC~1\AppData\Local\Temp\cc6PxJXw.s 			page 40


 1690      6C6500
 1691              	.LASF45:
 1692 01b7 55534255 		.ascii	"USBUART_currentTD\000"
 1692      4152545F 
 1692      63757272 
 1692      656E7454 
 1692      4400
 1693              	.LASF10:
 1694 01c9 75696E74 		.ascii	"uint16\000"
 1694      313600
 1695              	.LASF34:
 1696 01d0 70446573 		.ascii	"pDescr\000"
 1696      637200
 1697              	.LASF8:
 1698 01d7 756E7369 		.ascii	"unsigned int\000"
 1698      676E6564 
 1698      20696E74 
 1698      00
 1699              	.LASF41:
 1700 01e4 55534255 		.ascii	"USBUART_hidProtocol\000"
 1700      4152545F 
 1700      68696450 
 1700      726F746F 
 1700      636F6C00 
 1701              	.LASF26:
 1702 01f8 55534255 		.ascii	"USBUART_UpdateHIDTimer\000"
 1702      4152545F 
 1702      55706461 
 1702      74654849 
 1702      4454696D 
 1703              	.LASF7:
 1704 020f 6C6F6E67 		.ascii	"long long unsigned int\000"
 1704      206C6F6E 
 1704      6720756E 
 1704      7369676E 
 1704      65642069 
 1705              	.LASF36:
 1706 0226 55534255 		.ascii	"USBUART_FindHidClassDecriptor\000"
 1706      4152545F 
 1706      46696E64 
 1706      48696443 
 1706      6C617373 
 1707              	.LASF22:
 1708 0244 705F6C69 		.ascii	"p_list\000"
 1708      737400
 1709              	.LASF43:
 1710 024b 55534255 		.ascii	"USBUART_hidIdleTimer\000"
 1710      4152545F 
 1710      68696449 
 1710      646C6554 
 1710      696D6572 
 1711              	.LASF17:
 1712 0260 545F5553 		.ascii	"T_USBUART_XFER_STATUS_BLOCK\000"
 1712      42554152 
 1712      545F5846 
 1712      45525F53 
 1712      54415455 
ARM GAS  C:\Users\LUKASC~1\AppData\Local\Temp\cc6PxJXw.s 			page 41


 1713              	.LASF25:
 1714 027c 55534255 		.ascii	"USBUART_ep0_data_struct\000"
 1714      4152545F 
 1714      6570305F 
 1714      64617461 
 1714      5F737472 
 1715              	.LASF47:
 1716 0294 2E5C4765 		.ascii	".\\Generated_Source\\PSoC5\\USBUART_hid.c\000"
 1716      6E657261 
 1716      7465645F 
 1716      536F7572 
 1716      63655C50 
 1717              	.LASF14:
 1718 02bb 73697A65 		.ascii	"sizetype\000"
 1718      74797065 
 1718      00
 1719              	.LASF40:
 1720 02c4 55534255 		.ascii	"USBUART_configuration\000"
 1720      4152545F 
 1720      636F6E66 
 1720      69677572 
 1720      6174696F 
 1721              	.LASF6:
 1722 02da 6C6F6E67 		.ascii	"long long int\000"
 1722      206C6F6E 
 1722      6720696E 
 1722      7400
 1723              	.LASF13:
 1724 02e8 63686172 		.ascii	"char\000"
 1724      00
 1725              	.LASF33:
 1726 02ed 70546D70 		.ascii	"pTmp\000"
 1726      00
 1727              	.LASF2:
 1728 02f2 73686F72 		.ascii	"short int\000"
 1728      7420696E 
 1728      7400
 1729              	.LASF28:
 1730 02fc 696E7465 		.ascii	"interface\000"
 1730      72666163 
 1730      6500
 1731              	.LASF23:
 1732 0306 545F5553 		.ascii	"T_USBUART_LUT\000"
 1732      42554152 
 1732      545F4C55 
 1732      5400
 1733              	.LASF4:
 1734 0314 6C6F6E67 		.ascii	"long int\000"
 1734      20696E74 
 1734      00
 1735              	.LASF44:
 1736 031d 55534255 		.ascii	"USBUART_interfaceSetting\000"
 1736      4152545F 
 1736      696E7465 
 1736      72666163 
 1736      65536574 
 1737              	.LASF16:
ARM GAS  C:\Users\LUKASC~1\AppData\Local\Temp\cc6PxJXw.s 			page 42


 1738 0336 6C656E67 		.ascii	"length\000"
 1738      746800
 1739              	.LASF0:
 1740 033d 7369676E 		.ascii	"signed char\000"
 1740      65642063 
 1740      68617200 
 1741              	.LASF48:
 1742 0349 433A5C55 		.ascii	"C:\\Users\\Lukas Creutzburg\\Documents\\GitHub\\fre"
 1742      73657273 
 1742      5C4C756B 
 1742      61732043 
 1742      72657574 
 1743 0377 65445350 		.ascii	"eDSPPSoC-I2C\\PSoC5_UART_Sender.cydsn\000"
 1743      50536F43 
 1743      2D493243 
 1743      5C50536F 
 1743      43355F55 
 1744              		.ident	"GCC: (GNU Tools for ARM Embedded Processors) 4.9.3 20150303 (release) [ARM/embedded-4_9-br
