ARM GAS  C:\Users\Andreas\AppData\Local\Temp\ccT2An5g.s 			page 1


   1              		.syntax unified
   2              		.cpu cortex-m3
   3              		.fpu softvfp
   4              		.eabi_attribute 20, 1
   5              		.eabi_attribute 21, 1
   6              		.eabi_attribute 23, 3
   7              		.eabi_attribute 24, 1
   8              		.eabi_attribute 25, 1
   9              		.eabi_attribute 26, 1
  10              		.eabi_attribute 30, 1
  11              		.eabi_attribute 34, 1
  12              		.eabi_attribute 18, 4
  13              		.thumb
  14              		.file	"I2CM_MASTER.c"
  15              		.text
  16              	.Ltext0:
  17              		.cfi_sections	.debug_frame
  18              		.section	.text.I2CM_MasterWriteBuf,"ax",%progbits
  19              		.align	2
  20              		.global	I2CM_MasterWriteBuf
  21              		.thumb
  22              		.thumb_func
  23              		.type	I2CM_MasterWriteBuf, %function
  24              	I2CM_MasterWriteBuf:
  25              	.LFB0:
  26              		.file 1 ".\\Generated_Source\\PSoC5\\I2CM_MASTER.c"
   1:.\Generated_Source\PSoC5/I2CM_MASTER.c **** /*******************************************************************************
   2:.\Generated_Source\PSoC5/I2CM_MASTER.c **** * File Name: I2CM_MASTER.c
   3:.\Generated_Source\PSoC5/I2CM_MASTER.c **** * Version 3.50
   4:.\Generated_Source\PSoC5/I2CM_MASTER.c **** *
   5:.\Generated_Source\PSoC5/I2CM_MASTER.c **** * Description:
   6:.\Generated_Source\PSoC5/I2CM_MASTER.c **** *  This file provides the source code of APIs for the I2C component master mode.
   7:.\Generated_Source\PSoC5/I2CM_MASTER.c **** *
   8:.\Generated_Source\PSoC5/I2CM_MASTER.c **** *******************************************************************************
   9:.\Generated_Source\PSoC5/I2CM_MASTER.c **** * Copyright 2012-2015, Cypress Semiconductor Corporation. All rights reserved.
  10:.\Generated_Source\PSoC5/I2CM_MASTER.c **** * You may use this file only in accordance with the license, terms, conditions,
  11:.\Generated_Source\PSoC5/I2CM_MASTER.c **** * disclaimers, and limitations in the end user license agreement accompanying
  12:.\Generated_Source\PSoC5/I2CM_MASTER.c **** * the software package with which this file was provided.
  13:.\Generated_Source\PSoC5/I2CM_MASTER.c **** *******************************************************************************/
  14:.\Generated_Source\PSoC5/I2CM_MASTER.c **** 
  15:.\Generated_Source\PSoC5/I2CM_MASTER.c **** #include "I2CM_PVT.h"
  16:.\Generated_Source\PSoC5/I2CM_MASTER.c **** 
  17:.\Generated_Source\PSoC5/I2CM_MASTER.c **** #if(I2CM_MODE_MASTER_ENABLED)
  18:.\Generated_Source\PSoC5/I2CM_MASTER.c **** 
  19:.\Generated_Source\PSoC5/I2CM_MASTER.c **** /**********************************
  20:.\Generated_Source\PSoC5/I2CM_MASTER.c **** *      System variables
  21:.\Generated_Source\PSoC5/I2CM_MASTER.c **** **********************************/
  22:.\Generated_Source\PSoC5/I2CM_MASTER.c **** 
  23:.\Generated_Source\PSoC5/I2CM_MASTER.c **** volatile uint8 I2CM_mstrStatus;     /* Master Status byte  */
  24:.\Generated_Source\PSoC5/I2CM_MASTER.c **** volatile uint8 I2CM_mstrControl;    /* Master Control byte */
  25:.\Generated_Source\PSoC5/I2CM_MASTER.c **** 
  26:.\Generated_Source\PSoC5/I2CM_MASTER.c **** /* Transmit buffer variables */
  27:.\Generated_Source\PSoC5/I2CM_MASTER.c **** volatile uint8 * I2CM_mstrRdBufPtr;     /* Pointer to Master Read buffer */
  28:.\Generated_Source\PSoC5/I2CM_MASTER.c **** volatile uint8   I2CM_mstrRdBufSize;    /* Master Read buffer size       */
  29:.\Generated_Source\PSoC5/I2CM_MASTER.c **** volatile uint8   I2CM_mstrRdBufIndex;   /* Master Read buffer Index      */
  30:.\Generated_Source\PSoC5/I2CM_MASTER.c **** 
  31:.\Generated_Source\PSoC5/I2CM_MASTER.c **** /* Receive buffer variables */
ARM GAS  C:\Users\Andreas\AppData\Local\Temp\ccT2An5g.s 			page 2


  32:.\Generated_Source\PSoC5/I2CM_MASTER.c **** volatile uint8 * I2CM_mstrWrBufPtr;     /* Pointer to Master Write buffer */
  33:.\Generated_Source\PSoC5/I2CM_MASTER.c **** volatile uint8   I2CM_mstrWrBufSize;    /* Master Write buffer size       */
  34:.\Generated_Source\PSoC5/I2CM_MASTER.c **** volatile uint8   I2CM_mstrWrBufIndex;   /* Master Write buffer Index      */
  35:.\Generated_Source\PSoC5/I2CM_MASTER.c **** 
  36:.\Generated_Source\PSoC5/I2CM_MASTER.c **** 
  37:.\Generated_Source\PSoC5/I2CM_MASTER.c **** /*******************************************************************************
  38:.\Generated_Source\PSoC5/I2CM_MASTER.c **** * Function Name: I2CM_MasterWriteBuf
  39:.\Generated_Source\PSoC5/I2CM_MASTER.c **** ********************************************************************************
  40:.\Generated_Source\PSoC5/I2CM_MASTER.c **** *
  41:.\Generated_Source\PSoC5/I2CM_MASTER.c **** * Summary:
  42:.\Generated_Source\PSoC5/I2CM_MASTER.c **** *  Automatically writes an entire buffer of data to a slave device. Once the
  43:.\Generated_Source\PSoC5/I2CM_MASTER.c **** *  data transfer is initiated by this function, further data transfer is handled
  44:.\Generated_Source\PSoC5/I2CM_MASTER.c **** *  by the included ISR in byte by byte mode.
  45:.\Generated_Source\PSoC5/I2CM_MASTER.c **** *
  46:.\Generated_Source\PSoC5/I2CM_MASTER.c **** * Parameters:
  47:.\Generated_Source\PSoC5/I2CM_MASTER.c **** *  slaveAddr: 7-bit slave address.
  48:.\Generated_Source\PSoC5/I2CM_MASTER.c **** *  xferData:  Pointer to buffer of data to be sent.
  49:.\Generated_Source\PSoC5/I2CM_MASTER.c **** *  cnt:       Size of buffer to send.
  50:.\Generated_Source\PSoC5/I2CM_MASTER.c **** *  mode:      Transfer mode defines: start or restart condition generation at
  51:.\Generated_Source\PSoC5/I2CM_MASTER.c **** *             begin of the transfer and complete the transfer or halt before
  52:.\Generated_Source\PSoC5/I2CM_MASTER.c **** *             generating a stop.
  53:.\Generated_Source\PSoC5/I2CM_MASTER.c **** *
  54:.\Generated_Source\PSoC5/I2CM_MASTER.c **** * Return:
  55:.\Generated_Source\PSoC5/I2CM_MASTER.c **** *  Status error - Zero means no errors.
  56:.\Generated_Source\PSoC5/I2CM_MASTER.c **** *
  57:.\Generated_Source\PSoC5/I2CM_MASTER.c **** * Side Effects:
  58:.\Generated_Source\PSoC5/I2CM_MASTER.c **** *  The included ISR will start a transfer after a start or restart condition is
  59:.\Generated_Source\PSoC5/I2CM_MASTER.c **** *  generated.
  60:.\Generated_Source\PSoC5/I2CM_MASTER.c **** *
  61:.\Generated_Source\PSoC5/I2CM_MASTER.c **** * Global variables:
  62:.\Generated_Source\PSoC5/I2CM_MASTER.c **** *  I2CM_mstrStatus  - The global variable used to store a current
  63:.\Generated_Source\PSoC5/I2CM_MASTER.c **** *                                 status of the I2C Master.
  64:.\Generated_Source\PSoC5/I2CM_MASTER.c **** *  I2CM_state       - The global variable used to store a current
  65:.\Generated_Source\PSoC5/I2CM_MASTER.c **** *                                 state of the software FSM.
  66:.\Generated_Source\PSoC5/I2CM_MASTER.c **** *  I2CM_mstrControl - The global variable used to control the master
  67:.\Generated_Source\PSoC5/I2CM_MASTER.c **** *                                 end of a transaction with or without Stop
  68:.\Generated_Source\PSoC5/I2CM_MASTER.c **** *                                 generation.
  69:.\Generated_Source\PSoC5/I2CM_MASTER.c **** *  I2CM_mstrWrBufPtr - The global variable used to store a pointer
  70:.\Generated_Source\PSoC5/I2CM_MASTER.c **** *                                  to the master write buffer.
  71:.\Generated_Source\PSoC5/I2CM_MASTER.c **** *  I2CM_mstrWrBufIndex - The global variable used to store current
  72:.\Generated_Source\PSoC5/I2CM_MASTER.c **** *                                    index within the master write buffer.
  73:.\Generated_Source\PSoC5/I2CM_MASTER.c **** *  I2CM_mstrWrBufSize - The global variable used to store a master
  74:.\Generated_Source\PSoC5/I2CM_MASTER.c **** *                                   write buffer size.
  75:.\Generated_Source\PSoC5/I2CM_MASTER.c **** *
  76:.\Generated_Source\PSoC5/I2CM_MASTER.c **** * Reentrant:
  77:.\Generated_Source\PSoC5/I2CM_MASTER.c **** *  No
  78:.\Generated_Source\PSoC5/I2CM_MASTER.c **** *
  79:.\Generated_Source\PSoC5/I2CM_MASTER.c **** *******************************************************************************/
  80:.\Generated_Source\PSoC5/I2CM_MASTER.c **** uint8 I2CM_MasterWriteBuf(uint8 slaveAddress, uint8 * wrData, uint8 cnt, uint8 mode)
  81:.\Generated_Source\PSoC5/I2CM_MASTER.c ****       
  82:.\Generated_Source\PSoC5/I2CM_MASTER.c **** {
  27              		.loc 1 82 0
  28              		.cfi_startproc
  29              		@ args = 0, pretend = 0, frame = 0
  30              		@ frame_needed = 0, uses_anonymous_args = 0
  31              		@ link register save eliminated.
  32              	.LVL0:
ARM GAS  C:\Users\Andreas\AppData\Local\Temp\ccT2An5g.s 			page 3


  83:.\Generated_Source\PSoC5/I2CM_MASTER.c ****     uint8 errStatus;
  84:.\Generated_Source\PSoC5/I2CM_MASTER.c **** 
  85:.\Generated_Source\PSoC5/I2CM_MASTER.c ****     errStatus = I2CM_MSTR_NOT_READY;
  86:.\Generated_Source\PSoC5/I2CM_MASTER.c **** 
  87:.\Generated_Source\PSoC5/I2CM_MASTER.c ****     if(NULL != wrData)
  33              		.loc 1 87 0
  34 0000 0029     		cmp	r1, #0
  35 0002 48D0     		beq	.L7
  82:.\Generated_Source\PSoC5/I2CM_MASTER.c ****     uint8 errStatus;
  36              		.loc 1 82 0
  37 0004 70B4     		push	{r4, r5, r6}
  38              		.cfi_def_cfa_offset 12
  39              		.cfi_offset 4, -12
  40              		.cfi_offset 5, -8
  41              		.cfi_offset 6, -4
  42 0006 0C46     		mov	r4, r1
  88:.\Generated_Source\PSoC5/I2CM_MASTER.c ****     {
  89:.\Generated_Source\PSoC5/I2CM_MASTER.c ****         /* Check I2C state to allow transfer: valid states are IDLE or HALT */
  90:.\Generated_Source\PSoC5/I2CM_MASTER.c ****         if(I2CM_SM_IDLE == I2CM_state)
  43              		.loc 1 90 0
  44 0008 2649     		ldr	r1, .L12
  45              	.LVL1:
  46 000a 0978     		ldrb	r1, [r1]	@ zero_extendqisi2
  47 000c C9B2     		uxtb	r1, r1
  48 000e 1029     		cmp	r1, #16
  49 0010 06D1     		bne	.L3
  91:.\Generated_Source\PSoC5/I2CM_MASTER.c ****         {
  92:.\Generated_Source\PSoC5/I2CM_MASTER.c ****             /* Master is ready for transaction: check if bus is free */
  93:.\Generated_Source\PSoC5/I2CM_MASTER.c ****             if(I2CM_CHECK_BUS_FREE(I2CM_MCSR_REG))
  50              		.loc 1 93 0
  51 0012 2549     		ldr	r1, .L12+4
  52 0014 0978     		ldrb	r1, [r1]	@ zero_extendqisi2
  53 0016 11F0080F 		tst	r1, #8
  54 001a 11D1     		bne	.L8
  94:.\Generated_Source\PSoC5/I2CM_MASTER.c ****             {
  95:.\Generated_Source\PSoC5/I2CM_MASTER.c ****                 errStatus = I2CM_MSTR_NO_ERROR;
  55              		.loc 1 95 0
  56 001c 0021     		movs	r1, #0
  57 001e 12E0     		b	.L4
  58              	.L3:
  96:.\Generated_Source\PSoC5/I2CM_MASTER.c ****             }
  97:.\Generated_Source\PSoC5/I2CM_MASTER.c ****             else
  98:.\Generated_Source\PSoC5/I2CM_MASTER.c ****             {
  99:.\Generated_Source\PSoC5/I2CM_MASTER.c ****                 errStatus = I2CM_MSTR_BUS_BUSY;
 100:.\Generated_Source\PSoC5/I2CM_MASTER.c ****             }
 101:.\Generated_Source\PSoC5/I2CM_MASTER.c ****         }
 102:.\Generated_Source\PSoC5/I2CM_MASTER.c ****         else if(I2CM_SM_MSTR_HALT == I2CM_state)
  59              		.loc 1 102 0
  60 0020 2049     		ldr	r1, .L12
  61 0022 0978     		ldrb	r1, [r1]	@ zero_extendqisi2
  62 0024 C9B2     		uxtb	r1, r1
  63 0026 6029     		cmp	r1, #96
  64 0028 0CD1     		bne	.L9
  65              	.LVL2:
 103:.\Generated_Source\PSoC5/I2CM_MASTER.c ****         {
 104:.\Generated_Source\PSoC5/I2CM_MASTER.c ****             /* Master is ready and waiting for ReStart */
 105:.\Generated_Source\PSoC5/I2CM_MASTER.c ****             errStatus = I2CM_MSTR_NO_ERROR;
ARM GAS  C:\Users\Andreas\AppData\Local\Temp\ccT2An5g.s 			page 4


 106:.\Generated_Source\PSoC5/I2CM_MASTER.c **** 
 107:.\Generated_Source\PSoC5/I2CM_MASTER.c ****             I2CM_ClearPendingInt();
  66              		.loc 1 107 0
  67 002a 4FF40045 		mov	r5, #32768
  68 002e 1F49     		ldr	r1, .L12+8
  69 0030 0D60     		str	r5, [r1]
 108:.\Generated_Source\PSoC5/I2CM_MASTER.c ****             I2CM_mstrStatus &= (uint8) ~I2CM_MSTAT_XFER_HALT;
  70              		.loc 1 108 0
  71 0032 1F4D     		ldr	r5, .L12+12
  72 0034 2978     		ldrb	r1, [r5]	@ zero_extendqisi2
  73 0036 01F0F701 		and	r1, r1, #247
  74 003a 2970     		strb	r1, [r5]
 105:.\Generated_Source\PSoC5/I2CM_MASTER.c **** 
  75              		.loc 1 105 0
  76 003c 0021     		movs	r1, #0
  77 003e 02E0     		b	.L4
  78              	.LVL3:
  79              	.L8:
  99:.\Generated_Source\PSoC5/I2CM_MASTER.c ****             }
  80              		.loc 1 99 0
  81 0040 0121     		movs	r1, #1
  82 0042 00E0     		b	.L4
  83              	.L9:
  85:.\Generated_Source\PSoC5/I2CM_MASTER.c **** 
  84              		.loc 1 85 0
  85 0044 0221     		movs	r1, #2
  86              	.LVL4:
  87              	.L4:
 109:.\Generated_Source\PSoC5/I2CM_MASTER.c ****         }
 110:.\Generated_Source\PSoC5/I2CM_MASTER.c ****         else
 111:.\Generated_Source\PSoC5/I2CM_MASTER.c ****         {
 112:.\Generated_Source\PSoC5/I2CM_MASTER.c ****             /* errStatus = I2CM_MSTR_NOT_READY was send before */
 113:.\Generated_Source\PSoC5/I2CM_MASTER.c ****         }
 114:.\Generated_Source\PSoC5/I2CM_MASTER.c **** 
 115:.\Generated_Source\PSoC5/I2CM_MASTER.c ****         if(I2CM_MSTR_NO_ERROR == errStatus)
  88              		.loc 1 115 0
  89 0046 49BB     		cbnz	r1, .L2
 116:.\Generated_Source\PSoC5/I2CM_MASTER.c ****         {
 117:.\Generated_Source\PSoC5/I2CM_MASTER.c ****             /* Set state to start write transaction */
 118:.\Generated_Source\PSoC5/I2CM_MASTER.c ****             I2CM_state = I2CM_SM_MSTR_WR_ADDR;
  90              		.loc 1 118 0
  91 0048 4526     		movs	r6, #69
  92 004a 164D     		ldr	r5, .L12
  93 004c 2E70     		strb	r6, [r5]
 119:.\Generated_Source\PSoC5/I2CM_MASTER.c **** 
 120:.\Generated_Source\PSoC5/I2CM_MASTER.c ****             /* Prepare write buffer */
 121:.\Generated_Source\PSoC5/I2CM_MASTER.c ****             I2CM_mstrWrBufIndex = 0u;
  94              		.loc 1 121 0
  95 004e 0026     		movs	r6, #0
  96 0050 184D     		ldr	r5, .L12+16
  97 0052 2E70     		strb	r6, [r5]
 122:.\Generated_Source\PSoC5/I2CM_MASTER.c ****             I2CM_mstrWrBufSize  = cnt;
  98              		.loc 1 122 0
  99 0054 184D     		ldr	r5, .L12+20
 100 0056 2A70     		strb	r2, [r5]
 123:.\Generated_Source\PSoC5/I2CM_MASTER.c ****             I2CM_mstrWrBufPtr   = (volatile uint8 *) wrData;
 101              		.loc 1 123 0
ARM GAS  C:\Users\Andreas\AppData\Local\Temp\ccT2An5g.s 			page 5


 102 0058 184A     		ldr	r2, .L12+24
 103              	.LVL5:
 104 005a 1460     		str	r4, [r2]
 124:.\Generated_Source\PSoC5/I2CM_MASTER.c **** 
 125:.\Generated_Source\PSoC5/I2CM_MASTER.c ****             /* Set end of transaction flag: Stop or Halt (following ReStart) */
 126:.\Generated_Source\PSoC5/I2CM_MASTER.c ****             I2CM_mstrControl = mode;
 105              		.loc 1 126 0
 106 005c 184A     		ldr	r2, .L12+28
 107 005e 1370     		strb	r3, [r2]
 108              	.LVL6:
 127:.\Generated_Source\PSoC5/I2CM_MASTER.c **** 
 128:.\Generated_Source\PSoC5/I2CM_MASTER.c ****             /* Clear write status history */
 129:.\Generated_Source\PSoC5/I2CM_MASTER.c ****             I2CM_mstrStatus &= (uint8) ~I2CM_MSTAT_WR_CMPLT;
 109              		.loc 1 129 0
 110 0060 134C     		ldr	r4, .L12+12
 111              	.LVL7:
 112 0062 2278     		ldrb	r2, [r4]	@ zero_extendqisi2
 113 0064 02F0FD02 		and	r2, r2, #253
 114 0068 2270     		strb	r2, [r4]
 130:.\Generated_Source\PSoC5/I2CM_MASTER.c **** 
 131:.\Generated_Source\PSoC5/I2CM_MASTER.c ****             /* Hardware actions: write address and generate Start or ReStart */
 132:.\Generated_Source\PSoC5/I2CM_MASTER.c ****             I2CM_DATA_REG = (uint8) (slaveAddress << I2CM_SLAVE_ADDR_SHIFT);
 115              		.loc 1 132 0
 116 006a 4200     		lsls	r2, r0, #1
 117 006c D2B2     		uxtb	r2, r2
 118 006e 1548     		ldr	r0, .L12+32
 119              	.LVL8:
 120 0070 0270     		strb	r2, [r0]
 121              	.LVL9:
 133:.\Generated_Source\PSoC5/I2CM_MASTER.c **** 
 134:.\Generated_Source\PSoC5/I2CM_MASTER.c ****             if(I2CM_CHECK_RESTART(mode))
 122              		.loc 1 134 0
 123 0072 13F0010F 		tst	r3, #1
 124 0076 06D0     		beq	.L5
 135:.\Generated_Source\PSoC5/I2CM_MASTER.c ****             {
 136:.\Generated_Source\PSoC5/I2CM_MASTER.c ****                 I2CM_GENERATE_RESTART;
 125              		.loc 1 136 0
 126 0078 1222     		movs	r2, #18
 127 007a 0B4B     		ldr	r3, .L12+4
 128              	.LVL10:
 129 007c 1A70     		strb	r2, [r3]
 130 007e 0422     		movs	r2, #4
 131 0080 023B     		subs	r3, r3, #2
 132 0082 1A70     		strb	r2, [r3]
 133 0084 02E0     		b	.L6
 134              	.LVL11:
 135              	.L5:
 137:.\Generated_Source\PSoC5/I2CM_MASTER.c ****             }
 138:.\Generated_Source\PSoC5/I2CM_MASTER.c ****             else
 139:.\Generated_Source\PSoC5/I2CM_MASTER.c ****             {
 140:.\Generated_Source\PSoC5/I2CM_MASTER.c ****                 I2CM_GENERATE_START;
 136              		.loc 1 140 0
 137 0086 0122     		movs	r2, #1
 138 0088 074B     		ldr	r3, .L12+4
 139              	.LVL12:
 140 008a 1A70     		strb	r2, [r3]
 141              	.L6:
ARM GAS  C:\Users\Andreas\AppData\Local\Temp\ccT2An5g.s 			page 6


 141:.\Generated_Source\PSoC5/I2CM_MASTER.c ****             }
 142:.\Generated_Source\PSoC5/I2CM_MASTER.c **** 
 143:.\Generated_Source\PSoC5/I2CM_MASTER.c ****             /* Enable interrupt to complete transfer */
 144:.\Generated_Source\PSoC5/I2CM_MASTER.c ****             I2CM_EnableInt();
 142              		.loc 1 144 0
 143 008c 4FF40042 		mov	r2, #32768
 144 0090 0D4B     		ldr	r3, .L12+36
 145 0092 1A60     		str	r2, [r3]
 146 0094 02E0     		b	.L2
 147              	.LVL13:
 148              	.L7:
 149              		.cfi_def_cfa_offset 0
 150              		.cfi_restore 4
 151              		.cfi_restore 5
 152              		.cfi_restore 6
  85:.\Generated_Source\PSoC5/I2CM_MASTER.c **** 
 153              		.loc 1 85 0
 154 0096 0221     		movs	r1, #2
 155              	.LVL14:
 145:.\Generated_Source\PSoC5/I2CM_MASTER.c ****         }
 146:.\Generated_Source\PSoC5/I2CM_MASTER.c ****     }
 147:.\Generated_Source\PSoC5/I2CM_MASTER.c **** 
 148:.\Generated_Source\PSoC5/I2CM_MASTER.c ****     return(errStatus);
 149:.\Generated_Source\PSoC5/I2CM_MASTER.c **** }
 156              		.loc 1 149 0
 157 0098 0846     		mov	r0, r1
 158              	.LVL15:
 159 009a 7047     		bx	lr
 160              	.LVL16:
 161              	.L2:
 162              		.cfi_def_cfa_offset 12
 163              		.cfi_offset 4, -12
 164              		.cfi_offset 5, -8
 165              		.cfi_offset 6, -4
 166 009c 0846     		mov	r0, r1
 167 009e 70BC     		pop	{r4, r5, r6}
 168              		.cfi_restore 6
 169              		.cfi_restore 5
 170              		.cfi_restore 4
 171              		.cfi_def_cfa_offset 0
 172 00a0 7047     		bx	lr
 173              	.L13:
 174 00a2 00BF     		.align	2
 175              	.L12:
 176 00a4 00000000 		.word	I2CM_state
 177 00a8 D9490040 		.word	1073760729
 178 00ac 80E200E0 		.word	-536812928
 179 00b0 00000000 		.word	I2CM_mstrStatus
 180 00b4 00000000 		.word	I2CM_mstrWrBufIndex
 181 00b8 00000000 		.word	I2CM_mstrWrBufSize
 182 00bc 00000000 		.word	I2CM_mstrWrBufPtr
 183 00c0 00000000 		.word	I2CM_mstrControl
 184 00c4 D8490040 		.word	1073760728
 185 00c8 00E100E0 		.word	-536813312
 186              		.cfi_endproc
 187              	.LFE0:
 188              		.size	I2CM_MasterWriteBuf, .-I2CM_MasterWriteBuf
ARM GAS  C:\Users\Andreas\AppData\Local\Temp\ccT2An5g.s 			page 7


 189              		.section	.text.I2CM_MasterReadBuf,"ax",%progbits
 190              		.align	2
 191              		.global	I2CM_MasterReadBuf
 192              		.thumb
 193              		.thumb_func
 194              		.type	I2CM_MasterReadBuf, %function
 195              	I2CM_MasterReadBuf:
 196              	.LFB1:
 150:.\Generated_Source\PSoC5/I2CM_MASTER.c **** 
 151:.\Generated_Source\PSoC5/I2CM_MASTER.c **** 
 152:.\Generated_Source\PSoC5/I2CM_MASTER.c **** /*******************************************************************************
 153:.\Generated_Source\PSoC5/I2CM_MASTER.c **** * Function Name: I2CM_MasterReadBuf
 154:.\Generated_Source\PSoC5/I2CM_MASTER.c **** ********************************************************************************
 155:.\Generated_Source\PSoC5/I2CM_MASTER.c **** *
 156:.\Generated_Source\PSoC5/I2CM_MASTER.c **** * Summary:
 157:.\Generated_Source\PSoC5/I2CM_MASTER.c **** *  Automatically writes an entire buffer of data to a slave device. Once the
 158:.\Generated_Source\PSoC5/I2CM_MASTER.c **** *  data transfer is initiated by this function, further data transfer is handled
 159:.\Generated_Source\PSoC5/I2CM_MASTER.c **** *  by the included ISR in byte by byte mode.
 160:.\Generated_Source\PSoC5/I2CM_MASTER.c **** *
 161:.\Generated_Source\PSoC5/I2CM_MASTER.c **** * Parameters:
 162:.\Generated_Source\PSoC5/I2CM_MASTER.c **** *  slaveAddr: 7-bit slave address.
 163:.\Generated_Source\PSoC5/I2CM_MASTER.c **** *  xferData:  Pointer to buffer where to put data from slave.
 164:.\Generated_Source\PSoC5/I2CM_MASTER.c **** *  cnt:       Size of buffer to read.
 165:.\Generated_Source\PSoC5/I2CM_MASTER.c **** *  mode:      Transfer mode defines: start or restart condition generation at
 166:.\Generated_Source\PSoC5/I2CM_MASTER.c **** *             begin of the transfer and complete the transfer or halt before
 167:.\Generated_Source\PSoC5/I2CM_MASTER.c **** *             generating a stop.
 168:.\Generated_Source\PSoC5/I2CM_MASTER.c **** *
 169:.\Generated_Source\PSoC5/I2CM_MASTER.c **** * Return:
 170:.\Generated_Source\PSoC5/I2CM_MASTER.c **** *  Status error - Zero means no errors.
 171:.\Generated_Source\PSoC5/I2CM_MASTER.c **** *
 172:.\Generated_Source\PSoC5/I2CM_MASTER.c **** * Side Effects:
 173:.\Generated_Source\PSoC5/I2CM_MASTER.c **** *  The included ISR will start a transfer after start or restart condition is
 174:.\Generated_Source\PSoC5/I2CM_MASTER.c **** *  generated.
 175:.\Generated_Source\PSoC5/I2CM_MASTER.c **** *
 176:.\Generated_Source\PSoC5/I2CM_MASTER.c **** * Global variables:
 177:.\Generated_Source\PSoC5/I2CM_MASTER.c **** *  I2CM_mstrStatus  - The global variable used to store a current
 178:.\Generated_Source\PSoC5/I2CM_MASTER.c **** *                                 status of the I2C Master.
 179:.\Generated_Source\PSoC5/I2CM_MASTER.c **** *  I2CM_state       - The global variable used to store a current
 180:.\Generated_Source\PSoC5/I2CM_MASTER.c **** *                                 state of the software FSM.
 181:.\Generated_Source\PSoC5/I2CM_MASTER.c **** *  I2CM_mstrControl - The global variable used to control the master
 182:.\Generated_Source\PSoC5/I2CM_MASTER.c **** *                                 end of a transaction with or without
 183:.\Generated_Source\PSoC5/I2CM_MASTER.c **** *                                 Stop generation.
 184:.\Generated_Source\PSoC5/I2CM_MASTER.c **** *  I2CM_mstrRdBufPtr - The global variable used to store a pointer
 185:.\Generated_Source\PSoC5/I2CM_MASTER.c **** *                                  to the master write buffer.
 186:.\Generated_Source\PSoC5/I2CM_MASTER.c **** *  I2CM_mstrRdBufIndex - The global variable  used to store a
 187:.\Generated_Source\PSoC5/I2CM_MASTER.c **** *                                    current index within the master
 188:.\Generated_Source\PSoC5/I2CM_MASTER.c **** *                                    write buffer.
 189:.\Generated_Source\PSoC5/I2CM_MASTER.c **** *  I2CM_mstrRdBufSize - The global variable used to store a master
 190:.\Generated_Source\PSoC5/I2CM_MASTER.c **** *                                   write buffer size.
 191:.\Generated_Source\PSoC5/I2CM_MASTER.c **** *
 192:.\Generated_Source\PSoC5/I2CM_MASTER.c **** * Reentrant:
 193:.\Generated_Source\PSoC5/I2CM_MASTER.c **** *  No.
 194:.\Generated_Source\PSoC5/I2CM_MASTER.c **** *
 195:.\Generated_Source\PSoC5/I2CM_MASTER.c **** *******************************************************************************/
 196:.\Generated_Source\PSoC5/I2CM_MASTER.c **** uint8 I2CM_MasterReadBuf(uint8 slaveAddress, uint8 * rdData, uint8 cnt, uint8 mode)
 197:.\Generated_Source\PSoC5/I2CM_MASTER.c ****       
 198:.\Generated_Source\PSoC5/I2CM_MASTER.c **** {
ARM GAS  C:\Users\Andreas\AppData\Local\Temp\ccT2An5g.s 			page 8


 197              		.loc 1 198 0
 198              		.cfi_startproc
 199              		@ args = 0, pretend = 0, frame = 0
 200              		@ frame_needed = 0, uses_anonymous_args = 0
 201              		@ link register save eliminated.
 202              	.LVL17:
 199:.\Generated_Source\PSoC5/I2CM_MASTER.c ****     uint8 errStatus;
 200:.\Generated_Source\PSoC5/I2CM_MASTER.c **** 
 201:.\Generated_Source\PSoC5/I2CM_MASTER.c ****     errStatus = I2CM_MSTR_NOT_READY;
 202:.\Generated_Source\PSoC5/I2CM_MASTER.c **** 
 203:.\Generated_Source\PSoC5/I2CM_MASTER.c ****     if(NULL != rdData)
 203              		.loc 1 203 0
 204 0000 0029     		cmp	r1, #0
 205 0002 4AD0     		beq	.L20
 198:.\Generated_Source\PSoC5/I2CM_MASTER.c ****     uint8 errStatus;
 206              		.loc 1 198 0
 207 0004 70B4     		push	{r4, r5, r6}
 208              		.cfi_def_cfa_offset 12
 209              		.cfi_offset 4, -12
 210              		.cfi_offset 5, -8
 211              		.cfi_offset 6, -4
 212 0006 0C46     		mov	r4, r1
 204:.\Generated_Source\PSoC5/I2CM_MASTER.c ****     {
 205:.\Generated_Source\PSoC5/I2CM_MASTER.c ****         /* Check I2C state to allow transfer: valid states are IDLE or HALT */
 206:.\Generated_Source\PSoC5/I2CM_MASTER.c ****         if(I2CM_SM_IDLE == I2CM_state)
 213              		.loc 1 206 0
 214 0008 2749     		ldr	r1, .L25
 215              	.LVL18:
 216 000a 0978     		ldrb	r1, [r1]	@ zero_extendqisi2
 217 000c C9B2     		uxtb	r1, r1
 218 000e 1029     		cmp	r1, #16
 219 0010 06D1     		bne	.L16
 207:.\Generated_Source\PSoC5/I2CM_MASTER.c ****         {
 208:.\Generated_Source\PSoC5/I2CM_MASTER.c ****             /* Master is ready to transaction: check if bus is free */
 209:.\Generated_Source\PSoC5/I2CM_MASTER.c ****             if(I2CM_CHECK_BUS_FREE(I2CM_MCSR_REG))
 220              		.loc 1 209 0
 221 0012 2649     		ldr	r1, .L25+4
 222 0014 0978     		ldrb	r1, [r1]	@ zero_extendqisi2
 223 0016 11F0080F 		tst	r1, #8
 224 001a 11D1     		bne	.L21
 210:.\Generated_Source\PSoC5/I2CM_MASTER.c ****             {
 211:.\Generated_Source\PSoC5/I2CM_MASTER.c ****                 errStatus = I2CM_MSTR_NO_ERROR;
 225              		.loc 1 211 0
 226 001c 0021     		movs	r1, #0
 227 001e 12E0     		b	.L17
 228              	.L16:
 212:.\Generated_Source\PSoC5/I2CM_MASTER.c ****             }
 213:.\Generated_Source\PSoC5/I2CM_MASTER.c ****             else
 214:.\Generated_Source\PSoC5/I2CM_MASTER.c ****             {
 215:.\Generated_Source\PSoC5/I2CM_MASTER.c ****                 errStatus = I2CM_MSTR_BUS_BUSY;
 216:.\Generated_Source\PSoC5/I2CM_MASTER.c ****             }
 217:.\Generated_Source\PSoC5/I2CM_MASTER.c ****         }
 218:.\Generated_Source\PSoC5/I2CM_MASTER.c ****         else if(I2CM_SM_MSTR_HALT == I2CM_state)
 229              		.loc 1 218 0
 230 0020 2149     		ldr	r1, .L25
 231 0022 0978     		ldrb	r1, [r1]	@ zero_extendqisi2
 232 0024 C9B2     		uxtb	r1, r1
ARM GAS  C:\Users\Andreas\AppData\Local\Temp\ccT2An5g.s 			page 9


 233 0026 6029     		cmp	r1, #96
 234 0028 0CD1     		bne	.L22
 235              	.LVL19:
 219:.\Generated_Source\PSoC5/I2CM_MASTER.c ****         {
 220:.\Generated_Source\PSoC5/I2CM_MASTER.c ****             /* Master is ready and waiting for ReStart */
 221:.\Generated_Source\PSoC5/I2CM_MASTER.c ****             errStatus = I2CM_MSTR_NO_ERROR;
 222:.\Generated_Source\PSoC5/I2CM_MASTER.c **** 
 223:.\Generated_Source\PSoC5/I2CM_MASTER.c ****             I2CM_ClearPendingInt();
 236              		.loc 1 223 0
 237 002a 4FF40045 		mov	r5, #32768
 238 002e 2049     		ldr	r1, .L25+8
 239 0030 0D60     		str	r5, [r1]
 224:.\Generated_Source\PSoC5/I2CM_MASTER.c ****             I2CM_mstrStatus &= (uint8) ~I2CM_MSTAT_XFER_HALT;
 240              		.loc 1 224 0
 241 0032 204D     		ldr	r5, .L25+12
 242 0034 2978     		ldrb	r1, [r5]	@ zero_extendqisi2
 243 0036 01F0F701 		and	r1, r1, #247
 244 003a 2970     		strb	r1, [r5]
 221:.\Generated_Source\PSoC5/I2CM_MASTER.c **** 
 245              		.loc 1 221 0
 246 003c 0021     		movs	r1, #0
 247 003e 02E0     		b	.L17
 248              	.LVL20:
 249              	.L21:
 215:.\Generated_Source\PSoC5/I2CM_MASTER.c ****             }
 250              		.loc 1 215 0
 251 0040 0121     		movs	r1, #1
 252 0042 00E0     		b	.L17
 253              	.L22:
 201:.\Generated_Source\PSoC5/I2CM_MASTER.c **** 
 254              		.loc 1 201 0
 255 0044 0221     		movs	r1, #2
 256              	.LVL21:
 257              	.L17:
 225:.\Generated_Source\PSoC5/I2CM_MASTER.c ****         }
 226:.\Generated_Source\PSoC5/I2CM_MASTER.c ****         else
 227:.\Generated_Source\PSoC5/I2CM_MASTER.c ****         {
 228:.\Generated_Source\PSoC5/I2CM_MASTER.c ****             /* errStatus = I2CM_MSTR_NOT_READY was set before */
 229:.\Generated_Source\PSoC5/I2CM_MASTER.c ****         }
 230:.\Generated_Source\PSoC5/I2CM_MASTER.c **** 
 231:.\Generated_Source\PSoC5/I2CM_MASTER.c ****         if(I2CM_MSTR_NO_ERROR == errStatus)
 258              		.loc 1 231 0
 259 0046 59BB     		cbnz	r1, .L15
 232:.\Generated_Source\PSoC5/I2CM_MASTER.c ****         {
 233:.\Generated_Source\PSoC5/I2CM_MASTER.c ****             /* Set state to start write transaction */
 234:.\Generated_Source\PSoC5/I2CM_MASTER.c ****             I2CM_state = I2CM_SM_MSTR_RD_ADDR;
 260              		.loc 1 234 0
 261 0048 4926     		movs	r6, #73
 262 004a 174D     		ldr	r5, .L25
 263 004c 2E70     		strb	r6, [r5]
 235:.\Generated_Source\PSoC5/I2CM_MASTER.c **** 
 236:.\Generated_Source\PSoC5/I2CM_MASTER.c ****             /* Prepare read buffer */
 237:.\Generated_Source\PSoC5/I2CM_MASTER.c ****             I2CM_mstrRdBufIndex  = 0u;
 264              		.loc 1 237 0
 265 004e 0026     		movs	r6, #0
 266 0050 194D     		ldr	r5, .L25+16
 267 0052 2E70     		strb	r6, [r5]
ARM GAS  C:\Users\Andreas\AppData\Local\Temp\ccT2An5g.s 			page 10


 238:.\Generated_Source\PSoC5/I2CM_MASTER.c ****             I2CM_mstrRdBufSize   = cnt;
 268              		.loc 1 238 0
 269 0054 194D     		ldr	r5, .L25+20
 270 0056 2A70     		strb	r2, [r5]
 239:.\Generated_Source\PSoC5/I2CM_MASTER.c ****             I2CM_mstrRdBufPtr    = (volatile uint8 *) rdData;
 271              		.loc 1 239 0
 272 0058 194A     		ldr	r2, .L25+24
 273              	.LVL22:
 274 005a 1460     		str	r4, [r2]
 240:.\Generated_Source\PSoC5/I2CM_MASTER.c **** 
 241:.\Generated_Source\PSoC5/I2CM_MASTER.c ****             /* Set end of transaction flag: Stop or Halt (following ReStart) */
 242:.\Generated_Source\PSoC5/I2CM_MASTER.c ****             I2CM_mstrControl = mode;
 275              		.loc 1 242 0
 276 005c 194A     		ldr	r2, .L25+28
 277 005e 1370     		strb	r3, [r2]
 278              	.LVL23:
 243:.\Generated_Source\PSoC5/I2CM_MASTER.c **** 
 244:.\Generated_Source\PSoC5/I2CM_MASTER.c ****             /* Clear read status history */
 245:.\Generated_Source\PSoC5/I2CM_MASTER.c ****             I2CM_mstrStatus &= (uint8) ~I2CM_MSTAT_RD_CMPLT;
 279              		.loc 1 245 0
 280 0060 144C     		ldr	r4, .L25+12
 281              	.LVL24:
 282 0062 2278     		ldrb	r2, [r4]	@ zero_extendqisi2
 283 0064 02F0FE02 		and	r2, r2, #254
 284 0068 2270     		strb	r2, [r4]
 246:.\Generated_Source\PSoC5/I2CM_MASTER.c **** 
 247:.\Generated_Source\PSoC5/I2CM_MASTER.c ****             /* Hardware actions: write address and generate Start or ReStart */
 248:.\Generated_Source\PSoC5/I2CM_MASTER.c ****             I2CM_DATA_REG = ((uint8) (slaveAddress << I2CM_SLAVE_ADDR_SHIFT) |
 285              		.loc 1 248 0
 286 006a 4200     		lsls	r2, r0, #1
 287 006c D2B2     		uxtb	r2, r2
 288 006e 42F00102 		orr	r2, r2, #1
 289 0072 1548     		ldr	r0, .L25+32
 290              	.LVL25:
 291 0074 0270     		strb	r2, [r0]
 292              	.LVL26:
 249:.\Generated_Source\PSoC5/I2CM_MASTER.c ****                                                   I2CM_READ_FLAG);
 250:.\Generated_Source\PSoC5/I2CM_MASTER.c **** 
 251:.\Generated_Source\PSoC5/I2CM_MASTER.c ****             if(I2CM_CHECK_RESTART(mode))
 293              		.loc 1 251 0
 294 0076 13F0010F 		tst	r3, #1
 295 007a 06D0     		beq	.L18
 252:.\Generated_Source\PSoC5/I2CM_MASTER.c ****             {
 253:.\Generated_Source\PSoC5/I2CM_MASTER.c ****                 I2CM_GENERATE_RESTART;
 296              		.loc 1 253 0
 297 007c 1222     		movs	r2, #18
 298 007e 0B4B     		ldr	r3, .L25+4
 299              	.LVL27:
 300 0080 1A70     		strb	r2, [r3]
 301 0082 0422     		movs	r2, #4
 302 0084 023B     		subs	r3, r3, #2
 303 0086 1A70     		strb	r2, [r3]
 304 0088 02E0     		b	.L19
 305              	.LVL28:
 306              	.L18:
 254:.\Generated_Source\PSoC5/I2CM_MASTER.c ****             }
 255:.\Generated_Source\PSoC5/I2CM_MASTER.c ****             else
ARM GAS  C:\Users\Andreas\AppData\Local\Temp\ccT2An5g.s 			page 11


 256:.\Generated_Source\PSoC5/I2CM_MASTER.c ****             {
 257:.\Generated_Source\PSoC5/I2CM_MASTER.c ****                 I2CM_GENERATE_START;
 307              		.loc 1 257 0
 308 008a 0122     		movs	r2, #1
 309 008c 074B     		ldr	r3, .L25+4
 310              	.LVL29:
 311 008e 1A70     		strb	r2, [r3]
 312              	.L19:
 258:.\Generated_Source\PSoC5/I2CM_MASTER.c ****             }
 259:.\Generated_Source\PSoC5/I2CM_MASTER.c **** 
 260:.\Generated_Source\PSoC5/I2CM_MASTER.c ****             /* Enable interrupt to complete transfer */
 261:.\Generated_Source\PSoC5/I2CM_MASTER.c ****             I2CM_EnableInt();
 313              		.loc 1 261 0
 314 0090 4FF40042 		mov	r2, #32768
 315 0094 0D4B     		ldr	r3, .L25+36
 316 0096 1A60     		str	r2, [r3]
 317 0098 02E0     		b	.L15
 318              	.LVL30:
 319              	.L20:
 320              		.cfi_def_cfa_offset 0
 321              		.cfi_restore 4
 322              		.cfi_restore 5
 323              		.cfi_restore 6
 201:.\Generated_Source\PSoC5/I2CM_MASTER.c **** 
 324              		.loc 1 201 0
 325 009a 0221     		movs	r1, #2
 326              	.LVL31:
 262:.\Generated_Source\PSoC5/I2CM_MASTER.c ****         }
 263:.\Generated_Source\PSoC5/I2CM_MASTER.c ****     }
 264:.\Generated_Source\PSoC5/I2CM_MASTER.c **** 
 265:.\Generated_Source\PSoC5/I2CM_MASTER.c ****     return(errStatus);
 266:.\Generated_Source\PSoC5/I2CM_MASTER.c **** }
 327              		.loc 1 266 0
 328 009c 0846     		mov	r0, r1
 329              	.LVL32:
 330 009e 7047     		bx	lr
 331              	.LVL33:
 332              	.L15:
 333              		.cfi_def_cfa_offset 12
 334              		.cfi_offset 4, -12
 335              		.cfi_offset 5, -8
 336              		.cfi_offset 6, -4
 337 00a0 0846     		mov	r0, r1
 338 00a2 70BC     		pop	{r4, r5, r6}
 339              		.cfi_restore 6
 340              		.cfi_restore 5
 341              		.cfi_restore 4
 342              		.cfi_def_cfa_offset 0
 343 00a4 7047     		bx	lr
 344              	.L26:
 345 00a6 00BF     		.align	2
 346              	.L25:
 347 00a8 00000000 		.word	I2CM_state
 348 00ac D9490040 		.word	1073760729
 349 00b0 80E200E0 		.word	-536812928
 350 00b4 00000000 		.word	I2CM_mstrStatus
 351 00b8 00000000 		.word	I2CM_mstrRdBufIndex
ARM GAS  C:\Users\Andreas\AppData\Local\Temp\ccT2An5g.s 			page 12


 352 00bc 00000000 		.word	I2CM_mstrRdBufSize
 353 00c0 00000000 		.word	I2CM_mstrRdBufPtr
 354 00c4 00000000 		.word	I2CM_mstrControl
 355 00c8 D8490040 		.word	1073760728
 356 00cc 00E100E0 		.word	-536813312
 357              		.cfi_endproc
 358              	.LFE1:
 359              		.size	I2CM_MasterReadBuf, .-I2CM_MasterReadBuf
 360              		.section	.text.I2CM_MasterSendStart,"ax",%progbits
 361              		.align	2
 362              		.global	I2CM_MasterSendStart
 363              		.thumb
 364              		.thumb_func
 365              		.type	I2CM_MasterSendStart, %function
 366              	I2CM_MasterSendStart:
 367              	.LFB2:
 267:.\Generated_Source\PSoC5/I2CM_MASTER.c **** 
 268:.\Generated_Source\PSoC5/I2CM_MASTER.c **** 
 269:.\Generated_Source\PSoC5/I2CM_MASTER.c **** /*******************************************************************************
 270:.\Generated_Source\PSoC5/I2CM_MASTER.c **** * Function Name: I2CM_MasterSendStart
 271:.\Generated_Source\PSoC5/I2CM_MASTER.c **** ********************************************************************************
 272:.\Generated_Source\PSoC5/I2CM_MASTER.c **** *
 273:.\Generated_Source\PSoC5/I2CM_MASTER.c **** * Summary:
 274:.\Generated_Source\PSoC5/I2CM_MASTER.c **** *  Generates Start condition and sends slave address with read/write bit.
 275:.\Generated_Source\PSoC5/I2CM_MASTER.c **** *
 276:.\Generated_Source\PSoC5/I2CM_MASTER.c **** * Parameters:
 277:.\Generated_Source\PSoC5/I2CM_MASTER.c **** *  slaveAddress:  7-bit slave address.
 278:.\Generated_Source\PSoC5/I2CM_MASTER.c **** *  R_nW:          Zero, send write command, non-zero send read command.
 279:.\Generated_Source\PSoC5/I2CM_MASTER.c **** *
 280:.\Generated_Source\PSoC5/I2CM_MASTER.c **** * Return:
 281:.\Generated_Source\PSoC5/I2CM_MASTER.c **** *  Status error - Zero means no errors.
 282:.\Generated_Source\PSoC5/I2CM_MASTER.c **** *
 283:.\Generated_Source\PSoC5/I2CM_MASTER.c **** * Side Effects:
 284:.\Generated_Source\PSoC5/I2CM_MASTER.c **** *  This function is entered without a "byte complete" bit set in the I2C_CSR
 285:.\Generated_Source\PSoC5/I2CM_MASTER.c **** *  register. It does not exit until it is set.
 286:.\Generated_Source\PSoC5/I2CM_MASTER.c **** *
 287:.\Generated_Source\PSoC5/I2CM_MASTER.c **** * Global variables:
 288:.\Generated_Source\PSoC5/I2CM_MASTER.c **** *  I2CM_state - The global variable used to store a current state of
 289:.\Generated_Source\PSoC5/I2CM_MASTER.c **** *                           the software FSM.
 290:.\Generated_Source\PSoC5/I2CM_MASTER.c **** *
 291:.\Generated_Source\PSoC5/I2CM_MASTER.c **** * Reentrant:
 292:.\Generated_Source\PSoC5/I2CM_MASTER.c **** *  No.
 293:.\Generated_Source\PSoC5/I2CM_MASTER.c **** *
 294:.\Generated_Source\PSoC5/I2CM_MASTER.c **** *******************************************************************************/
 295:.\Generated_Source\PSoC5/I2CM_MASTER.c **** uint8 I2CM_MasterSendStart(uint8 slaveAddress, uint8 R_nW)
 296:.\Generated_Source\PSoC5/I2CM_MASTER.c ****       
 297:.\Generated_Source\PSoC5/I2CM_MASTER.c **** {
 368              		.loc 1 297 0
 369              		.cfi_startproc
 370              		@ args = 0, pretend = 0, frame = 0
 371              		@ frame_needed = 0, uses_anonymous_args = 0
 372              		@ link register save eliminated.
 373              	.LVL34:
 298:.\Generated_Source\PSoC5/I2CM_MASTER.c ****     uint8 errStatus;
 299:.\Generated_Source\PSoC5/I2CM_MASTER.c **** 
 300:.\Generated_Source\PSoC5/I2CM_MASTER.c ****     errStatus = I2CM_MSTR_NOT_READY;
 301:.\Generated_Source\PSoC5/I2CM_MASTER.c **** 
ARM GAS  C:\Users\Andreas\AppData\Local\Temp\ccT2An5g.s 			page 13


 302:.\Generated_Source\PSoC5/I2CM_MASTER.c ****     /* If IDLE, check if bus is free */
 303:.\Generated_Source\PSoC5/I2CM_MASTER.c ****     if(I2CM_SM_IDLE == I2CM_state)
 374              		.loc 1 303 0
 375 0000 1A4B     		ldr	r3, .L35
 376 0002 1B78     		ldrb	r3, [r3]	@ zero_extendqisi2
 377 0004 DBB2     		uxtb	r3, r3
 378 0006 102B     		cmp	r3, #16
 379 0008 29D1     		bne	.L32
 304:.\Generated_Source\PSoC5/I2CM_MASTER.c ****     {
 305:.\Generated_Source\PSoC5/I2CM_MASTER.c ****         /* If bus is free, generate Start condition */
 306:.\Generated_Source\PSoC5/I2CM_MASTER.c ****         if(I2CM_CHECK_BUS_FREE(I2CM_MCSR_REG))
 380              		.loc 1 306 0
 381 000a 194B     		ldr	r3, .L35+4
 382 000c 1B78     		ldrb	r3, [r3]	@ zero_extendqisi2
 383 000e 13F0080F 		tst	r3, #8
 384 0012 26D1     		bne	.L33
 307:.\Generated_Source\PSoC5/I2CM_MASTER.c ****         {
 308:.\Generated_Source\PSoC5/I2CM_MASTER.c ****             /* Disable interrupt for manual master operation */
 309:.\Generated_Source\PSoC5/I2CM_MASTER.c ****             I2CM_DisableInt();
 385              		.loc 1 309 0
 386 0014 4FF40042 		mov	r2, #32768
 387 0018 164B     		ldr	r3, .L35+8
 388 001a 1A60     		str	r2, [r3]
 310:.\Generated_Source\PSoC5/I2CM_MASTER.c **** 
 311:.\Generated_Source\PSoC5/I2CM_MASTER.c ****             /* Set address and read/write flag */
 312:.\Generated_Source\PSoC5/I2CM_MASTER.c ****             slaveAddress = (uint8) (slaveAddress << I2CM_SLAVE_ADDR_SHIFT);
 389              		.loc 1 312 0
 390 001c 4000     		lsls	r0, r0, #1
 391              	.LVL35:
 392 001e C0B2     		uxtb	r0, r0
 393              	.LVL36:
 313:.\Generated_Source\PSoC5/I2CM_MASTER.c ****             if(0u != R_nW)
 394              		.loc 1 313 0
 395 0020 29B1     		cbz	r1, .L29
 314:.\Generated_Source\PSoC5/I2CM_MASTER.c ****             {
 315:.\Generated_Source\PSoC5/I2CM_MASTER.c ****                 slaveAddress |= I2CM_READ_FLAG;
 396              		.loc 1 315 0
 397 0022 40F00100 		orr	r0, r0, #1
 398              	.LVL37:
 316:.\Generated_Source\PSoC5/I2CM_MASTER.c ****                 I2CM_state = I2CM_SM_MSTR_RD_ADDR;
 399              		.loc 1 316 0
 400 0026 4922     		movs	r2, #73
 401 0028 104B     		ldr	r3, .L35
 402 002a 1A70     		strb	r2, [r3]
 403 002c 02E0     		b	.L30
 404              	.L29:
 317:.\Generated_Source\PSoC5/I2CM_MASTER.c ****             }
 318:.\Generated_Source\PSoC5/I2CM_MASTER.c ****             else
 319:.\Generated_Source\PSoC5/I2CM_MASTER.c ****             {
 320:.\Generated_Source\PSoC5/I2CM_MASTER.c ****                 I2CM_state = I2CM_SM_MSTR_WR_ADDR;
 405              		.loc 1 320 0
 406 002e 4522     		movs	r2, #69
 407 0030 0E4B     		ldr	r3, .L35
 408 0032 1A70     		strb	r2, [r3]
 409              	.L30:
 321:.\Generated_Source\PSoC5/I2CM_MASTER.c ****             }
 322:.\Generated_Source\PSoC5/I2CM_MASTER.c **** 
ARM GAS  C:\Users\Andreas\AppData\Local\Temp\ccT2An5g.s 			page 14


 323:.\Generated_Source\PSoC5/I2CM_MASTER.c ****             /* Hardware actions: write address and generate Start */
 324:.\Generated_Source\PSoC5/I2CM_MASTER.c ****             I2CM_DATA_REG = slaveAddress;
 410              		.loc 1 324 0
 411 0034 104B     		ldr	r3, .L35+12
 412 0036 1870     		strb	r0, [r3]
 325:.\Generated_Source\PSoC5/I2CM_MASTER.c ****             I2CM_GENERATE_START_MANUAL;
 413              		.loc 1 325 0
 414 0038 0122     		movs	r2, #1
 415 003a 0133     		adds	r3, r3, #1
 416 003c 1A70     		strb	r2, [r3]
 417              	.L31:
 326:.\Generated_Source\PSoC5/I2CM_MASTER.c **** 
 327:.\Generated_Source\PSoC5/I2CM_MASTER.c ****             /* Wait until address is transferred */
 328:.\Generated_Source\PSoC5/I2CM_MASTER.c ****             while(I2CM_WAIT_BYTE_COMPLETE(I2CM_CSR_REG))
 418              		.loc 1 328 0 discriminator 1
 419 003e 0F4B     		ldr	r3, .L35+16
 420 0040 1B78     		ldrb	r3, [r3]	@ zero_extendqisi2
 421 0042 13F0010F 		tst	r3, #1
 422 0046 FAD0     		beq	.L31
 329:.\Generated_Source\PSoC5/I2CM_MASTER.c ****             {
 330:.\Generated_Source\PSoC5/I2CM_MASTER.c ****             }
 331:.\Generated_Source\PSoC5/I2CM_MASTER.c **** 
 332:.\Generated_Source\PSoC5/I2CM_MASTER.c ****         #if(I2CM_MODE_MULTI_MASTER_SLAVE_ENABLED)
 333:.\Generated_Source\PSoC5/I2CM_MASTER.c ****             if(I2CM_CHECK_START_GEN(I2CM_MCSR_REG))
 334:.\Generated_Source\PSoC5/I2CM_MASTER.c ****             {
 335:.\Generated_Source\PSoC5/I2CM_MASTER.c ****                 I2CM_CLEAR_START_GEN;
 336:.\Generated_Source\PSoC5/I2CM_MASTER.c **** 
 337:.\Generated_Source\PSoC5/I2CM_MASTER.c ****                 /* Start condition was not generated: reset FSM to IDLE */
 338:.\Generated_Source\PSoC5/I2CM_MASTER.c ****                 I2CM_state = I2CM_SM_IDLE;
 339:.\Generated_Source\PSoC5/I2CM_MASTER.c ****                 errStatus = I2CM_MSTR_ERR_ABORT_START_GEN;
 340:.\Generated_Source\PSoC5/I2CM_MASTER.c ****             }
 341:.\Generated_Source\PSoC5/I2CM_MASTER.c ****             else
 342:.\Generated_Source\PSoC5/I2CM_MASTER.c ****         #endif /* (I2CM_MODE_MULTI_MASTER_SLAVE_ENABLED) */
 343:.\Generated_Source\PSoC5/I2CM_MASTER.c **** 
 344:.\Generated_Source\PSoC5/I2CM_MASTER.c ****         #if(I2CM_MODE_MULTI_MASTER_ENABLED)
 345:.\Generated_Source\PSoC5/I2CM_MASTER.c ****             if(I2CM_CHECK_LOST_ARB(I2CM_CSR_REG))
 346:.\Generated_Source\PSoC5/I2CM_MASTER.c ****             {
 347:.\Generated_Source\PSoC5/I2CM_MASTER.c ****                 I2CM_BUS_RELEASE_MANUAL;
 348:.\Generated_Source\PSoC5/I2CM_MASTER.c **** 
 349:.\Generated_Source\PSoC5/I2CM_MASTER.c ****                 /* Master lost arbitrage: reset FSM to IDLE */
 350:.\Generated_Source\PSoC5/I2CM_MASTER.c ****                 I2CM_state = I2CM_SM_IDLE;
 351:.\Generated_Source\PSoC5/I2CM_MASTER.c ****                 errStatus = I2CM_MSTR_ERR_ARB_LOST;
 352:.\Generated_Source\PSoC5/I2CM_MASTER.c ****             }
 353:.\Generated_Source\PSoC5/I2CM_MASTER.c ****             else
 354:.\Generated_Source\PSoC5/I2CM_MASTER.c ****         #endif /* (I2CM_MODE_MULTI_MASTER_ENABLED) */
 355:.\Generated_Source\PSoC5/I2CM_MASTER.c **** 
 356:.\Generated_Source\PSoC5/I2CM_MASTER.c ****             if(I2CM_CHECK_ADDR_NAK(I2CM_CSR_REG))
 423              		.loc 1 356 0
 424 0048 0C4B     		ldr	r3, .L35+16
 425 004a 1B78     		ldrb	r3, [r3]	@ zero_extendqisi2
 426 004c 03F00A03 		and	r3, r3, #10
 427 0050 0A2B     		cmp	r3, #10
 428 0052 08D1     		bne	.L34
 357:.\Generated_Source\PSoC5/I2CM_MASTER.c ****             {
 358:.\Generated_Source\PSoC5/I2CM_MASTER.c ****                 /* Address has been NACKed: reset FSM to IDLE */
 359:.\Generated_Source\PSoC5/I2CM_MASTER.c ****                 I2CM_state = I2CM_SM_IDLE;
 429              		.loc 1 359 0
ARM GAS  C:\Users\Andreas\AppData\Local\Temp\ccT2An5g.s 			page 15


 430 0054 1022     		movs	r2, #16
 431 0056 054B     		ldr	r3, .L35
 432 0058 1A70     		strb	r2, [r3]
 433              	.LVL38:
 360:.\Generated_Source\PSoC5/I2CM_MASTER.c ****                 errStatus = I2CM_MSTR_ERR_LB_NAK;
 434              		.loc 1 360 0
 435 005a 0320     		movs	r0, #3
 436              	.LVL39:
 437 005c 7047     		bx	lr
 438              	.LVL40:
 439              	.L32:
 300:.\Generated_Source\PSoC5/I2CM_MASTER.c **** 
 440              		.loc 1 300 0
 441 005e 0220     		movs	r0, #2
 442              	.LVL41:
 443 0060 7047     		bx	lr
 444              	.LVL42:
 445              	.L33:
 361:.\Generated_Source\PSoC5/I2CM_MASTER.c ****             }
 362:.\Generated_Source\PSoC5/I2CM_MASTER.c ****             else
 363:.\Generated_Source\PSoC5/I2CM_MASTER.c ****             {
 364:.\Generated_Source\PSoC5/I2CM_MASTER.c ****                 /* Start was sent without errors */
 365:.\Generated_Source\PSoC5/I2CM_MASTER.c ****                 errStatus = I2CM_MSTR_NO_ERROR;
 366:.\Generated_Source\PSoC5/I2CM_MASTER.c ****             }
 367:.\Generated_Source\PSoC5/I2CM_MASTER.c ****         }
 368:.\Generated_Source\PSoC5/I2CM_MASTER.c ****         else
 369:.\Generated_Source\PSoC5/I2CM_MASTER.c ****         {
 370:.\Generated_Source\PSoC5/I2CM_MASTER.c ****             errStatus = I2CM_MSTR_BUS_BUSY;
 446              		.loc 1 370 0
 447 0062 0120     		movs	r0, #1
 448              	.LVL43:
 449 0064 7047     		bx	lr
 450              	.LVL44:
 451              	.L34:
 365:.\Generated_Source\PSoC5/I2CM_MASTER.c ****             }
 452              		.loc 1 365 0
 453 0066 0020     		movs	r0, #0
 454              	.LVL45:
 371:.\Generated_Source\PSoC5/I2CM_MASTER.c ****         }
 372:.\Generated_Source\PSoC5/I2CM_MASTER.c ****     }
 373:.\Generated_Source\PSoC5/I2CM_MASTER.c **** 
 374:.\Generated_Source\PSoC5/I2CM_MASTER.c ****     return(errStatus);
 375:.\Generated_Source\PSoC5/I2CM_MASTER.c **** }
 455              		.loc 1 375 0
 456 0068 7047     		bx	lr
 457              	.L36:
 458 006a 00BF     		.align	2
 459              	.L35:
 460 006c 00000000 		.word	I2CM_state
 461 0070 D9490040 		.word	1073760729
 462 0074 80E100E0 		.word	-536813184
 463 0078 D8490040 		.word	1073760728
 464 007c D7490040 		.word	1073760727
 465              		.cfi_endproc
 466              	.LFE2:
 467              		.size	I2CM_MasterSendStart, .-I2CM_MasterSendStart
 468              		.section	.text.I2CM_MasterSendRestart,"ax",%progbits
ARM GAS  C:\Users\Andreas\AppData\Local\Temp\ccT2An5g.s 			page 16


 469              		.align	2
 470              		.global	I2CM_MasterSendRestart
 471              		.thumb
 472              		.thumb_func
 473              		.type	I2CM_MasterSendRestart, %function
 474              	I2CM_MasterSendRestart:
 475              	.LFB3:
 376:.\Generated_Source\PSoC5/I2CM_MASTER.c **** 
 377:.\Generated_Source\PSoC5/I2CM_MASTER.c **** 
 378:.\Generated_Source\PSoC5/I2CM_MASTER.c **** /*******************************************************************************
 379:.\Generated_Source\PSoC5/I2CM_MASTER.c **** * Function Name: I2CM_MasterSendRestart
 380:.\Generated_Source\PSoC5/I2CM_MASTER.c **** ********************************************************************************
 381:.\Generated_Source\PSoC5/I2CM_MASTER.c **** *
 382:.\Generated_Source\PSoC5/I2CM_MASTER.c **** * Summary:
 383:.\Generated_Source\PSoC5/I2CM_MASTER.c **** *  Generates ReStart condition and sends slave address with read/write bit.
 384:.\Generated_Source\PSoC5/I2CM_MASTER.c **** *
 385:.\Generated_Source\PSoC5/I2CM_MASTER.c **** * Parameters:
 386:.\Generated_Source\PSoC5/I2CM_MASTER.c **** *  slaveAddress:  7-bit slave address.
 387:.\Generated_Source\PSoC5/I2CM_MASTER.c **** *  R_nW:          Zero, send write command, non-zero send read command.
 388:.\Generated_Source\PSoC5/I2CM_MASTER.c **** *
 389:.\Generated_Source\PSoC5/I2CM_MASTER.c **** * Return:
 390:.\Generated_Source\PSoC5/I2CM_MASTER.c **** *  Status error - Zero means no errors.
 391:.\Generated_Source\PSoC5/I2CM_MASTER.c **** *
 392:.\Generated_Source\PSoC5/I2CM_MASTER.c **** * Side Effects:
 393:.\Generated_Source\PSoC5/I2CM_MASTER.c **** *  This function is entered without a "byte complete" bit set in the I2C_CSR
 394:.\Generated_Source\PSoC5/I2CM_MASTER.c **** *  register. It does not exit until it is set.
 395:.\Generated_Source\PSoC5/I2CM_MASTER.c **** *
 396:.\Generated_Source\PSoC5/I2CM_MASTER.c **** * Global variables:
 397:.\Generated_Source\PSoC5/I2CM_MASTER.c **** *  I2CM_state - The global variable used to store a current state of
 398:.\Generated_Source\PSoC5/I2CM_MASTER.c **** *                           the software FSM.
 399:.\Generated_Source\PSoC5/I2CM_MASTER.c **** *
 400:.\Generated_Source\PSoC5/I2CM_MASTER.c **** * Reentrant:
 401:.\Generated_Source\PSoC5/I2CM_MASTER.c **** *  No.
 402:.\Generated_Source\PSoC5/I2CM_MASTER.c **** *
 403:.\Generated_Source\PSoC5/I2CM_MASTER.c **** *******************************************************************************/
 404:.\Generated_Source\PSoC5/I2CM_MASTER.c **** uint8 I2CM_MasterSendRestart(uint8 slaveAddress, uint8 R_nW)
 405:.\Generated_Source\PSoC5/I2CM_MASTER.c ****       
 406:.\Generated_Source\PSoC5/I2CM_MASTER.c **** {
 476              		.loc 1 406 0
 477              		.cfi_startproc
 478              		@ args = 0, pretend = 0, frame = 0
 479              		@ frame_needed = 0, uses_anonymous_args = 0
 480              		@ link register save eliminated.
 481              	.LVL46:
 407:.\Generated_Source\PSoC5/I2CM_MASTER.c ****     uint8 errStatus;
 408:.\Generated_Source\PSoC5/I2CM_MASTER.c **** 
 409:.\Generated_Source\PSoC5/I2CM_MASTER.c ****     errStatus = I2CM_MSTR_NOT_READY;
 410:.\Generated_Source\PSoC5/I2CM_MASTER.c **** 
 411:.\Generated_Source\PSoC5/I2CM_MASTER.c ****     /* Check if START condition was generated */
 412:.\Generated_Source\PSoC5/I2CM_MASTER.c ****     if(I2CM_CHECK_MASTER_MODE(I2CM_MCSR_REG))
 482              		.loc 1 412 0
 483 0000 164B     		ldr	r3, .L44
 484 0002 1B78     		ldrb	r3, [r3]	@ zero_extendqisi2
 485 0004 13F0040F 		tst	r3, #4
 486 0008 23D0     		beq	.L42
 413:.\Generated_Source\PSoC5/I2CM_MASTER.c ****     {
 414:.\Generated_Source\PSoC5/I2CM_MASTER.c ****         /* Set address and read/write flag */
ARM GAS  C:\Users\Andreas\AppData\Local\Temp\ccT2An5g.s 			page 17


 415:.\Generated_Source\PSoC5/I2CM_MASTER.c ****         slaveAddress = (uint8) (slaveAddress << I2CM_SLAVE_ADDR_SHIFT);
 487              		.loc 1 415 0
 488 000a 4000     		lsls	r0, r0, #1
 489              	.LVL47:
 490 000c C0B2     		uxtb	r0, r0
 491              	.LVL48:
 416:.\Generated_Source\PSoC5/I2CM_MASTER.c ****         if(0u != R_nW)
 492              		.loc 1 416 0
 493 000e 29B1     		cbz	r1, .L39
 417:.\Generated_Source\PSoC5/I2CM_MASTER.c ****         {
 418:.\Generated_Source\PSoC5/I2CM_MASTER.c ****             slaveAddress |= I2CM_READ_FLAG;
 494              		.loc 1 418 0
 495 0010 40F00100 		orr	r0, r0, #1
 496              	.LVL49:
 419:.\Generated_Source\PSoC5/I2CM_MASTER.c ****             I2CM_state = I2CM_SM_MSTR_RD_ADDR;
 497              		.loc 1 419 0
 498 0014 4922     		movs	r2, #73
 499 0016 124B     		ldr	r3, .L44+4
 500 0018 1A70     		strb	r2, [r3]
 501 001a 02E0     		b	.L40
 502              	.L39:
 420:.\Generated_Source\PSoC5/I2CM_MASTER.c ****         }
 421:.\Generated_Source\PSoC5/I2CM_MASTER.c ****         else
 422:.\Generated_Source\PSoC5/I2CM_MASTER.c ****         {
 423:.\Generated_Source\PSoC5/I2CM_MASTER.c ****             I2CM_state = I2CM_SM_MSTR_WR_ADDR;
 503              		.loc 1 423 0
 504 001c 4522     		movs	r2, #69
 505 001e 104B     		ldr	r3, .L44+4
 506 0020 1A70     		strb	r2, [r3]
 507              	.L40:
 424:.\Generated_Source\PSoC5/I2CM_MASTER.c ****         }
 425:.\Generated_Source\PSoC5/I2CM_MASTER.c **** 
 426:.\Generated_Source\PSoC5/I2CM_MASTER.c ****         /* Hardware actions: write address and generate ReStart */
 427:.\Generated_Source\PSoC5/I2CM_MASTER.c ****         I2CM_DATA_REG = slaveAddress;
 508              		.loc 1 427 0
 509 0022 104B     		ldr	r3, .L44+8
 510 0024 1870     		strb	r0, [r3]
 428:.\Generated_Source\PSoC5/I2CM_MASTER.c ****         I2CM_GENERATE_RESTART_MANUAL;
 511              		.loc 1 428 0
 512 0026 1222     		movs	r2, #18
 513 0028 0133     		adds	r3, r3, #1
 514 002a 1A70     		strb	r2, [r3]
 515 002c 0422     		movs	r2, #4
 516 002e 023B     		subs	r3, r3, #2
 517 0030 1A70     		strb	r2, [r3]
 518              	.L41:
 429:.\Generated_Source\PSoC5/I2CM_MASTER.c **** 
 430:.\Generated_Source\PSoC5/I2CM_MASTER.c ****         /* Wait until address has been transferred */
 431:.\Generated_Source\PSoC5/I2CM_MASTER.c ****         while(I2CM_WAIT_BYTE_COMPLETE(I2CM_CSR_REG))
 519              		.loc 1 431 0 discriminator 1
 520 0032 0D4B     		ldr	r3, .L44+12
 521 0034 1B78     		ldrb	r3, [r3]	@ zero_extendqisi2
 522 0036 13F0010F 		tst	r3, #1
 523 003a FAD0     		beq	.L41
 432:.\Generated_Source\PSoC5/I2CM_MASTER.c ****         {
 433:.\Generated_Source\PSoC5/I2CM_MASTER.c ****         }
 434:.\Generated_Source\PSoC5/I2CM_MASTER.c **** 
ARM GAS  C:\Users\Andreas\AppData\Local\Temp\ccT2An5g.s 			page 18


 435:.\Generated_Source\PSoC5/I2CM_MASTER.c ****     #if(I2CM_MODE_MULTI_MASTER_ENABLED)
 436:.\Generated_Source\PSoC5/I2CM_MASTER.c ****         if(I2CM_CHECK_LOST_ARB(I2CM_CSR_REG))
 437:.\Generated_Source\PSoC5/I2CM_MASTER.c ****         {
 438:.\Generated_Source\PSoC5/I2CM_MASTER.c ****             I2CM_BUS_RELEASE_MANUAL;
 439:.\Generated_Source\PSoC5/I2CM_MASTER.c **** 
 440:.\Generated_Source\PSoC5/I2CM_MASTER.c ****             /* Master lost arbitrage: reset FSM to IDLE */
 441:.\Generated_Source\PSoC5/I2CM_MASTER.c ****             I2CM_state = I2CM_SM_IDLE;
 442:.\Generated_Source\PSoC5/I2CM_MASTER.c ****             errStatus = I2CM_MSTR_ERR_ARB_LOST;
 443:.\Generated_Source\PSoC5/I2CM_MASTER.c ****         }
 444:.\Generated_Source\PSoC5/I2CM_MASTER.c ****         else
 445:.\Generated_Source\PSoC5/I2CM_MASTER.c ****     #endif /* (I2CM_MODE_MULTI_MASTER_ENABLED) */
 446:.\Generated_Source\PSoC5/I2CM_MASTER.c **** 
 447:.\Generated_Source\PSoC5/I2CM_MASTER.c ****         if(I2CM_CHECK_ADDR_NAK(I2CM_CSR_REG))
 524              		.loc 1 447 0
 525 003c 0A4B     		ldr	r3, .L44+12
 526 003e 1B78     		ldrb	r3, [r3]	@ zero_extendqisi2
 527 0040 03F00A03 		and	r3, r3, #10
 528 0044 0A2B     		cmp	r3, #10
 529 0046 06D1     		bne	.L43
 448:.\Generated_Source\PSoC5/I2CM_MASTER.c ****         {
 449:.\Generated_Source\PSoC5/I2CM_MASTER.c ****             /* Address has been NACKed: reset FSM to IDLE */
 450:.\Generated_Source\PSoC5/I2CM_MASTER.c ****             I2CM_state = I2CM_SM_IDLE;
 530              		.loc 1 450 0
 531 0048 1022     		movs	r2, #16
 532 004a 054B     		ldr	r3, .L44+4
 533 004c 1A70     		strb	r2, [r3]
 534              	.LVL50:
 451:.\Generated_Source\PSoC5/I2CM_MASTER.c ****             errStatus = I2CM_MSTR_ERR_LB_NAK;
 535              		.loc 1 451 0
 536 004e 0320     		movs	r0, #3
 537              	.LVL51:
 538 0050 7047     		bx	lr
 539              	.LVL52:
 540              	.L42:
 409:.\Generated_Source\PSoC5/I2CM_MASTER.c **** 
 541              		.loc 1 409 0
 542 0052 0220     		movs	r0, #2
 543              	.LVL53:
 544 0054 7047     		bx	lr
 545              	.LVL54:
 546              	.L43:
 452:.\Generated_Source\PSoC5/I2CM_MASTER.c ****         }
 453:.\Generated_Source\PSoC5/I2CM_MASTER.c ****         else
 454:.\Generated_Source\PSoC5/I2CM_MASTER.c ****         {
 455:.\Generated_Source\PSoC5/I2CM_MASTER.c ****             /* ReStart was sent without errors */
 456:.\Generated_Source\PSoC5/I2CM_MASTER.c ****             errStatus = I2CM_MSTR_NO_ERROR;
 547              		.loc 1 456 0
 548 0056 0020     		movs	r0, #0
 549              	.LVL55:
 457:.\Generated_Source\PSoC5/I2CM_MASTER.c ****         }
 458:.\Generated_Source\PSoC5/I2CM_MASTER.c ****     }
 459:.\Generated_Source\PSoC5/I2CM_MASTER.c **** 
 460:.\Generated_Source\PSoC5/I2CM_MASTER.c ****     return(errStatus);
 461:.\Generated_Source\PSoC5/I2CM_MASTER.c **** }
 550              		.loc 1 461 0
 551 0058 7047     		bx	lr
 552              	.L45:
ARM GAS  C:\Users\Andreas\AppData\Local\Temp\ccT2An5g.s 			page 19


 553 005a 00BF     		.align	2
 554              	.L44:
 555 005c D9490040 		.word	1073760729
 556 0060 00000000 		.word	I2CM_state
 557 0064 D8490040 		.word	1073760728
 558 0068 D7490040 		.word	1073760727
 559              		.cfi_endproc
 560              	.LFE3:
 561              		.size	I2CM_MasterSendRestart, .-I2CM_MasterSendRestart
 562              		.section	.text.I2CM_MasterSendStop,"ax",%progbits
 563              		.align	2
 564              		.global	I2CM_MasterSendStop
 565              		.thumb
 566              		.thumb_func
 567              		.type	I2CM_MasterSendStop, %function
 568              	I2CM_MasterSendStop:
 569              	.LFB4:
 462:.\Generated_Source\PSoC5/I2CM_MASTER.c **** 
 463:.\Generated_Source\PSoC5/I2CM_MASTER.c **** 
 464:.\Generated_Source\PSoC5/I2CM_MASTER.c **** /*******************************************************************************
 465:.\Generated_Source\PSoC5/I2CM_MASTER.c **** * Function Name: I2CM_MasterSendStop
 466:.\Generated_Source\PSoC5/I2CM_MASTER.c **** ********************************************************************************
 467:.\Generated_Source\PSoC5/I2CM_MASTER.c **** *
 468:.\Generated_Source\PSoC5/I2CM_MASTER.c **** * Summary:
 469:.\Generated_Source\PSoC5/I2CM_MASTER.c **** *  Generates I2C Stop condition on bus. Function do nothing if Start or Restart
 470:.\Generated_Source\PSoC5/I2CM_MASTER.c **** *  condition was failed before call this function.
 471:.\Generated_Source\PSoC5/I2CM_MASTER.c **** *
 472:.\Generated_Source\PSoC5/I2CM_MASTER.c **** * Parameters:
 473:.\Generated_Source\PSoC5/I2CM_MASTER.c **** *  None.
 474:.\Generated_Source\PSoC5/I2CM_MASTER.c **** *
 475:.\Generated_Source\PSoC5/I2CM_MASTER.c **** * Return:
 476:.\Generated_Source\PSoC5/I2CM_MASTER.c **** *  Status error - Zero means no errors.
 477:.\Generated_Source\PSoC5/I2CM_MASTER.c **** *
 478:.\Generated_Source\PSoC5/I2CM_MASTER.c **** * Side Effects:
 479:.\Generated_Source\PSoC5/I2CM_MASTER.c **** *  Stop generation is required to complete the transaction.
 480:.\Generated_Source\PSoC5/I2CM_MASTER.c **** *  This function does not wait until a Stop condition is generated.
 481:.\Generated_Source\PSoC5/I2CM_MASTER.c **** *
 482:.\Generated_Source\PSoC5/I2CM_MASTER.c **** * Global variables:
 483:.\Generated_Source\PSoC5/I2CM_MASTER.c **** *  I2CM_state - The global variable used to store a current state of
 484:.\Generated_Source\PSoC5/I2CM_MASTER.c **** *                           the software FSM.
 485:.\Generated_Source\PSoC5/I2CM_MASTER.c **** *
 486:.\Generated_Source\PSoC5/I2CM_MASTER.c **** * Reentrant:
 487:.\Generated_Source\PSoC5/I2CM_MASTER.c **** *  No.
 488:.\Generated_Source\PSoC5/I2CM_MASTER.c **** *
 489:.\Generated_Source\PSoC5/I2CM_MASTER.c **** *******************************************************************************/
 490:.\Generated_Source\PSoC5/I2CM_MASTER.c **** uint8 I2CM_MasterSendStop(void) 
 491:.\Generated_Source\PSoC5/I2CM_MASTER.c **** {
 570              		.loc 1 491 0
 571              		.cfi_startproc
 572              		@ args = 0, pretend = 0, frame = 0
 573              		@ frame_needed = 0, uses_anonymous_args = 0
 574              		@ link register save eliminated.
 575              	.LVL56:
 492:.\Generated_Source\PSoC5/I2CM_MASTER.c ****     uint8 errStatus;
 493:.\Generated_Source\PSoC5/I2CM_MASTER.c **** 
 494:.\Generated_Source\PSoC5/I2CM_MASTER.c ****     errStatus = I2CM_MSTR_NOT_READY;
 495:.\Generated_Source\PSoC5/I2CM_MASTER.c **** 
ARM GAS  C:\Users\Andreas\AppData\Local\Temp\ccT2An5g.s 			page 20


 496:.\Generated_Source\PSoC5/I2CM_MASTER.c ****     /* Check if master is active on bus */
 497:.\Generated_Source\PSoC5/I2CM_MASTER.c ****     if(I2CM_CHECK_MASTER_MODE(I2CM_MCSR_REG))
 576              		.loc 1 497 0
 577 0000 0A4B     		ldr	r3, .L50
 578 0002 1B78     		ldrb	r3, [r3]	@ zero_extendqisi2
 579 0004 13F0040F 		tst	r3, #4
 580 0008 0ED0     		beq	.L49
 498:.\Generated_Source\PSoC5/I2CM_MASTER.c ****     {
 499:.\Generated_Source\PSoC5/I2CM_MASTER.c ****         I2CM_GENERATE_STOP_MANUAL;
 581              		.loc 1 499 0
 582 000a 1023     		movs	r3, #16
 583 000c 074A     		ldr	r2, .L50
 584 000e 1370     		strb	r3, [r2]
 585 0010 0421     		movs	r1, #4
 586 0012 023A     		subs	r2, r2, #2
 587 0014 1170     		strb	r1, [r2]
 500:.\Generated_Source\PSoC5/I2CM_MASTER.c ****         I2CM_state = I2CM_SM_IDLE;
 588              		.loc 1 500 0
 589 0016 064A     		ldr	r2, .L50+4
 590 0018 1370     		strb	r3, [r2]
 591              	.L48:
 501:.\Generated_Source\PSoC5/I2CM_MASTER.c **** 
 502:.\Generated_Source\PSoC5/I2CM_MASTER.c ****         /* Wait until stop has been generated */
 503:.\Generated_Source\PSoC5/I2CM_MASTER.c ****         while(I2CM_WAIT_STOP_COMPLETE(I2CM_CSR_REG))
 592              		.loc 1 503 0 discriminator 1
 593 001a 064B     		ldr	r3, .L50+8
 594 001c 1B78     		ldrb	r3, [r3]	@ zero_extendqisi2
 595 001e 13F0210F 		tst	r3, #33
 596 0022 FAD0     		beq	.L48
 504:.\Generated_Source\PSoC5/I2CM_MASTER.c ****         {
 505:.\Generated_Source\PSoC5/I2CM_MASTER.c ****         }
 506:.\Generated_Source\PSoC5/I2CM_MASTER.c **** 
 507:.\Generated_Source\PSoC5/I2CM_MASTER.c ****         errStatus = I2CM_MSTR_NO_ERROR;
 597              		.loc 1 507 0
 598 0024 0020     		movs	r0, #0
 599 0026 7047     		bx	lr
 600              	.L49:
 494:.\Generated_Source\PSoC5/I2CM_MASTER.c **** 
 601              		.loc 1 494 0
 602 0028 0220     		movs	r0, #2
 603              	.LVL57:
 508:.\Generated_Source\PSoC5/I2CM_MASTER.c **** 
 509:.\Generated_Source\PSoC5/I2CM_MASTER.c ****     #if(I2CM_MODE_MULTI_MASTER_ENABLED)
 510:.\Generated_Source\PSoC5/I2CM_MASTER.c ****         if(I2CM_CHECK_LOST_ARB(I2CM_CSR_REG))
 511:.\Generated_Source\PSoC5/I2CM_MASTER.c ****         {
 512:.\Generated_Source\PSoC5/I2CM_MASTER.c ****             I2CM_BUS_RELEASE_MANUAL;
 513:.\Generated_Source\PSoC5/I2CM_MASTER.c **** 
 514:.\Generated_Source\PSoC5/I2CM_MASTER.c ****             /* NACK was generated by instead Stop */
 515:.\Generated_Source\PSoC5/I2CM_MASTER.c ****             errStatus = I2CM_MSTR_ERR_ARB_LOST;
 516:.\Generated_Source\PSoC5/I2CM_MASTER.c ****         }
 517:.\Generated_Source\PSoC5/I2CM_MASTER.c ****     #endif /* (I2CM_MODE_MULTI_MASTER_ENABLED) */
 518:.\Generated_Source\PSoC5/I2CM_MASTER.c ****     }
 519:.\Generated_Source\PSoC5/I2CM_MASTER.c **** 
 520:.\Generated_Source\PSoC5/I2CM_MASTER.c ****     return(errStatus);
 521:.\Generated_Source\PSoC5/I2CM_MASTER.c **** }
 604              		.loc 1 521 0
 605 002a 7047     		bx	lr
ARM GAS  C:\Users\Andreas\AppData\Local\Temp\ccT2An5g.s 			page 21


 606              	.L51:
 607              		.align	2
 608              	.L50:
 609 002c D9490040 		.word	1073760729
 610 0030 00000000 		.word	I2CM_state
 611 0034 D7490040 		.word	1073760727
 612              		.cfi_endproc
 613              	.LFE4:
 614              		.size	I2CM_MasterSendStop, .-I2CM_MasterSendStop
 615              		.section	.text.I2CM_MasterWriteByte,"ax",%progbits
 616              		.align	2
 617              		.global	I2CM_MasterWriteByte
 618              		.thumb
 619              		.thumb_func
 620              		.type	I2CM_MasterWriteByte, %function
 621              	I2CM_MasterWriteByte:
 622              	.LFB5:
 522:.\Generated_Source\PSoC5/I2CM_MASTER.c **** 
 523:.\Generated_Source\PSoC5/I2CM_MASTER.c **** 
 524:.\Generated_Source\PSoC5/I2CM_MASTER.c **** /*******************************************************************************
 525:.\Generated_Source\PSoC5/I2CM_MASTER.c **** * Function Name: I2CM_MasterWriteByte
 526:.\Generated_Source\PSoC5/I2CM_MASTER.c **** ********************************************************************************
 527:.\Generated_Source\PSoC5/I2CM_MASTER.c **** *
 528:.\Generated_Source\PSoC5/I2CM_MASTER.c **** * Summary:
 529:.\Generated_Source\PSoC5/I2CM_MASTER.c **** *  Sends one byte to a slave. A valid Start or ReStart condition must be
 530:.\Generated_Source\PSoC5/I2CM_MASTER.c **** *  generated before this call this function. Function do nothing if Start or
 531:.\Generated_Source\PSoC5/I2CM_MASTER.c **** *  Restart condition was failed before call this function.
 532:.\Generated_Source\PSoC5/I2CM_MASTER.c **** *
 533:.\Generated_Source\PSoC5/I2CM_MASTER.c **** * Parameters:
 534:.\Generated_Source\PSoC5/I2CM_MASTER.c **** *  data:  The data byte to send to the slave.
 535:.\Generated_Source\PSoC5/I2CM_MASTER.c **** *
 536:.\Generated_Source\PSoC5/I2CM_MASTER.c **** * Return:
 537:.\Generated_Source\PSoC5/I2CM_MASTER.c **** *  Status error - Zero means no errors.
 538:.\Generated_Source\PSoC5/I2CM_MASTER.c **** *
 539:.\Generated_Source\PSoC5/I2CM_MASTER.c **** * Side Effects:
 540:.\Generated_Source\PSoC5/I2CM_MASTER.c **** *  This function is entered without a "byte complete" bit set in the I2C_CSR
 541:.\Generated_Source\PSoC5/I2CM_MASTER.c **** *  register. It does not exit until it is set.
 542:.\Generated_Source\PSoC5/I2CM_MASTER.c **** *
 543:.\Generated_Source\PSoC5/I2CM_MASTER.c **** * Global variables:
 544:.\Generated_Source\PSoC5/I2CM_MASTER.c **** *  I2CM_state - The global variable used to store a current state of
 545:.\Generated_Source\PSoC5/I2CM_MASTER.c **** *                           the software FSM.
 546:.\Generated_Source\PSoC5/I2CM_MASTER.c **** *
 547:.\Generated_Source\PSoC5/I2CM_MASTER.c **** *******************************************************************************/
 548:.\Generated_Source\PSoC5/I2CM_MASTER.c **** uint8 I2CM_MasterWriteByte(uint8 theByte) 
 549:.\Generated_Source\PSoC5/I2CM_MASTER.c **** {
 623              		.loc 1 549 0
 624              		.cfi_startproc
 625              		@ args = 0, pretend = 0, frame = 0
 626              		@ frame_needed = 0, uses_anonymous_args = 0
 627              		@ link register save eliminated.
 628              	.LVL58:
 550:.\Generated_Source\PSoC5/I2CM_MASTER.c ****     uint8 errStatus;
 551:.\Generated_Source\PSoC5/I2CM_MASTER.c **** 
 552:.\Generated_Source\PSoC5/I2CM_MASTER.c ****     errStatus = I2CM_MSTR_NOT_READY;
 553:.\Generated_Source\PSoC5/I2CM_MASTER.c **** 
 554:.\Generated_Source\PSoC5/I2CM_MASTER.c ****     /* Check if START condition was generated */
 555:.\Generated_Source\PSoC5/I2CM_MASTER.c ****     if(I2CM_CHECK_MASTER_MODE(I2CM_MCSR_REG))
ARM GAS  C:\Users\Andreas\AppData\Local\Temp\ccT2An5g.s 			page 22


 629              		.loc 1 555 0
 630 0000 114B     		ldr	r3, .L57
 631 0002 1B78     		ldrb	r3, [r3]	@ zero_extendqisi2
 632 0004 13F0040F 		tst	r3, #4
 633 0008 1BD0     		beq	.L56
 556:.\Generated_Source\PSoC5/I2CM_MASTER.c ****     {
 557:.\Generated_Source\PSoC5/I2CM_MASTER.c ****         I2CM_DATA_REG = theByte;   /* Write DATA register */
 634              		.loc 1 557 0
 635 000a 104B     		ldr	r3, .L57+4
 636 000c 1870     		strb	r0, [r3]
 558:.\Generated_Source\PSoC5/I2CM_MASTER.c ****         I2CM_TRANSMIT_DATA_MANUAL; /* Set transmit mode   */
 637              		.loc 1 558 0
 638 000e 0422     		movs	r2, #4
 639 0010 013B     		subs	r3, r3, #1
 640 0012 1A70     		strb	r2, [r3]
 559:.\Generated_Source\PSoC5/I2CM_MASTER.c ****         I2CM_state = I2CM_SM_MSTR_WR_DATA;
 641              		.loc 1 559 0
 642 0014 4622     		movs	r2, #70
 643 0016 0E4B     		ldr	r3, .L57+8
 644 0018 1A70     		strb	r2, [r3]
 645              	.L54:
 560:.\Generated_Source\PSoC5/I2CM_MASTER.c **** 
 561:.\Generated_Source\PSoC5/I2CM_MASTER.c ****         /* Wait until data byte has been transmitted */
 562:.\Generated_Source\PSoC5/I2CM_MASTER.c ****         while(I2CM_WAIT_BYTE_COMPLETE(I2CM_CSR_REG))
 646              		.loc 1 562 0 discriminator 1
 647 001a 0E4B     		ldr	r3, .L57+12
 648 001c 1B78     		ldrb	r3, [r3]	@ zero_extendqisi2
 649 001e 13F0010F 		tst	r3, #1
 650 0022 FAD0     		beq	.L54
 563:.\Generated_Source\PSoC5/I2CM_MASTER.c ****         {
 564:.\Generated_Source\PSoC5/I2CM_MASTER.c ****         }
 565:.\Generated_Source\PSoC5/I2CM_MASTER.c **** 
 566:.\Generated_Source\PSoC5/I2CM_MASTER.c ****     #if(I2CM_MODE_MULTI_MASTER_ENABLED)
 567:.\Generated_Source\PSoC5/I2CM_MASTER.c ****         if(I2CM_CHECK_LOST_ARB(I2CM_CSR_REG))
 568:.\Generated_Source\PSoC5/I2CM_MASTER.c ****         {
 569:.\Generated_Source\PSoC5/I2CM_MASTER.c ****             I2CM_BUS_RELEASE_MANUAL;
 570:.\Generated_Source\PSoC5/I2CM_MASTER.c **** 
 571:.\Generated_Source\PSoC5/I2CM_MASTER.c ****             /* Master lost arbitrage: reset FSM to IDLE */
 572:.\Generated_Source\PSoC5/I2CM_MASTER.c ****             I2CM_state = I2CM_SM_IDLE;
 573:.\Generated_Source\PSoC5/I2CM_MASTER.c ****             errStatus = I2CM_MSTR_ERR_ARB_LOST;
 574:.\Generated_Source\PSoC5/I2CM_MASTER.c ****         }
 575:.\Generated_Source\PSoC5/I2CM_MASTER.c ****         /* Check LRB bit */
 576:.\Generated_Source\PSoC5/I2CM_MASTER.c ****         else
 577:.\Generated_Source\PSoC5/I2CM_MASTER.c ****     #endif /* (I2CM_MODE_MULTI_MASTER_ENABLED) */
 578:.\Generated_Source\PSoC5/I2CM_MASTER.c **** 
 579:.\Generated_Source\PSoC5/I2CM_MASTER.c ****         if(I2CM_CHECK_DATA_ACK(I2CM_CSR_REG))
 651              		.loc 1 579 0
 652 0024 0B4B     		ldr	r3, .L57+12
 653 0026 1B78     		ldrb	r3, [r3]	@ zero_extendqisi2
 654 0028 13F0020F 		tst	r3, #2
 655 002c 04D1     		bne	.L55
 580:.\Generated_Source\PSoC5/I2CM_MASTER.c ****         {
 581:.\Generated_Source\PSoC5/I2CM_MASTER.c ****             I2CM_state = I2CM_SM_MSTR_HALT;
 656              		.loc 1 581 0
 657 002e 6022     		movs	r2, #96
 658 0030 074B     		ldr	r3, .L57+8
 659 0032 1A70     		strb	r2, [r3]
ARM GAS  C:\Users\Andreas\AppData\Local\Temp\ccT2An5g.s 			page 23


 660              	.LVL59:
 582:.\Generated_Source\PSoC5/I2CM_MASTER.c ****             errStatus = I2CM_MSTR_NO_ERROR;
 661              		.loc 1 582 0
 662 0034 0020     		movs	r0, #0
 663              	.LVL60:
 664 0036 7047     		bx	lr
 665              	.LVL61:
 666              	.L55:
 583:.\Generated_Source\PSoC5/I2CM_MASTER.c ****         }
 584:.\Generated_Source\PSoC5/I2CM_MASTER.c ****         else
 585:.\Generated_Source\PSoC5/I2CM_MASTER.c ****         {
 586:.\Generated_Source\PSoC5/I2CM_MASTER.c ****             I2CM_state = I2CM_SM_MSTR_HALT;
 667              		.loc 1 586 0
 668 0038 6022     		movs	r2, #96
 669 003a 054B     		ldr	r3, .L57+8
 670 003c 1A70     		strb	r2, [r3]
 671              	.LVL62:
 587:.\Generated_Source\PSoC5/I2CM_MASTER.c ****             errStatus = I2CM_MSTR_ERR_LB_NAK;
 672              		.loc 1 587 0
 673 003e 0320     		movs	r0, #3
 674              	.LVL63:
 675 0040 7047     		bx	lr
 676              	.LVL64:
 677              	.L56:
 552:.\Generated_Source\PSoC5/I2CM_MASTER.c **** 
 678              		.loc 1 552 0
 679 0042 0220     		movs	r0, #2
 680              	.LVL65:
 588:.\Generated_Source\PSoC5/I2CM_MASTER.c ****         }
 589:.\Generated_Source\PSoC5/I2CM_MASTER.c ****     }
 590:.\Generated_Source\PSoC5/I2CM_MASTER.c **** 
 591:.\Generated_Source\PSoC5/I2CM_MASTER.c ****     return(errStatus);
 592:.\Generated_Source\PSoC5/I2CM_MASTER.c **** }
 681              		.loc 1 592 0
 682 0044 7047     		bx	lr
 683              	.L58:
 684 0046 00BF     		.align	2
 685              	.L57:
 686 0048 D9490040 		.word	1073760729
 687 004c D8490040 		.word	1073760728
 688 0050 00000000 		.word	I2CM_state
 689 0054 D7490040 		.word	1073760727
 690              		.cfi_endproc
 691              	.LFE5:
 692              		.size	I2CM_MasterWriteByte, .-I2CM_MasterWriteByte
 693              		.section	.text.I2CM_MasterReadByte,"ax",%progbits
 694              		.align	2
 695              		.global	I2CM_MasterReadByte
 696              		.thumb
 697              		.thumb_func
 698              		.type	I2CM_MasterReadByte, %function
 699              	I2CM_MasterReadByte:
 700              	.LFB6:
 593:.\Generated_Source\PSoC5/I2CM_MASTER.c **** 
 594:.\Generated_Source\PSoC5/I2CM_MASTER.c **** 
 595:.\Generated_Source\PSoC5/I2CM_MASTER.c **** /*******************************************************************************
 596:.\Generated_Source\PSoC5/I2CM_MASTER.c **** * Function Name: I2CM_MasterReadByte
ARM GAS  C:\Users\Andreas\AppData\Local\Temp\ccT2An5g.s 			page 24


 597:.\Generated_Source\PSoC5/I2CM_MASTER.c **** ********************************************************************************
 598:.\Generated_Source\PSoC5/I2CM_MASTER.c **** *
 599:.\Generated_Source\PSoC5/I2CM_MASTER.c **** * Summary:
 600:.\Generated_Source\PSoC5/I2CM_MASTER.c **** *  Reads one byte from a slave and ACK or NACK the transfer. A valid Start or
 601:.\Generated_Source\PSoC5/I2CM_MASTER.c **** *  ReStart condition must be generated before this call this function. Function
 602:.\Generated_Source\PSoC5/I2CM_MASTER.c **** *  do nothing if Start or Restart condition was failed before call this
 603:.\Generated_Source\PSoC5/I2CM_MASTER.c **** *  function.
 604:.\Generated_Source\PSoC5/I2CM_MASTER.c **** *
 605:.\Generated_Source\PSoC5/I2CM_MASTER.c **** * Parameters:
 606:.\Generated_Source\PSoC5/I2CM_MASTER.c **** *  acknNack:  Zero, response with NACK, if non-zero response with ACK.
 607:.\Generated_Source\PSoC5/I2CM_MASTER.c **** *
 608:.\Generated_Source\PSoC5/I2CM_MASTER.c **** * Return:
 609:.\Generated_Source\PSoC5/I2CM_MASTER.c **** *  Byte read from slave.
 610:.\Generated_Source\PSoC5/I2CM_MASTER.c **** *
 611:.\Generated_Source\PSoC5/I2CM_MASTER.c **** * Side Effects:
 612:.\Generated_Source\PSoC5/I2CM_MASTER.c **** *  This function is entered without a "byte complete" bit set in the I2C_CSR
 613:.\Generated_Source\PSoC5/I2CM_MASTER.c **** *  register. It does not exit until it is set.
 614:.\Generated_Source\PSoC5/I2CM_MASTER.c **** *
 615:.\Generated_Source\PSoC5/I2CM_MASTER.c **** * Global variables:
 616:.\Generated_Source\PSoC5/I2CM_MASTER.c **** *  I2CM_state - The global variable used to store a current
 617:.\Generated_Source\PSoC5/I2CM_MASTER.c **** *                           state of the software FSM.
 618:.\Generated_Source\PSoC5/I2CM_MASTER.c **** *
 619:.\Generated_Source\PSoC5/I2CM_MASTER.c **** * Reentrant:
 620:.\Generated_Source\PSoC5/I2CM_MASTER.c **** *  No.
 621:.\Generated_Source\PSoC5/I2CM_MASTER.c **** *
 622:.\Generated_Source\PSoC5/I2CM_MASTER.c **** *******************************************************************************/
 623:.\Generated_Source\PSoC5/I2CM_MASTER.c **** uint8 I2CM_MasterReadByte(uint8 acknNak) 
 624:.\Generated_Source\PSoC5/I2CM_MASTER.c **** {
 701              		.loc 1 624 0
 702              		.cfi_startproc
 703              		@ args = 0, pretend = 0, frame = 0
 704              		@ frame_needed = 0, uses_anonymous_args = 0
 705              		@ link register save eliminated.
 706              	.LVL66:
 625:.\Generated_Source\PSoC5/I2CM_MASTER.c ****     uint8 theByte;
 626:.\Generated_Source\PSoC5/I2CM_MASTER.c **** 
 627:.\Generated_Source\PSoC5/I2CM_MASTER.c ****     theByte = 0u;
 628:.\Generated_Source\PSoC5/I2CM_MASTER.c **** 
 629:.\Generated_Source\PSoC5/I2CM_MASTER.c ****     /* Check if START condition was generated */
 630:.\Generated_Source\PSoC5/I2CM_MASTER.c ****     if(I2CM_CHECK_MASTER_MODE(I2CM_MCSR_REG))
 707              		.loc 1 630 0
 708 0000 114B     		ldr	r3, .L65
 709 0002 1B78     		ldrb	r3, [r3]	@ zero_extendqisi2
 710 0004 13F0040F 		tst	r3, #4
 711 0008 1BD0     		beq	.L64
 631:.\Generated_Source\PSoC5/I2CM_MASTER.c ****     {
 632:.\Generated_Source\PSoC5/I2CM_MASTER.c ****         /* When address phase needs to release bus and receive byte,
 633:.\Generated_Source\PSoC5/I2CM_MASTER.c ****         * then decide ACK or NACK
 634:.\Generated_Source\PSoC5/I2CM_MASTER.c ****         */
 635:.\Generated_Source\PSoC5/I2CM_MASTER.c ****         if(I2CM_SM_MSTR_RD_ADDR == I2CM_state)
 712              		.loc 1 635 0
 713 000a 104B     		ldr	r3, .L65+4
 714 000c 1B78     		ldrb	r3, [r3]	@ zero_extendqisi2
 715 000e DBB2     		uxtb	r3, r3
 716 0010 492B     		cmp	r3, #73
 717 0012 05D1     		bne	.L62
 636:.\Generated_Source\PSoC5/I2CM_MASTER.c ****         {
ARM GAS  C:\Users\Andreas\AppData\Local\Temp\ccT2An5g.s 			page 25


 637:.\Generated_Source\PSoC5/I2CM_MASTER.c ****             I2CM_READY_TO_READ_MANUAL;
 718              		.loc 1 637 0
 719 0014 0022     		movs	r2, #0
 720 0016 0E4B     		ldr	r3, .L65+8
 721 0018 1A70     		strb	r2, [r3]
 638:.\Generated_Source\PSoC5/I2CM_MASTER.c ****             I2CM_state = I2CM_SM_MSTR_RD_DATA;
 722              		.loc 1 638 0
 723 001a 4A22     		movs	r2, #74
 724 001c 0B4B     		ldr	r3, .L65+4
 725 001e 1A70     		strb	r2, [r3]
 726              	.L62:
 639:.\Generated_Source\PSoC5/I2CM_MASTER.c ****         }
 640:.\Generated_Source\PSoC5/I2CM_MASTER.c **** 
 641:.\Generated_Source\PSoC5/I2CM_MASTER.c ****         /* Wait until data byte has been received */
 642:.\Generated_Source\PSoC5/I2CM_MASTER.c ****         while(I2CM_WAIT_BYTE_COMPLETE(I2CM_CSR_REG))
 727              		.loc 1 642 0 discriminator 1
 728 0020 0B4B     		ldr	r3, .L65+8
 729 0022 1B78     		ldrb	r3, [r3]	@ zero_extendqisi2
 730 0024 13F0010F 		tst	r3, #1
 731 0028 FAD0     		beq	.L62
 643:.\Generated_Source\PSoC5/I2CM_MASTER.c ****         {
 644:.\Generated_Source\PSoC5/I2CM_MASTER.c ****         }
 645:.\Generated_Source\PSoC5/I2CM_MASTER.c **** 
 646:.\Generated_Source\PSoC5/I2CM_MASTER.c ****         theByte = I2CM_DATA_REG;
 732              		.loc 1 646 0
 733 002a 0A4B     		ldr	r3, .L65+12
 734 002c 1B78     		ldrb	r3, [r3]	@ zero_extendqisi2
 735 002e DBB2     		uxtb	r3, r3
 736              	.LVL67:
 647:.\Generated_Source\PSoC5/I2CM_MASTER.c **** 
 648:.\Generated_Source\PSoC5/I2CM_MASTER.c ****         /* Command ACK to receive next byte and continue transfer.
 649:.\Generated_Source\PSoC5/I2CM_MASTER.c ****         *  Do nothing for NACK. The NACK will be generated by
 650:.\Generated_Source\PSoC5/I2CM_MASTER.c ****         *  Stop or ReStart routine.
 651:.\Generated_Source\PSoC5/I2CM_MASTER.c ****         */
 652:.\Generated_Source\PSoC5/I2CM_MASTER.c ****         if(acknNak != 0u) /* Generate ACK */
 737              		.loc 1 652 0
 738 0030 18B1     		cbz	r0, .L63
 653:.\Generated_Source\PSoC5/I2CM_MASTER.c ****         {
 654:.\Generated_Source\PSoC5/I2CM_MASTER.c ****             I2CM_ACK_AND_RECEIVE_MANUAL;
 739              		.loc 1 654 0
 740 0032 1021     		movs	r1, #16
 741 0034 064A     		ldr	r2, .L65+8
 742 0036 1170     		strb	r1, [r2]
 743 0038 04E0     		b	.L60
 744              	.L63:
 655:.\Generated_Source\PSoC5/I2CM_MASTER.c ****         }
 656:.\Generated_Source\PSoC5/I2CM_MASTER.c ****         else              /* Do nothing for the follwong NACK */
 657:.\Generated_Source\PSoC5/I2CM_MASTER.c ****         {
 658:.\Generated_Source\PSoC5/I2CM_MASTER.c ****             I2CM_state = I2CM_SM_MSTR_HALT;
 745              		.loc 1 658 0
 746 003a 6021     		movs	r1, #96
 747 003c 034A     		ldr	r2, .L65+4
 748 003e 1170     		strb	r1, [r2]
 749 0040 00E0     		b	.L60
 750              	.LVL68:
 751              	.L64:
 627:.\Generated_Source\PSoC5/I2CM_MASTER.c **** 
ARM GAS  C:\Users\Andreas\AppData\Local\Temp\ccT2An5g.s 			page 26


 752              		.loc 1 627 0
 753 0042 0023     		movs	r3, #0
 754              	.LVL69:
 755              	.L60:
 659:.\Generated_Source\PSoC5/I2CM_MASTER.c ****         }
 660:.\Generated_Source\PSoC5/I2CM_MASTER.c ****     }
 661:.\Generated_Source\PSoC5/I2CM_MASTER.c **** 
 662:.\Generated_Source\PSoC5/I2CM_MASTER.c ****     return(theByte);
 663:.\Generated_Source\PSoC5/I2CM_MASTER.c **** }
 756              		.loc 1 663 0
 757 0044 1846     		mov	r0, r3
 758              	.LVL70:
 759 0046 7047     		bx	lr
 760              	.L66:
 761              		.align	2
 762              	.L65:
 763 0048 D9490040 		.word	1073760729
 764 004c 00000000 		.word	I2CM_state
 765 0050 D7490040 		.word	1073760727
 766 0054 D8490040 		.word	1073760728
 767              		.cfi_endproc
 768              	.LFE6:
 769              		.size	I2CM_MasterReadByte, .-I2CM_MasterReadByte
 770              		.section	.text.I2CM_MasterStatus,"ax",%progbits
 771              		.align	2
 772              		.global	I2CM_MasterStatus
 773              		.thumb
 774              		.thumb_func
 775              		.type	I2CM_MasterStatus, %function
 776              	I2CM_MasterStatus:
 777              	.LFB7:
 664:.\Generated_Source\PSoC5/I2CM_MASTER.c **** 
 665:.\Generated_Source\PSoC5/I2CM_MASTER.c **** 
 666:.\Generated_Source\PSoC5/I2CM_MASTER.c **** /*******************************************************************************
 667:.\Generated_Source\PSoC5/I2CM_MASTER.c **** * Function Name: I2CM_MasterStatus
 668:.\Generated_Source\PSoC5/I2CM_MASTER.c **** ********************************************************************************
 669:.\Generated_Source\PSoC5/I2CM_MASTER.c **** *
 670:.\Generated_Source\PSoC5/I2CM_MASTER.c **** * Summary:
 671:.\Generated_Source\PSoC5/I2CM_MASTER.c **** *  Returns the master's communication status.
 672:.\Generated_Source\PSoC5/I2CM_MASTER.c **** *
 673:.\Generated_Source\PSoC5/I2CM_MASTER.c **** * Parameters:
 674:.\Generated_Source\PSoC5/I2CM_MASTER.c **** *  None.
 675:.\Generated_Source\PSoC5/I2CM_MASTER.c **** *
 676:.\Generated_Source\PSoC5/I2CM_MASTER.c **** * Return:
 677:.\Generated_Source\PSoC5/I2CM_MASTER.c **** *  Current status of I2C master.
 678:.\Generated_Source\PSoC5/I2CM_MASTER.c **** *
 679:.\Generated_Source\PSoC5/I2CM_MASTER.c **** * Global variables:
 680:.\Generated_Source\PSoC5/I2CM_MASTER.c **** *  I2CM_mstrStatus - The global variable used to store a current
 681:.\Generated_Source\PSoC5/I2CM_MASTER.c **** *                                status of the I2C Master.
 682:.\Generated_Source\PSoC5/I2CM_MASTER.c **** *
 683:.\Generated_Source\PSoC5/I2CM_MASTER.c **** *******************************************************************************/
 684:.\Generated_Source\PSoC5/I2CM_MASTER.c **** uint8 I2CM_MasterStatus(void) 
 685:.\Generated_Source\PSoC5/I2CM_MASTER.c **** {
 778              		.loc 1 685 0
 779              		.cfi_startproc
 780              		@ args = 0, pretend = 0, frame = 0
 781              		@ frame_needed = 0, uses_anonymous_args = 0
ARM GAS  C:\Users\Andreas\AppData\Local\Temp\ccT2An5g.s 			page 27


 782              		@ link register save eliminated.
 686:.\Generated_Source\PSoC5/I2CM_MASTER.c ****     uint8 status;
 687:.\Generated_Source\PSoC5/I2CM_MASTER.c **** 
 688:.\Generated_Source\PSoC5/I2CM_MASTER.c ****     I2CM_DisableInt(); /* Lock from interrupt */
 783              		.loc 1 688 0
 784 0000 4FF40042 		mov	r2, #32768
 785 0004 084B     		ldr	r3, .L69
 786 0006 1A60     		str	r2, [r3]
 689:.\Generated_Source\PSoC5/I2CM_MASTER.c **** 
 690:.\Generated_Source\PSoC5/I2CM_MASTER.c ****     /* Read master status */
 691:.\Generated_Source\PSoC5/I2CM_MASTER.c ****     status = I2CM_mstrStatus;
 787              		.loc 1 691 0
 788 0008 084B     		ldr	r3, .L69+4
 789 000a 1878     		ldrb	r0, [r3]	@ zero_extendqisi2
 790 000c C0B2     		uxtb	r0, r0
 791              	.LVL71:
 692:.\Generated_Source\PSoC5/I2CM_MASTER.c **** 
 693:.\Generated_Source\PSoC5/I2CM_MASTER.c ****     if (I2CM_CHECK_SM_MASTER)
 792              		.loc 1 693 0
 793 000e 084B     		ldr	r3, .L69+8
 794 0010 1B78     		ldrb	r3, [r3]	@ zero_extendqisi2
 795 0012 13F0400F 		tst	r3, #64
 796 0016 01D0     		beq	.L68
 694:.\Generated_Source\PSoC5/I2CM_MASTER.c ****     {
 695:.\Generated_Source\PSoC5/I2CM_MASTER.c ****         /* Set transfer in progress flag in status */
 696:.\Generated_Source\PSoC5/I2CM_MASTER.c ****         status |= I2CM_MSTAT_XFER_INP;
 797              		.loc 1 696 0
 798 0018 40F00400 		orr	r0, r0, #4
 799              	.LVL72:
 800              	.L68:
 697:.\Generated_Source\PSoC5/I2CM_MASTER.c ****     }
 698:.\Generated_Source\PSoC5/I2CM_MASTER.c **** 
 699:.\Generated_Source\PSoC5/I2CM_MASTER.c ****     I2CM_EnableInt(); /* Release lock */
 801              		.loc 1 699 0
 802 001c 4FF40042 		mov	r2, #32768
 803 0020 044B     		ldr	r3, .L69+12
 804 0022 1A60     		str	r2, [r3]
 700:.\Generated_Source\PSoC5/I2CM_MASTER.c **** 
 701:.\Generated_Source\PSoC5/I2CM_MASTER.c ****     return (status);
 702:.\Generated_Source\PSoC5/I2CM_MASTER.c **** }
 805              		.loc 1 702 0
 806 0024 7047     		bx	lr
 807              	.L70:
 808 0026 00BF     		.align	2
 809              	.L69:
 810 0028 80E100E0 		.word	-536813184
 811 002c 00000000 		.word	I2CM_mstrStatus
 812 0030 00000000 		.word	I2CM_state
 813 0034 00E100E0 		.word	-536813312
 814              		.cfi_endproc
 815              	.LFE7:
 816              		.size	I2CM_MasterStatus, .-I2CM_MasterStatus
 817              		.section	.text.I2CM_MasterClearStatus,"ax",%progbits
 818              		.align	2
 819              		.global	I2CM_MasterClearStatus
 820              		.thumb
 821              		.thumb_func
ARM GAS  C:\Users\Andreas\AppData\Local\Temp\ccT2An5g.s 			page 28


 822              		.type	I2CM_MasterClearStatus, %function
 823              	I2CM_MasterClearStatus:
 824              	.LFB8:
 703:.\Generated_Source\PSoC5/I2CM_MASTER.c **** 
 704:.\Generated_Source\PSoC5/I2CM_MASTER.c **** 
 705:.\Generated_Source\PSoC5/I2CM_MASTER.c **** /*******************************************************************************
 706:.\Generated_Source\PSoC5/I2CM_MASTER.c **** * Function Name: I2CM_MasterClearStatus
 707:.\Generated_Source\PSoC5/I2CM_MASTER.c **** ********************************************************************************
 708:.\Generated_Source\PSoC5/I2CM_MASTER.c **** *
 709:.\Generated_Source\PSoC5/I2CM_MASTER.c **** * Summary:
 710:.\Generated_Source\PSoC5/I2CM_MASTER.c **** *  Clears all status flags and returns the master status.
 711:.\Generated_Source\PSoC5/I2CM_MASTER.c **** *
 712:.\Generated_Source\PSoC5/I2CM_MASTER.c **** * Parameters:
 713:.\Generated_Source\PSoC5/I2CM_MASTER.c **** *  None.
 714:.\Generated_Source\PSoC5/I2CM_MASTER.c **** *
 715:.\Generated_Source\PSoC5/I2CM_MASTER.c **** * Return:
 716:.\Generated_Source\PSoC5/I2CM_MASTER.c **** *  Current status of I2C master.
 717:.\Generated_Source\PSoC5/I2CM_MASTER.c **** *
 718:.\Generated_Source\PSoC5/I2CM_MASTER.c **** * Global variables:
 719:.\Generated_Source\PSoC5/I2CM_MASTER.c **** *  I2CM_mstrStatus - The global variable used to store a current
 720:.\Generated_Source\PSoC5/I2CM_MASTER.c **** *                                status of the I2C Master.
 721:.\Generated_Source\PSoC5/I2CM_MASTER.c **** *
 722:.\Generated_Source\PSoC5/I2CM_MASTER.c **** * Reentrant:
 723:.\Generated_Source\PSoC5/I2CM_MASTER.c **** *  No.
 724:.\Generated_Source\PSoC5/I2CM_MASTER.c **** *
 725:.\Generated_Source\PSoC5/I2CM_MASTER.c **** *******************************************************************************/
 726:.\Generated_Source\PSoC5/I2CM_MASTER.c **** uint8 I2CM_MasterClearStatus(void) 
 727:.\Generated_Source\PSoC5/I2CM_MASTER.c **** {
 825              		.loc 1 727 0
 826              		.cfi_startproc
 827              		@ args = 0, pretend = 0, frame = 0
 828              		@ frame_needed = 0, uses_anonymous_args = 0
 829              		@ link register save eliminated.
 728:.\Generated_Source\PSoC5/I2CM_MASTER.c ****     uint8 status;
 729:.\Generated_Source\PSoC5/I2CM_MASTER.c **** 
 730:.\Generated_Source\PSoC5/I2CM_MASTER.c ****     I2CM_DisableInt(); /* Lock from interrupt */
 830              		.loc 1 730 0
 831 0000 4FF40043 		mov	r3, #32768
 832 0004 044A     		ldr	r2, .L72
 833 0006 1360     		str	r3, [r2]
 731:.\Generated_Source\PSoC5/I2CM_MASTER.c **** 
 732:.\Generated_Source\PSoC5/I2CM_MASTER.c ****     /* Read and clear master status */
 733:.\Generated_Source\PSoC5/I2CM_MASTER.c ****     status = I2CM_mstrStatus;
 834              		.loc 1 733 0
 835 0008 044A     		ldr	r2, .L72+4
 836 000a 1078     		ldrb	r0, [r2]	@ zero_extendqisi2
 837              	.LVL73:
 734:.\Generated_Source\PSoC5/I2CM_MASTER.c ****     I2CM_mstrStatus = I2CM_MSTAT_CLEAR;
 838              		.loc 1 734 0
 839 000c 0021     		movs	r1, #0
 840 000e 1170     		strb	r1, [r2]
 735:.\Generated_Source\PSoC5/I2CM_MASTER.c **** 
 736:.\Generated_Source\PSoC5/I2CM_MASTER.c ****     I2CM_EnableInt(); /* Release lock */
 841              		.loc 1 736 0
 842 0010 034A     		ldr	r2, .L72+8
 843 0012 1360     		str	r3, [r2]
 737:.\Generated_Source\PSoC5/I2CM_MASTER.c **** 
ARM GAS  C:\Users\Andreas\AppData\Local\Temp\ccT2An5g.s 			page 29


 738:.\Generated_Source\PSoC5/I2CM_MASTER.c ****     return (status);
 739:.\Generated_Source\PSoC5/I2CM_MASTER.c **** }
 844              		.loc 1 739 0
 845 0014 7047     		bx	lr
 846              	.L73:
 847 0016 00BF     		.align	2
 848              	.L72:
 849 0018 80E100E0 		.word	-536813184
 850 001c 00000000 		.word	I2CM_mstrStatus
 851 0020 00E100E0 		.word	-536813312
 852              		.cfi_endproc
 853              	.LFE8:
 854              		.size	I2CM_MasterClearStatus, .-I2CM_MasterClearStatus
 855              		.section	.text.I2CM_MasterGetReadBufSize,"ax",%progbits
 856              		.align	2
 857              		.global	I2CM_MasterGetReadBufSize
 858              		.thumb
 859              		.thumb_func
 860              		.type	I2CM_MasterGetReadBufSize, %function
 861              	I2CM_MasterGetReadBufSize:
 862              	.LFB9:
 740:.\Generated_Source\PSoC5/I2CM_MASTER.c **** 
 741:.\Generated_Source\PSoC5/I2CM_MASTER.c **** 
 742:.\Generated_Source\PSoC5/I2CM_MASTER.c **** /*******************************************************************************
 743:.\Generated_Source\PSoC5/I2CM_MASTER.c **** * Function Name: I2CM_MasterGetReadBufSize
 744:.\Generated_Source\PSoC5/I2CM_MASTER.c **** ********************************************************************************
 745:.\Generated_Source\PSoC5/I2CM_MASTER.c **** *
 746:.\Generated_Source\PSoC5/I2CM_MASTER.c **** * Summary:
 747:.\Generated_Source\PSoC5/I2CM_MASTER.c **** *  Returns the amount of bytes that has been transferred with an
 748:.\Generated_Source\PSoC5/I2CM_MASTER.c **** *  I2C_MasterReadBuf command.
 749:.\Generated_Source\PSoC5/I2CM_MASTER.c **** *
 750:.\Generated_Source\PSoC5/I2CM_MASTER.c **** * Parameters:
 751:.\Generated_Source\PSoC5/I2CM_MASTER.c **** *  None.
 752:.\Generated_Source\PSoC5/I2CM_MASTER.c **** *
 753:.\Generated_Source\PSoC5/I2CM_MASTER.c **** * Return:
 754:.\Generated_Source\PSoC5/I2CM_MASTER.c **** *  Byte count of transfer. If the transfer is not yet complete, it will return
 755:.\Generated_Source\PSoC5/I2CM_MASTER.c **** *  the byte count transferred so far.
 756:.\Generated_Source\PSoC5/I2CM_MASTER.c **** *
 757:.\Generated_Source\PSoC5/I2CM_MASTER.c **** * Global variables:
 758:.\Generated_Source\PSoC5/I2CM_MASTER.c **** *  I2CM_mstrRdBufIndex - The global variable stores current index
 759:.\Generated_Source\PSoC5/I2CM_MASTER.c **** *                                    within the master read buffer.
 760:.\Generated_Source\PSoC5/I2CM_MASTER.c **** *
 761:.\Generated_Source\PSoC5/I2CM_MASTER.c **** *******************************************************************************/
 762:.\Generated_Source\PSoC5/I2CM_MASTER.c **** uint8 I2CM_MasterGetReadBufSize(void) 
 763:.\Generated_Source\PSoC5/I2CM_MASTER.c **** {
 863              		.loc 1 763 0
 864              		.cfi_startproc
 865              		@ args = 0, pretend = 0, frame = 0
 866              		@ frame_needed = 0, uses_anonymous_args = 0
 867              		@ link register save eliminated.
 764:.\Generated_Source\PSoC5/I2CM_MASTER.c ****     return (I2CM_mstrRdBufIndex);
 868              		.loc 1 764 0
 869 0000 014B     		ldr	r3, .L75
 870 0002 1878     		ldrb	r0, [r3]	@ zero_extendqisi2
 765:.\Generated_Source\PSoC5/I2CM_MASTER.c **** }
 871              		.loc 1 765 0
 872 0004 7047     		bx	lr
ARM GAS  C:\Users\Andreas\AppData\Local\Temp\ccT2An5g.s 			page 30


 873              	.L76:
 874 0006 00BF     		.align	2
 875              	.L75:
 876 0008 00000000 		.word	I2CM_mstrRdBufIndex
 877              		.cfi_endproc
 878              	.LFE9:
 879              		.size	I2CM_MasterGetReadBufSize, .-I2CM_MasterGetReadBufSize
 880              		.section	.text.I2CM_MasterGetWriteBufSize,"ax",%progbits
 881              		.align	2
 882              		.global	I2CM_MasterGetWriteBufSize
 883              		.thumb
 884              		.thumb_func
 885              		.type	I2CM_MasterGetWriteBufSize, %function
 886              	I2CM_MasterGetWriteBufSize:
 887              	.LFB10:
 766:.\Generated_Source\PSoC5/I2CM_MASTER.c **** 
 767:.\Generated_Source\PSoC5/I2CM_MASTER.c **** 
 768:.\Generated_Source\PSoC5/I2CM_MASTER.c **** /*******************************************************************************
 769:.\Generated_Source\PSoC5/I2CM_MASTER.c **** * Function Name: I2CM_MasterGetWriteBufSize
 770:.\Generated_Source\PSoC5/I2CM_MASTER.c **** ********************************************************************************
 771:.\Generated_Source\PSoC5/I2CM_MASTER.c **** *
 772:.\Generated_Source\PSoC5/I2CM_MASTER.c **** * Summary:
 773:.\Generated_Source\PSoC5/I2CM_MASTER.c **** *  Returns the amount of bytes that has been transferred with an
 774:.\Generated_Source\PSoC5/I2CM_MASTER.c **** *  I2C_MasterWriteBuf command.
 775:.\Generated_Source\PSoC5/I2CM_MASTER.c **** *
 776:.\Generated_Source\PSoC5/I2CM_MASTER.c **** * Parameters:
 777:.\Generated_Source\PSoC5/I2CM_MASTER.c **** *  None.
 778:.\Generated_Source\PSoC5/I2CM_MASTER.c **** *
 779:.\Generated_Source\PSoC5/I2CM_MASTER.c **** * Return:
 780:.\Generated_Source\PSoC5/I2CM_MASTER.c **** *  Byte count of transfer. If the transfer is not yet complete, it will return
 781:.\Generated_Source\PSoC5/I2CM_MASTER.c **** *  the byte count transferred so far.
 782:.\Generated_Source\PSoC5/I2CM_MASTER.c **** *
 783:.\Generated_Source\PSoC5/I2CM_MASTER.c **** * Global variables:
 784:.\Generated_Source\PSoC5/I2CM_MASTER.c **** *  I2CM_mstrWrBufIndex -  The global variable used to stores current
 785:.\Generated_Source\PSoC5/I2CM_MASTER.c **** *                                     index within master write buffer.
 786:.\Generated_Source\PSoC5/I2CM_MASTER.c **** *
 787:.\Generated_Source\PSoC5/I2CM_MASTER.c **** *******************************************************************************/
 788:.\Generated_Source\PSoC5/I2CM_MASTER.c **** uint8 I2CM_MasterGetWriteBufSize(void) 
 789:.\Generated_Source\PSoC5/I2CM_MASTER.c **** {
 888              		.loc 1 789 0
 889              		.cfi_startproc
 890              		@ args = 0, pretend = 0, frame = 0
 891              		@ frame_needed = 0, uses_anonymous_args = 0
 892              		@ link register save eliminated.
 790:.\Generated_Source\PSoC5/I2CM_MASTER.c ****     return (I2CM_mstrWrBufIndex);
 893              		.loc 1 790 0
 894 0000 014B     		ldr	r3, .L78
 895 0002 1878     		ldrb	r0, [r3]	@ zero_extendqisi2
 791:.\Generated_Source\PSoC5/I2CM_MASTER.c **** }
 896              		.loc 1 791 0
 897 0004 7047     		bx	lr
 898              	.L79:
 899 0006 00BF     		.align	2
 900              	.L78:
 901 0008 00000000 		.word	I2CM_mstrWrBufIndex
 902              		.cfi_endproc
 903              	.LFE10:
ARM GAS  C:\Users\Andreas\AppData\Local\Temp\ccT2An5g.s 			page 31


 904              		.size	I2CM_MasterGetWriteBufSize, .-I2CM_MasterGetWriteBufSize
 905              		.section	.text.I2CM_MasterClearReadBuf,"ax",%progbits
 906              		.align	2
 907              		.global	I2CM_MasterClearReadBuf
 908              		.thumb
 909              		.thumb_func
 910              		.type	I2CM_MasterClearReadBuf, %function
 911              	I2CM_MasterClearReadBuf:
 912              	.LFB11:
 792:.\Generated_Source\PSoC5/I2CM_MASTER.c **** 
 793:.\Generated_Source\PSoC5/I2CM_MASTER.c **** 
 794:.\Generated_Source\PSoC5/I2CM_MASTER.c **** /*******************************************************************************
 795:.\Generated_Source\PSoC5/I2CM_MASTER.c **** * Function Name: I2CM_MasterClearReadBuf
 796:.\Generated_Source\PSoC5/I2CM_MASTER.c **** ********************************************************************************
 797:.\Generated_Source\PSoC5/I2CM_MASTER.c **** *
 798:.\Generated_Source\PSoC5/I2CM_MASTER.c **** * Summary:
 799:.\Generated_Source\PSoC5/I2CM_MASTER.c **** *  Resets the read buffer pointer back to the first byte in the buffer.
 800:.\Generated_Source\PSoC5/I2CM_MASTER.c **** *
 801:.\Generated_Source\PSoC5/I2CM_MASTER.c **** * Parameters:
 802:.\Generated_Source\PSoC5/I2CM_MASTER.c **** *  None.
 803:.\Generated_Source\PSoC5/I2CM_MASTER.c **** *
 804:.\Generated_Source\PSoC5/I2CM_MASTER.c **** * Return:
 805:.\Generated_Source\PSoC5/I2CM_MASTER.c **** *  None.
 806:.\Generated_Source\PSoC5/I2CM_MASTER.c **** *
 807:.\Generated_Source\PSoC5/I2CM_MASTER.c **** * Global variables:
 808:.\Generated_Source\PSoC5/I2CM_MASTER.c **** *  I2CM_mstrRdBufIndex - The global variable used to stores current
 809:.\Generated_Source\PSoC5/I2CM_MASTER.c **** *                                    index within master read buffer.
 810:.\Generated_Source\PSoC5/I2CM_MASTER.c **** *  I2CM_mstrStatus - The global variable used to store a current
 811:.\Generated_Source\PSoC5/I2CM_MASTER.c **** *                                status of the I2C Master.
 812:.\Generated_Source\PSoC5/I2CM_MASTER.c **** *
 813:.\Generated_Source\PSoC5/I2CM_MASTER.c **** * Reentrant:
 814:.\Generated_Source\PSoC5/I2CM_MASTER.c **** *  No.
 815:.\Generated_Source\PSoC5/I2CM_MASTER.c **** *
 816:.\Generated_Source\PSoC5/I2CM_MASTER.c **** *******************************************************************************/
 817:.\Generated_Source\PSoC5/I2CM_MASTER.c **** void I2CM_MasterClearReadBuf(void) 
 818:.\Generated_Source\PSoC5/I2CM_MASTER.c **** {
 913              		.loc 1 818 0
 914              		.cfi_startproc
 915              		@ args = 0, pretend = 0, frame = 0
 916              		@ frame_needed = 0, uses_anonymous_args = 0
 917              		@ link register save eliminated.
 819:.\Generated_Source\PSoC5/I2CM_MASTER.c ****     I2CM_DisableInt(); /* Lock from interrupt */
 918              		.loc 1 819 0
 919 0000 4FF40042 		mov	r2, #32768
 920 0004 064B     		ldr	r3, .L81
 921 0006 1A60     		str	r2, [r3]
 820:.\Generated_Source\PSoC5/I2CM_MASTER.c **** 
 821:.\Generated_Source\PSoC5/I2CM_MASTER.c ****     I2CM_mstrRdBufIndex = 0u;
 922              		.loc 1 821 0
 923 0008 0021     		movs	r1, #0
 924 000a 064B     		ldr	r3, .L81+4
 925 000c 1970     		strb	r1, [r3]
 822:.\Generated_Source\PSoC5/I2CM_MASTER.c ****     I2CM_mstrStatus    &= (uint8) ~I2CM_MSTAT_RD_CMPLT;
 926              		.loc 1 822 0
 927 000e 0649     		ldr	r1, .L81+8
 928 0010 0B78     		ldrb	r3, [r1]	@ zero_extendqisi2
 929 0012 03F0FE03 		and	r3, r3, #254
ARM GAS  C:\Users\Andreas\AppData\Local\Temp\ccT2An5g.s 			page 32


 930 0016 0B70     		strb	r3, [r1]
 823:.\Generated_Source\PSoC5/I2CM_MASTER.c **** 
 824:.\Generated_Source\PSoC5/I2CM_MASTER.c ****     I2CM_EnableInt(); /* Release lock */
 931              		.loc 1 824 0
 932 0018 044B     		ldr	r3, .L81+12
 933 001a 1A60     		str	r2, [r3]
 934 001c 7047     		bx	lr
 935              	.L82:
 936 001e 00BF     		.align	2
 937              	.L81:
 938 0020 80E100E0 		.word	-536813184
 939 0024 00000000 		.word	I2CM_mstrRdBufIndex
 940 0028 00000000 		.word	I2CM_mstrStatus
 941 002c 00E100E0 		.word	-536813312
 942              		.cfi_endproc
 943              	.LFE11:
 944              		.size	I2CM_MasterClearReadBuf, .-I2CM_MasterClearReadBuf
 945              		.section	.text.I2CM_MasterClearWriteBuf,"ax",%progbits
 946              		.align	2
 947              		.global	I2CM_MasterClearWriteBuf
 948              		.thumb
 949              		.thumb_func
 950              		.type	I2CM_MasterClearWriteBuf, %function
 951              	I2CM_MasterClearWriteBuf:
 952              	.LFB12:
 825:.\Generated_Source\PSoC5/I2CM_MASTER.c **** }
 826:.\Generated_Source\PSoC5/I2CM_MASTER.c **** 
 827:.\Generated_Source\PSoC5/I2CM_MASTER.c **** 
 828:.\Generated_Source\PSoC5/I2CM_MASTER.c **** /*******************************************************************************
 829:.\Generated_Source\PSoC5/I2CM_MASTER.c **** * Function Name: I2CM_MasterClearWriteBuf
 830:.\Generated_Source\PSoC5/I2CM_MASTER.c **** ********************************************************************************
 831:.\Generated_Source\PSoC5/I2CM_MASTER.c **** *
 832:.\Generated_Source\PSoC5/I2CM_MASTER.c **** * Summary:
 833:.\Generated_Source\PSoC5/I2CM_MASTER.c **** *  Resets the write buffer pointer back to the first byte in the buffer.
 834:.\Generated_Source\PSoC5/I2CM_MASTER.c **** *
 835:.\Generated_Source\PSoC5/I2CM_MASTER.c **** * Parameters:
 836:.\Generated_Source\PSoC5/I2CM_MASTER.c **** *  None.
 837:.\Generated_Source\PSoC5/I2CM_MASTER.c **** *
 838:.\Generated_Source\PSoC5/I2CM_MASTER.c **** * Return:
 839:.\Generated_Source\PSoC5/I2CM_MASTER.c **** *  None.
 840:.\Generated_Source\PSoC5/I2CM_MASTER.c **** *
 841:.\Generated_Source\PSoC5/I2CM_MASTER.c **** * Global variables:
 842:.\Generated_Source\PSoC5/I2CM_MASTER.c **** *  I2CM_mstrRdBufIndex - The global variable used to stote current
 843:.\Generated_Source\PSoC5/I2CM_MASTER.c **** *                                    index within master read buffer.
 844:.\Generated_Source\PSoC5/I2CM_MASTER.c **** *  I2CM_mstrStatus - The global variable used to store a current
 845:.\Generated_Source\PSoC5/I2CM_MASTER.c **** *                                status of the I2C Master.
 846:.\Generated_Source\PSoC5/I2CM_MASTER.c **** *
 847:.\Generated_Source\PSoC5/I2CM_MASTER.c **** * Reentrant:
 848:.\Generated_Source\PSoC5/I2CM_MASTER.c **** *  No.
 849:.\Generated_Source\PSoC5/I2CM_MASTER.c **** *
 850:.\Generated_Source\PSoC5/I2CM_MASTER.c **** *******************************************************************************/
 851:.\Generated_Source\PSoC5/I2CM_MASTER.c **** void I2CM_MasterClearWriteBuf(void) 
 852:.\Generated_Source\PSoC5/I2CM_MASTER.c **** {
 953              		.loc 1 852 0
 954              		.cfi_startproc
 955              		@ args = 0, pretend = 0, frame = 0
 956              		@ frame_needed = 0, uses_anonymous_args = 0
ARM GAS  C:\Users\Andreas\AppData\Local\Temp\ccT2An5g.s 			page 33


 957              		@ link register save eliminated.
 853:.\Generated_Source\PSoC5/I2CM_MASTER.c ****     I2CM_DisableInt(); /* Lock from interrupt */
 958              		.loc 1 853 0
 959 0000 4FF40042 		mov	r2, #32768
 960 0004 064B     		ldr	r3, .L84
 961 0006 1A60     		str	r2, [r3]
 854:.\Generated_Source\PSoC5/I2CM_MASTER.c **** 
 855:.\Generated_Source\PSoC5/I2CM_MASTER.c ****     I2CM_mstrWrBufIndex = 0u;
 962              		.loc 1 855 0
 963 0008 0021     		movs	r1, #0
 964 000a 064B     		ldr	r3, .L84+4
 965 000c 1970     		strb	r1, [r3]
 856:.\Generated_Source\PSoC5/I2CM_MASTER.c ****     I2CM_mstrStatus    &= (uint8) ~I2CM_MSTAT_WR_CMPLT;
 966              		.loc 1 856 0
 967 000e 0649     		ldr	r1, .L84+8
 968 0010 0B78     		ldrb	r3, [r1]	@ zero_extendqisi2
 969 0012 03F0FD03 		and	r3, r3, #253
 970 0016 0B70     		strb	r3, [r1]
 857:.\Generated_Source\PSoC5/I2CM_MASTER.c **** 
 858:.\Generated_Source\PSoC5/I2CM_MASTER.c ****     I2CM_EnableInt(); /* Release lock */
 971              		.loc 1 858 0
 972 0018 044B     		ldr	r3, .L84+12
 973 001a 1A60     		str	r2, [r3]
 974 001c 7047     		bx	lr
 975              	.L85:
 976 001e 00BF     		.align	2
 977              	.L84:
 978 0020 80E100E0 		.word	-536813184
 979 0024 00000000 		.word	I2CM_mstrWrBufIndex
 980 0028 00000000 		.word	I2CM_mstrStatus
 981 002c 00E100E0 		.word	-536813312
 982              		.cfi_endproc
 983              	.LFE12:
 984              		.size	I2CM_MasterClearWriteBuf, .-I2CM_MasterClearWriteBuf
 985              		.comm	I2CM_mstrWrBufIndex,1,1
 986              		.comm	I2CM_mstrWrBufSize,1,1
 987              		.comm	I2CM_mstrWrBufPtr,4,4
 988              		.comm	I2CM_mstrRdBufIndex,1,1
 989              		.comm	I2CM_mstrRdBufSize,1,1
 990              		.comm	I2CM_mstrRdBufPtr,4,4
 991              		.comm	I2CM_mstrControl,1,1
 992              		.comm	I2CM_mstrStatus,1,1
 993              		.text
 994              	.Letext0:
 995              		.file 2 ".\\Generated_Source\\PSoC5\\cytypes.h"
 996              		.file 3 ".\\Generated_Source\\PSoC5\\I2CM_PVT.h"