ARM GAS  C:\Users\Andreas\AppData\Local\Temp\ccO0paZQ.s 			page 1


   1              		.syntax unified
   2              		.cpu cortex-m3
   3              		.fpu softvfp
   4              		.eabi_attribute 20, 1
   5              		.eabi_attribute 21, 1
   6              		.eabi_attribute 23, 3
   7              		.eabi_attribute 24, 1
   8              		.eabi_attribute 25, 1
   9              		.eabi_attribute 26, 1
  10              		.eabi_attribute 30, 1
  11              		.eabi_attribute 34, 1
  12              		.eabi_attribute 18, 4
  13              		.thumb
  14              		.file	"I2CM.c"
  15              		.text
  16              	.Ltext0:
  17              		.cfi_sections	.debug_frame
  18              		.section	.text.I2CM_Init,"ax",%progbits
  19              		.align	2
  20              		.global	I2CM_Init
  21              		.thumb
  22              		.thumb_func
  23              		.type	I2CM_Init, %function
  24              	I2CM_Init:
  25              	.LFB0:
  26              		.file 1 ".\\Generated_Source\\PSoC5\\I2CM.c"
   1:.\Generated_Source\PSoC5/I2CM.c **** /*******************************************************************************
   2:.\Generated_Source\PSoC5/I2CM.c **** * File Name: I2CM.c
   3:.\Generated_Source\PSoC5/I2CM.c **** * Version 3.50
   4:.\Generated_Source\PSoC5/I2CM.c **** *
   5:.\Generated_Source\PSoC5/I2CM.c **** * Description:
   6:.\Generated_Source\PSoC5/I2CM.c **** *  This file provides the source code of APIs for the I2C component.
   7:.\Generated_Source\PSoC5/I2CM.c **** *  The actual protocol and operation code resides in the interrupt service
   8:.\Generated_Source\PSoC5/I2CM.c **** *  routine file.
   9:.\Generated_Source\PSoC5/I2CM.c **** *
  10:.\Generated_Source\PSoC5/I2CM.c **** *******************************************************************************
  11:.\Generated_Source\PSoC5/I2CM.c **** * Copyright 2008-2015, Cypress Semiconductor Corporation. All rights reserved.
  12:.\Generated_Source\PSoC5/I2CM.c **** * You may use this file only in accordance with the license, terms, conditions,
  13:.\Generated_Source\PSoC5/I2CM.c **** * disclaimers, and limitations in the end user license agreement accompanying
  14:.\Generated_Source\PSoC5/I2CM.c **** * the software package with which this file was provided.
  15:.\Generated_Source\PSoC5/I2CM.c **** *******************************************************************************/
  16:.\Generated_Source\PSoC5/I2CM.c **** 
  17:.\Generated_Source\PSoC5/I2CM.c **** #include "I2CM_PVT.h"
  18:.\Generated_Source\PSoC5/I2CM.c **** 
  19:.\Generated_Source\PSoC5/I2CM.c **** 
  20:.\Generated_Source\PSoC5/I2CM.c **** /**********************************
  21:.\Generated_Source\PSoC5/I2CM.c **** *      System variables
  22:.\Generated_Source\PSoC5/I2CM.c **** **********************************/
  23:.\Generated_Source\PSoC5/I2CM.c **** 
  24:.\Generated_Source\PSoC5/I2CM.c **** uint8 I2CM_initVar = 0u; /* Defines if component was initialized */
  25:.\Generated_Source\PSoC5/I2CM.c **** 
  26:.\Generated_Source\PSoC5/I2CM.c **** volatile uint8 I2CM_state;  /* Current state of I2C FSM */
  27:.\Generated_Source\PSoC5/I2CM.c **** 
  28:.\Generated_Source\PSoC5/I2CM.c **** 
  29:.\Generated_Source\PSoC5/I2CM.c **** /*******************************************************************************
  30:.\Generated_Source\PSoC5/I2CM.c **** * Function Name: I2CM_Init
  31:.\Generated_Source\PSoC5/I2CM.c **** ********************************************************************************
ARM GAS  C:\Users\Andreas\AppData\Local\Temp\ccO0paZQ.s 			page 2


  32:.\Generated_Source\PSoC5/I2CM.c **** *
  33:.\Generated_Source\PSoC5/I2CM.c **** * Summary:
  34:.\Generated_Source\PSoC5/I2CM.c **** *  Initializes I2C registers with initial values provided from customizer.
  35:.\Generated_Source\PSoC5/I2CM.c **** *
  36:.\Generated_Source\PSoC5/I2CM.c **** * Parameters:
  37:.\Generated_Source\PSoC5/I2CM.c **** *  None.
  38:.\Generated_Source\PSoC5/I2CM.c **** *
  39:.\Generated_Source\PSoC5/I2CM.c **** * Return:
  40:.\Generated_Source\PSoC5/I2CM.c **** *  None.
  41:.\Generated_Source\PSoC5/I2CM.c **** *
  42:.\Generated_Source\PSoC5/I2CM.c **** * Global variables:
  43:.\Generated_Source\PSoC5/I2CM.c **** *  None.
  44:.\Generated_Source\PSoC5/I2CM.c **** *
  45:.\Generated_Source\PSoC5/I2CM.c **** * Reentrant:
  46:.\Generated_Source\PSoC5/I2CM.c **** *  No.
  47:.\Generated_Source\PSoC5/I2CM.c **** *
  48:.\Generated_Source\PSoC5/I2CM.c **** *******************************************************************************/
  49:.\Generated_Source\PSoC5/I2CM.c **** void I2CM_Init(void) 
  50:.\Generated_Source\PSoC5/I2CM.c **** {
  27              		.loc 1 50 0
  28              		.cfi_startproc
  29              		@ args = 0, pretend = 0, frame = 0
  30              		@ frame_needed = 0, uses_anonymous_args = 0
  31 0000 38B5     		push	{r3, r4, r5, lr}
  32              		.cfi_def_cfa_offset 16
  33              		.cfi_offset 3, -16
  34              		.cfi_offset 4, -12
  35              		.cfi_offset 5, -8
  36              		.cfi_offset 14, -4
  51:.\Generated_Source\PSoC5/I2CM.c **** #if (I2CM_FF_IMPLEMENTED)
  52:.\Generated_Source\PSoC5/I2CM.c ****     /* Configure fixed function block */
  53:.\Generated_Source\PSoC5/I2CM.c ****     I2CM_CFG_REG  = I2CM_DEFAULT_CFG;
  37              		.loc 1 53 0
  38 0002 0222     		movs	r2, #2
  39 0004 114B     		ldr	r3, .L3
  40 0006 1A70     		strb	r2, [r3]
  54:.\Generated_Source\PSoC5/I2CM.c ****     I2CM_XCFG_REG = I2CM_DEFAULT_XCFG;
  41              		.loc 1 54 0
  42 0008 8122     		movs	r2, #129
  43 000a 0E3B     		subs	r3, r3, #14
  44 000c 1A70     		strb	r2, [r3]
  55:.\Generated_Source\PSoC5/I2CM.c ****     I2CM_ADDR_REG = I2CM_DEFAULT_ADDR;
  45              		.loc 1 55 0
  46 000e 0822     		movs	r2, #8
  47 0010 0233     		adds	r3, r3, #2
  48 0012 1A70     		strb	r2, [r3]
  56:.\Generated_Source\PSoC5/I2CM.c ****     I2CM_CLKDIV1_REG = LO8(I2CM_DEFAULT_DIVIDE_FACTOR);
  49              		.loc 1 56 0
  50 0014 0F25     		movs	r5, #15
  51 0016 1133     		adds	r3, r3, #17
  52 0018 1D70     		strb	r5, [r3]
  57:.\Generated_Source\PSoC5/I2CM.c ****     I2CM_CLKDIV2_REG = HI8(I2CM_DEFAULT_DIVIDE_FACTOR);
  53              		.loc 1 57 0
  54 001a 0024     		movs	r4, #0
  55 001c 0133     		adds	r3, r3, #1
  56 001e 1C70     		strb	r4, [r3]
  58:.\Generated_Source\PSoC5/I2CM.c **** 
ARM GAS  C:\Users\Andreas\AppData\Local\Temp\ccO0paZQ.s 			page 3


  59:.\Generated_Source\PSoC5/I2CM.c **** #else
  60:.\Generated_Source\PSoC5/I2CM.c ****     uint8 intState;
  61:.\Generated_Source\PSoC5/I2CM.c **** 
  62:.\Generated_Source\PSoC5/I2CM.c ****     /* Configure control and interrupt sources */
  63:.\Generated_Source\PSoC5/I2CM.c ****     I2CM_CFG_REG      = I2CM_DEFAULT_CFG;
  64:.\Generated_Source\PSoC5/I2CM.c ****     I2CM_INT_MASK_REG = I2CM_DEFAULT_INT_MASK;
  65:.\Generated_Source\PSoC5/I2CM.c **** 
  66:.\Generated_Source\PSoC5/I2CM.c ****     /* Enable interrupt generation in status */
  67:.\Generated_Source\PSoC5/I2CM.c ****     intState = CyEnterCriticalSection();
  68:.\Generated_Source\PSoC5/I2CM.c ****     I2CM_INT_ENABLE_REG |= I2CM_INTR_ENABLE;
  69:.\Generated_Source\PSoC5/I2CM.c ****     CyExitCriticalSection(intState);
  70:.\Generated_Source\PSoC5/I2CM.c **** 
  71:.\Generated_Source\PSoC5/I2CM.c ****     /* Configure bit counter */
  72:.\Generated_Source\PSoC5/I2CM.c ****     #if (I2CM_MODE_SLAVE_ENABLED)
  73:.\Generated_Source\PSoC5/I2CM.c ****         I2CM_PERIOD_REG = I2CM_DEFAULT_PERIOD;
  74:.\Generated_Source\PSoC5/I2CM.c ****     #endif  /* (I2CM_MODE_SLAVE_ENABLED) */
  75:.\Generated_Source\PSoC5/I2CM.c **** 
  76:.\Generated_Source\PSoC5/I2CM.c ****     /* Configure clock generator */
  77:.\Generated_Source\PSoC5/I2CM.c ****     #if (I2CM_MODE_MASTER_ENABLED)
  78:.\Generated_Source\PSoC5/I2CM.c ****         I2CM_MCLK_PRD_REG = I2CM_DEFAULT_MCLK_PRD;
  79:.\Generated_Source\PSoC5/I2CM.c ****         I2CM_MCLK_CMP_REG = I2CM_DEFAULT_MCLK_CMP;
  80:.\Generated_Source\PSoC5/I2CM.c ****     #endif /* (I2CM_MODE_MASTER_ENABLED) */
  81:.\Generated_Source\PSoC5/I2CM.c **** #endif /* (I2CM_FF_IMPLEMENTED) */
  82:.\Generated_Source\PSoC5/I2CM.c **** 
  83:.\Generated_Source\PSoC5/I2CM.c **** #if (I2CM_TIMEOUT_ENABLED)
  84:.\Generated_Source\PSoC5/I2CM.c ****     I2CM_TimeoutInit();
  85:.\Generated_Source\PSoC5/I2CM.c **** #endif /* (I2CM_TIMEOUT_ENABLED) */
  86:.\Generated_Source\PSoC5/I2CM.c **** 
  87:.\Generated_Source\PSoC5/I2CM.c ****     /* Configure internal interrupt */
  88:.\Generated_Source\PSoC5/I2CM.c ****     CyIntDisable    (I2CM_ISR_NUMBER);
  57              		.loc 1 88 0
  58 0020 4FF40042 		mov	r2, #32768
  59 0024 0A4B     		ldr	r3, .L3+4
  60 0026 1A60     		str	r2, [r3]
  89:.\Generated_Source\PSoC5/I2CM.c ****     CyIntSetPriority(I2CM_ISR_NUMBER, I2CM_ISR_PRIORITY);
  61              		.loc 1 89 0
  62 0028 2846     		mov	r0, r5
  63 002a 0721     		movs	r1, #7
  64 002c FFF7FEFF 		bl	CyIntSetPriority
  65              	.LVL0:
  90:.\Generated_Source\PSoC5/I2CM.c ****     #if (I2CM_INTERN_I2C_INTR_HANDLER)
  91:.\Generated_Source\PSoC5/I2CM.c ****         (void) CyIntSetVector(I2CM_ISR_NUMBER, &I2CM_ISR);
  66              		.loc 1 91 0
  67 0030 2846     		mov	r0, r5
  68 0032 0849     		ldr	r1, .L3+8
  69 0034 FFF7FEFF 		bl	CyIntSetVector
  70              	.LVL1:
  92:.\Generated_Source\PSoC5/I2CM.c ****     #endif /* (I2CM_INTERN_I2C_INTR_HANDLER) */
  93:.\Generated_Source\PSoC5/I2CM.c **** 
  94:.\Generated_Source\PSoC5/I2CM.c ****     /* Set FSM to default state */
  95:.\Generated_Source\PSoC5/I2CM.c ****     I2CM_state = I2CM_SM_IDLE;
  71              		.loc 1 95 0
  72 0038 1022     		movs	r2, #16
  73 003a 074B     		ldr	r3, .L3+12
  74 003c 1A70     		strb	r2, [r3]
  96:.\Generated_Source\PSoC5/I2CM.c **** 
  97:.\Generated_Source\PSoC5/I2CM.c **** #if (I2CM_MODE_SLAVE_ENABLED)
ARM GAS  C:\Users\Andreas\AppData\Local\Temp\ccO0paZQ.s 			page 4


  98:.\Generated_Source\PSoC5/I2CM.c ****     /* Clear status and buffers index */
  99:.\Generated_Source\PSoC5/I2CM.c ****     I2CM_slStatus = 0u;
 100:.\Generated_Source\PSoC5/I2CM.c ****     I2CM_slRdBufIndex = 0u;
 101:.\Generated_Source\PSoC5/I2CM.c ****     I2CM_slWrBufIndex = 0u;
 102:.\Generated_Source\PSoC5/I2CM.c **** 
 103:.\Generated_Source\PSoC5/I2CM.c ****     /* Configure matched address */
 104:.\Generated_Source\PSoC5/I2CM.c ****     I2CM_SlaveSetAddress(I2CM_DEFAULT_ADDR);
 105:.\Generated_Source\PSoC5/I2CM.c **** #endif /* (I2CM_MODE_SLAVE_ENABLED) */
 106:.\Generated_Source\PSoC5/I2CM.c **** 
 107:.\Generated_Source\PSoC5/I2CM.c **** #if (I2CM_MODE_MASTER_ENABLED)
 108:.\Generated_Source\PSoC5/I2CM.c ****     /* Clear status and buffers index */
 109:.\Generated_Source\PSoC5/I2CM.c ****     I2CM_mstrStatus = 0u;
  75              		.loc 1 109 0
  76 003e 074B     		ldr	r3, .L3+16
  77 0040 1C70     		strb	r4, [r3]
 110:.\Generated_Source\PSoC5/I2CM.c ****     I2CM_mstrRdBufIndex = 0u;
  78              		.loc 1 110 0
  79 0042 074B     		ldr	r3, .L3+20
  80 0044 1C70     		strb	r4, [r3]
 111:.\Generated_Source\PSoC5/I2CM.c ****     I2CM_mstrWrBufIndex = 0u;
  81              		.loc 1 111 0
  82 0046 074B     		ldr	r3, .L3+24
  83 0048 1C70     		strb	r4, [r3]
  84 004a 38BD     		pop	{r3, r4, r5, pc}
  85              	.L4:
  86              		.align	2
  87              	.L3:
  88 004c D6490040 		.word	1073760726
  89 0050 80E100E0 		.word	-536813184
  90 0054 00000000 		.word	I2CM_ISR
  91 0058 00000000 		.word	I2CM_state
  92 005c 00000000 		.word	I2CM_mstrStatus
  93 0060 00000000 		.word	I2CM_mstrRdBufIndex
  94 0064 00000000 		.word	I2CM_mstrWrBufIndex
  95              		.cfi_endproc
  96              	.LFE0:
  97              		.size	I2CM_Init, .-I2CM_Init
  98              		.section	.text.I2CM_Enable,"ax",%progbits
  99              		.align	2
 100              		.global	I2CM_Enable
 101              		.thumb
 102              		.thumb_func
 103              		.type	I2CM_Enable, %function
 104              	I2CM_Enable:
 105              	.LFB1:
 112:.\Generated_Source\PSoC5/I2CM.c **** #endif /* (I2CM_MODE_MASTER_ENABLED) */
 113:.\Generated_Source\PSoC5/I2CM.c **** }
 114:.\Generated_Source\PSoC5/I2CM.c **** 
 115:.\Generated_Source\PSoC5/I2CM.c **** 
 116:.\Generated_Source\PSoC5/I2CM.c **** /*******************************************************************************
 117:.\Generated_Source\PSoC5/I2CM.c **** * Function Name: I2CM_Enable
 118:.\Generated_Source\PSoC5/I2CM.c **** ********************************************************************************
 119:.\Generated_Source\PSoC5/I2CM.c **** *
 120:.\Generated_Source\PSoC5/I2CM.c **** * Summary:
 121:.\Generated_Source\PSoC5/I2CM.c **** *  Enables I2C operations.
 122:.\Generated_Source\PSoC5/I2CM.c **** *
 123:.\Generated_Source\PSoC5/I2CM.c **** * Parameters:
ARM GAS  C:\Users\Andreas\AppData\Local\Temp\ccO0paZQ.s 			page 5


 124:.\Generated_Source\PSoC5/I2CM.c **** *  None.
 125:.\Generated_Source\PSoC5/I2CM.c **** *
 126:.\Generated_Source\PSoC5/I2CM.c **** * Return:
 127:.\Generated_Source\PSoC5/I2CM.c **** *  None.
 128:.\Generated_Source\PSoC5/I2CM.c **** *
 129:.\Generated_Source\PSoC5/I2CM.c **** * Global variables:
 130:.\Generated_Source\PSoC5/I2CM.c **** *  None.
 131:.\Generated_Source\PSoC5/I2CM.c **** *
 132:.\Generated_Source\PSoC5/I2CM.c **** *******************************************************************************/
 133:.\Generated_Source\PSoC5/I2CM.c **** void I2CM_Enable(void) 
 134:.\Generated_Source\PSoC5/I2CM.c **** {
 106              		.loc 1 134 0
 107              		.cfi_startproc
 108              		@ args = 0, pretend = 0, frame = 0
 109              		@ frame_needed = 0, uses_anonymous_args = 0
 110 0000 08B5     		push	{r3, lr}
 111              		.cfi_def_cfa_offset 8
 112              		.cfi_offset 3, -8
 113              		.cfi_offset 14, -4
 135:.\Generated_Source\PSoC5/I2CM.c **** #if (I2CM_FF_IMPLEMENTED)
 136:.\Generated_Source\PSoC5/I2CM.c ****     uint8 intState;
 137:.\Generated_Source\PSoC5/I2CM.c **** 
 138:.\Generated_Source\PSoC5/I2CM.c ****     /* Enable power to block */
 139:.\Generated_Source\PSoC5/I2CM.c ****     intState = CyEnterCriticalSection();
 114              		.loc 1 139 0
 115 0002 FFF7FEFF 		bl	CyEnterCriticalSection
 116              	.LVL2:
 140:.\Generated_Source\PSoC5/I2CM.c ****     I2CM_ACT_PWRMGR_REG  |= I2CM_ACT_PWR_EN;
 117              		.loc 1 140 0
 118 0006 064A     		ldr	r2, .L7
 119 0008 1378     		ldrb	r3, [r2]	@ zero_extendqisi2
 120 000a 43F00403 		orr	r3, r3, #4
 121 000e 1370     		strb	r3, [r2]
 141:.\Generated_Source\PSoC5/I2CM.c ****     I2CM_STBY_PWRMGR_REG |= I2CM_STBY_PWR_EN;
 122              		.loc 1 141 0
 123 0010 1032     		adds	r2, r2, #16
 124 0012 1378     		ldrb	r3, [r2]	@ zero_extendqisi2
 125 0014 43F00403 		orr	r3, r3, #4
 126 0018 1370     		strb	r3, [r2]
 142:.\Generated_Source\PSoC5/I2CM.c ****     CyExitCriticalSection(intState);
 127              		.loc 1 142 0
 128 001a FFF7FEFF 		bl	CyExitCriticalSection
 129              	.LVL3:
 130 001e 08BD     		pop	{r3, pc}
 131              	.L8:
 132              		.align	2
 133              	.L7:
 134 0020 A5430040 		.word	1073759141
 135              		.cfi_endproc
 136              	.LFE1:
 137              		.size	I2CM_Enable, .-I2CM_Enable
 138              		.section	.text.I2CM_Start,"ax",%progbits
 139              		.align	2
 140              		.global	I2CM_Start
 141              		.thumb
 142              		.thumb_func
 143              		.type	I2CM_Start, %function
ARM GAS  C:\Users\Andreas\AppData\Local\Temp\ccO0paZQ.s 			page 6


 144              	I2CM_Start:
 145              	.LFB2:
 143:.\Generated_Source\PSoC5/I2CM.c **** #else
 144:.\Generated_Source\PSoC5/I2CM.c ****     #if (I2CM_MODE_SLAVE_ENABLED)
 145:.\Generated_Source\PSoC5/I2CM.c ****         /* Enable bit counter */
 146:.\Generated_Source\PSoC5/I2CM.c ****         uint8 intState = CyEnterCriticalSection();
 147:.\Generated_Source\PSoC5/I2CM.c ****         I2CM_COUNTER_AUX_CTL_REG |= I2CM_CNT7_ENABLE;
 148:.\Generated_Source\PSoC5/I2CM.c ****         CyExitCriticalSection(intState);
 149:.\Generated_Source\PSoC5/I2CM.c ****     #endif /* (I2CM_MODE_SLAVE_ENABLED) */
 150:.\Generated_Source\PSoC5/I2CM.c **** 
 151:.\Generated_Source\PSoC5/I2CM.c ****     /* Enable slave or master bits */
 152:.\Generated_Source\PSoC5/I2CM.c ****     I2CM_CFG_REG |= I2CM_ENABLE_MS;
 153:.\Generated_Source\PSoC5/I2CM.c **** #endif /* (I2CM_FF_IMPLEMENTED) */
 154:.\Generated_Source\PSoC5/I2CM.c **** 
 155:.\Generated_Source\PSoC5/I2CM.c **** #if (I2CM_TIMEOUT_ENABLED)
 156:.\Generated_Source\PSoC5/I2CM.c ****     I2CM_TimeoutEnable();
 157:.\Generated_Source\PSoC5/I2CM.c **** #endif /* (I2CM_TIMEOUT_ENABLED) */
 158:.\Generated_Source\PSoC5/I2CM.c **** }
 159:.\Generated_Source\PSoC5/I2CM.c **** 
 160:.\Generated_Source\PSoC5/I2CM.c **** 
 161:.\Generated_Source\PSoC5/I2CM.c **** /*******************************************************************************
 162:.\Generated_Source\PSoC5/I2CM.c **** * Function Name: I2CM_Start
 163:.\Generated_Source\PSoC5/I2CM.c **** ********************************************************************************
 164:.\Generated_Source\PSoC5/I2CM.c **** *
 165:.\Generated_Source\PSoC5/I2CM.c **** * Summary:
 166:.\Generated_Source\PSoC5/I2CM.c **** *  Starts the I2C hardware. Enables Active mode power template bits or clock
 167:.\Generated_Source\PSoC5/I2CM.c **** *  gating as appropriate. It is required to be executed before I2C bus
 168:.\Generated_Source\PSoC5/I2CM.c **** *  operation.
 169:.\Generated_Source\PSoC5/I2CM.c **** *
 170:.\Generated_Source\PSoC5/I2CM.c **** * Parameters:
 171:.\Generated_Source\PSoC5/I2CM.c **** *  None.
 172:.\Generated_Source\PSoC5/I2CM.c **** *
 173:.\Generated_Source\PSoC5/I2CM.c **** * Return:
 174:.\Generated_Source\PSoC5/I2CM.c **** *  None.
 175:.\Generated_Source\PSoC5/I2CM.c **** *
 176:.\Generated_Source\PSoC5/I2CM.c **** * Side Effects:
 177:.\Generated_Source\PSoC5/I2CM.c **** *  This component automatically enables its interrupt.  If I2C is enabled !
 178:.\Generated_Source\PSoC5/I2CM.c **** *  without the interrupt enabled, it can lock up the I2C bus.
 179:.\Generated_Source\PSoC5/I2CM.c **** *
 180:.\Generated_Source\PSoC5/I2CM.c **** * Global variables:
 181:.\Generated_Source\PSoC5/I2CM.c **** *  I2CM_initVar - This variable is used to check the initial
 182:.\Generated_Source\PSoC5/I2CM.c **** *                             configuration, modified on the first
 183:.\Generated_Source\PSoC5/I2CM.c **** *                             function call.
 184:.\Generated_Source\PSoC5/I2CM.c **** *
 185:.\Generated_Source\PSoC5/I2CM.c **** * Reentrant:
 186:.\Generated_Source\PSoC5/I2CM.c **** *  No.
 187:.\Generated_Source\PSoC5/I2CM.c **** *
 188:.\Generated_Source\PSoC5/I2CM.c **** *******************************************************************************/
 189:.\Generated_Source\PSoC5/I2CM.c **** void I2CM_Start(void) 
 190:.\Generated_Source\PSoC5/I2CM.c **** {
 146              		.loc 1 190 0
 147              		.cfi_startproc
 148              		@ args = 0, pretend = 0, frame = 0
 149              		@ frame_needed = 0, uses_anonymous_args = 0
 150 0000 08B5     		push	{r3, lr}
 151              		.cfi_def_cfa_offset 8
 152              		.cfi_offset 3, -8
ARM GAS  C:\Users\Andreas\AppData\Local\Temp\ccO0paZQ.s 			page 7


 153              		.cfi_offset 14, -4
 191:.\Generated_Source\PSoC5/I2CM.c ****     if (0u == I2CM_initVar)
 154              		.loc 1 191 0
 155 0002 074B     		ldr	r3, .L12
 156 0004 1B78     		ldrb	r3, [r3]	@ zero_extendqisi2
 157 0006 23B9     		cbnz	r3, .L10
 192:.\Generated_Source\PSoC5/I2CM.c ****     {
 193:.\Generated_Source\PSoC5/I2CM.c ****         I2CM_Init();
 158              		.loc 1 193 0
 159 0008 FFF7FEFF 		bl	I2CM_Init
 160              	.LVL4:
 194:.\Generated_Source\PSoC5/I2CM.c ****         I2CM_initVar = 1u; /* Component initialized */
 161              		.loc 1 194 0
 162 000c 0122     		movs	r2, #1
 163 000e 044B     		ldr	r3, .L12
 164 0010 1A70     		strb	r2, [r3]
 165              	.L10:
 195:.\Generated_Source\PSoC5/I2CM.c ****     }
 196:.\Generated_Source\PSoC5/I2CM.c **** 
 197:.\Generated_Source\PSoC5/I2CM.c ****     I2CM_Enable();
 166              		.loc 1 197 0
 167 0012 FFF7FEFF 		bl	I2CM_Enable
 168              	.LVL5:
 198:.\Generated_Source\PSoC5/I2CM.c ****     I2CM_EnableInt();
 169              		.loc 1 198 0
 170 0016 4FF40042 		mov	r2, #32768
 171 001a 024B     		ldr	r3, .L12+4
 172 001c 1A60     		str	r2, [r3]
 173 001e 08BD     		pop	{r3, pc}
 174              	.L13:
 175              		.align	2
 176              	.L12:
 177 0020 00000000 		.word	.LANCHOR0
 178 0024 00E100E0 		.word	-536813312
 179              		.cfi_endproc
 180              	.LFE2:
 181              		.size	I2CM_Start, .-I2CM_Start
 182              		.section	.text.I2CM_Stop,"ax",%progbits
 183              		.align	2
 184              		.global	I2CM_Stop
 185              		.thumb
 186              		.thumb_func
 187              		.type	I2CM_Stop, %function
 188              	I2CM_Stop:
 189              	.LFB3:
 199:.\Generated_Source\PSoC5/I2CM.c **** }
 200:.\Generated_Source\PSoC5/I2CM.c **** 
 201:.\Generated_Source\PSoC5/I2CM.c **** 
 202:.\Generated_Source\PSoC5/I2CM.c **** /*******************************************************************************
 203:.\Generated_Source\PSoC5/I2CM.c **** * Function Name: I2CM_Stop
 204:.\Generated_Source\PSoC5/I2CM.c **** ********************************************************************************
 205:.\Generated_Source\PSoC5/I2CM.c **** *
 206:.\Generated_Source\PSoC5/I2CM.c **** * Summary:
 207:.\Generated_Source\PSoC5/I2CM.c **** *  Disables I2C hardware and disables I2C interrupt. Disables Active mode power
 208:.\Generated_Source\PSoC5/I2CM.c **** *  template bits or clock gating as appropriate.
 209:.\Generated_Source\PSoC5/I2CM.c **** *
 210:.\Generated_Source\PSoC5/I2CM.c **** * Parameters:
ARM GAS  C:\Users\Andreas\AppData\Local\Temp\ccO0paZQ.s 			page 8


 211:.\Generated_Source\PSoC5/I2CM.c **** *  None.
 212:.\Generated_Source\PSoC5/I2CM.c **** *
 213:.\Generated_Source\PSoC5/I2CM.c **** * Return:
 214:.\Generated_Source\PSoC5/I2CM.c **** *  None.
 215:.\Generated_Source\PSoC5/I2CM.c **** *
 216:.\Generated_Source\PSoC5/I2CM.c **** *******************************************************************************/
 217:.\Generated_Source\PSoC5/I2CM.c **** void I2CM_Stop(void) 
 218:.\Generated_Source\PSoC5/I2CM.c **** {
 190              		.loc 1 218 0
 191              		.cfi_startproc
 192              		@ args = 0, pretend = 0, frame = 0
 193              		@ frame_needed = 0, uses_anonymous_args = 0
 194 0000 2DE9F843 		push	{r3, r4, r5, r6, r7, r8, r9, lr}
 195              		.cfi_def_cfa_offset 32
 196              		.cfi_offset 3, -32
 197              		.cfi_offset 4, -28
 198              		.cfi_offset 5, -24
 199              		.cfi_offset 6, -20
 200              		.cfi_offset 7, -16
 201              		.cfi_offset 8, -12
 202              		.cfi_offset 9, -8
 203              		.cfi_offset 14, -4
 219:.\Generated_Source\PSoC5/I2CM.c ****     I2CM_DisableInt();
 204              		.loc 1 219 0
 205 0004 4FF40049 		mov	r9, #32768
 206 0008 214B     		ldr	r3, .L16
 207 000a C3F80090 		str	r9, [r3]
 208              	.LBB2:
 220:.\Generated_Source\PSoC5/I2CM.c **** 
 221:.\Generated_Source\PSoC5/I2CM.c **** #if (I2CM_TIMEOUT_ENABLED)
 222:.\Generated_Source\PSoC5/I2CM.c ****     I2CM_TimeoutStop();
 223:.\Generated_Source\PSoC5/I2CM.c **** #endif  /* End (I2CM_TIMEOUT_ENABLED) */
 224:.\Generated_Source\PSoC5/I2CM.c **** 
 225:.\Generated_Source\PSoC5/I2CM.c **** #if (I2CM_FF_IMPLEMENTED)
 226:.\Generated_Source\PSoC5/I2CM.c ****     {
 227:.\Generated_Source\PSoC5/I2CM.c ****         uint8 intState;
 228:.\Generated_Source\PSoC5/I2CM.c ****         uint16 blockResetCycles;
 229:.\Generated_Source\PSoC5/I2CM.c **** 
 230:.\Generated_Source\PSoC5/I2CM.c ****         /* Store registers effected by block disable */
 231:.\Generated_Source\PSoC5/I2CM.c ****         I2CM_backup.addr    = I2CM_ADDR_REG;
 209              		.loc 1 231 0
 210 000e DFF8A080 		ldr	r8, .L16+32
 211 0012 98F80030 		ldrb	r3, [r8]	@ zero_extendqisi2
 212 0016 1F4C     		ldr	r4, .L16+4
 213 0018 E370     		strb	r3, [r4, #3]
 232:.\Generated_Source\PSoC5/I2CM.c ****         I2CM_backup.clkDiv1 = I2CM_CLKDIV1_REG;
 214              		.loc 1 232 0
 215 001a 1F4F     		ldr	r7, .L16+8
 216 001c 3B78     		ldrb	r3, [r7]	@ zero_extendqisi2
 217 001e 2371     		strb	r3, [r4, #4]
 233:.\Generated_Source\PSoC5/I2CM.c ****         I2CM_backup.clkDiv2 = I2CM_CLKDIV2_REG;
 218              		.loc 1 233 0
 219 0020 1E4E     		ldr	r6, .L16+12
 220 0022 3378     		ldrb	r3, [r6]	@ zero_extendqisi2
 221 0024 6371     		strb	r3, [r4, #5]
 234:.\Generated_Source\PSoC5/I2CM.c **** 
 235:.\Generated_Source\PSoC5/I2CM.c ****         /* Calculate number of cycles to reset block */
ARM GAS  C:\Users\Andreas\AppData\Local\Temp\ccO0paZQ.s 			page 9


 236:.\Generated_Source\PSoC5/I2CM.c ****         blockResetCycles = ((uint16) ((uint16) I2CM_CLKDIV2_REG << 8u) | I2CM_CLKDIV1_REG) + 1u;
 222              		.loc 1 236 0
 223 0026 3078     		ldrb	r0, [r6]	@ zero_extendqisi2
 224 0028 3B78     		ldrb	r3, [r7]	@ zero_extendqisi2
 225 002a 43EA0020 		orr	r0, r3, r0, lsl #8
 226 002e 0130     		adds	r0, r0, #1
 227              	.LVL6:
 237:.\Generated_Source\PSoC5/I2CM.c **** 
 238:.\Generated_Source\PSoC5/I2CM.c ****         /* Disable block */
 239:.\Generated_Source\PSoC5/I2CM.c ****         I2CM_CFG_REG &= (uint8) ~I2CM_CFG_EN_SLAVE;
 228              		.loc 1 239 0
 229 0030 1B4D     		ldr	r5, .L16+16
 230 0032 2B78     		ldrb	r3, [r5]	@ zero_extendqisi2
 231 0034 03F0FE03 		and	r3, r3, #254
 232 0038 2B70     		strb	r3, [r5]
 240:.\Generated_Source\PSoC5/I2CM.c ****         /* Wait for block reset before disable power */
 241:.\Generated_Source\PSoC5/I2CM.c ****         CyDelayCycles((uint32) blockResetCycles);
 233              		.loc 1 241 0
 234 003a 80B2     		uxth	r0, r0
 235 003c FFF7FEFF 		bl	CyDelayCycles
 236              	.LVL7:
 242:.\Generated_Source\PSoC5/I2CM.c **** 
 243:.\Generated_Source\PSoC5/I2CM.c ****         /* Disable power to block */
 244:.\Generated_Source\PSoC5/I2CM.c ****         intState = CyEnterCriticalSection();
 237              		.loc 1 244 0
 238 0040 FFF7FEFF 		bl	CyEnterCriticalSection
 239              	.LVL8:
 245:.\Generated_Source\PSoC5/I2CM.c ****         I2CM_ACT_PWRMGR_REG  &= (uint8) ~I2CM_ACT_PWR_EN;
 240              		.loc 1 245 0
 241 0044 174A     		ldr	r2, .L16+20
 242 0046 1378     		ldrb	r3, [r2]	@ zero_extendqisi2
 243 0048 03F0FB03 		and	r3, r3, #251
 244 004c 1370     		strb	r3, [r2]
 246:.\Generated_Source\PSoC5/I2CM.c ****         I2CM_STBY_PWRMGR_REG &= (uint8) ~I2CM_STBY_PWR_EN;
 245              		.loc 1 246 0
 246 004e 1032     		adds	r2, r2, #16
 247 0050 1378     		ldrb	r3, [r2]	@ zero_extendqisi2
 248 0052 03F0FB03 		and	r3, r3, #251
 249 0056 1370     		strb	r3, [r2]
 247:.\Generated_Source\PSoC5/I2CM.c ****         CyExitCriticalSection(intState);
 250              		.loc 1 247 0
 251 0058 FFF7FEFF 		bl	CyExitCriticalSection
 252              	.LVL9:
 248:.\Generated_Source\PSoC5/I2CM.c **** 
 249:.\Generated_Source\PSoC5/I2CM.c ****         /* Enable block */
 250:.\Generated_Source\PSoC5/I2CM.c ****         I2CM_CFG_REG |= (uint8) I2CM_ENABLE_MS;
 253              		.loc 1 250 0
 254 005c 2B78     		ldrb	r3, [r5]	@ zero_extendqisi2
 255 005e 43F00203 		orr	r3, r3, #2
 256 0062 2B70     		strb	r3, [r5]
 251:.\Generated_Source\PSoC5/I2CM.c **** 
 252:.\Generated_Source\PSoC5/I2CM.c ****         /* Restore registers effected by block disable. Ticket ID#198004 */
 253:.\Generated_Source\PSoC5/I2CM.c ****         I2CM_ADDR_REG    = I2CM_backup.addr;
 257              		.loc 1 253 0
 258 0064 E378     		ldrb	r3, [r4, #3]	@ zero_extendqisi2
 259 0066 88F80030 		strb	r3, [r8]
 254:.\Generated_Source\PSoC5/I2CM.c ****         I2CM_ADDR_REG    = I2CM_backup.addr;
ARM GAS  C:\Users\Andreas\AppData\Local\Temp\ccO0paZQ.s 			page 10


 260              		.loc 1 254 0
 261 006a E378     		ldrb	r3, [r4, #3]	@ zero_extendqisi2
 262 006c 88F80030 		strb	r3, [r8]
 255:.\Generated_Source\PSoC5/I2CM.c ****         I2CM_CLKDIV1_REG = I2CM_backup.clkDiv1;
 263              		.loc 1 255 0
 264 0070 2379     		ldrb	r3, [r4, #4]	@ zero_extendqisi2
 265 0072 3B70     		strb	r3, [r7]
 256:.\Generated_Source\PSoC5/I2CM.c ****         I2CM_CLKDIV2_REG = I2CM_backup.clkDiv2;
 266              		.loc 1 256 0
 267 0074 6379     		ldrb	r3, [r4, #5]	@ zero_extendqisi2
 268 0076 3370     		strb	r3, [r6]
 269              	.LBE2:
 257:.\Generated_Source\PSoC5/I2CM.c ****     }
 258:.\Generated_Source\PSoC5/I2CM.c **** #else
 259:.\Generated_Source\PSoC5/I2CM.c **** 
 260:.\Generated_Source\PSoC5/I2CM.c ****     /* Disable slave or master bits */
 261:.\Generated_Source\PSoC5/I2CM.c ****     I2CM_CFG_REG &= (uint8) ~I2CM_ENABLE_MS;
 262:.\Generated_Source\PSoC5/I2CM.c **** 
 263:.\Generated_Source\PSoC5/I2CM.c **** #if (I2CM_MODE_SLAVE_ENABLED)
 264:.\Generated_Source\PSoC5/I2CM.c ****     {
 265:.\Generated_Source\PSoC5/I2CM.c ****         /* Disable bit counter */
 266:.\Generated_Source\PSoC5/I2CM.c ****         uint8 intState = CyEnterCriticalSection();
 267:.\Generated_Source\PSoC5/I2CM.c ****         I2CM_COUNTER_AUX_CTL_REG &= (uint8) ~I2CM_CNT7_ENABLE;
 268:.\Generated_Source\PSoC5/I2CM.c ****         CyExitCriticalSection(intState);
 269:.\Generated_Source\PSoC5/I2CM.c ****     }
 270:.\Generated_Source\PSoC5/I2CM.c **** #endif /* (I2CM_MODE_SLAVE_ENABLED) */
 271:.\Generated_Source\PSoC5/I2CM.c **** 
 272:.\Generated_Source\PSoC5/I2CM.c ****     /* Clear interrupt source register */
 273:.\Generated_Source\PSoC5/I2CM.c ****     (void) I2CM_CSR_REG;
 274:.\Generated_Source\PSoC5/I2CM.c **** #endif /* (I2CM_FF_IMPLEMENTED) */
 275:.\Generated_Source\PSoC5/I2CM.c **** 
 276:.\Generated_Source\PSoC5/I2CM.c ****     /* Disable interrupt on stop (enabled by write transaction) */
 277:.\Generated_Source\PSoC5/I2CM.c ****     I2CM_DISABLE_INT_ON_STOP;
 270              		.loc 1 277 0
 271 0078 2B78     		ldrb	r3, [r5]	@ zero_extendqisi2
 272 007a 03F0EF03 		and	r3, r3, #239
 273 007e 2B70     		strb	r3, [r5]
 278:.\Generated_Source\PSoC5/I2CM.c ****     I2CM_ClearPendingInt();
 274              		.loc 1 278 0
 275 0080 094B     		ldr	r3, .L16+24
 276 0082 C3F80090 		str	r9, [r3]
 279:.\Generated_Source\PSoC5/I2CM.c **** 
 280:.\Generated_Source\PSoC5/I2CM.c ****     /* Reset FSM to default state */
 281:.\Generated_Source\PSoC5/I2CM.c ****     I2CM_state = I2CM_SM_IDLE;
 277              		.loc 1 281 0
 278 0086 1022     		movs	r2, #16
 279 0088 084B     		ldr	r3, .L16+28
 280 008a 1A70     		strb	r2, [r3]
 281 008c BDE8F883 		pop	{r3, r4, r5, r6, r7, r8, r9, pc}
 282              	.L17:
 283              		.align	2
 284              	.L16:
 285 0090 80E100E0 		.word	-536813184
 286 0094 00000000 		.word	I2CM_backup
 287 0098 DB490040 		.word	1073760731
 288 009c DC490040 		.word	1073760732
 289 00a0 D6490040 		.word	1073760726
ARM GAS  C:\Users\Andreas\AppData\Local\Temp\ccO0paZQ.s 			page 11


 290 00a4 A5430040 		.word	1073759141
 291 00a8 80E200E0 		.word	-536812928
 292 00ac 00000000 		.word	I2CM_state
 293 00b0 CA490040 		.word	1073760714
 294              		.cfi_endproc
 295              	.LFE3:
 296              		.size	I2CM_Stop, .-I2CM_Stop
 297              		.comm	I2CM_state,1,1
 298              		.global	I2CM_initVar
 299              		.bss
 300              		.set	.LANCHOR0,. + 0
 301              		.type	I2CM_initVar, %object
 302              		.size	I2CM_initVar, 1
 303              	I2CM_initVar:
 304 0000 00       		.space	1
 305              		.text
 306              	.Letext0:
 307              		.file 2 ".\\Generated_Source\\PSoC5\\cytypes.h"
 308              		.file 3 ".\\Generated_Source\\PSoC5\\I2CM.h"
 309              		.file 4 ".\\Generated_Source\\PSoC5\\I2CM_PVT.h"
 310              		.file 5 ".\\Generated_Source\\PSoC5\\CyLib.h"