ARM GAS  C:\Users\LUKASC~1\AppData\Local\Temp\ccn8LSRc.s 			page 1


   1              		.cpu cortex-m0
   2              		.fpu softvfp
   3              		.eabi_attribute 20, 1
   4              		.eabi_attribute 21, 1
   5              		.eabi_attribute 23, 3
   6              		.eabi_attribute 24, 1
   7              		.eabi_attribute 25, 1
   8              		.eabi_attribute 26, 1
   9              		.eabi_attribute 30, 6
  10              		.eabi_attribute 34, 0
  11              		.eabi_attribute 18, 4
  12              		.code	16
  13              		.file	"Bootloader.c"
  14              		.text
  15              	.Ltext0:
  16              		.cfi_sections	.debug_frame
  17              		.global	Bootloader_Checksum
  18              		.section	.bootloader,"a",%progbits
  19              		.type	Bootloader_Checksum, %object
  20              		.size	Bootloader_Checksum, 1
  21              	Bootloader_Checksum:
  22 0000 00       		.space	1
  23              		.global	Bootloader_ChecksumAccess
  24              		.data
  25              		.align	2
  26              		.type	Bootloader_ChecksumAccess, %object
  27              		.size	Bootloader_ChecksumAccess, 4
  28              	Bootloader_ChecksumAccess:
  29 0000 00000000 		.word	Bootloader_Checksum
  30              		.global	Bootloader_SizeBytes
  31              		.section	.bootloader
  32 0001 000000   		.align	2
  33              		.type	Bootloader_SizeBytes, %object
  34              		.size	Bootloader_SizeBytes, 4
  35              	Bootloader_SizeBytes:
  36 0004 FFFFFFFF 		.word	-1
  37              		.global	Bootloader_SizeBytesAccess
  38              		.data
  39              		.align	2
  40              		.type	Bootloader_SizeBytesAccess, %object
  41              		.size	Bootloader_SizeBytesAccess, 4
  42              	Bootloader_SizeBytesAccess:
  43 0004 00000000 		.word	Bootloader_SizeBytes
  44              		.bss
  45              		.align	2
  46              	Bootloader_callback:
  47 0000 00000000 		.space	4
  48              		.section	.text.Bootloader_CalcPacketChecksum,"ax",%progbits
  49              		.align	2
  50              		.code	16
  51              		.thumb_func
  52              		.type	Bootloader_CalcPacketChecksum, %function
  53              	Bootloader_CalcPacketChecksum:
  54              	.LFB34:
  55              		.file 1 ".\\Generated_Source\\PSoC4\\Bootloader.c"
   1:.\Generated_Source\PSoC4/Bootloader.c **** /****************************************************************************//**
   2:.\Generated_Source\PSoC4/Bootloader.c **** * \file Bootloader.c
ARM GAS  C:\Users\LUKASC~1\AppData\Local\Temp\ccn8LSRc.s 			page 2


   3:.\Generated_Source\PSoC4/Bootloader.c **** * \version 1.50
   4:.\Generated_Source\PSoC4/Bootloader.c **** *
   5:.\Generated_Source\PSoC4/Bootloader.c **** * \brief
   6:.\Generated_Source\PSoC4/Bootloader.c **** *   Provides an API for the Bootloader component. The API includes functions
   7:.\Generated_Source\PSoC4/Bootloader.c **** *   for starting bootloading operations, validating the application and
   8:.\Generated_Source\PSoC4/Bootloader.c **** *   jumping to the application.
   9:.\Generated_Source\PSoC4/Bootloader.c **** *
  10:.\Generated_Source\PSoC4/Bootloader.c **** ********************************************************************************
  11:.\Generated_Source\PSoC4/Bootloader.c **** * \copyright
  12:.\Generated_Source\PSoC4/Bootloader.c **** * Copyright 2008-2015, Cypress Semiconductor Corporation.  All rights reserved.
  13:.\Generated_Source\PSoC4/Bootloader.c **** * You may use this file only in accordance with the license, terms, conditions,
  14:.\Generated_Source\PSoC4/Bootloader.c **** * disclaimers, and limitations in the end user license agreement accompanying
  15:.\Generated_Source\PSoC4/Bootloader.c **** * the software package with which this file was provided.
  16:.\Generated_Source\PSoC4/Bootloader.c **** *******************************************************************************/
  17:.\Generated_Source\PSoC4/Bootloader.c **** 
  18:.\Generated_Source\PSoC4/Bootloader.c **** #include "Bootloader_PVT.h"
  19:.\Generated_Source\PSoC4/Bootloader.c **** 
  20:.\Generated_Source\PSoC4/Bootloader.c **** #include "cyapicallbacks.h"
  21:.\Generated_Source\PSoC4/Bootloader.c **** 
  22:.\Generated_Source\PSoC4/Bootloader.c **** #include "project.h"
  23:.\Generated_Source\PSoC4/Bootloader.c **** #include <string.h>
  24:.\Generated_Source\PSoC4/Bootloader.c **** 
  25:.\Generated_Source\PSoC4/Bootloader.c **** #if (CY_BOOT_VERSION < CY_BOOT_5_0)
  26:.\Generated_Source\PSoC4/Bootloader.c **** #error Component Bootloader_v1_50 requires cy_boot v5.00 or later
  27:.\Generated_Source\PSoC4/Bootloader.c **** #endif /* (CY_BOOT_VERSION >= CY_BOOT_5_0) */
  28:.\Generated_Source\PSoC4/Bootloader.c **** 
  29:.\Generated_Source\PSoC4/Bootloader.c **** /*******************************************************************************
  30:.\Generated_Source\PSoC4/Bootloader.c **** * The Checksum and SizeBytes are forcefully set in code. We then post process
  31:.\Generated_Source\PSoC4/Bootloader.c **** * the hex file from the linker and inject their values. When the hex file
  32:.\Generated_Source\PSoC4/Bootloader.c **** * is loaded into the device, these two variables should have valid values.
  33:.\Generated_Source\PSoC4/Bootloader.c **** * Because the compiler can do optimization to remove the constant
  34:.\Generated_Source\PSoC4/Bootloader.c **** * accesses, these should not be accessed directly. Instead, the variables
  35:.\Generated_Source\PSoC4/Bootloader.c **** * CyBtldr_ChecksumAccess & CyBtldr_SizeBytesAccess should be used to get the
  36:.\Generated_Source\PSoC4/Bootloader.c **** * proper values at the runtime.
  37:.\Generated_Source\PSoC4/Bootloader.c **** *******************************************************************************/
  38:.\Generated_Source\PSoC4/Bootloader.c **** #if (CYDEV_PROJ_TYPE != CYDEV_PROJ_TYPE_LOADABLEANDBOOTLOADER)
  39:.\Generated_Source\PSoC4/Bootloader.c **** #if defined(__ARMCC_VERSION) || defined (__GNUC__)
  40:.\Generated_Source\PSoC4/Bootloader.c ****     __attribute__((section (".bootloader"), used))
  41:.\Generated_Source\PSoC4/Bootloader.c **** #elif defined (__ICCARM__)
  42:.\Generated_Source\PSoC4/Bootloader.c ****     #pragma location=".bootloader"
  43:.\Generated_Source\PSoC4/Bootloader.c **** #endif  /* defined(__ARMCC_VERSION) || defined (__GNUC__) */
  44:.\Generated_Source\PSoC4/Bootloader.c **** 
  45:.\Generated_Source\PSoC4/Bootloader.c **** #if defined(__ARMCC_VERSION) || defined (__GNUC__) || defined (__C51__)
  46:.\Generated_Source\PSoC4/Bootloader.c ****            const uint8  CYCODE Bootloader_Checksum = 0u;
  47:.\Generated_Source\PSoC4/Bootloader.c **** #elif defined (__ICCARM__)
  48:.\Generated_Source\PSoC4/Bootloader.c ****     __root const uint8  CYCODE Bootloader_Checksum = 0u;
  49:.\Generated_Source\PSoC4/Bootloader.c **** #endif  /* defined(__ARMCC_VERSION) || defined (__GNUC__) || defined (__C51__) */
  50:.\Generated_Source\PSoC4/Bootloader.c **** const uint8  CYCODE *Bootloader_ChecksumAccess  = (const uint8  CYCODE *)(&Bootloader_Checksum);
  51:.\Generated_Source\PSoC4/Bootloader.c **** 
  52:.\Generated_Source\PSoC4/Bootloader.c **** #if defined(__ARMCC_VERSION) || defined (__GNUC__)
  53:.\Generated_Source\PSoC4/Bootloader.c ****     __attribute__((section (".bootloader"), used))
  54:.\Generated_Source\PSoC4/Bootloader.c ****     const uint32 CYCODE Bootloader_SizeBytes = 0xFFFFFFFFu;
  55:.\Generated_Source\PSoC4/Bootloader.c **** #elif defined (__ICCARM__)
  56:.\Generated_Source\PSoC4/Bootloader.c ****     #pragma location=".bootloader"
  57:.\Generated_Source\PSoC4/Bootloader.c ****     __root const uint32 CYCODE Bootloader_SizeBytes = 0xFFFFFFFFu;
  58:.\Generated_Source\PSoC4/Bootloader.c **** #elif defined (__C51__)
  59:.\Generated_Source\PSoC4/Bootloader.c ****     const uint32 CYCODE Bootloader_SizeBytes = 0xFFFFFFFFu;
ARM GAS  C:\Users\LUKASC~1\AppData\Local\Temp\ccn8LSRc.s 			page 3


  60:.\Generated_Source\PSoC4/Bootloader.c **** #endif  /* defined(__ARMCC_VERSION) || defined (__GNUC__) */
  61:.\Generated_Source\PSoC4/Bootloader.c **** 
  62:.\Generated_Source\PSoC4/Bootloader.c **** const uint32 CYCODE *Bootloader_SizeBytesAccess = (const uint32 CYCODE *)(&Bootloader_SizeBytes);
  63:.\Generated_Source\PSoC4/Bootloader.c **** #endif /*(CYDEV_PROJ_TYPE != CYDEV_PROJ_TYPE_LOADABLEANDBOOTLOADER)*/
  64:.\Generated_Source\PSoC4/Bootloader.c **** 
  65:.\Generated_Source\PSoC4/Bootloader.c **** /**
  66:.\Generated_Source\PSoC4/Bootloader.c ****  \defgroup variables_group Variables
  67:.\Generated_Source\PSoC4/Bootloader.c ****  @{
  68:.\Generated_Source\PSoC4/Bootloader.c **** */
  69:.\Generated_Source\PSoC4/Bootloader.c **** #if (CYDEV_PROJ_TYPE == CYDEV_PROJ_TYPE_LOADABLEANDBOOTLOADER) 
  70:.\Generated_Source\PSoC4/Bootloader.c **** /**
  71:.\Generated_Source\PSoC4/Bootloader.c ****  *  This variable is intended to indicate that in-application 
  72:.\Generated_Source\PSoC4/Bootloader.c ****  *  bootloading initialization is done. The initialization itself is performed in the
  73:.\Generated_Source\PSoC4/Bootloader.c ****  *  Bootloader_Initialize() function. Once the initialization is done,
  74:.\Generated_Source\PSoC4/Bootloader.c ****  *  the variable is set and this prevents the functionality from reinitialization.
  75:.\Generated_Source\PSoC4/Bootloader.c ****  */
  76:.\Generated_Source\PSoC4/Bootloader.c **** uint8 Bootloader_initVar = Bootloader_BOOTLOADING_NOT_INITIALIZED;
  77:.\Generated_Source\PSoC4/Bootloader.c **** 
  78:.\Generated_Source\PSoC4/Bootloader.c **** /**
  79:.\Generated_Source\PSoC4/Bootloader.c ****  *  This variable is intended to keep the current application number. It applies
  80:.\Generated_Source\PSoC4/Bootloader.c ****  *  only to in-application bootloading.
  81:.\Generated_Source\PSoC4/Bootloader.c ****  */
  82:.\Generated_Source\PSoC4/Bootloader.c **** uint8 Bootloader_runningApp = Bootloader_RUNNING_APPLICATION_UNKNOWN;
  83:.\Generated_Source\PSoC4/Bootloader.c **** 
  84:.\Generated_Source\PSoC4/Bootloader.c **** /**
  85:.\Generated_Source\PSoC4/Bootloader.c ****  *  This variable is intended to indicate that 'Enter bootloader' command has
  86:.\Generated_Source\PSoC4/Bootloader.c ****  *  been received. It applies only to in-application bootloading.
  87:.\Generated_Source\PSoC4/Bootloader.c ****  */
  88:.\Generated_Source\PSoC4/Bootloader.c **** uint8 Bootloader_isBootloading = Bootloader_BOOTLOADING_COMPLETED;
  89:.\Generated_Source\PSoC4/Bootloader.c **** #endif /*CYDEV_PROJ_TYPE == CYDEV_PROJ_TYPE_LOADABLEANDBOOTLOADER*/
  90:.\Generated_Source\PSoC4/Bootloader.c **** 
  91:.\Generated_Source\PSoC4/Bootloader.c **** #if ((0u != Bootloader_DUAL_APP_BOOTLOADER)  || (CYDEV_PROJ_TYPE == CYDEV_PROJ_TYPE_LOADABLEANDBOOT
  92:.\Generated_Source\PSoC4/Bootloader.c **** /**
  93:.\Generated_Source\PSoC4/Bootloader.c ****  *  This variable is intended to keep the active application number. It applies
  94:.\Generated_Source\PSoC4/Bootloader.c ****  *  to Classic Dual-app Bootloader and in-application bootloading.
  95:.\Generated_Source\PSoC4/Bootloader.c ****  */
  96:.\Generated_Source\PSoC4/Bootloader.c **** volatile uint8 Bootloader_activeApp = Bootloader_MD_BTLDB_ACTIVE_NONE;
  97:.\Generated_Source\PSoC4/Bootloader.c **** #else /*SINGLE-APP BOOTLOADER*/
  98:.\Generated_Source\PSoC4/Bootloader.c ****     #define Bootloader_activeApp      (Bootloader_MD_BTLDB_ACTIVE_0)
  99:.\Generated_Source\PSoC4/Bootloader.c **** #endif  /* (0u != Bootloader_DUAL_APP_BOOTLOADER) */
 100:.\Generated_Source\PSoC4/Bootloader.c **** 
 101:.\Generated_Source\PSoC4/Bootloader.c **** 
 102:.\Generated_Source\PSoC4/Bootloader.c **** #if (0u != Bootloader_SECURITY_KEY_AVAIL) 
 103:.\Generated_Source\PSoC4/Bootloader.c **** /**
 104:.\Generated_Source\PSoC4/Bootloader.c ****  *  This variable holds the security key for additional safety during communication.
 105:.\Generated_Source\PSoC4/Bootloader.c ****  */
 106:.\Generated_Source\PSoC4/Bootloader.c **** static const uint8 CYCODE Bootloader_securityKey[Bootloader_SECURITY_KEY_LENGTH] = {0x11u, 0x22u, 0
 107:.\Generated_Source\PSoC4/Bootloader.c **** #endif /*(0u != Bootloader_SECURITY_KEY_AVAIL)*/
 108:.\Generated_Source\PSoC4/Bootloader.c **** 
 109:.\Generated_Source\PSoC4/Bootloader.c **** #if ((CYDEV_PROJ_TYPE != CYDEV_PROJ_TYPE_LAUNCHER) && (!CY_PSOC3))
 110:.\Generated_Source\PSoC4/Bootloader.c **** /**
 111:.\Generated_Source\PSoC4/Bootloader.c ****  *  This variable holds the pointer on the user's callback-function that implements the custom 
 112:.\Generated_Source\PSoC4/Bootloader.c ****  *  bootloader command processing.
 113:.\Generated_Source\PSoC4/Bootloader.c ****  */
 114:.\Generated_Source\PSoC4/Bootloader.c **** static Bootloader_callback_type Bootloader_callback = NULL;
 115:.\Generated_Source\PSoC4/Bootloader.c **** #endif /*(CYDEV_PROJ_TYPE != CYDEV_PROJ_TYPE_LAUNCHER) && (!CY_PSOC3)*/
 116:.\Generated_Source\PSoC4/Bootloader.c **** /** @}*/
ARM GAS  C:\Users\LUKASC~1\AppData\Local\Temp\ccn8LSRc.s 			page 4


 117:.\Generated_Source\PSoC4/Bootloader.c ****  
 118:.\Generated_Source\PSoC4/Bootloader.c **** /***************************************
 119:.\Generated_Source\PSoC4/Bootloader.c **** *     Function Prototypes
 120:.\Generated_Source\PSoC4/Bootloader.c **** ***************************************/
 121:.\Generated_Source\PSoC4/Bootloader.c **** #if (CYDEV_PROJ_TYPE != CYDEV_PROJ_TYPE_LOADABLEANDBOOTLOADER)
 122:.\Generated_Source\PSoC4/Bootloader.c ****     static void  Bootloader_LaunchApplication(void) CYSMALL \
 123:.\Generated_Source\PSoC4/Bootloader.c ****                     ; 
 124:.\Generated_Source\PSoC4/Bootloader.c **** #if(!CY_PSOC3)
 125:.\Generated_Source\PSoC4/Bootloader.c ****     /* Implementation for PSoC 3 resides in Bootloader_psoc3.a51 file.  */
 126:.\Generated_Source\PSoC4/Bootloader.c ****     static void     Bootloader_LaunchBootloadable(uint32 appAddr);
 127:.\Generated_Source\PSoC4/Bootloader.c **** #endif  /* (!CY_PSOC3) */
 128:.\Generated_Source\PSoC4/Bootloader.c **** #endif /* CYDEV_PROJ_TYPE != CYDEV_PROJ_TYPE_LOADABLEANDBOOTLOADER */ 
 129:.\Generated_Source\PSoC4/Bootloader.c **** 
 130:.\Generated_Source\PSoC4/Bootloader.c **** #if (CYDEV_PROJ_TYPE != CYDEV_PROJ_TYPE_LAUNCHER)
 131:.\Generated_Source\PSoC4/Bootloader.c ****     static cystatus Bootloader_WritePacket(uint8 status, uint8 buffer[], uint16 size) CYSMALL \
 132:.\Generated_Source\PSoC4/Bootloader.c ****                                     ;
 133:.\Generated_Source\PSoC4/Bootloader.c **** 
 134:.\Generated_Source\PSoC4/Bootloader.c ****     static uint16   Bootloader_CalcPacketChecksum(const uint8 buffer[], uint16 size) CYSMALL \
 135:.\Generated_Source\PSoC4/Bootloader.c ****                                     ;
 136:.\Generated_Source\PSoC4/Bootloader.c ****                                     
 137:.\Generated_Source\PSoC4/Bootloader.c ****     #if (0u != Bootloader_CMD_VERIFY_FLS_ROW_AVAIL)
 138:.\Generated_Source\PSoC4/Bootloader.c ****     static uint8 Bootloader_VerifyRow(uint32 flashStart, const uint8* ramStart, uint16 size) \
 139:.\Generated_Source\PSoC4/Bootloader.c ****                 CYSMALL ;                                
 140:.\Generated_Source\PSoC4/Bootloader.c ****     #endif /*(0u != Bootloader_CMD_VERIFY_FLS_ROW_AVAIL)*/            
 141:.\Generated_Source\PSoC4/Bootloader.c **** 
 142:.\Generated_Source\PSoC4/Bootloader.c **** #if (CYDEV_PROJ_TYPE != CYDEV_PROJ_TYPE_LOADABLEANDBOOTLOADER)                                    
 143:.\Generated_Source\PSoC4/Bootloader.c ****     static void Bootloader_HostLink(uint8 timeOut) CYLARGE ;
 144:.\Generated_Source\PSoC4/Bootloader.c **** #endif /* (CYDEV_PROJ_TYPE != CYDEV_PROJ_TYPE_LOADABLEANDBOOTLOADER) */                            
 145:.\Generated_Source\PSoC4/Bootloader.c **** #endif /*(CYDEV_PROJ_TYPE != CYDEV_PROJ_TYPE_LAUNCHER)*/
 146:.\Generated_Source\PSoC4/Bootloader.c ****                                     
 147:.\Generated_Source\PSoC4/Bootloader.c **** #if (((0u != Bootloader_DUAL_APP_BOOTLOADER) && (CYDEV_PROJ_TYPE != CYDEV_PROJ_TYPE_LAUNCHER)) \
 148:.\Generated_Source\PSoC4/Bootloader.c ****                                           || (CYDEV_PROJ_TYPE == CYDEV_PROJ_TYPE_LOADABLEANDBOOTLOA
 149:.\Generated_Source\PSoC4/Bootloader.c ****     static uint8 Bootloader_CheckImage(uint8 appNumber, uint8 arrayNumber, uint16 row, uint16 rowNu
 150:.\Generated_Source\PSoC4/Bootloader.c ****                                     ;                                    
 151:.\Generated_Source\PSoC4/Bootloader.c **** #endif /*(((0u != Bootloader_DUAL_APP_BOOTLOADER) && (CYDEV_PROJ_TYPE != CYDEV_PROJ_TYPE_LAUNCHER))
 152:.\Generated_Source\PSoC4/Bootloader.c ****                                           || (CYDEV_PROJ_TYPE == CYDEV_PROJ_TYPE_LOADABLEANDBOOTLOA
 153:.\Generated_Source\PSoC4/Bootloader.c **** 
 154:.\Generated_Source\PSoC4/Bootloader.c **** #if ((CYDEV_PROJ_TYPE == CYDEV_PROJ_TYPE_LOADABLEANDBOOTLOADER) || (0u != Bootloader_DUAL_APP_BOOTL
 155:.\Generated_Source\PSoC4/Bootloader.c ****     static void Bootloader_SetActiveAppInMetadata(uint8 activeApp) CYSMALL \
 156:.\Generated_Source\PSoC4/Bootloader.c ****                 ;
 157:.\Generated_Source\PSoC4/Bootloader.c **** #endif /* (CYDEV_PROJ_TYPE == CYDEV_PROJ_TYPE_LOADABLEANDBOOTLOADER) || (0u != Bootloader_DUAL_APP_
 158:.\Generated_Source\PSoC4/Bootloader.c **** 
 159:.\Generated_Source\PSoC4/Bootloader.c **** #if ((CYDEV_PROJ_TYPE == CYDEV_PROJ_TYPE_LOADABLEANDBOOTLOADER) || \
 160:.\Generated_Source\PSoC4/Bootloader.c ****      (CYDEV_PROJ_TYPE == CYDEV_PROJ_TYPE_MULTIAPPBOOTLOADER) || \
 161:.\Generated_Source\PSoC4/Bootloader.c ****      (CYDEV_PROJ_TYPE == CYDEV_PROJ_TYPE_LAUNCHER))
 162:.\Generated_Source\PSoC4/Bootloader.c ****     static uint8 Bootloader_GetActiveAppFromMetadata(void) CYSMALL \
 163:.\Generated_Source\PSoC4/Bootloader.c ****                 ;                     
 164:.\Generated_Source\PSoC4/Bootloader.c **** #endif /*((CYDEV_PROJ_TYPE == CYDEV_PROJ_TYPE_LOADABLEANDBOOTLOADER) || \
 165:.\Generated_Source\PSoC4/Bootloader.c ****           (CYDEV_PROJ_TYPE == CYDEV_PROJ_TYPE_MULTIAPPBOOTLOADER) || \
 166:.\Generated_Source\PSoC4/Bootloader.c ****           (CYDEV_PROJ_TYPE == CYDEV_PROJ_TYPE_LAUNCHER)) */
 167:.\Generated_Source\PSoC4/Bootloader.c ****           
 168:.\Generated_Source\PSoC4/Bootloader.c **** #if (CYDEV_PROJ_TYPE == CYDEV_PROJ_TYPE_LAUNCHER)
 169:.\Generated_Source\PSoC4/Bootloader.c **** #if ((0u != Bootloader_COPIER_AVAIL) && (CY_PSOC4)) 
 170:.\Generated_Source\PSoC4/Bootloader.c ****     static cystatus Bootloader_CopyRow(uint16 srcRowNum, uint16 dstRowNum) \
 171:.\Generated_Source\PSoC4/Bootloader.c ****                  CYSMALL ;
 172:.\Generated_Source\PSoC4/Bootloader.c ****     static void Bootloader_Copier(void) CYSMALL ;
 173:.\Generated_Source\PSoC4/Bootloader.c **** #endif /*(0u != Bootloader_COPIER_AVAIL) && (CY_PSOC4)*/
ARM GAS  C:\Users\LUKASC~1\AppData\Local\Temp\ccn8LSRc.s 			page 5


 174:.\Generated_Source\PSoC4/Bootloader.c **** #endif /*(CYDEV_PROJ_TYPE == CYDEV_PROJ_TYPE_LAUNCHER)*/
 175:.\Generated_Source\PSoC4/Bootloader.c ****                        
 176:.\Generated_Source\PSoC4/Bootloader.c **** 
 177:.\Generated_Source\PSoC4/Bootloader.c **** /**
 178:.\Generated_Source\PSoC4/Bootloader.c ****  \defgroup functions_group Functions
 179:.\Generated_Source\PSoC4/Bootloader.c ****  @{
 180:.\Generated_Source\PSoC4/Bootloader.c **** */
 181:.\Generated_Source\PSoC4/Bootloader.c **** #if ((CYDEV_PROJ_TYPE == CYDEV_PROJ_TYPE_LOADABLEANDBOOTLOADER) || \
 182:.\Generated_Source\PSoC4/Bootloader.c ****                                   (0u != Bootloader_DUAL_APP_BOOTLOADER))                          
 183:.\Generated_Source\PSoC4/Bootloader.c **** /*******************************************************************************
 184:.\Generated_Source\PSoC4/Bootloader.c **** * Function Name: Bootloader_SetActiveAppInMetadata
 185:.\Generated_Source\PSoC4/Bootloader.c **** ****************************************************************************//**
 186:.\Generated_Source\PSoC4/Bootloader.c **** * \internal
 187:.\Generated_Source\PSoC4/Bootloader.c **** *
 188:.\Generated_Source\PSoC4/Bootloader.c **** * \brief
 189:.\Generated_Source\PSoC4/Bootloader.c **** *    This function sets the active application in metadata.
 190:.\Generated_Source\PSoC4/Bootloader.c **** *    The other application is set inactive. 
 191:.\Generated_Source\PSoC4/Bootloader.c **** *
 192:.\Generated_Source\PSoC4/Bootloader.c **** * \param activeApp
 193:.\Generated_Source\PSoC4/Bootloader.c **** *   The active application number (0 or 1). If the active application number is
 194:.\Generated_Source\PSoC4/Bootloader.c **** *   greater than 1, then nothing is done.  
 195:.\Generated_Source\PSoC4/Bootloader.c **** *
 196:.\Generated_Source\PSoC4/Bootloader.c **** * \endinternal
 197:.\Generated_Source\PSoC4/Bootloader.c **** *******************************************************************************/
 198:.\Generated_Source\PSoC4/Bootloader.c **** static void Bootloader_SetActiveAppInMetadata(uint8 activeApp) CYSMALL \
 199:.\Generated_Source\PSoC4/Bootloader.c ****                      
 200:.\Generated_Source\PSoC4/Bootloader.c **** {
 201:.\Generated_Source\PSoC4/Bootloader.c ****     if (Bootloader_MD_BTLDB_ACTIVE_NONE > activeApp)
 202:.\Generated_Source\PSoC4/Bootloader.c ****     {
 203:.\Generated_Source\PSoC4/Bootloader.c ****         uint8 CYDATA idx;    
 204:.\Generated_Source\PSoC4/Bootloader.c ****         for(idx = 0u; idx < Bootloader_MAX_NUM_OF_BTLDB; idx++)
 205:.\Generated_Source\PSoC4/Bootloader.c ****         {
 206:.\Generated_Source\PSoC4/Bootloader.c ****             (void)Bootloader_SetFlashByte((uint32) Bootloader_MD_BTLDB_ACTIVE_OFFSET(idx),
 207:.\Generated_Source\PSoC4/Bootloader.c ****                                                 (uint8)(idx == activeApp));
 208:.\Generated_Source\PSoC4/Bootloader.c ****         }
 209:.\Generated_Source\PSoC4/Bootloader.c ****     }    
 210:.\Generated_Source\PSoC4/Bootloader.c **** }
 211:.\Generated_Source\PSoC4/Bootloader.c **** #endif /* (CYDEV_PROJ_TYPE == CYDEV_PROJ_TYPE_LOADABLEANDBOOTLOADER) || 
 212:.\Generated_Source\PSoC4/Bootloader.c ****                            (0u != Bootloader_DUAL_APP_BOOTLOADER) */ 
 213:.\Generated_Source\PSoC4/Bootloader.c **** 
 214:.\Generated_Source\PSoC4/Bootloader.c **** #if ((CYDEV_PROJ_TYPE == CYDEV_PROJ_TYPE_LOADABLEANDBOOTLOADER) || \
 215:.\Generated_Source\PSoC4/Bootloader.c ****      (CYDEV_PROJ_TYPE == CYDEV_PROJ_TYPE_MULTIAPPBOOTLOADER) || \
 216:.\Generated_Source\PSoC4/Bootloader.c ****      (CYDEV_PROJ_TYPE == CYDEV_PROJ_TYPE_LAUNCHER))                   
 217:.\Generated_Source\PSoC4/Bootloader.c **** /*******************************************************************************
 218:.\Generated_Source\PSoC4/Bootloader.c **** * Function Name: Bootloader_GetActiveAppFromMetadata
 219:.\Generated_Source\PSoC4/Bootloader.c **** ****************************************************************************//**
 220:.\Generated_Source\PSoC4/Bootloader.c **** * \internal
 221:.\Generated_Source\PSoC4/Bootloader.c **** *
 222:.\Generated_Source\PSoC4/Bootloader.c **** * \brief
 223:.\Generated_Source\PSoC4/Bootloader.c **** *    This function performs reading of both metadata sections to
 224:.\Generated_Source\PSoC4/Bootloader.c **** *    identify an active application. If none application is set active, 
 225:.\Generated_Source\PSoC4/Bootloader.c **** *    then Bootloader_MD_BTLDB_ACTIVE_NONE (0x02) is returned.
 226:.\Generated_Source\PSoC4/Bootloader.c **** *
 227:.\Generated_Source\PSoC4/Bootloader.c **** * \return
 228:.\Generated_Source\PSoC4/Bootloader.c **** *   The number of active applications. In the case of error:
 229:.\Generated_Source\PSoC4/Bootloader.c **** *   -  Bootloader_MD_BTLDB_ACTIVE_NONE (0x02) - neither application is initialized;
 230:.\Generated_Source\PSoC4/Bootloader.c **** *   -  Bootloader_BOTH_ACTIVE (0x03) - both applications are set active;
ARM GAS  C:\Users\LUKASC~1\AppData\Local\Temp\ccn8LSRc.s 			page 6


 231:.\Generated_Source\PSoC4/Bootloader.c **** *
 232:.\Generated_Source\PSoC4/Bootloader.c **** * \endinternal 
 233:.\Generated_Source\PSoC4/Bootloader.c **** *******************************************************************************/
 234:.\Generated_Source\PSoC4/Bootloader.c **** static  uint8 Bootloader_GetActiveAppFromMetadata(void) CYSMALL \
 235:.\Generated_Source\PSoC4/Bootloader.c ****        
 236:.\Generated_Source\PSoC4/Bootloader.c **** {
 237:.\Generated_Source\PSoC4/Bootloader.c ****     uint8 CYDATA result;
 238:.\Generated_Source\PSoC4/Bootloader.c ****     uint8 CYDATA app0 = (uint8)Bootloader_GetMetadata(Bootloader_GET_BTLDB_ACTIVE, 
 239:.\Generated_Source\PSoC4/Bootloader.c ****                                                      Bootloader_MD_BTLDB_ACTIVE_0);
 240:.\Generated_Source\PSoC4/Bootloader.c ****     uint8 CYDATA app1 = (uint8)Bootloader_GetMetadata(Bootloader_GET_BTLDB_ACTIVE, 
 241:.\Generated_Source\PSoC4/Bootloader.c ****                                                      Bootloader_MD_BTLDB_ACTIVE_1);        
 242:.\Generated_Source\PSoC4/Bootloader.c **** 
 243:.\Generated_Source\PSoC4/Bootloader.c ****     if (0u != app0)                                                     
 244:.\Generated_Source\PSoC4/Bootloader.c ****     {
 245:.\Generated_Source\PSoC4/Bootloader.c ****         if (0u == app1)
 246:.\Generated_Source\PSoC4/Bootloader.c ****         {
 247:.\Generated_Source\PSoC4/Bootloader.c ****             /* app0 is active */
 248:.\Generated_Source\PSoC4/Bootloader.c ****             result = Bootloader_MD_BTLDB_ACTIVE_0;
 249:.\Generated_Source\PSoC4/Bootloader.c ****         }
 250:.\Generated_Source\PSoC4/Bootloader.c ****         else 
 251:.\Generated_Source\PSoC4/Bootloader.c ****         {
 252:.\Generated_Source\PSoC4/Bootloader.c ****             /* Both are active */
 253:.\Generated_Source\PSoC4/Bootloader.c ****             result = Bootloader_BOTH_ACTIVE;
 254:.\Generated_Source\PSoC4/Bootloader.c ****         }
 255:.\Generated_Source\PSoC4/Bootloader.c ****     }
 256:.\Generated_Source\PSoC4/Bootloader.c ****     else /* (0u == app0) */
 257:.\Generated_Source\PSoC4/Bootloader.c ****     {
 258:.\Generated_Source\PSoC4/Bootloader.c ****         if (0u != app1)
 259:.\Generated_Source\PSoC4/Bootloader.c ****         {
 260:.\Generated_Source\PSoC4/Bootloader.c ****             /* app1 is active */
 261:.\Generated_Source\PSoC4/Bootloader.c ****             result = Bootloader_MD_BTLDB_ACTIVE_1;
 262:.\Generated_Source\PSoC4/Bootloader.c ****         }
 263:.\Generated_Source\PSoC4/Bootloader.c ****         else
 264:.\Generated_Source\PSoC4/Bootloader.c ****         {
 265:.\Generated_Source\PSoC4/Bootloader.c ****             /* Neither app is active. */
 266:.\Generated_Source\PSoC4/Bootloader.c ****             result = Bootloader_MD_BTLDB_ACTIVE_NONE;
 267:.\Generated_Source\PSoC4/Bootloader.c ****         }          
 268:.\Generated_Source\PSoC4/Bootloader.c ****     }
 269:.\Generated_Source\PSoC4/Bootloader.c **** 
 270:.\Generated_Source\PSoC4/Bootloader.c ****     return (result);
 271:.\Generated_Source\PSoC4/Bootloader.c **** }
 272:.\Generated_Source\PSoC4/Bootloader.c **** #endif /*((CYDEV_PROJ_TYPE == CYDEV_PROJ_TYPE_LOADABLEANDBOOTLOADER) || \
 273:.\Generated_Source\PSoC4/Bootloader.c ****           (CYDEV_PROJ_TYPE == CYDEV_PROJ_TYPE_MULTIAPPBOOTLOADER) || \
 274:.\Generated_Source\PSoC4/Bootloader.c ****           (CYDEV_PROJ_TYPE == CYDEV_PROJ_TYPE_LAUNCHER)) */
 275:.\Generated_Source\PSoC4/Bootloader.c ****         
 276:.\Generated_Source\PSoC4/Bootloader.c **** #if (CYDEV_PROJ_TYPE == CYDEV_PROJ_TYPE_LOADABLEANDBOOTLOADER)
 277:.\Generated_Source\PSoC4/Bootloader.c **** /*******************************************************************************
 278:.\Generated_Source\PSoC4/Bootloader.c **** * Function Name: Bootloader_Initialize
 279:.\Generated_Source\PSoC4/Bootloader.c **** ****************************************************************************//**
 280:.\Generated_Source\PSoC4/Bootloader.c **** * 
 281:.\Generated_Source\PSoC4/Bootloader.c **** * \brief 
 282:.\Generated_Source\PSoC4/Bootloader.c **** *   Used for in-app bootloading. This function updates the global variable 
 283:.\Generated_Source\PSoC4/Bootloader.c **** *   Bootloader_runningApp with a running application number.
 284:.\Generated_Source\PSoC4/Bootloader.c **** *
 285:.\Generated_Source\PSoC4/Bootloader.c **** *   If the running application number is valid (0 or 1), this function also 
 286:.\Generated_Source\PSoC4/Bootloader.c **** *   sets the global variable Bootloader_initVar that is used to determine 
 287:.\Generated_Source\PSoC4/Bootloader.c **** *   if the component can process bootloader commands or not.
ARM GAS  C:\Users\LUKASC~1\AppData\Local\Temp\ccn8LSRc.s 			page 7


 288:.\Generated_Source\PSoC4/Bootloader.c **** *   This function should be called once in the application project after a startup.
 289:.\Generated_Source\PSoC4/Bootloader.c **** *
 290:.\Generated_Source\PSoC4/Bootloader.c **** * \return
 291:.\Generated_Source\PSoC4/Bootloader.c **** *   Global variables: 
 292:.\Generated_Source\PSoC4/Bootloader.c **** *     - Bootloader_runningApp
 293:.\Generated_Source\PSoC4/Bootloader.c **** *     - Bootloader_activeApp
 294:.\Generated_Source\PSoC4/Bootloader.c **** *     - Bootloader_initVar
 295:.\Generated_Source\PSoC4/Bootloader.c **** *
 296:.\Generated_Source\PSoC4/Bootloader.c **** * \details 
 297:.\Generated_Source\PSoC4/Bootloader.c **** *   This API should be called first to be able to capture the active application 
 298:.\Generated_Source\PSoC4/Bootloader.c **** *   number that is actually the running application number.
 299:.\Generated_Source\PSoC4/Bootloader.c **** *******************************************************************************/
 300:.\Generated_Source\PSoC4/Bootloader.c **** void Bootloader_Initialize(void) CYSMALL \
 301:.\Generated_Source\PSoC4/Bootloader.c ****                                
 302:.\Generated_Source\PSoC4/Bootloader.c **** {
 303:.\Generated_Source\PSoC4/Bootloader.c ****     if (Bootloader_BOOTLOADING_NOT_INITIALIZED ==Bootloader_initVar)
 304:.\Generated_Source\PSoC4/Bootloader.c ****     {
 305:.\Generated_Source\PSoC4/Bootloader.c ****         Bootloader_activeApp = Bootloader_GetActiveAppFromMetadata();
 306:.\Generated_Source\PSoC4/Bootloader.c ****         
 307:.\Generated_Source\PSoC4/Bootloader.c ****         /* Updating with number of active application */    
 308:.\Generated_Source\PSoC4/Bootloader.c ****         if ((Bootloader_MD_BTLDB_ACTIVE_NONE != Bootloader_activeApp) &&
 309:.\Generated_Source\PSoC4/Bootloader.c ****             (Bootloader_BOTH_ACTIVE != Bootloader_activeApp))
 310:.\Generated_Source\PSoC4/Bootloader.c ****         {
 311:.\Generated_Source\PSoC4/Bootloader.c ****             Bootloader_runningApp = Bootloader_activeApp;
 312:.\Generated_Source\PSoC4/Bootloader.c ****             
 313:.\Generated_Source\PSoC4/Bootloader.c ****             /* Bootloader commands are to be processed */
 314:.\Generated_Source\PSoC4/Bootloader.c ****             Bootloader_initVar = Bootloader_BOOTLADING_INITIALIZED;
 315:.\Generated_Source\PSoC4/Bootloader.c ****         }
 316:.\Generated_Source\PSoC4/Bootloader.c ****         else 
 317:.\Generated_Source\PSoC4/Bootloader.c ****         {
 318:.\Generated_Source\PSoC4/Bootloader.c ****             Bootloader_runningApp = Bootloader_RUNNING_APPLICATION_UNKNOWN;
 319:.\Generated_Source\PSoC4/Bootloader.c ****         }
 320:.\Generated_Source\PSoC4/Bootloader.c ****     }
 321:.\Generated_Source\PSoC4/Bootloader.c **** }
 322:.\Generated_Source\PSoC4/Bootloader.c **** 
 323:.\Generated_Source\PSoC4/Bootloader.c **** /*****************************************************************************
 324:.\Generated_Source\PSoC4/Bootloader.c **** * Function Name: Bootloader_GetRunningAppStatus
 325:.\Generated_Source\PSoC4/Bootloader.c **** **************************************************************************//**
 326:.\Generated_Source\PSoC4/Bootloader.c **** *
 327:.\Generated_Source\PSoC4/Bootloader.c **** * \brief 
 328:.\Generated_Source\PSoC4/Bootloader.c **** *   Used for dual-app or in-app bootloader. Returns the value of the global 
 329:.\Generated_Source\PSoC4/Bootloader.c **** *   variable Bootloader_runningApp. This function should be called only after the 
 330:.\Generated_Source\PSoC4/Bootloader.c **** *   Bootloader_Initialize() has been called once.
 331:.\Generated_Source\PSoC4/Bootloader.c **** *
 332:.\Generated_Source\PSoC4/Bootloader.c **** * \return 
 333:.\Generated_Source\PSoC4/Bootloader.c **** *   The application number that is currently being executed. Values are 0 or 1; 
 334:.\Generated_Source\PSoC4/Bootloader.c **** *     other values indicate "not defined".
 335:.\Generated_Source\PSoC4/Bootloader.c **** *
 336:.\Generated_Source\PSoC4/Bootloader.c **** *******************************************************************************/
 337:.\Generated_Source\PSoC4/Bootloader.c **** uint8 Bootloader_GetRunningAppStatus(void) CYSMALL \
 338:.\Generated_Source\PSoC4/Bootloader.c ****             
 339:.\Generated_Source\PSoC4/Bootloader.c **** {  
 340:.\Generated_Source\PSoC4/Bootloader.c ****     return (Bootloader_runningApp);
 341:.\Generated_Source\PSoC4/Bootloader.c **** }
 342:.\Generated_Source\PSoC4/Bootloader.c **** 
 343:.\Generated_Source\PSoC4/Bootloader.c **** 
 344:.\Generated_Source\PSoC4/Bootloader.c **** /*******************************************************************************
ARM GAS  C:\Users\LUKASC~1\AppData\Local\Temp\ccn8LSRc.s 			page 8


 345:.\Generated_Source\PSoC4/Bootloader.c **** * Function Name: Bootloader_GetActiveAppStatus
 346:.\Generated_Source\PSoC4/Bootloader.c **** ****************************************************************************//**
 347:.\Generated_Source\PSoC4/Bootloader.c **** *
 348:.\Generated_Source\PSoC4/Bootloader.c **** * \brief 
 349:.\Generated_Source\PSoC4/Bootloader.c **** *   Used for dual-app or in-app bootloader. Returns the value of the global 
 350:.\Generated_Source\PSoC4/Bootloader.c **** *   variable Bootloader_activeApp. This function should be called only after the 
 351:.\Generated_Source\PSoC4/Bootloader.c **** *   Bootloader_Initialize() has been called once.
 352:.\Generated_Source\PSoC4/Bootloader.c **** *
 353:.\Generated_Source\PSoC4/Bootloader.c **** * \return 
 354:.\Generated_Source\PSoC4/Bootloader.c **** *   The desired application to be executed. Values are 0 or 1; other values 
 355:.\Generated_Source\PSoC4/Bootloader.c **** *     indicate "not defined".
 356:.\Generated_Source\PSoC4/Bootloader.c **** *
 357:.\Generated_Source\PSoC4/Bootloader.c **** *******************************************************************************/
 358:.\Generated_Source\PSoC4/Bootloader.c **** uint8 Bootloader_GetActiveAppStatus(void) CYSMALL \
 359:.\Generated_Source\PSoC4/Bootloader.c ****       
 360:.\Generated_Source\PSoC4/Bootloader.c **** {  
 361:.\Generated_Source\PSoC4/Bootloader.c ****     /* Read active application number from metadata */
 362:.\Generated_Source\PSoC4/Bootloader.c ****     Bootloader_activeApp = Bootloader_GetActiveAppFromMetadata();
 363:.\Generated_Source\PSoC4/Bootloader.c ****     
 364:.\Generated_Source\PSoC4/Bootloader.c ****     return (Bootloader_activeApp);
 365:.\Generated_Source\PSoC4/Bootloader.c **** }
 366:.\Generated_Source\PSoC4/Bootloader.c **** #endif /*(CYDEV_PROJ_TYPE == CYDEV_PROJ_TYPE_LOADABLEANDBOOTLOADER)*/
 367:.\Generated_Source\PSoC4/Bootloader.c **** 
 368:.\Generated_Source\PSoC4/Bootloader.c **** #if (CYDEV_PROJ_TYPE != CYDEV_PROJ_TYPE_LAUNCHER)
 369:.\Generated_Source\PSoC4/Bootloader.c **** /*******************************************************************************
 370:.\Generated_Source\PSoC4/Bootloader.c **** * Function Name: Bootloader_CalcPacketChecksum
 371:.\Generated_Source\PSoC4/Bootloader.c **** ****************************************************************************//**
 372:.\Generated_Source\PSoC4/Bootloader.c **** *  \internal
 373:.\Generated_Source\PSoC4/Bootloader.c **** *
 374:.\Generated_Source\PSoC4/Bootloader.c **** *  \brief
 375:.\Generated_Source\PSoC4/Bootloader.c **** *     This computes a 16-bit checksum for the provided number of bytes contained
 376:.\Generated_Source\PSoC4/Bootloader.c **** *     in the provided buffer.
 377:.\Generated_Source\PSoC4/Bootloader.c **** *
 378:.\Generated_Source\PSoC4/Bootloader.c **** *  \param buffer
 379:.\Generated_Source\PSoC4/Bootloader.c **** *     The buffer containing the data to compute the checksum.
 380:.\Generated_Source\PSoC4/Bootloader.c **** *  \param size
 381:.\Generated_Source\PSoC4/Bootloader.c **** *     The number of bytes in the buffer to compute the checksum.
 382:.\Generated_Source\PSoC4/Bootloader.c **** *
 383:.\Generated_Source\PSoC4/Bootloader.c **** *  \return 
 384:.\Generated_Source\PSoC4/Bootloader.c **** *     A 16-bit checksum for the provided data.
 385:.\Generated_Source\PSoC4/Bootloader.c **** *
 386:.\Generated_Source\PSoC4/Bootloader.c **** *  \endinternal
 387:.\Generated_Source\PSoC4/Bootloader.c **** *******************************************************************************/
 388:.\Generated_Source\PSoC4/Bootloader.c **** static uint16 Bootloader_CalcPacketChecksum(const uint8 buffer[], uint16 size) \
 389:.\Generated_Source\PSoC4/Bootloader.c ****                     CYSMALL 
 390:.\Generated_Source\PSoC4/Bootloader.c **** {
  56              		.loc 1 390 0
  57              		.cfi_startproc
  58 0000 80B5     		push	{r7, lr}
  59              		.cfi_def_cfa_offset 8
  60              		.cfi_offset 7, -8
  61              		.cfi_offset 14, -4
  62 0002 84B0     		sub	sp, sp, #16
  63              		.cfi_def_cfa_offset 24
  64 0004 00AF     		add	r7, sp, #0
  65              		.cfi_def_cfa_register 7
  66 0006 7860     		str	r0, [r7, #4]
ARM GAS  C:\Users\LUKASC~1\AppData\Local\Temp\ccn8LSRc.s 			page 9


  67 0008 0A1C     		mov	r2, r1
  68 000a BB1C     		add	r3, r7, #2
  69 000c 1A80     		strh	r2, [r3]
 391:.\Generated_Source\PSoC4/Bootloader.c ****     #if(0u != Bootloader_PACKET_CHECKSUM_CRC)
 392:.\Generated_Source\PSoC4/Bootloader.c **** 
 393:.\Generated_Source\PSoC4/Bootloader.c ****         uint16 CYDATA crc = Bootloader_CRC_CCITT_INITIAL_VALUE;
 394:.\Generated_Source\PSoC4/Bootloader.c ****         uint16 CYDATA tmp;
 395:.\Generated_Source\PSoC4/Bootloader.c ****         uint8  CYDATA i;
 396:.\Generated_Source\PSoC4/Bootloader.c ****         uint16 CYDATA tmpIndex = size;
 397:.\Generated_Source\PSoC4/Bootloader.c **** 
 398:.\Generated_Source\PSoC4/Bootloader.c ****         if(0u == size)
 399:.\Generated_Source\PSoC4/Bootloader.c ****         {
 400:.\Generated_Source\PSoC4/Bootloader.c ****             crc = ~crc;
 401:.\Generated_Source\PSoC4/Bootloader.c ****         }
 402:.\Generated_Source\PSoC4/Bootloader.c ****         else
 403:.\Generated_Source\PSoC4/Bootloader.c ****         {
 404:.\Generated_Source\PSoC4/Bootloader.c ****             do
 405:.\Generated_Source\PSoC4/Bootloader.c ****             {
 406:.\Generated_Source\PSoC4/Bootloader.c ****                 tmp = buffer[tmpIndex - size];
 407:.\Generated_Source\PSoC4/Bootloader.c **** 
 408:.\Generated_Source\PSoC4/Bootloader.c ****                 for (i = 0u; i < 8u; i++)
 409:.\Generated_Source\PSoC4/Bootloader.c ****                 {
 410:.\Generated_Source\PSoC4/Bootloader.c ****                     if (0u != ((crc & 0x0001u) ^ (tmp & 0x0001u)))
 411:.\Generated_Source\PSoC4/Bootloader.c ****                     {
 412:.\Generated_Source\PSoC4/Bootloader.c ****                         crc = (crc >> 1u) ^ Bootloader_CRC_CCITT_POLYNOMIAL;
 413:.\Generated_Source\PSoC4/Bootloader.c ****                     }
 414:.\Generated_Source\PSoC4/Bootloader.c ****                     else
 415:.\Generated_Source\PSoC4/Bootloader.c ****                     {
 416:.\Generated_Source\PSoC4/Bootloader.c ****                         crc >>= 1u;
 417:.\Generated_Source\PSoC4/Bootloader.c ****                     }
 418:.\Generated_Source\PSoC4/Bootloader.c **** 
 419:.\Generated_Source\PSoC4/Bootloader.c ****                     tmp >>= 1u;
 420:.\Generated_Source\PSoC4/Bootloader.c ****                 }
 421:.\Generated_Source\PSoC4/Bootloader.c **** 
 422:.\Generated_Source\PSoC4/Bootloader.c ****                 size--;
 423:.\Generated_Source\PSoC4/Bootloader.c ****             }
 424:.\Generated_Source\PSoC4/Bootloader.c ****             while(0u != size);
 425:.\Generated_Source\PSoC4/Bootloader.c **** 
 426:.\Generated_Source\PSoC4/Bootloader.c ****             crc = ~crc;
 427:.\Generated_Source\PSoC4/Bootloader.c ****             tmp = crc;
 428:.\Generated_Source\PSoC4/Bootloader.c ****             crc = ( uint16 )(crc << 8u) | (tmp >> 8u);
 429:.\Generated_Source\PSoC4/Bootloader.c ****         }
 430:.\Generated_Source\PSoC4/Bootloader.c **** 
 431:.\Generated_Source\PSoC4/Bootloader.c ****         return(crc);
 432:.\Generated_Source\PSoC4/Bootloader.c **** 
 433:.\Generated_Source\PSoC4/Bootloader.c ****     #else
 434:.\Generated_Source\PSoC4/Bootloader.c **** 
 435:.\Generated_Source\PSoC4/Bootloader.c ****         uint16 CYDATA sum = 0u;
  70              		.loc 1 435 0
  71 000e 0E23     		mov	r3, #14
  72 0010 FB18     		add	r3, r7, r3
  73 0012 0022     		mov	r2, #0
  74 0014 1A80     		strh	r2, [r3]
 436:.\Generated_Source\PSoC4/Bootloader.c **** 
 437:.\Generated_Source\PSoC4/Bootloader.c ****         while (size > 0u)
  75              		.loc 1 437 0
  76 0016 12E0     		b	.L2
ARM GAS  C:\Users\LUKASC~1\AppData\Local\Temp\ccn8LSRc.s 			page 10


  77              	.L3:
 438:.\Generated_Source\PSoC4/Bootloader.c ****         {
 439:.\Generated_Source\PSoC4/Bootloader.c ****             sum += buffer[size - 1u];
  78              		.loc 1 439 0
  79 0018 BB1C     		add	r3, r7, #2
  80 001a 1B88     		ldrh	r3, [r3]
  81 001c 013B     		sub	r3, r3, #1
  82 001e 7A68     		ldr	r2, [r7, #4]
  83 0020 D318     		add	r3, r2, r3
  84 0022 1B78     		ldrb	r3, [r3]
  85 0024 99B2     		uxth	r1, r3
  86 0026 0E23     		mov	r3, #14
  87 0028 FB18     		add	r3, r7, r3
  88 002a 0E22     		mov	r2, #14
  89 002c BA18     		add	r2, r7, r2
  90 002e 1288     		ldrh	r2, [r2]
  91 0030 8A18     		add	r2, r1, r2
  92 0032 1A80     		strh	r2, [r3]
 440:.\Generated_Source\PSoC4/Bootloader.c ****             size--;
  93              		.loc 1 440 0
  94 0034 BB1C     		add	r3, r7, #2
  95 0036 1A88     		ldrh	r2, [r3]
  96 0038 BB1C     		add	r3, r7, #2
  97 003a 013A     		sub	r2, r2, #1
  98 003c 1A80     		strh	r2, [r3]
  99              	.L2:
 437:.\Generated_Source\PSoC4/Bootloader.c ****         {
 100              		.loc 1 437 0
 101 003e BB1C     		add	r3, r7, #2
 102 0040 1B88     		ldrh	r3, [r3]
 103 0042 002B     		cmp	r3, #0
 104 0044 E8D1     		bne	.L3
 441:.\Generated_Source\PSoC4/Bootloader.c ****         }
 442:.\Generated_Source\PSoC4/Bootloader.c **** 
 443:.\Generated_Source\PSoC4/Bootloader.c ****         return(( uint16 )1u + ( uint16 )(~sum));
 105              		.loc 1 443 0
 106 0046 0E23     		mov	r3, #14
 107 0048 FB18     		add	r3, r7, r3
 108 004a 1B88     		ldrh	r3, [r3]
 109 004c 5B42     		neg	r3, r3
 110 004e 9BB2     		uxth	r3, r3
 444:.\Generated_Source\PSoC4/Bootloader.c **** 
 445:.\Generated_Source\PSoC4/Bootloader.c ****     #endif /* (0u != Bootloader_PACKET_CHECKSUM_CRC) */
 446:.\Generated_Source\PSoC4/Bootloader.c **** }
 111              		.loc 1 446 0
 112 0050 181C     		mov	r0, r3
 113 0052 BD46     		mov	sp, r7
 114 0054 04B0     		add	sp, sp, #16
 115              		@ sp needed
 116 0056 80BD     		pop	{r7, pc}
 117              		.cfi_endproc
 118              	.LFE34:
 119              		.size	Bootloader_CalcPacketChecksum, .-Bootloader_CalcPacketChecksum
 120              		.section	.text.Bootloader_InitCallback,"ax",%progbits
 121              		.align	2
 122              		.global	Bootloader_InitCallback
 123              		.code	16
ARM GAS  C:\Users\LUKASC~1\AppData\Local\Temp\ccn8LSRc.s 			page 11


 124              		.thumb_func
 125              		.type	Bootloader_InitCallback, %function
 126              	Bootloader_InitCallback:
 127              	.LFB35:
 447:.\Generated_Source\PSoC4/Bootloader.c **** 
 448:.\Generated_Source\PSoC4/Bootloader.c **** #if (!CY_PSOC3)
 449:.\Generated_Source\PSoC4/Bootloader.c **** /*******************************************************************************
 450:.\Generated_Source\PSoC4/Bootloader.c **** * Function Name: Bootloader_InitCallback
 451:.\Generated_Source\PSoC4/Bootloader.c **** ****************************************************************************//**
 452:.\Generated_Source\PSoC4/Bootloader.c **** *
 453:.\Generated_Source\PSoC4/Bootloader.c **** * \brief
 454:.\Generated_Source\PSoC4/Bootloader.c **** *  This function initializes the callback functionality.
 455:.\Generated_Source\PSoC4/Bootloader.c **** *  
 456:.\Generated_Source\PSoC4/Bootloader.c **** * \param userCallback
 457:.\Generated_Source\PSoC4/Bootloader.c **** *  The user's callback function.
 458:.\Generated_Source\PSoC4/Bootloader.c **** *
 459:.\Generated_Source\PSoC4/Bootloader.c **** *******************************************************************************/
 460:.\Generated_Source\PSoC4/Bootloader.c **** void Bootloader_InitCallback(Bootloader_callback_type userCallback) \
 461:.\Generated_Source\PSoC4/Bootloader.c ****            CYSMALL 
 462:.\Generated_Source\PSoC4/Bootloader.c **** {
 128              		.loc 1 462 0
 129              		.cfi_startproc
 130 0000 80B5     		push	{r7, lr}
 131              		.cfi_def_cfa_offset 8
 132              		.cfi_offset 7, -8
 133              		.cfi_offset 14, -4
 134 0002 82B0     		sub	sp, sp, #8
 135              		.cfi_def_cfa_offset 16
 136 0004 00AF     		add	r7, sp, #0
 137              		.cfi_def_cfa_register 7
 138 0006 7860     		str	r0, [r7, #4]
 463:.\Generated_Source\PSoC4/Bootloader.c ****     Bootloader_callback = userCallback;
 139              		.loc 1 463 0
 140 0008 024B     		ldr	r3, .L6
 141 000a 7A68     		ldr	r2, [r7, #4]
 142 000c 1A60     		str	r2, [r3]
 464:.\Generated_Source\PSoC4/Bootloader.c **** }
 143              		.loc 1 464 0
 144 000e BD46     		mov	sp, r7
 145 0010 02B0     		add	sp, sp, #8
 146              		@ sp needed
 147 0012 80BD     		pop	{r7, pc}
 148              	.L7:
 149              		.align	2
 150              	.L6:
 151 0014 00000000 		.word	Bootloader_callback
 152              		.cfi_endproc
 153              	.LFE35:
 154              		.size	Bootloader_InitCallback, .-Bootloader_InitCallback
 155              		.section	.text.Bootloader_VerifyRow,"ax",%progbits
 156              		.align	2
 157              		.code	16
 158              		.thumb_func
 159              		.type	Bootloader_VerifyRow, %function
 160              	Bootloader_VerifyRow:
 161              	.LFB36:
 465:.\Generated_Source\PSoC4/Bootloader.c **** #endif /* (!CY_PSOC3) */
ARM GAS  C:\Users\LUKASC~1\AppData\Local\Temp\ccn8LSRc.s 			page 12


 466:.\Generated_Source\PSoC4/Bootloader.c **** 
 467:.\Generated_Source\PSoC4/Bootloader.c **** 
 468:.\Generated_Source\PSoC4/Bootloader.c **** #if (0u != Bootloader_CMD_VERIFY_FLS_ROW_AVAIL)
 469:.\Generated_Source\PSoC4/Bootloader.c **** /*******************************************************************************
 470:.\Generated_Source\PSoC4/Bootloader.c **** * Function Name: Bootloader_VerifyRow
 471:.\Generated_Source\PSoC4/Bootloader.c **** ****************************************************************************//**
 472:.\Generated_Source\PSoC4/Bootloader.c **** *  \internal
 473:.\Generated_Source\PSoC4/Bootloader.c **** * 
 474:.\Generated_Source\PSoC4/Bootloader.c **** *  \brief
 475:.\Generated_Source\PSoC4/Bootloader.c **** *   This API performs a byte to byte verifying of the flash row against the data 
 476:.\Generated_Source\PSoC4/Bootloader.c **** *   in the input buffer. 
 477:.\Generated_Source\PSoC4/Bootloader.c **** *
 478:.\Generated_Source\PSoC4/Bootloader.c **** *  \param flashStart 
 479:.\Generated_Source\PSoC4/Bootloader.c **** *        The start address of a row in flash.
 480:.\Generated_Source\PSoC4/Bootloader.c **** *  \param ramStart 
 481:.\Generated_Source\PSoC4/Bootloader.c **** *        The start address of corresponding data to compare in the RAM buffer.
 482:.\Generated_Source\PSoC4/Bootloader.c **** *  \param size 
 483:.\Generated_Source\PSoC4/Bootloader.c **** *        The data length (common for both arrays).
 484:.\Generated_Source\PSoC4/Bootloader.c **** *
 485:.\Generated_Source\PSoC4/Bootloader.c **** *  \return
 486:.\Generated_Source\PSoC4/Bootloader.c **** *   CYRET_SUCCESS - If all data matches.
 487:.\Generated_Source\PSoC4/Bootloader.c **** *  \n Bootloader_ERR_VERIFY - If there is any mismatch.
 488:.\Generated_Source\PSoC4/Bootloader.c **** *
 489:.\Generated_Source\PSoC4/Bootloader.c **** * \endinternal 
 490:.\Generated_Source\PSoC4/Bootloader.c **** *******************************************************************************/
 491:.\Generated_Source\PSoC4/Bootloader.c **** static uint8 Bootloader_VerifyRow(uint32 flashStart, const uint8* ramStart, uint16 size) \
 492:.\Generated_Source\PSoC4/Bootloader.c ****                 CYSMALL 
 493:.\Generated_Source\PSoC4/Bootloader.c **** {
 162              		.loc 1 493 0
 163              		.cfi_startproc
 164 0000 80B5     		push	{r7, lr}
 165              		.cfi_def_cfa_offset 8
 166              		.cfi_offset 7, -8
 167              		.cfi_offset 14, -4
 168 0002 86B0     		sub	sp, sp, #24
 169              		.cfi_def_cfa_offset 32
 170 0004 00AF     		add	r7, sp, #0
 171              		.cfi_def_cfa_register 7
 172 0006 F860     		str	r0, [r7, #12]
 173 0008 B960     		str	r1, [r7, #8]
 174 000a BB1D     		add	r3, r7, #6
 175 000c 1A80     		strh	r2, [r3]
 494:.\Generated_Source\PSoC4/Bootloader.c ****     uint8 CYDATA result = CYRET_SUCCESS;
 176              		.loc 1 494 0
 177 000e 1723     		mov	r3, #23
 178 0010 FB18     		add	r3, r7, r3
 179 0012 0022     		mov	r2, #0
 180 0014 1A70     		strb	r2, [r3]
 495:.\Generated_Source\PSoC4/Bootloader.c ****     uint16 CYDATA idx;
 496:.\Generated_Source\PSoC4/Bootloader.c **** 
 497:.\Generated_Source\PSoC4/Bootloader.c ****     for(idx = 0u; idx < size; idx++)
 181              		.loc 1 497 0
 182 0016 1423     		mov	r3, #20
 183 0018 FB18     		add	r3, r7, r3
 184 001a 0022     		mov	r2, #0
 185 001c 1A80     		strh	r2, [r3]
 186 001e 1AE0     		b	.L9
ARM GAS  C:\Users\LUKASC~1\AppData\Local\Temp\ccn8LSRc.s 			page 13


 187              	.L12:
 498:.\Generated_Source\PSoC4/Bootloader.c ****     {
 499:.\Generated_Source\PSoC4/Bootloader.c ****         if (CY_GET_XTND_REG8((uint8 CYFAR *)(flashStart + idx)) != ramStart[idx])
 188              		.loc 1 499 0
 189 0020 1423     		mov	r3, #20
 190 0022 FB18     		add	r3, r7, r3
 191 0024 1A88     		ldrh	r2, [r3]
 192 0026 FB68     		ldr	r3, [r7, #12]
 193 0028 D318     		add	r3, r2, r3
 194 002a 1B78     		ldrb	r3, [r3]
 195 002c DAB2     		uxtb	r2, r3
 196 002e 1423     		mov	r3, #20
 197 0030 FB18     		add	r3, r7, r3
 198 0032 1B88     		ldrh	r3, [r3]
 199 0034 B968     		ldr	r1, [r7, #8]
 200 0036 CB18     		add	r3, r1, r3
 201 0038 1B78     		ldrb	r3, [r3]
 202 003a 9A42     		cmp	r2, r3
 203 003c 04D0     		beq	.L10
 500:.\Generated_Source\PSoC4/Bootloader.c ****         {
 501:.\Generated_Source\PSoC4/Bootloader.c ****             result = Bootloader_ERR_VERIFY;
 204              		.loc 1 501 0
 205 003e 1723     		mov	r3, #23
 206 0040 FB18     		add	r3, r7, r3
 207 0042 0222     		mov	r2, #2
 208 0044 1A70     		strb	r2, [r3]
 502:.\Generated_Source\PSoC4/Bootloader.c ****             break;
 209              		.loc 1 502 0
 210 0046 0DE0     		b	.L11
 211              	.L10:
 497:.\Generated_Source\PSoC4/Bootloader.c ****     {
 212              		.loc 1 497 0 discriminator 2
 213 0048 1423     		mov	r3, #20
 214 004a FB18     		add	r3, r7, r3
 215 004c 1A88     		ldrh	r2, [r3]
 216 004e 1423     		mov	r3, #20
 217 0050 FB18     		add	r3, r7, r3
 218 0052 0132     		add	r2, r2, #1
 219 0054 1A80     		strh	r2, [r3]
 220              	.L9:
 497:.\Generated_Source\PSoC4/Bootloader.c ****     {
 221              		.loc 1 497 0 is_stmt 0 discriminator 1
 222 0056 1423     		mov	r3, #20
 223 0058 FA18     		add	r2, r7, r3
 224 005a BB1D     		add	r3, r7, #6
 225 005c 1288     		ldrh	r2, [r2]
 226 005e 1B88     		ldrh	r3, [r3]
 227 0060 9A42     		cmp	r2, r3
 228 0062 DDD3     		bcc	.L12
 229              	.L11:
 503:.\Generated_Source\PSoC4/Bootloader.c ****         }    
 504:.\Generated_Source\PSoC4/Bootloader.c ****     }
 505:.\Generated_Source\PSoC4/Bootloader.c **** 
 506:.\Generated_Source\PSoC4/Bootloader.c ****     return (result);
 230              		.loc 1 506 0 is_stmt 1
 231 0064 1723     		mov	r3, #23
 232 0066 FB18     		add	r3, r7, r3
ARM GAS  C:\Users\LUKASC~1\AppData\Local\Temp\ccn8LSRc.s 			page 14


 233 0068 1B78     		ldrb	r3, [r3]
 507:.\Generated_Source\PSoC4/Bootloader.c **** }
 234              		.loc 1 507 0
 235 006a 181C     		mov	r0, r3
 236 006c BD46     		mov	sp, r7
 237 006e 06B0     		add	sp, sp, #24
 238              		@ sp needed
 239 0070 80BD     		pop	{r7, pc}
 240              		.cfi_endproc
 241              	.LFE36:
 242              		.size	Bootloader_VerifyRow, .-Bootloader_VerifyRow
 243 0072 C046     		.section	.text.Bootloader_Calc8BitSum,"ax",%progbits
 244              		.align	2
 245              		.global	Bootloader_Calc8BitSum
 246              		.code	16
 247              		.thumb_func
 248              		.type	Bootloader_Calc8BitSum, %function
 249              	Bootloader_Calc8BitSum:
 250              	.LFB37:
 508:.\Generated_Source\PSoC4/Bootloader.c **** #endif /*(0u != Bootloader_CMD_VERIFY_FLS_ROW_AVAIL)*/
 509:.\Generated_Source\PSoC4/Bootloader.c **** #endif /*CYDEV_PROJ_TYPE != CYDEV_PROJ_TYPE_LAUNCHER*/
 510:.\Generated_Source\PSoC4/Bootloader.c **** 
 511:.\Generated_Source\PSoC4/Bootloader.c **** 
 512:.\Generated_Source\PSoC4/Bootloader.c **** /*******************************************************************************
 513:.\Generated_Source\PSoC4/Bootloader.c **** * Function Name: Bootloader_Calc8BitSum
 514:.\Generated_Source\PSoC4/Bootloader.c **** ****************************************************************************//**
 515:.\Generated_Source\PSoC4/Bootloader.c **** *
 516:.\Generated_Source\PSoC4/Bootloader.c **** * \brief
 517:.\Generated_Source\PSoC4/Bootloader.c **** *  This computes an 8-bit sum for the provided number of bytes contained in
 518:.\Generated_Source\PSoC4/Bootloader.c **** *  flash (if baseAddr equals CY_FLASH_BASE) or EEPROM (if baseAddr equals
 519:.\Generated_Source\PSoC4/Bootloader.c **** *  CY_EEPROM_BASE).
 520:.\Generated_Source\PSoC4/Bootloader.c **** *
 521:.\Generated_Source\PSoC4/Bootloader.c **** * \param baseAddr
 522:.\Generated_Source\PSoC4/Bootloader.c **** *   CY_FLASH_BASE
 523:.\Generated_Source\PSoC4/Bootloader.c **** *   CY_EEPROM_BASE - applicable only for PSoC 3 / PSoC 5LP devices.
 524:.\Generated_Source\PSoC4/Bootloader.c **** *
 525:.\Generated_Source\PSoC4/Bootloader.c **** * \param start
 526:.\Generated_Source\PSoC4/Bootloader.c **** *     The starting address to start summing data.
 527:.\Generated_Source\PSoC4/Bootloader.c **** * \param size
 528:.\Generated_Source\PSoC4/Bootloader.c **** *     The number of bytes to read and compute the sum.
 529:.\Generated_Source\PSoC4/Bootloader.c **** *
 530:.\Generated_Source\PSoC4/Bootloader.c **** * \return
 531:.\Generated_Source\PSoC4/Bootloader.c **** *   An 8-bit sum for the provided data.
 532:.\Generated_Source\PSoC4/Bootloader.c **** *
 533:.\Generated_Source\PSoC4/Bootloader.c **** *******************************************************************************/
 534:.\Generated_Source\PSoC4/Bootloader.c **** uint8 Bootloader_Calc8BitSum(uint32 baseAddr, uint32 start, uint32 size) \
 535:.\Generated_Source\PSoC4/Bootloader.c ****                 CYSMALL 
 536:.\Generated_Source\PSoC4/Bootloader.c **** {
 251              		.loc 1 536 0
 252              		.cfi_startproc
 253 0000 80B5     		push	{r7, lr}
 254              		.cfi_def_cfa_offset 8
 255              		.cfi_offset 7, -8
 256              		.cfi_offset 14, -4
 257 0002 86B0     		sub	sp, sp, #24
 258              		.cfi_def_cfa_offset 32
 259 0004 00AF     		add	r7, sp, #0
ARM GAS  C:\Users\LUKASC~1\AppData\Local\Temp\ccn8LSRc.s 			page 15


 260              		.cfi_def_cfa_register 7
 261 0006 F860     		str	r0, [r7, #12]
 262 0008 B960     		str	r1, [r7, #8]
 263 000a 7A60     		str	r2, [r7, #4]
 537:.\Generated_Source\PSoC4/Bootloader.c ****     uint8 CYDATA sum = 0u;
 264              		.loc 1 537 0
 265 000c 1723     		mov	r3, #23
 266 000e FB18     		add	r3, r7, r3
 267 0010 0022     		mov	r2, #0
 268 0012 1A70     		strb	r2, [r3]
 538:.\Generated_Source\PSoC4/Bootloader.c **** 
 539:.\Generated_Source\PSoC4/Bootloader.c ****     #if(!CY_PSOC4)
 540:.\Generated_Source\PSoC4/Bootloader.c ****         CYASSERT((baseAddr == CY_EEPROM_BASE) || (baseAddr == CY_FLASH_BASE));
 541:.\Generated_Source\PSoC4/Bootloader.c ****     #else
 542:.\Generated_Source\PSoC4/Bootloader.c ****         CYASSERT(baseAddr == CY_FLASH_BASE);
 269              		.loc 1 542 0
 270 0014 FB68     		ldr	r3, [r7, #12]
 271 0016 002B     		cmp	r3, #0
 272 0018 02D0     		beq	.L15
 273              		.loc 1 542 0 is_stmt 0 discriminator 1
 274 001a 0020     		mov	r0, #0
 275 001c FFF7FEFF 		bl	CyHalt
 276              	.L15:
 543:.\Generated_Source\PSoC4/Bootloader.c ****     #endif  /* (!CY_PSOC4) */
 544:.\Generated_Source\PSoC4/Bootloader.c **** 
 545:.\Generated_Source\PSoC4/Bootloader.c ****     while (size > 0u)
 277              		.loc 1 545 0 is_stmt 1
 278 0020 0FE0     		b	.L16
 279              	.L17:
 546:.\Generated_Source\PSoC4/Bootloader.c ****     {
 547:.\Generated_Source\PSoC4/Bootloader.c ****         size--;
 280              		.loc 1 547 0
 281 0022 7B68     		ldr	r3, [r7, #4]
 282 0024 013B     		sub	r3, r3, #1
 283 0026 7B60     		str	r3, [r7, #4]
 548:.\Generated_Source\PSoC4/Bootloader.c ****         sum += (*((uint8  *)(baseAddr + start + size)));
 284              		.loc 1 548 0
 285 0028 FA68     		ldr	r2, [r7, #12]
 286 002a BB68     		ldr	r3, [r7, #8]
 287 002c D218     		add	r2, r2, r3
 288 002e 7B68     		ldr	r3, [r7, #4]
 289 0030 D318     		add	r3, r2, r3
 290 0032 1978     		ldrb	r1, [r3]
 291 0034 1723     		mov	r3, #23
 292 0036 FB18     		add	r3, r7, r3
 293 0038 1722     		mov	r2, #23
 294 003a BA18     		add	r2, r7, r2
 295 003c 1278     		ldrb	r2, [r2]
 296 003e 8A18     		add	r2, r1, r2
 297 0040 1A70     		strb	r2, [r3]
 298              	.L16:
 545:.\Generated_Source\PSoC4/Bootloader.c ****     {
 299              		.loc 1 545 0
 300 0042 7B68     		ldr	r3, [r7, #4]
 301 0044 002B     		cmp	r3, #0
 302 0046 ECD1     		bne	.L17
 549:.\Generated_Source\PSoC4/Bootloader.c ****     }
ARM GAS  C:\Users\LUKASC~1\AppData\Local\Temp\ccn8LSRc.s 			page 16


 550:.\Generated_Source\PSoC4/Bootloader.c **** 
 551:.\Generated_Source\PSoC4/Bootloader.c ****     return(sum);
 303              		.loc 1 551 0
 304 0048 1723     		mov	r3, #23
 305 004a FB18     		add	r3, r7, r3
 306 004c 1B78     		ldrb	r3, [r3]
 552:.\Generated_Source\PSoC4/Bootloader.c **** }
 307              		.loc 1 552 0
 308 004e 181C     		mov	r0, r3
 309 0050 BD46     		mov	sp, r7
 310 0052 06B0     		add	sp, sp, #24
 311              		@ sp needed
 312 0054 80BD     		pop	{r7, pc}
 313              		.cfi_endproc
 314              	.LFE37:
 315              		.size	Bootloader_Calc8BitSum, .-Bootloader_Calc8BitSum
 316 0056 C046     		.section	.text.Bootloader_Start,"ax",%progbits
 317              		.align	2
 318              		.global	Bootloader_Start
 319              		.code	16
 320              		.thumb_func
 321              		.type	Bootloader_Start, %function
 322              	Bootloader_Start:
 323              	.LFB38:
 553:.\Generated_Source\PSoC4/Bootloader.c **** 
 554:.\Generated_Source\PSoC4/Bootloader.c **** 
 555:.\Generated_Source\PSoC4/Bootloader.c **** #if (CYDEV_PROJ_TYPE == CYDEV_PROJ_TYPE_LAUNCHER)
 556:.\Generated_Source\PSoC4/Bootloader.c **** #if ((0u != Bootloader_COPIER_AVAIL) && (CY_PSOC4)) 
 557:.\Generated_Source\PSoC4/Bootloader.c **** /*******************************************************************************
 558:.\Generated_Source\PSoC4/Bootloader.c **** * Function Name: Bootloader_CopyRow
 559:.\Generated_Source\PSoC4/Bootloader.c **** ****************************************************************************//**
 560:.\Generated_Source\PSoC4/Bootloader.c **** * \internal
 561:.\Generated_Source\PSoC4/Bootloader.c **** *
 562:.\Generated_Source\PSoC4/Bootloader.c **** * \brief
 563:.\Generated_Source\PSoC4/Bootloader.c **** *   This function performs copying of a specified row to specified 
 564:.\Generated_Source\PSoC4/Bootloader.c **** *     location.
 565:.\Generated_Source\PSoC4/Bootloader.c **** *
 566:.\Generated_Source\PSoC4/Bootloader.c **** * \param
 567:.\Generated_Source\PSoC4/Bootloader.c **** *   srcRowNum - The number of a row to copy from.
 568:.\Generated_Source\PSoC4/Bootloader.c **** * \param             
 569:.\Generated_Source\PSoC4/Bootloader.c **** *   dstRowNum - The number of a row to be copied to.
 570:.\Generated_Source\PSoC4/Bootloader.c **** *
 571:.\Generated_Source\PSoC4/Bootloader.c **** * \return
 572:.\Generated_Source\PSoC4/Bootloader.c **** *   \n CYRET_SUCCESS - If everything went right. 
 573:.\Generated_Source\PSoC4/Bootloader.c **** *   \n Otherwise, produce an error code indicating a problem.  
 574:.\Generated_Source\PSoC4/Bootloader.c **** * 
 575:.\Generated_Source\PSoC4/Bootloader.c **** * \endinternal
 576:.\Generated_Source\PSoC4/Bootloader.c **** *******************************************************************************/
 577:.\Generated_Source\PSoC4/Bootloader.c **** static cystatus Bootloader_CopyRow(uint16 srcRowNum, uint16 dstRowNum) \
 578:.\Generated_Source\PSoC4/Bootloader.c ****                  CYSMALL 
 579:.\Generated_Source\PSoC4/Bootloader.c **** {
 580:.\Generated_Source\PSoC4/Bootloader.c ****     /*Buffer for row copy procedure*/
 581:.\Generated_Source\PSoC4/Bootloader.c ****     uint8  rowBuffer[CYDEV_FLS_ROW_SIZE];
 582:.\Generated_Source\PSoC4/Bootloader.c ****     cystatus result = CYRET_SUCCESS;
 583:.\Generated_Source\PSoC4/Bootloader.c **** 
 584:.\Generated_Source\PSoC4/Bootloader.c ****     uint32 srcBaseAddr = CYDEV_FLASH_BASE + srcRowNum * CYDEV_FLS_ROW_SIZE;
 585:.\Generated_Source\PSoC4/Bootloader.c ****     uint16 idx;
ARM GAS  C:\Users\LUKASC~1\AppData\Local\Temp\ccn8LSRc.s 			page 17


 586:.\Generated_Source\PSoC4/Bootloader.c **** 
 587:.\Generated_Source\PSoC4/Bootloader.c ****     for(idx = 0u; idx < CYDEV_FLS_ROW_SIZE; idx++)
 588:.\Generated_Source\PSoC4/Bootloader.c ****     {
 589:.\Generated_Source\PSoC4/Bootloader.c ****         rowBuffer[idx] = Bootloader_GET_CODE_BYTE(srcBaseAddr + idx);
 590:.\Generated_Source\PSoC4/Bootloader.c ****     }
 591:.\Generated_Source\PSoC4/Bootloader.c ****     
 592:.\Generated_Source\PSoC4/Bootloader.c ****     result = CySysFlashWriteRow((uint16) dstRowNum, rowBuffer);
 593:.\Generated_Source\PSoC4/Bootloader.c ****     
 594:.\Generated_Source\PSoC4/Bootloader.c ****     return (result);
 595:.\Generated_Source\PSoC4/Bootloader.c **** }
 596:.\Generated_Source\PSoC4/Bootloader.c **** 
 597:.\Generated_Source\PSoC4/Bootloader.c **** /*******************************************************************************
 598:.\Generated_Source\PSoC4/Bootloader.c **** * Function Name: Bootloader_Copier
 599:.\Generated_Source\PSoC4/Bootloader.c **** ****************************************************************************//**
 600:.\Generated_Source\PSoC4/Bootloader.c **** *  \internal
 601:.\Generated_Source\PSoC4/Bootloader.c **** *  
 602:.\Generated_Source\PSoC4/Bootloader.c **** *  \brief
 603:.\Generated_Source\PSoC4/Bootloader.c **** *    This option is specific for Launcher-Combination architecture only and to 
 604:.\Generated_Source\PSoC4/Bootloader.c **** *    the case when there is a large communication component like BLE. To save 
 605:.\Generated_Source\PSoC4/Bootloader.c **** *    flash space for the user application, such a large communication component 
 606:.\Generated_Source\PSoC4/Bootloader.c **** *    is present only in the first application (Stack application) and is "shared" 
 607:.\Generated_Source\PSoC4/Bootloader.c **** *    with the second application (the user's application actually) by "Code 
 608:.\Generated_Source\PSoC4/Bootloader.c **** *    sharing feature" (See code sharing and BLE Upgradable Stack example project). 
 609:.\Generated_Source\PSoC4/Bootloader.c **** *
 610:.\Generated_Source\PSoC4/Bootloader.c **** * \n If this option is enabled and the "need-to-copy" flag is set in the second 
 611:.\Generated_Source\PSoC4/Bootloader.c **** *    application's metadata, Copier performs copying of a previously saved Stack 
 612:.\Generated_Source\PSoC4/Bootloader.c **** *    application image from a "temporary location" to the app#1 flash 
 613:.\Generated_Source\PSoC4/Bootloader.c **** *    space (over the current app#1).
 614:.\Generated_Source\PSoC4/Bootloader.c **** *   
 615:.\Generated_Source\PSoC4/Bootloader.c **** * \n Before performing the copying operation the new Stack application image 
 616:.\Generated_Source\PSoC4/Bootloader.c **** *    should be received and stored at the temporary location by the current 
 617:.\Generated_Source\PSoC4/Bootloader.c **** *    Stack application. The "need-to-copy" flag should be set in app#2 metadata 
 618:.\Generated_Source\PSoC4/Bootloader.c **** *    indicating that copying operation is required.
 619:.\Generated_Source\PSoC4/Bootloader.c **** *
 620:.\Generated_Source\PSoC4/Bootloader.c **** * \n The temporary location is half of the flash space that left after Launcher 
 621:.\Generated_Source\PSoC4/Bootloader.c **** *    and 2 metadata rows. This implies that Stack application should fit in 
 622:.\Generated_Source\PSoC4/Bootloader.c **** *    that half of the flash space. 
 623:.\Generated_Source\PSoC4/Bootloader.c **** *
 624:.\Generated_Source\PSoC4/Bootloader.c **** * \n The destination for the copy operation is obtained as the first row after 
 625:.\Generated_Source\PSoC4/Bootloader.c **** *    Launcher (from app#1 metadata). 
 626:.\Generated_Source\PSoC4/Bootloader.c **** *
 627:.\Generated_Source\PSoC4/Bootloader.c **** * \n The source of copy operation is the first row of temporary location that 
 628:.\Generated_Source\PSoC4/Bootloader.c **** *    is calculated by the following formula: 
 629:.\Generated_Source\PSoC4/Bootloader.c **** * \n     srcRow = (((CY_FLASH_NUMBER_ROWS - dstRow - metaRows) / 2) + dstRow);
 630:.\Generated_Source\PSoC4/Bootloader.c **** * \n     where:
 631:.\Generated_Source\PSoC4/Bootloader.c **** *          - dstRow - the destination's first row (mentioned above);
 632:.\Generated_Source\PSoC4/Bootloader.c **** *          - CY_FLASH_NUMBER_ROWS - number of all flash rows; 
 633:.\Generated_Source\PSoC4/Bootloader.c **** *          - metaRows - 2 metadata rows;   
 634:.\Generated_Source\PSoC4/Bootloader.c **** *
 635:.\Generated_Source\PSoC4/Bootloader.c **** * \n Copying itself means row-by-row copying of the stored application's image.
 636:.\Generated_Source\PSoC4/Bootloader.c **** *    If it fails to copy some row, there is a defined number of attempts 
 637:.\Generated_Source\PSoC4/Bootloader.c **** *    (Bootloader_MAX_ATTEMPTS) to try again. In case of no success, 
 638:.\Generated_Source\PSoC4/Bootloader.c **** *    a user callback function Launcher_CopierCallback() is called. 
 639:.\Generated_Source\PSoC4/Bootloader.c **** *    If it is not defined, then the device is going to be halted.
 640:.\Generated_Source\PSoC4/Bootloader.c **** * 
 641:.\Generated_Source\PSoC4/Bootloader.c **** * \n After performing the application image copying, in case of success 
 642:.\Generated_Source\PSoC4/Bootloader.c **** *    the app#2 metadata is copied in the stead of app#1 metadata and then
ARM GAS  C:\Users\LUKASC~1\AppData\Local\Temp\ccn8LSRc.s 			page 18


 643:.\Generated_Source\PSoC4/Bootloader.c **** *    app#2 metadata is cleared.
 644:.\Generated_Source\PSoC4/Bootloader.c **** *
 645:.\Generated_Source\PSoC4/Bootloader.c **** * \n A "need-to-copy" flag is cleared just after performing the app#1 image
 646:.\Generated_Source\PSoC4/Bootloader.c **** *    copying from the temporary location to avoid another consecutive 
 647:.\Generated_Source\PSoC4/Bootloader.c **** *    copying operation.
 648:.\Generated_Source\PSoC4/Bootloader.c **** *   
 649:.\Generated_Source\PSoC4/Bootloader.c **** * \endinternal 
 650:.\Generated_Source\PSoC4/Bootloader.c **** *******************************************************************************/
 651:.\Generated_Source\PSoC4/Bootloader.c **** static void Bootloader_Copier(void) CYSMALL \
 652:.\Generated_Source\PSoC4/Bootloader.c ****            
 653:.\Generated_Source\PSoC4/Bootloader.c **** {
 654:.\Generated_Source\PSoC4/Bootloader.c ****     uint16 idx = 0u;
 655:.\Generated_Source\PSoC4/Bootloader.c **** 
 656:.\Generated_Source\PSoC4/Bootloader.c ****     /* Number of attempts to perform copying again */
 657:.\Generated_Source\PSoC4/Bootloader.c ****     uint8 copierAttempts;
 658:.\Generated_Source\PSoC4/Bootloader.c ****     
 659:.\Generated_Source\PSoC4/Bootloader.c ****     /* "need-to-copy" flag from second application metadata */
 660:.\Generated_Source\PSoC4/Bootloader.c ****     uint8 copyFlag = Bootloader_GetMetadata(Bootloader_GET_BTLDB_COPY_FLAG, Bootloader_MD_BTLDB_ACT
 661:.\Generated_Source\PSoC4/Bootloader.c **** 
 662:.\Generated_Source\PSoC4/Bootloader.c ****     /* Buffer to temporary hold metadata before flashing */
 663:.\Generated_Source\PSoC4/Bootloader.c ****     uint8 metaBuf[CYDEV_FLS_ROW_SIZE];
 664:.\Generated_Source\PSoC4/Bootloader.c **** 
 665:.\Generated_Source\PSoC4/Bootloader.c ****     /* Launcher's last row number */
 666:.\Generated_Source\PSoC4/Bootloader.c ****     uint16 launcherLastRow = Bootloader_GetMetadata(Bootloader_GET_BTLDR_LAST_ROW, Bootloader_MD_BT
 667:.\Generated_Source\PSoC4/Bootloader.c **** 
 668:.\Generated_Source\PSoC4/Bootloader.c ****     /* Calculating destination's start row number (first row of app#1) */
 669:.\Generated_Source\PSoC4/Bootloader.c ****     uint16 dstRow = launcherLastRow + 1u;
 670:.\Generated_Source\PSoC4/Bootloader.c ****     
 671:.\Generated_Source\PSoC4/Bootloader.c ****     /* Calculating the source's/temporary location's start row number */
 672:.\Generated_Source\PSoC4/Bootloader.c ****     uint16 srcRow = ((((CY_FLASH_NUMBER_ROWS - dstRow - 2u) + 1u) >> 1u) + dstRow); 
 673:.\Generated_Source\PSoC4/Bootloader.c ****     
 674:.\Generated_Source\PSoC4/Bootloader.c ****     /* Taking length from app#2's metadata*/
 675:.\Generated_Source\PSoC4/Bootloader.c ****     uint32 srcLength = Bootloader_GetMetadata(Bootloader_GET_BTLDB_LENGTH, Bootloader_MD_BTLDB_ACTI
 676:.\Generated_Source\PSoC4/Bootloader.c **** 
 677:.\Generated_Source\PSoC4/Bootloader.c ****     /* Copy operation status initialization */
 678:.\Generated_Source\PSoC4/Bootloader.c ****     cystatus copyStatus = CYRET_SUCCESS;
 679:.\Generated_Source\PSoC4/Bootloader.c ****     
 680:.\Generated_Source\PSoC4/Bootloader.c ****     /* Calculating number of rows for copying */
 681:.\Generated_Source\PSoC4/Bootloader.c ****     uint16 numberOfRows = srcLength / CYDEV_FLS_ROW_SIZE;
 682:.\Generated_Source\PSoC4/Bootloader.c ****     
 683:.\Generated_Source\PSoC4/Bootloader.c ****     if (0u != (srcLength % CYDEV_FLS_ROW_SIZE))
 684:.\Generated_Source\PSoC4/Bootloader.c ****     {
 685:.\Generated_Source\PSoC4/Bootloader.c ****         numberOfRows++;
 686:.\Generated_Source\PSoC4/Bootloader.c ****     }
 687:.\Generated_Source\PSoC4/Bootloader.c ****         
 688:.\Generated_Source\PSoC4/Bootloader.c ****     /*************************************************************************
 689:.\Generated_Source\PSoC4/Bootloader.c ****     * Copying the number of rows from source (temporary location) to destination.
 690:.\Generated_Source\PSoC4/Bootloader.c ****     * If the operation is unsuccessful, there will be a few more attempts to
 691:.\Generated_Source\PSoC4/Bootloader.c ****     * perform the copying operation (a number is defined by Bootloader_MAX_ATTEMPTS)
 692:.\Generated_Source\PSoC4/Bootloader.c ****     ***************************************************************************/
 693:.\Generated_Source\PSoC4/Bootloader.c ****     for(idx = 0; idx < numberOfRows; idx++)
 694:.\Generated_Source\PSoC4/Bootloader.c ****     {
 695:.\Generated_Source\PSoC4/Bootloader.c ****         copierAttempts = Bootloader_MAX_ATTEMPTS;
 696:.\Generated_Source\PSoC4/Bootloader.c ****         
 697:.\Generated_Source\PSoC4/Bootloader.c ****         do 
 698:.\Generated_Source\PSoC4/Bootloader.c ****         {
 699:.\Generated_Source\PSoC4/Bootloader.c ****             /* Copying row */
ARM GAS  C:\Users\LUKASC~1\AppData\Local\Temp\ccn8LSRc.s 			page 19


 700:.\Generated_Source\PSoC4/Bootloader.c ****             copyStatus = Bootloader_CopyRow(srcRow + idx, dstRow + idx);
 701:.\Generated_Source\PSoC4/Bootloader.c ****             
 702:.\Generated_Source\PSoC4/Bootloader.c ****             /* Decrementing counter of attempts to repeat copying operation */
 703:.\Generated_Source\PSoC4/Bootloader.c ****             copierAttempts--;       
 704:.\Generated_Source\PSoC4/Bootloader.c ****         } while ((CYRET_SUCCESS != copyStatus) && (0u != copierAttempts));
 705:.\Generated_Source\PSoC4/Bootloader.c **** 
 706:.\Generated_Source\PSoC4/Bootloader.c ****         
 707:.\Generated_Source\PSoC4/Bootloader.c ****         /*************************************************************************
 708:.\Generated_Source\PSoC4/Bootloader.c ****         * If a problem occurs, when a row can't be copied, "CopyFlag" should be
 709:.\Generated_Source\PSoC4/Bootloader.c ****         * cleared to prevent the recurrent copying that might follow the software reset.        
 710:.\Generated_Source\PSoC4/Bootloader.c ****         ***************************************************************************/
 711:.\Generated_Source\PSoC4/Bootloader.c ****         if (CYRET_SUCCESS != copyStatus)
 712:.\Generated_Source\PSoC4/Bootloader.c ****         {
 713:.\Generated_Source\PSoC4/Bootloader.c ****             /* Clear copy flag in metadata#1 */
 714:.\Generated_Source\PSoC4/Bootloader.c ****             Bootloader_SetFlashByte(Bootloader_MD_BTLDB_COPY_FLAG_OFFSET(Bootloader_MD_BTLDB_ACTIVE
 715:.\Generated_Source\PSoC4/Bootloader.c ****                                          (copyFlag & (~Bootloader_NEED_TO_COPY_SET_BIT)));
 716:.\Generated_Source\PSoC4/Bootloader.c ****                 
 717:.\Generated_Source\PSoC4/Bootloader.c ****             /* Callback macro definition */
 718:.\Generated_Source\PSoC4/Bootloader.c ****             #if (0u != LAUNCHER_COPIER_CALLBACK)
 719:.\Generated_Source\PSoC4/Bootloader.c ****                 Bootloader_CopierCallback();
 720:.\Generated_Source\PSoC4/Bootloader.c ****             #endif /* 0u != LAUNCHER_COPIER_CALLBACK */ 
 721:.\Generated_Source\PSoC4/Bootloader.c ****             
 722:.\Generated_Source\PSoC4/Bootloader.c ****             /*************************************************************************
 723:.\Generated_Source\PSoC4/Bootloader.c ****             * If the copying operation was unsuccessful after certain number of attempts
 724:.\Generated_Source\PSoC4/Bootloader.c ****             * and Bootloader_CopierCallback() is either undefined or returns, then the
 725:.\Generated_Source\PSoC4/Bootloader.c ****             * device should be halted.
 726:.\Generated_Source\PSoC4/Bootloader.c ****             *************************************************************************/
 727:.\Generated_Source\PSoC4/Bootloader.c ****             CyHalt(0x00u);
 728:.\Generated_Source\PSoC4/Bootloader.c ****         }
 729:.\Generated_Source\PSoC4/Bootloader.c ****     }    
 730:.\Generated_Source\PSoC4/Bootloader.c ****     
 731:.\Generated_Source\PSoC4/Bootloader.c ****     /* Copy metadata app#2 -> app#1*/
 732:.\Generated_Source\PSoC4/Bootloader.c ****     if (CYRET_SUCCESS == copyStatus)
 733:.\Generated_Source\PSoC4/Bootloader.c ****     {
 734:.\Generated_Source\PSoC4/Bootloader.c ****         /******************************************************************************
 735:.\Generated_Source\PSoC4/Bootloader.c ****         *                               Metadata#1 update             
 736:.\Generated_Source\PSoC4/Bootloader.c ****         ******************************************************************************/
 737:.\Generated_Source\PSoC4/Bootloader.c ****         /* Getting start address of metadata #2 */
 738:.\Generated_Source\PSoC4/Bootloader.c ****         uint32 metaStartAddr = Bootloader_MD_BASE_ADDR(Bootloader_MD_BTLDB_ACTIVE_1) + 
 739:.\Generated_Source\PSoC4/Bootloader.c ****                                Bootloader_MD_SIZEOF - CYDEV_FLS_ROW_SIZE; 
 740:.\Generated_Source\PSoC4/Bootloader.c ****         
 741:.\Generated_Source\PSoC4/Bootloader.c ****         /* Read all data from metadata #2 */
 742:.\Generated_Source\PSoC4/Bootloader.c ****         for (idx = 0u; idx < CYDEV_FLS_ROW_SIZE; idx++)
 743:.\Generated_Source\PSoC4/Bootloader.c ****         {
 744:.\Generated_Source\PSoC4/Bootloader.c ****             metaBuf[idx] = Bootloader_GET_CODE_BYTE(metaStartAddr + idx);
 745:.\Generated_Source\PSoC4/Bootloader.c ****         }
 746:.\Generated_Source\PSoC4/Bootloader.c ****         
 747:.\Generated_Source\PSoC4/Bootloader.c ****         /* Setting 'Copier available' flag (copyFlag field) in buffer to be stored in metadata#1 */
 748:.\Generated_Source\PSoC4/Bootloader.c ****         metaBuf[Bootloader_MD_BUFFER_START_OFFSET + Bootloader_MD_COPY_FLAG_BYTE_OFFSET] = Bootload
 749:.\Generated_Source\PSoC4/Bootloader.c **** 
 750:.\Generated_Source\PSoC4/Bootloader.c ****         /* Set active app#1 */
 751:.\Generated_Source\PSoC4/Bootloader.c ****         Bootloader_activeApp = Bootloader_MD_BTLDB_ACTIVE_0;
 752:.\Generated_Source\PSoC4/Bootloader.c ****         
 753:.\Generated_Source\PSoC4/Bootloader.c ****         /* Setting app#1 as active application in buffer to be stored in metadata#1 */
 754:.\Generated_Source\PSoC4/Bootloader.c ****         metaBuf[Bootloader_MD_BUFFER_START_OFFSET + Bootloader_MD_ACTIVE_APP_BYTE_OFFSET] = 0x01u; 
 755:.\Generated_Source\PSoC4/Bootloader.c **** 
 756:.\Generated_Source\PSoC4/Bootloader.c ****         /* Setting app#1 as valid for 'Fast validation' to be stored in metadata#1 */
ARM GAS  C:\Users\LUKASC~1\AppData\Local\Temp\ccn8LSRc.s 			page 20


 757:.\Generated_Source\PSoC4/Bootloader.c ****         metaBuf[Bootloader_MD_BUFFER_START_OFFSET + Bootloader_MD_FAST_VALID_BYTE_OFFSET] = 0x01u; 
 758:.\Generated_Source\PSoC4/Bootloader.c **** 
 759:.\Generated_Source\PSoC4/Bootloader.c ****         /* Update metadata#1 in flash */
 760:.\Generated_Source\PSoC4/Bootloader.c ****         copyStatus = CySysFlashWriteRow((uint16) (CY_FLASH_NUMBER_ROWS - 1u), metaBuf);  
 761:.\Generated_Source\PSoC4/Bootloader.c **** 
 762:.\Generated_Source\PSoC4/Bootloader.c ****         /******************************************************************************
 763:.\Generated_Source\PSoC4/Bootloader.c ****         *                               Metadata#2 update  
 764:.\Generated_Source\PSoC4/Bootloader.c ****         * Clear the whole buffer for metadata#2, which will make it invalid. 
 765:.\Generated_Source\PSoC4/Bootloader.c ****         * The 'Need-to-copy' flag will be cleared and app#2 will be set as non-active. 
 766:.\Generated_Source\PSoC4/Bootloader.c ****         *******************************************************************************/
 767:.\Generated_Source\PSoC4/Bootloader.c ****         (void) memset(&metaBuf, 0x00u, sizeof(metaBuf));
 768:.\Generated_Source\PSoC4/Bootloader.c ****         
 769:.\Generated_Source\PSoC4/Bootloader.c ****         /* Updating metadata#2 in flash */
 770:.\Generated_Source\PSoC4/Bootloader.c ****         copyStatus |= CySysFlashWriteRow((uint16) (CY_FLASH_NUMBER_ROWS - 2u), metaBuf);          
 771:.\Generated_Source\PSoC4/Bootloader.c ****     }
 772:.\Generated_Source\PSoC4/Bootloader.c ****     
 773:.\Generated_Source\PSoC4/Bootloader.c ****     if (CYRET_SUCCESS == copyStatus)
 774:.\Generated_Source\PSoC4/Bootloader.c ****     {
 775:.\Generated_Source\PSoC4/Bootloader.c ****         /* Schedule*/
 776:.\Generated_Source\PSoC4/Bootloader.c ****         Bootloader_SET_RUN_TYPE(Bootloader_SCHEDULE_BTLDB);
 777:.\Generated_Source\PSoC4/Bootloader.c **** 
 778:.\Generated_Source\PSoC4/Bootloader.c ****         /* Software reset */
 779:.\Generated_Source\PSoC4/Bootloader.c ****         CySoftwareReset();
 780:.\Generated_Source\PSoC4/Bootloader.c ****     }
 781:.\Generated_Source\PSoC4/Bootloader.c ****     else
 782:.\Generated_Source\PSoC4/Bootloader.c ****     {
 783:.\Generated_Source\PSoC4/Bootloader.c ****         /* Halt device */
 784:.\Generated_Source\PSoC4/Bootloader.c ****         CyHalt(0x00u);
 785:.\Generated_Source\PSoC4/Bootloader.c ****     }
 786:.\Generated_Source\PSoC4/Bootloader.c **** }
 787:.\Generated_Source\PSoC4/Bootloader.c **** #endif /*(0u != Bootloader_COPIER_AVAIL) && (CY_PSOC4)*/
 788:.\Generated_Source\PSoC4/Bootloader.c **** #endif /*(CYDEV_PROJ_TYPE == CYDEV_PROJ_TYPE_LAUNCHER)*/
 789:.\Generated_Source\PSoC4/Bootloader.c **** 
 790:.\Generated_Source\PSoC4/Bootloader.c **** 
 791:.\Generated_Source\PSoC4/Bootloader.c **** /*******************************************************************************
 792:.\Generated_Source\PSoC4/Bootloader.c **** * Function Name: Bootloader_Start
 793:.\Generated_Source\PSoC4/Bootloader.c **** ****************************************************************************//**
 794:.\Generated_Source\PSoC4/Bootloader.c **** * \brief
 795:.\Generated_Source\PSoC4/Bootloader.c **** *  This function is called to execute the following algorithm:
 796:.\Generated_Source\PSoC4/Bootloader.c **** *
 797:.\Generated_Source\PSoC4/Bootloader.c **** * -    Validate the Bootloadable application for the Classic Single-app Bootloader or 
 798:.\Generated_Source\PSoC4/Bootloader.c **** *   both Bootloadable/Combination applications for the Classic Dual-app Bootloader/
 799:.\Generated_Source\PSoC4/Bootloader.c **** *   Launch-only Bootloader (Launcher for short) respectively.
 800:.\Generated_Source\PSoC4/Bootloader.c **** *  
 801:.\Generated_Source\PSoC4/Bootloader.c **** * -    For the Classic Single-app Bootloader: if the Bootloadable application is valid, 
 802:.\Generated_Source\PSoC4/Bootloader.c **** *   then the flow switches to it after a software reset. Otherwise it stays in 
 803:.\Generated_Source\PSoC4/Bootloader.c **** *   the Bootloader, waiting for a command(s) from the host.
 804:.\Generated_Source\PSoC4/Bootloader.c **** * 
 805:.\Generated_Source\PSoC4/Bootloader.c **** * -    For the Classic Dual-app Bootloader: the flow acts according to the switching table 
 806:.\Generated_Source\PSoC4/Bootloader.c **** *  (see in the code below) and enabled/disabled options (for instance, auto-switching).
 807:.\Generated_Source\PSoC4/Bootloader.c **** *   NOTE If the valid Bootloadable application is identified, then the control is passed 
 808:.\Generated_Source\PSoC4/Bootloader.c **** *   to it after a software reset. Otherwise it stays in the Classic Dual-app Bootloader 
 809:.\Generated_Source\PSoC4/Bootloader.c **** *   waiting for a command(s) from the host.
 810:.\Generated_Source\PSoC4/Bootloader.c **** * 
 811:.\Generated_Source\PSoC4/Bootloader.c **** * -    For the Launcher: the flow acts according to the switching table (see below) and 
 812:.\Generated_Source\PSoC4/Bootloader.c **** *   enabled/disabled options. NOTE If the valid Combination application is identified, then 
 813:.\Generated_Source\PSoC4/Bootloader.c **** *   the control is passed to it after a software reset. Otherwise it stays in the Launcher 
ARM GAS  C:\Users\LUKASC~1\AppData\Local\Temp\ccn8LSRc.s 			page 21


 814:.\Generated_Source\PSoC4/Bootloader.c **** *   forever.
 815:.\Generated_Source\PSoC4/Bootloader.c **** * 
 816:.\Generated_Source\PSoC4/Bootloader.c **** * -    Validate the Bootloader/Launcher application(s) (design-time configurable, Bootloader 
 817:.\Generated_Source\PSoC4/Bootloader.c **** *   application validation option of the component customizer).
 818:.\Generated_Source\PSoC4/Bootloader.c **** * 
 819:.\Generated_Source\PSoC4/Bootloader.c **** * -    Run a communication subroutine (design-time configurable, the Wait for command 
 820:.\Generated_Source\PSoC4/Bootloader.c **** *   option of the component customizer). NOTE This is NOT applicable for the Launcher.
 821:.\Generated_Source\PSoC4/Bootloader.c **** *
 822:.\Generated_Source\PSoC4/Bootloader.c **** * -    Schedule the Bootloadable and reset the device.
 823:.\Generated_Source\PSoC4/Bootloader.c **** *
 824:.\Generated_Source\PSoC4/Bootloader.c **** *  \ref page_switching_logic
 825:.\Generated_Source\PSoC4/Bootloader.c **** *
 826:.\Generated_Source\PSoC4/Bootloader.c **** * \return
 827:.\Generated_Source\PSoC4/Bootloader.c **** *  This method will never return. It will either load a new application and
 828:.\Generated_Source\PSoC4/Bootloader.c **** *  reset the device or jump directly to the existing application. The CPU is
 829:.\Generated_Source\PSoC4/Bootloader.c **** *  halted, if the validation fails when the "Bootloader application validation" 
 830:.\Generated_Source\PSoC4/Bootloader.c **** *  option is enabled.
 831:.\Generated_Source\PSoC4/Bootloader.c **** *  PSoC 3/PSoC 5: The CPU is halted if flash initialization fails.
 832:.\Generated_Source\PSoC4/Bootloader.c **** *
 833:.\Generated_Source\PSoC4/Bootloader.c **** * \details
 834:.\Generated_Source\PSoC4/Bootloader.c **** *  If the "Bootloader application validation" option is enabled and this method
 835:.\Generated_Source\PSoC4/Bootloader.c **** *  determines that the Bootloader application itself is corrupt, this method
 836:.\Generated_Source\PSoC4/Bootloader.c **** *  will not return, instead it will simply hang the application.   
 837:.\Generated_Source\PSoC4/Bootloader.c **** *******************************************************************************/
 838:.\Generated_Source\PSoC4/Bootloader.c **** void Bootloader_Start(void) CYSMALL 
 839:.\Generated_Source\PSoC4/Bootloader.c **** {
 324              		.loc 1 839 0
 325              		.cfi_startproc
 326 0000 90B5     		push	{r4, r7, lr}
 327              		.cfi_def_cfa_offset 12
 328              		.cfi_offset 4, -12
 329              		.cfi_offset 7, -8
 330              		.cfi_offset 14, -4
 331 0002 83B0     		sub	sp, sp, #12
 332              		.cfi_def_cfa_offset 24
 333 0004 00AF     		add	r7, sp, #0
 334              		.cfi_def_cfa_register 7
 840:.\Generated_Source\PSoC4/Bootloader.c **** 
 841:.\Generated_Source\PSoC4/Bootloader.c **** #if (CYDEV_PROJ_TYPE != CYDEV_PROJ_TYPE_LOADABLEANDBOOTLOADER)
 842:.\Generated_Source\PSoC4/Bootloader.c **** 
 843:.\Generated_Source\PSoC4/Bootloader.c ****     #if(0u != Bootloader_DUAL_APP_BOOTLOADER)
 844:.\Generated_Source\PSoC4/Bootloader.c ****         cystatus app0Status = CYRET_BAD_DATA;
 845:.\Generated_Source\PSoC4/Bootloader.c ****         cystatus app1Status = CYRET_BAD_DATA;  
 846:.\Generated_Source\PSoC4/Bootloader.c ****     #endif /*0u != Bootloader_DUAL_APP_BOOTLOADER*/
 847:.\Generated_Source\PSoC4/Bootloader.c ****     
 848:.\Generated_Source\PSoC4/Bootloader.c ****     cystatus validApp  = CYRET_BAD_DATA;
 335              		.loc 1 848 0
 336 0006 0623     		mov	r3, #6
 337 0008 7B60     		str	r3, [r7, #4]
 849:.\Generated_Source\PSoC4/Bootloader.c **** 
 850:.\Generated_Source\PSoC4/Bootloader.c ****     #if(0u != Bootloader_BOOTLOADER_APP_VALIDATION)
 851:.\Generated_Source\PSoC4/Bootloader.c ****         uint8 CYDATA calcedChecksum;
 852:.\Generated_Source\PSoC4/Bootloader.c ****     #endif    /* (0u != Bootloader_BOOTLOADER_APP_VALIDATION) */
 853:.\Generated_Source\PSoC4/Bootloader.c **** 
 854:.\Generated_Source\PSoC4/Bootloader.c ****     #if(!CY_PSOC4)
 855:.\Generated_Source\PSoC4/Bootloader.c ****         #if(0u != Bootloader_FAST_APP_VALIDATION)
 856:.\Generated_Source\PSoC4/Bootloader.c ****             /* Initialize flash subsystem for non-PSoC 4 devices */
ARM GAS  C:\Users\LUKASC~1\AppData\Local\Temp\ccn8LSRc.s 			page 22


 857:.\Generated_Source\PSoC4/Bootloader.c ****             if (CYRET_SUCCESS != CySetTemp())
 858:.\Generated_Source\PSoC4/Bootloader.c ****             {
 859:.\Generated_Source\PSoC4/Bootloader.c ****                 CyHalt(0x00u);
 860:.\Generated_Source\PSoC4/Bootloader.c ****             }
 861:.\Generated_Source\PSoC4/Bootloader.c **** 
 862:.\Generated_Source\PSoC4/Bootloader.c ****             #if !defined(CY_BOOT_VERSION)
 863:.\Generated_Source\PSoC4/Bootloader.c ****                 /* Not required with cy_boot 4.20 */
 864:.\Generated_Source\PSoC4/Bootloader.c ****                 if (CYRET_SUCCESS != CySetFlashEEBuffer(Bootloader_flashBuffer))
 865:.\Generated_Source\PSoC4/Bootloader.c ****                 {
 866:.\Generated_Source\PSoC4/Bootloader.c ****                     CyHalt(0x00u);
 867:.\Generated_Source\PSoC4/Bootloader.c ****                 }
 868:.\Generated_Source\PSoC4/Bootloader.c **** 
 869:.\Generated_Source\PSoC4/Bootloader.c ****                 uint8 CYXDATA Bootloader_flashBuffer[Bootloader_FROW_SIZE];
 870:.\Generated_Source\PSoC4/Bootloader.c ****             #endif /* !defined(CY_BOOT_VERSION) */
 871:.\Generated_Source\PSoC4/Bootloader.c ****         #endif  /* (0u != Bootloader_FAST_APP_VALIDATION) */
 872:.\Generated_Source\PSoC4/Bootloader.c ****     #endif  /* (!CY_PSOC4) */
 873:.\Generated_Source\PSoC4/Bootloader.c **** 
 874:.\Generated_Source\PSoC4/Bootloader.c ****     #if (CYDEV_PROJ_TYPE == CYDEV_PROJ_TYPE_LAUNCHER) 
 875:.\Generated_Source\PSoC4/Bootloader.c ****     #if ((0u != Bootloader_COPIER_AVAIL) && (CY_PSOC4))
 876:.\Generated_Source\PSoC4/Bootloader.c ****         /* Checking "need-to-copy" flag in metadata#1. If it is set, then copy operation is require
 877:.\Generated_Source\PSoC4/Bootloader.c ****         uint8 needToCopyFlag = Bootloader_GetMetadata(Bootloader_GET_BTLDB_COPY_FLAG, 
 878:.\Generated_Source\PSoC4/Bootloader.c ****                                                         Bootloader_MD_BTLDB_ACTIVE_1);             
 879:.\Generated_Source\PSoC4/Bootloader.c ****         
 880:.\Generated_Source\PSoC4/Bootloader.c ****         /* Checking "Need to copy" flag in metadata#1 */
 881:.\Generated_Source\PSoC4/Bootloader.c ****         if (0u != (needToCopyFlag & Bootloader_NEED_TO_COPY_MASK))
 882:.\Generated_Source\PSoC4/Bootloader.c ****         {
 883:.\Generated_Source\PSoC4/Bootloader.c ****             /* Note that this function never returns */
 884:.\Generated_Source\PSoC4/Bootloader.c ****             Bootloader_Copier();
 885:.\Generated_Source\PSoC4/Bootloader.c ****         }
 886:.\Generated_Source\PSoC4/Bootloader.c ****     #endif  /* (CYDEV_PROJ_TYPE == CYDEV_PROJ_TYPE_LAUNCHER) */
 887:.\Generated_Source\PSoC4/Bootloader.c ****     #endif  /* (0u != Bootloader_COPIER_AVAIL) && (CY_PSOC4)*/
 888:.\Generated_Source\PSoC4/Bootloader.c ****         
 889:.\Generated_Source\PSoC4/Bootloader.c ****     /* Identify active Bootloadable/Combination application */
 890:.\Generated_Source\PSoC4/Bootloader.c ****     #if (0u != Bootloader_DUAL_APP_BOOTLOADER)
 891:.\Generated_Source\PSoC4/Bootloader.c ****         app0Status = Bootloader_ValidateBootloadable(Bootloader_MD_BTLDB_ACTIVE_0);
 892:.\Generated_Source\PSoC4/Bootloader.c ****         app1Status = Bootloader_ValidateBootloadable(Bootloader_MD_BTLDB_ACTIVE_1);  
 893:.\Generated_Source\PSoC4/Bootloader.c **** 
 894:.\Generated_Source\PSoC4/Bootloader.c ****         /* Assumes no active Bootloadable application. Bootloader is active. */
 895:.\Generated_Source\PSoC4/Bootloader.c ****         Bootloader_activeApp = Bootloader_MD_BTLDB_ACTIVE_NONE;
 896:.\Generated_Source\PSoC4/Bootloader.c **** 
 897:.\Generated_Source\PSoC4/Bootloader.c ****         /* Bootloadable app#1 is active */
 898:.\Generated_Source\PSoC4/Bootloader.c ****         if(Bootloader_GetMetadata(Bootloader_GET_BTLDB_ACTIVE, Bootloader_MD_BTLDB_ACTIVE_0) == \
 899:.\Generated_Source\PSoC4/Bootloader.c ****                                                                            Bootloader_MD_BTLDB_IS_A
 900:.\Generated_Source\PSoC4/Bootloader.c ****         {
 901:.\Generated_Source\PSoC4/Bootloader.c ****             /**************************************************************************************
 902:.\Generated_Source\PSoC4/Bootloader.c ****             * -------------------------------------------------------------------------------------
 903:.\Generated_Source\PSoC4/Bootloader.c ****             * |      |      app#1     |      app#2     |        Classic Dual-app       |     Launch
 904:.\Generated_Source\PSoC4/Bootloader.c ****             * | Case |---------------------------------|          Bootloader           |           
 905:.\Generated_Source\PSoC4/Bootloader.c ****             * |      | Active | Valid | Active | Valid |                               |           
 906:.\Generated_Source\PSoC4/Bootloader.c ****             * |------------------------------------------------------------------------------------
 907:.\Generated_Source\PSoC4/Bootloader.c ****             * |  9   |    1   |   0   |   0    |   0   | Bootloader                    | Launcher  
 908:.\Generated_Source\PSoC4/Bootloader.c ****             * |  10  |    1   |   0   |   0    |   1   | app#2, except if auto-app     | app#2     
 909:.\Generated_Source\PSoC4/Bootloader.c ****             * |      |        |       |        |       | switching is disabled, then   |           
 910:.\Generated_Source\PSoC4/Bootloader.c ****             * |      |        |       |        |       | stay in Bootloader            |           
 911:.\Generated_Source\PSoC4/Bootloader.c ****             * |  11  |    1   |   0   |   1    |   0   | Bootloader                    | Launcher  
 912:.\Generated_Source\PSoC4/Bootloader.c ****             * |  12  |    1   |   0   |   1    |   1   | app#2                         | app#2     
 913:.\Generated_Source\PSoC4/Bootloader.c ****             * |  13  |    1   |   1   |   0    |   0   | app#1                         | app#1     
ARM GAS  C:\Users\LUKASC~1\AppData\Local\Temp\ccn8LSRc.s 			page 23


 914:.\Generated_Source\PSoC4/Bootloader.c ****             * |  14  |    1   |   1   |   0    |   1   | app#1                         | app#1     
 915:.\Generated_Source\PSoC4/Bootloader.c ****             * |  15  |    1   |   1   |   1    |   0   | app#1                         | app#1     
 916:.\Generated_Source\PSoC4/Bootloader.c ****             * |  16  |    1   |   1   |   1    |   1   | app#1                         | app#1     
 917:.\Generated_Source\PSoC4/Bootloader.c ****             * -------------------------------------------------------------------------------------
 918:.\Generated_Source\PSoC4/Bootloader.c ****             ***************************************************************************************
 919:.\Generated_Source\PSoC4/Bootloader.c ****             if (CYRET_SUCCESS == app0Status)
 920:.\Generated_Source\PSoC4/Bootloader.c ****             {
 921:.\Generated_Source\PSoC4/Bootloader.c ****                 /* Cases # 13,  14, 15, and 16 */
 922:.\Generated_Source\PSoC4/Bootloader.c ****                 Bootloader_activeApp = Bootloader_MD_BTLDB_ACTIVE_0;
 923:.\Generated_Source\PSoC4/Bootloader.c ****                 validApp = CYRET_SUCCESS;
 924:.\Generated_Source\PSoC4/Bootloader.c ****             }
 925:.\Generated_Source\PSoC4/Bootloader.c ****             else /*Bootloadable app#1 is not valid*/
 926:.\Generated_Source\PSoC4/Bootloader.c ****             {
 927:.\Generated_Source\PSoC4/Bootloader.c ****                 #if (((1u == Bootloader_AUTO_SWITCHING_AVAIL) &&  \
 928:.\Generated_Source\PSoC4/Bootloader.c ****                       (CYDEV_PROJ_TYPE == CYDEV_PROJ_TYPE_MULTIAPPBOOTLOADER)) || \
 929:.\Generated_Source\PSoC4/Bootloader.c ****                       (CYDEV_PROJ_TYPE == CYDEV_PROJ_TYPE_LAUNCHER)) 
 930:.\Generated_Source\PSoC4/Bootloader.c ****                 if (CYRET_SUCCESS == app1Status )
 931:.\Generated_Source\PSoC4/Bootloader.c ****                 {
 932:.\Generated_Source\PSoC4/Bootloader.c ****                     /* Cases # 10 and 12 */
 933:.\Generated_Source\PSoC4/Bootloader.c ****                     Bootloader_activeApp = Bootloader_MD_BTLDB_ACTIVE_1;
 934:.\Generated_Source\PSoC4/Bootloader.c ****                     validApp = CYRET_SUCCESS;
 935:.\Generated_Source\PSoC4/Bootloader.c ****                 }
 936:.\Generated_Source\PSoC4/Bootloader.c ****                 #endif /*((1u == Bootloader_AUTO_SWITCHING_AVAIL) && 
 937:.\Generated_Source\PSoC4/Bootloader.c ****                           (CYDEV_PROJ_TYPE == CYDEV_PROJ_TYPE_MULTIAPPBOOTLOADER)) || 
 938:.\Generated_Source\PSoC4/Bootloader.c ****                           (CYDEV_PROJ_TYPE == CYDEV_PROJ_TYPE_LAUNCHER)*/
 939:.\Generated_Source\PSoC4/Bootloader.c ****             }
 940:.\Generated_Source\PSoC4/Bootloader.c ****         }
 941:.\Generated_Source\PSoC4/Bootloader.c **** 
 942:.\Generated_Source\PSoC4/Bootloader.c ****         /*  Active Bootloadable application is not identified */
 943:.\Generated_Source\PSoC4/Bootloader.c ****         if(Bootloader_activeApp == Bootloader_MD_BTLDB_ACTIVE_NONE)
 944:.\Generated_Source\PSoC4/Bootloader.c ****         {
 945:.\Generated_Source\PSoC4/Bootloader.c ****             /**************************************************************************************
 946:.\Generated_Source\PSoC4/Bootloader.c ****             * -------------------------------------------------------------------------------------
 947:.\Generated_Source\PSoC4/Bootloader.c ****             * |      |       app#1    |       app#2    |        Classic Dual-app       |     Launch
 948:.\Generated_Source\PSoC4/Bootloader.c ****             * | Case |---------------------------------|          Bootloader           |           
 949:.\Generated_Source\PSoC4/Bootloader.c ****             * |      | Active | Valid | Active | Valid |                               |           
 950:.\Generated_Source\PSoC4/Bootloader.c ****             * |------|-----------------------------------------------------------------------------
 951:.\Generated_Source\PSoC4/Bootloader.c ****             * |  1   |    0   |   0   |   0    |   0   | Bootloader                    | Launcher  
 952:.\Generated_Source\PSoC4/Bootloader.c ****             * |  2   |    0   |   0   |   0    |   1   | Bootloader                    | app#2     
 953:.\Generated_Source\PSoC4/Bootloader.c ****             * |  3   |    0   |   0   |   1    |   0   | Bootloader                    | Launcher  
 954:.\Generated_Source\PSoC4/Bootloader.c ****             * |  4   |    0   |   0   |   1    |   1   | app#2                         | app#2     
 955:.\Generated_Source\PSoC4/Bootloader.c ****             * |  5   |    0   |   1   |   0    |   0   | Bootloader                    | app#1     
 956:.\Generated_Source\PSoC4/Bootloader.c ****             * |  6   |    0   |   1   |   0    |   1   | Bootloader                    | app#1     
 957:.\Generated_Source\PSoC4/Bootloader.c ****             * |  7   |    0   |   1   |   1    |   0   | app#1, except if auto-app     | app#1     
 958:.\Generated_Source\PSoC4/Bootloader.c ****             * |      |        |       |        |       | switching is disabled, then   |           
 959:.\Generated_Source\PSoC4/Bootloader.c ****             * |      |        |       |        |       | stay in Bootloader            |           
 960:.\Generated_Source\PSoC4/Bootloader.c ****             * |  8   |    0   |   1   |   1    |   1   | app#2                         | app#2     
 961:.\Generated_Source\PSoC4/Bootloader.c ****             * -------------------------------------------------------------------------------------
 962:.\Generated_Source\PSoC4/Bootloader.c ****             ***************************************************************************************
 963:.\Generated_Source\PSoC4/Bootloader.c ****             if (Bootloader_GetMetadata(Bootloader_GET_BTLDB_ACTIVE, 1u) ==
 964:.\Generated_Source\PSoC4/Bootloader.c ****                     Bootloader_MD_BTLDB_IS_ACTIVE)
 965:.\Generated_Source\PSoC4/Bootloader.c ****             {
 966:.\Generated_Source\PSoC4/Bootloader.c ****                 /* Cases # 3, 4, 7, and 8 */
 967:.\Generated_Source\PSoC4/Bootloader.c ****                 if (CYRET_SUCCESS == app1Status)
 968:.\Generated_Source\PSoC4/Bootloader.c ****                 {
 969:.\Generated_Source\PSoC4/Bootloader.c ****                     /* Cases # 4 and 8 */
 970:.\Generated_Source\PSoC4/Bootloader.c ****                     Bootloader_activeApp = Bootloader_MD_BTLDB_ACTIVE_1;
ARM GAS  C:\Users\LUKASC~1\AppData\Local\Temp\ccn8LSRc.s 			page 24


 971:.\Generated_Source\PSoC4/Bootloader.c ****                     validApp = CYRET_SUCCESS;
 972:.\Generated_Source\PSoC4/Bootloader.c ****                 }
 973:.\Generated_Source\PSoC4/Bootloader.c ****                 else
 974:.\Generated_Source\PSoC4/Bootloader.c ****                 {
 975:.\Generated_Source\PSoC4/Bootloader.c ****                  #if (((1u == Bootloader_AUTO_SWITCHING_AVAIL) && \
 976:.\Generated_Source\PSoC4/Bootloader.c ****                        (CYDEV_PROJ_TYPE == CYDEV_PROJ_TYPE_MULTIAPPBOOTLOADER)) \
 977:.\Generated_Source\PSoC4/Bootloader.c ****                     || (CYDEV_PROJ_TYPE == CYDEV_PROJ_TYPE_LAUNCHER)) 
 978:.\Generated_Source\PSoC4/Bootloader.c ****                     if (CYRET_SUCCESS == app0Status)
 979:.\Generated_Source\PSoC4/Bootloader.c ****                     {
 980:.\Generated_Source\PSoC4/Bootloader.c ****                         /* Cases # 7 */
 981:.\Generated_Source\PSoC4/Bootloader.c ****                         Bootloader_activeApp = Bootloader_MD_BTLDB_ACTIVE_0;
 982:.\Generated_Source\PSoC4/Bootloader.c ****                         validApp = CYRET_SUCCESS;
 983:.\Generated_Source\PSoC4/Bootloader.c ****                     }
 984:.\Generated_Source\PSoC4/Bootloader.c ****                     #endif /*(((1u == Bootloader_AUTO_SWITCHING_AVAIL) && \
 985:.\Generated_Source\PSoC4/Bootloader.c ****                                (CYDEV_PROJ_TYPE == CYDEV_PROJ_TYPE_MULTIAPPBOOTLOADER)) \
 986:.\Generated_Source\PSoC4/Bootloader.c ****                             || (CYDEV_PROJ_TYPE == CYDEV_PROJ_TYPE_LAUNCHER))*/
 987:.\Generated_Source\PSoC4/Bootloader.c ****                 }
 988:.\Generated_Source\PSoC4/Bootloader.c ****             }
 989:.\Generated_Source\PSoC4/Bootloader.c ****         }
 990:.\Generated_Source\PSoC4/Bootloader.c ****         
 991:.\Generated_Source\PSoC4/Bootloader.c ****         #if (CYDEV_PROJ_TYPE == CYDEV_PROJ_TYPE_LAUNCHER) 
 992:.\Generated_Source\PSoC4/Bootloader.c ****             /*None of applications is active*/
 993:.\Generated_Source\PSoC4/Bootloader.c ****             if (Bootloader_MD_BTLDB_ACTIVE_NONE ==Bootloader_activeApp)
 994:.\Generated_Source\PSoC4/Bootloader.c ****             {
 995:.\Generated_Source\PSoC4/Bootloader.c ****                 /*case#5, case#6: pass control to Bootloadable app#1*/
 996:.\Generated_Source\PSoC4/Bootloader.c ****                 if(CYRET_SUCCESS == app0Status)
 997:.\Generated_Source\PSoC4/Bootloader.c ****                 {
 998:.\Generated_Source\PSoC4/Bootloader.c ****                     Bootloader_activeApp = Bootloader_MD_BTLDB_ACTIVE_0;
 999:.\Generated_Source\PSoC4/Bootloader.c ****                     validApp = CYRET_SUCCESS;
1000:.\Generated_Source\PSoC4/Bootloader.c ****                 }
1001:.\Generated_Source\PSoC4/Bootloader.c ****                 /*case#2: pass control to Bootloadable app#2*/
1002:.\Generated_Source\PSoC4/Bootloader.c ****                 else if (CYRET_SUCCESS == app1Status)
1003:.\Generated_Source\PSoC4/Bootloader.c ****                 {
1004:.\Generated_Source\PSoC4/Bootloader.c ****                     Bootloader_activeApp = Bootloader_MD_BTLDB_ACTIVE_1;
1005:.\Generated_Source\PSoC4/Bootloader.c ****                     validApp = CYRET_SUCCESS;
1006:.\Generated_Source\PSoC4/Bootloader.c ****                 }
1007:.\Generated_Source\PSoC4/Bootloader.c ****                 else
1008:.\Generated_Source\PSoC4/Bootloader.c ****                 {
1009:.\Generated_Source\PSoC4/Bootloader.c ****                     /* case#1, case#3, case#9, case#11: very bad situation, no valid application */
1010:.\Generated_Source\PSoC4/Bootloader.c ****                     /* Do nothing, stay in Bootloader/Launcher */
1011:.\Generated_Source\PSoC4/Bootloader.c ****                 }
1012:.\Generated_Source\PSoC4/Bootloader.c ****             }
1013:.\Generated_Source\PSoC4/Bootloader.c **** 
1014:.\Generated_Source\PSoC4/Bootloader.c **** 
1015:.\Generated_Source\PSoC4/Bootloader.c ****              /*********************************************************************************
1016:.\Generated_Source\PSoC4/Bootloader.c ****             * The next logic is an invalidation of the non-active application in the metadata
1017:.\Generated_Source\PSoC4/Bootloader.c ****             * section, because there could be a situation due to some error, when both  
1018:.\Generated_Source\PSoC4/Bootloader.c ****             * applications are set active (cases #12,15,16). Only one application can be active.
1019:.\Generated_Source\PSoC4/Bootloader.c ****             * This logic also stores the active application number in the metadata section.        
1020:.\Generated_Source\PSoC4/Bootloader.c ****             *********************************************************************************/
1021:.\Generated_Source\PSoC4/Bootloader.c ****             if (CYRET_SUCCESS == validApp)
1022:.\Generated_Source\PSoC4/Bootloader.c ****             {
1023:.\Generated_Source\PSoC4/Bootloader.c ****                 Bootloader_SetActiveAppInMetadata(Bootloader_activeApp);      
1024:.\Generated_Source\PSoC4/Bootloader.c ****             }
1025:.\Generated_Source\PSoC4/Bootloader.c ****         #endif /* CYDEV_PROJ_TYPE == CYDEV_PROJ_TYPE_LAUNCHER */
1026:.\Generated_Source\PSoC4/Bootloader.c ****     #else /*SINGLE_APP BOOTLOADER*/
1027:.\Generated_Source\PSoC4/Bootloader.c ****         if (CYRET_SUCCESS == Bootloader_ValidateBootloadable(Bootloader_MD_BTLDB_ACTIVE_0))
ARM GAS  C:\Users\LUKASC~1\AppData\Local\Temp\ccn8LSRc.s 			page 25


 338              		.loc 1 1027 0
 339 000a 0020     		mov	r0, #0
 340 000c FFF7FEFF 		bl	Bootloader_ValidateBootloadable
 341 0010 031E     		sub	r3, r0, #0
 342 0012 01D1     		bne	.L20
1028:.\Generated_Source\PSoC4/Bootloader.c ****         {
1029:.\Generated_Source\PSoC4/Bootloader.c ****             validApp = CYRET_SUCCESS;
 343              		.loc 1 1029 0
 344 0014 0023     		mov	r3, #0
 345 0016 7B60     		str	r3, [r7, #4]
 346              	.L20:
1030:.\Generated_Source\PSoC4/Bootloader.c ****         }
1031:.\Generated_Source\PSoC4/Bootloader.c ****     #endif  /* (0u != Bootloader_DUAL_APP_BOOTLOADER) */
1032:.\Generated_Source\PSoC4/Bootloader.c **** 
1033:.\Generated_Source\PSoC4/Bootloader.c ****     
1034:.\Generated_Source\PSoC4/Bootloader.c ****     /***********************************************************************
1035:.\Generated_Source\PSoC4/Bootloader.c ****     * Bootloader Application Validation
1036:.\Generated_Source\PSoC4/Bootloader.c ****     *
1037:.\Generated_Source\PSoC4/Bootloader.c ****     * Halt the device if:
1038:.\Generated_Source\PSoC4/Bootloader.c ****     *  - A calculated checksum does not match the one stored in the metadata
1039:.\Generated_Source\PSoC4/Bootloader.c ****     *     section.
1040:.\Generated_Source\PSoC4/Bootloader.c ****     *  - There is an invalid pointer to the place where the Bootloader
1041:.\Generated_Source\PSoC4/Bootloader.c ****     *    application ends.
1042:.\Generated_Source\PSoC4/Bootloader.c ****     *  - The flash subsystem was not initialized correctly.
1043:.\Generated_Source\PSoC4/Bootloader.c ****     ***********************************************************************/
1044:.\Generated_Source\PSoC4/Bootloader.c ****     #if(0u != Bootloader_BOOTLOADER_APP_VALIDATION)
1045:.\Generated_Source\PSoC4/Bootloader.c **** 
1046:.\Generated_Source\PSoC4/Bootloader.c ****         /* Calculate Bootloader application checksum */
1047:.\Generated_Source\PSoC4/Bootloader.c ****         calcedChecksum = Bootloader_Calc8BitSum(CY_FLASH_BASE,
1048:.\Generated_Source\PSoC4/Bootloader.c ****                 Bootloader_MD_BTLDR_ADDR_PTR,
1049:.\Generated_Source\PSoC4/Bootloader.c ****                 *Bootloader_SizeBytesAccess - Bootloader_MD_BTLDR_ADDR_PTR);
 347              		.loc 1 1049 0
 348 0018 1E4B     		ldr	r3, .L25
 349 001a 1B68     		ldr	r3, [r3]
 350 001c 1B68     		ldr	r3, [r3]
1047:.\Generated_Source\PSoC4/Bootloader.c ****                 Bootloader_MD_BTLDR_ADDR_PTR,
 351              		.loc 1 1047 0
 352 001e C03B     		sub	r3, r3, #192
 353 0020 FC1C     		add	r4, r7, #3
 354 0022 0020     		mov	r0, #0
 355 0024 C021     		mov	r1, #192
 356 0026 1A1C     		mov	r2, r3
 357 0028 FFF7FEFF 		bl	Bootloader_Calc8BitSum
 358 002c 031C     		mov	r3, r0
 359 002e 2370     		strb	r3, [r4]
1050:.\Generated_Source\PSoC4/Bootloader.c **** 
1051:.\Generated_Source\PSoC4/Bootloader.c ****         /* We included checksum, so remove it */
1052:.\Generated_Source\PSoC4/Bootloader.c ****         calcedChecksum -= *Bootloader_ChecksumAccess;
 360              		.loc 1 1052 0
 361 0030 194B     		ldr	r3, .L25+4
 362 0032 1B68     		ldr	r3, [r3]
 363 0034 1A78     		ldrb	r2, [r3]
 364 0036 FB1C     		add	r3, r7, #3
 365 0038 F91C     		add	r1, r7, #3
 366 003a 0978     		ldrb	r1, [r1]
 367 003c 8A1A     		sub	r2, r1, r2
 368 003e 1A70     		strb	r2, [r3]
ARM GAS  C:\Users\LUKASC~1\AppData\Local\Temp\ccn8LSRc.s 			page 26


1053:.\Generated_Source\PSoC4/Bootloader.c ****         calcedChecksum = ( uint8 )1u + ( uint8 )(~calcedChecksum);
 369              		.loc 1 1053 0
 370 0040 FB1C     		add	r3, r7, #3
 371 0042 FA1C     		add	r2, r7, #3
 372 0044 1278     		ldrb	r2, [r2]
 373 0046 5242     		neg	r2, r2
 374 0048 1A70     		strb	r2, [r3]
1054:.\Generated_Source\PSoC4/Bootloader.c **** 
1055:.\Generated_Source\PSoC4/Bootloader.c ****         /* Checksum and pointer to Bootloader verification */
1056:.\Generated_Source\PSoC4/Bootloader.c ****         if((calcedChecksum != *Bootloader_ChecksumAccess) ||
 375              		.loc 1 1056 0
 376 004a 134B     		ldr	r3, .L25+4
 377 004c 1B68     		ldr	r3, [r3]
 378 004e 1B78     		ldrb	r3, [r3]
 379 0050 FA1C     		add	r2, r7, #3
 380 0052 1278     		ldrb	r2, [r2]
 381 0054 9A42     		cmp	r2, r3
 382 0056 04D1     		bne	.L21
1057:.\Generated_Source\PSoC4/Bootloader.c ****            (0u == *Bootloader_SizeBytesAccess))
 383              		.loc 1 1057 0 discriminator 1
 384 0058 0E4B     		ldr	r3, .L25
 385 005a 1B68     		ldr	r3, [r3]
 386 005c 1B68     		ldr	r3, [r3]
1056:.\Generated_Source\PSoC4/Bootloader.c ****            (0u == *Bootloader_SizeBytesAccess))
 387              		.loc 1 1056 0 discriminator 1
 388 005e 002B     		cmp	r3, #0
 389 0060 02D1     		bne	.L22
 390              	.L21:
1058:.\Generated_Source\PSoC4/Bootloader.c ****         {
1059:.\Generated_Source\PSoC4/Bootloader.c ****             /***********************************************************************
1060:.\Generated_Source\PSoC4/Bootloader.c ****             * If the Bootloader/Launcher application calculated checksum does not match
1061:.\Generated_Source\PSoC4/Bootloader.c ****             * the checksum stored in special Bootloader_Checksum constant 
1062:.\Generated_Source\PSoC4/Bootloader.c ****             * (accessed through Bootloader_ChecksumAccess) constant or its size 
1063:.\Generated_Source\PSoC4/Bootloader.c ****             * stored in Bootloader_SizeBytes constant (accessed through
1064:.\Generated_Source\PSoC4/Bootloader.c ****             * Bootloader_SizeBytesAccess) then CPU is halted, all software 
1065:.\Generated_Source\PSoC4/Bootloader.c ****             * processing stops. 
1066:.\Generated_Source\PSoC4/Bootloader.c ****             ***********************************************************************/
1067:.\Generated_Source\PSoC4/Bootloader.c ****             CyHalt(0x00u);
 391              		.loc 1 1067 0
 392 0062 0020     		mov	r0, #0
 393 0064 FFF7FEFF 		bl	CyHalt
 394              	.L22:
1068:.\Generated_Source\PSoC4/Bootloader.c ****         }
1069:.\Generated_Source\PSoC4/Bootloader.c **** 
1070:.\Generated_Source\PSoC4/Bootloader.c ****     #endif /* 0u != Bootloader_BOOTLOADER_APP_VALIDATION */
1071:.\Generated_Source\PSoC4/Bootloader.c **** #endif /* CYDEV_PROJ_TYPE != CYDEV_PROJ_TYPE_LOADABLEANDBOOTLOADER*/ 
1072:.\Generated_Source\PSoC4/Bootloader.c **** 
1073:.\Generated_Source\PSoC4/Bootloader.c **** #if (CYDEV_PROJ_TYPE != CYDEV_PROJ_TYPE_LAUNCHER)    
1074:.\Generated_Source\PSoC4/Bootloader.c ****     /***********************************************************************
1075:.\Generated_Source\PSoC4/Bootloader.c ****     * If the active Bootloadable application is invalid or scheduled - do the following:
1076:.\Generated_Source\PSoC4/Bootloader.c ****     *  - schedule the Bootloader application to be run after a software reset;
1077:.\Generated_Source\PSoC4/Bootloader.c ****     *  - go to the communication subroutine. The HostLink() will wait for
1078:.\Generated_Source\PSoC4/Bootloader.c ****     *    commands forever.
1079:.\Generated_Source\PSoC4/Bootloader.c ****     ***********************************************************************/
1080:.\Generated_Source\PSoC4/Bootloader.c ****     if ((Bootloader_GET_RUN_TYPE == Bootloader_SCHEDULE_BTLDR) 
 395              		.loc 1 1080 0
 396 0068 0C4B     		ldr	r3, .L25+8
ARM GAS  C:\Users\LUKASC~1\AppData\Local\Temp\ccn8LSRc.s 			page 27


 397 006a 1B68     		ldr	r3, [r3]
 398 006c 402B     		cmp	r3, #64
 399 006e 02D0     		beq	.L23
1081:.\Generated_Source\PSoC4/Bootloader.c **** #if (CYDEV_PROJ_TYPE != CYDEV_PROJ_TYPE_LOADABLEANDBOOTLOADER)        
1082:.\Generated_Source\PSoC4/Bootloader.c ****         || (CYRET_SUCCESS != validApp)
 400              		.loc 1 1082 0
 401 0070 7B68     		ldr	r3, [r7, #4]
 402 0072 002B     		cmp	r3, #0
 403 0074 05D0     		beq	.L24
 404              	.L23:
1083:.\Generated_Source\PSoC4/Bootloader.c **** #endif        
1084:.\Generated_Source\PSoC4/Bootloader.c ****         )
1085:.\Generated_Source\PSoC4/Bootloader.c ****     {
1086:.\Generated_Source\PSoC4/Bootloader.c ****         Bootloader_SET_RUN_TYPE(Bootloader_SCHEDULE_BTLDR_INIT_STATE);
 405              		.loc 1 1086 0
 406 0076 094B     		ldr	r3, .L25+8
 407 0078 0022     		mov	r2, #0
 408 007a 1A60     		str	r2, [r3]
1087:.\Generated_Source\PSoC4/Bootloader.c **** 
1088:.\Generated_Source\PSoC4/Bootloader.c ****         Bootloader_HostLink(Bootloader_WAIT_FOR_COMMAND_FOREVER);
 409              		.loc 1 1088 0
 410 007c 0020     		mov	r0, #0
 411 007e FFF7FEFF 		bl	Bootloader_HostLink
 412              	.L24:
1089:.\Generated_Source\PSoC4/Bootloader.c ****     }
1090:.\Generated_Source\PSoC4/Bootloader.c **** 
1091:.\Generated_Source\PSoC4/Bootloader.c ****     /* Go to communication subroutine. Will wait for commands for specified time */
1092:.\Generated_Source\PSoC4/Bootloader.c ****     #if(0u != Bootloader_WAIT_FOR_COMMAND)
1093:.\Generated_Source\PSoC4/Bootloader.c **** 
1094:.\Generated_Source\PSoC4/Bootloader.c ****         /* Timeout is in 100s of milliseconds */
1095:.\Generated_Source\PSoC4/Bootloader.c ****         Bootloader_HostLink(Bootloader_WAIT_FOR_COMMAND_TIME);
 413              		.loc 1 1095 0
 414 0082 1420     		mov	r0, #20
 415 0084 FFF7FEFF 		bl	Bootloader_HostLink
1096:.\Generated_Source\PSoC4/Bootloader.c **** 
1097:.\Generated_Source\PSoC4/Bootloader.c ****     #endif  /* (0u != Bootloader_WAIT_FOR_COMMAND) */
1098:.\Generated_Source\PSoC4/Bootloader.c **** #else /* Launcher */
1099:.\Generated_Source\PSoC4/Bootloader.c ****     /* If none Bootloadable application is valid */
1100:.\Generated_Source\PSoC4/Bootloader.c ****     if (CYRET_SUCCESS != validApp)
1101:.\Generated_Source\PSoC4/Bootloader.c ****     {   
1102:.\Generated_Source\PSoC4/Bootloader.c ****         CyHalt(0x00u);
1103:.\Generated_Source\PSoC4/Bootloader.c ****     }         
1104:.\Generated_Source\PSoC4/Bootloader.c **** #endif /*CYDEV_PROJ_TYPE != CYDEV_PROJ_TYPE_LAUNCHER*/    
1105:.\Generated_Source\PSoC4/Bootloader.c **** 
1106:.\Generated_Source\PSoC4/Bootloader.c **** #if (CYDEV_PROJ_TYPE != CYDEV_PROJ_TYPE_LOADABLEANDBOOTLOADER)             
1107:.\Generated_Source\PSoC4/Bootloader.c ****     /* Schedule Bootloadable application and perform software reset */
1108:.\Generated_Source\PSoC4/Bootloader.c ****     Bootloader_LaunchApplication();
 416              		.loc 1 1108 0
 417 0088 FFF7FEFF 		bl	Bootloader_LaunchApplication
1109:.\Generated_Source\PSoC4/Bootloader.c **** #endif /*(CYDEV_PROJ_TYPE != CYDEV_PROJ_TYPE_LOADABLEANDBOOTLOADER)*/    
1110:.\Generated_Source\PSoC4/Bootloader.c **** }
 418              		.loc 1 1110 0
 419 008c BD46     		mov	sp, r7
 420 008e 03B0     		add	sp, sp, #12
 421              		@ sp needed
 422 0090 90BD     		pop	{r4, r7, pc}
 423              	.L26:
ARM GAS  C:\Users\LUKASC~1\AppData\Local\Temp\ccn8LSRc.s 			page 28


 424 0092 C046     		.align	2
 425              	.L25:
 426 0094 00000000 		.word	Bootloader_SizeBytesAccess
 427 0098 00000000 		.word	Bootloader_ChecksumAccess
 428 009c 00000000 		.word	cyBtldrRunType
 429              		.cfi_endproc
 430              	.LFE38:
 431              		.size	Bootloader_Start, .-Bootloader_Start
 432              		.section	.text.Bootloader_LaunchApplication,"ax",%progbits
 433              		.align	2
 434              		.code	16
 435              		.thumb_func
 436              		.type	Bootloader_LaunchApplication, %function
 437              	Bootloader_LaunchApplication:
 438              	.LFB39:
1111:.\Generated_Source\PSoC4/Bootloader.c **** 
1112:.\Generated_Source\PSoC4/Bootloader.c **** #if (CYDEV_PROJ_TYPE != CYDEV_PROJ_TYPE_LOADABLEANDBOOTLOADER)
1113:.\Generated_Source\PSoC4/Bootloader.c **** /*******************************************************************************
1114:.\Generated_Source\PSoC4/Bootloader.c **** * Function Name: Bootloader_LaunchApplication
1115:.\Generated_Source\PSoC4/Bootloader.c **** ****************************************************************************//**
1116:.\Generated_Source\PSoC4/Bootloader.c **** * \internal
1117:.\Generated_Source\PSoC4/Bootloader.c **** *
1118:.\Generated_Source\PSoC4/Bootloader.c **** * \brief
1119:.\Generated_Source\PSoC4/Bootloader.c **** *  Schedules the Bootloadable application and resets the device.
1120:.\Generated_Source\PSoC4/Bootloader.c **** *
1121:.\Generated_Source\PSoC4/Bootloader.c **** * \return
1122:.\Generated_Source\PSoC4/Bootloader.c **** *  This method will never return.
1123:.\Generated_Source\PSoC4/Bootloader.c **** *
1124:.\Generated_Source\PSoC4/Bootloader.c **** * \endinternal
1125:.\Generated_Source\PSoC4/Bootloader.c **** *******************************************************************************/
1126:.\Generated_Source\PSoC4/Bootloader.c **** static void Bootloader_LaunchApplication(void) CYSMALL \
1127:.\Generated_Source\PSoC4/Bootloader.c ****                     
1128:.\Generated_Source\PSoC4/Bootloader.c **** {
 439              		.loc 1 1128 0
 440              		.cfi_startproc
 441 0000 80B5     		push	{r7, lr}
 442              		.cfi_def_cfa_offset 8
 443              		.cfi_offset 7, -8
 444              		.cfi_offset 14, -4
 445 0002 00AF     		add	r7, sp, #0
 446              		.cfi_def_cfa_register 7
1129:.\Generated_Source\PSoC4/Bootloader.c ****     /* Schedule Bootloadable to start after a reset */
1130:.\Generated_Source\PSoC4/Bootloader.c ****     Bootloader_SET_RUN_TYPE(Bootloader_SCHEDULE_BTLDB);
 447              		.loc 1 1130 0
 448 0004 034B     		ldr	r3, .L28
 449 0006 8022     		mov	r2, #128
 450 0008 1A60     		str	r2, [r3]
1131:.\Generated_Source\PSoC4/Bootloader.c **** 
1132:.\Generated_Source\PSoC4/Bootloader.c ****     CySoftwareReset();
 451              		.loc 1 1132 0
 452 000a FFF7FEFF 		bl	CySoftwareReset
1133:.\Generated_Source\PSoC4/Bootloader.c **** }
 453              		.loc 1 1133 0
 454 000e BD46     		mov	sp, r7
 455              		@ sp needed
 456 0010 80BD     		pop	{r7, pc}
 457              	.L29:
ARM GAS  C:\Users\LUKASC~1\AppData\Local\Temp\ccn8LSRc.s 			page 29


 458 0012 C046     		.align	2
 459              	.L28:
 460 0014 00000000 		.word	cyBtldrRunType
 461              		.cfi_endproc
 462              	.LFE39:
 463              		.size	Bootloader_LaunchApplication, .-Bootloader_LaunchApplication
 464              		.section	.text.Bootloader_Exit,"ax",%progbits
 465              		.align	2
 466              		.global	Bootloader_Exit
 467              		.code	16
 468              		.thumb_func
 469              		.type	Bootloader_Exit, %function
 470              	Bootloader_Exit:
 471              	.LFB40:
1134:.\Generated_Source\PSoC4/Bootloader.c **** #endif /*(CYDEV_PROJ_TYPE != CYDEV_PROJ_TYPE_LOADABLEANDBOOTLOADER)*/
1135:.\Generated_Source\PSoC4/Bootloader.c **** 
1136:.\Generated_Source\PSoC4/Bootloader.c **** /*******************************************************************************
1137:.\Generated_Source\PSoC4/Bootloader.c **** * Function Name: Bootloader_Exit
1138:.\Generated_Source\PSoC4/Bootloader.c **** ****************************************************************************//**
1139:.\Generated_Source\PSoC4/Bootloader.c **** *
1140:.\Generated_Source\PSoC4/Bootloader.c **** *\brief
1141:.\Generated_Source\PSoC4/Bootloader.c **** *  Schedules the specified application and performs a software reset to launch
1142:.\Generated_Source\PSoC4/Bootloader.c **** *  a specified application.
1143:.\Generated_Source\PSoC4/Bootloader.c **** *
1144:.\Generated_Source\PSoC4/Bootloader.c **** *  If the specified application is not valid, the Bootloader (the result of the
1145:.\Generated_Source\PSoC4/Bootloader.c **** *  ValidateBootloadable() function execution returns other than CYRET_SUCCESS,
1146:.\Generated_Source\PSoC4/Bootloader.c **** *  the Bootloader application is launched.
1147:.\Generated_Source\PSoC4/Bootloader.c **** *
1148:.\Generated_Source\PSoC4/Bootloader.c **** * \param appId 
1149:.\Generated_Source\PSoC4/Bootloader.c **** *   The application to be started:
1150:.\Generated_Source\PSoC4/Bootloader.c **** *   - Bootloader_EXIT_TO_BTLDR - The Bootloader application will be started on
1151:.\Generated_Source\PSoC4/Bootloader.c **** *                                     a software reset.
1152:.\Generated_Source\PSoC4/Bootloader.c **** *   - Bootloader_EXIT_TO_BTLDB;
1153:.\Generated_Source\PSoC4/Bootloader.c **** *   - Bootloader_EXIT_TO_BTLDB_1 - Bootloadable application # 1 will be
1154:.\Generated_Source\PSoC4/Bootloader.c **** *                                     started on a software reset.
1155:.\Generated_Source\PSoC4/Bootloader.c **** *   - Bootloader_EXIT_TO_BTLDB_2 - Bootloadable application # 2 will be
1156:.\Generated_Source\PSoC4/Bootloader.c **** *                                     started on a software reset. Available only
1157:.\Generated_Source\PSoC4/Bootloader.c **** *                                     if the "Dual-application" option is enabled in
1158:.\Generated_Source\PSoC4/Bootloader.c **** *                                     the component customizer.
1159:.\Generated_Source\PSoC4/Bootloader.c **** * \return
1160:.\Generated_Source\PSoC4/Bootloader.c **** *  This function never returns.
1161:.\Generated_Source\PSoC4/Bootloader.c **** *
1162:.\Generated_Source\PSoC4/Bootloader.c **** *******************************************************************************/
1163:.\Generated_Source\PSoC4/Bootloader.c **** void Bootloader_Exit(uint8 appId) CYSMALL 
1164:.\Generated_Source\PSoC4/Bootloader.c **** {
 472              		.loc 1 1164 0
 473              		.cfi_startproc
 474 0000 80B5     		push	{r7, lr}
 475              		.cfi_def_cfa_offset 8
 476              		.cfi_offset 7, -8
 477              		.cfi_offset 14, -4
 478 0002 84B0     		sub	sp, sp, #16
 479              		.cfi_def_cfa_offset 24
 480 0004 00AF     		add	r7, sp, #0
 481              		.cfi_def_cfa_register 7
 482 0006 021C     		mov	r2, r0
 483 0008 FB1D     		add	r3, r7, #7
ARM GAS  C:\Users\LUKASC~1\AppData\Local\Temp\ccn8LSRc.s 			page 30


 484 000a 1A70     		strb	r2, [r3]
1165:.\Generated_Source\PSoC4/Bootloader.c ****     if(Bootloader_EXIT_TO_BTLDR == appId)
 485              		.loc 1 1165 0
 486 000c FB1D     		add	r3, r7, #7
 487 000e 1B78     		ldrb	r3, [r3]
 488 0010 022B     		cmp	r3, #2
 489 0012 03D1     		bne	.L31
1166:.\Generated_Source\PSoC4/Bootloader.c ****     {
1167:.\Generated_Source\PSoC4/Bootloader.c ****         Bootloader_SET_RUN_TYPE(Bootloader_SCHEDULE_BTLDR_INIT_STATE);
 490              		.loc 1 1167 0
 491 0014 1E4B     		ldr	r3, .L36
 492 0016 0022     		mov	r2, #0
 493 0018 1A60     		str	r2, [r3]
 494 001a 34E0     		b	.L32
 495              	.L31:
1168:.\Generated_Source\PSoC4/Bootloader.c ****     }
1169:.\Generated_Source\PSoC4/Bootloader.c ****     else
1170:.\Generated_Source\PSoC4/Bootloader.c ****     {
1171:.\Generated_Source\PSoC4/Bootloader.c ****         if(CYRET_SUCCESS == Bootloader_ValidateBootloadable(appId))
 496              		.loc 1 1171 0
 497 001c FB1D     		add	r3, r7, #7
 498 001e 1B78     		ldrb	r3, [r3]
 499 0020 181C     		mov	r0, r3
 500 0022 FFF7FEFF 		bl	Bootloader_ValidateBootloadable
 501 0026 031E     		sub	r3, r0, #0
 502 0028 2AD1     		bne	.L33
 503              	.LBB2:
1172:.\Generated_Source\PSoC4/Bootloader.c ****         {
1173:.\Generated_Source\PSoC4/Bootloader.c ****             /* Set active application in metadata */
1174:.\Generated_Source\PSoC4/Bootloader.c ****             uint8 CYDATA idx;
1175:.\Generated_Source\PSoC4/Bootloader.c ****             for(idx = 0u; idx < Bootloader_MAX_NUM_OF_BTLDB; idx++)
 504              		.loc 1 1175 0
 505 002a 0F23     		mov	r3, #15
 506 002c FB18     		add	r3, r7, r3
 507 002e 0022     		mov	r2, #0
 508 0030 1A70     		strb	r2, [r3]
 509 0032 1CE0     		b	.L34
 510              	.L35:
1176:.\Generated_Source\PSoC4/Bootloader.c ****             {
1177:.\Generated_Source\PSoC4/Bootloader.c ****                 Bootloader_SetFlashByte((uint32) Bootloader_MD_BTLDB_ACTIVE_OFFSET(idx),
 511              		.loc 1 1177 0 discriminator 3
 512 0034 0F23     		mov	r3, #15
 513 0036 FB18     		add	r3, r7, r3
 514 0038 1A78     		ldrb	r2, [r3]
 515 003a 131C     		mov	r3, r2
 516 003c 5B06     		lsl	r3, r3, #25
 517 003e 9B1A     		sub	r3, r3, r2
 518 0040 DB01     		lsl	r3, r3, #7
 519 0042 144A     		ldr	r2, .L36+4
 520 0044 9918     		add	r1, r3, r2
 521 0046 0F23     		mov	r3, #15
 522 0048 FA18     		add	r2, r7, r3
 523 004a FB1D     		add	r3, r7, #7
 524 004c 1278     		ldrb	r2, [r2]
 525 004e 1B78     		ldrb	r3, [r3]
 526 0050 D31A     		sub	r3, r2, r3
 527 0052 5A42     		neg	r2, r3
ARM GAS  C:\Users\LUKASC~1\AppData\Local\Temp\ccn8LSRc.s 			page 31


 528 0054 5341     		adc	r3, r3, r2
 529 0056 DBB2     		uxtb	r3, r3
 530 0058 081C     		mov	r0, r1
 531 005a 191C     		mov	r1, r3
 532 005c FFF7FEFF 		bl	Bootloader_SetFlashByte
1175:.\Generated_Source\PSoC4/Bootloader.c ****             {
 533              		.loc 1 1175 0 discriminator 3
 534 0060 0F23     		mov	r3, #15
 535 0062 FB18     		add	r3, r7, r3
 536 0064 1A78     		ldrb	r2, [r3]
 537 0066 0F23     		mov	r3, #15
 538 0068 FB18     		add	r3, r7, r3
 539 006a 0132     		add	r2, r2, #1
 540 006c 1A70     		strb	r2, [r3]
 541              	.L34:
1175:.\Generated_Source\PSoC4/Bootloader.c ****             {
 542              		.loc 1 1175 0 is_stmt 0 discriminator 1
 543 006e 0F23     		mov	r3, #15
 544 0070 FB18     		add	r3, r7, r3
 545 0072 1B78     		ldrb	r3, [r3]
 546 0074 002B     		cmp	r3, #0
 547 0076 DDD0     		beq	.L35
1178:.\Generated_Source\PSoC4/Bootloader.c ****                                               (uint8 )(idx == appId));
1179:.\Generated_Source\PSoC4/Bootloader.c ****             }
1180:.\Generated_Source\PSoC4/Bootloader.c **** 
1181:.\Generated_Source\PSoC4/Bootloader.c ****         #if((0u != Bootloader_DUAL_APP_BOOTLOADER) || \
1182:.\Generated_Source\PSoC4/Bootloader.c ****             (CYDEV_PROJ_TYPE == CYDEV_PROJ_TYPE_LOADABLEANDBOOTLOADER))
1183:.\Generated_Source\PSoC4/Bootloader.c ****             Bootloader_activeApp = appId;
1184:.\Generated_Source\PSoC4/Bootloader.c ****         #endif /* (0u != Bootloader_DUAL_APP_BOOTLOADER) || 
1185:.\Generated_Source\PSoC4/Bootloader.c ****                   (CYDEV_PROJ_TYPE == CYDEV_PROJ_TYPE_LOADABLEANDBOOTLOADER))*/
1186:.\Generated_Source\PSoC4/Bootloader.c **** 
1187:.\Generated_Source\PSoC4/Bootloader.c ****             Bootloader_SET_RUN_TYPE(Bootloader_SCHEDULE_BTLDB);
 548              		.loc 1 1187 0 is_stmt 1
 549 0078 054B     		ldr	r3, .L36
 550 007a 8022     		mov	r2, #128
 551 007c 1A60     		str	r2, [r3]
 552              	.LBE2:
 553 007e 02E0     		b	.L32
 554              	.L33:
1188:.\Generated_Source\PSoC4/Bootloader.c ****         }
1189:.\Generated_Source\PSoC4/Bootloader.c ****         else
1190:.\Generated_Source\PSoC4/Bootloader.c ****         {
1191:.\Generated_Source\PSoC4/Bootloader.c ****             Bootloader_SET_RUN_TYPE(Bootloader_SCHEDULE_BTLDR_INIT_STATE);
 555              		.loc 1 1191 0
 556 0080 034B     		ldr	r3, .L36
 557 0082 0022     		mov	r2, #0
 558 0084 1A60     		str	r2, [r3]
 559              	.L32:
1192:.\Generated_Source\PSoC4/Bootloader.c ****         }
1193:.\Generated_Source\PSoC4/Bootloader.c ****     }
1194:.\Generated_Source\PSoC4/Bootloader.c **** 
1195:.\Generated_Source\PSoC4/Bootloader.c ****     CySoftwareReset();
 560              		.loc 1 1195 0
 561 0086 FFF7FEFF 		bl	CySoftwareReset
1196:.\Generated_Source\PSoC4/Bootloader.c **** }
 562              		.loc 1 1196 0
 563 008a BD46     		mov	sp, r7
ARM GAS  C:\Users\LUKASC~1\AppData\Local\Temp\ccn8LSRc.s 			page 32


 564 008c 04B0     		add	sp, sp, #16
 565              		@ sp needed
 566 008e 80BD     		pop	{r7, pc}
 567              	.L37:
 568              		.align	2
 569              	.L36:
 570 0090 00000000 		.word	cyBtldrRunType
 571 0094 D07F0000 		.word	32720
 572              		.cfi_endproc
 573              	.LFE40:
 574              		.size	Bootloader_Exit, .-Bootloader_Exit
 575              		.section	.text.CyBtldr_CheckLaunch,"ax",%progbits
 576              		.align	2
 577              		.global	CyBtldr_CheckLaunch
 578              		.code	16
 579              		.thumb_func
 580              		.type	CyBtldr_CheckLaunch, %function
 581              	CyBtldr_CheckLaunch:
 582              	.LFB41:
1197:.\Generated_Source\PSoC4/Bootloader.c **** 
1198:.\Generated_Source\PSoC4/Bootloader.c **** #if (CYDEV_PROJ_TYPE != CYDEV_PROJ_TYPE_LOADABLEANDBOOTLOADER)
1199:.\Generated_Source\PSoC4/Bootloader.c **** /*******************************************************************************
1200:.\Generated_Source\PSoC4/Bootloader.c **** * Function Name: CyBtldr_CheckLaunch
1201:.\Generated_Source\PSoC4/Bootloader.c **** ****************************************************************************//**
1202:.\Generated_Source\PSoC4/Bootloader.c **** * \internal
1203:.\Generated_Source\PSoC4/Bootloader.c **** *
1204:.\Generated_Source\PSoC4/Bootloader.c **** * \brief
1205:.\Generated_Source\PSoC4/Bootloader.c **** *  This routine checks if the Bootloader or Bootloadable application has to
1206:.\Generated_Source\PSoC4/Bootloader.c **** *  be run.  If the application has to be run, it will start executing.
1207:.\Generated_Source\PSoC4/Bootloader.c **** *  If the Bootloader has to be run, it will return, so the Bootloader can
1208:.\Generated_Source\PSoC4/Bootloader.c **** *  continue starting up.
1209:.\Generated_Source\PSoC4/Bootloader.c **** *
1210:.\Generated_Source\PSoC4/Bootloader.c **** * \return
1211:.\Generated_Source\PSoC4/Bootloader.c **** *  It will not return if it determines that the Bootloadable application should
1212:.\Generated_Source\PSoC4/Bootloader.c **** *  be run.
1213:.\Generated_Source\PSoC4/Bootloader.c **** *
1214:.\Generated_Source\PSoC4/Bootloader.c **** * \endinternal
1215:.\Generated_Source\PSoC4/Bootloader.c **** *******************************************************************************/
1216:.\Generated_Source\PSoC4/Bootloader.c **** void CyBtldr_CheckLaunch(void) CYSMALL 
1217:.\Generated_Source\PSoC4/Bootloader.c **** {
 583              		.loc 1 1217 0
 584              		.cfi_startproc
 585 0000 80B5     		push	{r7, lr}
 586              		.cfi_def_cfa_offset 8
 587              		.cfi_offset 7, -8
 588              		.cfi_offset 14, -4
 589 0002 82B0     		sub	sp, sp, #8
 590              		.cfi_def_cfa_offset 16
 591 0004 00AF     		add	r7, sp, #0
 592              		.cfi_def_cfa_register 7
1218:.\Generated_Source\PSoC4/Bootloader.c **** 
1219:.\Generated_Source\PSoC4/Bootloader.c **** #if(CY_PSOC4)
1220:.\Generated_Source\PSoC4/Bootloader.c **** 
1221:.\Generated_Source\PSoC4/Bootloader.c ****     /*******************************************************************************
1222:.\Generated_Source\PSoC4/Bootloader.c ****     * Set cyBtldrRunType to zero in the case of a non-software reset. This means
1223:.\Generated_Source\PSoC4/Bootloader.c ****     * that the Bootloader application is scheduled - the initial clean state. The
1224:.\Generated_Source\PSoC4/Bootloader.c ****     * value of cyBtldrRunType is valid only in the case of a software reset.
ARM GAS  C:\Users\LUKASC~1\AppData\Local\Temp\ccn8LSRc.s 			page 33


1225:.\Generated_Source\PSoC4/Bootloader.c ****     *******************************************************************************/
1226:.\Generated_Source\PSoC4/Bootloader.c ****     if (0u == (Bootloader_RES_CAUSE_REG & Bootloader_RES_CAUSE_RESET_SOFT))
 593              		.loc 1 1226 0
 594 0006 134B     		ldr	r3, .L41
 595 0008 1B68     		ldr	r3, [r3]
 596 000a 1022     		mov	r2, #16
 597 000c 1340     		and	r3, r2
 598 000e 02D1     		bne	.L39
1227:.\Generated_Source\PSoC4/Bootloader.c ****     {
1228:.\Generated_Source\PSoC4/Bootloader.c ****         cyBtldrRunType = Bootloader_SCHEDULE_BTLDR_INIT_STATE;
 599              		.loc 1 1228 0
 600 0010 114B     		ldr	r3, .L41+4
 601 0012 0022     		mov	r2, #0
 602 0014 1A60     		str	r2, [r3]
 603              	.L39:
1229:.\Generated_Source\PSoC4/Bootloader.c ****     }
1230:.\Generated_Source\PSoC4/Bootloader.c **** 
1231:.\Generated_Source\PSoC4/Bootloader.c **** #endif /* (CY_PSOC4) */
1232:.\Generated_Source\PSoC4/Bootloader.c **** 
1233:.\Generated_Source\PSoC4/Bootloader.c **** 
1234:.\Generated_Source\PSoC4/Bootloader.c ****     if (Bootloader_GET_RUN_TYPE == Bootloader_SCHEDULE_BTLDB)
 604              		.loc 1 1234 0
 605 0016 104B     		ldr	r3, .L41+4
 606 0018 1B68     		ldr	r3, [r3]
 607 001a 802B     		cmp	r3, #128
 608 001c 17D1     		bne	.L38
 609              	.LBB3:
1235:.\Generated_Source\PSoC4/Bootloader.c ****     {
1236:.\Generated_Source\PSoC4/Bootloader.c **** 
1237:.\Generated_Source\PSoC4/Bootloader.c **** 
1238:.\Generated_Source\PSoC4/Bootloader.c ****     #if (CYDEV_PROJ_TYPE != CYDEV_PROJ_TYPE_LAUNCHER)
1239:.\Generated_Source\PSoC4/Bootloader.c ****         /******************************************************************************* 
1240:.\Generated_Source\PSoC4/Bootloader.c ****         * Classic Single-app or Dual-app Bootloader use cases.
1241:.\Generated_Source\PSoC4/Bootloader.c ****         * The active application number is taken from Bootloader_activeApp not
1242:.\Generated_Source\PSoC4/Bootloader.c ****         * to break backward compatibility.
1243:.\Generated_Source\PSoC4/Bootloader.c ****         *******************************************************************************/
1244:.\Generated_Source\PSoC4/Bootloader.c ****         uint8 activeApp = Bootloader_activeApp;
 610              		.loc 1 1244 0
 611 001e FB1D     		add	r3, r7, #7
 612 0020 0022     		mov	r2, #0
 613 0022 1A70     		strb	r2, [r3]
1245:.\Generated_Source\PSoC4/Bootloader.c ****         
1246:.\Generated_Source\PSoC4/Bootloader.c ****         
1247:.\Generated_Source\PSoC4/Bootloader.c ****         /******************************************************************************* 
1248:.\Generated_Source\PSoC4/Bootloader.c ****         * Classic Dual-app Bootloader with 2 Combination projects use case.
1249:.\Generated_Source\PSoC4/Bootloader.c ****         * In this use case Classic Dual-app Bootloader is not the only one, who switches
1250:.\Generated_Source\PSoC4/Bootloader.c ****         * between applications. So if there is no valid value for Bootloader_activeApp,
1251:.\Generated_Source\PSoC4/Bootloader.c ****         * then we should additionally check the metadata if one of the Combination application
1252:.\Generated_Source\PSoC4/Bootloader.c ****         * has set a value there.
1253:.\Generated_Source\PSoC4/Bootloader.c ****         *******************************************************************************/ 
1254:.\Generated_Source\PSoC4/Bootloader.c ****         #if (CYDEV_PROJ_TYPE == CYDEV_PROJ_TYPE_MULTIAPPBOOTLOADER)
1255:.\Generated_Source\PSoC4/Bootloader.c ****         if (activeApp >= Bootloader_MD_BTLDB_ACTIVE_NONE) 
1256:.\Generated_Source\PSoC4/Bootloader.c ****         {
1257:.\Generated_Source\PSoC4/Bootloader.c ****             activeApp = Bootloader_GetActiveAppFromMetadata();
1258:.\Generated_Source\PSoC4/Bootloader.c ****         }
1259:.\Generated_Source\PSoC4/Bootloader.c ****         #endif /*(CYDEV_PROJ_TYPE == CYDEV_PROJ_TYPE_MULTIAPPBOOTLOADER)*/ 
1260:.\Generated_Source\PSoC4/Bootloader.c ****     #else 
ARM GAS  C:\Users\LUKASC~1\AppData\Local\Temp\ccn8LSRc.s 			page 34


1261:.\Generated_Source\PSoC4/Bootloader.c ****         /* Launcher use case.  The active application number is taken from metadata. */
1262:.\Generated_Source\PSoC4/Bootloader.c ****         uint8 activeApp = Bootloader_GetActiveAppFromMetadata(); 
1263:.\Generated_Source\PSoC4/Bootloader.c ****     #endif /* (CYDEV_PROJ_TYPE != CYDEV_PROJ_TYPE_LAUNCHER) */
1264:.\Generated_Source\PSoC4/Bootloader.c ****         
1265:.\Generated_Source\PSoC4/Bootloader.c ****         Bootloader_SET_RUN_TYPE(Bootloader_SCHEDULE_BTLDR_INIT_STATE);
 614              		.loc 1 1265 0
 615 0024 0C4B     		ldr	r3, .L41+4
 616 0026 0022     		mov	r2, #0
 617 0028 1A60     		str	r2, [r3]
1266:.\Generated_Source\PSoC4/Bootloader.c **** 
1267:.\Generated_Source\PSoC4/Bootloader.c ****         /*******************************************************************************
1268:.\Generated_Source\PSoC4/Bootloader.c ****         * Indicates that we have told ourselves to jump to the application because we have
1269:.\Generated_Source\PSoC4/Bootloader.c ****         * already told ourselves to jump, we do not do any expensive verification of the
1270:.\Generated_Source\PSoC4/Bootloader.c ****         * application. We just check to make sure that the value at CY_APP_ADDR_ADDRESS
1271:.\Generated_Source\PSoC4/Bootloader.c ****         * is something other than 0 and active application is valid.
1272:.\Generated_Source\PSoC4/Bootloader.c ****         *******************************************************************************/
1273:.\Generated_Source\PSoC4/Bootloader.c ****         if ((0u != Bootloader_GetMetadata(Bootloader_GET_BTLDB_ADDR, activeApp)) 
 618              		.loc 1 1273 0
 619 002a FB1D     		add	r3, r7, #7
 620 002c 1B78     		ldrb	r3, [r3]
 621 002e 0220     		mov	r0, #2
 622 0030 191C     		mov	r1, r3
 623 0032 FFF7FEFF 		bl	Bootloader_GetMetadata
 624 0036 031E     		sub	r3, r0, #0
 625 0038 09D0     		beq	.L38
1274:.\Generated_Source\PSoC4/Bootloader.c ****     #if (CYDEV_PROJ_TYPE != CYDEV_PROJ_TYPE_BOOTLOADER)
1275:.\Generated_Source\PSoC4/Bootloader.c ****             && (activeApp < Bootloader_MD_BTLDB_ACTIVE_NONE)
1276:.\Generated_Source\PSoC4/Bootloader.c ****     #endif /* (CYDEV_PROJ_TYPE != CYDEV_PROJ_TYPE_BOOTLOADER) */        
1277:.\Generated_Source\PSoC4/Bootloader.c ****             )
1278:.\Generated_Source\PSoC4/Bootloader.c ****         {
1279:.\Generated_Source\PSoC4/Bootloader.c ****             /* Never returns from this method */
1280:.\Generated_Source\PSoC4/Bootloader.c ****             Bootloader_LaunchBootloadable(Bootloader_GetMetadata(Bootloader_GET_BTLDB_ADDR,
 626              		.loc 1 1280 0
 627 003a FB1D     		add	r3, r7, #7
 628 003c 1B78     		ldrb	r3, [r3]
 629 003e 0220     		mov	r0, #2
 630 0040 191C     		mov	r1, r3
 631 0042 FFF7FEFF 		bl	Bootloader_GetMetadata
 632 0046 031C     		mov	r3, r0
 633 0048 181C     		mov	r0, r3
 634 004a FFF7FEFF 		bl	Bootloader_LaunchBootloadable
 635              	.L38:
 636              	.LBE3:
1281:.\Generated_Source\PSoC4/Bootloader.c ****                                                                              activeApp));
1282:.\Generated_Source\PSoC4/Bootloader.c ****         }
1283:.\Generated_Source\PSoC4/Bootloader.c ****     }
1284:.\Generated_Source\PSoC4/Bootloader.c **** }
 637              		.loc 1 1284 0
 638 004e BD46     		mov	sp, r7
 639 0050 02B0     		add	sp, sp, #8
 640              		@ sp needed
 641 0052 80BD     		pop	{r7, pc}
 642              	.L42:
 643              		.align	2
 644              	.L41:
 645 0054 00030B40 		.word	1074463488
 646 0058 00000000 		.word	cyBtldrRunType
ARM GAS  C:\Users\LUKASC~1\AppData\Local\Temp\ccn8LSRc.s 			page 35


 647              		.cfi_endproc
 648              	.LFE41:
 649              		.size	CyBtldr_CheckLaunch, .-CyBtldr_CheckLaunch
 650              		.section	.text.Bootloader_LaunchBootloadable,"ax",%progbits
 651              		.align	2
 652              		.code	16
 653              		.thumb_func
 654              		.type	Bootloader_LaunchBootloadable, %function
 655              	Bootloader_LaunchBootloadable:
 656              	.LFB42:
1285:.\Generated_Source\PSoC4/Bootloader.c **** 
1286:.\Generated_Source\PSoC4/Bootloader.c **** 
1287:.\Generated_Source\PSoC4/Bootloader.c **** /* Moves argument appAddr (RO) into PC, moving execution to appAddr */
1288:.\Generated_Source\PSoC4/Bootloader.c **** #if defined (__ARMCC_VERSION)
1289:.\Generated_Source\PSoC4/Bootloader.c **** 
1290:.\Generated_Source\PSoC4/Bootloader.c ****     __asm static void Bootloader_LaunchBootloadable(uint32 appAddr)
1291:.\Generated_Source\PSoC4/Bootloader.c ****     {
1292:.\Generated_Source\PSoC4/Bootloader.c ****         BX  R0
1293:.\Generated_Source\PSoC4/Bootloader.c ****         ALIGN
1294:.\Generated_Source\PSoC4/Bootloader.c ****     }
1295:.\Generated_Source\PSoC4/Bootloader.c **** 
1296:.\Generated_Source\PSoC4/Bootloader.c **** #elif defined(__GNUC__)
1297:.\Generated_Source\PSoC4/Bootloader.c **** 
1298:.\Generated_Source\PSoC4/Bootloader.c ****     __attribute__((noinline)) /* Workaround for GCC toolchain bug with inlining */
1299:.\Generated_Source\PSoC4/Bootloader.c ****     __attribute__((naked))
1300:.\Generated_Source\PSoC4/Bootloader.c ****     static void Bootloader_LaunchBootloadable(uint32 appAddr)
1301:.\Generated_Source\PSoC4/Bootloader.c ****     {
 657              		.loc 1 1301 0
 658              		.cfi_startproc
1302:.\Generated_Source\PSoC4/Bootloader.c ****         __asm volatile("    BX  R0\n");
 659              		.loc 1 1302 0
 660              	@ 1302 ".\Generated_Source\PSoC4\Bootloader.c" 1
 661 0000 0047     		    BX  R0
 662              	
 663              	@ 0 "" 2
1303:.\Generated_Source\PSoC4/Bootloader.c ****     }
 664              		.loc 1 1303 0
 665              		.code	16
 666              		.cfi_endproc
 667              	.LFE42:
 668              		.size	Bootloader_LaunchBootloadable, .-Bootloader_LaunchBootloadable
 669 0002 C046     		.section	.text.Bootloader_ValidateBootloadable,"ax",%progbits
 670              		.align	2
 671              		.global	Bootloader_ValidateBootloadable
 672              		.code	16
 673              		.thumb_func
 674              		.type	Bootloader_ValidateBootloadable, %function
 675              	Bootloader_ValidateBootloadable:
 676              	.LFB43:
1304:.\Generated_Source\PSoC4/Bootloader.c **** 
1305:.\Generated_Source\PSoC4/Bootloader.c **** #elif defined (__ICCARM__)
1306:.\Generated_Source\PSoC4/Bootloader.c **** 
1307:.\Generated_Source\PSoC4/Bootloader.c ****     static void Bootloader_LaunchBootloadable(uint32 appAddr)
1308:.\Generated_Source\PSoC4/Bootloader.c ****     {
1309:.\Generated_Source\PSoC4/Bootloader.c ****         __asm volatile("    BX  R0\n");
1310:.\Generated_Source\PSoC4/Bootloader.c ****     }
1311:.\Generated_Source\PSoC4/Bootloader.c **** 
ARM GAS  C:\Users\LUKASC~1\AppData\Local\Temp\ccn8LSRc.s 			page 36


1312:.\Generated_Source\PSoC4/Bootloader.c **** #endif  /* (__ARMCC_VERSION) */
1313:.\Generated_Source\PSoC4/Bootloader.c **** #endif /* (CYDEV_PROJ_TYPE != CYDEV_PROJ_TYPE_LOADABLEANDBOOTLOADER)*/
1314:.\Generated_Source\PSoC4/Bootloader.c **** 
1315:.\Generated_Source\PSoC4/Bootloader.c **** /*******************************************************************************
1316:.\Generated_Source\PSoC4/Bootloader.c **** * Function Name: Bootloader_ValidateBootloadable
1317:.\Generated_Source\PSoC4/Bootloader.c **** ****************************************************************************//**
1318:.\Generated_Source\PSoC4/Bootloader.c **** * \brief
1319:.\Generated_Source\PSoC4/Bootloader.c **** *  Performs the Bootloadable application validation by calculating the
1320:.\Generated_Source\PSoC4/Bootloader.c **** *  application image checksum and comparing it with the checksum value stored
1321:.\Generated_Source\PSoC4/Bootloader.c **** *  in the Bootloadable Application Checksum field of the metadata section.
1322:.\Generated_Source\PSoC4/Bootloader.c **** *
1323:.\Generated_Source\PSoC4/Bootloader.c **** *  If the "Fast bootloadable application validation" option is enabled in the
1324:.\Generated_Source\PSoC4/Bootloader.c **** *  component customizer and Bootloadable application successfully passes
1325:.\Generated_Source\PSoC4/Bootloader.c **** *  validation, the Bootloadable Application Verification Status field of the
1326:.\Generated_Source\PSoC4/Bootloader.c **** *  metadata section is updated. Refer to the "Metadata Layout" section for the
1327:.\Generated_Source\PSoC4/Bootloader.c **** *  details.
1328:.\Generated_Source\PSoC4/Bootloader.c **** *
1329:.\Generated_Source\PSoC4/Bootloader.c **** *  If the "Fast bootloadable application validation" option is enabled and
1330:.\Generated_Source\PSoC4/Bootloader.c **** *  the Bootloadable Application Verification Status field of the metadata section
1331:.\Generated_Source\PSoC4/Bootloader.c **** *  claims that the Bootloadable application is valid, the function returns
1332:.\Generated_Source\PSoC4/Bootloader.c **** *  CYRET_SUCCESS without further checksum calculation.
1333:.\Generated_Source\PSoC4/Bootloader.c **** *
1334:.\Generated_Source\PSoC4/Bootloader.c **** *  \param appId
1335:.\Generated_Source\PSoC4/Bootloader.c **** *  The number of the Bootloadable application should be 0 for the normal
1336:.\Generated_Source\PSoC4/Bootloader.c **** *  bootloader and 0 or 1 for the dual-application bootloader.
1337:.\Generated_Source\PSoC4/Bootloader.c **** *
1338:.\Generated_Source\PSoC4/Bootloader.c **** * \return
1339:.\Generated_Source\PSoC4/Bootloader.c **** *  CYRET_SUCCESS - If the specified the Bootloadable application is valid.
1340:.\Generated_Source\PSoC4/Bootloader.c **** *  CYRET_BAD_DATA is returned if the input parameter is out of the specified range
1341:.\Generated_Source\PSoC4/Bootloader.c **** *      or the calculated checksum does not match the stored checksum.
1342:.\Generated_Source\PSoC4/Bootloader.c **** *******************************************************************************/
1343:.\Generated_Source\PSoC4/Bootloader.c **** cystatus Bootloader_ValidateBootloadable(uint8 appId) CYSMALL \
1344:.\Generated_Source\PSoC4/Bootloader.c **** 
1345:.\Generated_Source\PSoC4/Bootloader.c ****     {
 677              		.loc 1 1345 0
 678              		.cfi_startproc
 679 0000 90B5     		push	{r4, r7, lr}
 680              		.cfi_def_cfa_offset 12
 681              		.cfi_offset 4, -12
 682              		.cfi_offset 7, -8
 683              		.cfi_offset 14, -4
 684 0002 87B0     		sub	sp, sp, #28
 685              		.cfi_def_cfa_offset 40
 686 0004 00AF     		add	r7, sp, #0
 687              		.cfi_def_cfa_register 7
 688 0006 021C     		mov	r2, r0
 689 0008 FB1D     		add	r3, r7, #7
 690 000a 1A70     		strb	r2, [r3]
1346:.\Generated_Source\PSoC4/Bootloader.c ****         uint32 CYDATA idx;
1347:.\Generated_Source\PSoC4/Bootloader.c **** 
1348:.\Generated_Source\PSoC4/Bootloader.c ****         uint32 CYDATA end   = Bootloader_FIRST_APP_BYTE(appId) +
 691              		.loc 1 1348 0
 692 000c FB1D     		add	r3, r7, #7
 693 000e 1B78     		ldrb	r3, [r3]
 694 0010 0320     		mov	r0, #3
 695 0012 191C     		mov	r1, r3
 696 0014 FFF7FEFF 		bl	Bootloader_GetMetadata
ARM GAS  C:\Users\LUKASC~1\AppData\Local\Temp\ccn8LSRc.s 			page 37


 697 0018 031C     		mov	r3, r0
 698 001a 0133     		add	r3, r3, #1
 699 001c DC01     		lsl	r4, r3, #7
1349:.\Generated_Source\PSoC4/Bootloader.c ****                               Bootloader_GetMetadata(Bootloader_GET_BTLDB_LENGTH, appId);
 700              		.loc 1 1349 0
 701 001e FB1D     		add	r3, r7, #7
 702 0020 1B78     		ldrb	r3, [r3]
 703 0022 0420     		mov	r0, #4
 704 0024 191C     		mov	r1, r3
 705 0026 FFF7FEFF 		bl	Bootloader_GetMetadata
 706 002a 031C     		mov	r3, r0
1348:.\Generated_Source\PSoC4/Bootloader.c ****                               Bootloader_GetMetadata(Bootloader_GET_BTLDB_LENGTH, appId);
 707              		.loc 1 1348 0
 708 002c E318     		add	r3, r4, r3
 709 002e FB60     		str	r3, [r7, #12]
1350:.\Generated_Source\PSoC4/Bootloader.c **** 
1351:.\Generated_Source\PSoC4/Bootloader.c ****         CYBIT  valid = 0u; /* Assume bad flash image */
 710              		.loc 1 1351 0
 711 0030 1323     		mov	r3, #19
 712 0032 FB18     		add	r3, r7, r3
 713 0034 0022     		mov	r2, #0
 714 0036 1A70     		strb	r2, [r3]
1352:.\Generated_Source\PSoC4/Bootloader.c ****         uint8  CYDATA calcedChecksum = 0u;
 715              		.loc 1 1352 0
 716 0038 1223     		mov	r3, #18
 717 003a FB18     		add	r3, r7, r3
 718 003c 0022     		mov	r2, #0
 719 003e 1A70     		strb	r2, [r3]
1353:.\Generated_Source\PSoC4/Bootloader.c **** 
1354:.\Generated_Source\PSoC4/Bootloader.c **** 
1355:.\Generated_Source\PSoC4/Bootloader.c ****         #if(0u != Bootloader_DUAL_APP_BOOTLOADER)
1356:.\Generated_Source\PSoC4/Bootloader.c **** 
1357:.\Generated_Source\PSoC4/Bootloader.c ****             if(appId > 1u)
1358:.\Generated_Source\PSoC4/Bootloader.c ****             {
1359:.\Generated_Source\PSoC4/Bootloader.c ****                 return(CYRET_BAD_DATA);
1360:.\Generated_Source\PSoC4/Bootloader.c ****             }
1361:.\Generated_Source\PSoC4/Bootloader.c **** 
1362:.\Generated_Source\PSoC4/Bootloader.c ****         #endif  /* (0u != Bootloader_DUAL_APP_BOOTLOADER) */
1363:.\Generated_Source\PSoC4/Bootloader.c **** 
1364:.\Generated_Source\PSoC4/Bootloader.c **** 
1365:.\Generated_Source\PSoC4/Bootloader.c ****         #if(0u != Bootloader_FAST_APP_VALIDATION)
1366:.\Generated_Source\PSoC4/Bootloader.c ****             if(Bootloader_GetMetadata(Bootloader_GET_BTLDB_STATUS, appId) ==
 720              		.loc 1 1366 0
 721 0040 FB1D     		add	r3, r7, #7
 722 0042 1B78     		ldrb	r3, [r3]
 723 0044 0620     		mov	r0, #6
 724 0046 191C     		mov	r1, r3
 725 0048 FFF7FEFF 		bl	Bootloader_GetMetadata
 726 004c 031E     		sub	r3, r0, #0
 727 004e 012B     		cmp	r3, #1
 728 0050 01D1     		bne	.L45
1367:.\Generated_Source\PSoC4/Bootloader.c ****                Bootloader_MD_BTLDB_IS_VERIFIED)
1368:.\Generated_Source\PSoC4/Bootloader.c ****             {
1369:.\Generated_Source\PSoC4/Bootloader.c ****                 return(CYRET_SUCCESS);
 729              		.loc 1 1369 0
 730 0052 0023     		mov	r3, #0
 731 0054 56E0     		b	.L46
ARM GAS  C:\Users\LUKASC~1\AppData\Local\Temp\ccn8LSRc.s 			page 38


 732              	.L45:
1370:.\Generated_Source\PSoC4/Bootloader.c ****             }
1371:.\Generated_Source\PSoC4/Bootloader.c ****         #endif  /* (0u != Bootloader_FAST_APP_VALIDATION) */
1372:.\Generated_Source\PSoC4/Bootloader.c **** 
1373:.\Generated_Source\PSoC4/Bootloader.c **** 
1374:.\Generated_Source\PSoC4/Bootloader.c ****         /* Calculate checksum of bootloadable image */
1375:.\Generated_Source\PSoC4/Bootloader.c ****         for(idx = Bootloader_FIRST_APP_BYTE(appId); idx < end; ++idx)
 733              		.loc 1 1375 0
 734 0056 FB1D     		add	r3, r7, #7
 735 0058 1B78     		ldrb	r3, [r3]
 736 005a 0320     		mov	r0, #3
 737 005c 191C     		mov	r1, r3
 738 005e FFF7FEFF 		bl	Bootloader_GetMetadata
 739 0062 031C     		mov	r3, r0
 740 0064 0133     		add	r3, r3, #1
 741 0066 DB01     		lsl	r3, r3, #7
 742 0068 7B61     		str	r3, [r7, #20]
 743 006a 1FE0     		b	.L47
 744              	.L49:
 745              	.LBB4:
1376:.\Generated_Source\PSoC4/Bootloader.c ****         {
1377:.\Generated_Source\PSoC4/Bootloader.c ****             uint8 CYDATA curByte = Bootloader_GET_CODE_BYTE(idx);
 746              		.loc 1 1377 0
 747 006c 7A69     		ldr	r2, [r7, #20]
 748 006e 0B23     		mov	r3, #11
 749 0070 FB18     		add	r3, r7, r3
 750 0072 1278     		ldrb	r2, [r2]
 751 0074 1A70     		strb	r2, [r3]
1378:.\Generated_Source\PSoC4/Bootloader.c **** 
1379:.\Generated_Source\PSoC4/Bootloader.c ****             if((curByte != 0u) && (curByte != 0xFFu))
 752              		.loc 1 1379 0
 753 0076 0B23     		mov	r3, #11
 754 0078 FB18     		add	r3, r7, r3
 755 007a 1B78     		ldrb	r3, [r3]
 756 007c 002B     		cmp	r3, #0
 757 007e 08D0     		beq	.L48
 758              		.loc 1 1379 0 is_stmt 0 discriminator 1
 759 0080 0B23     		mov	r3, #11
 760 0082 FB18     		add	r3, r7, r3
 761 0084 1B78     		ldrb	r3, [r3]
 762 0086 FF2B     		cmp	r3, #255
 763 0088 03D0     		beq	.L48
1380:.\Generated_Source\PSoC4/Bootloader.c ****             {
1381:.\Generated_Source\PSoC4/Bootloader.c ****                 valid = 1u;
 764              		.loc 1 1381 0 is_stmt 1
 765 008a 1323     		mov	r3, #19
 766 008c FB18     		add	r3, r7, r3
 767 008e 0122     		mov	r2, #1
 768 0090 1A70     		strb	r2, [r3]
 769              	.L48:
1382:.\Generated_Source\PSoC4/Bootloader.c ****             }
1383:.\Generated_Source\PSoC4/Bootloader.c **** 
1384:.\Generated_Source\PSoC4/Bootloader.c ****             calcedChecksum += curByte;
 770              		.loc 1 1384 0 discriminator 2
 771 0092 1223     		mov	r3, #18
 772 0094 FB18     		add	r3, r7, r3
 773 0096 1222     		mov	r2, #18
ARM GAS  C:\Users\LUKASC~1\AppData\Local\Temp\ccn8LSRc.s 			page 39


 774 0098 B918     		add	r1, r7, r2
 775 009a 0B22     		mov	r2, #11
 776 009c BA18     		add	r2, r7, r2
 777 009e 0978     		ldrb	r1, [r1]
 778 00a0 1278     		ldrb	r2, [r2]
 779 00a2 8A18     		add	r2, r1, r2
 780 00a4 1A70     		strb	r2, [r3]
 781              	.LBE4:
1375:.\Generated_Source\PSoC4/Bootloader.c ****         {
 782              		.loc 1 1375 0 discriminator 2
 783 00a6 7B69     		ldr	r3, [r7, #20]
 784 00a8 0133     		add	r3, r3, #1
 785 00aa 7B61     		str	r3, [r7, #20]
 786              	.L47:
1375:.\Generated_Source\PSoC4/Bootloader.c ****         {
 787              		.loc 1 1375 0 is_stmt 0 discriminator 1
 788 00ac 7A69     		ldr	r2, [r7, #20]
 789 00ae FB68     		ldr	r3, [r7, #12]
 790 00b0 9A42     		cmp	r2, r3
 791 00b2 DBD3     		bcc	.L49
1385:.\Generated_Source\PSoC4/Bootloader.c ****         }
1386:.\Generated_Source\PSoC4/Bootloader.c **** 
1387:.\Generated_Source\PSoC4/Bootloader.c **** 
1388:.\Generated_Source\PSoC4/Bootloader.c ****         /***************************************************************************
1389:.\Generated_Source\PSoC4/Bootloader.c ****         * We do not compute a checksum over the meta data section, so no need to
1390:.\Generated_Source\PSoC4/Bootloader.c ****         * subtract App Verified or App Active information here like we do when
1391:.\Generated_Source\PSoC4/Bootloader.c ****         * verifying a row.
1392:.\Generated_Source\PSoC4/Bootloader.c ****         ***************************************************************************/
1393:.\Generated_Source\PSoC4/Bootloader.c **** 
1394:.\Generated_Source\PSoC4/Bootloader.c ****         #if((!CY_PSOC4) && (CYDEV_ECC_ENABLE == 0u))
1395:.\Generated_Source\PSoC4/Bootloader.c **** 
1396:.\Generated_Source\PSoC4/Bootloader.c ****             /* Add ECC data to checksum */
1397:.\Generated_Source\PSoC4/Bootloader.c ****             idx = ((Bootloader_FIRST_APP_BYTE(appId)) >> 3u);
1398:.\Generated_Source\PSoC4/Bootloader.c **** 
1399:.\Generated_Source\PSoC4/Bootloader.c ****             /* Flash may run into meta data, so ECC does not use full row */
1400:.\Generated_Source\PSoC4/Bootloader.c ****             end = (end == (CY_FLASH_SIZE - Bootloader_MD_SIZEOF))
1401:.\Generated_Source\PSoC4/Bootloader.c ****                 ? (CY_FLASH_SIZE >> 3u)
1402:.\Generated_Source\PSoC4/Bootloader.c ****                 : (end >> 3u);
1403:.\Generated_Source\PSoC4/Bootloader.c **** 
1404:.\Generated_Source\PSoC4/Bootloader.c ****             for (; idx < end; ++idx)
1405:.\Generated_Source\PSoC4/Bootloader.c ****             {
1406:.\Generated_Source\PSoC4/Bootloader.c ****                 calcedChecksum += CY_GET_XTND_REG8((volatile uint8 *)(CYDEV_ECC_BASE + idx));
1407:.\Generated_Source\PSoC4/Bootloader.c ****             }
1408:.\Generated_Source\PSoC4/Bootloader.c **** 
1409:.\Generated_Source\PSoC4/Bootloader.c ****         #endif  /* ((!CY_PSOC4) && (CYDEV_ECC_ENABLE == 0u)) */
1410:.\Generated_Source\PSoC4/Bootloader.c **** 
1411:.\Generated_Source\PSoC4/Bootloader.c ****         calcedChecksum = ( uint8 )1u + ( uint8 )(~calcedChecksum);
 792              		.loc 1 1411 0 is_stmt 1
 793 00b4 1223     		mov	r3, #18
 794 00b6 FB18     		add	r3, r7, r3
 795 00b8 1222     		mov	r2, #18
 796 00ba BA18     		add	r2, r7, r2
 797 00bc 1278     		ldrb	r2, [r2]
 798 00be 5242     		neg	r2, r2
 799 00c0 1A70     		strb	r2, [r3]
1412:.\Generated_Source\PSoC4/Bootloader.c **** 
1413:.\Generated_Source\PSoC4/Bootloader.c ****         if((calcedChecksum != Bootloader_GetMetadata(Bootloader_GET_BTLDB_CHECKSUM, appId)) ||
ARM GAS  C:\Users\LUKASC~1\AppData\Local\Temp\ccn8LSRc.s 			page 40


 800              		.loc 1 1413 0
 801 00c2 1223     		mov	r3, #18
 802 00c4 FB18     		add	r3, r7, r3
 803 00c6 1C78     		ldrb	r4, [r3]
 804 00c8 FB1D     		add	r3, r7, #7
 805 00ca 1B78     		ldrb	r3, [r3]
 806 00cc 0120     		mov	r0, #1
 807 00ce 191C     		mov	r1, r3
 808 00d0 FFF7FEFF 		bl	Bootloader_GetMetadata
 809 00d4 031C     		mov	r3, r0
 810 00d6 9C42     		cmp	r4, r3
 811 00d8 04D1     		bne	.L50
 812              		.loc 1 1413 0 is_stmt 0 discriminator 1
 813 00da 1323     		mov	r3, #19
 814 00dc FB18     		add	r3, r7, r3
 815 00de 1B78     		ldrb	r3, [r3]
 816 00e0 002B     		cmp	r3, #0
 817 00e2 01D1     		bne	.L51
 818              	.L50:
1414:.\Generated_Source\PSoC4/Bootloader.c ****            (0u == valid))
1415:.\Generated_Source\PSoC4/Bootloader.c ****         {
1416:.\Generated_Source\PSoC4/Bootloader.c ****             return(CYRET_BAD_DATA);
 819              		.loc 1 1416 0 is_stmt 1
 820 00e4 0623     		mov	r3, #6
 821 00e6 0DE0     		b	.L46
 822              	.L51:
1417:.\Generated_Source\PSoC4/Bootloader.c ****         }
1418:.\Generated_Source\PSoC4/Bootloader.c **** 
1419:.\Generated_Source\PSoC4/Bootloader.c **** 
1420:.\Generated_Source\PSoC4/Bootloader.c ****         #if(0u != Bootloader_FAST_APP_VALIDATION)
1421:.\Generated_Source\PSoC4/Bootloader.c ****             Bootloader_SetFlashByte((uint32) Bootloader_MD_BTLDB_VERIFIED_OFFSET(appId),
 823              		.loc 1 1421 0
 824 00e8 FB1D     		add	r3, r7, #7
 825 00ea 1A78     		ldrb	r2, [r3]
 826 00ec 131C     		mov	r3, r2
 827 00ee 5B06     		lsl	r3, r3, #25
 828 00f0 9B1A     		sub	r3, r3, r2
 829 00f2 DB01     		lsl	r3, r3, #7
 830 00f4 054A     		ldr	r2, .L52
 831 00f6 9446     		mov	ip, r2
 832 00f8 6344     		add	r3, r3, ip
 833 00fa 181C     		mov	r0, r3
 834 00fc 0121     		mov	r1, #1
 835 00fe FFF7FEFF 		bl	Bootloader_SetFlashByte
1422:.\Generated_Source\PSoC4/Bootloader.c ****                                           Bootloader_MD_BTLDB_IS_VERIFIED);
1423:.\Generated_Source\PSoC4/Bootloader.c ****         #endif  /* (0u != Bootloader_FAST_APP_VALIDATION) */
1424:.\Generated_Source\PSoC4/Bootloader.c **** 
1425:.\Generated_Source\PSoC4/Bootloader.c **** 
1426:.\Generated_Source\PSoC4/Bootloader.c ****         return(CYRET_SUCCESS);
 836              		.loc 1 1426 0
 837 0102 0023     		mov	r3, #0
 838              	.L46:
1427:.\Generated_Source\PSoC4/Bootloader.c **** }
 839              		.loc 1 1427 0
 840 0104 181C     		mov	r0, r3
 841 0106 BD46     		mov	sp, r7
 842 0108 07B0     		add	sp, sp, #28
ARM GAS  C:\Users\LUKASC~1\AppData\Local\Temp\ccn8LSRc.s 			page 41


 843              		@ sp needed
 844 010a 90BD     		pop	{r4, r7, pc}
 845              	.L53:
 846              		.align	2
 847              	.L52:
 848 010c D17F0000 		.word	32721
 849              		.cfi_endproc
 850              	.LFE43:
 851              		.size	Bootloader_ValidateBootloadable, .-Bootloader_ValidateBootloadable
 852              		.section	.rodata
 853              		.align	2
 854              	.LC0:
 855 0000 9311C804 		.word	80220563
 856 0004 11       		.byte	17
 857 0005 32       		.byte	50
 858 0006 01       		.byte	1
 859 0007 01       		.byte	1
 860              		.section	.text.Bootloader_HostLink,"ax",%progbits
 861              		.align	2
 862              		.code	16
 863              		.thumb_func
 864              		.type	Bootloader_HostLink, %function
 865              	Bootloader_HostLink:
 866              	.LFB44:
1428:.\Generated_Source\PSoC4/Bootloader.c **** 
1429:.\Generated_Source\PSoC4/Bootloader.c **** #if (((0u != Bootloader_DUAL_APP_BOOTLOADER) && (CYDEV_PROJ_TYPE != CYDEV_PROJ_TYPE_LAUNCHER)) \
1430:.\Generated_Source\PSoC4/Bootloader.c ****                                           || (CYDEV_PROJ_TYPE == CYDEV_PROJ_TYPE_LOADABLEANDBOOTLOA
1431:.\Generated_Source\PSoC4/Bootloader.c **** /*******************************************************************************
1432:.\Generated_Source\PSoC4/Bootloader.c **** * Function Name: Bootloader_CheckImage
1433:.\Generated_Source\PSoC4/Bootloader.c **** ********************************************************************************
1434:.\Generated_Source\PSoC4/Bootloader.c **** * \internal
1435:.\Generated_Source\PSoC4/Bootloader.c **** *
1436:.\Generated_Source\PSoC4/Bootloader.c **** * \brief 
1437:.\Generated_Source\PSoC4/Bootloader.c **** *   This API checks if there is a permission to write to a certain image.
1438:.\Generated_Source\PSoC4/Bootloader.c **** *   It is used to check the active application as well as to check the Golden image.
1439:.\Generated_Source\PSoC4/Bootloader.c **** *
1440:.\Generated_Source\PSoC4/Bootloader.c **** * \param 
1441:.\Generated_Source\PSoC4/Bootloader.c **** *   appNumber - The application number.
1442:.\Generated_Source\PSoC4/Bootloader.c **** * \param 
1443:.\Generated_Source\PSoC4/Bootloader.c **** *   arrayNumber - The number of the flash page to write to.
1444:.\Generated_Source\PSoC4/Bootloader.c **** * \param 
1445:.\Generated_Source\PSoC4/Bootloader.c **** *   row - The row number to write to the flash.
1446:.\Generated_Source\PSoC4/Bootloader.c **** * \param 
1447:.\Generated_Source\PSoC4/Bootloader.c **** *   rowNumInArray - The row number inside the array.
1448:.\Generated_Source\PSoC4/Bootloader.c **** *
1449:.\Generated_Source\PSoC4/Bootloader.c **** * \return 
1450:.\Generated_Source\PSoC4/Bootloader.c **** *   CYRET_SUCCESS - Writing to a specified image is permitted.
1451:.\Generated_Source\PSoC4/Bootloader.c **** *   Bootloader_ERR_ACTIVE - Writing to this image is NOT permitted
1452:.\Generated_Source\PSoC4/Bootloader.c **** *   because the specified image is active or Golden.
1453:.\Generated_Source\PSoC4/Bootloader.c **** *
1454:.\Generated_Source\PSoC4/Bootloader.c **** * \endinternal
1455:.\Generated_Source\PSoC4/Bootloader.c **** *******************************************************************************/
1456:.\Generated_Source\PSoC4/Bootloader.c **** static uint8 Bootloader_CheckImage(uint8 appNumber, uint8 arrayNumber, uint16 row, uint16 rowNumInA
1457:.\Generated_Source\PSoC4/Bootloader.c ****                                          
1458:.\Generated_Source\PSoC4/Bootloader.c **** {
1459:.\Generated_Source\PSoC4/Bootloader.c ****     uint16 CYDATA firstRow = 0xFFFFu;
1460:.\Generated_Source\PSoC4/Bootloader.c ****     uint16 CYDATA lastRow = 0xFFFFu;
ARM GAS  C:\Users\LUKASC~1\AppData\Local\Temp\ccn8LSRc.s 			page 42


1461:.\Generated_Source\PSoC4/Bootloader.c ****     uint8 CYDATA ackCode = CYRET_SUCCESS;
1462:.\Generated_Source\PSoC4/Bootloader.c **** 
1463:.\Generated_Source\PSoC4/Bootloader.c ****     if (appNumber < Bootloader_MAX_NUM_OF_BTLDB)
1464:.\Generated_Source\PSoC4/Bootloader.c ****     {    
1465:.\Generated_Source\PSoC4/Bootloader.c ****         /*******************************************************************************
1466:.\Generated_Source\PSoC4/Bootloader.c ****         * For the first Bootloadable application - gets the last flash row occupied by
1467:.\Generated_Source\PSoC4/Bootloader.c ****         * the Bootloader application image:
1468:.\Generated_Source\PSoC4/Bootloader.c ****         *  ---------------------------------------------------------------------------
1469:.\Generated_Source\PSoC4/Bootloader.c ****         * | Bootloader   | Bootloadable # 1 |     | Bootloadable # 2 |     | M2 | M1 |
1470:.\Generated_Source\PSoC4/Bootloader.c ****         *  ---------------------------------------------------------------------------
1471:.\Generated_Source\PSoC4/Bootloader.c ****         * |<--firstRow---|>
1472:.\Generated_Source\PSoC4/Bootloader.c ****         *
1473:.\Generated_Source\PSoC4/Bootloader.c ****         * For the second Bootloadable application - gets the last flash row occupied by
1474:.\Generated_Source\PSoC4/Bootloader.c ****         * the first Bootloadable application:
1475:.\Generated_Source\PSoC4/Bootloader.c ****         *  ---------------------------------------------------------------------------
1476:.\Generated_Source\PSoC4/Bootloader.c ****         * | Bootloader   | Bootloadable # 1 |     | Bootloadable # 2 |     | M2 | M1 |
1477:.\Generated_Source\PSoC4/Bootloader.c ****         *  ---------------------------------------------------------------------------
1478:.\Generated_Source\PSoC4/Bootloader.c ****         * |<-------------firstRow-----------------|>
1479:.\Generated_Source\PSoC4/Bootloader.c ****         *
1480:.\Generated_Source\PSoC4/Bootloader.c ****         * Incremented by 1 to get the first available row.
1481:.\Generated_Source\PSoC4/Bootloader.c ****         *
1482:.\Generated_Source\PSoC4/Bootloader.c ****         * NOTE M1 and M2 stand for metadata # 1 and metadata # 2, metadata 
1483:.\Generated_Source\PSoC4/Bootloader.c ****         * sections for the 1st and 2nd Bootloadable applications.
1484:.\Generated_Source\PSoC4/Bootloader.c ****         *******************************************************************************/
1485:.\Generated_Source\PSoC4/Bootloader.c ****         firstRow = (uint16) 1u +
1486:.\Generated_Source\PSoC4/Bootloader.c ****             (uint16) Bootloader_GetMetadata(Bootloader_GET_BTLDR_LAST_ROW,  appNumber);
1487:.\Generated_Source\PSoC4/Bootloader.c **** 
1488:.\Generated_Source\PSoC4/Bootloader.c ****     
1489:.\Generated_Source\PSoC4/Bootloader.c ****     /***********************************************************************************
1490:.\Generated_Source\PSoC4/Bootloader.c ****     * If this is the Upgradable Stack use case, then Stack application and User application
1491:.\Generated_Source\PSoC4/Bootloader.c ****     * do not occupy the half of flash each, as the other applications do for Classic Dual-app 
1492:.\Generated_Source\PSoC4/Bootloader.c ****     * and the general Launcher-Combination use cases. Another approach for calculation 
1493:.\Generated_Source\PSoC4/Bootloader.c ****     * lastRow is used for the Upgradable Stack use case. See Bootloader datasheet for more 
1494:.\Generated_Source\PSoC4/Bootloader.c ****     * details (use cases description).
1495:.\Generated_Source\PSoC4/Bootloader.c ****     ***********************************************************************************/
1496:.\Generated_Source\PSoC4/Bootloader.c **** 
1497:.\Generated_Source\PSoC4/Bootloader.c ****     
1498:.\Generated_Source\PSoC4/Bootloader.c ****     #if ((CYDEV_PROJ_TYPE == CYDEV_PROJ_TYPE_LOADABLEANDBOOTLOADER) && \
1499:.\Generated_Source\PSoC4/Bootloader.c ****          (0u != Bootloader_IS_STACK_APPLICATION))
1500:.\Generated_Source\PSoC4/Bootloader.c ****         /*******************************************************************************
1501:.\Generated_Source\PSoC4/Bootloader.c ****         * The Upgradable Stack application case implies that only this application can 
1502:.\Generated_Source\PSoC4/Bootloader.c ****         * perform a bootloading operation (the other one can't). So a verification 
1503:.\Generated_Source\PSoC4/Bootloader.c ****         * will be run to check if the Stack application is not overwritten. 
1504:.\Generated_Source\PSoC4/Bootloader.c ****         *
1505:.\Generated_Source\PSoC4/Bootloader.c ****         * The Stack application is defined as the first application.
1506:.\Generated_Source\PSoC4/Bootloader.c ****           * The User application is defined as the second application.
1507:.\Generated_Source\PSoC4/Bootloader.c ****         *
1508:.\Generated_Source\PSoC4/Bootloader.c ****         * This check is intended for the case when the Stack application is active
1509:.\Generated_Source\PSoC4/Bootloader.c ****         * and performs bootloading for the User application:
1510:.\Generated_Source\PSoC4/Bootloader.c ****         *  ---------------------------------------------------------------------------
1511:.\Generated_Source\PSoC4/Bootloader.c ****         * |   Launcher   |       Stack     |           User app            | M2 | M1 |
1512:.\Generated_Source\PSoC4/Bootloader.c ****         *  ---------------------------------------------------------------------------
1513:.\Generated_Source\PSoC4/Bootloader.c ****         *                |<-------------------lastRow -------------------->|
1514:.\Generated_Source\PSoC4/Bootloader.c ****         *******************************************************************************/
1515:.\Generated_Source\PSoC4/Bootloader.c ****         lastRow = (uint16) Bootloader_GetMetadata(Bootloader_GET_BTLDR_LAST_ROW,
1516:.\Generated_Source\PSoC4/Bootloader.c ****                                                         Bootloader_USER_APPLICATION);    
1517:.\Generated_Source\PSoC4/Bootloader.c ****     
ARM GAS  C:\Users\LUKASC~1\AppData\Local\Temp\ccn8LSRc.s 			page 43


1518:.\Generated_Source\PSoC4/Bootloader.c ****     #else /* Classic Dual-app and the general Launcher-Combination use cases */    
1519:.\Generated_Source\PSoC4/Bootloader.c ****         /*******************************************************************************
1520:.\Generated_Source\PSoC4/Bootloader.c ****         * The number of flash rows available for both Bootloadable applications:
1521:.\Generated_Source\PSoC4/Bootloader.c ****         *
1522:.\Generated_Source\PSoC4/Bootloader.c ****         * The first Bootloadable application is active:
1523:.\Generated_Source\PSoC4/Bootloader.c ****         *  ---------------------------------------------------------------------------
1524:.\Generated_Source\PSoC4/Bootloader.c ****         * | Bootloader   | Bootloadable # 1 |     | Bootloadable # 2 |     | M2 | M1 |
1525:.\Generated_Source\PSoC4/Bootloader.c ****         *  ---------------------------------------------------------------------------
1526:.\Generated_Source\PSoC4/Bootloader.c ****         *                |<-------------------lastRow -------------------->|
1527:.\Generated_Source\PSoC4/Bootloader.c ****         *
1528:.\Generated_Source\PSoC4/Bootloader.c ****         * The second Bootloadable application is active:
1529:.\Generated_Source\PSoC4/Bootloader.c ****         *  ---------------------------------------------------------------------------
1530:.\Generated_Source\PSoC4/Bootloader.c ****         * | Bootloader   | Bootloadable # 1 |     | Bootloadable # 2 |     | M2 | M1 |
1531:.\Generated_Source\PSoC4/Bootloader.c ****         *  ---------------------------------------------------------------------------
1532:.\Generated_Source\PSoC4/Bootloader.c ****         *                                         |<-------lastRow-------->|
1533:.\Generated_Source\PSoC4/Bootloader.c ****         *******************************************************************************/
1534:.\Generated_Source\PSoC4/Bootloader.c ****         lastRow = (uint16)(CY_FLASH_NUMBER_ROWS - Bootloader_NUMBER_OF_METADATA_ROWS - firstRow);
1535:.\Generated_Source\PSoC4/Bootloader.c **** 
1536:.\Generated_Source\PSoC4/Bootloader.c ****         /*******************************************************************************
1537:.\Generated_Source\PSoC4/Bootloader.c ****         * The number of flash rows available for the active Bootloadable application:
1538:.\Generated_Source\PSoC4/Bootloader.c ****         *
1539:.\Generated_Source\PSoC4/Bootloader.c ****         * The first Bootloadable application is active: the number of flash rows available
1540:.\Generated_Source\PSoC4/Bootloader.c ****         * for both Bootloadable applications should be divided by 2, meaning 2 
1541:.\Generated_Source\PSoC4/Bootloader.c ****         * Bootloadable applications should fit there.
1542:.\Generated_Source\PSoC4/Bootloader.c ****         *
1543:.\Generated_Source\PSoC4/Bootloader.c ****         * The second Bootloadable application is active: the number of flash rows available
1544:.\Generated_Source\PSoC4/Bootloader.c ****         * for both Bootloadable applications should be divided by 1, meaning 1 
1545:.\Generated_Source\PSoC4/Bootloader.c ****         * Bootloadable application should fit there.
1546:.\Generated_Source\PSoC4/Bootloader.c ****         *******************************************************************************/
1547:.\Generated_Source\PSoC4/Bootloader.c ****         lastRow = (uint16)(lastRow / (uint8)(Bootloader_NUMBER_OF_BTLDBLE_APPS - appNumber));
1548:.\Generated_Source\PSoC4/Bootloader.c **** 
1549:.\Generated_Source\PSoC4/Bootloader.c ****         /*******************************************************************************
1550:.\Generated_Source\PSoC4/Bootloader.c ****         * The last row equals the first row plus the number of rows available for
1551:.\Generated_Source\PSoC4/Bootloader.c ****         * each Bootloadable application. That gives the flash row number right
1552:.\Generated_Source\PSoC4/Bootloader.c ****         * beyond the valid range, so we subtract 1.
1553:.\Generated_Source\PSoC4/Bootloader.c ****         *
1554:.\Generated_Source\PSoC4/Bootloader.c ****         * The first Bootloadable application is active:
1555:.\Generated_Source\PSoC4/Bootloader.c ****         *  ---------------------------------------------------------------------------
1556:.\Generated_Source\PSoC4/Bootloader.c ****         * | Bootloader   | Bootloadable # 1 |     | Bootloadable # 2 |     | M2 | M1 |
1557:.\Generated_Source\PSoC4/Bootloader.c ****         *  ---------------------------------------------------------------------------
1558:.\Generated_Source\PSoC4/Bootloader.c ****         * |<----------------lastRow ------------->|
1559:.\Generated_Source\PSoC4/Bootloader.c ****         *
1560:.\Generated_Source\PSoC4/Bootloader.c ****         * The second Bootloadable application is active:
1561:.\Generated_Source\PSoC4/Bootloader.c ****         *  ---------------------------------------------------------------------------
1562:.\Generated_Source\PSoC4/Bootloader.c ****         * | Bootloader   | Bootloadable # 1 |     | Bootloadable # 2 |     | M2 | M1 |
1563:.\Generated_Source\PSoC4/Bootloader.c ****         *  ---------------------------------------------------------------------------
1564:.\Generated_Source\PSoC4/Bootloader.c ****         * |<-----------------------------lastRow-------------------------->|
1565:.\Generated_Source\PSoC4/Bootloader.c ****         *******************************************************************************/
1566:.\Generated_Source\PSoC4/Bootloader.c ****         lastRow = (firstRow + lastRow) - 1u;
1567:.\Generated_Source\PSoC4/Bootloader.c ****     #endif /*(0u == Bootloader_IS_STACK_APPLICATION)*/    
1568:.\Generated_Source\PSoC4/Bootloader.c **** 
1569:.\Generated_Source\PSoC4/Bootloader.c ****         /*******************************************************************************
1570:.\Generated_Source\PSoC4/Bootloader.c ****         * 1. Refuses to write a row within the range of the active application.
1571:.\Generated_Source\PSoC4/Bootloader.c ****         *
1572:.\Generated_Source\PSoC4/Bootloader.c ****         *  The first Bootloadable application is active:
1573:.\Generated_Source\PSoC4/Bootloader.c ****         *   ---------------------------------------------------------------------------
1574:.\Generated_Source\PSoC4/Bootloader.c ****         *  | Bootloader   | Bootloadable # 1 |     | Bootloadable # 2 |     | M2 | M1 |
ARM GAS  C:\Users\LUKASC~1\AppData\Local\Temp\ccn8LSRc.s 			page 44


1575:.\Generated_Source\PSoC4/Bootloader.c ****         *   ---------------------------------------------------------------------------
1576:.\Generated_Source\PSoC4/Bootloader.c ****         *  |<----------------lastRow ------------->|
1577:.\Generated_Source\PSoC4/Bootloader.c ****         *  |<--firstRow---|>
1578:.\Generated_Source\PSoC4/Bootloader.c ****         *                 |<-------protected------>|
1579:.\Generated_Source\PSoC4/Bootloader.c ****         *
1580:.\Generated_Source\PSoC4/Bootloader.c ****         *  the second Bootloadable application is active:
1581:.\Generated_Source\PSoC4/Bootloader.c ****         *   ---------------------------------------------------------------------------
1582:.\Generated_Source\PSoC4/Bootloader.c ****         *  | Bootloader   | Bootloadable # 1 |     | Bootloadable # 2 |     | M2 | M1 |
1583:.\Generated_Source\PSoC4/Bootloader.c ****         *   ---------------------------------------------------------------------------
1584:.\Generated_Source\PSoC4/Bootloader.c ****         *  |<-------------firstRow-----------------|>
1585:.\Generated_Source\PSoC4/Bootloader.c ****         *  |<-----------------------------lastRow-------------------------->|
1586:.\Generated_Source\PSoC4/Bootloader.c ****         *                                          |<-------protected------>|
1587:.\Generated_Source\PSoC4/Bootloader.c ****         *
1588:.\Generated_Source\PSoC4/Bootloader.c ****         * 2. Refuses to write to the row that contains metadata of the active
1589:.\Generated_Source\PSoC4/Bootloader.c ****         *    Bootloadable application.
1590:.\Generated_Source\PSoC4/Bootloader.c ****         *
1591:.\Generated_Source\PSoC4/Bootloader.c ****         *******************************************************************************/
1592:.\Generated_Source\PSoC4/Bootloader.c ****         if (((row >= firstRow) && (row <= lastRow)) || ((arrayNumber == Bootloader_MD_FLASH_ARRAY_N
1593:.\Generated_Source\PSoC4/Bootloader.c ****             (rowNumInArray == Bootloader_MD_ROW_NUM(appNumber))))
1594:.\Generated_Source\PSoC4/Bootloader.c ****         {
1595:.\Generated_Source\PSoC4/Bootloader.c ****             ackCode = Bootloader_ERR_ACTIVE;
1596:.\Generated_Source\PSoC4/Bootloader.c ****         }
1597:.\Generated_Source\PSoC4/Bootloader.c ****     }
1598:.\Generated_Source\PSoC4/Bootloader.c ****     else /*(appNumber < Bootloader_MAX_NUM_OF_BTLDB)*/
1599:.\Generated_Source\PSoC4/Bootloader.c ****     {
1600:.\Generated_Source\PSoC4/Bootloader.c ****         ackCode = Bootloader_ERR_ACTIVE;
1601:.\Generated_Source\PSoC4/Bootloader.c ****     }
1602:.\Generated_Source\PSoC4/Bootloader.c ****     
1603:.\Generated_Source\PSoC4/Bootloader.c ****     return ackCode;
1604:.\Generated_Source\PSoC4/Bootloader.c **** }
1605:.\Generated_Source\PSoC4/Bootloader.c **** #endif  /* (0u != Bootloader_DUAL_APP_BOOTLOADER) || \
1606:.\Generated_Source\PSoC4/Bootloader.c ****            (CYDEV_PROJ_TYPE == CYDEV_PROJ_TYPE_LOADABLEANDBOOTLOADER) */
1607:.\Generated_Source\PSoC4/Bootloader.c **** 
1608:.\Generated_Source\PSoC4/Bootloader.c **** #if (CYDEV_PROJ_TYPE != CYDEV_PROJ_TYPE_LAUNCHER)
1609:.\Generated_Source\PSoC4/Bootloader.c **** /*******************************************************************************
1610:.\Generated_Source\PSoC4/Bootloader.c **** * Function Name: Bootloader_HostLink
1611:.\Generated_Source\PSoC4/Bootloader.c **** ****************************************************************************//**
1612:.\Generated_Source\PSoC4/Bootloader.c **** *
1613:.\Generated_Source\PSoC4/Bootloader.c **** * \brief
1614:.\Generated_Source\PSoC4/Bootloader.c **** *  Causes the Bootloader to attempt to read data being transmitted by the
1615:.\Generated_Source\PSoC4/Bootloader.c **** *  host application.  If data is sent from the host, this establishes the
1616:.\Generated_Source\PSoC4/Bootloader.c **** *  communication interface to process all requests.
1617:.\Generated_Source\PSoC4/Bootloader.c **** *
1618:.\Generated_Source\PSoC4/Bootloader.c **** * \param
1619:.\Generated_Source\PSoC4/Bootloader.c **** *  timeOut:
1620:.\Generated_Source\PSoC4/Bootloader.c **** *   The amount of time to listen for data before giving up. The timeout is
1621:.\Generated_Source\PSoC4/Bootloader.c **** *   measured in 10s of ms.  Use 0 for an infinite wait.
1622:.\Generated_Source\PSoC4/Bootloader.c **** * 
1623:.\Generated_Source\PSoC4/Bootloader.c **** * \details
1624:.\Generated_Source\PSoC4/Bootloader.c **** *  This function is public only for Launcher-Combination architecture. For 
1625:.\Generated_Source\PSoC4/Bootloader.c **** *  Classic Bootloader it is static, meaning private. 
1626:.\Generated_Source\PSoC4/Bootloader.c **** *******************************************************************************/
1627:.\Generated_Source\PSoC4/Bootloader.c **** #if (CYDEV_PROJ_TYPE != CYDEV_PROJ_TYPE_LOADABLEANDBOOTLOADER)
1628:.\Generated_Source\PSoC4/Bootloader.c **** static void Bootloader_HostLink(uint8 timeOut) CYLARGE 
1629:.\Generated_Source\PSoC4/Bootloader.c ****                    
1630:.\Generated_Source\PSoC4/Bootloader.c **** #else
1631:.\Generated_Source\PSoC4/Bootloader.c **** void Bootloader_HostLink(uint8 timeOut) CYLARGE 
ARM GAS  C:\Users\LUKASC~1\AppData\Local\Temp\ccn8LSRc.s 			page 45


1632:.\Generated_Source\PSoC4/Bootloader.c ****                    
1633:.\Generated_Source\PSoC4/Bootloader.c **** #endif /*(CYDEV_PROJ_TYPE != CYDEV_PROJ_TYPE_LOADABLEANDBOOTLOADER)*/    
1634:.\Generated_Source\PSoC4/Bootloader.c **** {
 867              		.loc 1 1634 0
 868              		.cfi_startproc
 869 0000 90B5     		push	{r4, r7, lr}
 870              		.cfi_def_cfa_offset 12
 871              		.cfi_offset 4, -12
 872              		.cfi_offset 7, -8
 873              		.cfi_offset 14, -4
 874 0002 DC4C     		ldr	r4, .L123
 875 0004 A544     		add	sp, sp, r4
 876              		.cfi_def_cfa_offset 840
 877 0006 00AF     		add	r7, sp, #0
 878              		.cfi_def_cfa_register 7
 879 0008 021C     		mov	r2, r0
 880 000a DB4B     		ldr	r3, .L123+4
 881 000c CE21     		mov	r1, #206
 882 000e 8900     		lsl	r1, r1, #2
 883 0010 8C46     		mov	ip, r1
 884 0012 BC44     		add	ip, ip, r7
 885 0014 6344     		add	r3, r3, ip
 886 0016 1A70     		strb	r2, [r3]
1635:.\Generated_Source\PSoC4/Bootloader.c ****     uint16    CYDATA numberRead;
1636:.\Generated_Source\PSoC4/Bootloader.c ****     uint16    CYDATA rspSize;
1637:.\Generated_Source\PSoC4/Bootloader.c ****     uint8     CYDATA ackCode;
1638:.\Generated_Source\PSoC4/Bootloader.c ****     uint16    CYDATA pktChecksum;
1639:.\Generated_Source\PSoC4/Bootloader.c ****     cystatus  CYDATA readStat;
1640:.\Generated_Source\PSoC4/Bootloader.c ****     uint16    CYDATA pktSize    = 0u;
 887              		.loc 1 1640 0
 888 0018 D84B     		ldr	r3, .L123+8
 889 001a FB18     		add	r3, r7, r3
 890 001c 0022     		mov	r2, #0
 891 001e 1A80     		strh	r2, [r3]
1641:.\Generated_Source\PSoC4/Bootloader.c ****     uint8     CYDATA timeOutCnt = 10u;
 892              		.loc 1 1641 0
 893 0020 D74B     		ldr	r3, .L123+12
 894 0022 FB18     		add	r3, r7, r3
 895 0024 0A22     		mov	r2, #10
 896 0026 1A70     		strb	r2, [r3]
1642:.\Generated_Source\PSoC4/Bootloader.c **** 
1643:.\Generated_Source\PSoC4/Bootloader.c ****     #if(0u != Bootloader_FAST_APP_VALIDATION)
1644:.\Generated_Source\PSoC4/Bootloader.c ****         uint8 CYDATA clearedMetaData = 0u;
 897              		.loc 1 1644 0
 898 0028 CC23     		mov	r3, #204
 899 002a 9B00     		lsl	r3, r3, #2
 900 002c FB18     		add	r3, r7, r3
 901 002e 0022     		mov	r2, #0
 902 0030 1A70     		strb	r2, [r3]
1645:.\Generated_Source\PSoC4/Bootloader.c ****     #endif  /* (0u != Bootloader_FAST_APP_VALIDATION) */
1646:.\Generated_Source\PSoC4/Bootloader.c **** 
1647:.\Generated_Source\PSoC4/Bootloader.c **** #if (CYDEV_PROJ_TYPE == CYDEV_PROJ_TYPE_LOADABLEANDBOOTLOADER)
1648:.\Generated_Source\PSoC4/Bootloader.c ****     static  CYBIT communicationState = Bootloader_COMMUNICATION_STATE_IDLE; 
1649:.\Generated_Source\PSoC4/Bootloader.c ****     static uint16 CYDATA dataOffset = 0u; 
1650:.\Generated_Source\PSoC4/Bootloader.c ****     uint16  CYDATA btldrLastRow = 0xFFFFu;
1651:.\Generated_Source\PSoC4/Bootloader.c ****     uint8 needToCopyFlag = 0u;
1652:.\Generated_Source\PSoC4/Bootloader.c ****     uint32 app2StartAddress = Bootloader_GetMetadata(Bootloader_GET_BTLDB_ADDR, 
ARM GAS  C:\Users\LUKASC~1\AppData\Local\Temp\ccn8LSRc.s 			page 46


1653:.\Generated_Source\PSoC4/Bootloader.c ****                               Bootloader_MD_BTLDB_ACTIVE_1);
1654:.\Generated_Source\PSoC4/Bootloader.c **** #else
1655:.\Generated_Source\PSoC4/Bootloader.c ****     CYBIT     communicationState = Bootloader_COMMUNICATION_STATE_IDLE;
 903              		.loc 1 1655 0
 904 0032 D44B     		ldr	r3, .L123+16
 905 0034 FB18     		add	r3, r7, r3
 906 0036 0022     		mov	r2, #0
 907 0038 1A70     		strb	r2, [r3]
1656:.\Generated_Source\PSoC4/Bootloader.c ****     uint16 CYDATA dataOffset = 0u; 
 908              		.loc 1 1656 0
 909 003a CB23     		mov	r3, #203
 910 003c 9B00     		lsl	r3, r3, #2
 911 003e FB18     		add	r3, r7, r3
 912 0040 0022     		mov	r2, #0
 913 0042 1A80     		strh	r2, [r3]
1657:.\Generated_Source\PSoC4/Bootloader.c **** #endif /*CYDEV_PROJ_TYPE == CYDEV_PROJ_TYPE_LOADABLEANDBOOTLOADER*/
1658:.\Generated_Source\PSoC4/Bootloader.c **** 
1659:.\Generated_Source\PSoC4/Bootloader.c ****     uint8     packetBuffer[Bootloader_SIZEOF_COMMAND_BUFFER];
1660:.\Generated_Source\PSoC4/Bootloader.c ****     uint8     dataBuffer  [Bootloader_SIZEOF_COMMAND_BUFFER];
1661:.\Generated_Source\PSoC4/Bootloader.c **** 
1662:.\Generated_Source\PSoC4/Bootloader.c **** 
1663:.\Generated_Source\PSoC4/Bootloader.c ****     #if(!CY_PSOC4)
1664:.\Generated_Source\PSoC4/Bootloader.c ****         #if(0u == Bootloader_FAST_APP_VALIDATION)
1665:.\Generated_Source\PSoC4/Bootloader.c ****             #if !defined(CY_BOOT_VERSION)
1666:.\Generated_Source\PSoC4/Bootloader.c **** 
1667:.\Generated_Source\PSoC4/Bootloader.c ****                 /* Not required with cy_boot 4.20 */
1668:.\Generated_Source\PSoC4/Bootloader.c ****                 uint8 CYXDATA Bootloader_flashBuffer[Bootloader_FROW_SIZE];
1669:.\Generated_Source\PSoC4/Bootloader.c **** 
1670:.\Generated_Source\PSoC4/Bootloader.c ****             #endif /* !defined(CY_BOOT_VERSION) */
1671:.\Generated_Source\PSoC4/Bootloader.c ****         #endif  /* (0u == Bootloader_FAST_APP_VALIDATION) */
1672:.\Generated_Source\PSoC4/Bootloader.c ****     #endif  /* (CY_PSOC4) */
1673:.\Generated_Source\PSoC4/Bootloader.c **** 
1674:.\Generated_Source\PSoC4/Bootloader.c **** 
1675:.\Generated_Source\PSoC4/Bootloader.c **** 
1676:.\Generated_Source\PSoC4/Bootloader.c ****     #if(!CY_PSOC4)
1677:.\Generated_Source\PSoC4/Bootloader.c ****         #if((0u == Bootloader_FAST_APP_VALIDATION) || \
1678:.\Generated_Source\PSoC4/Bootloader.c ****             (CYDEV_PROJ_TYPE == CYDEV_PROJ_TYPE_LOADABLEANDBOOTLOADER))
1679:.\Generated_Source\PSoC4/Bootloader.c **** 
1680:.\Generated_Source\PSoC4/Bootloader.c ****             /* Initialize flash subsystem for non-PSoC 4 devices */
1681:.\Generated_Source\PSoC4/Bootloader.c ****             if (CYRET_SUCCESS != CySetTemp())
1682:.\Generated_Source\PSoC4/Bootloader.c ****             {
1683:.\Generated_Source\PSoC4/Bootloader.c ****                 CyHalt(0x00u);
1684:.\Generated_Source\PSoC4/Bootloader.c ****             }
1685:.\Generated_Source\PSoC4/Bootloader.c **** 
1686:.\Generated_Source\PSoC4/Bootloader.c ****         #endif  /* (0u == Bootloader_FAST_APP_VALIDATION) ||
1687:.\Generated_Source\PSoC4/Bootloader.c ****                    (CYDEV_PROJ_TYPE == CYDEV_PROJ_TYPE_LOADABLEANDBOOTLOADER) */
1688:.\Generated_Source\PSoC4/Bootloader.c ****     #endif  /* (CY_PSOC4) */
1689:.\Generated_Source\PSoC4/Bootloader.c **** 
1690:.\Generated_Source\PSoC4/Bootloader.c ****     /* Initialize communications channel. */
1691:.\Generated_Source\PSoC4/Bootloader.c ****     CyBtldrCommStart();
 914              		.loc 1 1691 0
 915 0044 FFF7FEFF 		bl	I2C_Slave_I2CCyBtldrCommStart
1692:.\Generated_Source\PSoC4/Bootloader.c **** 
1693:.\Generated_Source\PSoC4/Bootloader.c ****     /* Enable global interrupts */
1694:.\Generated_Source\PSoC4/Bootloader.c ****     CyGlobalIntEnable;
 916              		.loc 1 1694 0
 917              	@ 1694 ".\Generated_Source\PSoC4\Bootloader.c" 1
ARM GAS  C:\Users\LUKASC~1\AppData\Local\Temp\ccn8LSRc.s 			page 47


 918 0048 62B6     		CPSIE   i
 919              	@ 0 "" 2
 920              		.code	16
 921              	.L121:
1695:.\Generated_Source\PSoC4/Bootloader.c **** 
1696:.\Generated_Source\PSoC4/Bootloader.c ****     do
1697:.\Generated_Source\PSoC4/Bootloader.c ****     {
1698:.\Generated_Source\PSoC4/Bootloader.c ****         ackCode = CYRET_SUCCESS;
 922              		.loc 1 1698 0
 923 004a CF4B     		ldr	r3, .L123+20
 924 004c FB18     		add	r3, r7, r3
 925 004e 0022     		mov	r2, #0
 926 0050 1A70     		strb	r2, [r3]
 927              	.L59:
1699:.\Generated_Source\PSoC4/Bootloader.c **** 
1700:.\Generated_Source\PSoC4/Bootloader.c ****         do
1701:.\Generated_Source\PSoC4/Bootloader.c ****         {
1702:.\Generated_Source\PSoC4/Bootloader.c ****             readStat = CyBtldrCommRead(packetBuffer,
 928              		.loc 1 1702 0
 929 0052 C94B     		ldr	r3, .L123+4
 930 0054 CE22     		mov	r2, #206
 931 0056 9200     		lsl	r2, r2, #2
 932 0058 9446     		mov	ip, r2
 933 005a BC44     		add	ip, ip, r7
 934 005c 6344     		add	r3, r3, ip
 935 005e 1B78     		ldrb	r3, [r3]
 936 0060 002B     		cmp	r3, #0
 937 0062 07D0     		beq	.L55
 938              		.loc 1 1702 0 is_stmt 0 discriminator 1
 939 0064 C44B     		ldr	r3, .L123+4
 940 0066 CE22     		mov	r2, #206
 941 0068 9200     		lsl	r2, r2, #2
 942 006a 9446     		mov	ip, r2
 943 006c BC44     		add	ip, ip, r7
 944 006e 6344     		add	r3, r3, ip
 945 0070 1B78     		ldrb	r3, [r3]
 946 0072 00E0     		b	.L56
 947              	.L55:
 948              		.loc 1 1702 0 discriminator 2
 949 0074 FF23     		mov	r3, #255
 950              	.L56:
 951              		.loc 1 1702 0 discriminator 4
 952 0076 EA22     		mov	r2, #234
 953 0078 5200     		lsl	r2, r2, #1
 954 007a B818     		add	r0, r7, r2
 955 007c 9622     		mov	r2, #150
 956 007e 5100     		lsl	r1, r2, #1
 957 0080 C022     		mov	r2, #192
 958 0082 9200     		lsl	r2, r2, #2
 959 0084 BA18     		add	r2, r7, r2
 960 0086 FFF7FEFF 		bl	I2C_Slave_I2CCyBtldrCommRead
 961 008a 031C     		mov	r3, r0
 962 008c C822     		mov	r2, #200
 963 008e 9200     		lsl	r2, r2, #2
 964 0090 BA18     		add	r2, r7, r2
 965 0092 1360     		str	r3, [r2]
1703:.\Generated_Source\PSoC4/Bootloader.c ****                                         Bootloader_SIZEOF_COMMAND_BUFFER,
ARM GAS  C:\Users\LUKASC~1\AppData\Local\Temp\ccn8LSRc.s 			page 48


1704:.\Generated_Source\PSoC4/Bootloader.c ****                                         &numberRead,
1705:.\Generated_Source\PSoC4/Bootloader.c ****                                         (0u == timeOut) ? 0xFFu : timeOut);
1706:.\Generated_Source\PSoC4/Bootloader.c ****             if (0u != timeOut)
 966              		.loc 1 1706 0 is_stmt 1 discriminator 4
 967 0094 B84B     		ldr	r3, .L123+4
 968 0096 CE22     		mov	r2, #206
 969 0098 9200     		lsl	r2, r2, #2
 970 009a 9446     		mov	ip, r2
 971 009c BC44     		add	ip, ip, r7
 972 009e 6344     		add	r3, r3, ip
 973 00a0 1B78     		ldrb	r3, [r3]
 974 00a2 002B     		cmp	r3, #0
 975 00a4 06D0     		beq	.L57
1707:.\Generated_Source\PSoC4/Bootloader.c ****             {
1708:.\Generated_Source\PSoC4/Bootloader.c ****                 timeOutCnt--;
 976              		.loc 1 1708 0
 977 00a6 B64B     		ldr	r3, .L123+12
 978 00a8 FB18     		add	r3, r7, r3
 979 00aa 1A78     		ldrb	r2, [r3]
 980 00ac B44B     		ldr	r3, .L123+12
 981 00ae FB18     		add	r3, r7, r3
 982 00b0 013A     		sub	r2, r2, #1
 983 00b2 1A70     		strb	r2, [r3]
 984              	.L57:
1709:.\Generated_Source\PSoC4/Bootloader.c ****             }
1710:.\Generated_Source\PSoC4/Bootloader.c **** 
1711:.\Generated_Source\PSoC4/Bootloader.c ****         } while ( (0u != timeOutCnt) && (readStat != CYRET_SUCCESS) );
 985              		.loc 1 1711 0
 986 00b4 B24B     		ldr	r3, .L123+12
 987 00b6 FB18     		add	r3, r7, r3
 988 00b8 1B78     		ldrb	r3, [r3]
 989 00ba 002B     		cmp	r3, #0
 990 00bc 05D0     		beq	.L58
 991              		.loc 1 1711 0 is_stmt 0 discriminator 1
 992 00be C823     		mov	r3, #200
 993 00c0 9B00     		lsl	r3, r3, #2
 994 00c2 FB18     		add	r3, r7, r3
 995 00c4 1B68     		ldr	r3, [r3]
 996 00c6 002B     		cmp	r3, #0
 997 00c8 C3D1     		bne	.L59
 998              	.L58:
1712:.\Generated_Source\PSoC4/Bootloader.c **** 
1713:.\Generated_Source\PSoC4/Bootloader.c **** 
1714:.\Generated_Source\PSoC4/Bootloader.c ****         if( readStat != CYRET_SUCCESS )
 999              		.loc 1 1714 0 is_stmt 1
 1000 00ca C823     		mov	r3, #200
 1001 00cc 9B00     		lsl	r3, r3, #2
 1002 00ce FB18     		add	r3, r7, r3
 1003 00d0 1B68     		ldr	r3, [r3]
 1004 00d2 002B     		cmp	r3, #0
 1005 00d4 01D0     		beq	.L60
1715:.\Generated_Source\PSoC4/Bootloader.c ****         {
1716:.\Generated_Source\PSoC4/Bootloader.c ****             continue;
 1006              		.loc 1 1716 0
 1007 00d6 00F0DCFC 		bl	.L61	@ far jump
 1008              	.L60:
1717:.\Generated_Source\PSoC4/Bootloader.c ****         }
ARM GAS  C:\Users\LUKASC~1\AppData\Local\Temp\ccn8LSRc.s 			page 49


1718:.\Generated_Source\PSoC4/Bootloader.c **** 
1719:.\Generated_Source\PSoC4/Bootloader.c ****         if((numberRead < Bootloader_MIN_PKT_SIZE) ||
 1009              		.loc 1 1719 0
 1010 00da C023     		mov	r3, #192
 1011 00dc 9B00     		lsl	r3, r3, #2
 1012 00de FB18     		add	r3, r7, r3
 1013 00e0 1B88     		ldrh	r3, [r3]
 1014 00e2 062B     		cmp	r3, #6
 1015 00e4 08D9     		bls	.L62
1720:.\Generated_Source\PSoC4/Bootloader.c ****            (packetBuffer[Bootloader_SOP_ADDR] != Bootloader_SOP))
 1016              		.loc 1 1720 0 discriminator 1
 1017 00e6 A94B     		ldr	r3, .L123+24
 1018 00e8 CE22     		mov	r2, #206
 1019 00ea 9200     		lsl	r2, r2, #2
 1020 00ec 9446     		mov	ip, r2
 1021 00ee BC44     		add	ip, ip, r7
 1022 00f0 6344     		add	r3, r3, ip
 1023 00f2 1B78     		ldrb	r3, [r3]
1719:.\Generated_Source\PSoC4/Bootloader.c ****            (packetBuffer[Bootloader_SOP_ADDR] != Bootloader_SOP))
 1024              		.loc 1 1719 0 discriminator 1
 1025 00f4 012B     		cmp	r3, #1
 1026 00f6 04D0     		beq	.L63
 1027              	.L62:
1721:.\Generated_Source\PSoC4/Bootloader.c ****         {
1722:.\Generated_Source\PSoC4/Bootloader.c ****             ackCode = Bootloader_ERR_DATA;
 1028              		.loc 1 1722 0
 1029 00f8 A34B     		ldr	r3, .L123+20
 1030 00fa FB18     		add	r3, r7, r3
 1031 00fc 0422     		mov	r2, #4
 1032 00fe 1A70     		strb	r2, [r3]
 1033 0100 73E0     		b	.L64
 1034              	.L63:
1723:.\Generated_Source\PSoC4/Bootloader.c ****         }
1724:.\Generated_Source\PSoC4/Bootloader.c ****         else
1725:.\Generated_Source\PSoC4/Bootloader.c ****         {
1726:.\Generated_Source\PSoC4/Bootloader.c ****             pktSize = ((uint16)((uint16)packetBuffer[Bootloader_SIZE_ADDR + 1u] << 8u)) |
 1035              		.loc 1 1726 0
 1036 0102 A24B     		ldr	r3, .L123+24
 1037 0104 CE22     		mov	r2, #206
 1038 0106 9200     		lsl	r2, r2, #2
 1039 0108 9446     		mov	ip, r2
 1040 010a BC44     		add	ip, ip, r7
 1041 010c 6344     		add	r3, r3, ip
 1042 010e DB78     		ldrb	r3, [r3, #3]
 1043 0110 9BB2     		uxth	r3, r3
 1044 0112 1B02     		lsl	r3, r3, #8
 1045 0114 99B2     		uxth	r1, r3
1727:.\Generated_Source\PSoC4/Bootloader.c ****                                packetBuffer[Bootloader_SIZE_ADDR];
 1046              		.loc 1 1727 0
 1047 0116 9D4B     		ldr	r3, .L123+24
 1048 0118 CE22     		mov	r2, #206
 1049 011a 9200     		lsl	r2, r2, #2
 1050 011c 9446     		mov	ip, r2
 1051 011e BC44     		add	ip, ip, r7
 1052 0120 6344     		add	r3, r3, ip
 1053 0122 9B78     		ldrb	r3, [r3, #2]
1726:.\Generated_Source\PSoC4/Bootloader.c ****                                packetBuffer[Bootloader_SIZE_ADDR];
ARM GAS  C:\Users\LUKASC~1\AppData\Local\Temp\ccn8LSRc.s 			page 50


 1054              		.loc 1 1726 0
 1055 0124 9AB2     		uxth	r2, r3
 1056 0126 954B     		ldr	r3, .L123+8
 1057 0128 FB18     		add	r3, r7, r3
 1058 012a 0A43     		orr	r2, r1
 1059 012c 1A80     		strh	r2, [r3]
1728:.\Generated_Source\PSoC4/Bootloader.c **** 
1729:.\Generated_Source\PSoC4/Bootloader.c **** 
1730:.\Generated_Source\PSoC4/Bootloader.c ****             /**************************************************************************************
1731:.\Generated_Source\PSoC4/Bootloader.c ****             * If the whole packet length exceeds the number of bytes that have been read by the com
1732:.\Generated_Source\PSoC4/Bootloader.c ****             * component or the size of the buffer that is reserved for the packet, then give an err
1733:.\Generated_Source\PSoC4/Bootloader.c ****             **************************************************************************************/
1734:.\Generated_Source\PSoC4/Bootloader.c ****             if (((pktSize + Bootloader_MIN_PKT_SIZE) > numberRead) || 
 1060              		.loc 1 1734 0
 1061 012e 934B     		ldr	r3, .L123+8
 1062 0130 FB18     		add	r3, r7, r3
 1063 0132 1B88     		ldrh	r3, [r3]
 1064 0134 0733     		add	r3, r3, #7
 1065 0136 C022     		mov	r2, #192
 1066 0138 9200     		lsl	r2, r2, #2
 1067 013a BA18     		add	r2, r7, r2
 1068 013c 1288     		ldrh	r2, [r2]
 1069 013e 9342     		cmp	r3, r2
 1070 0140 07D8     		bhi	.L65
1735:.\Generated_Source\PSoC4/Bootloader.c ****                 ((pktSize + Bootloader_MIN_PKT_SIZE) > Bootloader_SIZEOF_COMMAND_BUFFER)) 
 1071              		.loc 1 1735 0 discriminator 1
 1072 0142 8E4B     		ldr	r3, .L123+8
 1073 0144 FB18     		add	r3, r7, r3
 1074 0146 1B88     		ldrh	r3, [r3]
 1075 0148 DA1D     		add	r2, r3, #7
1734:.\Generated_Source\PSoC4/Bootloader.c ****                 ((pktSize + Bootloader_MIN_PKT_SIZE) > Bootloader_SIZEOF_COMMAND_BUFFER)) 
 1076              		.loc 1 1734 0 discriminator 1
 1077 014a 9623     		mov	r3, #150
 1078 014c 5B00     		lsl	r3, r3, #1
 1079 014e 9A42     		cmp	r2, r3
 1080 0150 04D9     		bls	.L66
 1081              	.L65:
1736:.\Generated_Source\PSoC4/Bootloader.c ****             {
1737:.\Generated_Source\PSoC4/Bootloader.c ****                 ackCode = Bootloader_ERR_LENGTH;
 1082              		.loc 1 1737 0
 1083 0152 8D4B     		ldr	r3, .L123+20
 1084 0154 FB18     		add	r3, r7, r3
 1085 0156 0322     		mov	r2, #3
 1086 0158 1A70     		strb	r2, [r3]
 1087 015a 46E0     		b	.L64
 1088              	.L66:
1738:.\Generated_Source\PSoC4/Bootloader.c ****             }
1739:.\Generated_Source\PSoC4/Bootloader.c ****             else /* Packet length is OK*/
1740:.\Generated_Source\PSoC4/Bootloader.c ****             {
1741:.\Generated_Source\PSoC4/Bootloader.c ****                 pktChecksum = ((uint16)((uint16)packetBuffer[Bootloader_CHK_ADDR(pktSize) + 1u] << 
 1089              		.loc 1 1741 0
 1090 015c 874B     		ldr	r3, .L123+8
 1091 015e FB18     		add	r3, r7, r3
 1092 0160 1B88     		ldrh	r3, [r3]
 1093 0162 0533     		add	r3, r3, #5
 1094 0164 894A     		ldr	r2, .L123+24
 1095 0166 CE21     		mov	r1, #206
ARM GAS  C:\Users\LUKASC~1\AppData\Local\Temp\ccn8LSRc.s 			page 51


 1096 0168 8900     		lsl	r1, r1, #2
 1097 016a 8C46     		mov	ip, r1
 1098 016c BC44     		add	ip, ip, r7
 1099 016e 6244     		add	r2, r2, ip
 1100 0170 D35C     		ldrb	r3, [r2, r3]
 1101 0172 9BB2     		uxth	r3, r3
 1102 0174 1B02     		lsl	r3, r3, #8
 1103 0176 99B2     		uxth	r1, r3
1742:.\Generated_Source\PSoC4/Bootloader.c ****                                    packetBuffer[Bootloader_CHK_ADDR(pktSize)];
 1104              		.loc 1 1742 0
 1105 0178 804B     		ldr	r3, .L123+8
 1106 017a FB18     		add	r3, r7, r3
 1107 017c 1B88     		ldrh	r3, [r3]
 1108 017e 0433     		add	r3, r3, #4
 1109 0180 824A     		ldr	r2, .L123+24
 1110 0182 CE20     		mov	r0, #206
 1111 0184 8000     		lsl	r0, r0, #2
 1112 0186 8446     		mov	ip, r0
 1113 0188 BC44     		add	ip, ip, r7
 1114 018a 6244     		add	r2, r2, ip
 1115 018c D35C     		ldrb	r3, [r2, r3]
1741:.\Generated_Source\PSoC4/Bootloader.c ****                                    packetBuffer[Bootloader_CHK_ADDR(pktSize)];
 1116              		.loc 1 1741 0
 1117 018e 9AB2     		uxth	r2, r3
 1118 0190 7F4B     		ldr	r3, .L123+28
 1119 0192 FB18     		add	r3, r7, r3
 1120 0194 0A43     		orr	r2, r1
 1121 0196 1A80     		strh	r2, [r3]
1743:.\Generated_Source\PSoC4/Bootloader.c ****    
1744:.\Generated_Source\PSoC4/Bootloader.c ****                 if (packetBuffer[Bootloader_EOP_ADDR(pktSize)] != Bootloader_EOP)
 1122              		.loc 1 1744 0
 1123 0198 784B     		ldr	r3, .L123+8
 1124 019a FB18     		add	r3, r7, r3
 1125 019c 1B88     		ldrh	r3, [r3]
 1126 019e 0633     		add	r3, r3, #6
 1127 01a0 7A4A     		ldr	r2, .L123+24
 1128 01a2 CE21     		mov	r1, #206
 1129 01a4 8900     		lsl	r1, r1, #2
 1130 01a6 8C46     		mov	ip, r1
 1131 01a8 BC44     		add	ip, ip, r7
 1132 01aa 6244     		add	r2, r2, ip
 1133 01ac D35C     		ldrb	r3, [r2, r3]
 1134 01ae 172B     		cmp	r3, #23
 1135 01b0 04D0     		beq	.L67
1745:.\Generated_Source\PSoC4/Bootloader.c ****                 {
1746:.\Generated_Source\PSoC4/Bootloader.c ****                     ackCode = Bootloader_ERR_DATA;
 1136              		.loc 1 1746 0
 1137 01b2 754B     		ldr	r3, .L123+20
 1138 01b4 FB18     		add	r3, r7, r3
 1139 01b6 0422     		mov	r2, #4
 1140 01b8 1A70     		strb	r2, [r3]
 1141 01ba 16E0     		b	.L64
 1142              	.L67:
1747:.\Generated_Source\PSoC4/Bootloader.c ****                 }
1748:.\Generated_Source\PSoC4/Bootloader.c ****                 else if(pktChecksum != Bootloader_CalcPacketChecksum(packetBuffer,
 1143              		.loc 1 1748 0
 1144 01bc 6F4B     		ldr	r3, .L123+8
ARM GAS  C:\Users\LUKASC~1\AppData\Local\Temp\ccn8LSRc.s 			page 52


 1145 01be FB18     		add	r3, r7, r3
 1146 01c0 1B88     		ldrh	r3, [r3]
 1147 01c2 0433     		add	r3, r3, #4
 1148 01c4 9BB2     		uxth	r3, r3
 1149 01c6 EA22     		mov	r2, #234
 1150 01c8 5200     		lsl	r2, r2, #1
 1151 01ca BA18     		add	r2, r7, r2
 1152 01cc 101C     		mov	r0, r2
 1153 01ce 191C     		mov	r1, r3
 1154 01d0 FFF7FEFF 		bl	Bootloader_CalcPacketChecksum
 1155 01d4 031C     		mov	r3, r0
 1156 01d6 1A1C     		mov	r2, r3
 1157 01d8 6D4B     		ldr	r3, .L123+28
 1158 01da FB18     		add	r3, r7, r3
 1159 01dc 1B88     		ldrh	r3, [r3]
 1160 01de 9342     		cmp	r3, r2
 1161 01e0 03D0     		beq	.L64
1749:.\Generated_Source\PSoC4/Bootloader.c ****                                                                         pktSize + Bootloader_DATA_A
1750:.\Generated_Source\PSoC4/Bootloader.c ****                 {
1751:.\Generated_Source\PSoC4/Bootloader.c ****                     ackCode = Bootloader_ERR_CHECKSUM;
 1162              		.loc 1 1751 0
 1163 01e2 694B     		ldr	r3, .L123+20
 1164 01e4 FB18     		add	r3, r7, r3
 1165 01e6 0822     		mov	r2, #8
 1166 01e8 1A70     		strb	r2, [r3]
 1167              	.L64:
1752:.\Generated_Source\PSoC4/Bootloader.c ****                 }
1753:.\Generated_Source\PSoC4/Bootloader.c ****                 else
1754:.\Generated_Source\PSoC4/Bootloader.c ****                 {
1755:.\Generated_Source\PSoC4/Bootloader.c ****                     /* Empty section */
1756:.\Generated_Source\PSoC4/Bootloader.c ****                 }
1757:.\Generated_Source\PSoC4/Bootloader.c ****             }    
1758:.\Generated_Source\PSoC4/Bootloader.c ****         }
1759:.\Generated_Source\PSoC4/Bootloader.c **** 
1760:.\Generated_Source\PSoC4/Bootloader.c ****         rspSize = Bootloader_RSP_SIZE_0;
 1168              		.loc 1 1760 0
 1169 01ea 6A4B     		ldr	r3, .L123+32
 1170 01ec FB18     		add	r3, r7, r3
 1171 01ee 0022     		mov	r2, #0
 1172 01f0 1A80     		strh	r2, [r3]
1761:.\Generated_Source\PSoC4/Bootloader.c ****         if(ackCode == CYRET_SUCCESS)
 1173              		.loc 1 1761 0
 1174 01f2 654B     		ldr	r3, .L123+20
 1175 01f4 FB18     		add	r3, r7, r3
 1176 01f6 1B78     		ldrb	r3, [r3]
 1177 01f8 002B     		cmp	r3, #0
 1178 01fa 01D0     		beq	.LCB1015
 1179 01fc 00F03BFC 		bl	.L68	@far jump
 1180              	.LCB1015:
 1181              	.LBB5:
1762:.\Generated_Source\PSoC4/Bootloader.c ****         {
1763:.\Generated_Source\PSoC4/Bootloader.c ****             uint8 CYDATA btldrData = packetBuffer[Bootloader_DATA_ADDR];
 1182              		.loc 1 1763 0
 1183 0200 654B     		ldr	r3, .L123+36
 1184 0202 FB18     		add	r3, r7, r3
 1185 0204 614A     		ldr	r2, .L123+24
 1186 0206 CE21     		mov	r1, #206
ARM GAS  C:\Users\LUKASC~1\AppData\Local\Temp\ccn8LSRc.s 			page 53


 1187 0208 8900     		lsl	r1, r1, #2
 1188 020a 8C46     		mov	ip, r1
 1189 020c BC44     		add	ip, ip, r7
 1190 020e 6244     		add	r2, r2, ip
 1191 0210 1279     		ldrb	r2, [r2, #4]
 1192 0212 1A70     		strb	r2, [r3]
1764:.\Generated_Source\PSoC4/Bootloader.c **** 
1765:.\Generated_Source\PSoC4/Bootloader.c ****             ackCode = Bootloader_ERR_DATA;
 1193              		.loc 1 1765 0
 1194 0214 5C4B     		ldr	r3, .L123+20
 1195 0216 FB18     		add	r3, r7, r3
 1196 0218 0422     		mov	r2, #4
 1197 021a 1A70     		strb	r2, [r3]
1766:.\Generated_Source\PSoC4/Bootloader.c ****             switch(packetBuffer[Bootloader_CMD_ADDR])
 1198              		.loc 1 1766 0
 1199 021c 5B4B     		ldr	r3, .L123+24
 1200 021e CE22     		mov	r2, #206
 1201 0220 9200     		lsl	r2, r2, #2
 1202 0222 9446     		mov	ip, r2
 1203 0224 BC44     		add	ip, ip, r7
 1204 0226 6344     		add	r3, r3, ip
 1205 0228 5B78     		ldrb	r3, [r3, #1]
 1206 022a 313B     		sub	r3, r3, #49
 1207 022c 142B     		cmp	r3, #20
 1208 022e 01D9     		bls	.LCB1040
 1209 0230 00F074FB 		bl	.L69	@far jump
 1210              	.LCB1040:
 1211 0234 9A00     		lsl	r2, r3, #2
 1212 0236 594B     		ldr	r3, .L123+40
 1213 0238 D318     		add	r3, r2, r3
 1214 023a 1B68     		ldr	r3, [r3]
 1215 023c 9F46     		mov	pc, r3
 1216              		.section	.rodata
 1217              		.align	2
 1218              	.L71:
 1219 0008 3E020000 		.word	.L70
 1220 000c D0030000 		.word	.L72
 1221 0010 1C090000 		.word	.L69
 1222 0014 AA040000 		.word	.L73
 1223 0018 BC060000 		.word	.L74
 1224 001c 1C090000 		.word	.L69
 1225 0020 00070000 		.word	.L75
 1226 0024 76070000 		.word	.L76
 1227 0028 AA040000 		.word	.L73
 1228 002c DA070000 		.word	.L77
 1229 0030 02090000 		.word	.L78
 1230 0034 1C090000 		.word	.L69
 1231 0038 1C090000 		.word	.L69
 1232 003c 1C090000 		.word	.L69
 1233 0040 1C090000 		.word	.L69
 1234 0044 1C090000 		.word	.L69
 1235 0048 1C090000 		.word	.L69
 1236 004c 1C090000 		.word	.L69
 1237 0050 1C090000 		.word	.L69
 1238 0054 1C090000 		.word	.L69
 1239 0058 88020000 		.word	.L79
 1240              		.section	.text.Bootloader_HostLink
ARM GAS  C:\Users\LUKASC~1\AppData\Local\Temp\ccn8LSRc.s 			page 54


 1241              	.L70:
1767:.\Generated_Source\PSoC4/Bootloader.c ****             {
1768:.\Generated_Source\PSoC4/Bootloader.c **** 
1769:.\Generated_Source\PSoC4/Bootloader.c **** 
1770:.\Generated_Source\PSoC4/Bootloader.c ****             /***************************************************************************
1771:.\Generated_Source\PSoC4/Bootloader.c ****             *   Get metadata (0x3C)
1772:.\Generated_Source\PSoC4/Bootloader.c ****             ***************************************************************************/
1773:.\Generated_Source\PSoC4/Bootloader.c ****             #if(0u != Bootloader_CMD_GET_METADATA)
1774:.\Generated_Source\PSoC4/Bootloader.c **** 
1775:.\Generated_Source\PSoC4/Bootloader.c ****                 case Bootloader_COMMAND_GET_METADATA:
1776:.\Generated_Source\PSoC4/Bootloader.c **** 
1777:.\Generated_Source\PSoC4/Bootloader.c ****                     if((Bootloader_COMMUNICATION_STATE_ACTIVE == communicationState) && (pktSize ==
1778:.\Generated_Source\PSoC4/Bootloader.c ****                     {
1779:.\Generated_Source\PSoC4/Bootloader.c ****                         if (btldrData >= Bootloader_MAX_NUM_OF_BTLDB)
1780:.\Generated_Source\PSoC4/Bootloader.c ****                         {
1781:.\Generated_Source\PSoC4/Bootloader.c ****                             ackCode = Bootloader_ERR_APP;
1782:.\Generated_Source\PSoC4/Bootloader.c ****                         }
1783:.\Generated_Source\PSoC4/Bootloader.c ****                         else if(CYRET_SUCCESS == Bootloader_ValidateBootloadable(btldrData))
1784:.\Generated_Source\PSoC4/Bootloader.c ****                         {
1785:.\Generated_Source\PSoC4/Bootloader.c ****                             #if(CY_PSOC3)
1786:.\Generated_Source\PSoC4/Bootloader.c ****                                 (void) memcpy(&packetBuffer[Bootloader_DATA_ADDR],
1787:.\Generated_Source\PSoC4/Bootloader.c ****                                             ((uint8  CYCODE *) (Bootloader_MD_BASE_ADDR(btldrData))
1788:.\Generated_Source\PSoC4/Bootloader.c ****                                             Bootloader_GET_METADATA_RESPONSE_SIZE);
1789:.\Generated_Source\PSoC4/Bootloader.c ****                             #else
1790:.\Generated_Source\PSoC4/Bootloader.c ****                                 (void) memcpy(&packetBuffer[Bootloader_DATA_ADDR],
1791:.\Generated_Source\PSoC4/Bootloader.c ****                                             (uint8 *) Bootloader_MD_BASE_ADDR(btldrData),
1792:.\Generated_Source\PSoC4/Bootloader.c ****                                             Bootloader_GET_METADATA_RESPONSE_SIZE);
1793:.\Generated_Source\PSoC4/Bootloader.c ****                             #endif  /* (CY_PSOC3) */
1794:.\Generated_Source\PSoC4/Bootloader.c **** 
1795:.\Generated_Source\PSoC4/Bootloader.c ****                             rspSize = Bootloader_RSP_SIZE_GET_METADATA;
1796:.\Generated_Source\PSoC4/Bootloader.c ****                             ackCode = CYRET_SUCCESS;
1797:.\Generated_Source\PSoC4/Bootloader.c ****                         }
1798:.\Generated_Source\PSoC4/Bootloader.c ****                         else
1799:.\Generated_Source\PSoC4/Bootloader.c ****                         {
1800:.\Generated_Source\PSoC4/Bootloader.c ****                             ackCode = Bootloader_ERR_APP;
1801:.\Generated_Source\PSoC4/Bootloader.c ****                         }
1802:.\Generated_Source\PSoC4/Bootloader.c ****                     }
1803:.\Generated_Source\PSoC4/Bootloader.c ****                     break;
1804:.\Generated_Source\PSoC4/Bootloader.c **** 
1805:.\Generated_Source\PSoC4/Bootloader.c ****             #endif  /* (0u != Bootloader_CMD_GET_METADATA) */
1806:.\Generated_Source\PSoC4/Bootloader.c **** 
1807:.\Generated_Source\PSoC4/Bootloader.c **** 
1808:.\Generated_Source\PSoC4/Bootloader.c ****             /***************************************************************************
1809:.\Generated_Source\PSoC4/Bootloader.c ****             *   Verify application checksum (0x31)
1810:.\Generated_Source\PSoC4/Bootloader.c ****             ***************************************************************************/
1811:.\Generated_Source\PSoC4/Bootloader.c ****         #if (0u != Bootloader_CMD_VERIFY_APP_CHKSUM_AVAIL)     
1812:.\Generated_Source\PSoC4/Bootloader.c ****             case Bootloader_COMMAND_CHECKSUM:
1813:.\Generated_Source\PSoC4/Bootloader.c **** 
1814:.\Generated_Source\PSoC4/Bootloader.c ****                 if((Bootloader_COMMUNICATION_STATE_ACTIVE == communicationState) && (pktSize == 0u)
 1242              		.loc 1 1814 0
 1243 023e 514B     		ldr	r3, .L123+16
 1244 0240 FB18     		add	r3, r7, r3
 1245 0242 1B78     		ldrb	r3, [r3]
 1246 0244 012B     		cmp	r3, #1
 1247 0246 1DD1     		bne	.L80
 1248              		.loc 1 1814 0 is_stmt 0 discriminator 1
 1249 0248 4C4B     		ldr	r3, .L123+8
ARM GAS  C:\Users\LUKASC~1\AppData\Local\Temp\ccn8LSRc.s 			page 55


 1250 024a FB18     		add	r3, r7, r3
 1251 024c 1B88     		ldrh	r3, [r3]
 1252 024e 002B     		cmp	r3, #0
 1253 0250 18D1     		bne	.L80
1815:.\Generated_Source\PSoC4/Bootloader.c ****                 {
1816:.\Generated_Source\PSoC4/Bootloader.c ****                     packetBuffer[Bootloader_DATA_ADDR] =
1817:.\Generated_Source\PSoC4/Bootloader.c ****                             (uint8)(Bootloader_ValidateBootloadable(Bootloader_activeApp) == CYRET_
 1254              		.loc 1 1817 0 is_stmt 1
 1255 0252 0020     		mov	r0, #0
 1256 0254 FFF7FEFF 		bl	Bootloader_ValidateBootloadable
 1257 0258 031C     		mov	r3, r0
 1258 025a 5A42     		neg	r2, r3
 1259 025c 5341     		adc	r3, r3, r2
 1260 025e DBB2     		uxtb	r3, r3
 1261 0260 1A1C     		mov	r2, r3
1816:.\Generated_Source\PSoC4/Bootloader.c ****                             (uint8)(Bootloader_ValidateBootloadable(Bootloader_activeApp) == CYRET_
 1262              		.loc 1 1816 0
 1263 0262 4A4B     		ldr	r3, .L123+24
 1264 0264 CE21     		mov	r1, #206
 1265 0266 8900     		lsl	r1, r1, #2
 1266 0268 8C46     		mov	ip, r1
 1267 026a BC44     		add	ip, ip, r7
 1268 026c 6344     		add	r3, r3, ip
 1269 026e 1A71     		strb	r2, [r3, #4]
1818:.\Generated_Source\PSoC4/Bootloader.c **** 
1819:.\Generated_Source\PSoC4/Bootloader.c ****                     rspSize = Bootloader_RSP_SIZE_VERIFY_CHKSM;
 1270              		.loc 1 1819 0
 1271 0270 484B     		ldr	r3, .L123+32
 1272 0272 FB18     		add	r3, r7, r3
 1273 0274 0122     		mov	r2, #1
 1274 0276 1A80     		strh	r2, [r3]
1820:.\Generated_Source\PSoC4/Bootloader.c ****                     ackCode = CYRET_SUCCESS;
 1275              		.loc 1 1820 0
 1276 0278 434B     		ldr	r3, .L123+20
 1277 027a FB18     		add	r3, r7, r3
 1278 027c 0022     		mov	r2, #0
 1279 027e 1A70     		strb	r2, [r3]
1821:.\Generated_Source\PSoC4/Bootloader.c ****                 }
1822:.\Generated_Source\PSoC4/Bootloader.c ****                 break;
 1280              		.loc 1 1822 0
 1281 0280 00F0F9FB 		bl	.L68	@ far jump
 1282              	.L80:
 1283 0284 00F0F7FB 		bl	.L68	@ far jump
 1284              	.L79:
1823:.\Generated_Source\PSoC4/Bootloader.c ****         #endif /* (0u != Bootloader_CMD_VERIFY_APP_CHKSUM_AVAIL) */
1824:.\Generated_Source\PSoC4/Bootloader.c **** 
1825:.\Generated_Source\PSoC4/Bootloader.c ****             /*****************************************************************************
1826:.\Generated_Source\PSoC4/Bootloader.c ****             *   Verify row (0x45u)
1827:.\Generated_Source\PSoC4/Bootloader.c ****             ***************************************************************************/
1828:.\Generated_Source\PSoC4/Bootloader.c ****         #if(0u != Bootloader_CMD_VERIFY_FLS_ROW_AVAIL)
1829:.\Generated_Source\PSoC4/Bootloader.c ****             case Bootloader_COMMAND_VERIFY_FLS_ROW:
1830:.\Generated_Source\PSoC4/Bootloader.c **** 
1831:.\Generated_Source\PSoC4/Bootloader.c ****                 /* Packet size is either 3 (data is already in buffer) or (3u + Bootloader_FROW_SIZ
1832:.\Generated_Source\PSoC4/Bootloader.c ****                  * then data is in packetBuffer[]*/
1833:.\Generated_Source\PSoC4/Bootloader.c ****                 if ((Bootloader_COMMUNICATION_STATE_ACTIVE == communicationState) && ((3u == pktSiz
 1285              		.loc 1 1833 0
 1286 0288 3E4B     		ldr	r3, .L123+16
ARM GAS  C:\Users\LUKASC~1\AppData\Local\Temp\ccn8LSRc.s 			page 56


 1287 028a FB18     		add	r3, r7, r3
 1288 028c 1B78     		ldrb	r3, [r3]
 1289 028e 012B     		cmp	r3, #1
 1290 0290 00D0     		beq	.LCB1095
 1291 0292 9CE0     		b	.L81	@long jump
 1292              	.LCB1095:
 1293              		.loc 1 1833 0 is_stmt 0 discriminator 1
 1294 0294 394B     		ldr	r3, .L123+8
 1295 0296 FB18     		add	r3, r7, r3
 1296 0298 1B88     		ldrh	r3, [r3]
 1297 029a 032B     		cmp	r3, #3
 1298 029c 05D0     		beq	.L82
 1299              		.loc 1 1833 0 discriminator 2
 1300 029e 374B     		ldr	r3, .L123+8
 1301 02a0 FB18     		add	r3, r7, r3
 1302 02a2 1B88     		ldrh	r3, [r3]
 1303 02a4 832B     		cmp	r3, #131
 1304 02a6 00D0     		beq	.LCB1105
 1305 02a8 91E0     		b	.L81	@long jump
 1306              	.LCB1105:
 1307              	.L82:
 1308              	.LBB6:
1834:.\Generated_Source\PSoC4/Bootloader.c ****                    ((3u + Bootloader_FROW_SIZE) == pktSize)))
1835:.\Generated_Source\PSoC4/Bootloader.c ****                 {
1836:.\Generated_Source\PSoC4/Bootloader.c ****                     uint16 CYDATA rowNum = ((uint16)((uint16)packetBuffer[Bootloader_DATA_ADDR + 2u
 1309              		.loc 1 1836 0 is_stmt 1
 1310 02aa 384B     		ldr	r3, .L123+24
 1311 02ac CE22     		mov	r2, #206
 1312 02ae 9200     		lsl	r2, r2, #2
 1313 02b0 9446     		mov	ip, r2
 1314 02b2 BC44     		add	ip, ip, r7
 1315 02b4 6344     		add	r3, r3, ip
 1316 02b6 9B79     		ldrb	r3, [r3, #6]
 1317 02b8 9BB2     		uxth	r3, r3
 1318 02ba 1B02     		lsl	r3, r3, #8
 1319 02bc 99B2     		uxth	r1, r3
1837:.\Generated_Source\PSoC4/Bootloader.c ****                                                              packetBuffer[Bootloader_DATA_ADDR + 1u
 1320              		.loc 1 1837 0
 1321 02be 334B     		ldr	r3, .L123+24
 1322 02c0 CE22     		mov	r2, #206
 1323 02c2 9200     		lsl	r2, r2, #2
 1324 02c4 9446     		mov	ip, r2
 1325 02c6 BC44     		add	ip, ip, r7
 1326 02c8 6344     		add	r3, r3, ip
 1327 02ca 5B79     		ldrb	r3, [r3, #5]
1836:.\Generated_Source\PSoC4/Bootloader.c ****                                                              packetBuffer[Bootloader_DATA_ADDR + 1u
 1328              		.loc 1 1836 0
 1329 02cc 9AB2     		uxth	r2, r3
 1330 02ce 344B     		ldr	r3, .L123+44
 1331 02d0 FB18     		add	r3, r7, r3
 1332 02d2 0A43     		orr	r2, r1
 1333 02d4 1A80     		strh	r2, [r3]
1838:.\Generated_Source\PSoC4/Bootloader.c ****                     
1839:.\Generated_Source\PSoC4/Bootloader.c ****                     uint32 CYDATA startAddr;
1840:.\Generated_Source\PSoC4/Bootloader.c ****                     uint16 upperRange = 0u;
 1334              		.loc 1 1840 0
 1335 02d6 C623     		mov	r3, #198
ARM GAS  C:\Users\LUKASC~1\AppData\Local\Temp\ccn8LSRc.s 			page 57


 1336 02d8 9B00     		lsl	r3, r3, #2
 1337 02da FB18     		add	r3, r7, r3
 1338 02dc 0022     		mov	r2, #0
 1339 02de 1A80     		strh	r2, [r3]
1841:.\Generated_Source\PSoC4/Bootloader.c ****                 #if (!CY_PSOC4)
1842:.\Generated_Source\PSoC4/Bootloader.c ****                     uint16 CYDATA rowSize; 
1843:.\Generated_Source\PSoC4/Bootloader.c ****                 #endif /*(!CY_PSOC4)*/    
1844:.\Generated_Source\PSoC4/Bootloader.c ****                     
1845:.\Generated_Source\PSoC4/Bootloader.c ****                     ackCode = CYRET_SUCCESS;
 1340              		.loc 1 1845 0
 1341 02e0 294B     		ldr	r3, .L123+20
 1342 02e2 FB18     		add	r3, r7, r3
 1343 02e4 0022     		mov	r2, #0
 1344 02e6 1A70     		strb	r2, [r3]
1846:.\Generated_Source\PSoC4/Bootloader.c ****                     rspSize = Bootloader_RSP_SIZE_0;
 1345              		.loc 1 1846 0
 1346 02e8 2A4B     		ldr	r3, .L123+32
 1347 02ea FB18     		add	r3, r7, r3
 1348 02ec 0022     		mov	r2, #0
 1349 02ee 1A80     		strh	r2, [r3]
1847:.\Generated_Source\PSoC4/Bootloader.c ****                         
1848:.\Generated_Source\PSoC4/Bootloader.c ****                     if (3u == pktSize)
 1350              		.loc 1 1848 0
 1351 02f0 224B     		ldr	r3, .L123+8
 1352 02f2 FB18     		add	r3, r7, r3
 1353 02f4 1B88     		ldrh	r3, [r3]
 1354 02f6 032B     		cmp	r3, #3
 1355 02f8 0DD0     		beq	.L83
1849:.\Generated_Source\PSoC4/Bootloader.c ****                     {
1850:.\Generated_Source\PSoC4/Bootloader.c ****                         /* Do nothing, data is already in dataBuffer[] */
1851:.\Generated_Source\PSoC4/Bootloader.c ****                     }
1852:.\Generated_Source\PSoC4/Bootloader.c ****                     else 
1853:.\Generated_Source\PSoC4/Bootloader.c ****                     {
1854:.\Generated_Source\PSoC4/Bootloader.c ****                     #if (CY_PSOC3)
1855:.\Generated_Source\PSoC4/Bootloader.c ****                         /*Data is in packetBuffer[], needs to be copied to dataBuffer[]*/
1856:.\Generated_Source\PSoC4/Bootloader.c ****                         (void) memcpy(dataBuffer, &packetBuffer[Bootloader_DATA_ADDR + 3u],
1857:.\Generated_Source\PSoC4/Bootloader.c ****                                       (int16)pktSize - 3);
1858:.\Generated_Source\PSoC4/Bootloader.c ****                     #else              
1859:.\Generated_Source\PSoC4/Bootloader.c ****                         /*Data is in packetBuffer[], needs to be copied to dataBuffer[]*/
1860:.\Generated_Source\PSoC4/Bootloader.c ****                         (void) memcpy(dataBuffer, &packetBuffer[Bootloader_DATA_ADDR + 3u],
1861:.\Generated_Source\PSoC4/Bootloader.c ****                                       (uint32)pktSize - 3u);
 1356              		.loc 1 1861 0
 1357 02fa 204B     		ldr	r3, .L123+8
 1358 02fc FB18     		add	r3, r7, r3
 1359 02fe 1B88     		ldrh	r3, [r3]
 1360 0300 DA1E     		sub	r2, r3, #3
1860:.\Generated_Source\PSoC4/Bootloader.c ****                                       (uint32)pktSize - 3u);
 1361              		.loc 1 1860 0
 1362 0302 A823     		mov	r3, #168
 1363 0304 F918     		add	r1, r7, r3
 1364 0306 EA23     		mov	r3, #234
 1365 0308 5B00     		lsl	r3, r3, #1
 1366 030a FB18     		add	r3, r7, r3
 1367 030c 0733     		add	r3, r3, #7
 1368 030e 081C     		mov	r0, r1
 1369 0310 191C     		mov	r1, r3
 1370 0312 FFF7FEFF 		bl	memcpy
ARM GAS  C:\Users\LUKASC~1\AppData\Local\Temp\ccn8LSRc.s 			page 58


 1371              	.L83:
1862:.\Generated_Source\PSoC4/Bootloader.c ****                     #endif /*CY_PSOC3)*/              
1863:.\Generated_Source\PSoC4/Bootloader.c ****                     }
1864:.\Generated_Source\PSoC4/Bootloader.c ****                         
1865:.\Generated_Source\PSoC4/Bootloader.c ****                 #if (!CY_PSOC4) 
1866:.\Generated_Source\PSoC4/Bootloader.c ****                     if((btldrData >= Bootloader_FIRST_EE_ARRAYID) &&
1867:.\Generated_Source\PSoC4/Bootloader.c ****                        (btldrData <= Bootloader_LAST_EE_ARRAYID))
1868:.\Generated_Source\PSoC4/Bootloader.c ****                     {
1869:.\Generated_Source\PSoC4/Bootloader.c ****                         /* EEPROM */
1870:.\Generated_Source\PSoC4/Bootloader.c ****                         /* Both PSoC 3 and PSoC 5LP architecture have one EEPROM array. */
1871:.\Generated_Source\PSoC4/Bootloader.c ****                         startAddr = CY_EEPROM_BASE + ((uint32)rowNum * CYDEV_EEPROM_ROW_SIZE);
1872:.\Generated_Source\PSoC4/Bootloader.c ****                         rowSize = CYDEV_EEPROM_ROW_SIZE;
1873:.\Generated_Source\PSoC4/Bootloader.c ****                         upperRange = Bootloader_NUMBER_OF_EEPROM_SECTORS * Bootloader_NUMBER_OF_ROW
1874:.\Generated_Source\PSoC4/Bootloader.c ****                     }
1875:.\Generated_Source\PSoC4/Bootloader.c ****                     else if (btldrData < CY_FLASH_NUMBER_ARRAYS)    
1876:.\Generated_Source\PSoC4/Bootloader.c ****                     {
1877:.\Generated_Source\PSoC4/Bootloader.c ****                         startAddr = CY_FLASH_BASE + ((uint32)btldrData * CYDEV_FLS_SECTOR_SIZE) +
1878:.\Generated_Source\PSoC4/Bootloader.c ****                                                      ((uint32)rowNum * CYDEV_FLS_ROW_SIZE);
1879:.\Generated_Source\PSoC4/Bootloader.c ****                         rowSize = CYDEV_FLS_ROW_SIZE;        
1880:.\Generated_Source\PSoC4/Bootloader.c ****                         upperRange = Bootloader_NUMBER_OF_ROWS_IN_ARRAY;                        
1881:.\Generated_Source\PSoC4/Bootloader.c ****                     }
1882:.\Generated_Source\PSoC4/Bootloader.c ****                     else
1883:.\Generated_Source\PSoC4/Bootloader.c ****                     {
1884:.\Generated_Source\PSoC4/Bootloader.c ****                         ackCode = Bootloader_ERR_ARRAY;
1885:.\Generated_Source\PSoC4/Bootloader.c ****                         break;                              
1886:.\Generated_Source\PSoC4/Bootloader.c ****                     }
1887:.\Generated_Source\PSoC4/Bootloader.c **** 
1888:.\Generated_Source\PSoC4/Bootloader.c ****                     /*Checking if row number is within array address range*/
1889:.\Generated_Source\PSoC4/Bootloader.c ****                     ackCode = Bootloader_CHECK_ROW_NUMBER(rowNum, upperRange);
1890:.\Generated_Source\PSoC4/Bootloader.c ****                     
1891:.\Generated_Source\PSoC4/Bootloader.c ****                     if (CYRET_SUCCESS != ackCode)
1892:.\Generated_Source\PSoC4/Bootloader.c ****                     {
1893:.\Generated_Source\PSoC4/Bootloader.c ****                         break;
1894:.\Generated_Source\PSoC4/Bootloader.c ****                     }
1895:.\Generated_Source\PSoC4/Bootloader.c ****                     
1896:.\Generated_Source\PSoC4/Bootloader.c ****                     ackCode = Bootloader_VerifyRow(startAddr, dataBuffer, rowSize);
1897:.\Generated_Source\PSoC4/Bootloader.c ****                     
1898:.\Generated_Source\PSoC4/Bootloader.c ****                     /******************************************************************************
1899:.\Generated_Source\PSoC4/Bootloader.c ****                     * If flash row check has completed successfully and ECC is disabled and there i
1900:.\Generated_Source\PSoC4/Bootloader.c ****                     * data in the buffer for ECC row.
1901:.\Generated_Source\PSoC4/Bootloader.c ****                     *******************************************************************************
1902:.\Generated_Source\PSoC4/Bootloader.c ****                     #if (CYDEV_ECC_ENABLE == 0u)
1903:.\Generated_Source\PSoC4/Bootloader.c ****                         if ((CYRET_SUCCESS == ackCode) && (btldrData < CY_FLASH_NUMBER_ARRAYS) && (
1904:.\Generated_Source\PSoC4/Bootloader.c ****                         {
1905:.\Generated_Source\PSoC4/Bootloader.c ****                             startAddr = CYDEV_ECC_BASE + ((uint32)btldrData * (CYDEV_FLS_SECTOR_SIZ
1906:.\Generated_Source\PSoC4/Bootloader.c ****                                         ((uint32)rowNum * CYDEV_ECC_ROW_SIZE);
1907:.\Generated_Source\PSoC4/Bootloader.c ****                                                 
1908:.\Generated_Source\PSoC4/Bootloader.c ****                             ackCode = Bootloader_VerifyRow(startAddr, &dataBuffer[rowSize], (uint16
1909:.\Generated_Source\PSoC4/Bootloader.c ****                         }
1910:.\Generated_Source\PSoC4/Bootloader.c ****                     #endif /*(CYDEV_ECC_ENABLE == 0u)*/
1911:.\Generated_Source\PSoC4/Bootloader.c ****                     
1912:.\Generated_Source\PSoC4/Bootloader.c ****                 #else /*CY_PSOC4*/
1913:.\Generated_Source\PSoC4/Bootloader.c ****                     if (btldrData < CY_FLASH_NUMBER_ARRAYS)
 1372              		.loc 1 1913 0
 1373 0316 204B     		ldr	r3, .L123+36
 1374 0318 FB18     		add	r3, r7, r3
 1375 031a 1B78     		ldrb	r3, [r3]
ARM GAS  C:\Users\LUKASC~1\AppData\Local\Temp\ccn8LSRc.s 			page 59


 1376 031c 002B     		cmp	r3, #0
 1377 031e 51D1     		bne	.L84
1914:.\Generated_Source\PSoC4/Bootloader.c ****                     {
1915:.\Generated_Source\PSoC4/Bootloader.c ****                         startAddr = CY_FLASH_BASE + ((uint32)btldrData * CYDEV_FLS_SECTOR_SIZE)
 1378              		.loc 1 1915 0
 1379 0320 1D4B     		ldr	r3, .L123+36
 1380 0322 FB18     		add	r3, r7, r3
 1381 0324 1B78     		ldrb	r3, [r3]
1916:.\Generated_Source\PSoC4/Bootloader.c ****                                             + ((uint32)rowNum * CYDEV_FLS_ROW_SIZE);
 1382              		.loc 1 1916 0
 1383 0326 1A02     		lsl	r2, r3, #8
 1384 0328 1D4B     		ldr	r3, .L123+44
 1385 032a FB18     		add	r3, r7, r3
 1386 032c 1B88     		ldrh	r3, [r3]
 1387 032e D318     		add	r3, r2, r3
1915:.\Generated_Source\PSoC4/Bootloader.c ****                                             + ((uint32)rowNum * CYDEV_FLS_ROW_SIZE);
 1388              		.loc 1 1915 0
 1389 0330 DB01     		lsl	r3, r3, #7
 1390 0332 C522     		mov	r2, #197
 1391 0334 9200     		lsl	r2, r2, #2
 1392 0336 BA18     		add	r2, r7, r2
 1393 0338 1360     		str	r3, [r2]
1917:.\Generated_Source\PSoC4/Bootloader.c **** 
1918:.\Generated_Source\PSoC4/Bootloader.c ****                         upperRange = Bootloader_NUMBER_OF_ROWS_IN_ARRAY;         
 1394              		.loc 1 1918 0
 1395 033a C623     		mov	r3, #198
 1396 033c 9B00     		lsl	r3, r3, #2
 1397 033e FB18     		add	r3, r7, r3
 1398 0340 8022     		mov	r2, #128
 1399 0342 5200     		lsl	r2, r2, #1
 1400 0344 1A80     		strh	r2, [r3]
1919:.\Generated_Source\PSoC4/Bootloader.c ****                         
1920:.\Generated_Source\PSoC4/Bootloader.c ****                         /*Checking if row number is within array address range*/
1921:.\Generated_Source\PSoC4/Bootloader.c ****                         ackCode = Bootloader_CHECK_ROW_NUMBER(rowNum, upperRange);
 1401              		.loc 1 1921 0
 1402 0346 164B     		ldr	r3, .L123+44
 1403 0348 FA18     		add	r2, r7, r3
 1404 034a C623     		mov	r3, #198
 1405 034c 9B00     		lsl	r3, r3, #2
 1406 034e FB18     		add	r3, r7, r3
 1407 0350 1288     		ldrh	r2, [r2]
 1408 0352 1B88     		ldrh	r3, [r3]
 1409 0354 9A42     		cmp	r2, r3
 1410 0356 01D2     		bcs	.L85
 1411              		.loc 1 1921 0 is_stmt 0 discriminator 1
 1412 0358 0022     		mov	r2, #0
 1413 035a 00E0     		b	.L86
 1414              	.L85:
 1415              		.loc 1 1921 0 discriminator 2
 1416 035c 0A22     		mov	r2, #10
 1417              	.L86:
 1418              		.loc 1 1921 0 discriminator 4
 1419 035e 0A4B     		ldr	r3, .L123+20
 1420 0360 FB18     		add	r3, r7, r3
 1421 0362 1A70     		strb	r2, [r3]
1922:.\Generated_Source\PSoC4/Bootloader.c ****                     
1923:.\Generated_Source\PSoC4/Bootloader.c ****                         if (CYRET_SUCCESS != ackCode)
ARM GAS  C:\Users\LUKASC~1\AppData\Local\Temp\ccn8LSRc.s 			page 60


 1422              		.loc 1 1923 0 is_stmt 1 discriminator 4
 1423 0364 084B     		ldr	r3, .L123+20
 1424 0366 FB18     		add	r3, r7, r3
 1425 0368 1B78     		ldrb	r3, [r3]
 1426 036a 002B     		cmp	r3, #0
 1427 036c 1AD0     		beq	.L87
1924:.\Generated_Source\PSoC4/Bootloader.c ****                         {
1925:.\Generated_Source\PSoC4/Bootloader.c ****                             break;
 1428              		.loc 1 1925 0
 1429 036e 00F082FB 		bl	.L68	@ far jump
 1430              	.L124:
 1431 0372 C046     		.align	2
 1432              	.L123:
 1433 0374 C4FCFFFF 		.word	-828
 1434 0378 CFFCFFFF 		.word	-817
 1435 037c 32030000 		.word	818
 1436 0380 31030000 		.word	817
 1437 0384 2F030000 		.word	815
 1438 0388 35030000 		.word	821
 1439 038c 9CFEFFFF 		.word	-356
 1440 0390 1E030000 		.word	798
 1441 0394 36030000 		.word	822
 1442 0398 1D030000 		.word	797
 1443 039c 08000000 		.word	.L71
 1444 03a0 1A030000 		.word	794
 1445              	.L87:
1926:.\Generated_Source\PSoC4/Bootloader.c ****                         }
1927:.\Generated_Source\PSoC4/Bootloader.c ****                         
1928:.\Generated_Source\PSoC4/Bootloader.c ****                         ackCode = Bootloader_VerifyRow(startAddr, dataBuffer, (uint16)CYDEV_FLS_ROW
 1446              		.loc 1 1928 0
 1447 03a4 CB4B     		ldr	r3, .L125
 1448 03a6 FC18     		add	r4, r7, r3
 1449 03a8 C523     		mov	r3, #197
 1450 03aa 9B00     		lsl	r3, r3, #2
 1451 03ac FB18     		add	r3, r7, r3
 1452 03ae 1A68     		ldr	r2, [r3]
 1453 03b0 A823     		mov	r3, #168
 1454 03b2 FB18     		add	r3, r7, r3
 1455 03b4 101C     		mov	r0, r2
 1456 03b6 191C     		mov	r1, r3
 1457 03b8 8022     		mov	r2, #128
 1458 03ba FFF7FEFF 		bl	Bootloader_VerifyRow
 1459 03be 031C     		mov	r3, r0
 1460 03c0 2370     		strb	r3, [r4]
 1461 03c2 04E0     		b	.L81
 1462              	.L84:
1929:.\Generated_Source\PSoC4/Bootloader.c ****                     }
1930:.\Generated_Source\PSoC4/Bootloader.c ****                     else
1931:.\Generated_Source\PSoC4/Bootloader.c ****                     {
1932:.\Generated_Source\PSoC4/Bootloader.c ****                         ackCode = Bootloader_ERR_ARRAY;
 1463              		.loc 1 1932 0
 1464 03c4 C34B     		ldr	r3, .L125
 1465 03c6 FB18     		add	r3, r7, r3
 1466 03c8 0922     		mov	r2, #9
 1467 03ca 1A70     		strb	r2, [r3]
1933:.\Generated_Source\PSoC4/Bootloader.c ****                         break;                     
 1468              		.loc 1 1933 0
ARM GAS  C:\Users\LUKASC~1\AppData\Local\Temp\ccn8LSRc.s 			page 61


 1469 03cc 53E3     		b	.L68
 1470              	.L81:
 1471              	.LBE6:
1934:.\Generated_Source\PSoC4/Bootloader.c ****                     }
1935:.\Generated_Source\PSoC4/Bootloader.c ****                 #endif  /* (!CY_PSOC4) */
1936:.\Generated_Source\PSoC4/Bootloader.c ****                 
1937:.\Generated_Source\PSoC4/Bootloader.c ****                 } 
1938:.\Generated_Source\PSoC4/Bootloader.c ****                 break;
 1472              		.loc 1 1938 0
 1473 03ce 52E3     		b	.L68
 1474              	.L72:
1939:.\Generated_Source\PSoC4/Bootloader.c ****         #endif /*(0u != Bootloader_CMD_VERIFY_ROW_FLS_AVAIL)*/
1940:.\Generated_Source\PSoC4/Bootloader.c **** 
1941:.\Generated_Source\PSoC4/Bootloader.c ****             /***************************************************************************
1942:.\Generated_Source\PSoC4/Bootloader.c ****             *   Get flash size (0x32)
1943:.\Generated_Source\PSoC4/Bootloader.c ****             ***************************************************************************/
1944:.\Generated_Source\PSoC4/Bootloader.c ****             #if(0u != Bootloader_CMD_GET_FLASH_SIZE_AVAIL)
1945:.\Generated_Source\PSoC4/Bootloader.c **** 
1946:.\Generated_Source\PSoC4/Bootloader.c ****                 case Bootloader_COMMAND_REPORT_SIZE:
1947:.\Generated_Source\PSoC4/Bootloader.c **** 
1948:.\Generated_Source\PSoC4/Bootloader.c ****                     /* btldrData - holds flash array ID sent by host */
1949:.\Generated_Source\PSoC4/Bootloader.c ****                     if((Bootloader_COMMUNICATION_STATE_ACTIVE == communicationState) && (pktSize ==
 1475              		.loc 1 1949 0
 1476 03d0 C14B     		ldr	r3, .L125+4
 1477 03d2 FB18     		add	r3, r7, r3
 1478 03d4 1B78     		ldrb	r3, [r3]
 1479 03d6 012B     		cmp	r3, #1
 1480 03d8 66D1     		bne	.L88
 1481              		.loc 1 1949 0 is_stmt 0 discriminator 1
 1482 03da C04B     		ldr	r3, .L125+8
 1483 03dc FB18     		add	r3, r7, r3
 1484 03de 1B88     		ldrh	r3, [r3]
 1485 03e0 012B     		cmp	r3, #1
 1486 03e2 61D1     		bne	.L88
1950:.\Generated_Source\PSoC4/Bootloader.c ****                     {
1951:.\Generated_Source\PSoC4/Bootloader.c ****                         if(btldrData < CY_FLASH_NUMBER_ARRAYS)
 1487              		.loc 1 1951 0 is_stmt 1
 1488 03e4 BE4B     		ldr	r3, .L125+12
 1489 03e6 FB18     		add	r3, r7, r3
 1490 03e8 1B78     		ldrb	r3, [r3]
 1491 03ea 002B     		cmp	r3, #0
 1492 03ec 5CD1     		bne	.L88
 1493              	.LBB7:
1952:.\Generated_Source\PSoC4/Bootloader.c ****                         {
1953:.\Generated_Source\PSoC4/Bootloader.c ****                             uint16 CYDATA startRow;
1954:.\Generated_Source\PSoC4/Bootloader.c ****                             uint8  CYDATA arrayIdBtlderEnds;
1955:.\Generated_Source\PSoC4/Bootloader.c **** 
1956:.\Generated_Source\PSoC4/Bootloader.c ****                             /**********************************************************************
1957:.\Generated_Source\PSoC4/Bootloader.c ****                             * - For the flash array where the Bootloader application ends, returns 
1958:.\Generated_Source\PSoC4/Bootloader.c ****                             *   full row after the Bootloader application.
1959:.\Generated_Source\PSoC4/Bootloader.c ****                             *
1960:.\Generated_Source\PSoC4/Bootloader.c ****                             * - For a fully occupied flash array, the number of rows in the array i
1961:.\Generated_Source\PSoC4/Bootloader.c ****                             *   because there is no space for the Bootloadable application in this 
1962:.\Generated_Source\PSoC4/Bootloader.c ****                             *
1963:.\Generated_Source\PSoC4/Bootloader.c ****                             * - For the arrays next to the occupied array, zero is returned.
1964:.\Generated_Source\PSoC4/Bootloader.c ****                             *   The Bootloadable application can be written from those arrays begin
1965:.\Generated_Source\PSoC4/Bootloader.c ****                             *
ARM GAS  C:\Users\LUKASC~1\AppData\Local\Temp\ccn8LSRc.s 			page 62


1966:.\Generated_Source\PSoC4/Bootloader.c ****                             *   If this is a Bootloader that is located in an application (Combinat
1967:.\Generated_Source\PSoC4/Bootloader.c ****                             *   then we do not use the Bootloader_SizeBytes and Bootloader_SizeByte
1968:.\Generated_Source\PSoC4/Bootloader.c ****                             *   variables, instead we take the Launcher's last row from metadata.
1969:.\Generated_Source\PSoC4/Bootloader.c ****                             ***********************************************************************
1970:.\Generated_Source\PSoC4/Bootloader.c ****                         #if (CYDEV_PROJ_TYPE != CYDEV_PROJ_TYPE_LOADABLEANDBOOTLOADER) 
1971:.\Generated_Source\PSoC4/Bootloader.c ****                             arrayIdBtlderEnds = (uint8) (*Bootloader_SizeBytesAccess / CY_FLASH_SIZ
 1494              		.loc 1 1971 0
 1495 03ee BD4B     		ldr	r3, .L125+16
 1496 03f0 1B68     		ldr	r3, [r3]
 1497 03f2 1B68     		ldr	r3, [r3]
 1498 03f4 DA0B     		lsr	r2, r3, #15
 1499 03f6 BC4B     		ldr	r3, .L125+20
 1500 03f8 FB18     		add	r3, r7, r3
 1501 03fa 1A70     		strb	r2, [r3]
1972:.\Generated_Source\PSoC4/Bootloader.c **** 
1973:.\Generated_Source\PSoC4/Bootloader.c ****                             if (btldrData == arrayIdBtlderEnds)
 1502              		.loc 1 1973 0
 1503 03fc B84B     		ldr	r3, .L125+12
 1504 03fe FA18     		add	r2, r7, r3
 1505 0400 B94B     		ldr	r3, .L125+20
 1506 0402 FB18     		add	r3, r7, r3
 1507 0404 1278     		ldrb	r2, [r2]
 1508 0406 1B78     		ldrb	r3, [r3]
 1509 0408 9A42     		cmp	r2, r3
 1510 040a 0AD1     		bne	.L89
1974:.\Generated_Source\PSoC4/Bootloader.c ****                             {
1975:.\Generated_Source\PSoC4/Bootloader.c ****                                 startRow = (uint16) (*Bootloader_SizeBytesAccess / CY_FLASH_SIZEOF_
 1511              		.loc 1 1975 0
 1512 040c B54B     		ldr	r3, .L125+16
 1513 040e 1B68     		ldr	r3, [r3]
 1514 0410 1B68     		ldr	r3, [r3]
 1515 0412 DB09     		lsr	r3, r3, #7
 1516 0414 9AB2     		uxth	r2, r3
 1517 0416 B54B     		ldr	r3, .L125+24
 1518 0418 FB18     		add	r3, r7, r3
 1519 041a FF21     		mov	r1, #255
 1520 041c 0A40     		and	r2, r1
 1521 041e 1A80     		strh	r2, [r3]
 1522 0420 11E0     		b	.L90
 1523              	.L89:
1976:.\Generated_Source\PSoC4/Bootloader.c ****                                             Bootloader_NUMBER_OF_ROWS_IN_ARRAY;
1977:.\Generated_Source\PSoC4/Bootloader.c ****                             }
1978:.\Generated_Source\PSoC4/Bootloader.c ****                         #else /*Combination project type*/   
1979:.\Generated_Source\PSoC4/Bootloader.c ****                             btldrLastRow = (uint16)(Bootloader_GetMetadata(Bootloader_GET_BTLDR_LAS
1980:.\Generated_Source\PSoC4/Bootloader.c ****                                                                                 Bootloader_MD_BTLDB
1981:.\Generated_Source\PSoC4/Bootloader.c ****                             arrayIdBtlderEnds = (uint8) (((uint32)btldrLastRow * CY_FLASH_SIZEOF_RO
1982:.\Generated_Source\PSoC4/Bootloader.c ****                             if (btldrData == arrayIdBtlderEnds)
1983:.\Generated_Source\PSoC4/Bootloader.c ****                             {
1984:.\Generated_Source\PSoC4/Bootloader.c ****                                 startRow = (uint16)((btldrLastRow) % Bootloader_NUMBER_OF_ROWS_IN_A
1985:.\Generated_Source\PSoC4/Bootloader.c ****                             }
1986:.\Generated_Source\PSoC4/Bootloader.c ****                         #endif /*(CYDEV_PROJ_TYPE != CYDEV_PROJ_TYPE_LOADABLEANDBOOTLOADER)*/
1987:.\Generated_Source\PSoC4/Bootloader.c ****                         
1988:.\Generated_Source\PSoC4/Bootloader.c ****                             else if (btldrData > arrayIdBtlderEnds)
 1524              		.loc 1 1988 0
 1525 0422 AF4B     		ldr	r3, .L125+12
 1526 0424 FA18     		add	r2, r7, r3
 1527 0426 B04B     		ldr	r3, .L125+20
ARM GAS  C:\Users\LUKASC~1\AppData\Local\Temp\ccn8LSRc.s 			page 63


 1528 0428 FB18     		add	r3, r7, r3
 1529 042a 1278     		ldrb	r2, [r2]
 1530 042c 1B78     		ldrb	r3, [r3]
 1531 042e 9A42     		cmp	r2, r3
 1532 0430 04D9     		bls	.L91
1989:.\Generated_Source\PSoC4/Bootloader.c ****                             {
1990:.\Generated_Source\PSoC4/Bootloader.c ****                                 startRow = Bootloader_FIRST_ROW_IN_ARRAY;
 1533              		.loc 1 1990 0
 1534 0432 AE4B     		ldr	r3, .L125+24
 1535 0434 FB18     		add	r3, r7, r3
 1536 0436 0022     		mov	r2, #0
 1537 0438 1A80     		strh	r2, [r3]
 1538 043a 04E0     		b	.L90
 1539              	.L91:
1991:.\Generated_Source\PSoC4/Bootloader.c ****                             }
1992:.\Generated_Source\PSoC4/Bootloader.c ****                             else /* (btldrData < ArrayIdBtlderEnds) */
1993:.\Generated_Source\PSoC4/Bootloader.c ****                             {
1994:.\Generated_Source\PSoC4/Bootloader.c ****                                 startRow = Bootloader_NUMBER_OF_ROWS_IN_ARRAY;
 1540              		.loc 1 1994 0
 1541 043c AB4B     		ldr	r3, .L125+24
 1542 043e FB18     		add	r3, r7, r3
 1543 0440 8022     		mov	r2, #128
 1544 0442 5200     		lsl	r2, r2, #1
 1545 0444 1A80     		strh	r2, [r3]
 1546              	.L90:
1995:.\Generated_Source\PSoC4/Bootloader.c ****                             }
1996:.\Generated_Source\PSoC4/Bootloader.c **** 
1997:.\Generated_Source\PSoC4/Bootloader.c ****                             packetBuffer[Bootloader_DATA_ADDR]      = LO8(startRow);
 1547              		.loc 1 1997 0
 1548 0446 A94B     		ldr	r3, .L125+24
 1549 0448 FB18     		add	r3, r7, r3
 1550 044a 1B88     		ldrh	r3, [r3]
 1551 044c DAB2     		uxtb	r2, r3
 1552 044e A84B     		ldr	r3, .L125+28
 1553 0450 CE21     		mov	r1, #206
 1554 0452 8900     		lsl	r1, r1, #2
 1555 0454 8C46     		mov	ip, r1
 1556 0456 BC44     		add	ip, ip, r7
 1557 0458 6344     		add	r3, r3, ip
 1558 045a 1A71     		strb	r2, [r3, #4]
1998:.\Generated_Source\PSoC4/Bootloader.c ****                             packetBuffer[Bootloader_DATA_ADDR + 1u] = HI8(startRow);
 1559              		.loc 1 1998 0
 1560 045c A34B     		ldr	r3, .L125+24
 1561 045e FB18     		add	r3, r7, r3
 1562 0460 1B88     		ldrh	r3, [r3]
 1563 0462 1B0A     		lsr	r3, r3, #8
 1564 0464 9BB2     		uxth	r3, r3
 1565 0466 DAB2     		uxtb	r2, r3
 1566 0468 A14B     		ldr	r3, .L125+28
 1567 046a CE21     		mov	r1, #206
 1568 046c 8900     		lsl	r1, r1, #2
 1569 046e 8C46     		mov	ip, r1
 1570 0470 BC44     		add	ip, ip, r7
 1571 0472 6344     		add	r3, r3, ip
 1572 0474 5A71     		strb	r2, [r3, #5]
1999:.\Generated_Source\PSoC4/Bootloader.c **** 
2000:.\Generated_Source\PSoC4/Bootloader.c ****                             packetBuffer[Bootloader_DATA_ADDR + 2u] =
ARM GAS  C:\Users\LUKASC~1\AppData\Local\Temp\ccn8LSRc.s 			page 64


 1573              		.loc 1 2000 0
 1574 0476 9E4B     		ldr	r3, .L125+28
 1575 0478 CE22     		mov	r2, #206
 1576 047a 9200     		lsl	r2, r2, #2
 1577 047c 9446     		mov	ip, r2
 1578 047e BC44     		add	ip, ip, r7
 1579 0480 6344     		add	r3, r3, ip
 1580 0482 FF22     		mov	r2, #255
 1581 0484 9A71     		strb	r2, [r3, #6]
2001:.\Generated_Source\PSoC4/Bootloader.c ****                                         LO8(Bootloader_NUMBER_OF_ROWS_IN_ARRAY - 1u);
2002:.\Generated_Source\PSoC4/Bootloader.c **** 
2003:.\Generated_Source\PSoC4/Bootloader.c ****                             packetBuffer[Bootloader_DATA_ADDR + 3u] =
 1582              		.loc 1 2003 0
 1583 0486 9A4B     		ldr	r3, .L125+28
 1584 0488 CE22     		mov	r2, #206
 1585 048a 9200     		lsl	r2, r2, #2
 1586 048c 9446     		mov	ip, r2
 1587 048e BC44     		add	ip, ip, r7
 1588 0490 6344     		add	r3, r3, ip
 1589 0492 0022     		mov	r2, #0
 1590 0494 DA71     		strb	r2, [r3, #7]
2004:.\Generated_Source\PSoC4/Bootloader.c ****                                         HI8(Bootloader_NUMBER_OF_ROWS_IN_ARRAY - 1u);
2005:.\Generated_Source\PSoC4/Bootloader.c **** 
2006:.\Generated_Source\PSoC4/Bootloader.c ****                             rspSize = Bootloader_RSP_SIZE_GET_FLASH_SIZE;
 1591              		.loc 1 2006 0
 1592 0496 974B     		ldr	r3, .L125+32
 1593 0498 FB18     		add	r3, r7, r3
 1594 049a 0422     		mov	r2, #4
 1595 049c 1A80     		strh	r2, [r3]
2007:.\Generated_Source\PSoC4/Bootloader.c ****                             ackCode = CYRET_SUCCESS;
 1596              		.loc 1 2007 0
 1597 049e 8D4B     		ldr	r3, .L125
 1598 04a0 FB18     		add	r3, r7, r3
 1599 04a2 0022     		mov	r2, #0
 1600 04a4 1A70     		strb	r2, [r3]
 1601              	.LBE7:
2008:.\Generated_Source\PSoC4/Bootloader.c ****                         }
2009:.\Generated_Source\PSoC4/Bootloader.c **** 
2010:.\Generated_Source\PSoC4/Bootloader.c ****                     }
2011:.\Generated_Source\PSoC4/Bootloader.c ****                     break;
 1602              		.loc 1 2011 0
 1603 04a6 E6E2     		b	.L68
 1604              	.L88:
 1605 04a8 E5E2     		b	.L68
 1606              	.L73:
2012:.\Generated_Source\PSoC4/Bootloader.c **** 
2013:.\Generated_Source\PSoC4/Bootloader.c ****             #endif  /* (0u != Bootloader_CMD_GET_FLASH_SIZE_AVAIL) */
2014:.\Generated_Source\PSoC4/Bootloader.c **** 
2015:.\Generated_Source\PSoC4/Bootloader.c **** 
2016:.\Generated_Source\PSoC4/Bootloader.c ****             /***************************************************************************
2017:.\Generated_Source\PSoC4/Bootloader.c ****             *   Get application status (0x33)
2018:.\Generated_Source\PSoC4/Bootloader.c ****             ***************************************************************************/
2019:.\Generated_Source\PSoC4/Bootloader.c ****             #if ((0u != Bootloader_DUAL_APP_BOOTLOADER) || (CYDEV_PROJ_TYPE == CYDEV_PROJ_TYPE_LOAD
2020:.\Generated_Source\PSoC4/Bootloader.c **** 
2021:.\Generated_Source\PSoC4/Bootloader.c ****                 #if(0u != Bootloader_CMD_GET_APP_STATUS_AVAIL)
2022:.\Generated_Source\PSoC4/Bootloader.c **** 
2023:.\Generated_Source\PSoC4/Bootloader.c ****                     case Bootloader_COMMAND_APP_STATUS:
ARM GAS  C:\Users\LUKASC~1\AppData\Local\Temp\ccn8LSRc.s 			page 65


2024:.\Generated_Source\PSoC4/Bootloader.c **** 
2025:.\Generated_Source\PSoC4/Bootloader.c ****                         if((Bootloader_COMMUNICATION_STATE_ACTIVE == communicationState) && (1u == 
2026:.\Generated_Source\PSoC4/Bootloader.c ****                         {
2027:.\Generated_Source\PSoC4/Bootloader.c **** 
2028:.\Generated_Source\PSoC4/Bootloader.c ****                             packetBuffer[Bootloader_DATA_ADDR] =
2029:.\Generated_Source\PSoC4/Bootloader.c ****                                 (uint8)Bootloader_ValidateBootloadable(btldrData);
2030:.\Generated_Source\PSoC4/Bootloader.c **** 
2031:.\Generated_Source\PSoC4/Bootloader.c ****                             packetBuffer[Bootloader_DATA_ADDR + 1u] =
2032:.\Generated_Source\PSoC4/Bootloader.c ****                                 (uint8) Bootloader_GetMetadata(Bootloader_GET_BTLDB_ACTIVE, btldrDa
2033:.\Generated_Source\PSoC4/Bootloader.c **** 
2034:.\Generated_Source\PSoC4/Bootloader.c ****                             rspSize = Bootloader_RSP_SIZE_GET_APP_STATUS;
2035:.\Generated_Source\PSoC4/Bootloader.c ****                             ackCode = CYRET_SUCCESS;
2036:.\Generated_Source\PSoC4/Bootloader.c ****                         }
2037:.\Generated_Source\PSoC4/Bootloader.c ****                         break;
2038:.\Generated_Source\PSoC4/Bootloader.c **** 
2039:.\Generated_Source\PSoC4/Bootloader.c ****                 #endif  /* (0u != Bootloader_CMD_GET_APP_STATUS_AVAIL) */
2040:.\Generated_Source\PSoC4/Bootloader.c **** 
2041:.\Generated_Source\PSoC4/Bootloader.c ****             #endif  /* (0u != Bootloader_DUAL_APP_BOOTLOADER || (CYDEV_PROJ_TYPE == CYDEV_PROJ_TYPE
2042:.\Generated_Source\PSoC4/Bootloader.c **** 
2043:.\Generated_Source\PSoC4/Bootloader.c ****             /***************************************************************************
2044:.\Generated_Source\PSoC4/Bootloader.c ****             *   Program / Erase row (0x39 / 0x34)
2045:.\Generated_Source\PSoC4/Bootloader.c ****             ***************************************************************************/
2046:.\Generated_Source\PSoC4/Bootloader.c ****             case Bootloader_COMMAND_PROGRAM:
2047:.\Generated_Source\PSoC4/Bootloader.c **** 
2048:.\Generated_Source\PSoC4/Bootloader.c ****             /* btldrData variable holds Flash Array ID */
2049:.\Generated_Source\PSoC4/Bootloader.c **** 
2050:.\Generated_Source\PSoC4/Bootloader.c ****         #if (0u != Bootloader_CMD_ERASE_ROW_AVAIL)
2051:.\Generated_Source\PSoC4/Bootloader.c **** 
2052:.\Generated_Source\PSoC4/Bootloader.c ****             case Bootloader_COMMAND_ERASE:
2053:.\Generated_Source\PSoC4/Bootloader.c ****                 if (Bootloader_COMMAND_ERASE == packetBuffer[Bootloader_CMD_ADDR])
 1607              		.loc 1 2053 0
 1608 04aa 914B     		ldr	r3, .L125+28
 1609 04ac CE22     		mov	r2, #206
 1610 04ae 9200     		lsl	r2, r2, #2
 1611 04b0 9446     		mov	ip, r2
 1612 04b2 BC44     		add	ip, ip, r7
 1613 04b4 6344     		add	r3, r3, ip
 1614 04b6 5B78     		ldrb	r3, [r3, #1]
 1615 04b8 342B     		cmp	r3, #52
 1616 04ba 1BD1     		bne	.L92
2054:.\Generated_Source\PSoC4/Bootloader.c ****                 {
2055:.\Generated_Source\PSoC4/Bootloader.c ****                     if ((Bootloader_COMMUNICATION_STATE_ACTIVE == communicationState) && (pktSize =
 1617              		.loc 1 2055 0
 1618 04bc 864B     		ldr	r3, .L125+4
 1619 04be FB18     		add	r3, r7, r3
 1620 04c0 1B78     		ldrb	r3, [r3]
 1621 04c2 012B     		cmp	r3, #1
 1622 04c4 00D0     		beq	.LCB1402
 1623 04c6 D6E2     		b	.L68	@long jump
 1624              	.LCB1402:
 1625              		.loc 1 2055 0 is_stmt 0 discriminator 1
 1626 04c8 844B     		ldr	r3, .L125+8
 1627 04ca FB18     		add	r3, r7, r3
 1628 04cc 1B88     		ldrh	r3, [r3]
 1629 04ce 032B     		cmp	r3, #3
 1630 04d0 00D0     		beq	.LCB1407
 1631 04d2 D0E2     		b	.L68	@long jump
ARM GAS  C:\Users\LUKASC~1\AppData\Local\Temp\ccn8LSRc.s 			page 66


 1632              	.LCB1407:
2056:.\Generated_Source\PSoC4/Bootloader.c ****                     {
2057:.\Generated_Source\PSoC4/Bootloader.c ****                         #if(!CY_PSOC4)
2058:.\Generated_Source\PSoC4/Bootloader.c ****                             if((btldrData >= Bootloader_FIRST_EE_ARRAYID) &&
2059:.\Generated_Source\PSoC4/Bootloader.c ****                                (btldrData <= Bootloader_LAST_EE_ARRAYID))
2060:.\Generated_Source\PSoC4/Bootloader.c ****                             {
2061:.\Generated_Source\PSoC4/Bootloader.c ****                                 /* Size of EEPROM row */
2062:.\Generated_Source\PSoC4/Bootloader.c ****                                 dataOffset = CY_EEPROM_SIZEOF_ROW;
2063:.\Generated_Source\PSoC4/Bootloader.c ****                             }
2064:.\Generated_Source\PSoC4/Bootloader.c ****                             else
2065:.\Generated_Source\PSoC4/Bootloader.c ****                             {
2066:.\Generated_Source\PSoC4/Bootloader.c ****                                 /* Size of flash row (depends on ECC configuration) */
2067:.\Generated_Source\PSoC4/Bootloader.c ****                                 dataOffset = Bootloader_FROW_SIZE;
2068:.\Generated_Source\PSoC4/Bootloader.c ****                             }
2069:.\Generated_Source\PSoC4/Bootloader.c ****                         #else
2070:.\Generated_Source\PSoC4/Bootloader.c ****                             /* Size of flash row (no ECC available) */
2071:.\Generated_Source\PSoC4/Bootloader.c ****                             dataOffset = Bootloader_FROW_SIZE;
 1633              		.loc 1 2071 0 is_stmt 1
 1634 04d4 CB23     		mov	r3, #203
 1635 04d6 9B00     		lsl	r3, r3, #2
 1636 04d8 FB18     		add	r3, r7, r3
 1637 04da 8022     		mov	r2, #128
 1638 04dc 1A80     		strh	r2, [r3]
2072:.\Generated_Source\PSoC4/Bootloader.c ****                         #endif  /* (!CY_PSOC4) */
2073:.\Generated_Source\PSoC4/Bootloader.c **** 
2074:.\Generated_Source\PSoC4/Bootloader.c ****                         #if(CY_PSOC3)
2075:.\Generated_Source\PSoC4/Bootloader.c ****                             (void) memset(dataBuffer, (char8) 0, (int16) dataOffset);
2076:.\Generated_Source\PSoC4/Bootloader.c ****                         #else
2077:.\Generated_Source\PSoC4/Bootloader.c ****                             (void) memset(dataBuffer, 0, (uint32) dataOffset);
 1639              		.loc 1 2077 0
 1640 04de CB23     		mov	r3, #203
 1641 04e0 9B00     		lsl	r3, r3, #2
 1642 04e2 FB18     		add	r3, r7, r3
 1643 04e4 1B88     		ldrh	r3, [r3]
 1644 04e6 A822     		mov	r2, #168
 1645 04e8 BA18     		add	r2, r7, r2
 1646 04ea 101C     		mov	r0, r2
 1647 04ec 0021     		mov	r1, #0
 1648 04ee 1A1C     		mov	r2, r3
 1649 04f0 FFF7FEFF 		bl	memset
 1650              	.L92:
2078:.\Generated_Source\PSoC4/Bootloader.c ****                         #endif  /* (CY_PSOC3) */
2079:.\Generated_Source\PSoC4/Bootloader.c ****                     }
2080:.\Generated_Source\PSoC4/Bootloader.c ****                     else
2081:.\Generated_Source\PSoC4/Bootloader.c ****                     {
2082:.\Generated_Source\PSoC4/Bootloader.c ****                         break;
2083:.\Generated_Source\PSoC4/Bootloader.c ****                     }
2084:.\Generated_Source\PSoC4/Bootloader.c ****                 }
2085:.\Generated_Source\PSoC4/Bootloader.c **** 
2086:.\Generated_Source\PSoC4/Bootloader.c ****         #endif  /* (0u != Bootloader_CMD_ERASE_ROW_AVAIL) */
2087:.\Generated_Source\PSoC4/Bootloader.c **** 
2088:.\Generated_Source\PSoC4/Bootloader.c **** 
2089:.\Generated_Source\PSoC4/Bootloader.c ****                 if((Bootloader_COMMUNICATION_STATE_ACTIVE == communicationState) && (pktSize >= 3u)
 1651              		.loc 1 2089 0
 1652 04f4 784B     		ldr	r3, .L125+4
 1653 04f6 FB18     		add	r3, r7, r3
 1654 04f8 1B78     		ldrb	r3, [r3]
ARM GAS  C:\Users\LUKASC~1\AppData\Local\Temp\ccn8LSRc.s 			page 67


 1655 04fa 012B     		cmp	r3, #1
 1656 04fc 00D0     		beq	.LCB1429
 1657 04fe DCE0     		b	.L93	@long jump
 1658              	.LCB1429:
 1659              		.loc 1 2089 0 is_stmt 0 discriminator 1
 1660 0500 764B     		ldr	r3, .L125+8
 1661 0502 FB18     		add	r3, r7, r3
 1662 0504 1B88     		ldrh	r3, [r3]
 1663 0506 022B     		cmp	r3, #2
 1664 0508 00D8     		bhi	.LCB1434
 1665 050a D6E0     		b	.L93	@long jump
 1666              	.LCB1434:
 1667              	.LBB8:
2090:.\Generated_Source\PSoC4/Bootloader.c ****                 {
2091:.\Generated_Source\PSoC4/Bootloader.c ****                     uint16 upperRange;
2092:.\Generated_Source\PSoC4/Bootloader.c **** 
2093:.\Generated_Source\PSoC4/Bootloader.c ****                     /* Command may be sent along with last block of data, to program row. */
2094:.\Generated_Source\PSoC4/Bootloader.c ****                     #if(CY_PSOC3)
2095:.\Generated_Source\PSoC4/Bootloader.c ****                         (void) memcpy(&dataBuffer[dataOffset],
2096:.\Generated_Source\PSoC4/Bootloader.c ****                                       &packetBuffer[Bootloader_DATA_ADDR + 3u],
2097:.\Generated_Source\PSoC4/Bootloader.c ****                                       (int16) pktSize - 3);
2098:.\Generated_Source\PSoC4/Bootloader.c ****                     #else
2099:.\Generated_Source\PSoC4/Bootloader.c ****                         (void) memcpy(&dataBuffer[dataOffset],
 1668              		.loc 1 2099 0 is_stmt 1
 1669 050c CB23     		mov	r3, #203
 1670 050e 9B00     		lsl	r3, r3, #2
 1671 0510 FB18     		add	r3, r7, r3
 1672 0512 1B88     		ldrh	r3, [r3]
 1673 0514 A822     		mov	r2, #168
 1674 0516 BA18     		add	r2, r7, r2
 1675 0518 D118     		add	r1, r2, r3
2100:.\Generated_Source\PSoC4/Bootloader.c ****                                       &packetBuffer[Bootloader_DATA_ADDR + 3u],
2101:.\Generated_Source\PSoC4/Bootloader.c ****                                       (uint32) pktSize - 3u);
 1676              		.loc 1 2101 0
 1677 051a 704B     		ldr	r3, .L125+8
 1678 051c FB18     		add	r3, r7, r3
 1679 051e 1B88     		ldrh	r3, [r3]
 1680 0520 DA1E     		sub	r2, r3, #3
2099:.\Generated_Source\PSoC4/Bootloader.c ****                                       &packetBuffer[Bootloader_DATA_ADDR + 3u],
 1681              		.loc 1 2099 0
 1682 0522 EA23     		mov	r3, #234
 1683 0524 5B00     		lsl	r3, r3, #1
 1684 0526 FB18     		add	r3, r7, r3
 1685 0528 0733     		add	r3, r3, #7
 1686 052a 081C     		mov	r0, r1
 1687 052c 191C     		mov	r1, r3
 1688 052e FFF7FEFF 		bl	memcpy
2102:.\Generated_Source\PSoC4/Bootloader.c ****                     #endif  /* (CY_PSOC3) */
2103:.\Generated_Source\PSoC4/Bootloader.c **** 
2104:.\Generated_Source\PSoC4/Bootloader.c ****                     dataOffset += (pktSize - 3u);
 1689              		.loc 1 2104 0
 1690 0532 CB23     		mov	r3, #203
 1691 0534 9B00     		lsl	r3, r3, #2
 1692 0536 FA18     		add	r2, r7, r3
 1693 0538 684B     		ldr	r3, .L125+8
 1694 053a FB18     		add	r3, r7, r3
 1695 053c 1288     		ldrh	r2, [r2]
ARM GAS  C:\Users\LUKASC~1\AppData\Local\Temp\ccn8LSRc.s 			page 68


 1696 053e 1B88     		ldrh	r3, [r3]
 1697 0540 D318     		add	r3, r2, r3
 1698 0542 9AB2     		uxth	r2, r3
 1699 0544 CB23     		mov	r3, #203
 1700 0546 9B00     		lsl	r3, r3, #2
 1701 0548 FB18     		add	r3, r7, r3
 1702 054a 033A     		sub	r2, r2, #3
 1703 054c 1A80     		strh	r2, [r3]
2105:.\Generated_Source\PSoC4/Bootloader.c **** 
2106:.\Generated_Source\PSoC4/Bootloader.c ****                     #if(!CY_PSOC4)
2107:.\Generated_Source\PSoC4/Bootloader.c ****                         if((btldrData >= Bootloader_FIRST_EE_ARRAYID) &&
2108:.\Generated_Source\PSoC4/Bootloader.c ****                            (btldrData <= Bootloader_LAST_EE_ARRAYID))
2109:.\Generated_Source\PSoC4/Bootloader.c ****                         {
2110:.\Generated_Source\PSoC4/Bootloader.c ****                             CyEEPROM_Start();
2111:.\Generated_Source\PSoC4/Bootloader.c **** 
2112:.\Generated_Source\PSoC4/Bootloader.c ****                             /* Size of EEPROM row */
2113:.\Generated_Source\PSoC4/Bootloader.c ****                             pktSize = CY_EEPROM_SIZEOF_ROW;                            
2114:.\Generated_Source\PSoC4/Bootloader.c ****                             upperRange = Bootloader_NUMBER_OF_EEPROM_SECTORS * Bootloader_NUMBER_OF
2115:.\Generated_Source\PSoC4/Bootloader.c ****                         }
2116:.\Generated_Source\PSoC4/Bootloader.c ****                         else
2117:.\Generated_Source\PSoC4/Bootloader.c ****                         {
2118:.\Generated_Source\PSoC4/Bootloader.c ****                             /* Size of flash row (depends on ECC configuration) */
2119:.\Generated_Source\PSoC4/Bootloader.c ****                             pktSize = Bootloader_FROW_SIZE;                            
2120:.\Generated_Source\PSoC4/Bootloader.c ****                             upperRange = Bootloader_NUMBER_OF_ROWS_IN_ARRAY;
2121:.\Generated_Source\PSoC4/Bootloader.c ****                         }
2122:.\Generated_Source\PSoC4/Bootloader.c ****                     #else
2123:.\Generated_Source\PSoC4/Bootloader.c ****                         /* Size of flash row (no ECC available) */
2124:.\Generated_Source\PSoC4/Bootloader.c ****                         pktSize = Bootloader_FROW_SIZE;                            
 1704              		.loc 1 2124 0
 1705 054e 634B     		ldr	r3, .L125+8
 1706 0550 FB18     		add	r3, r7, r3
 1707 0552 8022     		mov	r2, #128
 1708 0554 1A80     		strh	r2, [r3]
2125:.\Generated_Source\PSoC4/Bootloader.c ****                         upperRange = Bootloader_NUMBER_OF_ROWS_IN_ARRAY;
 1709              		.loc 1 2125 0
 1710 0556 C423     		mov	r3, #196
 1711 0558 9B00     		lsl	r3, r3, #2
 1712 055a FB18     		add	r3, r7, r3
 1713 055c 8022     		mov	r2, #128
 1714 055e 5200     		lsl	r2, r2, #1
 1715 0560 1A80     		strh	r2, [r3]
2126:.\Generated_Source\PSoC4/Bootloader.c ****                     #endif  /* (!CY_PSOC4) */
2127:.\Generated_Source\PSoC4/Bootloader.c **** 
2128:.\Generated_Source\PSoC4/Bootloader.c ****                     /* Check if we have all data to program */
2129:.\Generated_Source\PSoC4/Bootloader.c ****                     if(dataOffset == pktSize)
 1716              		.loc 1 2129 0
 1717 0562 CB23     		mov	r3, #203
 1718 0564 9B00     		lsl	r3, r3, #2
 1719 0566 FA18     		add	r2, r7, r3
 1720 0568 5C4B     		ldr	r3, .L125+8
 1721 056a FB18     		add	r3, r7, r3
 1722 056c 1288     		ldrh	r2, [r2]
 1723 056e 1B88     		ldrh	r3, [r3]
 1724 0570 9A42     		cmp	r2, r3
 1725 0572 00D0     		beq	.LCB1486
 1726 0574 97E0     		b	.L94	@long jump
 1727              	.LCB1486:
ARM GAS  C:\Users\LUKASC~1\AppData\Local\Temp\ccn8LSRc.s 			page 69


 1728              	.LBB9:
2130:.\Generated_Source\PSoC4/Bootloader.c ****                     {
2131:.\Generated_Source\PSoC4/Bootloader.c ****                         uint16 row;
2132:.\Generated_Source\PSoC4/Bootloader.c ****                         uint16 firstRow;    
2133:.\Generated_Source\PSoC4/Bootloader.c ****                     #if ((0u != Bootloader_DUAL_APP_BOOTLOADER) && \
2134:.\Generated_Source\PSoC4/Bootloader.c ****                           (1u == Bootloader_GOLDEN_IMAGE_AVAIL))
2135:.\Generated_Source\PSoC4/Bootloader.c ****                         cystatus goldenImageValid;
2136:.\Generated_Source\PSoC4/Bootloader.c ****                     #endif /*(((0u != Bootloader_DUAL_APP_BOOTLOADER) &&
2137:.\Generated_Source\PSoC4/Bootloader.c ****                                (1u == Bootloader_GOLDEN_IMAGE_AVAIL))*/
2138:.\Generated_Source\PSoC4/Bootloader.c **** 
2139:.\Generated_Source\PSoC4/Bootloader.c ****                         /* Get flash/EEPROM row number inside array */
2140:.\Generated_Source\PSoC4/Bootloader.c ****                         dataOffset = ((uint16)((uint16)packetBuffer[Bootloader_DATA_ADDR + 2u] << 8
 1729              		.loc 1 2140 0
 1730 0576 5E4B     		ldr	r3, .L125+28
 1731 0578 CE22     		mov	r2, #206
 1732 057a 9200     		lsl	r2, r2, #2
 1733 057c 9446     		mov	ip, r2
 1734 057e BC44     		add	ip, ip, r7
 1735 0580 6344     		add	r3, r3, ip
 1736 0582 9B79     		ldrb	r3, [r3, #6]
 1737 0584 9BB2     		uxth	r3, r3
 1738 0586 1B02     		lsl	r3, r3, #8
 1739 0588 99B2     		uxth	r1, r3
2141:.\Generated_Source\PSoC4/Bootloader.c ****                                               packetBuffer[Bootloader_DATA_ADDR + 1u];
 1740              		.loc 1 2141 0
 1741 058a 594B     		ldr	r3, .L125+28
 1742 058c CE22     		mov	r2, #206
 1743 058e 9200     		lsl	r2, r2, #2
 1744 0590 9446     		mov	ip, r2
 1745 0592 BC44     		add	ip, ip, r7
 1746 0594 6344     		add	r3, r3, ip
 1747 0596 5B79     		ldrb	r3, [r3, #5]
2140:.\Generated_Source\PSoC4/Bootloader.c ****                                               packetBuffer[Bootloader_DATA_ADDR + 1u];
 1748              		.loc 1 2140 0
 1749 0598 9AB2     		uxth	r2, r3
 1750 059a CB23     		mov	r3, #203
 1751 059c 9B00     		lsl	r3, r3, #2
 1752 059e FB18     		add	r3, r7, r3
 1753 05a0 0A43     		orr	r2, r1
 1754 05a2 1A80     		strh	r2, [r3]
2142:.\Generated_Source\PSoC4/Bootloader.c **** 
2143:.\Generated_Source\PSoC4/Bootloader.c ****                         /*Checking if row number is within array address range*/
2144:.\Generated_Source\PSoC4/Bootloader.c ****                         ackCode = Bootloader_CHECK_ROW_NUMBER(dataOffset, upperRange);
 1755              		.loc 1 2144 0
 1756 05a4 CB23     		mov	r3, #203
 1757 05a6 9B00     		lsl	r3, r3, #2
 1758 05a8 FA18     		add	r2, r7, r3
 1759 05aa C423     		mov	r3, #196
 1760 05ac 9B00     		lsl	r3, r3, #2
 1761 05ae FB18     		add	r3, r7, r3
 1762 05b0 1288     		ldrh	r2, [r2]
 1763 05b2 1B88     		ldrh	r3, [r3]
 1764 05b4 9A42     		cmp	r2, r3
 1765 05b6 01D2     		bcs	.L95
 1766              		.loc 1 2144 0 is_stmt 0 discriminator 1
 1767 05b8 0022     		mov	r2, #0
 1768 05ba 00E0     		b	.L96
ARM GAS  C:\Users\LUKASC~1\AppData\Local\Temp\ccn8LSRc.s 			page 70


 1769              	.L95:
 1770              		.loc 1 2144 0 discriminator 2
 1771 05bc 0A22     		mov	r2, #10
 1772              	.L96:
 1773              		.loc 1 2144 0 discriminator 4
 1774 05be 454B     		ldr	r3, .L125
 1775 05c0 FB18     		add	r3, r7, r3
 1776 05c2 1A70     		strb	r2, [r3]
2145:.\Generated_Source\PSoC4/Bootloader.c ****                     
2146:.\Generated_Source\PSoC4/Bootloader.c ****                         if (CYRET_SUCCESS != ackCode)
 1777              		.loc 1 2146 0 is_stmt 1 discriminator 4
 1778 05c4 434B     		ldr	r3, .L125
 1779 05c6 FB18     		add	r3, r7, r3
 1780 05c8 1B78     		ldrb	r3, [r3]
 1781 05ca 002B     		cmp	r3, #0
 1782 05cc 00D0     		beq	.L97
2147:.\Generated_Source\PSoC4/Bootloader.c ****                         {
2148:.\Generated_Source\PSoC4/Bootloader.c ****                             break;
 1783              		.loc 1 2148 0
 1784 05ce 52E2     		b	.L68
 1785              	.L97:
2149:.\Generated_Source\PSoC4/Bootloader.c ****                         }
2150:.\Generated_Source\PSoC4/Bootloader.c ****                         
2151:.\Generated_Source\PSoC4/Bootloader.c ****                         /* Metadata section resides in flash (cannot be in EEPROM). */
2152:.\Generated_Source\PSoC4/Bootloader.c ****                         #if(!CY_PSOC4)
2153:.\Generated_Source\PSoC4/Bootloader.c ****                             if(btldrData <= Bootloader_LAST_FLASH_ARRAYID)
2154:.\Generated_Source\PSoC4/Bootloader.c ****                             {
2155:.\Generated_Source\PSoC4/Bootloader.c ****                         #endif  /* (!CY_PSOC4) */
2156:.\Generated_Source\PSoC4/Bootloader.c ****                 
2157:.\Generated_Source\PSoC4/Bootloader.c ****                         /* btldrData  - holds flash array Id sent by host */
2158:.\Generated_Source\PSoC4/Bootloader.c ****                         /* dataOffset - holds flash row Id sent by host   */
2159:.\Generated_Source\PSoC4/Bootloader.c ****                         row = (uint16)(btldrData * Bootloader_NUMBER_OF_ROWS_IN_ARRAY) + dataOffset
 1786              		.loc 1 2159 0
 1787 05d0 434B     		ldr	r3, .L125+12
 1788 05d2 FB18     		add	r3, r7, r3
 1789 05d4 1B78     		ldrb	r3, [r3]
 1790 05d6 9BB2     		uxth	r3, r3
 1791 05d8 1B02     		lsl	r3, r3, #8
 1792 05da 99B2     		uxth	r1, r3
 1793 05dc 464B     		ldr	r3, .L125+36
 1794 05de FB18     		add	r3, r7, r3
 1795 05e0 CB22     		mov	r2, #203
 1796 05e2 9200     		lsl	r2, r2, #2
 1797 05e4 BA18     		add	r2, r7, r2
 1798 05e6 1288     		ldrh	r2, [r2]
 1799 05e8 8A18     		add	r2, r1, r2
 1800 05ea 1A80     		strh	r2, [r3]
2160:.\Generated_Source\PSoC4/Bootloader.c ****                 
2161:.\Generated_Source\PSoC4/Bootloader.c ****                         /**************************************************************************
2162:.\Generated_Source\PSoC4/Bootloader.c ****                         * Refuse to write to the row within range of the bootloader application
2163:.\Generated_Source\PSoC4/Bootloader.c ****                         ***************************************************************************
2164:.\Generated_Source\PSoC4/Bootloader.c **** 
2165:.\Generated_Source\PSoC4/Bootloader.c ****                         /* First empty flash row after Bootloader application */
2166:.\Generated_Source\PSoC4/Bootloader.c ****                         #if (CYDEV_PROJ_TYPE != CYDEV_PROJ_TYPE_LOADABLEANDBOOTLOADER)    
2167:.\Generated_Source\PSoC4/Bootloader.c ****                             firstRow = (uint16) (*Bootloader_SizeBytesAccess / CYDEV_FLS_ROW_SIZE);
 1801              		.loc 1 2167 0
 1802 05ec 3D4B     		ldr	r3, .L125+16
ARM GAS  C:\Users\LUKASC~1\AppData\Local\Temp\ccn8LSRc.s 			page 71


 1803 05ee 1B68     		ldr	r3, [r3]
 1804 05f0 1B68     		ldr	r3, [r3]
 1805 05f2 DA09     		lsr	r2, r3, #7
 1806 05f4 CA23     		mov	r3, #202
 1807 05f6 9B00     		lsl	r3, r3, #2
 1808 05f8 FB18     		add	r3, r7, r3
 1809 05fa 1A80     		strh	r2, [r3]
2168:.\Generated_Source\PSoC4/Bootloader.c ****                             if ((*Bootloader_SizeBytesAccess % CYDEV_FLS_ROW_SIZE) != 0u)
 1810              		.loc 1 2168 0
 1811 05fc 394B     		ldr	r3, .L125+16
 1812 05fe 1B68     		ldr	r3, [r3]
 1813 0600 1B68     		ldr	r3, [r3]
 1814 0602 7F22     		mov	r2, #127
 1815 0604 1340     		and	r3, r2
 1816 0606 08D0     		beq	.L98
2169:.\Generated_Source\PSoC4/Bootloader.c ****                             {
2170:.\Generated_Source\PSoC4/Bootloader.c ****                                 firstRow++;
 1817              		.loc 1 2170 0
 1818 0608 CA23     		mov	r3, #202
 1819 060a 9B00     		lsl	r3, r3, #2
 1820 060c FB18     		add	r3, r7, r3
 1821 060e 1A88     		ldrh	r2, [r3]
 1822 0610 CA23     		mov	r3, #202
 1823 0612 9B00     		lsl	r3, r3, #2
 1824 0614 FB18     		add	r3, r7, r3
 1825 0616 0132     		add	r2, r2, #1
 1826 0618 1A80     		strh	r2, [r3]
 1827              	.L98:
2171:.\Generated_Source\PSoC4/Bootloader.c ****                             }
2172:.\Generated_Source\PSoC4/Bootloader.c ****                         #else /*Combination project type*/                       
2173:.\Generated_Source\PSoC4/Bootloader.c ****                             
2174:.\Generated_Source\PSoC4/Bootloader.c ****                             if (Bootloader_RUNNING_APPLICATION_0 == Bootloader_runningApp) 
2175:.\Generated_Source\PSoC4/Bootloader.c ****                             {
2176:.\Generated_Source\PSoC4/Bootloader.c ****                                 btldrLastRow = (uint16)Bootloader_GetMetadata(Bootloader_GET_BTLDR_
2177:.\Generated_Source\PSoC4/Bootloader.c ****                                                                             Bootloader_MD_BTLDB_ACT
2178:.\Generated_Source\PSoC4/Bootloader.c ****                             }    
2179:.\Generated_Source\PSoC4/Bootloader.c ****                             else /*(Bootloader_RUNNING_APPLICATION_1 == Bootloader_runningApp)*/
2180:.\Generated_Source\PSoC4/Bootloader.c ****                             {
2181:.\Generated_Source\PSoC4/Bootloader.c ****                                 btldrLastRow = (uint16)Bootloader_GetMetadata(Bootloader_GET_BTLDR_
2182:.\Generated_Source\PSoC4/Bootloader.c ****                                                                             Bootloader_MD_BTLDB_ACT
2183:.\Generated_Source\PSoC4/Bootloader.c ****                             }
2184:.\Generated_Source\PSoC4/Bootloader.c ****                                                 
2185:.\Generated_Source\PSoC4/Bootloader.c ****                             firstRow = (uint16)(btldrLastRow + 1u); 
2186:.\Generated_Source\PSoC4/Bootloader.c ****                         #endif /*(CYDEV_PROJ_TYPE != CYDEV_PROJ_TYPE_LOADABLEANDBOOTLOADER)*/      
2187:.\Generated_Source\PSoC4/Bootloader.c **** 
2188:.\Generated_Source\PSoC4/Bootloader.c ****                             /* Check to see if a row to be programmed will not corrupt the Bootload
2189:.\Generated_Source\PSoC4/Bootloader.c ****                             if(row < firstRow)
 1828              		.loc 1 2189 0
 1829 061a 374B     		ldr	r3, .L125+36
 1830 061c FA18     		add	r2, r7, r3
 1831 061e CA23     		mov	r3, #202
 1832 0620 9B00     		lsl	r3, r3, #2
 1833 0622 FB18     		add	r3, r7, r3
 1834 0624 1288     		ldrh	r2, [r2]
 1835 0626 1B88     		ldrh	r3, [r3]
 1836 0628 9A42     		cmp	r2, r3
 1837 062a 09D2     		bcs	.L99
ARM GAS  C:\Users\LUKASC~1\AppData\Local\Temp\ccn8LSRc.s 			page 72


2190:.\Generated_Source\PSoC4/Bootloader.c ****                             {
2191:.\Generated_Source\PSoC4/Bootloader.c ****                                 ackCode = Bootloader_ERR_ROW;
 1838              		.loc 1 2191 0
 1839 062c 294B     		ldr	r3, .L125
 1840 062e FB18     		add	r3, r7, r3
 1841 0630 0A22     		mov	r2, #10
 1842 0632 1A70     		strb	r2, [r3]
2192:.\Generated_Source\PSoC4/Bootloader.c ****                                 dataOffset = 0u;
 1843              		.loc 1 2192 0
 1844 0634 CB23     		mov	r3, #203
 1845 0636 9B00     		lsl	r3, r3, #2
 1846 0638 FB18     		add	r3, r7, r3
 1847 063a 0022     		mov	r2, #0
 1848 063c 1A80     		strh	r2, [r3]
2193:.\Generated_Source\PSoC4/Bootloader.c ****                                 break;
 1849              		.loc 1 2193 0
 1850 063e 1AE2     		b	.L68
 1851              	.L99:
2194:.\Generated_Source\PSoC4/Bootloader.c ****                             }
2195:.\Generated_Source\PSoC4/Bootloader.c ****                         
2196:.\Generated_Source\PSoC4/Bootloader.c ****                         #if ((0u != Bootloader_DUAL_APP_BOOTLOADER) || \
2197:.\Generated_Source\PSoC4/Bootloader.c ****                              (CYDEV_PROJ_TYPE == CYDEV_PROJ_TYPE_LOADABLEANDBOOTLOADER))
2198:.\Generated_Source\PSoC4/Bootloader.c ****                             
2199:.\Generated_Source\PSoC4/Bootloader.c ****                             /**********************************************************************
2200:.\Generated_Source\PSoC4/Bootloader.c ****                             * No check is required in case when there is no app#1 present in Upgrad
2201:.\Generated_Source\PSoC4/Bootloader.c ****                             * use case (no user application downloaded yet).                       
2202:.\Generated_Source\PSoC4/Bootloader.c ****                             ***********************************************************************
2203:.\Generated_Source\PSoC4/Bootloader.c ****                             #if (CYDEV_PROJ_TYPE == CYDEV_PROJ_TYPE_LOADABLEANDBOOTLOADER)
2204:.\Generated_Source\PSoC4/Bootloader.c ****                             if (0u != app2StartAddress) 
2205:.\Generated_Source\PSoC4/Bootloader.c ****                             {
2206:.\Generated_Source\PSoC4/Bootloader.c ****                             #endif /*(CYDEV_PROJ_TYPE == CYDEV_PROJ_TYPE_LOADABLEANDBOOTLOADER)*/
2207:.\Generated_Source\PSoC4/Bootloader.c ****                             
2208:.\Generated_Source\PSoC4/Bootloader.c ****                                 if(Bootloader_activeApp < Bootloader_MD_BTLDB_ACTIVE_NONE)    
2209:.\Generated_Source\PSoC4/Bootloader.c ****                                 {
2210:.\Generated_Source\PSoC4/Bootloader.c ****                                     /* Refuse to write to active image */
2211:.\Generated_Source\PSoC4/Bootloader.c ****                                     ackCode = Bootloader_CheckImage(Bootloader_activeApp, 
2212:.\Generated_Source\PSoC4/Bootloader.c ****                                                                        btldrData, /*array number*/
2213:.\Generated_Source\PSoC4/Bootloader.c ****                                                                        row,  /*row number*/
2214:.\Generated_Source\PSoC4/Bootloader.c ****                                                                        dataOffset); /*row number in
2215:.\Generated_Source\PSoC4/Bootloader.c ****                                 
2216:.\Generated_Source\PSoC4/Bootloader.c ****                                     if (Bootloader_ERR_ACTIVE == ackCode)
2217:.\Generated_Source\PSoC4/Bootloader.c ****                                     {
2218:.\Generated_Source\PSoC4/Bootloader.c ****                                         dataOffset = 0u;
2219:.\Generated_Source\PSoC4/Bootloader.c ****                                         break;                                
2220:.\Generated_Source\PSoC4/Bootloader.c ****                                     }
2221:.\Generated_Source\PSoC4/Bootloader.c ****                                 }
2222:.\Generated_Source\PSoC4/Bootloader.c ****                             #if (CYDEV_PROJ_TYPE == CYDEV_PROJ_TYPE_LOADABLEANDBOOTLOADER)
2223:.\Generated_Source\PSoC4/Bootloader.c ****                             }
2224:.\Generated_Source\PSoC4/Bootloader.c ****                             #endif /*(CYDEV_PROJ_TYPE == CYDEV_PROJ_TYPE_LOADABLEANDBOOTLOADER)*/
2225:.\Generated_Source\PSoC4/Bootloader.c **** 
2226:.\Generated_Source\PSoC4/Bootloader.c ****                             /*This option is available for classic Dual-app bootloader only*/
2227:.\Generated_Source\PSoC4/Bootloader.c ****                             #if ((0u != Bootloader_DUAL_APP_BOOTLOADER) && \
2228:.\Generated_Source\PSoC4/Bootloader.c ****                                  (1u == Bootloader_GOLDEN_IMAGE_AVAIL))
2229:.\Generated_Source\PSoC4/Bootloader.c ****                             /* Check if this is an attempt to overwrite Golden image */
2230:.\Generated_Source\PSoC4/Bootloader.c ****                             ackCode = Bootloader_CheckImage(Bootloader_GOLDEN_IMAGE, 
2231:.\Generated_Source\PSoC4/Bootloader.c ****                                                                   btldrData, /*array number*/
2232:.\Generated_Source\PSoC4/Bootloader.c ****                                                                   row, /*row number*/
ARM GAS  C:\Users\LUKASC~1\AppData\Local\Temp\ccn8LSRc.s 			page 73


2233:.\Generated_Source\PSoC4/Bootloader.c ****                                                                   dataOffset); /*row number in scop
2234:.\Generated_Source\PSoC4/Bootloader.c ****                             
2235:.\Generated_Source\PSoC4/Bootloader.c ****                             
2236:.\Generated_Source\PSoC4/Bootloader.c ****                             /**********************************************************************
2237:.\Generated_Source\PSoC4/Bootloader.c ****                             * If an image to write is intended to update the Golden image and Golde
2238:.\Generated_Source\PSoC4/Bootloader.c ****                             * itself is valid, then give an error that it is active/Golden, otherwi
2239:.\Generated_Source\PSoC4/Bootloader.c ****                             * (invalid Golden image) let the Golden image to be overwritten.
2240:.\Generated_Source\PSoC4/Bootloader.c ****                             ***********************************************************************
2241:.\Generated_Source\PSoC4/Bootloader.c ****                             goldenImageValid = Bootloader_ValidateBootloadable(Bootloader_GOLDEN_IM
2242:.\Generated_Source\PSoC4/Bootloader.c ****                             if ((Bootloader_ERR_ACTIVE == ackCode) && (CYRET_SUCCESS == goldenImage
2243:.\Generated_Source\PSoC4/Bootloader.c ****                             {
2244:.\Generated_Source\PSoC4/Bootloader.c ****                                 dataOffset = 0u;
2245:.\Generated_Source\PSoC4/Bootloader.c ****                                 break;                                
2246:.\Generated_Source\PSoC4/Bootloader.c ****                             }
2247:.\Generated_Source\PSoC4/Bootloader.c ****                             else /* It is OK to overwrite corrupted Golden image */
2248:.\Generated_Source\PSoC4/Bootloader.c ****                             {
2249:.\Generated_Source\PSoC4/Bootloader.c ****                                 ackCode = CYRET_SUCCESS;
2250:.\Generated_Source\PSoC4/Bootloader.c ****                             }
2251:.\Generated_Source\PSoC4/Bootloader.c ****                             #endif /*((0u != Bootloader_DUAL_APP_BOOTLOADER) &&
2252:.\Generated_Source\PSoC4/Bootloader.c ****                                       (1u == Bootloader_GOLDEN_IMAGE_AVAIL)) */
2253:.\Generated_Source\PSoC4/Bootloader.c ****                         #endif /*(0u != Bootloader_DUAL_APP_BOOTLOADER) ||
2254:.\Generated_Source\PSoC4/Bootloader.c ****                                  (CYDEV_PROJ_TYPE == CYDEV_PROJ_TYPE_LOADABLEANDBOOTLOADER)*/    
2255:.\Generated_Source\PSoC4/Bootloader.c ****   
2256:.\Generated_Source\PSoC4/Bootloader.c **** 
2257:.\Generated_Source\PSoC4/Bootloader.c ****                         /**************************************************************************
2258:.\Generated_Source\PSoC4/Bootloader.c ****                         * Clear a row that contains metadata, when the "Fast bootloadable applicati
2259:.\Generated_Source\PSoC4/Bootloader.c ****                         * validation" option is enabled.
2260:.\Generated_Source\PSoC4/Bootloader.c ****                         *
2261:.\Generated_Source\PSoC4/Bootloader.c ****                         * If the "Fast bootloadable application validation" option is enabled, the
2262:.\Generated_Source\PSoC4/Bootloader.c ****                         * bootloader only computes the checksum the first time and assumes that it
2263:.\Generated_Source\PSoC4/Bootloader.c ****                         * remains valid in each future startup. The metadata row is cleared because
2264:.\Generated_Source\PSoC4/Bootloader.c ****                         * Bootloadable application might become corrupted during update, while
2265:.\Generated_Source\PSoC4/Bootloader.c ****                         * the "Bootloadable Application Verification Status" field will still repor
2266:.\Generated_Source\PSoC4/Bootloader.c ****                         * the application is valid.
2267:.\Generated_Source\PSoC4/Bootloader.c ****                         ***************************************************************************
2268:.\Generated_Source\PSoC4/Bootloader.c ****                         #if(0u != Bootloader_FAST_APP_VALIDATION)
2269:.\Generated_Source\PSoC4/Bootloader.c **** 
2270:.\Generated_Source\PSoC4/Bootloader.c ****                             if(0u == clearedMetaData)
 1852              		.loc 1 2270 0
 1853 0640 CC23     		mov	r3, #204
 1854 0642 9B00     		lsl	r3, r3, #2
 1855 0644 FB18     		add	r3, r7, r3
 1856 0646 1B78     		ldrb	r3, [r3]
 1857 0648 002B     		cmp	r3, #0
 1858 064a 1AD1     		bne	.L100
 1859              	.LBB10:
2271:.\Generated_Source\PSoC4/Bootloader.c ****                             {
2272:.\Generated_Source\PSoC4/Bootloader.c ****                                 /* Metadata section must be filled with zeros */
2273:.\Generated_Source\PSoC4/Bootloader.c **** 
2274:.\Generated_Source\PSoC4/Bootloader.c ****                                 uint8 erase[Bootloader_FROW_SIZE];
2275:.\Generated_Source\PSoC4/Bootloader.c ****                                 uint8 Bootloader_notActiveApp;
2276:.\Generated_Source\PSoC4/Bootloader.c **** 
2277:.\Generated_Source\PSoC4/Bootloader.c **** 
2278:.\Generated_Source\PSoC4/Bootloader.c ****                                 #if(CY_PSOC3)
2279:.\Generated_Source\PSoC4/Bootloader.c ****                                     (void) memset(erase, (char8) 0, (int16) Bootloader_FROW_SIZE);
2280:.\Generated_Source\PSoC4/Bootloader.c ****                                 #else
2281:.\Generated_Source\PSoC4/Bootloader.c ****                                     (void) memset(erase, 0, Bootloader_FROW_SIZE);
ARM GAS  C:\Users\LUKASC~1\AppData\Local\Temp\ccn8LSRc.s 			page 74


 1860              		.loc 1 2281 0
 1861 064c 0C23     		mov	r3, #12
 1862 064e FB18     		add	r3, r7, r3
 1863 0650 181C     		mov	r0, r3
 1864 0652 0021     		mov	r1, #0
 1865 0654 8022     		mov	r2, #128
 1866 0656 FFF7FEFF 		bl	memset
2282:.\Generated_Source\PSoC4/Bootloader.c ****                                 #endif  /* (CY_PSOC3) */
2283:.\Generated_Source\PSoC4/Bootloader.c **** 
2284:.\Generated_Source\PSoC4/Bootloader.c **** 
2285:.\Generated_Source\PSoC4/Bootloader.c ****                                 #if ((0u != Bootloader_DUAL_APP_BOOTLOADER) || \
2286:.\Generated_Source\PSoC4/Bootloader.c ****                                      (CYDEV_PROJ_TYPE == CYDEV_PROJ_TYPE_LOADABLEANDBOOTLOADER))
2287:.\Generated_Source\PSoC4/Bootloader.c ****                                     if (Bootloader_MD_BTLDB_ACTIVE_0 == Bootloader_activeApp)
2288:.\Generated_Source\PSoC4/Bootloader.c ****                                     {
2289:.\Generated_Source\PSoC4/Bootloader.c ****                                         Bootloader_notActiveApp = Bootloader_MD_BTLDB_ACTIVE_1;
2290:.\Generated_Source\PSoC4/Bootloader.c ****                                     }
2291:.\Generated_Source\PSoC4/Bootloader.c ****                                     else
2292:.\Generated_Source\PSoC4/Bootloader.c ****                                     {
2293:.\Generated_Source\PSoC4/Bootloader.c ****                                         Bootloader_notActiveApp = Bootloader_MD_BTLDB_ACTIVE_0;
2294:.\Generated_Source\PSoC4/Bootloader.c ****                                     }
2295:.\Generated_Source\PSoC4/Bootloader.c ****                                 #else
2296:.\Generated_Source\PSoC4/Bootloader.c ****                                     Bootloader_notActiveApp = Bootloader_MD_BTLDB_ACTIVE_0;
 1867              		.loc 1 2296 0
 1868 065a 284B     		ldr	r3, .L125+40
 1869 065c FB18     		add	r3, r7, r3
 1870 065e 0022     		mov	r2, #0
 1871 0660 1A70     		strb	r2, [r3]
2297:.\Generated_Source\PSoC4/Bootloader.c ****                                 #endif /* (0u != Bootloader_DUAL_APP_BOOTLOADER) */
2298:.\Generated_Source\PSoC4/Bootloader.c **** 
2299:.\Generated_Source\PSoC4/Bootloader.c **** 
2300:.\Generated_Source\PSoC4/Bootloader.c ****                                 #if(CY_PSOC4)
2301:.\Generated_Source\PSoC4/Bootloader.c ****                                     (void) CySysFlashWriteRow(
2302:.\Generated_Source\PSoC4/Bootloader.c ****                                             Bootloader_MD_ROW_NUM(Bootloader_notActiveApp),
 1872              		.loc 1 2302 0
 1873 0662 264B     		ldr	r3, .L125+40
 1874 0664 FB18     		add	r3, r7, r3
 1875 0666 1B78     		ldrb	r3, [r3]
2301:.\Generated_Source\PSoC4/Bootloader.c ****                                             Bootloader_MD_ROW_NUM(Bootloader_notActiveApp),
 1876              		.loc 1 2301 0
 1877 0668 FF22     		mov	r2, #255
 1878 066a D21A     		sub	r2, r2, r3
 1879 066c 0C23     		mov	r3, #12
 1880 066e FB18     		add	r3, r7, r3
 1881 0670 101C     		mov	r0, r2
 1882 0672 191C     		mov	r1, r3
 1883 0674 FFF7FEFF 		bl	CySysFlashWriteRow
2303:.\Generated_Source\PSoC4/Bootloader.c ****                                             erase);
2304:.\Generated_Source\PSoC4/Bootloader.c ****                                 #else
2305:.\Generated_Source\PSoC4/Bootloader.c ****                                     (void) CyWriteRowFull(
2306:.\Generated_Source\PSoC4/Bootloader.c ****                                             (uint8)  Bootloader_MD_FLASH_ARRAY_NUM,
2307:.\Generated_Source\PSoC4/Bootloader.c ****                                             (uint16) Bootloader_MD_ROW_NUM(Bootloader_notActiveApp)
2308:.\Generated_Source\PSoC4/Bootloader.c ****                                             erase,
2309:.\Generated_Source\PSoC4/Bootloader.c ****                                             Bootloader_FROW_SIZE);
2310:.\Generated_Source\PSoC4/Bootloader.c ****                                 #endif  /* (CY_PSOC4) */
2311:.\Generated_Source\PSoC4/Bootloader.c **** 
2312:.\Generated_Source\PSoC4/Bootloader.c ****                                 /* PSoC 5: Do not care about flushing cache as flash row has been e
2313:.\Generated_Source\PSoC4/Bootloader.c **** 
ARM GAS  C:\Users\LUKASC~1\AppData\Local\Temp\ccn8LSRc.s 			page 75


2314:.\Generated_Source\PSoC4/Bootloader.c ****                                 /* Set up flag that metadata was cleared */
2315:.\Generated_Source\PSoC4/Bootloader.c ****                                 clearedMetaData = 1u;
 1884              		.loc 1 2315 0
 1885 0678 CC23     		mov	r3, #204
 1886 067a 9B00     		lsl	r3, r3, #2
 1887 067c FB18     		add	r3, r7, r3
 1888 067e 0122     		mov	r2, #1
 1889 0680 1A70     		strb	r2, [r3]
 1890              	.L100:
 1891              	.LBE10:
2316:.\Generated_Source\PSoC4/Bootloader.c ****                             }
2317:.\Generated_Source\PSoC4/Bootloader.c **** 
2318:.\Generated_Source\PSoC4/Bootloader.c ****                         #endif  /* (0u != Bootloader_FAST_APP_VALIDATION) */
2319:.\Generated_Source\PSoC4/Bootloader.c **** 
2320:.\Generated_Source\PSoC4/Bootloader.c **** 
2321:.\Generated_Source\PSoC4/Bootloader.c ****                         #if(!CY_PSOC4)
2322:.\Generated_Source\PSoC4/Bootloader.c ****                             }   /* (btldrData <= Bootloader_LAST_FLASH_ARRAYID) */
2323:.\Generated_Source\PSoC4/Bootloader.c ****                         #endif  /* (!CY_PSOC4) */
2324:.\Generated_Source\PSoC4/Bootloader.c **** 
2325:.\Generated_Source\PSoC4/Bootloader.c **** 
2326:.\Generated_Source\PSoC4/Bootloader.c ****                         #if(CY_PSOC4)
2327:.\Generated_Source\PSoC4/Bootloader.c ****                             ackCode = (CYRET_SUCCESS != CySysFlashWriteRow((uint32) row, dataBuffer
 1892              		.loc 1 2327 0
 1893 0682 1D4B     		ldr	r3, .L125+36
 1894 0684 FB18     		add	r3, r7, r3
 1895 0686 1A88     		ldrh	r2, [r3]
 1896 0688 A823     		mov	r3, #168
 1897 068a FB18     		add	r3, r7, r3
 1898 068c 101C     		mov	r0, r2
 1899 068e 191C     		mov	r1, r3
 1900 0690 FFF7FEFF 		bl	CySysFlashWriteRow
 1901 0694 031E     		sub	r3, r0, #0
 1902 0696 01D0     		beq	.L101
 1903              		.loc 1 2327 0 is_stmt 0 discriminator 1
 1904 0698 0A22     		mov	r2, #10
 1905 069a 00E0     		b	.L102
 1906              	.L101:
 1907              		.loc 1 2327 0 discriminator 2
 1908 069c 0022     		mov	r2, #0
 1909              	.L102:
 1910              		.loc 1 2327 0 discriminator 4
 1911 069e 0D4B     		ldr	r3, .L125
 1912 06a0 FB18     		add	r3, r7, r3
 1913 06a2 1A70     		strb	r2, [r3]
 1914              	.LBE9:
 1915 06a4 03E0     		b	.L103
 1916              	.L94:
2328:.\Generated_Source\PSoC4/Bootloader.c ****                                 ? Bootloader_ERR_ROW \
2329:.\Generated_Source\PSoC4/Bootloader.c ****                                 : CYRET_SUCCESS;
2330:.\Generated_Source\PSoC4/Bootloader.c ****                         #else
2331:.\Generated_Source\PSoC4/Bootloader.c ****                             ackCode = (CYRET_SUCCESS != CyWriteRowFull(btldrData, dataOffset, dataB
2332:.\Generated_Source\PSoC4/Bootloader.c ****                                 ? Bootloader_ERR_ROW \
2333:.\Generated_Source\PSoC4/Bootloader.c ****                                 : CYRET_SUCCESS;
2334:.\Generated_Source\PSoC4/Bootloader.c ****                         #endif  /* (CY_PSOC4) */
2335:.\Generated_Source\PSoC4/Bootloader.c **** 
2336:.\Generated_Source\PSoC4/Bootloader.c **** 
2337:.\Generated_Source\PSoC4/Bootloader.c ****                         #if(CY_PSOC5)
ARM GAS  C:\Users\LUKASC~1\AppData\Local\Temp\ccn8LSRc.s 			page 76


2338:.\Generated_Source\PSoC4/Bootloader.c ****                             /**********************************************************************
2339:.\Generated_Source\PSoC4/Bootloader.c ****                             * When writing to flash, data in the instruction cache can become stale
2340:.\Generated_Source\PSoC4/Bootloader.c ****                             * Therefore, the cache data does not correlate to the data just written
2341:.\Generated_Source\PSoC4/Bootloader.c ****                             * flash. A call to CyFlushCache() is required to invalidate the data in
2342:.\Generated_Source\PSoC4/Bootloader.c ****                             * cache and force fresh information to be loaded from flash.
2343:.\Generated_Source\PSoC4/Bootloader.c ****                             ***********************************************************************
2344:.\Generated_Source\PSoC4/Bootloader.c ****                             CyFlushCache();
2345:.\Generated_Source\PSoC4/Bootloader.c ****                         #endif /* (CY_PSOC5) */
2346:.\Generated_Source\PSoC4/Bootloader.c **** 
2347:.\Generated_Source\PSoC4/Bootloader.c ****                     }
2348:.\Generated_Source\PSoC4/Bootloader.c ****                     else
2349:.\Generated_Source\PSoC4/Bootloader.c ****                     {
2350:.\Generated_Source\PSoC4/Bootloader.c ****                         ackCode = Bootloader_ERR_LENGTH;
 1917              		.loc 1 2350 0 is_stmt 1
 1918 06a6 0B4B     		ldr	r3, .L125
 1919 06a8 FB18     		add	r3, r7, r3
 1920 06aa 0322     		mov	r2, #3
 1921 06ac 1A70     		strb	r2, [r3]
 1922              	.L103:
2351:.\Generated_Source\PSoC4/Bootloader.c ****                     }
2352:.\Generated_Source\PSoC4/Bootloader.c **** 
2353:.\Generated_Source\PSoC4/Bootloader.c ****                     dataOffset = 0u;
 1923              		.loc 1 2353 0
 1924 06ae CB23     		mov	r3, #203
 1925 06b0 9B00     		lsl	r3, r3, #2
 1926 06b2 FB18     		add	r3, r7, r3
 1927 06b4 0022     		mov	r2, #0
 1928 06b6 1A80     		strh	r2, [r3]
 1929              	.LBE8:
2354:.\Generated_Source\PSoC4/Bootloader.c ****                 }
2355:.\Generated_Source\PSoC4/Bootloader.c ****                 break;
 1930              		.loc 1 2355 0
 1931 06b8 DDE1     		b	.L68
 1932              	.L93:
 1933 06ba DCE1     		b	.L68
 1934              	.L74:
2356:.\Generated_Source\PSoC4/Bootloader.c **** 
2357:.\Generated_Source\PSoC4/Bootloader.c **** 
2358:.\Generated_Source\PSoC4/Bootloader.c ****             /***************************************************************************
2359:.\Generated_Source\PSoC4/Bootloader.c ****             *   Sync bootloader (0x35)
2360:.\Generated_Source\PSoC4/Bootloader.c ****             ***************************************************************************/
2361:.\Generated_Source\PSoC4/Bootloader.c ****             #if(0u != Bootloader_CMD_SYNC_BOOTLOADER_AVAIL)
2362:.\Generated_Source\PSoC4/Bootloader.c **** 
2363:.\Generated_Source\PSoC4/Bootloader.c ****             case Bootloader_COMMAND_SYNC:
2364:.\Generated_Source\PSoC4/Bootloader.c **** 
2365:.\Generated_Source\PSoC4/Bootloader.c ****                 if(Bootloader_COMMUNICATION_STATE_ACTIVE == communicationState)
 1935              		.loc 1 2365 0
 1936 06bc 064B     		ldr	r3, .L125+4
 1937 06be FB18     		add	r3, r7, r3
 1938 06c0 1B78     		ldrb	r3, [r3]
 1939 06c2 012B     		cmp	r3, #1
 1940 06c4 05D1     		bne	.L104
2366:.\Generated_Source\PSoC4/Bootloader.c ****                 {
2367:.\Generated_Source\PSoC4/Bootloader.c ****                     /* If something failed, Host would send this command to reset Bootloader. */
2368:.\Generated_Source\PSoC4/Bootloader.c ****                     dataOffset = 0u;
 1941              		.loc 1 2368 0
 1942 06c6 CB23     		mov	r3, #203
ARM GAS  C:\Users\LUKASC~1\AppData\Local\Temp\ccn8LSRc.s 			page 77


 1943 06c8 9B00     		lsl	r3, r3, #2
 1944 06ca FB18     		add	r3, r7, r3
 1945 06cc 0022     		mov	r2, #0
 1946 06ce 1A80     		strh	r2, [r3]
2369:.\Generated_Source\PSoC4/Bootloader.c **** 
2370:.\Generated_Source\PSoC4/Bootloader.c ****                     /* Don't acknowledge the packet, just get ready to accept the next one */
2371:.\Generated_Source\PSoC4/Bootloader.c ****                     continue;
 1947              		.loc 1 2371 0
 1948 06d0 DFE1     		b	.L61
 1949              	.L104:
2372:.\Generated_Source\PSoC4/Bootloader.c ****                 }
2373:.\Generated_Source\PSoC4/Bootloader.c ****                 break;
 1950              		.loc 1 2373 0
 1951 06d2 D0E1     		b	.L68
 1952              	.L126:
 1953              		.align	2
 1954              	.L125:
 1955 06d4 35030000 		.word	821
 1956 06d8 2F030000 		.word	815
 1957 06dc 32030000 		.word	818
 1958 06e0 1D030000 		.word	797
 1959 06e4 00000000 		.word	Bootloader_SizeBytesAccess
 1960 06e8 13030000 		.word	787
 1961 06ec 2A030000 		.word	810
 1962 06f0 9CFEFFFF 		.word	-356
 1963 06f4 36030000 		.word	822
 1964 06f8 0E030000 		.word	782
 1965 06fc 0D030000 		.word	781
 1966              	.L75:
2374:.\Generated_Source\PSoC4/Bootloader.c **** 
2375:.\Generated_Source\PSoC4/Bootloader.c ****             #endif  /* (0u != Bootloader_CMD_SYNC_BOOTLOADER_AVAIL) */
2376:.\Generated_Source\PSoC4/Bootloader.c **** 
2377:.\Generated_Source\PSoC4/Bootloader.c **** 
2378:.\Generated_Source\PSoC4/Bootloader.c ****             /***************************************************************************
2379:.\Generated_Source\PSoC4/Bootloader.c ****             *   Set an active application (0x36)
2380:.\Generated_Source\PSoC4/Bootloader.c ****             ***************************************************************************/
2381:.\Generated_Source\PSoC4/Bootloader.c ****             #if ((0u != Bootloader_DUAL_APP_BOOTLOADER) || \
2382:.\Generated_Source\PSoC4/Bootloader.c ****                  (CYDEV_PROJ_TYPE == CYDEV_PROJ_TYPE_LOADABLEANDBOOTLOADER))    
2383:.\Generated_Source\PSoC4/Bootloader.c **** 
2384:.\Generated_Source\PSoC4/Bootloader.c ****                 case Bootloader_COMMAND_APP_ACTIVE:
2385:.\Generated_Source\PSoC4/Bootloader.c **** 
2386:.\Generated_Source\PSoC4/Bootloader.c ****                     if((Bootloader_COMMUNICATION_STATE_ACTIVE == communicationState) && (pktSize ==
2387:.\Generated_Source\PSoC4/Bootloader.c ****                     {
2388:.\Generated_Source\PSoC4/Bootloader.c ****                         if(CYRET_SUCCESS == Bootloader_ValidateBootloadable(btldrData))
2389:.\Generated_Source\PSoC4/Bootloader.c ****                         {
2390:.\Generated_Source\PSoC4/Bootloader.c ****                             Bootloader_SetActiveAppInMetadata(btldrData);
2391:.\Generated_Source\PSoC4/Bootloader.c ****                             Bootloader_activeApp = btldrData;
2392:.\Generated_Source\PSoC4/Bootloader.c ****                             ackCode = CYRET_SUCCESS;
2393:.\Generated_Source\PSoC4/Bootloader.c ****                         }
2394:.\Generated_Source\PSoC4/Bootloader.c ****                         else
2395:.\Generated_Source\PSoC4/Bootloader.c ****                         {
2396:.\Generated_Source\PSoC4/Bootloader.c ****                             ackCode = Bootloader_ERR_APP;
2397:.\Generated_Source\PSoC4/Bootloader.c ****                         }
2398:.\Generated_Source\PSoC4/Bootloader.c ****                     }
2399:.\Generated_Source\PSoC4/Bootloader.c ****                     break;
2400:.\Generated_Source\PSoC4/Bootloader.c **** 
2401:.\Generated_Source\PSoC4/Bootloader.c ****             #endif  /* (0u != Bootloader_DUAL_APP_BOOTLOADER) || 
ARM GAS  C:\Users\LUKASC~1\AppData\Local\Temp\ccn8LSRc.s 			page 78


2402:.\Generated_Source\PSoC4/Bootloader.c ****                        (CYDEV_PROJ_TYPE == CYDEV_PROJ_TYPE_LOADABLEANDBOOTLOADER) */
2403:.\Generated_Source\PSoC4/Bootloader.c **** 
2404:.\Generated_Source\PSoC4/Bootloader.c **** 
2405:.\Generated_Source\PSoC4/Bootloader.c ****             /***************************************************************************
2406:.\Generated_Source\PSoC4/Bootloader.c ****             *   Send data (0x37)
2407:.\Generated_Source\PSoC4/Bootloader.c ****             ***************************************************************************/
2408:.\Generated_Source\PSoC4/Bootloader.c ****             #if (0u != Bootloader_CMD_SEND_DATA_AVAIL)
2409:.\Generated_Source\PSoC4/Bootloader.c **** 
2410:.\Generated_Source\PSoC4/Bootloader.c ****                 case Bootloader_COMMAND_DATA:
2411:.\Generated_Source\PSoC4/Bootloader.c **** 
2412:.\Generated_Source\PSoC4/Bootloader.c ****                     if(Bootloader_COMMUNICATION_STATE_ACTIVE == communicationState)
 1967              		.loc 1 2412 0
 1968 0700 CD4B     		ldr	r3, .L127
 1969 0702 FB18     		add	r3, r7, r3
 1970 0704 1B78     		ldrb	r3, [r3]
 1971 0706 012B     		cmp	r3, #1
 1972 0708 34D1     		bne	.L105
2413:.\Generated_Source\PSoC4/Bootloader.c ****                     {
2414:.\Generated_Source\PSoC4/Bootloader.c ****                         /*  Make sure that dataOffset is valid before copying data */
2415:.\Generated_Source\PSoC4/Bootloader.c ****                         if((dataOffset + pktSize) <= Bootloader_SIZEOF_COMMAND_BUFFER)
 1973              		.loc 1 2415 0
 1974 070a CB23     		mov	r3, #203
 1975 070c 9B00     		lsl	r3, r3, #2
 1976 070e FB18     		add	r3, r7, r3
 1977 0710 1A88     		ldrh	r2, [r3]
 1978 0712 CA4B     		ldr	r3, .L127+4
 1979 0714 FB18     		add	r3, r7, r3
 1980 0716 1B88     		ldrh	r3, [r3]
 1981 0718 D318     		add	r3, r2, r3
 1982 071a 1A1C     		mov	r2, r3
 1983 071c 9623     		mov	r3, #150
 1984 071e 5B00     		lsl	r3, r3, #1
 1985 0720 9A42     		cmp	r2, r3
 1986 0722 22D8     		bhi	.L106
2416:.\Generated_Source\PSoC4/Bootloader.c ****                         {
2417:.\Generated_Source\PSoC4/Bootloader.c ****                             ackCode = CYRET_SUCCESS;
 1987              		.loc 1 2417 0
 1988 0724 C64B     		ldr	r3, .L127+8
 1989 0726 FB18     		add	r3, r7, r3
 1990 0728 0022     		mov	r2, #0
 1991 072a 1A70     		strb	r2, [r3]
2418:.\Generated_Source\PSoC4/Bootloader.c **** 
2419:.\Generated_Source\PSoC4/Bootloader.c ****                             #if(CY_PSOC3)
2420:.\Generated_Source\PSoC4/Bootloader.c ****                                 (void) memcpy(&dataBuffer[dataOffset],
2421:.\Generated_Source\PSoC4/Bootloader.c ****                                               &packetBuffer[Bootloader_DATA_ADDR],
2422:.\Generated_Source\PSoC4/Bootloader.c ****                                               ( int16 )pktSize);
2423:.\Generated_Source\PSoC4/Bootloader.c ****                             #else
2424:.\Generated_Source\PSoC4/Bootloader.c ****                                 (void) memcpy(&dataBuffer[dataOffset],
 1992              		.loc 1 2424 0
 1993 072c CB23     		mov	r3, #203
 1994 072e 9B00     		lsl	r3, r3, #2
 1995 0730 FB18     		add	r3, r7, r3
 1996 0732 1B88     		ldrh	r3, [r3]
 1997 0734 A822     		mov	r2, #168
 1998 0736 BA18     		add	r2, r7, r2
 1999 0738 D118     		add	r1, r2, r3
 2000 073a C04B     		ldr	r3, .L127+4
ARM GAS  C:\Users\LUKASC~1\AppData\Local\Temp\ccn8LSRc.s 			page 79


 2001 073c FB18     		add	r3, r7, r3
 2002 073e 1A88     		ldrh	r2, [r3]
 2003 0740 EA23     		mov	r3, #234
 2004 0742 5B00     		lsl	r3, r3, #1
 2005 0744 FB18     		add	r3, r7, r3
 2006 0746 0433     		add	r3, r3, #4
 2007 0748 081C     		mov	r0, r1
 2008 074a 191C     		mov	r1, r3
 2009 074c FFF7FEFF 		bl	memcpy
2425:.\Generated_Source\PSoC4/Bootloader.c ****                                               &packetBuffer[Bootloader_DATA_ADDR],
2426:.\Generated_Source\PSoC4/Bootloader.c ****                                               (uint32) pktSize);
2427:.\Generated_Source\PSoC4/Bootloader.c ****                             #endif  /* (CY_PSOC3) */
2428:.\Generated_Source\PSoC4/Bootloader.c **** 
2429:.\Generated_Source\PSoC4/Bootloader.c ****                             dataOffset += pktSize;
 2010              		.loc 1 2429 0
 2011 0750 CB23     		mov	r3, #203
 2012 0752 9B00     		lsl	r3, r3, #2
 2013 0754 FB18     		add	r3, r7, r3
 2014 0756 CB22     		mov	r2, #203
 2015 0758 9200     		lsl	r2, r2, #2
 2016 075a B918     		add	r1, r7, r2
 2017 075c B74A     		ldr	r2, .L127+4
 2018 075e BA18     		add	r2, r7, r2
 2019 0760 0988     		ldrh	r1, [r1]
 2020 0762 1288     		ldrh	r2, [r2]
 2021 0764 8A18     		add	r2, r1, r2
 2022 0766 1A80     		strh	r2, [r3]
 2023 0768 04E0     		b	.L105
 2024              	.L106:
2430:.\Generated_Source\PSoC4/Bootloader.c ****                         }
2431:.\Generated_Source\PSoC4/Bootloader.c ****                         else
2432:.\Generated_Source\PSoC4/Bootloader.c ****                         {
2433:.\Generated_Source\PSoC4/Bootloader.c ****                             ackCode = Bootloader_ERR_LENGTH;
 2025              		.loc 1 2433 0
 2026 076a B54B     		ldr	r3, .L127+8
 2027 076c FB18     		add	r3, r7, r3
 2028 076e 0322     		mov	r2, #3
 2029 0770 1A70     		strb	r2, [r3]
2434:.\Generated_Source\PSoC4/Bootloader.c ****                         }
2435:.\Generated_Source\PSoC4/Bootloader.c ****                     }
2436:.\Generated_Source\PSoC4/Bootloader.c **** 
2437:.\Generated_Source\PSoC4/Bootloader.c ****                     break;
 2030              		.loc 1 2437 0
 2031 0772 80E1     		b	.L68
 2032              	.L105:
 2033 0774 7FE1     		b	.L68
 2034              	.L76:
2438:.\Generated_Source\PSoC4/Bootloader.c **** 
2439:.\Generated_Source\PSoC4/Bootloader.c ****             #endif  /* (0u != Bootloader_CMD_SEND_DATA_AVAIL) */
2440:.\Generated_Source\PSoC4/Bootloader.c **** 
2441:.\Generated_Source\PSoC4/Bootloader.c **** 
2442:.\Generated_Source\PSoC4/Bootloader.c ****             /***************************************************************************
2443:.\Generated_Source\PSoC4/Bootloader.c ****             *   Enter bootloader (0x38)
2444:.\Generated_Source\PSoC4/Bootloader.c ****             ***************************************************************************/
2445:.\Generated_Source\PSoC4/Bootloader.c ****             case Bootloader_COMMAND_ENTER:
2446:.\Generated_Source\PSoC4/Bootloader.c **** 
2447:.\Generated_Source\PSoC4/Bootloader.c ****         #if (Bootloader_SECURITY_KEY_AVAIL == 1u)    
ARM GAS  C:\Users\LUKASC~1\AppData\Local\Temp\ccn8LSRc.s 			page 80


2448:.\Generated_Source\PSoC4/Bootloader.c ****             if(pktSize == 6u) /*Security key*/
2449:.\Generated_Source\PSoC4/Bootloader.c ****         #else    
2450:.\Generated_Source\PSoC4/Bootloader.c ****             if(pktSize == 0u) /*Security key is not demanded*/
 2035              		.loc 1 2450 0
 2036 0776 B14B     		ldr	r3, .L127+4
 2037 0778 FB18     		add	r3, r7, r3
 2038 077a 1B88     		ldrh	r3, [r3]
 2039 077c 002B     		cmp	r3, #0
 2040 077e 27D1     		bne	.L107
 2041              	.LBB11:
2451:.\Generated_Source\PSoC4/Bootloader.c ****         #endif /*(Bootloader_SECURITY_KEY_AVAIL == 1u)*/   
2452:.\Generated_Source\PSoC4/Bootloader.c ****                 {
2453:.\Generated_Source\PSoC4/Bootloader.c ****                     #if(CY_PSOC3)
2454:.\Generated_Source\PSoC4/Bootloader.c **** 
2455:.\Generated_Source\PSoC4/Bootloader.c ****                         Bootloader_ENTER CYDATA BtldrVersion =
2456:.\Generated_Source\PSoC4/Bootloader.c ****                             {CYSWAP_ENDIAN32(CYDEV_CHIP_JTAG_ID), CYDEV_CHIP_REV_EXPECT, Bootloader
2457:.\Generated_Source\PSoC4/Bootloader.c **** 
2458:.\Generated_Source\PSoC4/Bootloader.c ****                     #else
2459:.\Generated_Source\PSoC4/Bootloader.c **** 
2460:.\Generated_Source\PSoC4/Bootloader.c ****                         Bootloader_ENTER CYDATA BtldrVersion =
 2042              		.loc 1 2460 0
 2043 0780 B04B     		ldr	r3, .L127+12
 2044 0782 CE22     		mov	r2, #206
 2045 0784 9200     		lsl	r2, r2, #2
 2046 0786 9446     		mov	ip, r2
 2047 0788 BC44     		add	ip, ip, r7
 2048 078a 6344     		add	r3, r3, ip
 2049 078c AE4A     		ldr	r2, .L127+16
 2050 078e 03CA     		ldmia	r2!, {r0, r1}
 2051 0790 03C3     		stmia	r3!, {r0, r1}
2461:.\Generated_Source\PSoC4/Bootloader.c ****                             {CYDEV_CHIP_JTAG_ID, CYDEV_CHIP_REV_EXPECT, Bootloader_VERSION};
2462:.\Generated_Source\PSoC4/Bootloader.c ****             #endif  /* (CY_PSOC3) */
2463:.\Generated_Source\PSoC4/Bootloader.c **** 
2464:.\Generated_Source\PSoC4/Bootloader.c ****             #if (Bootloader_SECURITY_KEY_AVAIL == 1u)
2465:.\Generated_Source\PSoC4/Bootloader.c ****                 
2466:.\Generated_Source\PSoC4/Bootloader.c ****                 /*Security key checking*/
2467:.\Generated_Source\PSoC4/Bootloader.c ****                 uint8 idx = Bootloader_SECURITY_KEY_LENGTH;
2468:.\Generated_Source\PSoC4/Bootloader.c ****                 ackCode = CYRET_SUCCESS;
2469:.\Generated_Source\PSoC4/Bootloader.c ****                 
2470:.\Generated_Source\PSoC4/Bootloader.c ****                 do
2471:.\Generated_Source\PSoC4/Bootloader.c ****                 {
2472:.\Generated_Source\PSoC4/Bootloader.c ****                     idx--;                     
2473:.\Generated_Source\PSoC4/Bootloader.c ****                     if (Bootloader_securityKey[idx] != packetBuffer[Bootloader_DATA_ADDR + idx])
2474:.\Generated_Source\PSoC4/Bootloader.c ****                     {
2475:.\Generated_Source\PSoC4/Bootloader.c ****                         ackCode = Bootloader_ERR_DATA;
2476:.\Generated_Source\PSoC4/Bootloader.c ****                         break;
2477:.\Generated_Source\PSoC4/Bootloader.c ****                     }
2478:.\Generated_Source\PSoC4/Bootloader.c ****                     
2479:.\Generated_Source\PSoC4/Bootloader.c ****                 } while(0u != idx);
2480:.\Generated_Source\PSoC4/Bootloader.c ****                 
2481:.\Generated_Source\PSoC4/Bootloader.c ****                 if (Bootloader_ERR_DATA == ackCode)
2482:.\Generated_Source\PSoC4/Bootloader.c ****                 {
2483:.\Generated_Source\PSoC4/Bootloader.c ****                     break;
2484:.\Generated_Source\PSoC4/Bootloader.c ****                 }
2485:.\Generated_Source\PSoC4/Bootloader.c ****             #endif /*(Bootloader_SECURITY_KEY_AVAIL == 1u)*/
2486:.\Generated_Source\PSoC4/Bootloader.c ****                 
2487:.\Generated_Source\PSoC4/Bootloader.c ****                 #if (CYDEV_PROJ_TYPE == CYDEV_PROJ_TYPE_LOADABLEANDBOOTLOADER) 
ARM GAS  C:\Users\LUKASC~1\AppData\Local\Temp\ccn8LSRc.s 			page 81


2488:.\Generated_Source\PSoC4/Bootloader.c ****                     Bootloader_isBootloading = Bootloader_BOOTLOADING_IN_PROGRESS;
2489:.\Generated_Source\PSoC4/Bootloader.c ****                 #endif /*(CYDEV_PROJ_TYPE == CYDEV_PROJ_TYPE_LOADABLEANDBOOTLOADER)*/    
2490:.\Generated_Source\PSoC4/Bootloader.c ****                 
2491:.\Generated_Source\PSoC4/Bootloader.c ****                     communicationState = Bootloader_COMMUNICATION_STATE_ACTIVE;
 2052              		.loc 1 2491 0
 2053 0792 A94B     		ldr	r3, .L127
 2054 0794 FB18     		add	r3, r7, r3
 2055 0796 0122     		mov	r2, #1
 2056 0798 1A70     		strb	r2, [r3]
2492:.\Generated_Source\PSoC4/Bootloader.c **** 
2493:.\Generated_Source\PSoC4/Bootloader.c ****                     rspSize = sizeof(Bootloader_ENTER);
 2057              		.loc 1 2493 0
 2058 079a AC4B     		ldr	r3, .L127+20
 2059 079c FB18     		add	r3, r7, r3
 2060 079e 0822     		mov	r2, #8
 2061 07a0 1A80     		strh	r2, [r3]
2494:.\Generated_Source\PSoC4/Bootloader.c ****                     dataOffset = 0u; 
 2062              		.loc 1 2494 0
 2063 07a2 CB23     		mov	r3, #203
 2064 07a4 9B00     		lsl	r3, r3, #2
 2065 07a6 FB18     		add	r3, r7, r3
 2066 07a8 0022     		mov	r2, #0
 2067 07aa 1A80     		strh	r2, [r3]
2495:.\Generated_Source\PSoC4/Bootloader.c ****                     
2496:.\Generated_Source\PSoC4/Bootloader.c ****                     #if(CY_PSOC3)
2497:.\Generated_Source\PSoC4/Bootloader.c ****                         (void) memcpy(&packetBuffer[Bootloader_DATA_ADDR],
2498:.\Generated_Source\PSoC4/Bootloader.c ****                                       &BtldrVersion,
2499:.\Generated_Source\PSoC4/Bootloader.c ****                                       ( int16 )rspSize);
2500:.\Generated_Source\PSoC4/Bootloader.c ****                     #else
2501:.\Generated_Source\PSoC4/Bootloader.c ****                         (void) memcpy(&packetBuffer[Bootloader_DATA_ADDR],
 2068              		.loc 1 2501 0
 2069 07ac A74B     		ldr	r3, .L127+20
 2070 07ae FB18     		add	r3, r7, r3
 2071 07b0 1A88     		ldrh	r2, [r3]
 2072 07b2 EA23     		mov	r3, #234
 2073 07b4 5B00     		lsl	r3, r3, #1
 2074 07b6 FB18     		add	r3, r7, r3
 2075 07b8 191D     		add	r1, r3, #4
 2076 07ba A023     		mov	r3, #160
 2077 07bc FB18     		add	r3, r7, r3
 2078 07be 081C     		mov	r0, r1
 2079 07c0 191C     		mov	r1, r3
 2080 07c2 FFF7FEFF 		bl	memcpy
2502:.\Generated_Source\PSoC4/Bootloader.c ****                                       &BtldrVersion,
2503:.\Generated_Source\PSoC4/Bootloader.c ****                                       (uint32) rspSize);
2504:.\Generated_Source\PSoC4/Bootloader.c ****                     #endif  /* (CY_PSOC3) */
2505:.\Generated_Source\PSoC4/Bootloader.c **** 
2506:.\Generated_Source\PSoC4/Bootloader.c ****                     ackCode = CYRET_SUCCESS;
 2081              		.loc 1 2506 0
 2082 07c6 9E4B     		ldr	r3, .L127+8
 2083 07c8 FB18     		add	r3, r7, r3
 2084 07ca 0022     		mov	r2, #0
 2085 07cc 1A70     		strb	r2, [r3]
 2086              	.LBE11:
2507:.\Generated_Source\PSoC4/Bootloader.c ****                 }
2508:.\Generated_Source\PSoC4/Bootloader.c ****                 else /* Packet length does not match*/
2509:.\Generated_Source\PSoC4/Bootloader.c ****                 {
ARM GAS  C:\Users\LUKASC~1\AppData\Local\Temp\ccn8LSRc.s 			page 82


2510:.\Generated_Source\PSoC4/Bootloader.c ****                     ackCode = Bootloader_ERR_DATA;
2511:.\Generated_Source\PSoC4/Bootloader.c ****                 }
2512:.\Generated_Source\PSoC4/Bootloader.c ****                 break;
 2087              		.loc 1 2512 0
 2088 07ce 52E1     		b	.L68
 2089              	.L107:
2510:.\Generated_Source\PSoC4/Bootloader.c ****                 }
 2090              		.loc 1 2510 0
 2091 07d0 9B4B     		ldr	r3, .L127+8
 2092 07d2 FB18     		add	r3, r7, r3
 2093 07d4 0422     		mov	r2, #4
 2094 07d6 1A70     		strb	r2, [r3]
 2095              		.loc 1 2512 0
 2096 07d8 4DE1     		b	.L68
 2097              	.L77:
2513:.\Generated_Source\PSoC4/Bootloader.c **** 
2514:.\Generated_Source\PSoC4/Bootloader.c **** 
2515:.\Generated_Source\PSoC4/Bootloader.c ****             /***************************************************************************
2516:.\Generated_Source\PSoC4/Bootloader.c ****             *   Get row checksum (0x3A)
2517:.\Generated_Source\PSoC4/Bootloader.c ****             ***************************************************************************/
2518:.\Generated_Source\PSoC4/Bootloader.c ****             #if (0u != Bootloader_CMD_GET_ROW_CHKSUM_AVAIL)
2519:.\Generated_Source\PSoC4/Bootloader.c **** 
2520:.\Generated_Source\PSoC4/Bootloader.c ****             case Bootloader_COMMAND_GET_ROW_CHKSUM:
2521:.\Generated_Source\PSoC4/Bootloader.c **** 
2522:.\Generated_Source\PSoC4/Bootloader.c ****                 if((Bootloader_COMMUNICATION_STATE_ACTIVE == communicationState) && (pktSize == 3u)
 2098              		.loc 1 2522 0
 2099 07da 974B     		ldr	r3, .L127
 2100 07dc FB18     		add	r3, r7, r3
 2101 07de 1B78     		ldrb	r3, [r3]
 2102 07e0 012B     		cmp	r3, #1
 2103 07e2 00D0     		beq	.LCB1846
 2104 07e4 8CE0     		b	.L109	@long jump
 2105              	.LCB1846:
 2106              		.loc 1 2522 0 is_stmt 0 discriminator 1
 2107 07e6 954B     		ldr	r3, .L127+4
 2108 07e8 FB18     		add	r3, r7, r3
 2109 07ea 1B88     		ldrh	r3, [r3]
 2110 07ec 032B     		cmp	r3, #3
 2111 07ee 00D0     		beq	.LCB1851
 2112 07f0 86E0     		b	.L109	@long jump
 2113              	.LCB1851:
 2114              	.LBB12:
2523:.\Generated_Source\PSoC4/Bootloader.c ****                 {
2524:.\Generated_Source\PSoC4/Bootloader.c ****                     /* Get flash/EEPROM row number */
2525:.\Generated_Source\PSoC4/Bootloader.c ****                     uint16 CYDATA rowNum = ((uint16)((uint16)packetBuffer[Bootloader_DATA_ADDR + 2u
 2115              		.loc 1 2525 0 is_stmt 1
 2116 07f2 974B     		ldr	r3, .L127+24
 2117 07f4 CE22     		mov	r2, #206
 2118 07f6 9200     		lsl	r2, r2, #2
 2119 07f8 9446     		mov	ip, r2
 2120 07fa BC44     		add	ip, ip, r7
 2121 07fc 6344     		add	r3, r3, ip
 2122 07fe 9B79     		ldrb	r3, [r3, #6]
 2123 0800 9BB2     		uxth	r3, r3
 2124 0802 1B02     		lsl	r3, r3, #8
 2125 0804 99B2     		uxth	r1, r3
2526:.\Generated_Source\PSoC4/Bootloader.c ****                                                     packetBuffer[Bootloader_DATA_ADDR + 1u];
ARM GAS  C:\Users\LUKASC~1\AppData\Local\Temp\ccn8LSRc.s 			page 83


 2126              		.loc 1 2526 0
 2127 0806 924B     		ldr	r3, .L127+24
 2128 0808 CE22     		mov	r2, #206
 2129 080a 9200     		lsl	r2, r2, #2
 2130 080c 9446     		mov	ip, r2
 2131 080e BC44     		add	ip, ip, r7
 2132 0810 6344     		add	r3, r3, ip
 2133 0812 5B79     		ldrb	r3, [r3, #5]
2525:.\Generated_Source\PSoC4/Bootloader.c ****                                                     packetBuffer[Bootloader_DATA_ADDR + 1u];
 2134              		.loc 1 2525 0
 2135 0814 9AB2     		uxth	r2, r3
 2136 0816 8F4B     		ldr	r3, .L127+28
 2137 0818 FB18     		add	r3, r7, r3
 2138 081a 0A43     		orr	r2, r1
 2139 081c 1A80     		strh	r2, [r3]
2527:.\Generated_Source\PSoC4/Bootloader.c ****                     
2528:.\Generated_Source\PSoC4/Bootloader.c ****                     uint16 CYDATA tmpRowNum; 
2529:.\Generated_Source\PSoC4/Bootloader.c ****                     #if(!CY_PSOC4)
2530:.\Generated_Source\PSoC4/Bootloader.c **** 
2531:.\Generated_Source\PSoC4/Bootloader.c ****                         uint32 CYDATA rowAddr;
2532:.\Generated_Source\PSoC4/Bootloader.c ****                         uint8 CYDATA checksum;
2533:.\Generated_Source\PSoC4/Bootloader.c **** 
2534:.\Generated_Source\PSoC4/Bootloader.c ****                         if((btldrData >= Bootloader_FIRST_EE_ARRAYID) &&
2535:.\Generated_Source\PSoC4/Bootloader.c ****                            (btldrData <= Bootloader_LAST_EE_ARRAYID))
2536:.\Generated_Source\PSoC4/Bootloader.c ****                         {
2537:.\Generated_Source\PSoC4/Bootloader.c ****                             /* EEPROM */
2538:.\Generated_Source\PSoC4/Bootloader.c ****                             /* Both PSoC 3 and PSoC 5LP architecture have one EEPROM array. */
2539:.\Generated_Source\PSoC4/Bootloader.c ****                             rowAddr = (uint32)rowNum * CYDEV_EEPROM_ROW_SIZE;
2540:.\Generated_Source\PSoC4/Bootloader.c ****                             
2541:.\Generated_Source\PSoC4/Bootloader.c ****                             /* Checking if row number is within array address range */
2542:.\Generated_Source\PSoC4/Bootloader.c ****                             ackCode = Bootloader_CHECK_ROW_NUMBER(rowNum, 
2543:.\Generated_Source\PSoC4/Bootloader.c ****                                 (Bootloader_NUMBER_OF_EEPROM_SECTORS * Bootloader_NUMBER_OF_ROWS_IN
2544:.\Generated_Source\PSoC4/Bootloader.c ****                     
2545:.\Generated_Source\PSoC4/Bootloader.c ****                             if (CYRET_SUCCESS != ackCode)
2546:.\Generated_Source\PSoC4/Bootloader.c ****                             {
2547:.\Generated_Source\PSoC4/Bootloader.c ****                                 break;
2548:.\Generated_Source\PSoC4/Bootloader.c ****                             }
2549:.\Generated_Source\PSoC4/Bootloader.c **** 
2550:.\Generated_Source\PSoC4/Bootloader.c ****                             checksum = Bootloader_Calc8BitSum(CY_EEPROM_BASE, rowAddr, CYDEV_EEPROM
2551:.\Generated_Source\PSoC4/Bootloader.c ****                         }
2552:.\Generated_Source\PSoC4/Bootloader.c ****                         else
2553:.\Generated_Source\PSoC4/Bootloader.c ****                         {
2554:.\Generated_Source\PSoC4/Bootloader.c ****                             /* flash */ 
2555:.\Generated_Source\PSoC4/Bootloader.c ****                             rowAddr = ((uint32)btldrData * CYDEV_FLS_SECTOR_SIZE)
2556:.\Generated_Source\PSoC4/Bootloader.c ****                                        + ((uint32)rowNum * CYDEV_FLS_ROW_SIZE);
2557:.\Generated_Source\PSoC4/Bootloader.c **** 
2558:.\Generated_Source\PSoC4/Bootloader.c ****                             /* Checking if row number is within array address range */
2559:.\Generated_Source\PSoC4/Bootloader.c ****                             ackCode = Bootloader_CHECK_ROW_NUMBER(rowNum, 
2560:.\Generated_Source\PSoC4/Bootloader.c ****                                                        Bootloader_NUMBER_OF_ROWS_IN_ARRAY);
2561:.\Generated_Source\PSoC4/Bootloader.c ****                     
2562:.\Generated_Source\PSoC4/Bootloader.c ****                             if (CYRET_SUCCESS != ackCode)
2563:.\Generated_Source\PSoC4/Bootloader.c ****                             {
2564:.\Generated_Source\PSoC4/Bootloader.c ****                                 break;
2565:.\Generated_Source\PSoC4/Bootloader.c ****                             }                            
2566:.\Generated_Source\PSoC4/Bootloader.c **** 
2567:.\Generated_Source\PSoC4/Bootloader.c ****                             checksum = Bootloader_Calc8BitSum(CY_FLASH_BASE, rowAddr, CYDEV_FLS_ROW
2568:.\Generated_Source\PSoC4/Bootloader.c ****                         }
ARM GAS  C:\Users\LUKASC~1\AppData\Local\Temp\ccn8LSRc.s 			page 84


2569:.\Generated_Source\PSoC4/Bootloader.c **** 
2570:.\Generated_Source\PSoC4/Bootloader.c ****                     #else
2571:.\Generated_Source\PSoC4/Bootloader.c **** 
2572:.\Generated_Source\PSoC4/Bootloader.c ****                         uint32 CYDATA rowAddr = ((uint32)btldrData * CYDEV_FLS_SECTOR_SIZE)
 2140              		.loc 1 2572 0
 2141 081e 8E4B     		ldr	r3, .L127+32
 2142 0820 FB18     		add	r3, r7, r3
 2143 0822 1B78     		ldrb	r3, [r3]
2573:.\Generated_Source\PSoC4/Bootloader.c ****                                             + ((uint32)rowNum * CYDEV_FLS_ROW_SIZE);
 2144              		.loc 1 2573 0
 2145 0824 1A02     		lsl	r2, r3, #8
 2146 0826 8B4B     		ldr	r3, .L127+28
 2147 0828 FB18     		add	r3, r7, r3
 2148 082a 1B88     		ldrh	r3, [r3]
 2149 082c D318     		add	r3, r2, r3
2572:.\Generated_Source\PSoC4/Bootloader.c ****                                             + ((uint32)rowNum * CYDEV_FLS_ROW_SIZE);
 2150              		.loc 1 2572 0
 2151 082e DB01     		lsl	r3, r3, #7
 2152 0830 C122     		mov	r2, #193
 2153 0832 9200     		lsl	r2, r2, #2
 2154 0834 BA18     		add	r2, r7, r2
 2155 0836 1360     		str	r3, [r2]
2574:.\Generated_Source\PSoC4/Bootloader.c ****                         
2575:.\Generated_Source\PSoC4/Bootloader.c ****                         uint8 CYDATA checksum;
2576:.\Generated_Source\PSoC4/Bootloader.c ****                          
2577:.\Generated_Source\PSoC4/Bootloader.c ****                         /* Checking if row number is within array address range */
2578:.\Generated_Source\PSoC4/Bootloader.c ****                         ackCode = Bootloader_CHECK_ROW_NUMBER(rowNum, 
 2156              		.loc 1 2578 0
 2157 0838 864B     		ldr	r3, .L127+28
 2158 083a FB18     		add	r3, r7, r3
 2159 083c 1B88     		ldrh	r3, [r3]
 2160 083e FF2B     		cmp	r3, #255
 2161 0840 01D8     		bhi	.L110
 2162              		.loc 1 2578 0 is_stmt 0 discriminator 1
 2163 0842 0022     		mov	r2, #0
 2164 0844 00E0     		b	.L111
 2165              	.L110:
 2166              		.loc 1 2578 0 discriminator 2
 2167 0846 0A22     		mov	r2, #10
 2168              	.L111:
 2169              		.loc 1 2578 0 discriminator 4
 2170 0848 7D4B     		ldr	r3, .L127+8
 2171 084a FB18     		add	r3, r7, r3
 2172 084c 1A70     		strb	r2, [r3]
2579:.\Generated_Source\PSoC4/Bootloader.c ****                                                        Bootloader_NUMBER_OF_ROWS_IN_ARRAY);
2580:.\Generated_Source\PSoC4/Bootloader.c ****                     
2581:.\Generated_Source\PSoC4/Bootloader.c ****                         if (CYRET_SUCCESS != ackCode)
 2173              		.loc 1 2581 0 is_stmt 1 discriminator 4
 2174 084e 7C4B     		ldr	r3, .L127+8
 2175 0850 FB18     		add	r3, r7, r3
 2176 0852 1B78     		ldrb	r3, [r3]
 2177 0854 002B     		cmp	r3, #0
 2178 0856 00D0     		beq	.L112
2582:.\Generated_Source\PSoC4/Bootloader.c ****                         {
2583:.\Generated_Source\PSoC4/Bootloader.c ****                             break;
 2179              		.loc 1 2583 0
 2180 0858 0DE1     		b	.L68
ARM GAS  C:\Users\LUKASC~1\AppData\Local\Temp\ccn8LSRc.s 			page 85


 2181              	.L112:
2584:.\Generated_Source\PSoC4/Bootloader.c ****                         }                     
2585:.\Generated_Source\PSoC4/Bootloader.c **** 
2586:.\Generated_Source\PSoC4/Bootloader.c ****                         checksum = Bootloader_Calc8BitSum(CY_FLASH_BASE, rowAddr, CYDEV_FLS_ROW_SIZ
 2182              		.loc 1 2586 0
 2183 085a 804B     		ldr	r3, .L127+36
 2184 085c FC18     		add	r4, r7, r3
 2185 085e C123     		mov	r3, #193
 2186 0860 9B00     		lsl	r3, r3, #2
 2187 0862 FB18     		add	r3, r7, r3
 2188 0864 1B68     		ldr	r3, [r3]
 2189 0866 0020     		mov	r0, #0
 2190 0868 191C     		mov	r1, r3
 2191 086a 8022     		mov	r2, #128
 2192 086c FFF7FEFF 		bl	Bootloader_Calc8BitSum
 2193 0870 031C     		mov	r3, r0
 2194 0872 2370     		strb	r3, [r4]
2587:.\Generated_Source\PSoC4/Bootloader.c **** 
2588:.\Generated_Source\PSoC4/Bootloader.c ****                     #endif  /* (!CY_PSOC4) */
2589:.\Generated_Source\PSoC4/Bootloader.c **** 
2590:.\Generated_Source\PSoC4/Bootloader.c **** 
2591:.\Generated_Source\PSoC4/Bootloader.c ****                     /* Calculate checksum on data from ECC */
2592:.\Generated_Source\PSoC4/Bootloader.c ****                     #if(!CY_PSOC4) && (CYDEV_ECC_ENABLE == 0u)
2593:.\Generated_Source\PSoC4/Bootloader.c **** 
2594:.\Generated_Source\PSoC4/Bootloader.c ****                         if(btldrData <= Bootloader_LAST_FLASH_ARRAYID)
2595:.\Generated_Source\PSoC4/Bootloader.c ****                         {
2596:.\Generated_Source\PSoC4/Bootloader.c ****                             uint16 CYDATA tmpIndex;
2597:.\Generated_Source\PSoC4/Bootloader.c **** 
2598:.\Generated_Source\PSoC4/Bootloader.c ****                             rowAddr = CYDEV_ECC_BASE + ((uint32)btldrData * (CYDEV_FLS_SECTOR_SIZE 
2599:.\Generated_Source\PSoC4/Bootloader.c ****                                         + ((uint32)rowNum * CYDEV_ECC_ROW_SIZE);
2600:.\Generated_Source\PSoC4/Bootloader.c **** 
2601:.\Generated_Source\PSoC4/Bootloader.c ****                             for(tmpIndex = 0u; tmpIndex < CYDEV_ECC_ROW_SIZE; tmpIndex++)
2602:.\Generated_Source\PSoC4/Bootloader.c ****                             {
2603:.\Generated_Source\PSoC4/Bootloader.c ****                                 checksum += CY_GET_XTND_REG8((uint8 CYFAR *)(rowAddr + tmpIndex));
2604:.\Generated_Source\PSoC4/Bootloader.c ****                             }
2605:.\Generated_Source\PSoC4/Bootloader.c ****                         }
2606:.\Generated_Source\PSoC4/Bootloader.c **** 
2607:.\Generated_Source\PSoC4/Bootloader.c ****                     #endif  /* (!CY_PSOC4) && (CYDEV_ECC_ENABLE == 0u) */
2608:.\Generated_Source\PSoC4/Bootloader.c **** 
2609:.\Generated_Source\PSoC4/Bootloader.c **** 
2610:.\Generated_Source\PSoC4/Bootloader.c ****                     /******************************************************************************
2611:.\Generated_Source\PSoC4/Bootloader.c ****                     * App Verified & App Active are information updated in flash at the runtime.
2612:.\Generated_Source\PSoC4/Bootloader.c ****                     * Remove these items from the checksum to allow the host to verify if everythin
2613:.\Generated_Source\PSoC4/Bootloader.c ****                     * correct.
2614:.\Generated_Source\PSoC4/Bootloader.c ****                      ******************************************************************************
2615:.\Generated_Source\PSoC4/Bootloader.c ****                     #if(!CY_PSOC4)
2616:.\Generated_Source\PSoC4/Bootloader.c ****                         tmpRowNum = rowNum; 
2617:.\Generated_Source\PSoC4/Bootloader.c ****                     #else
2618:.\Generated_Source\PSoC4/Bootloader.c ****                         tmpRowNum = rowNum + ((uint16)(Bootloader_NUMBER_OF_ROWS_IN_ARRAY * btldrDa
 2195              		.loc 1 2618 0
 2196 0874 784B     		ldr	r3, .L127+32
 2197 0876 FB18     		add	r3, r7, r3
 2198 0878 1B78     		ldrb	r3, [r3]
 2199 087a 9BB2     		uxth	r3, r3
 2200 087c 1B02     		lsl	r3, r3, #8
 2201 087e 99B2     		uxth	r1, r3
 2202 0880 774B     		ldr	r3, .L127+40
ARM GAS  C:\Users\LUKASC~1\AppData\Local\Temp\ccn8LSRc.s 			page 86


 2203 0882 FB18     		add	r3, r7, r3
 2204 0884 734A     		ldr	r2, .L127+28
 2205 0886 BA18     		add	r2, r7, r2
 2206 0888 1288     		ldrh	r2, [r2]
 2207 088a 8A18     		add	r2, r1, r2
 2208 088c 1A80     		strh	r2, [r3]
2619:.\Generated_Source\PSoC4/Bootloader.c ****                     #endif
2620:.\Generated_Source\PSoC4/Bootloader.c ****                     
2621:.\Generated_Source\PSoC4/Bootloader.c ****                     if((Bootloader_MD_FLASH_ARRAY_NUM == btldrData) && (Bootloader_CONTAIN_METADATA
 2209              		.loc 1 2621 0
 2210 088e 724B     		ldr	r3, .L127+32
 2211 0890 FB18     		add	r3, r7, r3
 2212 0892 1B78     		ldrb	r3, [r3]
 2213 0894 002B     		cmp	r3, #0
 2214 0896 1ED1     		bne	.L113
 2215              		.loc 1 2621 0 is_stmt 0 discriminator 1
 2216 0898 714B     		ldr	r3, .L127+40
 2217 089a FB18     		add	r3, r7, r3
 2218 089c 1B88     		ldrh	r3, [r3]
 2219 089e FF2B     		cmp	r3, #255
 2220 08a0 19D1     		bne	.L113
2622:.\Generated_Source\PSoC4/Bootloader.c ****                     {
2623:.\Generated_Source\PSoC4/Bootloader.c **** 
2624:.\Generated_Source\PSoC4/Bootloader.c ****                         checksum -= (uint8)Bootloader_GetMetadata(Bootloader_GET_BTLDB_ACTIVE,
 2221              		.loc 1 2624 0 is_stmt 1
 2222 08a2 0520     		mov	r0, #5
 2223 08a4 0021     		mov	r1, #0
 2224 08a6 FFF7FEFF 		bl	Bootloader_GetMetadata
 2225 08aa 031C     		mov	r3, r0
 2226 08ac DAB2     		uxtb	r2, r3
 2227 08ae 6B4B     		ldr	r3, .L127+36
 2228 08b0 FB18     		add	r3, r7, r3
 2229 08b2 6A49     		ldr	r1, .L127+36
 2230 08b4 7918     		add	r1, r7, r1
 2231 08b6 0978     		ldrb	r1, [r1]
 2232 08b8 8A1A     		sub	r2, r1, r2
 2233 08ba 1A70     		strb	r2, [r3]
2625:.\Generated_Source\PSoC4/Bootloader.c ****                                                                  Bootloader_GET_APP_ID(tmpRowNum));
2626:.\Generated_Source\PSoC4/Bootloader.c **** 
2627:.\Generated_Source\PSoC4/Bootloader.c ****                         checksum -= (uint8)Bootloader_GetMetadata(Bootloader_GET_BTLDB_STATUS,
 2234              		.loc 1 2627 0
 2235 08bc 0620     		mov	r0, #6
 2236 08be 0021     		mov	r1, #0
 2237 08c0 FFF7FEFF 		bl	Bootloader_GetMetadata
 2238 08c4 031C     		mov	r3, r0
 2239 08c6 DAB2     		uxtb	r2, r3
 2240 08c8 644B     		ldr	r3, .L127+36
 2241 08ca FB18     		add	r3, r7, r3
 2242 08cc 6349     		ldr	r1, .L127+36
 2243 08ce 7918     		add	r1, r7, r1
 2244 08d0 0978     		ldrb	r1, [r1]
 2245 08d2 8A1A     		sub	r2, r1, r2
 2246 08d4 1A70     		strb	r2, [r3]
 2247              	.L113:
2628:.\Generated_Source\PSoC4/Bootloader.c ****                                                                  Bootloader_GET_APP_ID(tmpRowNum));
2629:.\Generated_Source\PSoC4/Bootloader.c ****                     }
2630:.\Generated_Source\PSoC4/Bootloader.c **** 
ARM GAS  C:\Users\LUKASC~1\AppData\Local\Temp\ccn8LSRc.s 			page 87


2631:.\Generated_Source\PSoC4/Bootloader.c ****                     packetBuffer[Bootloader_DATA_ADDR] = (uint8)1u + (uint8)(~checksum);
 2248              		.loc 1 2631 0
 2249 08d6 614B     		ldr	r3, .L127+36
 2250 08d8 FB18     		add	r3, r7, r3
 2251 08da 1B78     		ldrb	r3, [r3]
 2252 08dc 5B42     		neg	r3, r3
 2253 08de DAB2     		uxtb	r2, r3
 2254 08e0 5B4B     		ldr	r3, .L127+24
 2255 08e2 CE21     		mov	r1, #206
 2256 08e4 8900     		lsl	r1, r1, #2
 2257 08e6 8C46     		mov	ip, r1
 2258 08e8 BC44     		add	ip, ip, r7
 2259 08ea 6344     		add	r3, r3, ip
 2260 08ec 1A71     		strb	r2, [r3, #4]
2632:.\Generated_Source\PSoC4/Bootloader.c ****                     ackCode = CYRET_SUCCESS;
 2261              		.loc 1 2632 0
 2262 08ee 544B     		ldr	r3, .L127+8
 2263 08f0 FB18     		add	r3, r7, r3
 2264 08f2 0022     		mov	r2, #0
 2265 08f4 1A70     		strb	r2, [r3]
2633:.\Generated_Source\PSoC4/Bootloader.c ****                     rspSize = Bootloader_RSP_SIZE_VERIFY_ROW_CHKSM;
 2266              		.loc 1 2633 0
 2267 08f6 554B     		ldr	r3, .L127+20
 2268 08f8 FB18     		add	r3, r7, r3
 2269 08fa 0122     		mov	r2, #1
 2270 08fc 1A80     		strh	r2, [r3]
 2271              	.LBE12:
2634:.\Generated_Source\PSoC4/Bootloader.c ****                 }
2635:.\Generated_Source\PSoC4/Bootloader.c ****                 break;
 2272              		.loc 1 2635 0
 2273 08fe BAE0     		b	.L68
 2274              	.L109:
 2275 0900 B9E0     		b	.L68
 2276              	.L78:
2636:.\Generated_Source\PSoC4/Bootloader.c **** 
2637:.\Generated_Source\PSoC4/Bootloader.c ****             #endif /* (0u != Bootloader_CMD_GET_ROW_CHKSUM_AVAIL) */
2638:.\Generated_Source\PSoC4/Bootloader.c **** 
2639:.\Generated_Source\PSoC4/Bootloader.c **** 
2640:.\Generated_Source\PSoC4/Bootloader.c ****             /***************************************************************************
2641:.\Generated_Source\PSoC4/Bootloader.c ****             *   Exit bootloader (0x3B)
2642:.\Generated_Source\PSoC4/Bootloader.c ****             ***************************************************************************/
2643:.\Generated_Source\PSoC4/Bootloader.c ****             case Bootloader_COMMAND_EXIT:
2644:.\Generated_Source\PSoC4/Bootloader.c **** 
2645:.\Generated_Source\PSoC4/Bootloader.c ****                 /*******************************************************************************
2646:.\Generated_Source\PSoC4/Bootloader.c ****                 * Currently the copy flag is checked in the metadata for the second application. 
2647:.\Generated_Source\PSoC4/Bootloader.c ****                 * If it is set, then the copy operation is required and Launcher (BTLDR) should 
2648:.\Generated_Source\PSoC4/Bootloader.c ****                 * be scheduled.
2649:.\Generated_Source\PSoC4/Bootloader.c ****                 *******************************************************************************/
2650:.\Generated_Source\PSoC4/Bootloader.c ****             #if (CYDEV_PROJ_TYPE == CYDEV_PROJ_TYPE_LOADABLEANDBOOTLOADER)
2651:.\Generated_Source\PSoC4/Bootloader.c ****                 needToCopyFlag = Bootloader_GetMetadata(Bootloader_GET_BTLDB_COPY_FLAG, 
2652:.\Generated_Source\PSoC4/Bootloader.c ****                                                         Bootloader_MD_BTLDB_ACTIVE_1);             
2653:.\Generated_Source\PSoC4/Bootloader.c ****         
2654:.\Generated_Source\PSoC4/Bootloader.c ****                 /* Checking "Need to copy" flag in metadata#1 */
2655:.\Generated_Source\PSoC4/Bootloader.c ****                 if (0u != (needToCopyFlag & Bootloader_NEED_TO_COPY_MASK))
2656:.\Generated_Source\PSoC4/Bootloader.c ****                 {  
2657:.\Generated_Source\PSoC4/Bootloader.c ****                     Bootloader_SET_RUN_TYPE(Bootloader_SCHEDULE_BTLDR);
2658:.\Generated_Source\PSoC4/Bootloader.c ****                 }
ARM GAS  C:\Users\LUKASC~1\AppData\Local\Temp\ccn8LSRc.s 			page 88


2659:.\Generated_Source\PSoC4/Bootloader.c ****                 else
2660:.\Generated_Source\PSoC4/Bootloader.c ****             #endif /* (CYDEV_PROJ_TYPE == CYDEV_PROJ_TYPE_LOADABLEANDBOOTLOADER) */
2661:.\Generated_Source\PSoC4/Bootloader.c ****         
2662:.\Generated_Source\PSoC4/Bootloader.c ****                 if(CYRET_SUCCESS == Bootloader_ValidateBootloadable(Bootloader_activeApp))
 2277              		.loc 1 2662 0
 2278 0902 0020     		mov	r0, #0
 2279 0904 FFF7FEFF 		bl	Bootloader_ValidateBootloadable
 2280 0908 031E     		sub	r3, r0, #0
 2281 090a 02D1     		bne	.L114
2663:.\Generated_Source\PSoC4/Bootloader.c ****                 {
2664:.\Generated_Source\PSoC4/Bootloader.c ****                     Bootloader_SET_RUN_TYPE(Bootloader_SCHEDULE_BTLDB);
 2282              		.loc 1 2664 0
 2283 090c 554B     		ldr	r3, .L127+44
 2284 090e 8022     		mov	r2, #128
 2285 0910 1A60     		str	r2, [r3]
 2286              	.L114:
2665:.\Generated_Source\PSoC4/Bootloader.c ****                 }
2666:.\Generated_Source\PSoC4/Bootloader.c ****                 
2667:.\Generated_Source\PSoC4/Bootloader.c ****             #if (CYDEV_PROJ_TYPE == CYDEV_PROJ_TYPE_LOADABLEANDBOOTLOADER)
2668:.\Generated_Source\PSoC4/Bootloader.c ****                 Bootloader_isBootloading = Bootloader_BOOTLOADING_COMPLETED;
2669:.\Generated_Source\PSoC4/Bootloader.c ****             #endif /* CYDEV_PROJ_TYPE == CYDEV_PROJ_TYPE_LOADABLEANDBOOTLOADER */    
2670:.\Generated_Source\PSoC4/Bootloader.c ****             
2671:.\Generated_Source\PSoC4/Bootloader.c ****                 CyBtldrCommStop();
 2287              		.loc 1 2671 0
 2288 0912 FFF7FEFF 		bl	I2C_Slave_I2CCyBtldrCommStop
2672:.\Generated_Source\PSoC4/Bootloader.c ****                         
2673:.\Generated_Source\PSoC4/Bootloader.c ****                 CySoftwareReset();
 2289              		.loc 1 2673 0
 2290 0916 FFF7FEFF 		bl	CySoftwareReset
2674:.\Generated_Source\PSoC4/Bootloader.c **** 
2675:.\Generated_Source\PSoC4/Bootloader.c ****                 /* Will never get here */
2676:.\Generated_Source\PSoC4/Bootloader.c ****                 break;
 2291              		.loc 1 2676 0
 2292 091a ACE0     		b	.L68
 2293              	.L69:
2677:.\Generated_Source\PSoC4/Bootloader.c **** 
2678:.\Generated_Source\PSoC4/Bootloader.c **** 
2679:.\Generated_Source\PSoC4/Bootloader.c ****             /***************************************************************************
2680:.\Generated_Source\PSoC4/Bootloader.c ****             *   Unsupported command
2681:.\Generated_Source\PSoC4/Bootloader.c ****             ***************************************************************************/
2682:.\Generated_Source\PSoC4/Bootloader.c ****             default:
2683:.\Generated_Source\PSoC4/Bootloader.c ****             
2684:.\Generated_Source\PSoC4/Bootloader.c ****             #if (!CY_PSOC3)
2685:.\Generated_Source\PSoC4/Bootloader.c ****                 if ((NULL != Bootloader_callback) && (Bootloader_COMMUNICATION_STATE_ACTIVE == comm
 2294              		.loc 1 2685 0
 2295 091c 524B     		ldr	r3, .L127+48
 2296 091e 1B68     		ldr	r3, [r3]
 2297 0920 002B     		cmp	r3, #0
 2298 0922 00D1     		bne	.LCB2022
 2299 0924 83E0     		b	.L115	@long jump
 2300              	.LCB2022:
 2301              		.loc 1 2685 0 is_stmt 0 discriminator 1
 2302 0926 444B     		ldr	r3, .L127
 2303 0928 FB18     		add	r3, r7, r3
 2304 092a 1B78     		ldrb	r3, [r3]
 2305 092c 012B     		cmp	r3, #1
 2306 092e 00D0     		beq	.LCB2027
ARM GAS  C:\Users\LUKASC~1\AppData\Local\Temp\ccn8LSRc.s 			page 89


 2307 0930 7DE0     		b	.L115	@long jump
 2308              	.LCB2027:
 2309              	.LBB13:
2686:.\Generated_Source\PSoC4/Bootloader.c ****                 {
2687:.\Generated_Source\PSoC4/Bootloader.c ****                     Bootloader_in_packet_type Bootloader_inPacket; 
2688:.\Generated_Source\PSoC4/Bootloader.c ****                     Bootloader_out_packet_type Bootloader_outPacket;
2689:.\Generated_Source\PSoC4/Bootloader.c **** 
2690:.\Generated_Source\PSoC4/Bootloader.c ****                     /* Initializing input packet */
2691:.\Generated_Source\PSoC4/Bootloader.c ****                     Bootloader_inPacket.command = packetBuffer[Bootloader_CMD_ADDR];
 2310              		.loc 1 2691 0 is_stmt 1
 2311 0932 474B     		ldr	r3, .L127+24
 2312 0934 CE22     		mov	r2, #206
 2313 0936 9200     		lsl	r2, r2, #2
 2314 0938 9446     		mov	ip, r2
 2315 093a BC44     		add	ip, ip, r7
 2316 093c 6344     		add	r3, r3, ip
 2317 093e 5A78     		ldrb	r2, [r3, #1]
 2318 0940 4A4B     		ldr	r3, .L127+52
 2319 0942 CE21     		mov	r1, #206
 2320 0944 8900     		lsl	r1, r1, #2
 2321 0946 8C46     		mov	ip, r1
 2322 0948 BC44     		add	ip, ip, r7
 2323 094a 6344     		add	r3, r3, ip
 2324 094c 1A70     		strb	r2, [r3]
2692:.\Generated_Source\PSoC4/Bootloader.c ****                     Bootloader_inPacket.packetLength = pktSize;
 2325              		.loc 1 2692 0
 2326 094e 474B     		ldr	r3, .L127+52
 2327 0950 CE22     		mov	r2, #206
 2328 0952 9200     		lsl	r2, r2, #2
 2329 0954 9446     		mov	ip, r2
 2330 0956 BC44     		add	ip, ip, r7
 2331 0958 6344     		add	r3, r3, ip
 2332 095a 384A     		ldr	r2, .L127+4
 2333 095c BA18     		add	r2, r7, r2
 2334 095e 1288     		ldrh	r2, [r2]
 2335 0960 5A80     		strh	r2, [r3, #2]
2693:.\Generated_Source\PSoC4/Bootloader.c ****                     Bootloader_inPacket.pInputBuffer = &packetBuffer[Bootloader_DATA_ADDR];
 2336              		.loc 1 2693 0
 2337 0962 424B     		ldr	r3, .L127+52
 2338 0964 CE22     		mov	r2, #206
 2339 0966 9200     		lsl	r2, r2, #2
 2340 0968 9446     		mov	ip, r2
 2341 096a BC44     		add	ip, ip, r7
 2342 096c 6344     		add	r3, r3, ip
 2343 096e EA22     		mov	r2, #234
 2344 0970 5200     		lsl	r2, r2, #1
 2345 0972 BA18     		add	r2, r7, r2
 2346 0974 0432     		add	r2, r2, #4
 2347 0976 5A60     		str	r2, [r3, #4]
2694:.\Generated_Source\PSoC4/Bootloader.c ****                                         
2695:.\Generated_Source\PSoC4/Bootloader.c ****                     /* Clearing and setting output packet */
2696:.\Generated_Source\PSoC4/Bootloader.c ****                     (void) memset(&Bootloader_outPacket, 0, sizeof(Bootloader_outPacket));
 2348              		.loc 1 2696 0
 2349 0978 8C23     		mov	r3, #140
 2350 097a FB18     		add	r3, r7, r3
 2351 097c 181C     		mov	r0, r3
 2352 097e 0021     		mov	r1, #0
ARM GAS  C:\Users\LUKASC~1\AppData\Local\Temp\ccn8LSRc.s 			page 90


 2353 0980 0C22     		mov	r2, #12
 2354 0982 FFF7FEFF 		bl	memset
2697:.\Generated_Source\PSoC4/Bootloader.c ****                     Bootloader_outPacket.pOutputBuffer = &packetBuffer[Bootloader_DATA_ADDR];
 2355              		.loc 1 2697 0
 2356 0986 3A4B     		ldr	r3, .L127+56
 2357 0988 CE22     		mov	r2, #206
 2358 098a 9200     		lsl	r2, r2, #2
 2359 098c 9446     		mov	ip, r2
 2360 098e BC44     		add	ip, ip, r7
 2361 0990 6344     		add	r3, r3, ip
 2362 0992 EA22     		mov	r2, #234
 2363 0994 5200     		lsl	r2, r2, #1
 2364 0996 BA18     		add	r2, r7, r2
 2365 0998 0432     		add	r2, r2, #4
 2366 099a 9A60     		str	r2, [r3, #8]
2698:.\Generated_Source\PSoC4/Bootloader.c ****                     
2699:.\Generated_Source\PSoC4/Bootloader.c ****                     /* Callback */
2700:.\Generated_Source\PSoC4/Bootloader.c ****                     (void) Bootloader_callback(&Bootloader_inPacket, &Bootloader_outPacket);
 2367              		.loc 1 2700 0
 2368 099c 324B     		ldr	r3, .L127+48
 2369 099e 1B68     		ldr	r3, [r3]
 2370 09a0 9822     		mov	r2, #152
 2371 09a2 B918     		add	r1, r7, r2
 2372 09a4 8C22     		mov	r2, #140
 2373 09a6 BA18     		add	r2, r7, r2
 2374 09a8 081C     		mov	r0, r1
 2375 09aa 111C     		mov	r1, r2
 2376 09ac 9847     		blx	r3
2701:.\Generated_Source\PSoC4/Bootloader.c **** 
2702:.\Generated_Source\PSoC4/Bootloader.c ****                     rspSize = Bootloader_outPacket.packetLength;
 2377              		.loc 1 2702 0
 2378 09ae 274B     		ldr	r3, .L127+20
 2379 09b0 FB18     		add	r3, r7, r3
 2380 09b2 2F4A     		ldr	r2, .L127+56
 2381 09b4 CE21     		mov	r1, #206
 2382 09b6 8900     		lsl	r1, r1, #2
 2383 09b8 8C46     		mov	ip, r1
 2384 09ba BC44     		add	ip, ip, r7
 2385 09bc 6244     		add	r2, r2, ip
 2386 09be 9288     		ldrh	r2, [r2, #4]
 2387 09c0 1A80     		strh	r2, [r3]
2703:.\Generated_Source\PSoC4/Bootloader.c ****                     if (((rspSize > (Bootloader_SIZEOF_COMMAND_BUFFER - Bootloader_MIN_PKT_SIZE)) &
 2388              		.loc 1 2703 0
 2389 09c2 224B     		ldr	r3, .L127+20
 2390 09c4 FB18     		add	r3, r7, r3
 2391 09c6 1A88     		ldrh	r2, [r3]
 2392 09c8 2623     		mov	r3, #38
 2393 09ca FF33     		add	r3, r3, #255
 2394 09cc 9A42     		cmp	r2, r3
 2395 09ce 0CD9     		bls	.L116
2704:.\Generated_Source\PSoC4/Bootloader.c ****                          (Bootloader_outPacket.pOutputBuffer == &packetBuffer[Bootloader_DATA_ADDR]
 2396              		.loc 1 2704 0 discriminator 1
 2397 09d0 274B     		ldr	r3, .L127+56
 2398 09d2 CE22     		mov	r2, #206
 2399 09d4 9200     		lsl	r2, r2, #2
 2400 09d6 9446     		mov	ip, r2
 2401 09d8 BC44     		add	ip, ip, r7
ARM GAS  C:\Users\LUKASC~1\AppData\Local\Temp\ccn8LSRc.s 			page 91


 2402 09da 6344     		add	r3, r3, ip
 2403 09dc 9A68     		ldr	r2, [r3, #8]
2703:.\Generated_Source\PSoC4/Bootloader.c ****                     if (((rspSize > (Bootloader_SIZEOF_COMMAND_BUFFER - Bootloader_MIN_PKT_SIZE)) &
 2404              		.loc 1 2703 0 discriminator 1
 2405 09de EA23     		mov	r3, #234
 2406 09e0 5B00     		lsl	r3, r3, #1
 2407 09e2 FB18     		add	r3, r7, r3
 2408 09e4 0433     		add	r3, r3, #4
 2409 09e6 9A42     		cmp	r2, r3
 2410 09e8 0DD0     		beq	.L117
 2411              	.L116:
2705:.\Generated_Source\PSoC4/Bootloader.c ****                         ((NULL == Bootloader_outPacket.pOutputBuffer) && (0u != rspSize)))
 2412              		.loc 1 2705 0
 2413 09ea 214B     		ldr	r3, .L127+56
 2414 09ec CE22     		mov	r2, #206
 2415 09ee 9200     		lsl	r2, r2, #2
 2416 09f0 9446     		mov	ip, r2
 2417 09f2 BC44     		add	ip, ip, r7
 2418 09f4 6344     		add	r3, r3, ip
 2419 09f6 9B68     		ldr	r3, [r3, #8]
2704:.\Generated_Source\PSoC4/Bootloader.c ****                          (Bootloader_outPacket.pOutputBuffer == &packetBuffer[Bootloader_DATA_ADDR]
 2420              		.loc 1 2704 0
 2421 09f8 002B     		cmp	r3, #0
 2422 09fa 0DD1     		bne	.L118
 2423              		.loc 1 2705 0
 2424 09fc 134B     		ldr	r3, .L127+20
 2425 09fe FB18     		add	r3, r7, r3
 2426 0a00 1B88     		ldrh	r3, [r3]
 2427 0a02 002B     		cmp	r3, #0
 2428 0a04 08D0     		beq	.L118
 2429              	.L117:
2706:.\Generated_Source\PSoC4/Bootloader.c ****                     {                    
2707:.\Generated_Source\PSoC4/Bootloader.c ****                         /* One of returned parameters is wrong */
2708:.\Generated_Source\PSoC4/Bootloader.c ****                         ackCode = Bootloader_ERR_CALLBACK;
 2430              		.loc 1 2708 0
 2431 0a06 0E4B     		ldr	r3, .L127+8
 2432 0a08 FB18     		add	r3, r7, r3
 2433 0a0a 0E22     		mov	r2, #14
 2434 0a0c 1A70     		strb	r2, [r3]
2709:.\Generated_Source\PSoC4/Bootloader.c ****                         rspSize = 0u;
 2435              		.loc 1 2709 0
 2436 0a0e 0F4B     		ldr	r3, .L127+20
 2437 0a10 FB18     		add	r3, r7, r3
 2438 0a12 0022     		mov	r2, #0
 2439 0a14 1A80     		strh	r2, [r3]
 2440              	.LBE13:
2686:.\Generated_Source\PSoC4/Bootloader.c ****                     Bootloader_in_packet_type Bootloader_inPacket; 
 2441              		.loc 1 2686 0
 2442 0a16 2DE0     		b	.L120
 2443              	.L118:
 2444              	.LBB14:
2710:.\Generated_Source\PSoC4/Bootloader.c ****                     }
2711:.\Generated_Source\PSoC4/Bootloader.c ****                     else /* Everything is OK */
2712:.\Generated_Source\PSoC4/Bootloader.c ****                     {
2713:.\Generated_Source\PSoC4/Bootloader.c ****                         ackCode = (uint8)Bootloader_outPacket.status;
 2445              		.loc 1 2713 0
 2446 0a18 154B     		ldr	r3, .L127+56
ARM GAS  C:\Users\LUKASC~1\AppData\Local\Temp\ccn8LSRc.s 			page 92


 2447 0a1a CE22     		mov	r2, #206
 2448 0a1c 9200     		lsl	r2, r2, #2
 2449 0a1e 9446     		mov	ip, r2
 2450 0a20 BC44     		add	ip, ip, r7
 2451 0a22 6344     		add	r3, r3, ip
 2452 0a24 1A68     		ldr	r2, [r3]
 2453 0a26 064B     		ldr	r3, .L127+8
 2454 0a28 FB18     		add	r3, r7, r3
 2455 0a2a 1A70     		strb	r2, [r3]
 2456              	.LBE14:
2686:.\Generated_Source\PSoC4/Bootloader.c ****                     Bootloader_in_packet_type Bootloader_inPacket; 
 2457              		.loc 1 2686 0
 2458 0a2c 22E0     		b	.L120
 2459              	.L115:
2714:.\Generated_Source\PSoC4/Bootloader.c ****                     }
2715:.\Generated_Source\PSoC4/Bootloader.c ****                 }    
2716:.\Generated_Source\PSoC4/Bootloader.c ****                 else /* No callback function defined, so return "Error Command" status */
2717:.\Generated_Source\PSoC4/Bootloader.c ****             #endif /* (!CY_PSOC3) */
2718:.\Generated_Source\PSoC4/Bootloader.c ****                 {
2719:.\Generated_Source\PSoC4/Bootloader.c ****                     ackCode = Bootloader_ERR_CMD;
 2460              		.loc 1 2719 0
 2461 0a2e 044B     		ldr	r3, .L127+8
 2462 0a30 FB18     		add	r3, r7, r3
 2463 0a32 0522     		mov	r2, #5
 2464 0a34 1A70     		strb	r2, [r3]
2720:.\Generated_Source\PSoC4/Bootloader.c ****                 }    
2721:.\Generated_Source\PSoC4/Bootloader.c ****                 break;
 2465              		.loc 1 2721 0
 2466 0a36 1DE0     		b	.L122
 2467              	.L128:
 2468              		.align	2
 2469              	.L127:
 2470 0a38 2F030000 		.word	815
 2471 0a3c 32030000 		.word	818
 2472 0a40 35030000 		.word	821
 2473 0a44 68FDFFFF 		.word	-664
 2474 0a48 00000000 		.word	.LC0
 2475 0a4c 36030000 		.word	822
 2476 0a50 9CFEFFFF 		.word	-356
 2477 0a54 0A030000 		.word	778
 2478 0a58 1D030000 		.word	797
 2479 0a5c 27030000 		.word	807
 2480 0a60 02030000 		.word	770
 2481 0a64 00000000 		.word	cyBtldrRunType
 2482 0a68 00000000 		.word	Bootloader_callback
 2483 0a6c 60FDFFFF 		.word	-672
 2484 0a70 54FDFFFF 		.word	-684
 2485              	.L120:
 2486              	.L122:
 2487 0a74 C046     		mov	r8, r8
 2488              	.L68:
 2489              	.LBE5:
2722:.\Generated_Source\PSoC4/Bootloader.c ****             }
2723:.\Generated_Source\PSoC4/Bootloader.c ****         }
2724:.\Generated_Source\PSoC4/Bootloader.c **** 
2725:.\Generated_Source\PSoC4/Bootloader.c ****         /* Reply with acknowledge or not acknowledge packet */
2726:.\Generated_Source\PSoC4/Bootloader.c ****         (void) Bootloader_WritePacket(ackCode, packetBuffer, rspSize);
ARM GAS  C:\Users\LUKASC~1\AppData\Local\Temp\ccn8LSRc.s 			page 93


 2490              		.loc 1 2726 0
 2491 0a76 124B     		ldr	r3, .L129
 2492 0a78 FB18     		add	r3, r7, r3
 2493 0a7a 1978     		ldrb	r1, [r3]
 2494 0a7c EA23     		mov	r3, #234
 2495 0a7e 5B00     		lsl	r3, r3, #1
 2496 0a80 FA18     		add	r2, r7, r3
 2497 0a82 104B     		ldr	r3, .L129+4
 2498 0a84 FB18     		add	r3, r7, r3
 2499 0a86 1B88     		ldrh	r3, [r3]
 2500 0a88 081C     		mov	r0, r1
 2501 0a8a 111C     		mov	r1, r2
 2502 0a8c 1A1C     		mov	r2, r3
 2503 0a8e FFF7FEFF 		bl	Bootloader_WritePacket
 2504              	.L61:
2727:.\Generated_Source\PSoC4/Bootloader.c ****    
2728:.\Generated_Source\PSoC4/Bootloader.c ****     } while ((0u == timeOut) || (Bootloader_COMMUNICATION_STATE_ACTIVE == communicationState));
 2505              		.loc 1 2728 0
 2506 0a92 0D4B     		ldr	r3, .L129+8
 2507 0a94 CE22     		mov	r2, #206
 2508 0a96 9200     		lsl	r2, r2, #2
 2509 0a98 9446     		mov	ip, r2
 2510 0a9a BC44     		add	ip, ip, r7
 2511 0a9c 6344     		add	r3, r3, ip
 2512 0a9e 1B78     		ldrb	r3, [r3]
 2513 0aa0 002B     		cmp	r3, #0
 2514 0aa2 01D1     		bne	.LCB2222
 2515 0aa4 FFF7D1FA 		bl	.L121	@far jump
 2516              	.LCB2222:
 2517              		.loc 1 2728 0 is_stmt 0 discriminator 1
 2518 0aa8 084B     		ldr	r3, .L129+12
 2519 0aaa FB18     		add	r3, r7, r3
 2520 0aac 1B78     		ldrb	r3, [r3]
 2521 0aae 012B     		cmp	r3, #1
 2522 0ab0 01D1     		bne	.LCB2227
 2523 0ab2 FFF7CAFA 		bl	.L121	@far jump
 2524              	.LCB2227:
2729:.\Generated_Source\PSoC4/Bootloader.c **** }
 2525              		.loc 1 2729 0 is_stmt 1
 2526 0ab6 BD46     		mov	sp, r7
 2527 0ab8 CF23     		mov	r3, #207
 2528 0aba 9B00     		lsl	r3, r3, #2
 2529 0abc 9D44     		add	sp, sp, r3
 2530              		@ sp needed
 2531 0abe 90BD     		pop	{r4, r7, pc}
 2532              	.L130:
 2533              		.align	2
 2534              	.L129:
 2535 0ac0 35030000 		.word	821
 2536 0ac4 36030000 		.word	822
 2537 0ac8 CFFCFFFF 		.word	-817
 2538 0acc 2F030000 		.word	815
 2539              		.cfi_endproc
 2540              	.LFE44:
 2541              		.size	Bootloader_HostLink, .-Bootloader_HostLink
 2542              		.section	.text.Bootloader_WritePacket,"ax",%progbits
 2543              		.align	2
ARM GAS  C:\Users\LUKASC~1\AppData\Local\Temp\ccn8LSRc.s 			page 94


 2544              		.code	16
 2545              		.thumb_func
 2546              		.type	Bootloader_WritePacket, %function
 2547              	Bootloader_WritePacket:
 2548              	.LFB45:
2730:.\Generated_Source\PSoC4/Bootloader.c **** 
2731:.\Generated_Source\PSoC4/Bootloader.c **** 
2732:.\Generated_Source\PSoC4/Bootloader.c **** /*******************************************************************************
2733:.\Generated_Source\PSoC4/Bootloader.c **** * Function Name: Bootloader_WritePacket
2734:.\Generated_Source\PSoC4/Bootloader.c **** ****************************************************************************//**
2735:.\Generated_Source\PSoC4/Bootloader.c **** * \internal
2736:.\Generated_Source\PSoC4/Bootloader.c **** *
2737:.\Generated_Source\PSoC4/Bootloader.c **** * \brief
2738:.\Generated_Source\PSoC4/Bootloader.c **** *  Creates a bootloader response packet and transmits it back to the bootloader
2739:.\Generated_Source\PSoC4/Bootloader.c **** *  host application over the already established communications protocol.
2740:.\Generated_Source\PSoC4/Bootloader.c **** *
2741:.\Generated_Source\PSoC4/Bootloader.c **** *  \param status
2742:.\Generated_Source\PSoC4/Bootloader.c **** *      The status code to pass back as the second byte of the packet.
2743:.\Generated_Source\PSoC4/Bootloader.c **** *  \param buffer
2744:.\Generated_Source\PSoC4/Bootloader.c **** *      The buffer containing the data portion of the packet.
2745:.\Generated_Source\PSoC4/Bootloader.c **** *  \param size
2746:.\Generated_Source\PSoC4/Bootloader.c **** *      The number of bytes contained within the buffer to pass back.
2747:.\Generated_Source\PSoC4/Bootloader.c **** *
2748:.\Generated_Source\PSoC4/Bootloader.c **** * \return
2749:.\Generated_Source\PSoC4/Bootloader.c **** *   CYRET_SUCCESS if successful. Any other non-zero value if a failure occurred.
2750:.\Generated_Source\PSoC4/Bootloader.c **** *
2751:.\Generated_Source\PSoC4/Bootloader.c **** * \endinternal
2752:.\Generated_Source\PSoC4/Bootloader.c **** *******************************************************************************/
2753:.\Generated_Source\PSoC4/Bootloader.c **** static cystatus Bootloader_WritePacket(uint8 status, uint8 buffer[], uint16 size) CYSMALL \
2754:.\Generated_Source\PSoC4/Bootloader.c ****                                             
2755:.\Generated_Source\PSoC4/Bootloader.c **** {
 2549              		.loc 1 2755 0
 2550              		.cfi_startproc
 2551 0000 90B5     		push	{r4, r7, lr}
 2552              		.cfi_def_cfa_offset 12
 2553              		.cfi_offset 4, -12
 2554              		.cfi_offset 7, -8
 2555              		.cfi_offset 14, -4
 2556 0002 85B0     		sub	sp, sp, #20
 2557              		.cfi_def_cfa_offset 32
 2558 0004 00AF     		add	r7, sp, #0
 2559              		.cfi_def_cfa_register 7
 2560 0006 3960     		str	r1, [r7]
 2561 0008 111C     		mov	r1, r2
 2562 000a FB1D     		add	r3, r7, #7
 2563 000c 021C     		add	r2, r0, #0
 2564 000e 1A70     		strb	r2, [r3]
 2565 0010 3B1D     		add	r3, r7, #4
 2566 0012 0A1C     		add	r2, r1, #0
 2567 0014 1A80     		strh	r2, [r3]
2756:.\Generated_Source\PSoC4/Bootloader.c ****     uint16 CYDATA checksum;
2757:.\Generated_Source\PSoC4/Bootloader.c **** 
2758:.\Generated_Source\PSoC4/Bootloader.c ****     /* Start of packet. */
2759:.\Generated_Source\PSoC4/Bootloader.c ****     buffer[Bootloader_SOP_ADDR]      = Bootloader_SOP;
 2568              		.loc 1 2759 0
 2569 0016 3B68     		ldr	r3, [r7]
 2570 0018 0122     		mov	r2, #1
ARM GAS  C:\Users\LUKASC~1\AppData\Local\Temp\ccn8LSRc.s 			page 95


 2571 001a 1A70     		strb	r2, [r3]
2760:.\Generated_Source\PSoC4/Bootloader.c ****     buffer[Bootloader_CMD_ADDR]      = status;
 2572              		.loc 1 2760 0
 2573 001c 3B68     		ldr	r3, [r7]
 2574 001e 0133     		add	r3, r3, #1
 2575 0020 FA1D     		add	r2, r7, #7
 2576 0022 1278     		ldrb	r2, [r2]
 2577 0024 1A70     		strb	r2, [r3]
2761:.\Generated_Source\PSoC4/Bootloader.c ****     buffer[Bootloader_SIZE_ADDR]     = LO8(size);
 2578              		.loc 1 2761 0
 2579 0026 3B68     		ldr	r3, [r7]
 2580 0028 0233     		add	r3, r3, #2
 2581 002a 3A1D     		add	r2, r7, #4
 2582 002c 1288     		ldrh	r2, [r2]
 2583 002e D2B2     		uxtb	r2, r2
 2584 0030 1A70     		strb	r2, [r3]
2762:.\Generated_Source\PSoC4/Bootloader.c ****     buffer[Bootloader_SIZE_ADDR + 1u] = HI8(size);
 2585              		.loc 1 2762 0
 2586 0032 3B68     		ldr	r3, [r7]
 2587 0034 0333     		add	r3, r3, #3
 2588 0036 3A1D     		add	r2, r7, #4
 2589 0038 1288     		ldrh	r2, [r2]
 2590 003a 120A     		lsr	r2, r2, #8
 2591 003c 92B2     		uxth	r2, r2
 2592 003e D2B2     		uxtb	r2, r2
 2593 0040 1A70     		strb	r2, [r3]
2763:.\Generated_Source\PSoC4/Bootloader.c **** 
2764:.\Generated_Source\PSoC4/Bootloader.c ****     /* Compute checksum. */
2765:.\Generated_Source\PSoC4/Bootloader.c ****     checksum = Bootloader_CalcPacketChecksum(buffer, size + Bootloader_DATA_ADDR);
 2594              		.loc 1 2765 0
 2595 0042 3B1D     		add	r3, r7, #4
 2596 0044 1B88     		ldrh	r3, [r3]
 2597 0046 0433     		add	r3, r3, #4
 2598 0048 9BB2     		uxth	r3, r3
 2599 004a 0E22     		mov	r2, #14
 2600 004c BC18     		add	r4, r7, r2
 2601 004e 3A68     		ldr	r2, [r7]
 2602 0050 101C     		mov	r0, r2
 2603 0052 191C     		mov	r1, r3
 2604 0054 FFF7FEFF 		bl	Bootloader_CalcPacketChecksum
 2605 0058 031C     		mov	r3, r0
 2606 005a 2380     		strh	r3, [r4]
2766:.\Generated_Source\PSoC4/Bootloader.c **** 
2767:.\Generated_Source\PSoC4/Bootloader.c ****     buffer[Bootloader_CHK_ADDR(size)]     = LO8(checksum);
 2607              		.loc 1 2767 0
 2608 005c 3B1D     		add	r3, r7, #4
 2609 005e 1B88     		ldrh	r3, [r3]
 2610 0060 0433     		add	r3, r3, #4
 2611 0062 3A68     		ldr	r2, [r7]
 2612 0064 D318     		add	r3, r2, r3
 2613 0066 0E22     		mov	r2, #14
 2614 0068 BA18     		add	r2, r7, r2
 2615 006a 1288     		ldrh	r2, [r2]
 2616 006c D2B2     		uxtb	r2, r2
 2617 006e 1A70     		strb	r2, [r3]
2768:.\Generated_Source\PSoC4/Bootloader.c ****     buffer[Bootloader_CHK_ADDR(1u + size)] = HI8(checksum);
 2618              		.loc 1 2768 0
ARM GAS  C:\Users\LUKASC~1\AppData\Local\Temp\ccn8LSRc.s 			page 96


 2619 0070 3B1D     		add	r3, r7, #4
 2620 0072 1B88     		ldrh	r3, [r3]
 2621 0074 0533     		add	r3, r3, #5
 2622 0076 3A68     		ldr	r2, [r7]
 2623 0078 D318     		add	r3, r2, r3
 2624 007a 0E22     		mov	r2, #14
 2625 007c BA18     		add	r2, r7, r2
 2626 007e 1288     		ldrh	r2, [r2]
 2627 0080 120A     		lsr	r2, r2, #8
 2628 0082 92B2     		uxth	r2, r2
 2629 0084 D2B2     		uxtb	r2, r2
 2630 0086 1A70     		strb	r2, [r3]
2769:.\Generated_Source\PSoC4/Bootloader.c ****     buffer[Bootloader_EOP_ADDR(size)]     = Bootloader_EOP;
 2631              		.loc 1 2769 0
 2632 0088 3B1D     		add	r3, r7, #4
 2633 008a 1B88     		ldrh	r3, [r3]
 2634 008c 0633     		add	r3, r3, #6
 2635 008e 3A68     		ldr	r2, [r7]
 2636 0090 D318     		add	r3, r2, r3
 2637 0092 1722     		mov	r2, #23
 2638 0094 1A70     		strb	r2, [r3]
2770:.\Generated_Source\PSoC4/Bootloader.c **** 
2771:.\Generated_Source\PSoC4/Bootloader.c ****     /* Start packet transmit. */
2772:.\Generated_Source\PSoC4/Bootloader.c ****     return(CyBtldrCommWrite(buffer, size + Bootloader_MIN_PKT_SIZE, &size, 150u));
 2639              		.loc 1 2772 0
 2640 0096 3B1D     		add	r3, r7, #4
 2641 0098 1B88     		ldrh	r3, [r3]
 2642 009a 0733     		add	r3, r3, #7
 2643 009c 9AB2     		uxth	r2, r3
 2644 009e 3968     		ldr	r1, [r7]
 2645 00a0 3B1D     		add	r3, r7, #4
 2646 00a2 081C     		mov	r0, r1
 2647 00a4 111C     		mov	r1, r2
 2648 00a6 1A1C     		mov	r2, r3
 2649 00a8 9623     		mov	r3, #150
 2650 00aa FFF7FEFF 		bl	I2C_Slave_I2CCyBtldrCommWrite
 2651 00ae 031C     		mov	r3, r0
2773:.\Generated_Source\PSoC4/Bootloader.c **** }
 2652              		.loc 1 2773 0
 2653 00b0 181C     		mov	r0, r3
 2654 00b2 BD46     		mov	sp, r7
 2655 00b4 05B0     		add	sp, sp, #20
 2656              		@ sp needed
 2657 00b6 90BD     		pop	{r4, r7, pc}
 2658              		.cfi_endproc
 2659              	.LFE45:
 2660              		.size	Bootloader_WritePacket, .-Bootloader_WritePacket
 2661              		.section	.text.Bootloader_SetFlashByte,"ax",%progbits
 2662              		.align	2
 2663              		.global	Bootloader_SetFlashByte
 2664              		.code	16
 2665              		.thumb_func
 2666              		.type	Bootloader_SetFlashByte, %function
 2667              	Bootloader_SetFlashByte:
 2668              	.LFB46:
2774:.\Generated_Source\PSoC4/Bootloader.c **** #endif /*(CYDEV_PROJ_TYPE != CYDEV_PROJ_TYPE_LAUNCHER)*/
2775:.\Generated_Source\PSoC4/Bootloader.c **** 
ARM GAS  C:\Users\LUKASC~1\AppData\Local\Temp\ccn8LSRc.s 			page 97


2776:.\Generated_Source\PSoC4/Bootloader.c **** /*******************************************************************************
2777:.\Generated_Source\PSoC4/Bootloader.c **** * Function Name: Bootloader_SetFlashByte
2778:.\Generated_Source\PSoC4/Bootloader.c **** ****************************************************************************//**
2779:.\Generated_Source\PSoC4/Bootloader.c **** *
2780:.\Generated_Source\PSoC4/Bootloader.c **** * \brief
2781:.\Generated_Source\PSoC4/Bootloader.c **** *  Writes a byte to the specified flash memory location.
2782:.\Generated_Source\PSoC4/Bootloader.c **** *
2783:.\Generated_Source\PSoC4/Bootloader.c **** * \param address
2784:.\Generated_Source\PSoC4/Bootloader.c **** *      The address in flash memory where data will be written.
2785:.\Generated_Source\PSoC4/Bootloader.c **** * \param runType:
2786:.\Generated_Source\PSoC4/Bootloader.c **** *      The byte to be written.
2787:.\Generated_Source\PSoC4/Bootloader.c **** *
2788:.\Generated_Source\PSoC4/Bootloader.c **** *******************************************************************************/
2789:.\Generated_Source\PSoC4/Bootloader.c **** void Bootloader_SetFlashByte(uint32 address, uint8 runType) 
2790:.\Generated_Source\PSoC4/Bootloader.c **** {
 2669              		.loc 1 2790 0
 2670              		.cfi_startproc
 2671 0000 80B5     		push	{r7, lr}
 2672              		.cfi_def_cfa_offset 8
 2673              		.cfi_offset 7, -8
 2674              		.cfi_offset 14, -4
 2675 0002 A6B0     		sub	sp, sp, #152
 2676              		.cfi_def_cfa_offset 160
 2677 0004 00AF     		add	r7, sp, #0
 2678              		.cfi_def_cfa_register 7
 2679 0006 7860     		str	r0, [r7, #4]
 2680 0008 0A1C     		mov	r2, r1
 2681 000a FB1C     		add	r3, r7, #3
 2682 000c 1A70     		strb	r2, [r3]
2791:.\Generated_Source\PSoC4/Bootloader.c ****     uint32 flsAddr = address - CYDEV_FLASH_BASE;
 2683              		.loc 1 2791 0
 2684 000e 7B68     		ldr	r3, [r7, #4]
 2685 0010 9022     		mov	r2, #144
 2686 0012 BA18     		add	r2, r7, r2
 2687 0014 1360     		str	r3, [r2]
2792:.\Generated_Source\PSoC4/Bootloader.c ****     uint8  rowData[CYDEV_FLS_ROW_SIZE];
2793:.\Generated_Source\PSoC4/Bootloader.c **** 
2794:.\Generated_Source\PSoC4/Bootloader.c ****     #if !(CY_PSOC4)
2795:.\Generated_Source\PSoC4/Bootloader.c ****         uint8 arrayId = ( uint8 )(flsAddr / CYDEV_FLS_SECTOR_SIZE);
2796:.\Generated_Source\PSoC4/Bootloader.c ****     #endif  /* !(CY_PSOC4) */
2797:.\Generated_Source\PSoC4/Bootloader.c **** 
2798:.\Generated_Source\PSoC4/Bootloader.c ****     #if (CY_PSOC4)
2799:.\Generated_Source\PSoC4/Bootloader.c ****         uint16 rowNum = ( uint16 )(flsAddr / CYDEV_FLS_ROW_SIZE);
 2688              		.loc 1 2799 0
 2689 0016 9023     		mov	r3, #144
 2690 0018 FB18     		add	r3, r7, r3
 2691 001a 1B68     		ldr	r3, [r3]
 2692 001c DA09     		lsr	r2, r3, #7
 2693 001e 8E23     		mov	r3, #142
 2694 0020 FB18     		add	r3, r7, r3
 2695 0022 1A80     		strh	r2, [r3]
2800:.\Generated_Source\PSoC4/Bootloader.c ****     #else
2801:.\Generated_Source\PSoC4/Bootloader.c ****         uint16 rowNum = ( uint16 )((flsAddr % CYDEV_FLS_SECTOR_SIZE) / CYDEV_FLS_ROW_SIZE);
2802:.\Generated_Source\PSoC4/Bootloader.c ****     #endif  /* (CY_PSOC4) */
2803:.\Generated_Source\PSoC4/Bootloader.c **** 
2804:.\Generated_Source\PSoC4/Bootloader.c ****     uint32 baseAddr = address - (address % CYDEV_FLS_ROW_SIZE);
 2696              		.loc 1 2804 0
ARM GAS  C:\Users\LUKASC~1\AppData\Local\Temp\ccn8LSRc.s 			page 98


 2697 0024 7B68     		ldr	r3, [r7, #4]
 2698 0026 7F22     		mov	r2, #127
 2699 0028 9343     		bic	r3, r2
 2700 002a 8822     		mov	r2, #136
 2701 002c BA18     		add	r2, r7, r2
 2702 002e 1360     		str	r3, [r2]
2805:.\Generated_Source\PSoC4/Bootloader.c ****     uint16 idx;
2806:.\Generated_Source\PSoC4/Bootloader.c **** 
2807:.\Generated_Source\PSoC4/Bootloader.c ****     for(idx = 0u; idx < CYDEV_FLS_ROW_SIZE; idx++)
 2703              		.loc 1 2807 0
 2704 0030 9623     		mov	r3, #150
 2705 0032 FB18     		add	r3, r7, r3
 2706 0034 0022     		mov	r2, #0
 2707 0036 1A80     		strh	r2, [r3]
 2708 0038 14E0     		b	.L134
 2709              	.L135:
2808:.\Generated_Source\PSoC4/Bootloader.c ****     {
2809:.\Generated_Source\PSoC4/Bootloader.c ****         rowData[idx] = Bootloader_GET_CODE_BYTE(baseAddr + idx);
 2710              		.loc 1 2809 0 discriminator 3
 2711 003a 9623     		mov	r3, #150
 2712 003c FB18     		add	r3, r7, r3
 2713 003e 1B88     		ldrh	r3, [r3]
 2714 0040 9622     		mov	r2, #150
 2715 0042 BA18     		add	r2, r7, r2
 2716 0044 1188     		ldrh	r1, [r2]
 2717 0046 8822     		mov	r2, #136
 2718 0048 BA18     		add	r2, r7, r2
 2719 004a 1268     		ldr	r2, [r2]
 2720 004c 8A18     		add	r2, r1, r2
 2721 004e 1178     		ldrb	r1, [r2]
 2722 0050 0822     		mov	r2, #8
 2723 0052 BA18     		add	r2, r7, r2
 2724 0054 D154     		strb	r1, [r2, r3]
2807:.\Generated_Source\PSoC4/Bootloader.c ****     {
 2725              		.loc 1 2807 0 discriminator 3
 2726 0056 9623     		mov	r3, #150
 2727 0058 FB18     		add	r3, r7, r3
 2728 005a 1A88     		ldrh	r2, [r3]
 2729 005c 9623     		mov	r3, #150
 2730 005e FB18     		add	r3, r7, r3
 2731 0060 0132     		add	r2, r2, #1
 2732 0062 1A80     		strh	r2, [r3]
 2733              	.L134:
2807:.\Generated_Source\PSoC4/Bootloader.c ****     {
 2734              		.loc 1 2807 0 is_stmt 0 discriminator 1
 2735 0064 9623     		mov	r3, #150
 2736 0066 FB18     		add	r3, r7, r3
 2737 0068 1B88     		ldrh	r3, [r3]
 2738 006a 7F2B     		cmp	r3, #127
 2739 006c E5D9     		bls	.L135
2810:.\Generated_Source\PSoC4/Bootloader.c ****     }
2811:.\Generated_Source\PSoC4/Bootloader.c **** 
2812:.\Generated_Source\PSoC4/Bootloader.c ****     rowData[address % CYDEV_FLS_ROW_SIZE] = runType;
 2740              		.loc 1 2812 0 is_stmt 1
 2741 006e 7B68     		ldr	r3, [r7, #4]
 2742 0070 7F22     		mov	r2, #127
 2743 0072 1340     		and	r3, r2
ARM GAS  C:\Users\LUKASC~1\AppData\Local\Temp\ccn8LSRc.s 			page 99


 2744 0074 0822     		mov	r2, #8
 2745 0076 BA18     		add	r2, r7, r2
 2746 0078 F91C     		add	r1, r7, #3
 2747 007a 0978     		ldrb	r1, [r1]
 2748 007c D154     		strb	r1, [r2, r3]
2813:.\Generated_Source\PSoC4/Bootloader.c **** 
2814:.\Generated_Source\PSoC4/Bootloader.c ****     #if(CY_PSOC4)
2815:.\Generated_Source\PSoC4/Bootloader.c ****         (void) CySysFlashWriteRow((uint32) rowNum, rowData);
 2749              		.loc 1 2815 0
 2750 007e 8E23     		mov	r3, #142
 2751 0080 FB18     		add	r3, r7, r3
 2752 0082 1A88     		ldrh	r2, [r3]
 2753 0084 0823     		mov	r3, #8
 2754 0086 FB18     		add	r3, r7, r3
 2755 0088 101C     		mov	r0, r2
 2756 008a 191C     		mov	r1, r3
 2757 008c FFF7FEFF 		bl	CySysFlashWriteRow
2816:.\Generated_Source\PSoC4/Bootloader.c ****     #else
2817:.\Generated_Source\PSoC4/Bootloader.c ****         (void) CyWriteRowData(arrayId, rowNum, rowData);
2818:.\Generated_Source\PSoC4/Bootloader.c ****     #endif  /* (CY_PSOC4) */
2819:.\Generated_Source\PSoC4/Bootloader.c **** 
2820:.\Generated_Source\PSoC4/Bootloader.c ****     #if(CY_PSOC5)
2821:.\Generated_Source\PSoC4/Bootloader.c ****         /***************************************************************************
2822:.\Generated_Source\PSoC4/Bootloader.c ****         * When writing to flash, data in the instruction cache can become stale.
2823:.\Generated_Source\PSoC4/Bootloader.c ****         * Therefore, the cache data does not correlate to the data just written to
2824:.\Generated_Source\PSoC4/Bootloader.c ****         * flash. A call to CyFlushCache() is required to invalidate the data in the
2825:.\Generated_Source\PSoC4/Bootloader.c ****         * cache and force fresh information to be loaded from flash.
2826:.\Generated_Source\PSoC4/Bootloader.c ****         ***************************************************************************/
2827:.\Generated_Source\PSoC4/Bootloader.c ****         CyFlushCache();
2828:.\Generated_Source\PSoC4/Bootloader.c ****     #endif /* (CY_PSOC5) */
2829:.\Generated_Source\PSoC4/Bootloader.c **** }
 2758              		.loc 1 2829 0
 2759 0090 BD46     		mov	sp, r7
 2760 0092 26B0     		add	sp, sp, #152
 2761              		@ sp needed
 2762 0094 80BD     		pop	{r7, pc}
 2763              		.cfi_endproc
 2764              	.LFE46:
 2765              		.size	Bootloader_SetFlashByte, .-Bootloader_SetFlashByte
 2766 0096 C046     		.section	.text.Bootloader_GetMetadata,"ax",%progbits
 2767              		.align	2
 2768              		.global	Bootloader_GetMetadata
 2769              		.code	16
 2770              		.thumb_func
 2771              		.type	Bootloader_GetMetadata, %function
 2772              	Bootloader_GetMetadata:
 2773              	.LFB47:
2830:.\Generated_Source\PSoC4/Bootloader.c **** 
2831:.\Generated_Source\PSoC4/Bootloader.c **** 
2832:.\Generated_Source\PSoC4/Bootloader.c **** /*******************************************************************************
2833:.\Generated_Source\PSoC4/Bootloader.c **** * Function Name: Bootloader_GetMetadata
2834:.\Generated_Source\PSoC4/Bootloader.c **** ****************************************************************************//**
2835:.\Generated_Source\PSoC4/Bootloader.c **** *
2836:.\Generated_Source\PSoC4/Bootloader.c **** * \brief
2837:.\Generated_Source\PSoC4/Bootloader.c **** *    Returns the value of the specified field of the metadata section.
2838:.\Generated_Source\PSoC4/Bootloader.c **** *
2839:.\Generated_Source\PSoC4/Bootloader.c **** * \param field \ref group_metadataFields
ARM GAS  C:\Users\LUKASC~1\AppData\Local\Temp\ccn8LSRc.s 			page 100


2840:.\Generated_Source\PSoC4/Bootloader.c **** *    Identifies the specific field of metadata.
2841:.\Generated_Source\PSoC4/Bootloader.c **** *
2842:.\Generated_Source\PSoC4/Bootloader.c **** * \param appId
2843:.\Generated_Source\PSoC4/Bootloader.c **** *    The number of the Bootloadable/Combination application. Should be 0 for 
2844:.\Generated_Source\PSoC4/Bootloader.c **** *    the normal bootloader and 0 or 1 for the Dual-application bootloader.
2845:.\Generated_Source\PSoC4/Bootloader.c **** *
2846:.\Generated_Source\PSoC4/Bootloader.c **** * \return
2847:.\Generated_Source\PSoC4/Bootloader.c **** *    The value of the specified field of the specified application.
2848:.\Generated_Source\PSoC4/Bootloader.c **** *
2849:.\Generated_Source\PSoC4/Bootloader.c **** *******************************************************************************/
2850:.\Generated_Source\PSoC4/Bootloader.c **** uint32 Bootloader_GetMetadata(uint8 field, uint8 appId)
2851:.\Generated_Source\PSoC4/Bootloader.c **** {
 2774              		.loc 1 2851 0
 2775              		.cfi_startproc
 2776 0000 80B5     		push	{r7, lr}
 2777              		.cfi_def_cfa_offset 8
 2778              		.cfi_offset 7, -8
 2779              		.cfi_offset 14, -4
 2780 0002 86B0     		sub	sp, sp, #24
 2781              		.cfi_def_cfa_offset 32
 2782 0004 00AF     		add	r7, sp, #0
 2783              		.cfi_def_cfa_register 7
 2784 0006 021C     		mov	r2, r0
 2785 0008 FB1D     		add	r3, r7, #7
 2786 000a 1A70     		strb	r2, [r3]
 2787 000c BB1D     		add	r3, r7, #6
 2788 000e 0A1C     		add	r2, r1, #0
 2789 0010 1A70     		strb	r2, [r3]
2852:.\Generated_Source\PSoC4/Bootloader.c ****     uint32 fieldPtr;
2853:.\Generated_Source\PSoC4/Bootloader.c ****     uint8  fieldSize = 2u;
 2790              		.loc 1 2853 0
 2791 0012 1323     		mov	r3, #19
 2792 0014 FB18     		add	r3, r7, r3
 2793 0016 0222     		mov	r2, #2
 2794 0018 1A70     		strb	r2, [r3]
2854:.\Generated_Source\PSoC4/Bootloader.c ****     uint32 result = 0u;
 2795              		.loc 1 2854 0
 2796 001a 0023     		mov	r3, #0
 2797 001c FB60     		str	r3, [r7, #12]
2855:.\Generated_Source\PSoC4/Bootloader.c **** 
2856:.\Generated_Source\PSoC4/Bootloader.c ****     switch (field)
 2798              		.loc 1 2856 0
 2799 001e FB1D     		add	r3, r7, #7
 2800 0020 1B78     		ldrb	r3, [r3]
 2801 0022 0C2B     		cmp	r3, #12
 2802 0024 00D9     		bls	.LCB2478
 2803 0026 A8E0     		b	.L137	@long jump
 2804              	.LCB2478:
 2805 0028 9A00     		lsl	r2, r3, #2
 2806 002a 774B     		ldr	r3, .L156
 2807 002c D318     		add	r3, r2, r3
 2808 002e 1B68     		ldr	r3, [r3]
 2809 0030 9F46     		mov	pc, r3
 2810              		.section	.rodata
 2811              		.align	2
 2812              	.L139:
 2813 005c 7A010000 		.word	.L137
ARM GAS  C:\Users\LUKASC~1\AppData\Local\Temp\ccn8LSRc.s 			page 101


 2814 0060 32000000 		.word	.L138
 2815 0064 50000000 		.word	.L140
 2816 0068 6E000000 		.word	.L141
 2817 006c 84000000 		.word	.L142
 2818 0070 A2000000 		.word	.L143
 2819 0074 C0000000 		.word	.L144
 2820 0078 F4000000 		.word	.L145
 2821 007c DE000000 		.word	.L146
 2822 0080 0A010000 		.word	.L147
 2823 0084 20010000 		.word	.L148
 2824 0088 3E010000 		.word	.L149
 2825 008c 5C010000 		.word	.L150
 2826              		.section	.text.Bootloader_GetMetadata
 2827              	.L138:
2857:.\Generated_Source\PSoC4/Bootloader.c ****     {
2858:.\Generated_Source\PSoC4/Bootloader.c ****     case Bootloader_GET_BTLDB_CHECKSUM:
2859:.\Generated_Source\PSoC4/Bootloader.c ****         fieldPtr  = Bootloader_MD_BTLDB_CHECKSUM_OFFSET(appId);
 2828              		.loc 1 2859 0
 2829 0032 BB1D     		add	r3, r7, #6
 2830 0034 1A78     		ldrb	r2, [r3]
 2831 0036 131C     		mov	r3, r2
 2832 0038 5B06     		lsl	r3, r3, #25
 2833 003a 9B1A     		sub	r3, r3, r2
 2834 003c DB01     		lsl	r3, r3, #7
 2835 003e 734A     		ldr	r2, .L156+4
 2836 0040 9446     		mov	ip, r2
 2837 0042 6344     		add	r3, r3, ip
 2838 0044 7B61     		str	r3, [r7, #20]
2860:.\Generated_Source\PSoC4/Bootloader.c ****         fieldSize = 1u;
 2839              		.loc 1 2860 0
 2840 0046 1323     		mov	r3, #19
 2841 0048 FB18     		add	r3, r7, r3
 2842 004a 0122     		mov	r2, #1
 2843 004c 1A70     		strb	r2, [r3]
2861:.\Generated_Source\PSoC4/Bootloader.c ****         break;   
 2844              		.loc 1 2861 0
 2845 004e 9AE0     		b	.L151
 2846              	.L140:
2862:.\Generated_Source\PSoC4/Bootloader.c **** 
2863:.\Generated_Source\PSoC4/Bootloader.c ****     case Bootloader_GET_BTLDB_ADDR:
2864:.\Generated_Source\PSoC4/Bootloader.c ****         fieldPtr  = Bootloader_MD_BTLDB_ADDR_OFFSET(appId);
 2847              		.loc 1 2864 0
 2848 0050 BB1D     		add	r3, r7, #6
 2849 0052 1A78     		ldrb	r2, [r3]
 2850 0054 131C     		mov	r3, r2
 2851 0056 5B06     		lsl	r3, r3, #25
 2852 0058 9B1A     		sub	r3, r3, r2
 2853 005a DB01     		lsl	r3, r3, #7
 2854 005c 6C4A     		ldr	r2, .L156+8
 2855 005e 9446     		mov	ip, r2
 2856 0060 6344     		add	r3, r3, ip
 2857 0062 7B61     		str	r3, [r7, #20]
2865:.\Generated_Source\PSoC4/Bootloader.c ****     #if(!CY_PSOC3)
2866:.\Generated_Source\PSoC4/Bootloader.c ****         fieldSize = 4u;
 2858              		.loc 1 2866 0
 2859 0064 1323     		mov	r3, #19
 2860 0066 FB18     		add	r3, r7, r3
ARM GAS  C:\Users\LUKASC~1\AppData\Local\Temp\ccn8LSRc.s 			page 102


 2861 0068 0422     		mov	r2, #4
 2862 006a 1A70     		strb	r2, [r3]
2867:.\Generated_Source\PSoC4/Bootloader.c ****     #endif  /* (!CY_PSOC3) */
2868:.\Generated_Source\PSoC4/Bootloader.c ****         break;
 2863              		.loc 1 2868 0
 2864 006c 8BE0     		b	.L151
 2865              	.L141:
2869:.\Generated_Source\PSoC4/Bootloader.c **** 
2870:.\Generated_Source\PSoC4/Bootloader.c ****     case Bootloader_GET_BTLDR_LAST_ROW:
2871:.\Generated_Source\PSoC4/Bootloader.c ****         fieldPtr  = Bootloader_MD_BTLDR_LAST_ROW_OFFSET(appId);
 2866              		.loc 1 2871 0
 2867 006e BB1D     		add	r3, r7, #6
 2868 0070 1A78     		ldrb	r2, [r3]
 2869 0072 131C     		mov	r3, r2
 2870 0074 5B06     		lsl	r3, r3, #25
 2871 0076 9B1A     		sub	r3, r3, r2
 2872 0078 DB01     		lsl	r3, r3, #7
 2873 007a 664A     		ldr	r2, .L156+12
 2874 007c 9446     		mov	ip, r2
 2875 007e 6344     		add	r3, r3, ip
 2876 0080 7B61     		str	r3, [r7, #20]
2872:.\Generated_Source\PSoC4/Bootloader.c ****         break;
 2877              		.loc 1 2872 0
 2878 0082 80E0     		b	.L151
 2879              	.L142:
2873:.\Generated_Source\PSoC4/Bootloader.c **** 
2874:.\Generated_Source\PSoC4/Bootloader.c ****     case Bootloader_GET_BTLDB_LENGTH:
2875:.\Generated_Source\PSoC4/Bootloader.c ****         fieldPtr  = Bootloader_MD_BTLDB_LENGTH_OFFSET(appId);
 2880              		.loc 1 2875 0
 2881 0084 BB1D     		add	r3, r7, #6
 2882 0086 1A78     		ldrb	r2, [r3]
 2883 0088 131C     		mov	r3, r2
 2884 008a 5B06     		lsl	r3, r3, #25
 2885 008c 9B1A     		sub	r3, r3, r2
 2886 008e DB01     		lsl	r3, r3, #7
 2887 0090 614A     		ldr	r2, .L156+16
 2888 0092 9446     		mov	ip, r2
 2889 0094 6344     		add	r3, r3, ip
 2890 0096 7B61     		str	r3, [r7, #20]
2876:.\Generated_Source\PSoC4/Bootloader.c ****     #if(!CY_PSOC3)
2877:.\Generated_Source\PSoC4/Bootloader.c ****         fieldSize = 4u;
 2891              		.loc 1 2877 0
 2892 0098 1323     		mov	r3, #19
 2893 009a FB18     		add	r3, r7, r3
 2894 009c 0422     		mov	r2, #4
 2895 009e 1A70     		strb	r2, [r3]
2878:.\Generated_Source\PSoC4/Bootloader.c ****     #endif  /* (!CY_PSOC3) */
2879:.\Generated_Source\PSoC4/Bootloader.c ****         break;
 2896              		.loc 1 2879 0
 2897 00a0 71E0     		b	.L151
 2898              	.L143:
2880:.\Generated_Source\PSoC4/Bootloader.c **** 
2881:.\Generated_Source\PSoC4/Bootloader.c ****     case Bootloader_GET_BTLDB_ACTIVE:
2882:.\Generated_Source\PSoC4/Bootloader.c ****         fieldPtr  = Bootloader_MD_BTLDB_ACTIVE_OFFSET(appId);
 2899              		.loc 1 2882 0
 2900 00a2 BB1D     		add	r3, r7, #6
 2901 00a4 1A78     		ldrb	r2, [r3]
ARM GAS  C:\Users\LUKASC~1\AppData\Local\Temp\ccn8LSRc.s 			page 103


 2902 00a6 131C     		mov	r3, r2
 2903 00a8 5B06     		lsl	r3, r3, #25
 2904 00aa 9B1A     		sub	r3, r3, r2
 2905 00ac DB01     		lsl	r3, r3, #7
 2906 00ae 5B4A     		ldr	r2, .L156+20
 2907 00b0 9446     		mov	ip, r2
 2908 00b2 6344     		add	r3, r3, ip
 2909 00b4 7B61     		str	r3, [r7, #20]
2883:.\Generated_Source\PSoC4/Bootloader.c ****         fieldSize = 1u;
 2910              		.loc 1 2883 0
 2911 00b6 1323     		mov	r3, #19
 2912 00b8 FB18     		add	r3, r7, r3
 2913 00ba 0122     		mov	r2, #1
 2914 00bc 1A70     		strb	r2, [r3]
2884:.\Generated_Source\PSoC4/Bootloader.c ****         break;
 2915              		.loc 1 2884 0
 2916 00be 62E0     		b	.L151
 2917              	.L144:
2885:.\Generated_Source\PSoC4/Bootloader.c **** 
2886:.\Generated_Source\PSoC4/Bootloader.c ****     case Bootloader_GET_BTLDB_STATUS:
2887:.\Generated_Source\PSoC4/Bootloader.c ****         fieldPtr  = Bootloader_MD_BTLDB_VERIFIED_OFFSET(appId);
 2918              		.loc 1 2887 0
 2919 00c0 BB1D     		add	r3, r7, #6
 2920 00c2 1A78     		ldrb	r2, [r3]
 2921 00c4 131C     		mov	r3, r2
 2922 00c6 5B06     		lsl	r3, r3, #25
 2923 00c8 9B1A     		sub	r3, r3, r2
 2924 00ca DB01     		lsl	r3, r3, #7
 2925 00cc 544A     		ldr	r2, .L156+24
 2926 00ce 9446     		mov	ip, r2
 2927 00d0 6344     		add	r3, r3, ip
 2928 00d2 7B61     		str	r3, [r7, #20]
2888:.\Generated_Source\PSoC4/Bootloader.c ****         fieldSize = 1u;
 2929              		.loc 1 2888 0
 2930 00d4 1323     		mov	r3, #19
 2931 00d6 FB18     		add	r3, r7, r3
 2932 00d8 0122     		mov	r2, #1
 2933 00da 1A70     		strb	r2, [r3]
2889:.\Generated_Source\PSoC4/Bootloader.c ****         break;
 2934              		.loc 1 2889 0
 2935 00dc 53E0     		b	.L151
 2936              	.L146:
2890:.\Generated_Source\PSoC4/Bootloader.c **** 
2891:.\Generated_Source\PSoC4/Bootloader.c ****     case Bootloader_GET_BTLDB_APP_VERSION:
2892:.\Generated_Source\PSoC4/Bootloader.c ****         fieldPtr  = Bootloader_MD_BTLDB_APP_VERSION_OFFSET(appId);
 2937              		.loc 1 2892 0
 2938 00de BB1D     		add	r3, r7, #6
 2939 00e0 1A78     		ldrb	r2, [r3]
 2940 00e2 131C     		mov	r3, r2
 2941 00e4 5B06     		lsl	r3, r3, #25
 2942 00e6 9B1A     		sub	r3, r3, r2
 2943 00e8 DB01     		lsl	r3, r3, #7
 2944 00ea 4E4A     		ldr	r2, .L156+28
 2945 00ec 9446     		mov	ip, r2
 2946 00ee 6344     		add	r3, r3, ip
 2947 00f0 7B61     		str	r3, [r7, #20]
2893:.\Generated_Source\PSoC4/Bootloader.c ****         break;
ARM GAS  C:\Users\LUKASC~1\AppData\Local\Temp\ccn8LSRc.s 			page 104


 2948              		.loc 1 2893 0
 2949 00f2 48E0     		b	.L151
 2950              	.L145:
2894:.\Generated_Source\PSoC4/Bootloader.c **** 
2895:.\Generated_Source\PSoC4/Bootloader.c ****     case Bootloader_GET_BTLDR_APP_VERSION:
2896:.\Generated_Source\PSoC4/Bootloader.c ****         fieldPtr  = Bootloader_MD_BTLDR_APP_VERSION_OFFSET(appId);
 2951              		.loc 1 2896 0
 2952 00f4 BB1D     		add	r3, r7, #6
 2953 00f6 1A78     		ldrb	r2, [r3]
 2954 00f8 131C     		mov	r3, r2
 2955 00fa 5B06     		lsl	r3, r3, #25
 2956 00fc 9B1A     		sub	r3, r3, r2
 2957 00fe DB01     		lsl	r3, r3, #7
 2958 0100 494A     		ldr	r2, .L156+32
 2959 0102 9446     		mov	ip, r2
 2960 0104 6344     		add	r3, r3, ip
 2961 0106 7B61     		str	r3, [r7, #20]
2897:.\Generated_Source\PSoC4/Bootloader.c ****         break;
 2962              		.loc 1 2897 0
 2963 0108 3DE0     		b	.L151
 2964              	.L147:
2898:.\Generated_Source\PSoC4/Bootloader.c **** 
2899:.\Generated_Source\PSoC4/Bootloader.c ****     case Bootloader_GET_BTLDB_APP_ID:
2900:.\Generated_Source\PSoC4/Bootloader.c ****         fieldPtr  = Bootloader_MD_BTLDB_APP_ID_OFFSET(appId);
 2965              		.loc 1 2900 0
 2966 010a BB1D     		add	r3, r7, #6
 2967 010c 1A78     		ldrb	r2, [r3]
 2968 010e 131C     		mov	r3, r2
 2969 0110 5B06     		lsl	r3, r3, #25
 2970 0112 9B1A     		sub	r3, r3, r2
 2971 0114 DB01     		lsl	r3, r3, #7
 2972 0116 454A     		ldr	r2, .L156+36
 2973 0118 9446     		mov	ip, r2
 2974 011a 6344     		add	r3, r3, ip
 2975 011c 7B61     		str	r3, [r7, #20]
2901:.\Generated_Source\PSoC4/Bootloader.c ****         break;
 2976              		.loc 1 2901 0
 2977 011e 32E0     		b	.L151
 2978              	.L148:
2902:.\Generated_Source\PSoC4/Bootloader.c **** 
2903:.\Generated_Source\PSoC4/Bootloader.c ****     case Bootloader_GET_BTLDB_APP_CUST_ID:
2904:.\Generated_Source\PSoC4/Bootloader.c ****         fieldPtr  = Bootloader_MD_BTLDB_APP_CUST_ID_OFFSET(appId);
 2979              		.loc 1 2904 0
 2980 0120 BB1D     		add	r3, r7, #6
 2981 0122 1A78     		ldrb	r2, [r3]
 2982 0124 131C     		mov	r3, r2
 2983 0126 5B06     		lsl	r3, r3, #25
 2984 0128 9B1A     		sub	r3, r3, r2
 2985 012a DB01     		lsl	r3, r3, #7
 2986 012c 404A     		ldr	r2, .L156+40
 2987 012e 9446     		mov	ip, r2
 2988 0130 6344     		add	r3, r3, ip
 2989 0132 7B61     		str	r3, [r7, #20]
2905:.\Generated_Source\PSoC4/Bootloader.c ****         fieldSize = 4u;
 2990              		.loc 1 2905 0
 2991 0134 1323     		mov	r3, #19
 2992 0136 FB18     		add	r3, r7, r3
ARM GAS  C:\Users\LUKASC~1\AppData\Local\Temp\ccn8LSRc.s 			page 105


 2993 0138 0422     		mov	r2, #4
 2994 013a 1A70     		strb	r2, [r3]
2906:.\Generated_Source\PSoC4/Bootloader.c ****         break;
 2995              		.loc 1 2906 0
 2996 013c 23E0     		b	.L151
 2997              	.L149:
2907:.\Generated_Source\PSoC4/Bootloader.c ****         
2908:.\Generated_Source\PSoC4/Bootloader.c ****     case Bootloader_GET_BTLDB_COPY_FLAG:
2909:.\Generated_Source\PSoC4/Bootloader.c ****         fieldPtr = Bootloader_MD_BTLDB_COPY_FLAG_OFFSET(appId);
 2998              		.loc 1 2909 0
 2999 013e BB1D     		add	r3, r7, #6
 3000 0140 1A78     		ldrb	r2, [r3]
 3001 0142 131C     		mov	r3, r2
 3002 0144 5B06     		lsl	r3, r3, #25
 3003 0146 9B1A     		sub	r3, r3, r2
 3004 0148 DB01     		lsl	r3, r3, #7
 3005 014a 3A4A     		ldr	r2, .L156+44
 3006 014c 9446     		mov	ip, r2
 3007 014e 6344     		add	r3, r3, ip
 3008 0150 7B61     		str	r3, [r7, #20]
2910:.\Generated_Source\PSoC4/Bootloader.c ****         fieldSize = 1u;
 3009              		.loc 1 2910 0
 3010 0152 1323     		mov	r3, #19
 3011 0154 FB18     		add	r3, r7, r3
 3012 0156 0122     		mov	r2, #1
 3013 0158 1A70     		strb	r2, [r3]
2911:.\Generated_Source\PSoC4/Bootloader.c ****         break;        
 3014              		.loc 1 2911 0
 3015 015a 14E0     		b	.L151
 3016              	.L150:
2912:.\Generated_Source\PSoC4/Bootloader.c **** 
2913:.\Generated_Source\PSoC4/Bootloader.c ****     case Bootloader_GET_BTLDB_USER_DATA:
2914:.\Generated_Source\PSoC4/Bootloader.c ****         fieldPtr = Bootloader_MD_BTLDB_USER_DATA_OFFSET(appId);
 3017              		.loc 1 2914 0
 3018 015c BB1D     		add	r3, r7, #6
 3019 015e 1A78     		ldrb	r2, [r3]
 3020 0160 131C     		mov	r3, r2
 3021 0162 5B06     		lsl	r3, r3, #25
 3022 0164 9B1A     		sub	r3, r3, r2
 3023 0166 DB01     		lsl	r3, r3, #7
 3024 0168 334A     		ldr	r2, .L156+48
 3025 016a 9446     		mov	ip, r2
 3026 016c 6344     		add	r3, r3, ip
 3027 016e 7B61     		str	r3, [r7, #20]
2915:.\Generated_Source\PSoC4/Bootloader.c ****         fieldSize = 4u;
 3028              		.loc 1 2915 0
 3029 0170 1323     		mov	r3, #19
 3030 0172 FB18     		add	r3, r7, r3
 3031 0174 0422     		mov	r2, #4
 3032 0176 1A70     		strb	r2, [r3]
2916:.\Generated_Source\PSoC4/Bootloader.c ****         break;        
 3033              		.loc 1 2916 0
 3034 0178 05E0     		b	.L151
 3035              	.L137:
2917:.\Generated_Source\PSoC4/Bootloader.c **** 
2918:.\Generated_Source\PSoC4/Bootloader.c ****     default:
2919:.\Generated_Source\PSoC4/Bootloader.c ****         /* Should never be here */
ARM GAS  C:\Users\LUKASC~1\AppData\Local\Temp\ccn8LSRc.s 			page 106


2920:.\Generated_Source\PSoC4/Bootloader.c ****         CYASSERT(0u != 0u);
 3036              		.loc 1 2920 0
 3037 017a 0020     		mov	r0, #0
 3038 017c FFF7FEFF 		bl	CyHalt
2921:.\Generated_Source\PSoC4/Bootloader.c ****         fieldPtr  = 0u;
 3039              		.loc 1 2921 0
 3040 0180 0023     		mov	r3, #0
 3041 0182 7B61     		str	r3, [r7, #20]
2922:.\Generated_Source\PSoC4/Bootloader.c ****         break;
 3042              		.loc 1 2922 0
 3043 0184 C046     		mov	r8, r8
 3044              	.L151:
2923:.\Generated_Source\PSoC4/Bootloader.c ****     }
2924:.\Generated_Source\PSoC4/Bootloader.c **** 
2925:.\Generated_Source\PSoC4/Bootloader.c **** 
2926:.\Generated_Source\PSoC4/Bootloader.c ****     if (1u == fieldSize)
 3045              		.loc 1 2926 0
 3046 0186 1323     		mov	r3, #19
 3047 0188 FB18     		add	r3, r7, r3
 3048 018a 1B78     		ldrb	r3, [r3]
 3049 018c 012B     		cmp	r3, #1
 3050 018e 03D1     		bne	.L152
2927:.\Generated_Source\PSoC4/Bootloader.c ****     {
2928:.\Generated_Source\PSoC4/Bootloader.c ****         result =  (uint32) CY_GET_XTND_REG8((volatile uint8 *)fieldPtr);
 3051              		.loc 1 2928 0
 3052 0190 7B69     		ldr	r3, [r7, #20]
 3053 0192 1B78     		ldrb	r3, [r3]
 3054 0194 DBB2     		uxtb	r3, r3
 3055 0196 FB60     		str	r3, [r7, #12]
 3056              	.L152:
2929:.\Generated_Source\PSoC4/Bootloader.c ****     }
2930:.\Generated_Source\PSoC4/Bootloader.c **** 
2931:.\Generated_Source\PSoC4/Bootloader.c ****     #if(CY_PSOC3)   /* Big-endian */
2932:.\Generated_Source\PSoC4/Bootloader.c **** 
2933:.\Generated_Source\PSoC4/Bootloader.c ****         if (2u == fieldSize)
2934:.\Generated_Source\PSoC4/Bootloader.c ****         {
2935:.\Generated_Source\PSoC4/Bootloader.c ****             result =  (uint32) CY_GET_XTND_REG8((volatile uint8 *)(fieldPtr + 1u));
2936:.\Generated_Source\PSoC4/Bootloader.c ****             result |= (uint32) CY_GET_XTND_REG8((volatile uint8 *)(fieldPtr     )) <<  8u;
2937:.\Generated_Source\PSoC4/Bootloader.c ****         }
2938:.\Generated_Source\PSoC4/Bootloader.c **** 
2939:.\Generated_Source\PSoC4/Bootloader.c ****         if (4u == fieldSize)
2940:.\Generated_Source\PSoC4/Bootloader.c ****         {
2941:.\Generated_Source\PSoC4/Bootloader.c ****             result =  (uint32) CY_GET_XTND_REG8((volatile uint8 *)(fieldPtr + 3u));
2942:.\Generated_Source\PSoC4/Bootloader.c ****             result |= (uint32) CY_GET_XTND_REG8((volatile uint8 *)(fieldPtr + 2u)) <<  8u;
2943:.\Generated_Source\PSoC4/Bootloader.c ****             result |= (uint32) CY_GET_XTND_REG8((volatile uint8 *)(fieldPtr + 1u)) << 16u;
2944:.\Generated_Source\PSoC4/Bootloader.c ****             result |= (uint32) CY_GET_XTND_REG8((volatile uint8 *)(fieldPtr     )) << 24u;
2945:.\Generated_Source\PSoC4/Bootloader.c ****         }
2946:.\Generated_Source\PSoC4/Bootloader.c **** 
2947:.\Generated_Source\PSoC4/Bootloader.c ****     #else   /* PSoC 4 and PSoC 5: Little-endian */
2948:.\Generated_Source\PSoC4/Bootloader.c **** 
2949:.\Generated_Source\PSoC4/Bootloader.c ****         if (2u == fieldSize)
 3057              		.loc 1 2949 0
 3058 0198 1323     		mov	r3, #19
 3059 019a FB18     		add	r3, r7, r3
 3060 019c 1B78     		ldrb	r3, [r3]
 3061 019e 022B     		cmp	r3, #2
 3062 01a0 0BD1     		bne	.L153
ARM GAS  C:\Users\LUKASC~1\AppData\Local\Temp\ccn8LSRc.s 			page 107


2950:.\Generated_Source\PSoC4/Bootloader.c ****         {
2951:.\Generated_Source\PSoC4/Bootloader.c ****             result =  (uint32) CY_GET_XTND_REG8((volatile uint8 *) (fieldPtr     ));
 3063              		.loc 1 2951 0
 3064 01a2 7B69     		ldr	r3, [r7, #20]
 3065 01a4 1B78     		ldrb	r3, [r3]
 3066 01a6 DBB2     		uxtb	r3, r3
 3067 01a8 FB60     		str	r3, [r7, #12]
2952:.\Generated_Source\PSoC4/Bootloader.c ****             result |= (uint32) CY_GET_XTND_REG8((volatile uint8 *) (fieldPtr + 1u)) <<  8u;
 3068              		.loc 1 2952 0
 3069 01aa 7B69     		ldr	r3, [r7, #20]
 3070 01ac 0133     		add	r3, r3, #1
 3071 01ae 1B78     		ldrb	r3, [r3]
 3072 01b0 DBB2     		uxtb	r3, r3
 3073 01b2 1B02     		lsl	r3, r3, #8
 3074 01b4 FA68     		ldr	r2, [r7, #12]
 3075 01b6 1343     		orr	r3, r2
 3076 01b8 FB60     		str	r3, [r7, #12]
 3077              	.L153:
2953:.\Generated_Source\PSoC4/Bootloader.c ****         }
2954:.\Generated_Source\PSoC4/Bootloader.c **** 
2955:.\Generated_Source\PSoC4/Bootloader.c ****         if (4u == fieldSize)
 3078              		.loc 1 2955 0
 3079 01ba 1323     		mov	r3, #19
 3080 01bc FB18     		add	r3, r7, r3
 3081 01be 1B78     		ldrb	r3, [r3]
 3082 01c0 042B     		cmp	r3, #4
 3083 01c2 1BD1     		bne	.L154
2956:.\Generated_Source\PSoC4/Bootloader.c ****         {
2957:.\Generated_Source\PSoC4/Bootloader.c ****             result =  (uint32) CY_GET_XTND_REG8((volatile uint8 *)(fieldPtr     ));
 3084              		.loc 1 2957 0
 3085 01c4 7B69     		ldr	r3, [r7, #20]
 3086 01c6 1B78     		ldrb	r3, [r3]
 3087 01c8 DBB2     		uxtb	r3, r3
 3088 01ca FB60     		str	r3, [r7, #12]
2958:.\Generated_Source\PSoC4/Bootloader.c ****             result |= (uint32) CY_GET_XTND_REG8((volatile uint8 *)(fieldPtr + 1u)) <<  8u;
 3089              		.loc 1 2958 0
 3090 01cc 7B69     		ldr	r3, [r7, #20]
 3091 01ce 0133     		add	r3, r3, #1
 3092 01d0 1B78     		ldrb	r3, [r3]
 3093 01d2 DBB2     		uxtb	r3, r3
 3094 01d4 1B02     		lsl	r3, r3, #8
 3095 01d6 FA68     		ldr	r2, [r7, #12]
 3096 01d8 1343     		orr	r3, r2
 3097 01da FB60     		str	r3, [r7, #12]
2959:.\Generated_Source\PSoC4/Bootloader.c ****             result |= (uint32) CY_GET_XTND_REG8((volatile uint8 *)(fieldPtr + 2u)) << 16u;
 3098              		.loc 1 2959 0
 3099 01dc 7B69     		ldr	r3, [r7, #20]
 3100 01de 0233     		add	r3, r3, #2
 3101 01e0 1B78     		ldrb	r3, [r3]
 3102 01e2 DBB2     		uxtb	r3, r3
 3103 01e4 1B04     		lsl	r3, r3, #16
 3104 01e6 FA68     		ldr	r2, [r7, #12]
 3105 01e8 1343     		orr	r3, r2
 3106 01ea FB60     		str	r3, [r7, #12]
2960:.\Generated_Source\PSoC4/Bootloader.c ****             result |= (uint32) CY_GET_XTND_REG8((volatile uint8 *)(fieldPtr + 3u)) << 24u;
 3107              		.loc 1 2960 0
 3108 01ec 7B69     		ldr	r3, [r7, #20]
ARM GAS  C:\Users\LUKASC~1\AppData\Local\Temp\ccn8LSRc.s 			page 108


 3109 01ee 0333     		add	r3, r3, #3
 3110 01f0 1B78     		ldrb	r3, [r3]
 3111 01f2 DBB2     		uxtb	r3, r3
 3112 01f4 1B06     		lsl	r3, r3, #24
 3113 01f6 FA68     		ldr	r2, [r7, #12]
 3114 01f8 1343     		orr	r3, r2
 3115 01fa FB60     		str	r3, [r7, #12]
 3116              	.L154:
2961:.\Generated_Source\PSoC4/Bootloader.c ****         }
2962:.\Generated_Source\PSoC4/Bootloader.c **** 
2963:.\Generated_Source\PSoC4/Bootloader.c ****     #endif /* (CY_PSOC3) */
2964:.\Generated_Source\PSoC4/Bootloader.c **** 
2965:.\Generated_Source\PSoC4/Bootloader.c ****     return (result);
 3117              		.loc 1 2965 0
 3118 01fc FB68     		ldr	r3, [r7, #12]
2966:.\Generated_Source\PSoC4/Bootloader.c **** }
 3119              		.loc 1 2966 0
 3120 01fe 181C     		mov	r0, r3
 3121 0200 BD46     		mov	sp, r7
 3122 0202 06B0     		add	sp, sp, #24
 3123              		@ sp needed
 3124 0204 80BD     		pop	{r7, pc}
 3125              	.L157:
 3126 0206 C046     		.align	2
 3127              	.L156:
 3128 0208 5C000000 		.word	.L139
 3129 020c C07F0000 		.word	32704
 3130 0210 C17F0000 		.word	32705
 3131 0214 C57F0000 		.word	32709
 3132 0218 C97F0000 		.word	32713
 3133 021c D07F0000 		.word	32720
 3134 0220 D17F0000 		.word	32721
 3135 0224 D67F0000 		.word	32726
 3136 0228 D27F0000 		.word	32722
 3137 022c D47F0000 		.word	32724
 3138 0230 D87F0000 		.word	32728
 3139 0234 DC7F0000 		.word	32732
 3140 0238 E07F0000 		.word	32736
 3141              		.cfi_endproc
 3142              	.LFE47:
 3143              		.size	Bootloader_GetMetadata, .-Bootloader_GetMetadata
 3144              		.text
 3145              	.Letext0:
 3146              		.file 2 ".\\Generated_Source\\PSoC4\\cytypes.h"
 3147              		.file 3 ".\\Generated_Source\\PSoC4\\Bootloader.h"
 3148              		.file 4 ".\\Generated_Source\\PSoC4\\Bootloader_PVT.h"
 3149              		.section	.debug_info,"",%progbits
 3150              	.Ldebug_info0:
 3151 0000 79080000 		.4byte	0x879
 3152 0004 0400     		.2byte	0x4
 3153 0006 00000000 		.4byte	.Ldebug_abbrev0
 3154 000a 04       		.byte	0x4
 3155 000b 01       		.uleb128 0x1
 3156 000c 5D050000 		.4byte	.LASF100
 3157 0010 01       		.byte	0x1
 3158 0011 11060000 		.4byte	.LASF101
 3159 0015 3F030000 		.4byte	.LASF102
ARM GAS  C:\Users\LUKASC~1\AppData\Local\Temp\ccn8LSRc.s 			page 109


 3160 0019 18000000 		.4byte	.Ldebug_ranges0+0x18
 3161 001d 00000000 		.4byte	0
 3162 0021 00000000 		.4byte	.Ldebug_line0
 3163 0025 02       		.uleb128 0x2
 3164 0026 01       		.byte	0x1
 3165 0027 06       		.byte	0x6
 3166 0028 F8000000 		.4byte	.LASF0
 3167 002c 02       		.uleb128 0x2
 3168 002d 01       		.byte	0x1
 3169 002e 08       		.byte	0x8
 3170 002f 32040000 		.4byte	.LASF1
 3171 0033 02       		.uleb128 0x2
 3172 0034 02       		.byte	0x2
 3173 0035 05       		.byte	0x5
 3174 0036 5D040000 		.4byte	.LASF2
 3175 003a 02       		.uleb128 0x2
 3176 003b 02       		.byte	0x2
 3177 003c 07       		.byte	0x7
 3178 003d 7E020000 		.4byte	.LASF3
 3179 0041 02       		.uleb128 0x2
 3180 0042 04       		.byte	0x4
 3181 0043 05       		.byte	0x5
 3182 0044 47010000 		.4byte	.LASF4
 3183 0048 02       		.uleb128 0x2
 3184 0049 04       		.byte	0x4
 3185 004a 07       		.byte	0x7
 3186 004b 49020000 		.4byte	.LASF5
 3187 004f 02       		.uleb128 0x2
 3188 0050 08       		.byte	0x8
 3189 0051 05       		.byte	0x5
 3190 0052 EA000000 		.4byte	.LASF6
 3191 0056 02       		.uleb128 0x2
 3192 0057 08       		.byte	0x8
 3193 0058 07       		.byte	0x7
 3194 0059 88000000 		.4byte	.LASF7
 3195 005d 03       		.uleb128 0x3
 3196 005e 04       		.byte	0x4
 3197 005f 05       		.byte	0x5
 3198 0060 696E7400 		.ascii	"int\000"
 3199 0064 02       		.uleb128 0x2
 3200 0065 04       		.byte	0x4
 3201 0066 07       		.byte	0x7
 3202 0067 09020000 		.4byte	.LASF8
 3203 006b 04       		.uleb128 0x4
 3204 006c 5A010000 		.4byte	.LASF9
 3205 0070 02       		.byte	0x2
 3206 0071 3801     		.2byte	0x138
 3207 0073 2C000000 		.4byte	0x2c
 3208 0077 04       		.uleb128 0x4
 3209 0078 13000000 		.4byte	.LASF10
 3210 007c 02       		.byte	0x2
 3211 007d 3901     		.2byte	0x139
 3212 007f 3A000000 		.4byte	0x3a
 3213 0083 04       		.uleb128 0x4
 3214 0084 8A010000 		.4byte	.LASF11
 3215 0088 02       		.byte	0x2
 3216 0089 3A01     		.2byte	0x13a
ARM GAS  C:\Users\LUKASC~1\AppData\Local\Temp\ccn8LSRc.s 			page 110


 3217 008b 48000000 		.4byte	0x48
 3218 008f 02       		.uleb128 0x2
 3219 0090 04       		.byte	0x4
 3220 0091 04       		.byte	0x4
 3221 0092 DF030000 		.4byte	.LASF12
 3222 0096 02       		.uleb128 0x2
 3223 0097 08       		.byte	0x8
 3224 0098 04       		.byte	0x4
 3225 0099 7A010000 		.4byte	.LASF13
 3226 009d 02       		.uleb128 0x2
 3227 009e 01       		.byte	0x1
 3228 009f 08       		.byte	0x8
 3229 00a0 C4040000 		.4byte	.LASF14
 3230 00a4 04       		.uleb128 0x4
 3231 00a5 54050000 		.4byte	.LASF15
 3232 00a9 02       		.byte	0x2
 3233 00aa DA01     		.2byte	0x1da
 3234 00ac 48000000 		.4byte	0x48
 3235 00b0 04       		.uleb128 0x4
 3236 00b1 27040000 		.4byte	.LASF16
 3237 00b5 02       		.byte	0x2
 3238 00b6 E201     		.2byte	0x1e2
 3239 00b8 BC000000 		.4byte	0xbc
 3240 00bc 05       		.uleb128 0x5
 3241 00bd 6B000000 		.4byte	0x6b
 3242 00c1 04       		.uleb128 0x4
 3243 00c2 F0020000 		.4byte	.LASF17
 3244 00c6 02       		.byte	0x2
 3245 00c7 E401     		.2byte	0x1e4
 3246 00c9 CD000000 		.4byte	0xcd
 3247 00cd 05       		.uleb128 0x5
 3248 00ce 83000000 		.4byte	0x83
 3249 00d2 02       		.uleb128 0x2
 3250 00d3 04       		.byte	0x4
 3251 00d4 07       		.byte	0x7
 3252 00d5 0D030000 		.4byte	.LASF18
 3253 00d9 06       		.uleb128 0x6
 3254 00da 08       		.byte	0x8
 3255 00db 03       		.byte	0x3
 3256 00dc 50       		.byte	0x50
 3257 00dd 06010000 		.4byte	0x106
 3258 00e1 07       		.uleb128 0x7
 3259 00e2 36020000 		.4byte	.LASF19
 3260 00e6 03       		.byte	0x3
 3261 00e7 52       		.byte	0x52
 3262 00e8 6B000000 		.4byte	0x6b
 3263 00ec 00       		.byte	0
 3264 00ed 07       		.uleb128 0x7
 3265 00ee 1A000000 		.4byte	.LASF20
 3266 00f2 03       		.byte	0x3
 3267 00f3 53       		.byte	0x53
 3268 00f4 77000000 		.4byte	0x77
 3269 00f8 02       		.byte	0x2
 3270 00f9 07       		.uleb128 0x7
 3271 00fa DD000000 		.4byte	.LASF21
 3272 00fe 03       		.byte	0x3
 3273 00ff 54       		.byte	0x54
ARM GAS  C:\Users\LUKASC~1\AppData\Local\Temp\ccn8LSRc.s 			page 111


 3274 0100 06010000 		.4byte	0x106
 3275 0104 04       		.byte	0x4
 3276 0105 00       		.byte	0
 3277 0106 08       		.uleb128 0x8
 3278 0107 04       		.byte	0x4
 3279 0108 6B000000 		.4byte	0x6b
 3280 010c 09       		.uleb128 0x9
 3281 010d 60010000 		.4byte	.LASF22
 3282 0111 03       		.byte	0x3
 3283 0112 55       		.byte	0x55
 3284 0113 D9000000 		.4byte	0xd9
 3285 0117 06       		.uleb128 0x6
 3286 0118 0C       		.byte	0xc
 3287 0119 03       		.byte	0x3
 3288 011a 57       		.byte	0x57
 3289 011b 44010000 		.4byte	0x144
 3290 011f 07       		.uleb128 0x7
 3291 0120 18050000 		.4byte	.LASF23
 3292 0124 03       		.byte	0x3
 3293 0125 59       		.byte	0x59
 3294 0126 A4000000 		.4byte	0xa4
 3295 012a 00       		.byte	0
 3296 012b 07       		.uleb128 0x7
 3297 012c 1A000000 		.4byte	.LASF20
 3298 0130 03       		.byte	0x3
 3299 0131 5A       		.byte	0x5a
 3300 0132 77000000 		.4byte	0x77
 3301 0136 04       		.byte	0x4
 3302 0137 07       		.uleb128 0x7
 3303 0138 F9030000 		.4byte	.LASF24
 3304 013c 03       		.byte	0x3
 3305 013d 5B       		.byte	0x5b
 3306 013e 06010000 		.4byte	0x106
 3307 0142 08       		.byte	0x8
 3308 0143 00       		.byte	0
 3309 0144 09       		.uleb128 0x9
 3310 0145 DB010000 		.4byte	.LASF25
 3311 0149 03       		.byte	0x3
 3312 014a 5C       		.byte	0x5c
 3313 014b 17010000 		.4byte	0x117
 3314 014f 09       		.uleb128 0x9
 3315 0150 A5020000 		.4byte	.LASF26
 3316 0154 03       		.byte	0x3
 3317 0155 60       		.byte	0x60
 3318 0156 5A010000 		.4byte	0x15a
 3319 015a 08       		.uleb128 0x8
 3320 015b 04       		.byte	0x4
 3321 015c 60010000 		.4byte	0x160
 3322 0160 0A       		.uleb128 0xa
 3323 0161 70010000 		.4byte	0x170
 3324 0165 0B       		.uleb128 0xb
 3325 0166 70010000 		.4byte	0x170
 3326 016a 0B       		.uleb128 0xb
 3327 016b 76010000 		.4byte	0x176
 3328 016f 00       		.byte	0
 3329 0170 08       		.uleb128 0x8
 3330 0171 04       		.byte	0x4
ARM GAS  C:\Users\LUKASC~1\AppData\Local\Temp\ccn8LSRc.s 			page 112


 3331 0172 0C010000 		.4byte	0x10c
 3332 0176 08       		.uleb128 0x8
 3333 0177 04       		.byte	0x4
 3334 0178 44010000 		.4byte	0x144
 3335 017c 06       		.uleb128 0x6
 3336 017d 08       		.byte	0x8
 3337 017e 04       		.byte	0x4
 3338 017f 16       		.byte	0x16
 3339 0180 A9010000 		.4byte	0x1a9
 3340 0184 07       		.uleb128 0x7
 3341 0185 0E050000 		.4byte	.LASF27
 3342 0189 04       		.byte	0x4
 3343 018a 18       		.byte	0x18
 3344 018b 83000000 		.4byte	0x83
 3345 018f 00       		.byte	0
 3346 0190 07       		.uleb128 0x7
 3347 0191 EB040000 		.4byte	.LASF28
 3348 0195 04       		.byte	0x4
 3349 0196 19       		.byte	0x19
 3350 0197 6B000000 		.4byte	0x6b
 3351 019b 04       		.byte	0x4
 3352 019c 07       		.uleb128 0x7
 3353 019d 1F050000 		.4byte	.LASF29
 3354 01a1 04       		.byte	0x4
 3355 01a2 1A       		.byte	0x1a
 3356 01a3 A9010000 		.4byte	0x1a9
 3357 01a7 05       		.byte	0x5
 3358 01a8 00       		.byte	0
 3359 01a9 0C       		.uleb128 0xc
 3360 01aa 6B000000 		.4byte	0x6b
 3361 01ae B9010000 		.4byte	0x1b9
 3362 01b2 0D       		.uleb128 0xd
 3363 01b3 D2000000 		.4byte	0xd2
 3364 01b7 02       		.byte	0x2
 3365 01b8 00       		.byte	0
 3366 01b9 09       		.uleb128 0x9
 3367 01ba 2E030000 		.4byte	.LASF30
 3368 01be 04       		.byte	0x4
 3369 01bf 1C       		.byte	0x1c
 3370 01c0 7C010000 		.4byte	0x17c
 3371 01c4 0E       		.uleb128 0xe
 3372 01c5 5B020000 		.4byte	.LASF34
 3373 01c9 01       		.byte	0x1
 3374 01ca 8401     		.2byte	0x184
 3375 01cc 77000000 		.4byte	0x77
 3376 01d0 00000000 		.4byte	.LFB34
 3377 01d4 58000000 		.4byte	.LFE34-.LFB34
 3378 01d8 01       		.uleb128 0x1
 3379 01d9 9C       		.byte	0x9c
 3380 01da 0C020000 		.4byte	0x20c
 3381 01de 0F       		.uleb128 0xf
 3382 01df E4040000 		.4byte	.LASF31
 3383 01e3 01       		.byte	0x1
 3384 01e4 8401     		.2byte	0x184
 3385 01e6 0C020000 		.4byte	0x20c
 3386 01ea 02       		.uleb128 0x2
 3387 01eb 91       		.byte	0x91
ARM GAS  C:\Users\LUKASC~1\AppData\Local\Temp\ccn8LSRc.s 			page 113


 3388 01ec 6C       		.sleb128 -20
 3389 01ed 0F       		.uleb128 0xf
 3390 01ee 79020000 		.4byte	.LASF32
 3391 01f2 01       		.byte	0x1
 3392 01f3 8401     		.2byte	0x184
 3393 01f5 77000000 		.4byte	0x77
 3394 01f9 02       		.uleb128 0x2
 3395 01fa 91       		.byte	0x91
 3396 01fb 6A       		.sleb128 -22
 3397 01fc 10       		.uleb128 0x10
 3398 01fd 73756D00 		.ascii	"sum\000"
 3399 0201 01       		.byte	0x1
 3400 0202 B301     		.2byte	0x1b3
 3401 0204 77000000 		.4byte	0x77
 3402 0208 02       		.uleb128 0x2
 3403 0209 91       		.byte	0x91
 3404 020a 76       		.sleb128 -10
 3405 020b 00       		.byte	0
 3406 020c 08       		.uleb128 0x8
 3407 020d 04       		.byte	0x4
 3408 020e 12020000 		.4byte	0x212
 3409 0212 11       		.uleb128 0x11
 3410 0213 6B000000 		.4byte	0x6b
 3411 0217 12       		.uleb128 0x12
 3412 0218 C7030000 		.4byte	.LASF41
 3413 021c 01       		.byte	0x1
 3414 021d CC01     		.2byte	0x1cc
 3415 021f 00000000 		.4byte	.LFB35
 3416 0223 18000000 		.4byte	.LFE35-.LFB35
 3417 0227 01       		.uleb128 0x1
 3418 0228 9C       		.byte	0x9c
 3419 0229 3D020000 		.4byte	0x23d
 3420 022d 0F       		.uleb128 0xf
 3421 022e 40040000 		.4byte	.LASF33
 3422 0232 01       		.byte	0x1
 3423 0233 CC01     		.2byte	0x1cc
 3424 0235 4F010000 		.4byte	0x14f
 3425 0239 02       		.uleb128 0x2
 3426 023a 91       		.byte	0x91
 3427 023b 74       		.sleb128 -12
 3428 023c 00       		.byte	0
 3429 023d 0E       		.uleb128 0xe
 3430 023e 04010000 		.4byte	.LASF35
 3431 0242 01       		.byte	0x1
 3432 0243 EB01     		.2byte	0x1eb
 3433 0245 6B000000 		.4byte	0x6b
 3434 0249 00000000 		.4byte	.LFB36
 3435 024d 72000000 		.4byte	.LFE36-.LFB36
 3436 0251 01       		.uleb128 0x1
 3437 0252 9C       		.byte	0x9c
 3438 0253 A3020000 		.4byte	0x2a3
 3439 0257 0F       		.uleb128 0xf
 3440 0258 07040000 		.4byte	.LASF36
 3441 025c 01       		.byte	0x1
 3442 025d EB01     		.2byte	0x1eb
 3443 025f 83000000 		.4byte	0x83
 3444 0263 02       		.uleb128 0x2
ARM GAS  C:\Users\LUKASC~1\AppData\Local\Temp\ccn8LSRc.s 			page 114


 3445 0264 91       		.byte	0x91
 3446 0265 6C       		.sleb128 -20
 3447 0266 0F       		.uleb128 0xf
 3448 0267 43050000 		.4byte	.LASF37
 3449 026b 01       		.byte	0x1
 3450 026c EB01     		.2byte	0x1eb
 3451 026e 0C020000 		.4byte	0x20c
 3452 0272 02       		.uleb128 0x2
 3453 0273 91       		.byte	0x91
 3454 0274 68       		.sleb128 -24
 3455 0275 0F       		.uleb128 0xf
 3456 0276 79020000 		.4byte	.LASF32
 3457 027a 01       		.byte	0x1
 3458 027b EB01     		.2byte	0x1eb
 3459 027d 77000000 		.4byte	0x77
 3460 0281 02       		.uleb128 0x2
 3461 0282 91       		.byte	0x91
 3462 0283 66       		.sleb128 -26
 3463 0284 13       		.uleb128 0x13
 3464 0285 62060000 		.4byte	.LASF38
 3465 0289 01       		.byte	0x1
 3466 028a EE01     		.2byte	0x1ee
 3467 028c 6B000000 		.4byte	0x6b
 3468 0290 02       		.uleb128 0x2
 3469 0291 91       		.byte	0x91
 3470 0292 77       		.sleb128 -9
 3471 0293 10       		.uleb128 0x10
 3472 0294 69647800 		.ascii	"idx\000"
 3473 0298 01       		.byte	0x1
 3474 0299 EF01     		.2byte	0x1ef
 3475 029b 77000000 		.4byte	0x77
 3476 029f 02       		.uleb128 0x2
 3477 02a0 91       		.byte	0x91
 3478 02a1 74       		.sleb128 -12
 3479 02a2 00       		.byte	0
 3480 02a3 14       		.uleb128 0x14
 3481 02a4 F6020000 		.4byte	.LASF50
 3482 02a8 01       		.byte	0x1
 3483 02a9 1602     		.2byte	0x216
 3484 02ab 6B000000 		.4byte	0x6b
 3485 02af 00000000 		.4byte	.LFB37
 3486 02b3 56000000 		.4byte	.LFE37-.LFB37
 3487 02b7 01       		.uleb128 0x1
 3488 02b8 9C       		.byte	0x9c
 3489 02b9 FA020000 		.4byte	0x2fa
 3490 02bd 0F       		.uleb128 0xf
 3491 02be 27000000 		.4byte	.LASF39
 3492 02c2 01       		.byte	0x1
 3493 02c3 1602     		.2byte	0x216
 3494 02c5 83000000 		.4byte	0x83
 3495 02c9 02       		.uleb128 0x2
 3496 02ca 91       		.byte	0x91
 3497 02cb 6C       		.sleb128 -20
 3498 02cc 0F       		.uleb128 0xf
 3499 02cd 0B060000 		.4byte	.LASF40
 3500 02d1 01       		.byte	0x1
 3501 02d2 1602     		.2byte	0x216
ARM GAS  C:\Users\LUKASC~1\AppData\Local\Temp\ccn8LSRc.s 			page 115


 3502 02d4 83000000 		.4byte	0x83
 3503 02d8 02       		.uleb128 0x2
 3504 02d9 91       		.byte	0x91
 3505 02da 68       		.sleb128 -24
 3506 02db 0F       		.uleb128 0xf
 3507 02dc 79020000 		.4byte	.LASF32
 3508 02e0 01       		.byte	0x1
 3509 02e1 1602     		.2byte	0x216
 3510 02e3 83000000 		.4byte	0x83
 3511 02e7 02       		.uleb128 0x2
 3512 02e8 91       		.byte	0x91
 3513 02e9 64       		.sleb128 -28
 3514 02ea 10       		.uleb128 0x10
 3515 02eb 73756D00 		.ascii	"sum\000"
 3516 02ef 01       		.byte	0x1
 3517 02f0 1902     		.2byte	0x219
 3518 02f2 6B000000 		.4byte	0x6b
 3519 02f6 02       		.uleb128 0x2
 3520 02f7 91       		.byte	0x91
 3521 02f8 77       		.sleb128 -9
 3522 02f9 00       		.byte	0
 3523 02fa 15       		.uleb128 0x15
 3524 02fb D3040000 		.4byte	.LASF42
 3525 02ff 01       		.byte	0x1
 3526 0300 4603     		.2byte	0x346
 3527 0302 00000000 		.4byte	.LFB38
 3528 0306 A0000000 		.4byte	.LFE38-.LFB38
 3529 030a 01       		.uleb128 0x1
 3530 030b 9C       		.byte	0x9c
 3531 030c 2F030000 		.4byte	0x32f
 3532 0310 13       		.uleb128 0x13
 3533 0311 59060000 		.4byte	.LASF43
 3534 0315 01       		.byte	0x1
 3535 0316 5003     		.2byte	0x350
 3536 0318 A4000000 		.4byte	0xa4
 3537 031c 02       		.uleb128 0x2
 3538 031d 91       		.byte	0x91
 3539 031e 6C       		.sleb128 -20
 3540 031f 13       		.uleb128 0x13
 3541 0320 9F000000 		.4byte	.LASF44
 3542 0324 01       		.byte	0x1
 3543 0325 5303     		.2byte	0x353
 3544 0327 6B000000 		.4byte	0x6b
 3545 032b 02       		.uleb128 0x2
 3546 032c 91       		.byte	0x91
 3547 032d 6B       		.sleb128 -21
 3548 032e 00       		.byte	0
 3549 032f 16       		.uleb128 0x16
 3550 0330 D3020000 		.4byte	.LASF103
 3551 0334 01       		.byte	0x1
 3552 0335 6604     		.2byte	0x466
 3553 0337 00000000 		.4byte	.LFB39
 3554 033b 18000000 		.4byte	.LFE39-.LFB39
 3555 033f 01       		.uleb128 0x1
 3556 0340 9C       		.byte	0x9c
 3557 0341 15       		.uleb128 0x15
 3558 0342 79040000 		.4byte	.LASF45
ARM GAS  C:\Users\LUKASC~1\AppData\Local\Temp\ccn8LSRc.s 			page 116


 3559 0346 01       		.byte	0x1
 3560 0347 8B04     		.2byte	0x48b
 3561 0349 00000000 		.4byte	.LFB40
 3562 034d 98000000 		.4byte	.LFE40-.LFB40
 3563 0351 01       		.uleb128 0x1
 3564 0352 9C       		.byte	0x9c
 3565 0353 80030000 		.4byte	0x380
 3566 0357 0F       		.uleb128 0xf
 3567 0358 2C040000 		.4byte	.LASF46
 3568 035c 01       		.byte	0x1
 3569 035d 8B04     		.2byte	0x48b
 3570 035f 6B000000 		.4byte	0x6b
 3571 0363 02       		.uleb128 0x2
 3572 0364 91       		.byte	0x91
 3573 0365 6F       		.sleb128 -17
 3574 0366 17       		.uleb128 0x17
 3575 0367 2A000000 		.4byte	.LBB2
 3576 036b 54000000 		.4byte	.LBE2-.LBB2
 3577 036f 10       		.uleb128 0x10
 3578 0370 69647800 		.ascii	"idx\000"
 3579 0374 01       		.byte	0x1
 3580 0375 9604     		.2byte	0x496
 3581 0377 6B000000 		.4byte	0x6b
 3582 037b 02       		.uleb128 0x2
 3583 037c 91       		.byte	0x91
 3584 037d 77       		.sleb128 -9
 3585 037e 00       		.byte	0
 3586 037f 00       		.byte	0
 3587 0380 15       		.uleb128 0x15
 3588 0381 BC010000 		.4byte	.LASF47
 3589 0385 01       		.byte	0x1
 3590 0386 C004     		.2byte	0x4c0
 3591 0388 00000000 		.4byte	.LFB41
 3592 038c 5C000000 		.4byte	.LFE41-.LFB41
 3593 0390 01       		.uleb128 0x1
 3594 0391 9C       		.byte	0x9c
 3595 0392 B0030000 		.4byte	0x3b0
 3596 0396 17       		.uleb128 0x17
 3597 0397 1E000000 		.4byte	.LBB3
 3598 039b 30000000 		.4byte	.LBE3-.LBB3
 3599 039f 13       		.uleb128 0x13
 3600 03a0 50010000 		.4byte	.LASF48
 3601 03a4 01       		.byte	0x1
 3602 03a5 DC04     		.2byte	0x4dc
 3603 03a7 6B000000 		.4byte	0x6b
 3604 03ab 02       		.uleb128 0x2
 3605 03ac 91       		.byte	0x91
 3606 03ad 77       		.sleb128 -9
 3607 03ae 00       		.byte	0
 3608 03af 00       		.byte	0
 3609 03b0 18       		.uleb128 0x18
 3610 03b1 3A000000 		.4byte	.LASF54
 3611 03b5 01       		.byte	0x1
 3612 03b6 1405     		.2byte	0x514
 3613 03b8 00000000 		.4byte	.LFB42
 3614 03bc 02000000 		.4byte	.LFE42-.LFB42
 3615 03c0 01       		.uleb128 0x1
ARM GAS  C:\Users\LUKASC~1\AppData\Local\Temp\ccn8LSRc.s 			page 117


 3616 03c1 9C       		.byte	0x9c
 3617 03c2 D5030000 		.4byte	0x3d5
 3618 03c6 0F       		.uleb128 0xf
 3619 03c7 16020000 		.4byte	.LASF49
 3620 03cb 01       		.byte	0x1
 3621 03cc 1405     		.2byte	0x514
 3622 03ce 83000000 		.4byte	0x83
 3623 03d2 01       		.uleb128 0x1
 3624 03d3 50       		.byte	0x50
 3625 03d4 00       		.byte	0
 3626 03d5 14       		.uleb128 0x14
 3627 03d6 89040000 		.4byte	.LASF51
 3628 03da 01       		.byte	0x1
 3629 03db 3F05     		.2byte	0x53f
 3630 03dd A4000000 		.4byte	0xa4
 3631 03e1 00000000 		.4byte	.LFB43
 3632 03e5 10010000 		.4byte	.LFE43-.LFB43
 3633 03e9 01       		.uleb128 0x1
 3634 03ea 9C       		.byte	0x9c
 3635 03eb 54040000 		.4byte	0x454
 3636 03ef 0F       		.uleb128 0xf
 3637 03f0 2C040000 		.4byte	.LASF46
 3638 03f4 01       		.byte	0x1
 3639 03f5 3F05     		.2byte	0x53f
 3640 03f7 6B000000 		.4byte	0x6b
 3641 03fb 02       		.uleb128 0x2
 3642 03fc 91       		.byte	0x91
 3643 03fd 5F       		.sleb128 -33
 3644 03fe 10       		.uleb128 0x10
 3645 03ff 69647800 		.ascii	"idx\000"
 3646 0403 01       		.byte	0x1
 3647 0404 4205     		.2byte	0x542
 3648 0406 83000000 		.4byte	0x83
 3649 040a 02       		.uleb128 0x2
 3650 040b 91       		.byte	0x91
 3651 040c 6C       		.sleb128 -20
 3652 040d 10       		.uleb128 0x10
 3653 040e 656E6400 		.ascii	"end\000"
 3654 0412 01       		.byte	0x1
 3655 0413 4405     		.2byte	0x544
 3656 0415 83000000 		.4byte	0x83
 3657 0419 02       		.uleb128 0x2
 3658 041a 91       		.byte	0x91
 3659 041b 64       		.sleb128 -28
 3660 041c 13       		.uleb128 0x13
 3661 041d 73040000 		.4byte	.LASF52
 3662 0421 01       		.byte	0x1
 3663 0422 4705     		.2byte	0x547
 3664 0424 6B000000 		.4byte	0x6b
 3665 0428 02       		.uleb128 0x2
 3666 0429 91       		.byte	0x91
 3667 042a 6B       		.sleb128 -21
 3668 042b 13       		.uleb128 0x13
 3669 042c 9F000000 		.4byte	.LASF44
 3670 0430 01       		.byte	0x1
 3671 0431 4805     		.2byte	0x548
 3672 0433 6B000000 		.4byte	0x6b
ARM GAS  C:\Users\LUKASC~1\AppData\Local\Temp\ccn8LSRc.s 			page 118


 3673 0437 02       		.uleb128 0x2
 3674 0438 91       		.byte	0x91
 3675 0439 6A       		.sleb128 -22
 3676 043a 17       		.uleb128 0x17
 3677 043b 6C000000 		.4byte	.LBB4
 3678 043f 3A000000 		.4byte	.LBE4-.LBB4
 3679 0443 13       		.uleb128 0x13
 3680 0444 0B000000 		.4byte	.LASF53
 3681 0448 01       		.byte	0x1
 3682 0449 6105     		.2byte	0x561
 3683 044b 6B000000 		.4byte	0x6b
 3684 044f 02       		.uleb128 0x2
 3685 0450 91       		.byte	0x91
 3686 0451 63       		.sleb128 -29
 3687 0452 00       		.byte	0
 3688 0453 00       		.byte	0
 3689 0454 19       		.uleb128 0x19
 3690 0455 A8010000 		.4byte	.LASF55
 3691 0459 01       		.byte	0x1
 3692 045a 5C06     		.2byte	0x65c
 3693 045c 00000000 		.4byte	.LFB44
 3694 0460 D00A0000 		.4byte	.LFE44-.LFB44
 3695 0464 01       		.uleb128 0x1
 3696 0465 9C       		.byte	0x9c
 3697 0466 B0060000 		.4byte	0x6b0
 3698 046a 0F       		.uleb128 0xf
 3699 046b BE020000 		.4byte	.LASF56
 3700 046f 01       		.byte	0x1
 3701 0470 5C06     		.2byte	0x65c
 3702 0472 6B000000 		.4byte	0x6b
 3703 0476 03       		.uleb128 0x3
 3704 0477 91       		.byte	0x91
 3705 0478 BF79     		.sleb128 -833
 3706 047a 13       		.uleb128 0x13
 3707 047b 3C010000 		.4byte	.LASF57
 3708 047f 01       		.byte	0x1
 3709 0480 6306     		.2byte	0x663
 3710 0482 77000000 		.4byte	0x77
 3711 0486 03       		.uleb128 0x3
 3712 0487 91       		.byte	0x91
 3713 0488 B87F     		.sleb128 -72
 3714 048a 13       		.uleb128 0x13
 3715 048b 01020000 		.4byte	.LASF58
 3716 048f 01       		.byte	0x1
 3717 0490 6406     		.2byte	0x664
 3718 0492 77000000 		.4byte	0x77
 3719 0496 02       		.uleb128 0x2
 3720 0497 91       		.byte	0x91
 3721 0498 6E       		.sleb128 -18
 3722 0499 13       		.uleb128 0x13
 3723 049a 2E010000 		.4byte	.LASF59
 3724 049e 01       		.byte	0x1
 3725 049f 6506     		.2byte	0x665
 3726 04a1 6B000000 		.4byte	0x6b
 3727 04a5 02       		.uleb128 0x2
 3728 04a6 91       		.byte	0x91
 3729 04a7 6D       		.sleb128 -19
ARM GAS  C:\Users\LUKASC~1\AppData\Local\Temp\ccn8LSRc.s 			page 119


 3730 04a8 13       		.uleb128 0x13
 3731 04a9 67040000 		.4byte	.LASF60
 3732 04ad 01       		.byte	0x1
 3733 04ae 6606     		.2byte	0x666
 3734 04b0 77000000 		.4byte	0x77
 3735 04b4 02       		.uleb128 0x2
 3736 04b5 91       		.byte	0x91
 3737 04b6 56       		.sleb128 -42
 3738 04b7 13       		.uleb128 0x13
 3739 04b8 81010000 		.4byte	.LASF61
 3740 04bc 01       		.byte	0x1
 3741 04bd 6706     		.2byte	0x667
 3742 04bf A4000000 		.4byte	0xa4
 3743 04c3 02       		.uleb128 0x2
 3744 04c4 91       		.byte	0x91
 3745 04c5 58       		.sleb128 -40
 3746 04c6 13       		.uleb128 0x13
 3747 04c7 EB050000 		.4byte	.LASF62
 3748 04cb 01       		.byte	0x1
 3749 04cc 6806     		.2byte	0x668
 3750 04ce 77000000 		.4byte	0x77
 3751 04d2 02       		.uleb128 0x2
 3752 04d3 91       		.byte	0x91
 3753 04d4 6A       		.sleb128 -22
 3754 04d5 13       		.uleb128 0x13
 3755 04d6 00000000 		.4byte	.LASF63
 3756 04da 01       		.byte	0x1
 3757 04db 6906     		.2byte	0x669
 3758 04dd 6B000000 		.4byte	0x6b
 3759 04e1 02       		.uleb128 0x2
 3760 04e2 91       		.byte	0x91
 3761 04e3 69       		.sleb128 -23
 3762 04e4 13       		.uleb128 0x13
 3763 04e5 FB050000 		.4byte	.LASF64
 3764 04e9 01       		.byte	0x1
 3765 04ea 6C06     		.2byte	0x66c
 3766 04ec 6B000000 		.4byte	0x6b
 3767 04f0 02       		.uleb128 0x2
 3768 04f1 91       		.byte	0x91
 3769 04f2 68       		.sleb128 -24
 3770 04f3 13       		.uleb128 0x13
 3771 04f4 61000000 		.4byte	.LASF65
 3772 04f8 01       		.byte	0x1
 3773 04f9 7706     		.2byte	0x677
 3774 04fb 6B000000 		.4byte	0x6b
 3775 04ff 02       		.uleb128 0x2
 3776 0500 91       		.byte	0x91
 3777 0501 67       		.sleb128 -25
 3778 0502 13       		.uleb128 0x13
 3779 0503 F6010000 		.4byte	.LASF66
 3780 0507 01       		.byte	0x1
 3781 0508 7806     		.2byte	0x678
 3782 050a 77000000 		.4byte	0x77
 3783 050e 02       		.uleb128 0x2
 3784 050f 91       		.byte	0x91
 3785 0510 64       		.sleb128 -28
 3786 0511 13       		.uleb128 0x13
ARM GAS  C:\Users\LUKASC~1\AppData\Local\Temp\ccn8LSRc.s 			page 120


 3787 0512 74000000 		.4byte	.LASF67
 3788 0516 01       		.byte	0x1
 3789 0517 7B06     		.2byte	0x67b
 3790 0519 B0060000 		.4byte	0x6b0
 3791 051d 03       		.uleb128 0x3
 3792 051e 91       		.byte	0x91
 3793 051f 8C7D     		.sleb128 -372
 3794 0521 13       		.uleb128 0x13
 3795 0522 D0010000 		.4byte	.LASF68
 3796 0526 01       		.byte	0x1
 3797 0527 7C06     		.2byte	0x67c
 3798 0529 B0060000 		.4byte	0x6b0
 3799 052d 03       		.uleb128 0x3
 3800 052e 91       		.byte	0x91
 3801 052f E07A     		.sleb128 -672
 3802 0531 17       		.uleb128 0x17
 3803 0532 00020000 		.4byte	.LBB5
 3804 0536 76080000 		.4byte	.LBE5-.LBB5
 3805 053a 13       		.uleb128 0x13
 3806 053b 30000000 		.4byte	.LASF69
 3807 053f 01       		.byte	0x1
 3808 0540 E306     		.2byte	0x6e3
 3809 0542 6B000000 		.4byte	0x6b
 3810 0546 02       		.uleb128 0x2
 3811 0547 91       		.byte	0x91
 3812 0548 55       		.sleb128 -43
 3813 0549 1A       		.uleb128 0x1a
 3814 054a AA020000 		.4byte	.LBB6
 3815 054e 24010000 		.4byte	.LBE6-.LBB6
 3816 0552 84050000 		.4byte	0x584
 3817 0556 13       		.uleb128 0x13
 3818 0557 81000000 		.4byte	.LASF70
 3819 055b 01       		.byte	0x1
 3820 055c 2C07     		.2byte	0x72c
 3821 055e 77000000 		.4byte	0x77
 3822 0562 02       		.uleb128 0x2
 3823 0563 91       		.byte	0x91
 3824 0564 52       		.sleb128 -46
 3825 0565 13       		.uleb128 0x13
 3826 0566 C9040000 		.4byte	.LASF71
 3827 056a 01       		.byte	0x1
 3828 056b 2F07     		.2byte	0x72f
 3829 056d 83000000 		.4byte	0x83
 3830 0571 02       		.uleb128 0x2
 3831 0572 91       		.byte	0x91
 3832 0573 4C       		.sleb128 -52
 3833 0574 13       		.uleb128 0x13
 3834 0575 3E020000 		.4byte	.LASF72
 3835 0579 01       		.byte	0x1
 3836 057a 3007     		.2byte	0x730
 3837 057c 77000000 		.4byte	0x77
 3838 0580 02       		.uleb128 0x2
 3839 0581 91       		.byte	0x91
 3840 0582 50       		.sleb128 -48
 3841 0583 00       		.byte	0
 3842 0584 1A       		.uleb128 0x1a
 3843 0585 EE030000 		.4byte	.LBB7
ARM GAS  C:\Users\LUKASC~1\AppData\Local\Temp\ccn8LSRc.s 			page 121


 3844 0589 B8000000 		.4byte	.LBE7-.LBB7
 3845 058d B0050000 		.4byte	0x5b0
 3846 0591 13       		.uleb128 0x13
 3847 0592 D4000000 		.4byte	.LASF73
 3848 0596 01       		.byte	0x1
 3849 0597 A107     		.2byte	0x7a1
 3850 0599 77000000 		.4byte	0x77
 3851 059d 02       		.uleb128 0x2
 3852 059e 91       		.byte	0x91
 3853 059f 62       		.sleb128 -30
 3854 05a0 13       		.uleb128 0x13
 3855 05a1 31050000 		.4byte	.LASF74
 3856 05a5 01       		.byte	0x1
 3857 05a6 A207     		.2byte	0x7a2
 3858 05a8 6B000000 		.4byte	0x6b
 3859 05ac 02       		.uleb128 0x2
 3860 05ad 91       		.byte	0x91
 3861 05ae 4B       		.sleb128 -53
 3862 05af 00       		.byte	0
 3863 05b0 1A       		.uleb128 0x1a
 3864 05b1 0C050000 		.4byte	.LBB8
 3865 05b5 AC010000 		.4byte	.LBE8-.LBB8
 3866 05b9 1E060000 		.4byte	0x61e
 3867 05bd 13       		.uleb128 0x13
 3868 05be 3E020000 		.4byte	.LASF72
 3869 05c2 01       		.byte	0x1
 3870 05c3 2B08     		.2byte	0x82b
 3871 05c5 77000000 		.4byte	0x77
 3872 05c9 02       		.uleb128 0x2
 3873 05ca 91       		.byte	0x91
 3874 05cb 48       		.sleb128 -56
 3875 05cc 17       		.uleb128 0x17
 3876 05cd 76050000 		.4byte	.LBB9
 3877 05d1 2E010000 		.4byte	.LBE9-.LBB9
 3878 05d5 10       		.uleb128 0x10
 3879 05d6 726F7700 		.ascii	"row\000"
 3880 05da 01       		.byte	0x1
 3881 05db 5308     		.2byte	0x853
 3882 05dd 77000000 		.4byte	0x77
 3883 05e1 02       		.uleb128 0x2
 3884 05e2 91       		.byte	0x91
 3885 05e3 46       		.sleb128 -58
 3886 05e4 13       		.uleb128 0x13
 3887 05e5 B5030000 		.4byte	.LASF75
 3888 05e9 01       		.byte	0x1
 3889 05ea 5408     		.2byte	0x854
 3890 05ec 77000000 		.4byte	0x77
 3891 05f0 02       		.uleb128 0x2
 3892 05f1 91       		.byte	0x91
 3893 05f2 60       		.sleb128 -32
 3894 05f3 17       		.uleb128 0x17
 3895 05f4 4C060000 		.4byte	.LBB10
 3896 05f8 36000000 		.4byte	.LBE10-.LBB10
 3897 05fc 13       		.uleb128 0x13
 3898 05fd 36010000 		.4byte	.LASF76
 3899 0601 01       		.byte	0x1
 3900 0602 E208     		.2byte	0x8e2
ARM GAS  C:\Users\LUKASC~1\AppData\Local\Temp\ccn8LSRc.s 			page 122


 3901 0604 C1060000 		.4byte	0x6c1
 3902 0608 03       		.uleb128 0x3
 3903 0609 91       		.byte	0x91
 3904 060a C479     		.sleb128 -828
 3905 060c 13       		.uleb128 0x13
 3906 060d 41060000 		.4byte	.LASF77
 3907 0611 01       		.byte	0x1
 3908 0612 E308     		.2byte	0x8e3
 3909 0614 6B000000 		.4byte	0x6b
 3910 0618 02       		.uleb128 0x2
 3911 0619 91       		.byte	0x91
 3912 061a 45       		.sleb128 -59
 3913 061b 00       		.byte	0
 3914 061c 00       		.byte	0
 3915 061d 00       		.byte	0
 3916 061e 1A       		.uleb128 0x1a
 3917 061f 80070000 		.4byte	.LBB11
 3918 0623 4E000000 		.4byte	.LBE11-.LBB11
 3919 0627 3C060000 		.4byte	0x63c
 3920 062b 13       		.uleb128 0x13
 3921 062c C6020000 		.4byte	.LASF78
 3922 0630 01       		.byte	0x1
 3923 0631 9C09     		.2byte	0x99c
 3924 0633 B9010000 		.4byte	0x1b9
 3925 0637 03       		.uleb128 0x3
 3926 0638 91       		.byte	0x91
 3927 0639 D87A     		.sleb128 -680
 3928 063b 00       		.byte	0
 3929 063c 1A       		.uleb128 0x1a
 3930 063d F2070000 		.4byte	.LBB12
 3931 0641 0C010000 		.4byte	.LBE12-.LBB12
 3932 0645 88060000 		.4byte	0x688
 3933 0649 13       		.uleb128 0x13
 3934 064a 81000000 		.4byte	.LASF70
 3935 064e 01       		.byte	0x1
 3936 064f DD09     		.2byte	0x9dd
 3937 0651 77000000 		.4byte	0x77
 3938 0655 02       		.uleb128 0x2
 3939 0656 91       		.byte	0x91
 3940 0657 42       		.sleb128 -62
 3941 0658 13       		.uleb128 0x13
 3942 0659 37060000 		.4byte	.LASF79
 3943 065d 01       		.byte	0x1
 3944 065e E009     		.2byte	0x9e0
 3945 0660 77000000 		.4byte	0x77
 3946 0664 03       		.uleb128 0x3
 3947 0665 91       		.byte	0x91
 3948 0666 BA7F     		.sleb128 -70
 3949 0668 13       		.uleb128 0x13
 3950 0669 55040000 		.4byte	.LASF80
 3951 066d 01       		.byte	0x1
 3952 066e 0C0A     		.2byte	0xa0c
 3953 0670 83000000 		.4byte	0x83
 3954 0674 03       		.uleb128 0x3
 3955 0675 91       		.byte	0x91
 3956 0676 BC7F     		.sleb128 -68
 3957 0678 13       		.uleb128 0x13
ARM GAS  C:\Users\LUKASC~1\AppData\Local\Temp\ccn8LSRc.s 			page 123


 3958 0679 58000000 		.4byte	.LASF81
 3959 067d 01       		.byte	0x1
 3960 067e 0F0A     		.2byte	0xa0f
 3961 0680 6B000000 		.4byte	0x6b
 3962 0684 02       		.uleb128 0x2
 3963 0685 91       		.byte	0x91
 3964 0686 5F       		.sleb128 -33
 3965 0687 00       		.byte	0
 3966 0688 1B       		.uleb128 0x1b
 3967 0689 00000000 		.4byte	.Ldebug_ranges0+0
 3968 068d 13       		.uleb128 0x13
 3969 068e 91020000 		.4byte	.LASF82
 3970 0692 01       		.byte	0x1
 3971 0693 7F0A     		.2byte	0xa7f
 3972 0695 0C010000 		.4byte	0x10c
 3973 0699 03       		.uleb128 0x3
 3974 069a 91       		.byte	0x91
 3975 069b D07A     		.sleb128 -688
 3976 069d 13       		.uleb128 0x13
 3977 069e 19010000 		.4byte	.LASF83
 3978 06a2 01       		.byte	0x1
 3979 06a3 800A     		.2byte	0xa80
 3980 06a5 44010000 		.4byte	0x144
 3981 06a9 03       		.uleb128 0x3
 3982 06aa 91       		.byte	0x91
 3983 06ab C47A     		.sleb128 -700
 3984 06ad 00       		.byte	0
 3985 06ae 00       		.byte	0
 3986 06af 00       		.byte	0
 3987 06b0 0C       		.uleb128 0xc
 3988 06b1 6B000000 		.4byte	0x6b
 3989 06b5 C1060000 		.4byte	0x6c1
 3990 06b9 1C       		.uleb128 0x1c
 3991 06ba D2000000 		.4byte	0xd2
 3992 06be 2B01     		.2byte	0x12b
 3993 06c0 00       		.byte	0
 3994 06c1 0C       		.uleb128 0xc
 3995 06c2 6B000000 		.4byte	0x6b
 3996 06c6 D1060000 		.4byte	0x6d1
 3997 06ca 0D       		.uleb128 0xd
 3998 06cb D2000000 		.4byte	0xd2
 3999 06cf 7F       		.byte	0x7f
 4000 06d0 00       		.byte	0
 4001 06d1 1D       		.uleb128 0x1d
 4002 06d2 BD000000 		.4byte	.LASF84
 4003 06d6 01       		.byte	0x1
 4004 06d7 C10A     		.2byte	0xac1
 4005 06d9 A4000000 		.4byte	0xa4
 4006 06dd 00000000 		.4byte	.LFB45
 4007 06e1 B8000000 		.4byte	.LFE45-.LFB45
 4008 06e5 01       		.uleb128 0x1
 4009 06e6 9C       		.byte	0x9c
 4010 06e7 28070000 		.4byte	0x728
 4011 06eb 0F       		.uleb128 0xf
 4012 06ec 18050000 		.4byte	.LASF23
 4013 06f0 01       		.byte	0x1
 4014 06f1 C10A     		.2byte	0xac1
ARM GAS  C:\Users\LUKASC~1\AppData\Local\Temp\ccn8LSRc.s 			page 124


 4015 06f3 6B000000 		.4byte	0x6b
 4016 06f7 02       		.uleb128 0x2
 4017 06f8 91       		.byte	0x91
 4018 06f9 67       		.sleb128 -25
 4019 06fa 0F       		.uleb128 0xf
 4020 06fb E4040000 		.4byte	.LASF31
 4021 06ff 01       		.byte	0x1
 4022 0700 C10A     		.2byte	0xac1
 4023 0702 06010000 		.4byte	0x106
 4024 0706 02       		.uleb128 0x2
 4025 0707 91       		.byte	0x91
 4026 0708 60       		.sleb128 -32
 4027 0709 0F       		.uleb128 0xf
 4028 070a 79020000 		.4byte	.LASF32
 4029 070e 01       		.byte	0x1
 4030 070f C10A     		.2byte	0xac1
 4031 0711 77000000 		.4byte	0x77
 4032 0715 02       		.uleb128 0x2
 4033 0716 91       		.byte	0x91
 4034 0717 64       		.sleb128 -28
 4035 0718 13       		.uleb128 0x13
 4036 0719 58000000 		.4byte	.LASF81
 4037 071d 01       		.byte	0x1
 4038 071e C40A     		.2byte	0xac4
 4039 0720 77000000 		.4byte	0x77
 4040 0724 02       		.uleb128 0x2
 4041 0725 91       		.byte	0x91
 4042 0726 6E       		.sleb128 -18
 4043 0727 00       		.byte	0
 4044 0728 15       		.uleb128 0x15
 4045 0729 1E020000 		.4byte	.LASF85
 4046 072d 01       		.byte	0x1
 4047 072e E50A     		.2byte	0xae5
 4048 0730 00000000 		.4byte	.LFB46
 4049 0734 96000000 		.4byte	.LFE46-.LFB46
 4050 0738 01       		.uleb128 0x1
 4051 0739 9C       		.byte	0x9c
 4052 073a AB070000 		.4byte	0x7ab
 4053 073e 0F       		.uleb128 0xf
 4054 073f 20030000 		.4byte	.LASF86
 4055 0743 01       		.byte	0x1
 4056 0744 E50A     		.2byte	0xae5
 4057 0746 83000000 		.4byte	0x83
 4058 074a 03       		.uleb128 0x3
 4059 074b 91       		.byte	0x91
 4060 074c E47E     		.sleb128 -156
 4061 074e 0F       		.uleb128 0xf
 4062 074f 4D040000 		.4byte	.LASF87
 4063 0753 01       		.byte	0x1
 4064 0754 E50A     		.2byte	0xae5
 4065 0756 6B000000 		.4byte	0x6b
 4066 075a 03       		.uleb128 0x3
 4067 075b 91       		.byte	0x91
 4068 075c E37E     		.sleb128 -157
 4069 075e 13       		.uleb128 0x13
 4070 075f 4C050000 		.4byte	.LASF88
 4071 0763 01       		.byte	0x1
ARM GAS  C:\Users\LUKASC~1\AppData\Local\Temp\ccn8LSRc.s 			page 125


 4072 0764 E70A     		.2byte	0xae7
 4073 0766 83000000 		.4byte	0x83
 4074 076a 02       		.uleb128 0x2
 4075 076b 91       		.byte	0x91
 4076 076c 70       		.sleb128 -16
 4077 076d 13       		.uleb128 0x13
 4078 076e F3050000 		.4byte	.LASF89
 4079 0772 01       		.byte	0x1
 4080 0773 E80A     		.2byte	0xae8
 4081 0775 C1060000 		.4byte	0x6c1
 4082 0779 03       		.uleb128 0x3
 4083 077a 91       		.byte	0x91
 4084 077b E87E     		.sleb128 -152
 4085 077d 13       		.uleb128 0x13
 4086 077e 81000000 		.4byte	.LASF70
 4087 0782 01       		.byte	0x1
 4088 0783 EF0A     		.2byte	0xaef
 4089 0785 77000000 		.4byte	0x77
 4090 0789 02       		.uleb128 0x2
 4091 078a 91       		.byte	0x91
 4092 078b 6E       		.sleb128 -18
 4093 078c 13       		.uleb128 0x13
 4094 078d 27000000 		.4byte	.LASF39
 4095 0791 01       		.byte	0x1
 4096 0792 F40A     		.2byte	0xaf4
 4097 0794 83000000 		.4byte	0x83
 4098 0798 02       		.uleb128 0x2
 4099 0799 91       		.byte	0x91
 4100 079a 68       		.sleb128 -24
 4101 079b 10       		.uleb128 0x10
 4102 079c 69647800 		.ascii	"idx\000"
 4103 07a0 01       		.byte	0x1
 4104 07a1 F50A     		.2byte	0xaf5
 4105 07a3 77000000 		.4byte	0x77
 4106 07a7 02       		.uleb128 0x2
 4107 07a8 91       		.byte	0x91
 4108 07a9 76       		.sleb128 -10
 4109 07aa 00       		.byte	0
 4110 07ab 14       		.uleb128 0x14
 4111 07ac 91010000 		.4byte	.LASF90
 4112 07b0 01       		.byte	0x1
 4113 07b1 220B     		.2byte	0xb22
 4114 07b3 83000000 		.4byte	0x83
 4115 07b7 00000000 		.4byte	.LFB47
 4116 07bb 3C020000 		.4byte	.LFE47-.LFB47
 4117 07bf 01       		.uleb128 0x1
 4118 07c0 9C       		.byte	0x9c
 4119 07c1 11080000 		.4byte	0x811
 4120 07c5 0F       		.uleb128 0xf
 4121 07c6 28030000 		.4byte	.LASF91
 4122 07ca 01       		.byte	0x1
 4123 07cb 220B     		.2byte	0xb22
 4124 07cd 6B000000 		.4byte	0x6b
 4125 07d1 02       		.uleb128 0x2
 4126 07d2 91       		.byte	0x91
 4127 07d3 67       		.sleb128 -25
 4128 07d4 0F       		.uleb128 0xf
ARM GAS  C:\Users\LUKASC~1\AppData\Local\Temp\ccn8LSRc.s 			page 126


 4129 07d5 2C040000 		.4byte	.LASF46
 4130 07d9 01       		.byte	0x1
 4131 07da 220B     		.2byte	0xb22
 4132 07dc 6B000000 		.4byte	0x6b
 4133 07e0 02       		.uleb128 0x2
 4134 07e1 91       		.byte	0x91
 4135 07e2 66       		.sleb128 -26
 4136 07e3 13       		.uleb128 0x13
 4137 07e4 BE030000 		.4byte	.LASF92
 4138 07e8 01       		.byte	0x1
 4139 07e9 240B     		.2byte	0xb24
 4140 07eb 83000000 		.4byte	0x83
 4141 07ef 02       		.uleb128 0x2
 4142 07f0 91       		.byte	0x91
 4143 07f1 74       		.sleb128 -12
 4144 07f2 13       		.uleb128 0x13
 4145 07f3 16030000 		.4byte	.LASF93
 4146 07f7 01       		.byte	0x1
 4147 07f8 250B     		.2byte	0xb25
 4148 07fa 6B000000 		.4byte	0x6b
 4149 07fe 02       		.uleb128 0x2
 4150 07ff 91       		.byte	0x91
 4151 0800 73       		.sleb128 -13
 4152 0801 13       		.uleb128 0x13
 4153 0802 62060000 		.4byte	.LASF38
 4154 0806 01       		.byte	0x1
 4155 0807 260B     		.2byte	0xb26
 4156 0809 83000000 		.4byte	0x83
 4157 080d 02       		.uleb128 0x2
 4158 080e 91       		.byte	0x91
 4159 080f 6C       		.sleb128 -20
 4160 0810 00       		.byte	0
 4161 0811 1E       		.uleb128 0x1e
 4162 0812 E5030000 		.4byte	.LASF94
 4163 0816 01       		.byte	0x1
 4164 0817 72       		.byte	0x72
 4165 0818 4F010000 		.4byte	0x14f
 4166 081c 05       		.uleb128 0x5
 4167 081d 03       		.byte	0x3
 4168 081e 00000000 		.4byte	Bootloader_callback
 4169 0822 1F       		.uleb128 0x1f
 4170 0823 69060000 		.4byte	.LASF95
 4171 0827 01       		.byte	0x1
 4172 0828 2E       		.byte	0x2e
 4173 0829 12020000 		.4byte	0x212
 4174 082d 05       		.uleb128 0x5
 4175 082e 03       		.byte	0x3
 4176 082f 00000000 		.4byte	Bootloader_Checksum
 4177 0833 1F       		.uleb128 0x1f
 4178 0834 F4040000 		.4byte	.LASF96
 4179 0838 01       		.byte	0x1
 4180 0839 32       		.byte	0x32
 4181 083a 0C020000 		.4byte	0x20c
 4182 083e 05       		.uleb128 0x5
 4183 083f 03       		.byte	0x3
 4184 0840 00000000 		.4byte	Bootloader_ChecksumAccess
 4185 0844 1F       		.uleb128 0x1f
ARM GAS  C:\Users\LUKASC~1\AppData\Local\Temp\ccn8LSRc.s 			page 127


 4186 0845 12040000 		.4byte	.LASF97
 4187 0849 01       		.byte	0x1
 4188 084a 36       		.byte	0x36
 4189 084b 55080000 		.4byte	0x855
 4190 084f 05       		.uleb128 0x5
 4191 0850 03       		.byte	0x3
 4192 0851 00000000 		.4byte	Bootloader_SizeBytes
 4193 0855 11       		.uleb128 0x11
 4194 0856 83000000 		.4byte	0x83
 4195 085a 1F       		.uleb128 0x1f
 4196 085b A9040000 		.4byte	.LASF98
 4197 085f 01       		.byte	0x1
 4198 0860 3E       		.byte	0x3e
 4199 0861 6B080000 		.4byte	0x86b
 4200 0865 05       		.uleb128 0x5
 4201 0866 03       		.byte	0x3
 4202 0867 00000000 		.4byte	Bootloader_SizeBytesAccess
 4203 086b 08       		.uleb128 0x8
 4204 086c 04       		.byte	0x4
 4205 086d 55080000 		.4byte	0x855
 4206 0871 20       		.uleb128 0x20
 4207 0872 AE000000 		.4byte	.LASF99
 4208 0876 03       		.byte	0x3
 4209 0877 A8       		.byte	0xa8
 4210 0878 CD000000 		.4byte	0xcd
 4211 087c 00       		.byte	0
 4212              		.section	.debug_abbrev,"",%progbits
 4213              	.Ldebug_abbrev0:
 4214 0000 01       		.uleb128 0x1
 4215 0001 11       		.uleb128 0x11
 4216 0002 01       		.byte	0x1
 4217 0003 25       		.uleb128 0x25
 4218 0004 0E       		.uleb128 0xe
 4219 0005 13       		.uleb128 0x13
 4220 0006 0B       		.uleb128 0xb
 4221 0007 03       		.uleb128 0x3
 4222 0008 0E       		.uleb128 0xe
 4223 0009 1B       		.uleb128 0x1b
 4224 000a 0E       		.uleb128 0xe
 4225 000b 55       		.uleb128 0x55
 4226 000c 17       		.uleb128 0x17
 4227 000d 11       		.uleb128 0x11
 4228 000e 01       		.uleb128 0x1
 4229 000f 10       		.uleb128 0x10
 4230 0010 17       		.uleb128 0x17
 4231 0011 00       		.byte	0
 4232 0012 00       		.byte	0
 4233 0013 02       		.uleb128 0x2
 4234 0014 24       		.uleb128 0x24
 4235 0015 00       		.byte	0
 4236 0016 0B       		.uleb128 0xb
 4237 0017 0B       		.uleb128 0xb
 4238 0018 3E       		.uleb128 0x3e
 4239 0019 0B       		.uleb128 0xb
 4240 001a 03       		.uleb128 0x3
 4241 001b 0E       		.uleb128 0xe
 4242 001c 00       		.byte	0
ARM GAS  C:\Users\LUKASC~1\AppData\Local\Temp\ccn8LSRc.s 			page 128


 4243 001d 00       		.byte	0
 4244 001e 03       		.uleb128 0x3
 4245 001f 24       		.uleb128 0x24
 4246 0020 00       		.byte	0
 4247 0021 0B       		.uleb128 0xb
 4248 0022 0B       		.uleb128 0xb
 4249 0023 3E       		.uleb128 0x3e
 4250 0024 0B       		.uleb128 0xb
 4251 0025 03       		.uleb128 0x3
 4252 0026 08       		.uleb128 0x8
 4253 0027 00       		.byte	0
 4254 0028 00       		.byte	0
 4255 0029 04       		.uleb128 0x4
 4256 002a 16       		.uleb128 0x16
 4257 002b 00       		.byte	0
 4258 002c 03       		.uleb128 0x3
 4259 002d 0E       		.uleb128 0xe
 4260 002e 3A       		.uleb128 0x3a
 4261 002f 0B       		.uleb128 0xb
 4262 0030 3B       		.uleb128 0x3b
 4263 0031 05       		.uleb128 0x5
 4264 0032 49       		.uleb128 0x49
 4265 0033 13       		.uleb128 0x13
 4266 0034 00       		.byte	0
 4267 0035 00       		.byte	0
 4268 0036 05       		.uleb128 0x5
 4269 0037 35       		.uleb128 0x35
 4270 0038 00       		.byte	0
 4271 0039 49       		.uleb128 0x49
 4272 003a 13       		.uleb128 0x13
 4273 003b 00       		.byte	0
 4274 003c 00       		.byte	0
 4275 003d 06       		.uleb128 0x6
 4276 003e 13       		.uleb128 0x13
 4277 003f 01       		.byte	0x1
 4278 0040 0B       		.uleb128 0xb
 4279 0041 0B       		.uleb128 0xb
 4280 0042 3A       		.uleb128 0x3a
 4281 0043 0B       		.uleb128 0xb
 4282 0044 3B       		.uleb128 0x3b
 4283 0045 0B       		.uleb128 0xb
 4284 0046 01       		.uleb128 0x1
 4285 0047 13       		.uleb128 0x13
 4286 0048 00       		.byte	0
 4287 0049 00       		.byte	0
 4288 004a 07       		.uleb128 0x7
 4289 004b 0D       		.uleb128 0xd
 4290 004c 00       		.byte	0
 4291 004d 03       		.uleb128 0x3
 4292 004e 0E       		.uleb128 0xe
 4293 004f 3A       		.uleb128 0x3a
 4294 0050 0B       		.uleb128 0xb
 4295 0051 3B       		.uleb128 0x3b
 4296 0052 0B       		.uleb128 0xb
 4297 0053 49       		.uleb128 0x49
 4298 0054 13       		.uleb128 0x13
 4299 0055 38       		.uleb128 0x38
ARM GAS  C:\Users\LUKASC~1\AppData\Local\Temp\ccn8LSRc.s 			page 129


 4300 0056 0B       		.uleb128 0xb
 4301 0057 00       		.byte	0
 4302 0058 00       		.byte	0
 4303 0059 08       		.uleb128 0x8
 4304 005a 0F       		.uleb128 0xf
 4305 005b 00       		.byte	0
 4306 005c 0B       		.uleb128 0xb
 4307 005d 0B       		.uleb128 0xb
 4308 005e 49       		.uleb128 0x49
 4309 005f 13       		.uleb128 0x13
 4310 0060 00       		.byte	0
 4311 0061 00       		.byte	0
 4312 0062 09       		.uleb128 0x9
 4313 0063 16       		.uleb128 0x16
 4314 0064 00       		.byte	0
 4315 0065 03       		.uleb128 0x3
 4316 0066 0E       		.uleb128 0xe
 4317 0067 3A       		.uleb128 0x3a
 4318 0068 0B       		.uleb128 0xb
 4319 0069 3B       		.uleb128 0x3b
 4320 006a 0B       		.uleb128 0xb
 4321 006b 49       		.uleb128 0x49
 4322 006c 13       		.uleb128 0x13
 4323 006d 00       		.byte	0
 4324 006e 00       		.byte	0
 4325 006f 0A       		.uleb128 0xa
 4326 0070 15       		.uleb128 0x15
 4327 0071 01       		.byte	0x1
 4328 0072 27       		.uleb128 0x27
 4329 0073 19       		.uleb128 0x19
 4330 0074 01       		.uleb128 0x1
 4331 0075 13       		.uleb128 0x13
 4332 0076 00       		.byte	0
 4333 0077 00       		.byte	0
 4334 0078 0B       		.uleb128 0xb
 4335 0079 05       		.uleb128 0x5
 4336 007a 00       		.byte	0
 4337 007b 49       		.uleb128 0x49
 4338 007c 13       		.uleb128 0x13
 4339 007d 00       		.byte	0
 4340 007e 00       		.byte	0
 4341 007f 0C       		.uleb128 0xc
 4342 0080 01       		.uleb128 0x1
 4343 0081 01       		.byte	0x1
 4344 0082 49       		.uleb128 0x49
 4345 0083 13       		.uleb128 0x13
 4346 0084 01       		.uleb128 0x1
 4347 0085 13       		.uleb128 0x13
 4348 0086 00       		.byte	0
 4349 0087 00       		.byte	0
 4350 0088 0D       		.uleb128 0xd
 4351 0089 21       		.uleb128 0x21
 4352 008a 00       		.byte	0
 4353 008b 49       		.uleb128 0x49
 4354 008c 13       		.uleb128 0x13
 4355 008d 2F       		.uleb128 0x2f
 4356 008e 0B       		.uleb128 0xb
ARM GAS  C:\Users\LUKASC~1\AppData\Local\Temp\ccn8LSRc.s 			page 130


 4357 008f 00       		.byte	0
 4358 0090 00       		.byte	0
 4359 0091 0E       		.uleb128 0xe
 4360 0092 2E       		.uleb128 0x2e
 4361 0093 01       		.byte	0x1
 4362 0094 03       		.uleb128 0x3
 4363 0095 0E       		.uleb128 0xe
 4364 0096 3A       		.uleb128 0x3a
 4365 0097 0B       		.uleb128 0xb
 4366 0098 3B       		.uleb128 0x3b
 4367 0099 05       		.uleb128 0x5
 4368 009a 27       		.uleb128 0x27
 4369 009b 19       		.uleb128 0x19
 4370 009c 49       		.uleb128 0x49
 4371 009d 13       		.uleb128 0x13
 4372 009e 11       		.uleb128 0x11
 4373 009f 01       		.uleb128 0x1
 4374 00a0 12       		.uleb128 0x12
 4375 00a1 06       		.uleb128 0x6
 4376 00a2 40       		.uleb128 0x40
 4377 00a3 18       		.uleb128 0x18
 4378 00a4 9742     		.uleb128 0x2117
 4379 00a6 19       		.uleb128 0x19
 4380 00a7 01       		.uleb128 0x1
 4381 00a8 13       		.uleb128 0x13
 4382 00a9 00       		.byte	0
 4383 00aa 00       		.byte	0
 4384 00ab 0F       		.uleb128 0xf
 4385 00ac 05       		.uleb128 0x5
 4386 00ad 00       		.byte	0
 4387 00ae 03       		.uleb128 0x3
 4388 00af 0E       		.uleb128 0xe
 4389 00b0 3A       		.uleb128 0x3a
 4390 00b1 0B       		.uleb128 0xb
 4391 00b2 3B       		.uleb128 0x3b
 4392 00b3 05       		.uleb128 0x5
 4393 00b4 49       		.uleb128 0x49
 4394 00b5 13       		.uleb128 0x13
 4395 00b6 02       		.uleb128 0x2
 4396 00b7 18       		.uleb128 0x18
 4397 00b8 00       		.byte	0
 4398 00b9 00       		.byte	0
 4399 00ba 10       		.uleb128 0x10
 4400 00bb 34       		.uleb128 0x34
 4401 00bc 00       		.byte	0
 4402 00bd 03       		.uleb128 0x3
 4403 00be 08       		.uleb128 0x8
 4404 00bf 3A       		.uleb128 0x3a
 4405 00c0 0B       		.uleb128 0xb
 4406 00c1 3B       		.uleb128 0x3b
 4407 00c2 05       		.uleb128 0x5
 4408 00c3 49       		.uleb128 0x49
 4409 00c4 13       		.uleb128 0x13
 4410 00c5 02       		.uleb128 0x2
 4411 00c6 18       		.uleb128 0x18
 4412 00c7 00       		.byte	0
 4413 00c8 00       		.byte	0
ARM GAS  C:\Users\LUKASC~1\AppData\Local\Temp\ccn8LSRc.s 			page 131


 4414 00c9 11       		.uleb128 0x11
 4415 00ca 26       		.uleb128 0x26
 4416 00cb 00       		.byte	0
 4417 00cc 49       		.uleb128 0x49
 4418 00cd 13       		.uleb128 0x13
 4419 00ce 00       		.byte	0
 4420 00cf 00       		.byte	0
 4421 00d0 12       		.uleb128 0x12
 4422 00d1 2E       		.uleb128 0x2e
 4423 00d2 01       		.byte	0x1
 4424 00d3 3F       		.uleb128 0x3f
 4425 00d4 19       		.uleb128 0x19
 4426 00d5 03       		.uleb128 0x3
 4427 00d6 0E       		.uleb128 0xe
 4428 00d7 3A       		.uleb128 0x3a
 4429 00d8 0B       		.uleb128 0xb
 4430 00d9 3B       		.uleb128 0x3b
 4431 00da 05       		.uleb128 0x5
 4432 00db 27       		.uleb128 0x27
 4433 00dc 19       		.uleb128 0x19
 4434 00dd 11       		.uleb128 0x11
 4435 00de 01       		.uleb128 0x1
 4436 00df 12       		.uleb128 0x12
 4437 00e0 06       		.uleb128 0x6
 4438 00e1 40       		.uleb128 0x40
 4439 00e2 18       		.uleb128 0x18
 4440 00e3 9742     		.uleb128 0x2117
 4441 00e5 19       		.uleb128 0x19
 4442 00e6 01       		.uleb128 0x1
 4443 00e7 13       		.uleb128 0x13
 4444 00e8 00       		.byte	0
 4445 00e9 00       		.byte	0
 4446 00ea 13       		.uleb128 0x13
 4447 00eb 34       		.uleb128 0x34
 4448 00ec 00       		.byte	0
 4449 00ed 03       		.uleb128 0x3
 4450 00ee 0E       		.uleb128 0xe
 4451 00ef 3A       		.uleb128 0x3a
 4452 00f0 0B       		.uleb128 0xb
 4453 00f1 3B       		.uleb128 0x3b
 4454 00f2 05       		.uleb128 0x5
 4455 00f3 49       		.uleb128 0x49
 4456 00f4 13       		.uleb128 0x13
 4457 00f5 02       		.uleb128 0x2
 4458 00f6 18       		.uleb128 0x18
 4459 00f7 00       		.byte	0
 4460 00f8 00       		.byte	0
 4461 00f9 14       		.uleb128 0x14
 4462 00fa 2E       		.uleb128 0x2e
 4463 00fb 01       		.byte	0x1
 4464 00fc 3F       		.uleb128 0x3f
 4465 00fd 19       		.uleb128 0x19
 4466 00fe 03       		.uleb128 0x3
 4467 00ff 0E       		.uleb128 0xe
 4468 0100 3A       		.uleb128 0x3a
 4469 0101 0B       		.uleb128 0xb
 4470 0102 3B       		.uleb128 0x3b
ARM GAS  C:\Users\LUKASC~1\AppData\Local\Temp\ccn8LSRc.s 			page 132


 4471 0103 05       		.uleb128 0x5
 4472 0104 27       		.uleb128 0x27
 4473 0105 19       		.uleb128 0x19
 4474 0106 49       		.uleb128 0x49
 4475 0107 13       		.uleb128 0x13
 4476 0108 11       		.uleb128 0x11
 4477 0109 01       		.uleb128 0x1
 4478 010a 12       		.uleb128 0x12
 4479 010b 06       		.uleb128 0x6
 4480 010c 40       		.uleb128 0x40
 4481 010d 18       		.uleb128 0x18
 4482 010e 9642     		.uleb128 0x2116
 4483 0110 19       		.uleb128 0x19
 4484 0111 01       		.uleb128 0x1
 4485 0112 13       		.uleb128 0x13
 4486 0113 00       		.byte	0
 4487 0114 00       		.byte	0
 4488 0115 15       		.uleb128 0x15
 4489 0116 2E       		.uleb128 0x2e
 4490 0117 01       		.byte	0x1
 4491 0118 3F       		.uleb128 0x3f
 4492 0119 19       		.uleb128 0x19
 4493 011a 03       		.uleb128 0x3
 4494 011b 0E       		.uleb128 0xe
 4495 011c 3A       		.uleb128 0x3a
 4496 011d 0B       		.uleb128 0xb
 4497 011e 3B       		.uleb128 0x3b
 4498 011f 05       		.uleb128 0x5
 4499 0120 27       		.uleb128 0x27
 4500 0121 19       		.uleb128 0x19
 4501 0122 11       		.uleb128 0x11
 4502 0123 01       		.uleb128 0x1
 4503 0124 12       		.uleb128 0x12
 4504 0125 06       		.uleb128 0x6
 4505 0126 40       		.uleb128 0x40
 4506 0127 18       		.uleb128 0x18
 4507 0128 9642     		.uleb128 0x2116
 4508 012a 19       		.uleb128 0x19
 4509 012b 01       		.uleb128 0x1
 4510 012c 13       		.uleb128 0x13
 4511 012d 00       		.byte	0
 4512 012e 00       		.byte	0
 4513 012f 16       		.uleb128 0x16
 4514 0130 2E       		.uleb128 0x2e
 4515 0131 00       		.byte	0
 4516 0132 03       		.uleb128 0x3
 4517 0133 0E       		.uleb128 0xe
 4518 0134 3A       		.uleb128 0x3a
 4519 0135 0B       		.uleb128 0xb
 4520 0136 3B       		.uleb128 0x3b
 4521 0137 05       		.uleb128 0x5
 4522 0138 27       		.uleb128 0x27
 4523 0139 19       		.uleb128 0x19
 4524 013a 11       		.uleb128 0x11
 4525 013b 01       		.uleb128 0x1
 4526 013c 12       		.uleb128 0x12
 4527 013d 06       		.uleb128 0x6
ARM GAS  C:\Users\LUKASC~1\AppData\Local\Temp\ccn8LSRc.s 			page 133


 4528 013e 40       		.uleb128 0x40
 4529 013f 18       		.uleb128 0x18
 4530 0140 9642     		.uleb128 0x2116
 4531 0142 19       		.uleb128 0x19
 4532 0143 00       		.byte	0
 4533 0144 00       		.byte	0
 4534 0145 17       		.uleb128 0x17
 4535 0146 0B       		.uleb128 0xb
 4536 0147 01       		.byte	0x1
 4537 0148 11       		.uleb128 0x11
 4538 0149 01       		.uleb128 0x1
 4539 014a 12       		.uleb128 0x12
 4540 014b 06       		.uleb128 0x6
 4541 014c 00       		.byte	0
 4542 014d 00       		.byte	0
 4543 014e 18       		.uleb128 0x18
 4544 014f 2E       		.uleb128 0x2e
 4545 0150 01       		.byte	0x1
 4546 0151 03       		.uleb128 0x3
 4547 0152 0E       		.uleb128 0xe
 4548 0153 3A       		.uleb128 0x3a
 4549 0154 0B       		.uleb128 0xb
 4550 0155 3B       		.uleb128 0x3b
 4551 0156 05       		.uleb128 0x5
 4552 0157 27       		.uleb128 0x27
 4553 0158 19       		.uleb128 0x19
 4554 0159 11       		.uleb128 0x11
 4555 015a 01       		.uleb128 0x1
 4556 015b 12       		.uleb128 0x12
 4557 015c 06       		.uleb128 0x6
 4558 015d 40       		.uleb128 0x40
 4559 015e 18       		.uleb128 0x18
 4560 015f 9742     		.uleb128 0x2117
 4561 0161 19       		.uleb128 0x19
 4562 0162 01       		.uleb128 0x1
 4563 0163 13       		.uleb128 0x13
 4564 0164 00       		.byte	0
 4565 0165 00       		.byte	0
 4566 0166 19       		.uleb128 0x19
 4567 0167 2E       		.uleb128 0x2e
 4568 0168 01       		.byte	0x1
 4569 0169 03       		.uleb128 0x3
 4570 016a 0E       		.uleb128 0xe
 4571 016b 3A       		.uleb128 0x3a
 4572 016c 0B       		.uleb128 0xb
 4573 016d 3B       		.uleb128 0x3b
 4574 016e 05       		.uleb128 0x5
 4575 016f 27       		.uleb128 0x27
 4576 0170 19       		.uleb128 0x19
 4577 0171 11       		.uleb128 0x11
 4578 0172 01       		.uleb128 0x1
 4579 0173 12       		.uleb128 0x12
 4580 0174 06       		.uleb128 0x6
 4581 0175 40       		.uleb128 0x40
 4582 0176 18       		.uleb128 0x18
 4583 0177 9642     		.uleb128 0x2116
 4584 0179 19       		.uleb128 0x19
ARM GAS  C:\Users\LUKASC~1\AppData\Local\Temp\ccn8LSRc.s 			page 134


 4585 017a 01       		.uleb128 0x1
 4586 017b 13       		.uleb128 0x13
 4587 017c 00       		.byte	0
 4588 017d 00       		.byte	0
 4589 017e 1A       		.uleb128 0x1a
 4590 017f 0B       		.uleb128 0xb
 4591 0180 01       		.byte	0x1
 4592 0181 11       		.uleb128 0x11
 4593 0182 01       		.uleb128 0x1
 4594 0183 12       		.uleb128 0x12
 4595 0184 06       		.uleb128 0x6
 4596 0185 01       		.uleb128 0x1
 4597 0186 13       		.uleb128 0x13
 4598 0187 00       		.byte	0
 4599 0188 00       		.byte	0
 4600 0189 1B       		.uleb128 0x1b
 4601 018a 0B       		.uleb128 0xb
 4602 018b 01       		.byte	0x1
 4603 018c 55       		.uleb128 0x55
 4604 018d 17       		.uleb128 0x17
 4605 018e 00       		.byte	0
 4606 018f 00       		.byte	0
 4607 0190 1C       		.uleb128 0x1c
 4608 0191 21       		.uleb128 0x21
 4609 0192 00       		.byte	0
 4610 0193 49       		.uleb128 0x49
 4611 0194 13       		.uleb128 0x13
 4612 0195 2F       		.uleb128 0x2f
 4613 0196 05       		.uleb128 0x5
 4614 0197 00       		.byte	0
 4615 0198 00       		.byte	0
 4616 0199 1D       		.uleb128 0x1d
 4617 019a 2E       		.uleb128 0x2e
 4618 019b 01       		.byte	0x1
 4619 019c 03       		.uleb128 0x3
 4620 019d 0E       		.uleb128 0xe
 4621 019e 3A       		.uleb128 0x3a
 4622 019f 0B       		.uleb128 0xb
 4623 01a0 3B       		.uleb128 0x3b
 4624 01a1 05       		.uleb128 0x5
 4625 01a2 27       		.uleb128 0x27
 4626 01a3 19       		.uleb128 0x19
 4627 01a4 49       		.uleb128 0x49
 4628 01a5 13       		.uleb128 0x13
 4629 01a6 11       		.uleb128 0x11
 4630 01a7 01       		.uleb128 0x1
 4631 01a8 12       		.uleb128 0x12
 4632 01a9 06       		.uleb128 0x6
 4633 01aa 40       		.uleb128 0x40
 4634 01ab 18       		.uleb128 0x18
 4635 01ac 9642     		.uleb128 0x2116
 4636 01ae 19       		.uleb128 0x19
 4637 01af 01       		.uleb128 0x1
 4638 01b0 13       		.uleb128 0x13
 4639 01b1 00       		.byte	0
 4640 01b2 00       		.byte	0
 4641 01b3 1E       		.uleb128 0x1e
ARM GAS  C:\Users\LUKASC~1\AppData\Local\Temp\ccn8LSRc.s 			page 135


 4642 01b4 34       		.uleb128 0x34
 4643 01b5 00       		.byte	0
 4644 01b6 03       		.uleb128 0x3
 4645 01b7 0E       		.uleb128 0xe
 4646 01b8 3A       		.uleb128 0x3a
 4647 01b9 0B       		.uleb128 0xb
 4648 01ba 3B       		.uleb128 0x3b
 4649 01bb 0B       		.uleb128 0xb
 4650 01bc 49       		.uleb128 0x49
 4651 01bd 13       		.uleb128 0x13
 4652 01be 02       		.uleb128 0x2
 4653 01bf 18       		.uleb128 0x18
 4654 01c0 00       		.byte	0
 4655 01c1 00       		.byte	0
 4656 01c2 1F       		.uleb128 0x1f
 4657 01c3 34       		.uleb128 0x34
 4658 01c4 00       		.byte	0
 4659 01c5 03       		.uleb128 0x3
 4660 01c6 0E       		.uleb128 0xe
 4661 01c7 3A       		.uleb128 0x3a
 4662 01c8 0B       		.uleb128 0xb
 4663 01c9 3B       		.uleb128 0x3b
 4664 01ca 0B       		.uleb128 0xb
 4665 01cb 49       		.uleb128 0x49
 4666 01cc 13       		.uleb128 0x13
 4667 01cd 3F       		.uleb128 0x3f
 4668 01ce 19       		.uleb128 0x19
 4669 01cf 02       		.uleb128 0x2
 4670 01d0 18       		.uleb128 0x18
 4671 01d1 00       		.byte	0
 4672 01d2 00       		.byte	0
 4673 01d3 20       		.uleb128 0x20
 4674 01d4 34       		.uleb128 0x34
 4675 01d5 00       		.byte	0
 4676 01d6 03       		.uleb128 0x3
 4677 01d7 0E       		.uleb128 0xe
 4678 01d8 3A       		.uleb128 0x3a
 4679 01d9 0B       		.uleb128 0xb
 4680 01da 3B       		.uleb128 0x3b
 4681 01db 0B       		.uleb128 0xb
 4682 01dc 49       		.uleb128 0x49
 4683 01dd 13       		.uleb128 0x13
 4684 01de 3F       		.uleb128 0x3f
 4685 01df 19       		.uleb128 0x19
 4686 01e0 3C       		.uleb128 0x3c
 4687 01e1 19       		.uleb128 0x19
 4688 01e2 00       		.byte	0
 4689 01e3 00       		.byte	0
 4690 01e4 00       		.byte	0
 4691              		.section	.debug_aranges,"",%progbits
 4692 0000 84000000 		.4byte	0x84
 4693 0004 0200     		.2byte	0x2
 4694 0006 00000000 		.4byte	.Ldebug_info0
 4695 000a 04       		.byte	0x4
 4696 000b 00       		.byte	0
 4697 000c 0000     		.2byte	0
 4698 000e 0000     		.2byte	0
ARM GAS  C:\Users\LUKASC~1\AppData\Local\Temp\ccn8LSRc.s 			page 136


 4699 0010 00000000 		.4byte	.LFB34
 4700 0014 58000000 		.4byte	.LFE34-.LFB34
 4701 0018 00000000 		.4byte	.LFB35
 4702 001c 18000000 		.4byte	.LFE35-.LFB35
 4703 0020 00000000 		.4byte	.LFB36
 4704 0024 72000000 		.4byte	.LFE36-.LFB36
 4705 0028 00000000 		.4byte	.LFB37
 4706 002c 56000000 		.4byte	.LFE37-.LFB37
 4707 0030 00000000 		.4byte	.LFB38
 4708 0034 A0000000 		.4byte	.LFE38-.LFB38
 4709 0038 00000000 		.4byte	.LFB39
 4710 003c 18000000 		.4byte	.LFE39-.LFB39
 4711 0040 00000000 		.4byte	.LFB40
 4712 0044 98000000 		.4byte	.LFE40-.LFB40
 4713 0048 00000000 		.4byte	.LFB41
 4714 004c 5C000000 		.4byte	.LFE41-.LFB41
 4715 0050 00000000 		.4byte	.LFB42
 4716 0054 02000000 		.4byte	.LFE42-.LFB42
 4717 0058 00000000 		.4byte	.LFB43
 4718 005c 10010000 		.4byte	.LFE43-.LFB43
 4719 0060 00000000 		.4byte	.LFB44
 4720 0064 D00A0000 		.4byte	.LFE44-.LFB44
 4721 0068 00000000 		.4byte	.LFB45
 4722 006c B8000000 		.4byte	.LFE45-.LFB45
 4723 0070 00000000 		.4byte	.LFB46
 4724 0074 96000000 		.4byte	.LFE46-.LFB46
 4725 0078 00000000 		.4byte	.LFB47
 4726 007c 3C020000 		.4byte	.LFE47-.LFB47
 4727 0080 00000000 		.4byte	0
 4728 0084 00000000 		.4byte	0
 4729              		.section	.debug_ranges,"",%progbits
 4730              	.Ldebug_ranges0:
 4731 0000 32090000 		.4byte	.LBB13
 4732 0004 160A0000 		.4byte	.LBE13
 4733 0008 180A0000 		.4byte	.LBB14
 4734 000c 2C0A0000 		.4byte	.LBE14
 4735 0010 00000000 		.4byte	0
 4736 0014 00000000 		.4byte	0
 4737 0018 00000000 		.4byte	.LFB34
 4738 001c 58000000 		.4byte	.LFE34
 4739 0020 00000000 		.4byte	.LFB35
 4740 0024 18000000 		.4byte	.LFE35
 4741 0028 00000000 		.4byte	.LFB36
 4742 002c 72000000 		.4byte	.LFE36
 4743 0030 00000000 		.4byte	.LFB37
 4744 0034 56000000 		.4byte	.LFE37
 4745 0038 00000000 		.4byte	.LFB38
 4746 003c A0000000 		.4byte	.LFE38
 4747 0040 00000000 		.4byte	.LFB39
 4748 0044 18000000 		.4byte	.LFE39
 4749 0048 00000000 		.4byte	.LFB40
 4750 004c 98000000 		.4byte	.LFE40
 4751 0050 00000000 		.4byte	.LFB41
 4752 0054 5C000000 		.4byte	.LFE41
 4753 0058 00000000 		.4byte	.LFB42
 4754 005c 02000000 		.4byte	.LFE42
 4755 0060 00000000 		.4byte	.LFB43
ARM GAS  C:\Users\LUKASC~1\AppData\Local\Temp\ccn8LSRc.s 			page 137


 4756 0064 10010000 		.4byte	.LFE43
 4757 0068 00000000 		.4byte	.LFB44
 4758 006c D00A0000 		.4byte	.LFE44
 4759 0070 00000000 		.4byte	.LFB45
 4760 0074 B8000000 		.4byte	.LFE45
 4761 0078 00000000 		.4byte	.LFB46
 4762 007c 96000000 		.4byte	.LFE46
 4763 0080 00000000 		.4byte	.LFB47
 4764 0084 3C020000 		.4byte	.LFE47
 4765 0088 00000000 		.4byte	0
 4766 008c 00000000 		.4byte	0
 4767              		.section	.debug_line,"",%progbits
 4768              	.Ldebug_line0:
 4769 0000 3C040000 		.section	.debug_str,"MS",%progbits,1
 4769      02006D00 
 4769      00000201 
 4769      FB0E0D00 
 4769      01010101 
 4770              	.LASF63:
 4771 0000 74696D65 		.ascii	"timeOutCnt\000"
 4771      4F757443 
 4771      6E7400
 4772              	.LASF53:
 4773 000b 63757242 		.ascii	"curByte\000"
 4773      79746500 
 4774              	.LASF10:
 4775 0013 75696E74 		.ascii	"uint16\000"
 4775      313600
 4776              	.LASF20:
 4777 001a 7061636B 		.ascii	"packetLength\000"
 4777      65744C65 
 4777      6E677468 
 4777      00
 4778              	.LASF39:
 4779 0027 62617365 		.ascii	"baseAddr\000"
 4779      41646472 
 4779      00
 4780              	.LASF69:
 4781 0030 62746C64 		.ascii	"btldrData\000"
 4781      72446174 
 4781      6100
 4782              	.LASF54:
 4783 003a 426F6F74 		.ascii	"Bootloader_LaunchBootloadable\000"
 4783      6C6F6164 
 4783      65725F4C 
 4783      61756E63 
 4783      68426F6F 
 4784              	.LASF81:
 4785 0058 63686563 		.ascii	"checksum\000"
 4785      6B73756D 
 4785      00
 4786              	.LASF65:
 4787 0061 636F6D6D 		.ascii	"communicationState\000"
 4787      756E6963 
 4787      6174696F 
 4787      6E537461 
 4787      746500
ARM GAS  C:\Users\LUKASC~1\AppData\Local\Temp\ccn8LSRc.s 			page 138


 4788              	.LASF67:
 4789 0074 7061636B 		.ascii	"packetBuffer\000"
 4789      65744275 
 4789      66666572 
 4789      00
 4790              	.LASF70:
 4791 0081 726F774E 		.ascii	"rowNum\000"
 4791      756D00
 4792              	.LASF7:
 4793 0088 6C6F6E67 		.ascii	"long long unsigned int\000"
 4793      206C6F6E 
 4793      6720756E 
 4793      7369676E 
 4793      65642069 
 4794              	.LASF44:
 4795 009f 63616C63 		.ascii	"calcedChecksum\000"
 4795      65644368 
 4795      65636B73 
 4795      756D00
 4796              	.LASF99:
 4797 00ae 63794274 		.ascii	"cyBtldrRunType\000"
 4797      6C647252 
 4797      756E5479 
 4797      706500
 4798              	.LASF84:
 4799 00bd 426F6F74 		.ascii	"Bootloader_WritePacket\000"
 4799      6C6F6164 
 4799      65725F57 
 4799      72697465 
 4799      5061636B 
 4800              	.LASF73:
 4801 00d4 73746172 		.ascii	"startRow\000"
 4801      74526F77 
 4801      00
 4802              	.LASF21:
 4803 00dd 70496E70 		.ascii	"pInputBuffer\000"
 4803      75744275 
 4803      66666572 
 4803      00
 4804              	.LASF6:
 4805 00ea 6C6F6E67 		.ascii	"long long int\000"
 4805      206C6F6E 
 4805      6720696E 
 4805      7400
 4806              	.LASF0:
 4807 00f8 7369676E 		.ascii	"signed char\000"
 4807      65642063 
 4807      68617200 
 4808              	.LASF35:
 4809 0104 426F6F74 		.ascii	"Bootloader_VerifyRow\000"
 4809      6C6F6164 
 4809      65725F56 
 4809      65726966 
 4809      79526F77 
 4810              	.LASF83:
 4811 0119 426F6F74 		.ascii	"Bootloader_outPacket\000"
 4811      6C6F6164 
ARM GAS  C:\Users\LUKASC~1\AppData\Local\Temp\ccn8LSRc.s 			page 139


 4811      65725F6F 
 4811      75745061 
 4811      636B6574 
 4812              	.LASF59:
 4813 012e 61636B43 		.ascii	"ackCode\000"
 4813      6F646500 
 4814              	.LASF76:
 4815 0136 65726173 		.ascii	"erase\000"
 4815      6500
 4816              	.LASF57:
 4817 013c 6E756D62 		.ascii	"numberRead\000"
 4817      65725265 
 4817      616400
 4818              	.LASF4:
 4819 0147 6C6F6E67 		.ascii	"long int\000"
 4819      20696E74 
 4819      00
 4820              	.LASF48:
 4821 0150 61637469 		.ascii	"activeApp\000"
 4821      76654170 
 4821      7000
 4822              	.LASF9:
 4823 015a 75696E74 		.ascii	"uint8\000"
 4823      3800
 4824              	.LASF22:
 4825 0160 426F6F74 		.ascii	"Bootloader_in_packet_type\000"
 4825      6C6F6164 
 4825      65725F69 
 4825      6E5F7061 
 4825      636B6574 
 4826              	.LASF13:
 4827 017a 646F7562 		.ascii	"double\000"
 4827      6C6500
 4828              	.LASF61:
 4829 0181 72656164 		.ascii	"readStat\000"
 4829      53746174 
 4829      00
 4830              	.LASF11:
 4831 018a 75696E74 		.ascii	"uint32\000"
 4831      333200
 4832              	.LASF90:
 4833 0191 426F6F74 		.ascii	"Bootloader_GetMetadata\000"
 4833      6C6F6164 
 4833      65725F47 
 4833      65744D65 
 4833      74616461 
 4834              	.LASF55:
 4835 01a8 426F6F74 		.ascii	"Bootloader_HostLink\000"
 4835      6C6F6164 
 4835      65725F48 
 4835      6F73744C 
 4835      696E6B00 
 4836              	.LASF47:
 4837 01bc 43794274 		.ascii	"CyBtldr_CheckLaunch\000"
 4837      6C64725F 
 4837      43686563 
 4837      6B4C6175 
ARM GAS  C:\Users\LUKASC~1\AppData\Local\Temp\ccn8LSRc.s 			page 140


 4837      6E636800 
 4838              	.LASF68:
 4839 01d0 64617461 		.ascii	"dataBuffer\000"
 4839      42756666 
 4839      657200
 4840              	.LASF25:
 4841 01db 426F6F74 		.ascii	"Bootloader_out_packet_type\000"
 4841      6C6F6164 
 4841      65725F6F 
 4841      75745F70 
 4841      61636B65 
 4842              	.LASF66:
 4843 01f6 64617461 		.ascii	"dataOffset\000"
 4843      4F666673 
 4843      657400
 4844              	.LASF58:
 4845 0201 72737053 		.ascii	"rspSize\000"
 4845      697A6500 
 4846              	.LASF8:
 4847 0209 756E7369 		.ascii	"unsigned int\000"
 4847      676E6564 
 4847      20696E74 
 4847      00
 4848              	.LASF49:
 4849 0216 61707041 		.ascii	"appAddr\000"
 4849      64647200 
 4850              	.LASF85:
 4851 021e 426F6F74 		.ascii	"Bootloader_SetFlashByte\000"
 4851      6C6F6164 
 4851      65725F53 
 4851      6574466C 
 4851      61736842 
 4852              	.LASF19:
 4853 0236 636F6D6D 		.ascii	"command\000"
 4853      616E6400 
 4854              	.LASF72:
 4855 023e 75707065 		.ascii	"upperRange\000"
 4855      7252616E 
 4855      676500
 4856              	.LASF5:
 4857 0249 6C6F6E67 		.ascii	"long unsigned int\000"
 4857      20756E73 
 4857      69676E65 
 4857      6420696E 
 4857      7400
 4858              	.LASF34:
 4859 025b 426F6F74 		.ascii	"Bootloader_CalcPacketChecksum\000"
 4859      6C6F6164 
 4859      65725F43 
 4859      616C6350 
 4859      61636B65 
 4860              	.LASF32:
 4861 0279 73697A65 		.ascii	"size\000"
 4861      00
 4862              	.LASF3:
 4863 027e 73686F72 		.ascii	"short unsigned int\000"
 4863      7420756E 
ARM GAS  C:\Users\LUKASC~1\AppData\Local\Temp\ccn8LSRc.s 			page 141


 4863      7369676E 
 4863      65642069 
 4863      6E7400
 4864              	.LASF82:
 4865 0291 426F6F74 		.ascii	"Bootloader_inPacket\000"
 4865      6C6F6164 
 4865      65725F69 
 4865      6E506163 
 4865      6B657400 
 4866              	.LASF26:
 4867 02a5 426F6F74 		.ascii	"Bootloader_callback_type\000"
 4867      6C6F6164 
 4867      65725F63 
 4867      616C6C62 
 4867      61636B5F 
 4868              	.LASF56:
 4869 02be 74696D65 		.ascii	"timeOut\000"
 4869      4F757400 
 4870              	.LASF78:
 4871 02c6 42746C64 		.ascii	"BtldrVersion\000"
 4871      72566572 
 4871      73696F6E 
 4871      00
 4872              	.LASF103:
 4873 02d3 426F6F74 		.ascii	"Bootloader_LaunchApplication\000"
 4873      6C6F6164 
 4873      65725F4C 
 4873      61756E63 
 4873      68417070 
 4874              	.LASF17:
 4875 02f0 72656733 		.ascii	"reg32\000"
 4875      3200
 4876              	.LASF50:
 4877 02f6 426F6F74 		.ascii	"Bootloader_Calc8BitSum\000"
 4877      6C6F6164 
 4877      65725F43 
 4877      616C6338 
 4877      42697453 
 4878              	.LASF18:
 4879 030d 73697A65 		.ascii	"sizetype\000"
 4879      74797065 
 4879      00
 4880              	.LASF93:
 4881 0316 6669656C 		.ascii	"fieldSize\000"
 4881      6453697A 
 4881      6500
 4882              	.LASF86:
 4883 0320 61646472 		.ascii	"address\000"
 4883      65737300 
 4884              	.LASF91:
 4885 0328 6669656C 		.ascii	"field\000"
 4885      6400
 4886              	.LASF30:
 4887 032e 426F6F74 		.ascii	"Bootloader_ENTER\000"
 4887      6C6F6164 
 4887      65725F45 
 4887      4E544552 
ARM GAS  C:\Users\LUKASC~1\AppData\Local\Temp\ccn8LSRc.s 			page 142


 4887      00
 4888              	.LASF102:
 4889 033f 433A5C55 		.ascii	"C:\\Users\\Lukas Creutzburg\\Google Drive\\Virtuell"
 4889      73657273 
 4889      5C4C756B 
 4889      61732043 
 4889      72657574 
 4890 036e 65205265 		.ascii	"e Realitaeten\\PSoCWorkspace\\VRProject\\Bootloader"
 4890      616C6974 
 4890      61657465 
 4890      6E5C5053 
 4890      6F43576F 
 4891 039e 5F50536F 		.ascii	"_PSoC4_Example01.cydsn\000"
 4891      43345F45 
 4891      78616D70 
 4891      6C653031 
 4891      2E637964 
 4892              	.LASF75:
 4893 03b5 66697273 		.ascii	"firstRow\000"
 4893      74526F77 
 4893      00
 4894              	.LASF92:
 4895 03be 6669656C 		.ascii	"fieldPtr\000"
 4895      64507472 
 4895      00
 4896              	.LASF41:
 4897 03c7 426F6F74 		.ascii	"Bootloader_InitCallback\000"
 4897      6C6F6164 
 4897      65725F49 
 4897      6E697443 
 4897      616C6C62 
 4898              	.LASF12:
 4899 03df 666C6F61 		.ascii	"float\000"
 4899      7400
 4900              	.LASF94:
 4901 03e5 426F6F74 		.ascii	"Bootloader_callback\000"
 4901      6C6F6164 
 4901      65725F63 
 4901      616C6C62 
 4901      61636B00 
 4902              	.LASF24:
 4903 03f9 704F7574 		.ascii	"pOutputBuffer\000"
 4903      70757442 
 4903      75666665 
 4903      7200
 4904              	.LASF36:
 4905 0407 666C6173 		.ascii	"flashStart\000"
 4905      68537461 
 4905      727400
 4906              	.LASF97:
 4907 0412 426F6F74 		.ascii	"Bootloader_SizeBytes\000"
 4907      6C6F6164 
 4907      65725F53 
 4907      697A6542 
 4907      79746573 
 4908              	.LASF16:
 4909 0427 72656738 		.ascii	"reg8\000"
ARM GAS  C:\Users\LUKASC~1\AppData\Local\Temp\ccn8LSRc.s 			page 143


 4909      00
 4910              	.LASF46:
 4911 042c 61707049 		.ascii	"appId\000"
 4911      6400
 4912              	.LASF1:
 4913 0432 756E7369 		.ascii	"unsigned char\000"
 4913      676E6564 
 4913      20636861 
 4913      7200
 4914              	.LASF33:
 4915 0440 75736572 		.ascii	"userCallback\000"
 4915      43616C6C 
 4915      6261636B 
 4915      00
 4916              	.LASF87:
 4917 044d 72756E54 		.ascii	"runType\000"
 4917      79706500 
 4918              	.LASF80:
 4919 0455 726F7741 		.ascii	"rowAddr\000"
 4919      64647200 
 4920              	.LASF2:
 4921 045d 73686F72 		.ascii	"short int\000"
 4921      7420696E 
 4921      7400
 4922              	.LASF60:
 4923 0467 706B7443 		.ascii	"pktChecksum\000"
 4923      6865636B 
 4923      73756D00 
 4924              	.LASF52:
 4925 0473 76616C69 		.ascii	"valid\000"
 4925      6400
 4926              	.LASF45:
 4927 0479 426F6F74 		.ascii	"Bootloader_Exit\000"
 4927      6C6F6164 
 4927      65725F45 
 4927      78697400 
 4928              	.LASF51:
 4929 0489 426F6F74 		.ascii	"Bootloader_ValidateBootloadable\000"
 4929      6C6F6164 
 4929      65725F56 
 4929      616C6964 
 4929      61746542 
 4930              	.LASF98:
 4931 04a9 426F6F74 		.ascii	"Bootloader_SizeBytesAccess\000"
 4931      6C6F6164 
 4931      65725F53 
 4931      697A6542 
 4931      79746573 
 4932              	.LASF14:
 4933 04c4 63686172 		.ascii	"char\000"
 4933      00
 4934              	.LASF71:
 4935 04c9 73746172 		.ascii	"startAddr\000"
 4935      74416464 
 4935      7200
 4936              	.LASF42:
 4937 04d3 426F6F74 		.ascii	"Bootloader_Start\000"
ARM GAS  C:\Users\LUKASC~1\AppData\Local\Temp\ccn8LSRc.s 			page 144


 4937      6C6F6164 
 4937      65725F53 
 4937      74617274 
 4937      00
 4938              	.LASF31:
 4939 04e4 62756666 		.ascii	"buffer\000"
 4939      657200
 4940              	.LASF28:
 4941 04eb 52657669 		.ascii	"Revision\000"
 4941      73696F6E 
 4941      00
 4942              	.LASF96:
 4943 04f4 426F6F74 		.ascii	"Bootloader_ChecksumAccess\000"
 4943      6C6F6164 
 4943      65725F43 
 4943      6865636B 
 4943      73756D41 
 4944              	.LASF27:
 4945 050e 53696C69 		.ascii	"SiliconId\000"
 4945      636F6E49 
 4945      6400
 4946              	.LASF23:
 4947 0518 73746174 		.ascii	"status\000"
 4947      757300
 4948              	.LASF29:
 4949 051f 426F6F74 		.ascii	"BootLoaderVersion\000"
 4949      4C6F6164 
 4949      65725665 
 4949      7273696F 
 4949      6E00
 4950              	.LASF74:
 4951 0531 61727261 		.ascii	"arrayIdBtlderEnds\000"
 4951      79496442 
 4951      746C6465 
 4951      72456E64 
 4951      7300
 4952              	.LASF37:
 4953 0543 72616D53 		.ascii	"ramStart\000"
 4953      74617274 
 4953      00
 4954              	.LASF88:
 4955 054c 666C7341 		.ascii	"flsAddr\000"
 4955      64647200 
 4956              	.LASF15:
 4957 0554 63797374 		.ascii	"cystatus\000"
 4957      61747573 
 4957      00
 4958              	.LASF100:
 4959 055d 474E5520 		.ascii	"GNU C 4.9.3 20150303 (release) [ARM/embedded-4_9-br"
 4959      4320342E 
 4959      392E3320 
 4959      32303135 
 4959      30333033 
 4960 0590 616E6368 		.ascii	"anch revision 221220] -mcpu=cortex-m0 -mthumb -g -O"
 4960      20726576 
 4960      6973696F 
 4960      6E203232 
ARM GAS  C:\Users\LUKASC~1\AppData\Local\Temp\ccn8LSRc.s 			page 145


 4960      31323230 
 4961 05c3 30202D66 		.ascii	"0 -ffunction-sections -ffat-lto-objects\000"
 4961      66756E63 
 4961      74696F6E 
 4961      2D736563 
 4961      74696F6E 
 4962              	.LASF62:
 4963 05eb 706B7453 		.ascii	"pktSize\000"
 4963      697A6500 
 4964              	.LASF89:
 4965 05f3 726F7744 		.ascii	"rowData\000"
 4965      61746100 
 4966              	.LASF64:
 4967 05fb 636C6561 		.ascii	"clearedMetaData\000"
 4967      7265644D 
 4967      65746144 
 4967      61746100 
 4968              	.LASF40:
 4969 060b 73746172 		.ascii	"start\000"
 4969      7400
 4970              	.LASF101:
 4971 0611 2E5C4765 		.ascii	".\\Generated_Source\\PSoC4\\Bootloader.c\000"
 4971      6E657261 
 4971      7465645F 
 4971      536F7572 
 4971      63655C50 
 4972              	.LASF79:
 4973 0637 746D7052 		.ascii	"tmpRowNum\000"
 4973      6F774E75 
 4973      6D00
 4974              	.LASF77:
 4975 0641 426F6F74 		.ascii	"Bootloader_notActiveApp\000"
 4975      6C6F6164 
 4975      65725F6E 
 4975      6F744163 
 4975      74697665 
 4976              	.LASF43:
 4977 0659 76616C69 		.ascii	"validApp\000"
 4977      64417070 
 4977      00
 4978              	.LASF38:
 4979 0662 72657375 		.ascii	"result\000"
 4979      6C7400
 4980              	.LASF95:
 4981 0669 426F6F74 		.ascii	"Bootloader_Checksum\000"
 4981      6C6F6164 
 4981      65725F43 
 4981      6865636B 
 4981      73756D00 
 4982              		.ident	"GCC: (GNU Tools for ARM Embedded Processors) 4.9.3 20150303 (release) [ARM/embedded-4_9-br
