ARM GAS  C:\Users\LUKASC~1\AppData\Local\Temp\ccn8LSRc.s 			page 1


   1              		.cpu cortex-m0
   2              		.fpu softvfp
   3              		.eabi_attribute 20, 1
   4              		.eabi_attribute 21, 1
   5              		.eabi_attribute 23, 3
   6              		.eabi_attribute 24, 1
   7              		.eabi_attribute 25, 1
   8              		.eabi_attribute 26, 1
   9              		.eabi_attribute 30, 6
  10              		.eabi_attribute 34, 0
  11              		.eabi_attribute 18, 4
  12              		.code	16
  13              		.file	"Bootloader.c"
  14              		.text
  15              	.Ltext0:
  16              		.cfi_sections	.debug_frame
  17              		.global	Bootloader_Checksum
  18              		.section	.bootloader,"a",%progbits
  19              		.type	Bootloader_Checksum, %object
  20              		.size	Bootloader_Checksum, 1
  21              	Bootloader_Checksum:
  22 0000 00       		.space	1
  23              		.global	Bootloader_ChecksumAccess
  24              		.data
  25              		.align	2
  26              		.type	Bootloader_ChecksumAccess, %object
  27              		.size	Bootloader_ChecksumAccess, 4
  28              	Bootloader_ChecksumAccess:
  29 0000 00000000 		.word	Bootloader_Checksum
  30              		.global	Bootloader_SizeBytes
  31              		.section	.bootloader
  32 0001 000000   		.align	2
  33              		.type	Bootloader_SizeBytes, %object
  34              		.size	Bootloader_SizeBytes, 4
  35              	Bootloader_SizeBytes:
  36 0004 FFFFFFFF 		.word	-1
  37              		.global	Bootloader_SizeBytesAccess
  38              		.data
  39              		.align	2
  40              		.type	Bootloader_SizeBytesAccess, %object
  41              		.size	Bootloader_SizeBytesAccess, 4
  42              	Bootloader_SizeBytesAccess:
  43 0004 00000000 		.word	Bootloader_SizeBytes
  44              		.bss
  45              		.align	2
  46              	Bootloader_callback:
  47 0000 00000000 		.space	4
  48              		.section	.text.Bootloader_CalcPacketChecksum,"ax",%progbits
  49              		.align	2
  50              		.code	16
  51              		.thumb_func
  52              		.type	Bootloader_CalcPacketChecksum, %function
  53              	Bootloader_CalcPacketChecksum:
  54              	.LFB34:
  55              		.file 1 ".\\Generated_Source\\PSoC4\\Bootloader.c"
   1:.\Generated_Source\PSoC4/Bootloader.c **** /****************************************************************************//**
   2:.\Generated_Source\PSoC4/Bootloader.c **** * \file Bootloader.c
ARM GAS  C:\Users\LUKASC~1\AppData\Local\Temp\ccn8LSRc.s 			page 2


   3:.\Generated_Source\PSoC4/Bootloader.c **** * \version 1.50
   4:.\Generated_Source\PSoC4/Bootloader.c **** *
   5:.\Generated_Source\PSoC4/Bootloader.c **** * \brief
   6:.\Generated_Source\PSoC4/Bootloader.c **** *   Provides an API for the Bootloader component. The API includes functions
   7:.\Generated_Source\PSoC4/Bootloader.c **** *   for starting bootloading operations, validating the application and
   8:.\Generated_Source\PSoC4/Bootloader.c **** *   jumping to the application.
   9:.\Generated_Source\PSoC4/Bootloader.c **** *
  10:.\Generated_Source\PSoC4/Bootloader.c **** ********************************************************************************
  11:.\Generated_Source\PSoC4/Bootloader.c **** * \copyright
  12:.\Generated_Source\PSoC4/Bootloader.c **** * Copyright 2008-2015, Cypress Semiconductor Corporation.  All rights reserved.
  13:.\Generated_Source\PSoC4/Bootloader.c **** * You may use this file only in accordance with the license, terms, conditions,
  14:.\Generated_Source\PSoC4/Bootloader.c **** * disclaimers, and limitations in the end user license agreement accompanying
  15:.\Generated_Source\PSoC4/Bootloader.c **** * the software package with which this file was provided.
  16:.\Generated_Source\PSoC4/Bootloader.c **** *******************************************************************************/
  17:.\Generated_Source\PSoC4/Bootloader.c **** 
  18:.\Generated_Source\PSoC4/Bootloader.c **** #include "Bootloader_PVT.h"
  19:.\Generated_Source\PSoC4/Bootloader.c **** 
  20:.\Generated_Source\PSoC4/Bootloader.c **** #include "cyapicallbacks.h"
  21:.\Generated_Source\PSoC4/Bootloader.c **** 
  22:.\Generated_Source\PSoC4/Bootloader.c **** #include "project.h"
  23:.\Generated_Source\PSoC4/Bootloader.c **** #include <string.h>
  24:.\Generated_Source\PSoC4/Bootloader.c **** 
  25:.\Generated_Source\PSoC4/Bootloader.c **** #if (CY_BOOT_VERSION < CY_BOOT_5_0)
  26:.\Generated_Source\PSoC4/Bootloader.c **** #error Component Bootloader_v1_50 requires cy_boot v5.00 or later
  27:.\Generated_Source\PSoC4/Bootloader.c **** #endif /* (CY_BOOT_VERSION >= CY_BOOT_5_0) */
  28:.\Generated_Source\PSoC4/Bootloader.c **** 
  29:.\Generated_Source\PSoC4/Bootloader.c **** /*******************************************************************************
  30:.\Generated_Source\PSoC4/Bootloader.c **** * The Checksum and SizeBytes are forcefully set in code. We then post process
  31:.\Generated_Source\PSoC4/Bootloader.c **** * the hex file from the linker and inject their values. When the hex file
  32:.\Generated_Source\PSoC4/Bootloader.c **** * is loaded into the device, these two variables should have valid values.
  33:.\Generated_Source\PSoC4/Bootloader.c **** * Because the compiler can do optimization to remove the constant
  34:.\Generated_Source\PSoC4/Bootloader.c **** * accesses, these should not be accessed directly. Instead, the variables
  35:.\Generated_Source\PSoC4/Bootloader.c **** * CyBtldr_ChecksumAccess & CyBtldr_SizeBytesAccess should be used to get the
  36:.\Generated_Source\PSoC4/Bootloader.c **** * proper values at the runtime.
  37:.\Generated_Source\PSoC4/Bootloader.c **** *******************************************************************************/
  38:.\Generated_Source\PSoC4/Bootloader.c **** #if (CYDEV_PROJ_TYPE != CYDEV_PROJ_TYPE_LOADABLEANDBOOTLOADER)
  39:.\Generated_Source\PSoC4/Bootloader.c **** #if defined(__ARMCC_VERSION) || defined (__GNUC__)
  40:.\Generated_Source\PSoC4/Bootloader.c ****     __attribute__((section (".bootloader"), used))
  41:.\Generated_Source\PSoC4/Bootloader.c **** #elif defined (__ICCARM__)
  42:.\Generated_Source\PSoC4/Bootloader.c ****     #pragma location=".bootloader"
  43:.\Generated_Source\PSoC4/Bootloader.c **** #endif  /* defined(__ARMCC_VERSION) || defined (__GNUC__) */
  44:.\Generated_Source\PSoC4/Bootloader.c **** 
  45:.\Generated_Source\PSoC4/Bootloader.c **** #if defined(__ARMCC_VERSION) || defined (__GNUC__) || defined (__C51__)
  46:.\Generated_Source\PSoC4/Bootloader.c ****            const uint8  CYCODE Bootloader_Checksum = 0u;
  47:.\Generated_Source\PSoC4/Bootloader.c **** #elif defined (__ICCARM__)
  48:.\Generated_Source\PSoC4/Bootloader.c ****     __root const uint8  CYCODE Bootloader_Checksum = 0u;
  49:.\Generated_Source\PSoC4/Bootloader.c **** #endif  /* defined(__ARMCC_VERSION) || defined (__GNUC__) || defined (__C51__) */
  50:.\Generated_Source\PSoC4/Bootloader.c **** const uint8  CYCODE *Bootloader_ChecksumAccess  = (const uint8  CYCODE *)(&Bootloader_Checksum);
  51:.\Generated_Source\PSoC4/Bootloader.c **** 
  52:.\Generated_Source\PSoC4/Bootloader.c **** #if defined(__ARMCC_VERSION) || defined (__GNUC__)
  53:.\Generated_Source\PSoC4/Bootloader.c ****     __attribute__((section (".bootloader"), used))
  54:.\Generated_Source\PSoC4/Bootloader.c ****     const uint32 CYCODE Bootloader_SizeBytes = 0xFFFFFFFFu;
  55:.\Generated_Source\PSoC4/Bootloader.c **** #elif defined (__ICCARM__)
  56:.\Generated_Source\PSoC4/Bootloader.c ****     #pragma location=".bootloader"
  57:.\Generated_Source\PSoC4/Bootloader.c ****     __root const uint32 CYCODE Bootloader_SizeBytes = 0xFFFFFFFFu;
  58:.\Generated_Source\PSoC4/Bootloader.c **** #elif defined (__C51__)
  59:.\Generated_Source\PSoC4/Bootloader.c ****     const uint32 CYCODE Bootloader_SizeBytes = 0xFFFFFFFFu;
ARM GAS  C:\Users\LUKASC~1\AppData\Local\Temp\ccn8LSRc.s 			page 3


  60:.\Generated_Source\PSoC4/Bootloader.c **** #endif  /* defined(__ARMCC_VERSION) || defined (__GNUC__) */
  61:.\Generated_Source\PSoC4/Bootloader.c **** 
  62:.\Generated_Source\PSoC4/Bootloader.c **** const uint32 CYCODE *Bootloader_SizeBytesAccess = (const uint32 CYCODE *)(&Bootloader_SizeBytes);
  63:.\Generated_Source\PSoC4/Bootloader.c **** #endif /*(CYDEV_PROJ_TYPE != CYDEV_PROJ_TYPE_LOADABLEANDBOOTLOADER)*/
  64:.\Generated_Source\PSoC4/Bootloader.c **** 
  65:.\Generated_Source\PSoC4/Bootloader.c **** /**
  66:.\Generated_Source\PSoC4/Bootloader.c ****  \defgroup variables_group Variables
  67:.\Generated_Source\PSoC4/Bootloader.c ****  @{
  68:.\Generated_Source\PSoC4/Bootloader.c **** */
  69:.\Generated_Source\PSoC4/Bootloader.c **** #if (CYDEV_PROJ_TYPE == CYDEV_PROJ_TYPE_LOADABLEANDBOOTLOADER) 
  70:.\Generated_Source\PSoC4/Bootloader.c **** /**
  71:.\Generated_Source\PSoC4/Bootloader.c ****  *  This variable is intended to indicate that in-application 
  72:.\Generated_Source\PSoC4/Bootloader.c ****  *  bootloading initialization is done. The initialization itself is performed in the
  73:.\Generated_Source\PSoC4/Bootloader.c ****  *  Bootloader_Initialize() function. Once the initialization is done,
  74:.\Generated_Source\PSoC4/Bootloader.c ****  *  the variable is set and this prevents the functionality from reinitialization.
  75:.\Generated_Source\PSoC4/Bootloader.c ****  */
  76:.\Generated_Source\PSoC4/Bootloader.c **** uint8 Bootloader_initVar = Bootloader_BOOTLOADING_NOT_INITIALIZED;
  77:.\Generated_Source\PSoC4/Bootloader.c **** 
  78:.\Generated_Source\PSoC4/Bootloader.c **** /**
  79:.\Generated_Source\PSoC4/Bootloader.c ****  *  This variable is intended to keep the current application number. It applies
  80:.\Generated_Source\PSoC4/Bootloader.c ****  *  only to in-application bootloading.
  81:.\Generated_Source\PSoC4/Bootloader.c ****  */
  82:.\Generated_Source\PSoC4/Bootloader.c **** uint8 Bootloader_runningApp = Bootloader_RUNNING_APPLICATION_UNKNOWN;
  83:.\Generated_Source\PSoC4/Bootloader.c **** 
  84:.\Generated_Source\PSoC4/Bootloader.c **** /**
  85:.\Generated_Source\PSoC4/Bootloader.c ****  *  This variable is intended to indicate that 'Enter bootloader' command has
  86:.\Generated_Source\PSoC4/Bootloader.c ****  *  been received. It applies only to in-application bootloading.
  87:.\Generated_Source\PSoC4/Bootloader.c ****  */
  88:.\Generated_Source\PSoC4/Bootloader.c **** uint8 Bootloader_isBootloading = Bootloader_BOOTLOADING_COMPLETED;
  89:.\Generated_Source\PSoC4/Bootloader.c **** #endif /*CYDEV_PROJ_TYPE == CYDEV_PROJ_TYPE_LOADABLEANDBOOTLOADER*/
  90:.\Generated_Source\PSoC4/Bootloader.c **** 
  91:.\Generated_Source\PSoC4/Bootloader.c **** #if ((0u != Bootloader_DUAL_APP_BOOTLOADER)  || (CYDEV_PROJ_TYPE == CYDEV_PROJ_TYPE_LOADABLEANDBOOT
  92:.\Generated_Source\PSoC4/Bootloader.c **** /**
  93:.\Generated_Source\PSoC4/Bootloader.c ****  *  This variable is intended to keep the active application number. It applies
  94:.\Generated_Source\PSoC4/Bootloader.c ****  *  to Classic Dual-app Bootloader and in-application bootloading.
  95:.\Generated_Source\PSoC4/Bootloader.c ****  */
  96:.\Generated_Source\PSoC4/Bootloader.c **** volatile uint8 Bootloader_activeApp = Bootloader_MD_BTLDB_ACTIVE_NONE;
  97:.\Generated_Source\PSoC4/Bootloader.c **** #else /*SINGLE-APP BOOTLOADER*/
  98:.\Generated_Source\PSoC4/Bootloader.c ****     #define Bootloader_activeApp      (Bootloader_MD_BTLDB_ACTIVE_0)
  99:.\Generated_Source\PSoC4/Bootloader.c **** #endif  /* (0u != Bootloader_DUAL_APP_BOOTLOADER) */
 100:.\Generated_Source\PSoC4/Bootloader.c **** 
 101:.\Generated_Source\PSoC4/Bootloader.c **** 
 102:.\Generated_Source\PSoC4/Bootloader.c **** #if (0u != Bootloader_SECURITY_KEY_AVAIL) 
 103:.\Generated_Source\PSoC4/Bootloader.c **** /**
 104:.\Generated_Source\PSoC4/Bootloader.c ****  *  This variable holds the security key for additional safety during communication.
 105:.\Generated_Source\PSoC4/Bootloader.c ****  */
 106:.\Generated_Source\PSoC4/Bootloader.c **** static const uint8 CYCODE Bootloader_securityKey[Bootloader_SECURITY_KEY_LENGTH] = {0x11u, 0x22u, 0
 107:.\Generated_Source\PSoC4/Bootloader.c **** #endif /*(0u != Bootloader_SECURITY_KEY_AVAIL)*/
 108:.\Generated_Source\PSoC4/Bootloader.c **** 
 109:.\Generated_Source\PSoC4/Bootloader.c **** #if ((CYDEV_PROJ_TYPE != CYDEV_PROJ_TYPE_LAUNCHER) && (!CY_PSOC3))
 110:.\Generated_Source\PSoC4/Bootloader.c **** /**
 111:.\Generated_Source\PSoC4/Bootloader.c ****  *  This variable holds the pointer on the user's callback-function that implements the custom 
 112:.\Generated_Source\PSoC4/Bootloader.c ****  *  bootloader command processing.
 113:.\Generated_Source\PSoC4/Bootloader.c ****  */
 114:.\Generated_Source\PSoC4/Bootloader.c **** static Bootloader_callback_type Bootloader_callback = NULL;
 115:.\Generated_Source\PSoC4/Bootloader.c **** #endif /*(CYDEV_PROJ_TYPE != CYDEV_PROJ_TYPE_LAUNCHER) && (!CY_PSOC3)*/
 116:.\Generated_Source\PSoC4/Bootloader.c **** /** @}*/
ARM GAS  C:\Users\LUKASC~1\AppData\Local\Temp\ccn8LSRc.s 			page 4


 117:.\Generated_Source\PSoC4/Bootloader.c ****  
 118:.\Generated_Source\PSoC4/Bootloader.c **** /***************************************
 119:.\Generated_Source\PSoC4/Bootloader.c **** *     Function Prototypes
 120:.\Generated_Source\PSoC4/Bootloader.c **** ***************************************/
 121:.\Generated_Source\PSoC4/Bootloader.c **** #if (CYDEV_PROJ_TYPE != CYDEV_PROJ_TYPE_LOADABLEANDBOOTLOADER)
 122:.\Generated_Source\PSoC4/Bootloader.c ****     static void  Bootloader_LaunchApplication(void) CYSMALL \
 123:.\Generated_Source\PSoC4/Bootloader.c ****                     ; 
 124:.\Generated_Source\PSoC4/Bootloader.c **** #if(!CY_PSOC3)
 125:.\Generated_Source\PSoC4/Bootloader.c ****     /* Implementation for PSoC 3 resides in Bootloader_psoc3.a51 file.  */
 126:.\Generated_Source\PSoC4/Bootloader.c ****     static void     Bootloader_LaunchBootloadable(uint32 appAddr);
 127:.\Generated_Source\PSoC4/Bootloader.c **** #endif  /* (!CY_PSOC3) */
 128:.\Generated_Source\PSoC4/Bootloader.c **** #endif /* CYDEV_PROJ_TYPE != CYDEV_PROJ_TYPE_LOADABLEANDBOOTLOADER */ 
 129:.\Generated_Source\PSoC4/Bootloader.c **** 
 130:.\Generated_Source\PSoC4/Bootloader.c **** #if (CYDEV_PROJ_TYPE != CYDEV_PROJ_TYPE_LAUNCHER)
 131:.\Generated_Source\PSoC4/Bootloader.c ****     static cystatus Bootloader_WritePacket(uint8 status, uint8 buffer[], uint16 size) CYSMALL \
 132:.\Generated_Source\PSoC4/Bootloader.c ****                                     ;
 133:.\Generated_Source\PSoC4/Bootloader.c **** 
 134:.\Generated_Source\PSoC4/Bootloader.c ****     static uint16   Bootloader_CalcPacketChecksum(const uint8 buffer[], uint16 size) CYSMALL \
 135:.\Generated_Source\PSoC4/Bootloader.c ****                                     ;
 136:.\Generated_Source\PSoC4/Bootloader.c ****                                     
 137:.\Generated_Source\PSoC4/Bootloader.c ****     #if (0u != Bootloader_CMD_VERIFY_FLS_ROW_AVAIL)
 138:.\Generated_Source\PSoC4/Bootloader.c ****     static uint8 Bootloader_VerifyRow(uint32 flashStart, const uint8* ramStart, uint16 size) \
 139:.\Generated_Source\PSoC4/Bootloader.c ****                 CYSMALL ;                                
 140:.\Generated_Source\PSoC4/Bootloader.c ****     #endif /*(0u != Bootloader_CMD_VERIFY_FLS_ROW_AVAIL)*/            
 141:.\Generated_Source\PSoC4/Bootloader.c **** 
 142:.\Generated_Source\PSoC4/Bootloader.c **** #if (CYDEV_PROJ_TYPE != CYDEV_PROJ_TYPE_LOADABLEANDBOOTLOADER)                                    
 143:.\Generated_Source\PSoC4/Bootloader.c ****     static void Bootloader_HostLink(uint8 timeOut) CYLARGE ;
 144:.\Generated_Source\PSoC4/Bootloader.c **** #endif /* (CYDEV_PROJ_TYPE != CYDEV_PROJ_TYPE_LOADABLEANDBOOTLOADER) */                            
 145:.\Generated_Source\PSoC4/Bootloader.c **** #endif /*(CYDEV_PROJ_TYPE != CYDEV_PROJ_TYPE_LAUNCHER)*/
 146:.\Generated_Source\PSoC4/Bootloader.c ****                                     
 147:.\Generated_Source\PSoC4/Bootloader.c **** #if (((0u != Bootloader_DUAL_APP_BOOTLOADER) && (CYDEV_PROJ_TYPE != CYDEV_PROJ_TYPE_LAUNCHER)) \
 148:.\Generated_Source\PSoC4/Bootloader.c ****                                           || (CYDEV_PROJ_TYPE == CYDEV_PROJ_TYPE_LOADABLEANDBOOTLOA
 149:.\Generated_Source\PSoC4/Bootloader.c ****     static uint8 Bootloader_CheckImage(uint8 appNumber, uint8 arrayNumber, uint16 row, uint16 rowNu
 150:.\Generated_Source\PSoC4/Bootloader.c ****                                     ;                                    
 151:.\Generated_Source\PSoC4/Bootloader.c **** #endif /*(((0u != Bootloader_DUAL_APP_BOOTLOADER) && (CYDEV_PROJ_TYPE != CYDEV_PROJ_TYPE_LAUNCHER))
 152:.\Generated_Source\PSoC4/Bootloader.c ****                                           || (CYDEV_PROJ_TYPE == CYDEV_PROJ_TYPE_LOADABLEANDBOOTLOA
 153:.\Generated_Source\PSoC4/Bootloader.c **** 
 154:.\Generated_Source\PSoC4/Bootloader.c **** #if ((CYDEV_PROJ_TYPE == CYDEV_PROJ_TYPE_LOADABLEANDBOOTLOADER) || (0u != Bootloader_DUAL_APP_BOOTL
 155:.\Generated_Source\PSoC4/Bootloader.c ****     static void Bootloader_SetActiveAppInMetadata(uint8 activeApp) CYSMALL \
 156:.\Generated_Source\PSoC4/Bootloader.c ****                 ;
 157:.\Generated_Source\PSoC4/Bootloader.c **** #endif /* (CYDEV_PROJ_TYPE == CYDEV_PROJ_TYPE_LOADABLEANDBOOTLOADER) || (0u != Bootloader_DUAL_APP_
 158:.\Generated_Source\PSoC4/Bootloader.c **** 
 159:.\Generated_Source\PSoC4/Bootloader.c **** #if ((CYDEV_PROJ_TYPE == CYDEV_PROJ_TYPE_LOADABLEANDBOOTLOADER) || \
 160:.\Generated_Source\PSoC4/Bootloader.c ****      (CYDEV_PROJ_TYPE == CYDEV_PROJ_TYPE_MULTIAPPBOOTLOADER) || \
 161:.\Generated_Source\PSoC4/Bootloader.c ****      (CYDEV_PROJ_TYPE == CYDEV_PROJ_TYPE_LAUNCHER))
 162:.\Generated_Source\PSoC4/Bootloader.c ****     static uint8 Bootloader_GetActiveAppFromMetadata(void) CYSMALL \
 163:.\Generated_Source\PSoC4/Bootloader.c ****                 ;                     
 164:.\Generated_Source\PSoC4/Bootloader.c **** #endif /*((CYDEV_PROJ_TYPE == CYDEV_PROJ_TYPE_LOADABLEANDBOOTLOADER) || \
 165:.\Generated_Source\PSoC4/Bootloader.c ****           (CYDEV_PROJ_TYPE == CYDEV_PROJ_TYPE_MULTIAPPBOOTLOADER) || \
 166:.\Generated_Source\PSoC4/Bootloader.c ****           (CYDEV_PROJ_TYPE == CYDEV_PROJ_TYPE_LAUNCHER)) */
 167:.\Generated_Source\PSoC4/Bootloader.c ****           
 168:.\Generated_Source\PSoC4/Bootloader.c **** #if (CYDEV_PROJ_TYPE == CYDEV_PROJ_TYPE_LAUNCHER)
 169:.\Generated_Source\PSoC4/Bootloader.c **** #if ((0u != Bootloader_COPIER_AVAIL) && (CY_PSOC4)) 
 170:.\Generated_Source\PSoC4/Bootloader.c ****     static cystatus Bootloader_CopyRow(uint16 srcRowNum, uint16 dstRowNum) \
 171:.\Generated_Source\PSoC4/Bootloader.c ****                  CYSMALL ;
 172:.\Generated_Source\PSoC4/Bootloader.c ****     static void Bootloader_Copier(void) CYSMALL ;
 173:.\Generated_Source\PSoC4/Bootloader.c **** #endif /*(0u != Bootloader_COPIER_AVAIL) && (CY_PSOC4)*/
ARM GAS  C:\Users\LUKASC~1\AppData\Local\Temp\ccn8LSRc.s 			page 5


 174:.\Generated_Source\PSoC4/Bootloader.c **** #endif /*(CYDEV_PROJ_TYPE == CYDEV_PROJ_TYPE_LAUNCHER)*/
 175:.\Generated_Source\PSoC4/Bootloader.c ****                        
 176:.\Generated_Source\PSoC4/Bootloader.c **** 
 177:.\Generated_Source\PSoC4/Bootloader.c **** /**
 178:.\Generated_Source\PSoC4/Bootloader.c ****  \defgroup functions_group Functions
 179:.\Generated_Source\PSoC4/Bootloader.c ****  @{
 180:.\Generated_Source\PSoC4/Bootloader.c **** */
 181:.\Generated_Source\PSoC4/Bootloader.c **** #if ((CYDEV_PROJ_TYPE == CYDEV_PROJ_TYPE_LOADABLEANDBOOTLOADER) || \
 182:.\Generated_Source\PSoC4/Bootloader.c ****                                   (0u != Bootloader_DUAL_APP_BOOTLOADER))                          
 183:.\Generated_Source\PSoC4/Bootloader.c **** /*******************************************************************************
 184:.\Generated_Source\PSoC4/Bootloader.c **** * Function Name: Bootloader_SetActiveAppInMetadata
 185:.\Generated_Source\PSoC4/Bootloader.c **** ****************************************************************************//**
 186:.\Generated_Source\PSoC4/Bootloader.c **** * \internal
 187:.\Generated_Source\PSoC4/Bootloader.c **** *
 188:.\Generated_Source\PSoC4/Bootloader.c **** * \brief
 189:.\Generated_Source\PSoC4/Bootloader.c **** *    This function sets the active application in metadata.
 190:.\Generated_Source\PSoC4/Bootloader.c **** *    The other application is set inactive. 
 191:.\Generated_Source\PSoC4/Bootloader.c **** *
 192:.\Generated_Source\PSoC4/Bootloader.c **** * \param activeApp
 193:.\Generated_Source\PSoC4/Bootloader.c **** *   The active application number (0 or 1). If the active application number is
 194:.\Generated_Source\PSoC4/Bootloader.c **** *   greater than 1, then nothing is done.  
 195:.\Generated_Source\PSoC4/Bootloader.c **** *
 196:.\Generated_Source\PSoC4/Bootloader.c **** * \endinternal
 197:.\Generated_Source\PSoC4/Bootloader.c **** *******************************************************************************/
 198:.\Generated_Source\PSoC4/Bootloader.c **** static void Bootloader_SetActiveAppInMetadata(uint8 activeApp) CYSMALL \
 199:.\Generated_Source\PSoC4/Bootloader.c ****                      
 200:.\Generated_Source\PSoC4/Bootloader.c **** {
 201:.\Generated_Source\PSoC4/Bootloader.c ****     if (Bootloader_MD_BTLDB_ACTIVE_NONE > activeApp)
 202:.\Generated_Source\PSoC4/Bootloader.c ****     {
 203:.\Generated_Source\PSoC4/Bootloader.c ****         uint8 CYDATA idx;    
 204:.\Generated_Source\PSoC4/Bootloader.c ****         for(idx = 0u; idx < Bootloader_MAX_NUM_OF_BTLDB; idx++)
 205:.\Generated_Source\PSoC4/Bootloader.c ****         {
 206:.\Generated_Source\PSoC4/Bootloader.c ****             (void)Bootloader_SetFlashByte((uint32) Bootloader_MD_BTLDB_ACTIVE_OFFSET(idx),
 207:.\Generated_Source\PSoC4/Bootloader.c ****                                                 (uint8)(idx == activeApp));
 208:.\Generated_Source\PSoC4/Bootloader.c ****         }
 209:.\Generated_Source\PSoC4/Bootloader.c ****     }    
 210:.\Generated_Source\PSoC4/Bootloader.c **** }
 211:.\Generated_Source\PSoC4/Bootloader.c **** #endif /* (CYDEV_PROJ_TYPE == CYDEV_PROJ_TYPE_LOADABLEANDBOOTLOADER) || 
 212:.\Generated_Source\PSoC4/Bootloader.c ****                            (0u != Bootloader_DUAL_APP_BOOTLOADER) */ 
 213:.\Generated_Source\PSoC4/Bootloader.c **** 
 214:.\Generated_Source\PSoC4/Bootloader.c **** #if ((CYDEV_PROJ_TYPE == CYDEV_PROJ_TYPE_LOADABLEANDBOOTLOADER) || \
 215:.\Generated_Source\PSoC4/Bootloader.c ****      (CYDEV_PROJ_TYPE == CYDEV_PROJ_TYPE_MULTIAPPBOOTLOADER) || \
 216:.\Generated_Source\PSoC4/Bootloader.c ****      (CYDEV_PROJ_TYPE == CYDEV_PROJ_TYPE_LAUNCHER))                   
 217:.\Generated_Source\PSoC4/Bootloader.c **** /*******************************************************************************
 218:.\Generated_Source\PSoC4/Bootloader.c **** * Function Name: Bootloader_GetActiveAppFromMetadata
 219:.\Generated_Source\PSoC4/Bootloader.c **** ****************************************************************************//**
 220:.\Generated_Source\PSoC4/Bootloader.c **** * \internal
 221:.\Generated_Source\PSoC4/Bootloader.c **** *
 222:.\Generated_Source\PSoC4/Bootloader.c **** * \brief
 223:.\Generated_Source\PSoC4/Bootloader.c **** *    This function performs reading of both metadata sections to
 224:.\Generated_Source\PSoC4/Bootloader.c **** *    identify an active application. If none application is set active, 
 225:.\Generated_Source\PSoC4/Bootloader.c **** *    then Bootloader_MD_BTLDB_ACTIVE_NONE (0x02) is returned.
 226:.\Generated_Source\PSoC4/Bootloader.c **** *
 227:.\Generated_Source\PSoC4/Bootloader.c **** * \return
 228:.\Generated_Source\PSoC4/Bootloader.c **** *   The number of active applications. In the case of error:
 229:.\Generated_Source\PSoC4/Bootloader.c **** *   -  Bootloader_MD_BTLDB_ACTIVE_NONE (0x02) - neither application is initialized;
 230:.\Generated_Source\PSoC4/Bootloader.c **** *   -  Bootloader_BOTH_ACTIVE (0x03) - both applications are set active;
ARM GAS  C:\Users\LUKASC~1\AppData\Local\Temp\ccn8LSRc.s 			page 6


 231:.\Generated_Source\PSoC4/Bootloader.c **** *
 232:.\Generated_Source\PSoC4/Bootloader.c **** * \endinternal 
 233:.\Generated_Source\PSoC4/Bootloader.c **** *******************************************************************************/
 234:.\Generated_Source\PSoC4/Bootloader.c **** static  uint8 Bootloader_GetActiveAppFromMetadata(void) CYSMALL \
 235:.\Generated_Source\PSoC4/Bootloader.c ****        
 236:.\Generated_Source\PSoC4/Bootloader.c **** {
 237:.\Generated_Source\PSoC4/Bootloader.c ****     uint8 CYDATA result;
 238:.\Generated_Source\PSoC4/Bootloader.c ****     uint8 CYDATA app0 = (uint8)Bootloader_GetMetadata(Bootloader_GET_BTLDB_ACTIVE, 
 239:.\Generated_Source\PSoC4/Bootloader.c ****                                                      Bootloader_MD_BTLDB_ACTIVE_0);
 240:.\Generated_Source\PSoC4/Bootloader.c ****     uint8 CYDATA app1 = (uint8)Bootloader_GetMetadata(Bootloader_GET_BTLDB_ACTIVE, 
 241:.\Generated_Source\PSoC4/Bootloader.c ****                                                      Bootloader_MD_BTLDB_ACTIVE_1);        
 242:.\Generated_Source\PSoC4/Bootloader.c **** 
 243:.\Generated_Source\PSoC4/Bootloader.c ****     if (0u != app0)                                                     
 244:.\Generated_Source\PSoC4/Bootloader.c ****     {
 245:.\Generated_Source\PSoC4/Bootloader.c ****         if (0u == app1)
 246:.\Generated_Source\PSoC4/Bootloader.c ****         {
 247:.\Generated_Source\PSoC4/Bootloader.c ****             /* app0 is active */
 248:.\Generated_Source\PSoC4/Bootloader.c ****             result = Bootloader_MD_BTLDB_ACTIVE_0;
 249:.\Generated_Source\PSoC4/Bootloader.c ****         }
 250:.\Generated_Source\PSoC4/Bootloader.c ****         else 
 251:.\Generated_Source\PSoC4/Bootloader.c ****         {
 252:.\Generated_Source\PSoC4/Bootloader.c ****             /* Both are active */
 253:.\Generated_Source\PSoC4/Bootloader.c ****             result = Bootloader_BOTH_ACTIVE;
 254:.\Generated_Source\PSoC4/Bootloader.c ****         }
 255:.\Generated_Source\PSoC4/Bootloader.c ****     }
 256:.\Generated_Source\PSoC4/Bootloader.c ****     else /* (0u == app0) */
 257:.\Generated_Source\PSoC4/Bootloader.c ****     {
 258:.\Generated_Source\PSoC4/Bootloader.c ****         if (0u != app1)
 259:.\Generated_Source\PSoC4/Bootloader.c ****         {
 260:.\Generated_Source\PSoC4/Bootloader.c ****             /* app1 is active */
 261:.\Generated_Source\PSoC4/Bootloader.c ****             result = Bootloader_MD_BTLDB_ACTIVE_1;
 262:.\Generated_Source\PSoC4/Bootloader.c ****         }
 263:.\Generated_Source\PSoC4/Bootloader.c ****         else
 264:.\Generated_Source\PSoC4/Bootloader.c ****         {
 265:.\Generated_Source\PSoC4/Bootloader.c ****             /* Neither app is active. */
 266:.\Generated_Source\PSoC4/Bootloader.c ****             result = Bootloader_MD_BTLDB_ACTIVE_NONE;
 267:.\Generated_Source\PSoC4/Bootloader.c ****         }          
 268:.\Generated_Source\PSoC4/Bootloader.c ****     }
 269:.\Generated_Source\PSoC4/Bootloader.c **** 
 270:.\Generated_Source\PSoC4/Bootloader.c ****     return (result);
 271:.\Generated_Source\PSoC4/Bootloader.c **** }
 272:.\Generated_Source\PSoC4/Bootloader.c **** #endif /*((CYDEV_PROJ_TYPE == CYDEV_PROJ_TYPE_LOADABLEANDBOOTLOADER) || \
 273:.\Generated_Source\PSoC4/Bootloader.c ****           (CYDEV_PROJ_TYPE == CYDEV_PROJ_TYPE_MULTIAPPBOOTLOADER) || \
 274:.\Generated_Source\PSoC4/Bootloader.c ****           (CYDEV_PROJ_TYPE == CYDEV_PROJ_TYPE_LAUNCHER)) */
 275:.\Generated_Source\PSoC4/Bootloader.c ****         
 276:.\Generated_Source\PSoC4/Bootloader.c **** #if (CYDEV_PROJ_TYPE == CYDEV_PROJ_TYPE_LOADABLEANDBOOTLOADER)
 277:.\Generated_Source\PSoC4/Bootloader.c **** /*******************************************************************************
 278:.\Generated_Source\PSoC4/Bootloader.c **** * Function Name: Bootloader_Initialize
 279:.\Generated_Source\PSoC4/Bootloader.c **** ****************************************************************************//**
 280:.\Generated_Source\PSoC4/Bootloader.c **** * 
 281:.\Generated_Source\PSoC4/Bootloader.c **** * \brief 
 282:.\Generated_Source\PSoC4/Bootloader.c **** *   Used for in-app bootloading. This function updates the global variable 
 283:.\Generated_Source\PSoC4/Bootloader.c **** *   Bootloader_runningApp with a running application number.
 284:.\Generated_Source\PSoC4/Bootloader.c **** *
 285:.\Generated_Source\PSoC4/Bootloader.c **** *   If the running application number is valid (0 or 1), this function also 
 286:.\Generated_Source\PSoC4/Bootloader.c **** *   sets the global variable Bootloader_initVar that is used to determine 
 287:.\Generated_Source\PSoC4/Bootloader.c **** *   if the component can process bootloader commands or not.
ARM GAS  C:\Users\LUKASC~1\AppData\Local\Temp\ccn8LSRc.s 			page 7


 288:.\Generated_Source\PSoC4/Bootloader.c **** *   This function should be called once in the application project after a startup.
 289:.\Generated_Source\PSoC4/Bootloader.c **** *
 290:.\Generated_Source\PSoC4/Bootloader.c **** * \return
 291:.\Generated_Source\PSoC4/Bootloader.c **** *   Global variables: 
 292:.\Generated_Source\PSoC4/Bootloader.c **** *     - Bootloader_runningApp
 293:.\Generated_Source\PSoC4/Bootloader.c **** *     - Bootloader_activeApp
 294:.\Generated_Source\PSoC4/Bootloader.c **** *     - Bootloader_initVar
 295:.\Generated_Source\PSoC4/Bootloader.c **** *
 296:.\Generated_Source\PSoC4/Bootloader.c **** * \details 
 297:.\Generated_Source\PSoC4/Bootloader.c **** *   This API should be called first to be able to capture the active application 
 298:.\Generated_Source\PSoC4/Bootloader.c **** *   number that is actually the running application number.
 299:.\Generated_Source\PSoC4/Bootloader.c **** *******************************************************************************/
 300:.\Generated_Source\PSoC4/Bootloader.c **** void Bootloader_Initialize(void) CYSMALL \
 301:.\Generated_Source\PSoC4/Bootloader.c ****                                
 302:.\Generated_Source\PSoC4/Bootloader.c **** {
 303:.\Generated_Source\PSoC4/Bootloader.c ****     if (Bootloader_BOOTLOADING_NOT_INITIALIZED ==Bootloader_initVar)
 304:.\Generated_Source\PSoC4/Bootloader.c ****     {
 305:.\Generated_Source\PSoC4/Bootloader.c ****         Bootloader_activeApp = Bootloader_GetActiveAppFromMetadata();
 306:.\Generated_Source\PSoC4/Bootloader.c ****         
 307:.\Generated_Source\PSoC4/Bootloader.c ****         /* Updating with number of active application */    
 308:.\Generated_Source\PSoC4/Bootloader.c ****         if ((Bootloader_MD_BTLDB_ACTIVE_NONE != Bootloader_activeApp) &&
 309:.\Generated_Source\PSoC4/Bootloader.c ****             (Bootloader_BOTH_ACTIVE != Bootloader_activeApp))
 310:.\Generated_Source\PSoC4/Bootloader.c ****         {
 311:.\Generated_Source\PSoC4/Bootloader.c ****             Bootloader_runningApp = Bootloader_activeApp;
 312:.\Generated_Source\PSoC4/Bootloader.c ****             
 313:.\Generated_Source\PSoC4/Bootloader.c ****             /* Bootloader commands are to be processed */
 314:.\Generated_Source\PSoC4/Bootloader.c ****             Bootloader_initVar = Bootloader_BOOTLADING_INITIALIZED;
 315:.\Generated_Source\PSoC4/Bootloader.c ****         }
 316:.\Generated_Source\PSoC4/Bootloader.c ****         else 
 317:.\Generated_Source\PSoC4/Bootloader.c ****         {
 318:.\Generated_Source\PSoC4/Bootloader.c ****             Bootloader_runningApp = Bootloader_RUNNING_APPLICATION_UNKNOWN;
 319:.\Generated_Source\PSoC4/Bootloader.c ****         }
 320:.\Generated_Source\PSoC4/Bootloader.c ****     }
 321:.\Generated_Source\PSoC4/Bootloader.c **** }
 322:.\Generated_Source\PSoC4/Bootloader.c **** 
 323:.\Generated_Source\PSoC4/Bootloader.c **** /*****************************************************************************
 324:.\Generated_Source\PSoC4/Bootloader.c **** * Function Name: Bootloader_GetRunningAppStatus
 325:.\Generated_Source\PSoC4/Bootloader.c **** **************************************************************************//**
 326:.\Generated_Source\PSoC4/Bootloader.c **** *
 327:.\Generated_Source\PSoC4/Bootloader.c **** * \brief 
 328:.\Generated_Source\PSoC4/Bootloader.c **** *   Used for dual-app or in-app bootloader. Returns the value of the global 
 329:.\Generated_Source\PSoC4/Bootloader.c **** *   variable Bootloader_runningApp. This function should be called only after the 
 330:.\Generated_Source\PSoC4/Bootloader.c **** *   Bootloader_Initialize() has been called once.
 331:.\Generated_Source\PSoC4/Bootloader.c **** *
 332:.\Generated_Source\PSoC4/Bootloader.c **** * \return 
 333:.\Generated_Source\PSoC4/Bootloader.c **** *   The application number that is currently being executed. Values are 0 or 1; 
 334:.\Generated_Source\PSoC4/Bootloader.c **** *     other values indicate "not defined".
 335:.\Generated_Source\PSoC4/Bootloader.c **** *
 336:.\Generated_Source\PSoC4/Bootloader.c **** *******************************************************************************/
 337:.\Generated_Source\PSoC4/Bootloader.c **** uint8 Bootloader_GetRunningAppStatus(void) CYSMALL \
 338:.\Generated_Source\PSoC4/Bootloader.c ****             
 339:.\Generated_Source\PSoC4/Bootloader.c **** {  
 340:.\Generated_Source\PSoC4/Bootloader.c ****     return (Bootloader_runningApp);
 341:.\Generated_Source\PSoC4/Bootloader.c **** }
 342:.\Generated_Source\PSoC4/Bootloader.c **** 
 343:.\Generated_Source\PSoC4/Bootloader.c **** 
 344:.\Generated_Source\PSoC4/Bootloader.c **** /*******************************************************************************
ARM GAS  C:\Users\LUKASC~1\AppData\Local\Temp\ccn8LSRc.s 			page 8


 345:.\Generated_Source\PSoC4/Bootloader.c **** * Function Name: Bootloader_GetActiveAppStatus
 346:.\Generated_Source\PSoC4/Bootloader.c **** ****************************************************************************//**
 347:.\Generated_Source\PSoC4/Bootloader.c **** *
 348:.\Generated_Source\PSoC4/Bootloader.c **** * \brief 
 349:.\Generated_Source\PSoC4/Bootloader.c **** *   Used for dual-app or in-app bootloader. Returns the value of the global 
 350:.\Generated_Source\PSoC4/Bootloader.c **** *   variable Bootloader_activeApp. This function should be called only after the 
 351:.\Generated_Source\PSoC4/Bootloader.c **** *   Bootloader_Initialize() has been called once.
 352:.\Generated_Source\PSoC4/Bootloader.c **** *
 353:.\Generated_Source\PSoC4/Bootloader.c **** * \return 
 354:.\Generated_Source\PSoC4/Bootloader.c **** *   The desired application to be executed. Values are 0 or 1; other values 
 355:.\Generated_Source\PSoC4/Bootloader.c **** *     indicate "not defined".
 356:.\Generated_Source\PSoC4/Bootloader.c **** *
 357:.\Generated_Source\PSoC4/Bootloader.c **** *******************************************************************************/
 358:.\Generated_Source\PSoC4/Bootloader.c **** uint8 Bootloader_GetActiveAppStatus(void) CYSMALL \
 359:.\Generated_Source\PSoC4/Bootloader.c ****       
 360:.\Generated_Source\PSoC4/Bootloader.c **** {  
 361:.\Generated_Source\PSoC4/Bootloader.c ****     /* Read active application number from metadata */
 362:.\Generated_Source\PSoC4/Bootloader.c ****     Bootloader_activeApp = Bootloader_GetActiveAppFromMetadata();
 363:.\Generated_Source\PSoC4/Bootloader.c ****     
 364:.\Generated_Source\PSoC4/Bootloader.c ****     return (Bootloader_activeApp);
 365:.\Generated_Source\PSoC4/Bootloader.c **** }
 366:.\Generated_Source\PSoC4/Bootloader.c **** #endif /*(CYDEV_PROJ_TYPE == CYDEV_PROJ_TYPE_LOADABLEANDBOOTLOADER)*/
 367:.\Generated_Source\PSoC4/Bootloader.c **** 
 368:.\Generated_Source\PSoC4/Bootloader.c **** #if (CYDEV_PROJ_TYPE != CYDEV_PROJ_TYPE_LAUNCHER)
 369:.\Generated_Source\PSoC4/Bootloader.c **** /*******************************************************************************
 370:.\Generated_Source\PSoC4/Bootloader.c **** * Function Name: Bootloader_CalcPacketChecksum
 371:.\Generated_Source\PSoC4/Bootloader.c **** ****************************************************************************//**
 372:.\Generated_Source\PSoC4/Bootloader.c **** *  \internal
 373:.\Generated_Source\PSoC4/Bootloader.c **** *
 374:.\Generated_Source\PSoC4/Bootloader.c **** *  \brief
 375:.\Generated_Source\PSoC4/Bootloader.c **** *     This computes a 16-bit checksum for the provided number of bytes contained
 376:.\Generated_Source\PSoC4/Bootloader.c **** *     in the provided buffer.
 377:.\Generated_Source\PSoC4/Bootloader.c **** *
 378:.\Generated_Source\PSoC4/Bootloader.c **** *  \param buffer
 379:.\Generated_Source\PSoC4/Bootloader.c **** *     The buffer containing the data to compute the checksum.
 380:.\Generated_Source\PSoC4/Bootloader.c **** *  \param size
 381:.\Generated_Source\PSoC4/Bootloader.c **** *     The number of bytes in the buffer to compute the checksum.
 382:.\Generated_Source\PSoC4/Bootloader.c **** *
 383:.\Generated_Source\PSoC4/Bootloader.c **** *  \return 
 384:.\Generated_Source\PSoC4/Bootloader.c **** *     A 16-bit checksum for the provided data.
 385:.\Generated_Source\PSoC4/Bootloader.c **** *
 386:.\Generated_Source\PSoC4/Bootloader.c **** *  \endinternal
 387:.\Generated_Source\PSoC4/Bootloader.c **** *******************************************************************************/
 388:.\Generated_Source\PSoC4/Bootloader.c **** static uint16 Bootloader_CalcPacketChecksum(const uint8 buffer[], uint16 size) \
 389:.\Generated_Source\PSoC4/Bootloader.c ****                     CYSMALL 
 390:.\Generated_Source\PSoC4/Bootloader.c **** {
  56              		.loc 1 390 0
  57              		.cfi_startproc
  58 0000 80B5     		push	{r7, lr}
  59              		.cfi_def_cfa_offset 8
  60              		.cfi_offset 7, -8
  61              		.cfi_offset 14, -4
  62 0002 84B0     		sub	sp, sp, #16
  63              		.cfi_def_cfa_offset 24
  64 0004 00AF     		add	r7, sp, #0
  65              		.cfi_def_cfa_register 7
  66 0006 7860     		str	r0, [r7, #4]
ARM GAS  C:\Users\LUKASC~1\AppData\Local\Temp\ccn8LSRc.s 			page 9


  67 0008 0A1C     		mov	r2, r1
  68 000a BB1C     		add	r3, r7, #2
  69 000c 1A80     		strh	r2, [r3]
 391:.\Generated_Source\PSoC4/Bootloader.c ****     #if(0u != Bootloader_PACKET_CHECKSUM_CRC)
 392:.\Generated_Source\PSoC4/Bootloader.c **** 
 393:.\Generated_Source\PSoC4/Bootloader.c ****         uint16 CYDATA crc = Bootloader_CRC_CCITT_INITIAL_VALUE;
 394:.\Generated_Source\PSoC4/Bootloader.c ****         uint16 CYDATA tmp;
 395:.\Generated_Source\PSoC4/Bootloader.c ****         uint8  CYDATA i;
 396:.\Generated_Source\PSoC4/Bootloader.c ****         uint16 CYDATA tmpIndex = size;
 397:.\Generated_Source\PSoC4/Bootloader.c **** 
 398:.\Generated_Source\PSoC4/Bootloader.c ****         if(0u == size)
 399:.\Generated_Source\PSoC4/Bootloader.c ****         {
 400:.\Generated_Source\PSoC4/Bootloader.c ****             crc = ~crc;
 401:.\Generated_Source\PSoC4/Bootloader.c ****         }
 402:.\Generated_Source\PSoC4/Bootloader.c ****         else
 403:.\Generated_Source\PSoC4/Bootloader.c ****         {
 404:.\Generated_Source\PSoC4/Bootloader.c ****             do
 405:.\Generated_Source\PSoC4/Bootloader.c ****             {
 406:.\Generated_Source\PSoC4/Bootloader.c ****                 tmp = buffer[tmpIndex - size];
 407:.\Generated_Source\PSoC4/Bootloader.c **** 
 408:.\Generated_Source\PSoC4/Bootloader.c ****                 for (i = 0u; i < 8u; i++)
 409:.\Generated_Source\PSoC4/Bootloader.c ****                 {
 410:.\Generated_Source\PSoC4/Bootloader.c ****                     if (0u != ((crc & 0x0001u) ^ (tmp & 0x0001u)))
 411:.\Generated_Source\PSoC4/Bootloader.c ****                     {
 412:.\Generated_Source\PSoC4/Bootloader.c ****                         crc = (crc >> 1u) ^ Bootloader_CRC_CCITT_POLYNOMIAL;
 413:.\Generated_Source\PSoC4/Bootloader.c ****                     }
 414:.\Generated_Source\PSoC4/Bootloader.c ****                     else
 415:.\Generated_Source\PSoC4/Bootloader.c ****                     {
 416:.\Generated_Source\PSoC4/Bootloader.c ****                         crc >>= 1u;
 417:.\Generated_Source\PSoC4/Bootloader.c ****                     }
 418:.\Generated_Source\PSoC4/Bootloader.c **** 
 419:.\Generated_Source\PSoC4/Bootloader.c ****                     tmp >>= 1u;
 420:.\Generated_Source\PSoC4/Bootloader.c ****                 }
 421:.\Generated_Source\PSoC4/Bootloader.c **** 
 422:.\Generated_Source\PSoC4/Bootloader.c ****                 size--;
 423:.\Generated_Source\PSoC4/Bootloader.c ****             }
 424:.\Generated_Source\PSoC4/Bootloader.c ****             while(0u != size);
 425:.\Generated_Source\PSoC4/Bootloader.c **** 
 426:.\Generated_Source\PSoC4/Bootloader.c ****             crc = ~crc;
 427:.\Generated_Source\PSoC4/Bootloader.c ****             tmp = crc;
 428:.\Generated_Source\PSoC4/Bootloader.c ****             crc = ( uint16 )(crc << 8u) | (tmp >> 8u);
 429:.\Generated_Source\PSoC4/Bootloader.c ****         }
 430:.\Generated_Source\PSoC4/Bootloader.c **** 
 431:.\Generated_Source\PSoC4/Bootloader.c ****         return(crc);
 432:.\Generated_Source\PSoC4/Bootloader.c **** 
 433:.\Generated_Source\PSoC4/Bootloader.c ****     #else
 434:.\Generated_Source\PSoC4/Bootloader.c **** 
 435:.\Generated_Source\PSoC4/Bootloader.c ****         uint16 CYDATA sum = 0u;
  70              		.loc 1 435 0
  71 000e 0E23     		mov	r3, #14
  72 0010 FB18     		add	r3, r7, r3
  73 0012 0022     		mov	r2, #0
  74 0014 1A80     		strh	r2, [r3]
 436:.\Generated_Source\PSoC4/Bootloader.c **** 
 437:.\Generated_Source\PSoC4/Bootloader.c ****         while (size > 0u)
  75              		.loc 1 437 0
  76 0016 12E0     		b	.L2
ARM GAS  C:\Users\LUKASC~1\AppData\Local\Temp\ccn8LSRc.s 			page 10


  77              	.L3:
 438:.\Generated_Source\PSoC4/Bootloader.c ****         {
 439:.\Generated_Source\PSoC4/Bootloader.c ****             sum += buffer[size - 1u];
  78              		.loc 1 439 0
  79 0018 BB1C     		add	r3, r7, #2
  80 001a 1B88     		ldrh	r3, [r3]
  81 001c 013B     		sub	r3, r3, #1
  82 001e 7A68     		ldr	r2, [r7, #4]
  83 0020 D318     		add	r3, r2, r3
  84 0022 1B78     		ldrb	r3, [r3]
  85 0024 99B2     		uxth	r1, r3
  86 0026 0E23     		mov	r3, #14
  87 0028 FB18     		add	r3, r7, r3
  88 002a 0E22     		mov	r2, #14
  89 002c BA18     		add	r2, r7, r2
  90 002e 1288     		ldrh	r2, [r2]
  91 0030 8A18     		add	r2, r1, r2
  92 0032 1A80     		strh	r2, [r3]
 440:.\Generated_Source\PSoC4/Bootloader.c ****             size--;
  93              		.loc 1 440 0
  94 0034 BB1C     		add	r3, r7, #2
  95 0036 1A88     		ldrh	r2, [r3]
  96 0038 BB1C     		add	r3, r7, #2
  97 003a 013A     		sub	r2, r2, #1
  98 003c 1A80     		strh	r2, [r3]
  99              	.L2:
 437:.\Generated_Source\PSoC4/Bootloader.c ****         {
 100              		.loc 1 437 0
 101 003e BB1C     		add	r3, r7, #2
 102 0040 1B88     		ldrh	r3, [r3]
 103 0042 002B     		cmp	r3, #0
 104 0044 E8D1     		bne	.L3
 441:.\Generated_Source\PSoC4/Bootloader.c ****         }
 442:.\Generated_Source\PSoC4/Bootloader.c **** 
 443:.\Generated_Source\PSoC4/Bootloader.c ****         return(( uint16 )1u + ( uint16 )(~sum));
 105              		.loc 1 443 0
 106 0046 0E23     		mov	r3, #14
 107 0048 FB18     		add	r3, r7, r3
 108 004a 1B88     		ldrh	r3, [r3]
 109 004c 5B42     		neg	r3, r3
 110 004e 9BB2     		uxth	r3, r3
 444:.\Generated_Source\PSoC4/Bootloader.c **** 
 445:.\Generated_Source\PSoC4/Bootloader.c ****     #endif /* (0u != Bootloader_PACKET_CHECKSUM_CRC) */
 446:.\Generated_Source\PSoC4/Bootloader.c **** }
 111              		.loc 1 446 0
 112 0050 181C     		mov	r0, r3
 113 0052 BD46     		mov	sp, r7
 114 0054 04B0     		add	sp, sp, #16
 115              		@ sp needed
 116 0056 80BD     		pop	{r7, pc}
 117              		.cfi_endproc
 118              	.LFE34:
 119              		.size	Bootloader_CalcPacketChecksum, .-Bootloader_CalcPacketChecksum
 120              		.section	.text.Bootloader_InitCallback,"ax",%progbits
 121              		.align	2
 122              		.global	Bootloader_InitCallback
 123              		.code	16
ARM GAS  C:\Users\LUKASC~1\AppData\Local\Temp\ccn8LSRc.s 			page 11


 124              		.thumb_func
 125              		.type	Bootloader_InitCallback, %function
 126              	Bootloader_InitCallback:
 127              	.LFB35:
 447:.\Generated_Source\PSoC4/Bootloader.c **** 
 448:.\Generated_Source\PSoC4/Bootloader.c **** #if (!CY_PSOC3)
 449:.\Generated_Source\PSoC4/Bootloader.c **** /*******************************************************************************
 450:.\Generated_Source\PSoC4/Bootloader.c **** * Function Name: Bootloader_InitCallback
 451:.\Generated_Source\PSoC4/Bootloader.c **** ****************************************************************************//**
 452:.\Generated_Source\PSoC4/Bootloader.c **** *
 453:.\Generated_Source\PSoC4/Bootloader.c **** * \brief
 454:.\Generated_Source\PSoC4/Bootloader.c **** *  This function initializes the callback functionality.
 455:.\Generated_Source\PSoC4/Bootloader.c **** *  
 456:.\Generated_Source\PSoC4/Bootloader.c **** * \param userCallback
 457:.\Generated_Source\PSoC4/Bootloader.c **** *  The user's callback function.
 458:.\Generated_Source\PSoC4/Bootloader.c **** *
 459:.\Generated_Source\PSoC4/Bootloader.c **** *******************************************************************************/
 460:.\Generated_Source\PSoC4/Bootloader.c **** void Bootloader_InitCallback(Bootloader_callback_type userCallback) \
 461:.\Generated_Source\PSoC4/Bootloader.c ****            CYSMALL 
 462:.\Generated_Source\PSoC4/Bootloader.c **** {
 128              		.loc 1 462 0
 129              		.cfi_startproc
 130 0000 80B5     		push	{r7, lr}
 131              		.cfi_def_cfa_offset 8
 132              		.cfi_offset 7, -8
 133              		.cfi_offset 14, -4
 134 0002 82B0     		sub	sp, sp, #8
 135              		.cfi_def_cfa_offset 16
 136 0004 00AF     		add	r7, sp, #0
 137              		.cfi_def_cfa_register 7
 138 0006 7860     		str	r0, [r7, #4]
 463:.\Generated_Source\PSoC4/Bootloader.c ****     Bootloader_callback = userCallback;
 139              		.loc 1 463 0
 140 0008 024B     		ldr	r3, .L6
 141 000a 7A68     		ldr	r2, [r7, #4]
 142 000c 1A60     		str	r2, [r3]
 464:.\Generated_Source\PSoC4/Bootloader.c **** }
 143              		.loc 1 464 0
 144 000e BD46     		mov	sp, r7
 145 0010 02B0     		add	sp, sp, #8
 146              		@ sp needed
 147 0012 80BD     		pop	{r7, pc}
 148              	.L7:
 149              		.align	2
 150              	.L6:
 151 0014 00000000 		.word	Bootloader_callback
 152              		.cfi_endproc
 153              	.LFE35:
 154              		.size	Bootloader_InitCallback, .-Bootloader_InitCallback
 155              		.section	.text.Bootloader_VerifyRow,"ax",%progbits
 156              		.align	2
 157              		.code	16
 158              		.thumb_func
 159              		.type	Bootloader_VerifyRow, %function
 160              	Bootloader_VerifyRow:
 161              	.LFB36:
 465:.\Generated_Source\PSoC4/Bootloader.c **** #endif /* (!CY_PSOC3) */
ARM GAS  C:\Users\LUKASC~1\AppData\Local\Temp\ccn8LSRc.s 			page 12


 466:.\Generated_Source\PSoC4/Bootloader.c **** 
 467:.\Generated_Source\PSoC4/Bootloader.c **** 
 468:.\Generated_Source\PSoC4/Bootloader.c **** #if (0u != Bootloader_CMD_VERIFY_FLS_ROW_AVAIL)
 469:.\Generated_Source\PSoC4/Bootloader.c **** /*******************************************************************************
 470:.\Generated_Source\PSoC4/Bootloader.c **** * Function Name: Bootloader_VerifyRow
 471:.\Generated_Source\PSoC4/Bootloader.c **** ****************************************************************************//**
 472:.\Generated_Source\PSoC4/Bootloader.c **** *  \internal
 473:.\Generated_Source\PSoC4/Bootloader.c **** * 
 474:.\Generated_Source\PSoC4/Bootloader.c **** *  \brief
 475:.\Generated_Source\PSoC4/Bootloader.c **** *   This API performs a byte to byte verifying of the flash row against the data 
 476:.\Generated_Source\PSoC4/Bootloader.c **** *   in the input buffer. 
 477:.\Generated_Source\PSoC4/Bootloader.c **** *
 478:.\Generated_Source\PSoC4/Bootloader.c **** *  \param flashStart 
 479:.\Generated_Source\PSoC4/Bootloader.c **** *        The start address of a row in flash.
 480:.\Generated_Source\PSoC4/Bootloader.c **** *  \param ramStart 
 481:.\Generated_Source\PSoC4/Bootloader.c **** *        The start address of corresponding data to compare in the RAM buffer.
 482:.\Generated_Source\PSoC4/Bootloader.c **** *  \param size 
 483:.\Generated_Source\PSoC4/Bootloader.c **** *        The data length (common for both arrays).
 484:.\Generated_Source\PSoC4/Bootloader.c **** *
 485:.\Generated_Source\PSoC4/Bootloader.c **** *  \return
 486:.\Generated_Source\PSoC4/Bootloader.c **** *   CYRET_SUCCESS - If all data matches.
 487:.\Generated_Source\PSoC4/Bootloader.c **** *  \n Bootloader_ERR_VERIFY - If there is any mismatch.
 488:.\Generated_Source\PSoC4/Bootloader.c **** *
 489:.\Generated_Source\PSoC4/Bootloader.c **** * \endinternal 
 490:.\Generated_Source\PSoC4/Bootloader.c **** *******************************************************************************/
 491:.\Generated_Source\PSoC4/Bootloader.c **** static uint8 Bootloader_VerifyRow(uint32 flashStart, const uint8* ramStart, uint16 size) \
 492:.\Generated_Source\PSoC4/Bootloader.c ****                 CYSMALL 
 493:.\Generated_Source\PSoC4/Bootloader.c **** {
 162              		.loc 1 493 0
 163              		.cfi_startproc
 164 0000 80B5     		push	{r7, lr}
 165              		.cfi_def_cfa_offset 8
 166              		.cfi_offset 7, -8
 167              		.cfi_offset 14, -4
 168 0002 86B0     		sub	sp, sp, #24
 169              		.cfi_def_cfa_offset 32
 170 0004 00AF     		add	r7, sp, #0
 171              		.cfi_def_cfa_register 7
 172 0006 F860     		str	r0, [r7, #12]
 173 0008 B960     		str	r1, [r7, #8]
 174 000a BB1D     		add	r3, r7, #6
 175 000c 1A80     		strh	r2, [r3]
 494:.\Generated_Source\PSoC4/Bootloader.c ****     uint8 CYDATA result = CYRET_SUCCESS;
 176              		.loc 1 494 0
 177 000e 1723     		mov	r3, #23
 178 0010 FB18     		add	r3, r7, r3
 179 0012 0022     		mov	r2, #0
 180 0014 1A70     		strb	r2, [r3]
 495:.\Generated_Source\PSoC4/Bootloader.c ****     uint16 CYDATA idx;
 496:.\Generated_Source\PSoC4/Bootloader.c **** 
 497:.\Generated_Source\PSoC4/Bootloader.c ****     for(idx = 0u; idx < size; idx++)
 181              		.loc 1 497 0
 182 0016 1423     		mov	r3, #20
 183 0018 FB18     		add	r3, r7, r3
 184 001a 0022     		mov	r2, #0
 185 001c 1A80     		strh	r2, [r3]
 186 001e 1AE0     		b	.L9
ARM GAS  C:\Users\LUKASC~1\AppData\Local\Temp\ccn8LSRc.s 			page 13


 187              	.L12:
 498:.\Generated_Source\PSoC4/Bootloader.c ****     {
 499:.\Generated_Source\PSoC4/Bootloader.c ****         if (CY_GET_XTND_REG8((uint8 CYFAR *)(flashStart + idx)) != ramStart[idx])
 188              		.loc 1 499 0
 189 0020 1423     		mov	r3, #20
 190 0022 FB18     		add	r3, r7, r3
 191 0024 1A88     		ldrh	r2, [r3]
 192 0026 FB68     		ldr	r3, [r7, #12]
 193 0028 D318     		add	r3, r2, r3
 194 002a 1B78     		ldrb	r3, [r3]
 195 002c DAB2     		uxtb	r2, r3
 196 002e 1423     		mov	r3, #20
 197 0030 FB18     		add	r3, r7, r3
 198 0032 1B88     		ldrh	r3, [r3]
 199 0034 B968     		ldr	r1, [r7, #8]
 200 0036 CB18     		add	r3, r1, r3
 201 0038 1B78     		ldrb	r3, [r3]
 202 003a 9A42     		cmp	r2, r3
 203 003c 04D0     		beq	.L10
 500:.\Generated_Source\PSoC4/Bootloader.c ****         {
 501:.\Generated_Source\PSoC4/Bootloader.c ****             result = Bootloader_ERR_VERIFY;
 204              		.loc 1 501 0
 205 003e 1723     		mov	r3, #23
 206 0040 FB18     		add	r3, r7, r3
 207 0042 0222     		mov	r2, #2
 208 0044 1A70     		strb	r2, [r3]
 502:.\Generated_Source\PSoC4/Bootloader.c ****             break;
 209              		.loc 1 502 0
 210 0046 0DE0     		b	.L11
 211              	.L10:
 497:.\Generated_Source\PSoC4/Bootloader.c ****     {
 212              		.loc 1 497 0 discriminator 2
 213 0048 1423     		mov	r3, #20
 214 004a FB18     		add	r3, r7, r3
 215 004c 1A88     		ldrh	r2, [r3]
 216 004e 1423     		mov	r3, #20
 217 0050 FB18     		add	r3, r7, r3
 218 0052 0132     		add	r2, r2, #1
 219 0054 1A80     		strh	r2, [r3]
 220              	.L9:
 497:.\Generated_Source\PSoC4/Bootloader.c ****     {
 221              		.loc 1 497 0 is_stmt 0 discriminator 1
 222 0056 1423     		mov	r3, #20
 223 0058 FA18     		add	r2, r7, r3
 224 005a BB1D     		add	r3, r7, #6
 225 005c 1288     		ldrh	r2, [r2]
 226 005e 1B88     		ldrh	r3, [r3]
 227 0060 9A42     		cmp	r2, r3
 228 0062 DDD3     		bcc	.L12
 229              	.L11:
 503:.\Generated_Source\PSoC4/Bootloader.c ****         }    
 504:.\Generated_Source\PSoC4/Bootloader.c ****     }
 505:.\Generated_Source\PSoC4/Bootloader.c **** 
 506:.\Generated_Source\PSoC4/Bootloader.c ****     return (result);
 230              		.loc 1 506 0 is_stmt 1
 231 0064 1723     		mov	r3, #23
 232 0066 FB18     		add	r3, r7, r3
ARM GAS  C:\Users\LUKASC~1\AppData\Local\Temp\ccn8LSRc.s 			page 14


 233 0068 1B78     		ldrb	r3, [r3]
 507:.\Generated_Source\PSoC4/Bootloader.c **** }
 234              		.loc 1 507 0
 235 006a 181C     		mov	r0, r3
 236 006c BD46     		mov	sp, r7
 237 006e 06B0     		add	sp, sp, #24
 238              		@ sp needed
 239 0070 80BD     		pop	{r7, pc}
 240              		.cfi_endproc
 241              	.LFE36:
 242              		.size	Bootloader_VerifyRow, .-Bootloader_VerifyRow
 243 0072 C046     		.section	.text.Bootloader_Calc8BitSum,"ax",%progbits
 244              		.align	2
 245              		.global	Bootloader_Calc8BitSum
 246              		.code	16
 247              		.thumb_func
 248              		.type	Bootloader_Calc8BitSum, %function
 249              	Bootloader_Calc8BitSum:
 250              	.LFB37:
 508:.\Generated_Source\PSoC4/Bootloader.c **** #endif /*(0u != Bootloader_CMD_VERIFY_FLS_ROW_AVAIL)*/
 509:.\Generated_Source\PSoC4/Bootloader.c **** #endif /*CYDEV_PROJ_TYPE != CYDEV_PROJ_TYPE_LAUNCHER*/
 510:.\Generated_Source\PSoC4/Bootloader.c **** 
 511:.\Generated_Source\PSoC4/Bootloader.c **** 
 512:.\Generated_Source\PSoC4/Bootloader.c **** /*******************************************************************************
 513:.\Generated_Source\PSoC4/Bootloader.c **** * Function Name: Bootloader_Calc8BitSum
 514:.\Generated_Source\PSoC4/Bootloader.c **** ****************************************************************************//**
 515:.\Generated_Source\PSoC4/Bootloader.c **** *
 516:.\Generated_Source\PSoC4/Bootloader.c **** * \brief
 517:.\Generated_Source\PSoC4/Bootloader.c **** *  This computes an 8-bit sum for the provided number of bytes contained in
 518:.\Generated_Source\PSoC4/Bootloader.c **** *  flash (if baseAddr equals CY_FLASH_BASE) or EEPROM (if baseAddr equals
 519:.\Generated_Source\PSoC4/Bootloader.c **** *  CY_EEPROM_BASE).
 520:.\Generated_Source\PSoC4/Bootloader.c **** *
 521:.\Generated_Source\PSoC4/Bootloader.c **** * \param baseAddr
 522:.\Generated_Source\PSoC4/Bootloader.c **** *   CY_FLASH_BASE
 523:.\Generated_Source\PSoC4/Bootloader.c **** *   CY_EEPROM_BASE - applicable only for PSoC 3 / PSoC 5LP devices.
 524:.\Generated_Source\PSoC4/Bootloader.c **** *
 525:.\Generated_Source\PSoC4/Bootloader.c **** * \param start
 526:.\Generated_Source\PSoC4/Bootloader.c **** *     The starting address to start summing data.
 527:.\Generated_Source\PSoC4/Bootloader.c **** * \param size
 528:.\Generated_Source\PSoC4/Bootloader.c **** *     The number of bytes to read and compute the sum.
 529:.\Generated_Source\PSoC4/Bootloader.c **** *
 530:.\Generated_Source\PSoC4/Bootloader.c **** * \return
 531:.\Generated_Source\PSoC4/Bootloader.c **** *   An 8-bit sum for the provided data.
 532:.\Generated_Source\PSoC4/Bootloader.c **** *
 533:.\Generated_Source\PSoC4/Bootloader.c **** *******************************************************************************/
 534:.\Generated_Source\PSoC4/Bootloader.c **** uint8 Bootloader_Calc8BitSum(uint32 baseAddr, uint32 start, uint32 size) \
 535:.\Generated_Source\PSoC4/Bootloader.c ****                 CYSMALL 
 536:.\Generated_Source\PSoC4/Bootloader.c **** {
 251              		.loc 1 536 0
 252              		.cfi_startproc
 253 0000 80B5     		push	{r7, lr}
 254              		.cfi_def_cfa_offset 8
 255              		.cfi_offset 7, -8
 256              		.cfi_offset 14, -4
 257 0002 86B0     		sub	sp, sp, #24
 258              		.cfi_def_cfa_offset 32
 259 0004 00AF     		add	r7, sp, #0
ARM GAS  C:\Users\LUKASC~1\AppData\Local\Temp\ccn8LSRc.s 			page 15


 260              		.cfi_def_cfa_register 7
 261 0006 F860     		str	r0, [r7, #12]
 262 0008 B960     		str	r1, [r7, #8]
 263 000a 7A60     		str	r2, [r7, #4]
 537:.\Generated_Source\PSoC4/Bootloader.c ****     uint8 CYDATA sum = 0u;
 264              		.loc 1 537 0
 265 000c 1723     		mov	r3, #23
 266 000e FB18     		add	r3, r7, r3
 267 0010 0022     		mov	r2, #0
 268 0012 1A70     		strb	r2, [r3]
 538:.\Generated_Source\PSoC4/Bootloader.c **** 
 539:.\Generated_Source\PSoC4/Bootloader.c ****     #if(!CY_PSOC4)
 540:.\Generated_Source\PSoC4/Bootloader.c ****         CYASSERT((baseAddr == CY_EEPROM_BASE) || (baseAddr == CY_FLASH_BASE));
 541:.\Generated_Source\PSoC4/Bootloader.c ****     #else
 542:.\Generated_Source\PSoC4/Bootloader.c ****         CYASSERT(baseAddr == CY_FLASH_BASE);
 269              		.loc 1 542 0
 270 0014 FB68     		ldr	r3, [r7, #12]
 271 0016 002B     		cmp	r3, #0
 272 0018 02D0     		beq	.L15
 273              		.loc 1 542 0 is_stmt 0 discriminator 1
 274 001a 0020     		mov	r0, #0
 275 001c FFF7FEFF 		bl	CyHalt
 276              	.L15:
 543:.\Generated_Source\PSoC4/Bootloader.c ****     #endif  /* (!CY_PSOC4) */
 544:.\Generated_Source\PSoC4/Bootloader.c **** 
 545:.\Generated_Source\PSoC4/Bootloader.c ****     while (size > 0u)
 277              		.loc 1 545 0 is_stmt 1
 278 0020 0FE0     		b	.L16
 279              	.L17:
 546:.\Generated_Source\PSoC4/Bootloader.c ****     {
 547:.\Generated_Source\PSoC4/Bootloader.c ****         size--;
 280              		.loc 1 547 0
 281 0022 7B68     		ldr	r3, [r7, #4]
 282 0024 013B     		sub	r3, r3, #1
 283 0026 7B60     		str	r3, [r7, #4]
 548:.\Generated_Source\PSoC4/Bootloader.c ****         sum += (*((uint8  *)(baseAddr + start + size)));
 284              		.loc 1 548 0
 285 0028 FA68     		ldr	r2, [r7, #12]
 286 002a BB68     		ldr	r3, [r7, #8]
 287 002c D218     		add	r2, r2, r3
 288 002e 7B68     		ldr	r3, [r7, #4]
 289 0030 D318     		add	r3, r2, r3
 290 0032 1978     		ldrb	r1, [r3]
 291 0034 1723     		mov	r3, #23
 292 0036 FB18     		add	r3, r7, r3
 293 0038 1722     		mov	r2, #23
 294 003a BA18     		add	r2, r7, r2
 295 003c 1278     		ldrb	r2, [r2]
 296 003e 8A18     		add	r2, r1, r2
 297 0040 1A70     		strb	r2, [r3]
 298              	.L16:
 545:.\Generated_Source\PSoC4/Bootloader.c ****     {
 299              		.loc 1 545 0
 300 0042 7B68     		ldr	r3, [r7, #4]
 301 0044 002B     		cmp	r3, #0
 302 0046 ECD1     		bne	.L17
 549:.\Generated_Source\PSoC4/Bootloader.c ****     }
ARM GAS  C:\Users\LUKASC~1\AppData\Local\Temp\ccn8LSRc.s 			page 16


 550:.\Generated_Source\PSoC4/Bootloader.c **** 
 551:.\Generated_Source\PSoC4/Bootloader.c ****     return(sum);
 303              		.loc 1 551 0
 304 0048 1723     		mov	r3, #23
 305 004a FB18     		add	r3, r7, r3
 306 004c 1B78     		ldrb	r3, [r3]
 552:.\Generated_Source\PSoC4/Bootloader.c **** }
 307              		.loc 1 552 0
 308 004e 181C     		mov	r0, r3
 309 0050 BD46     		mov	sp, r7
 310 0052 06B0     		add	sp, sp, #24
 311              		@ sp needed
 312 0054 80BD     		pop	{r7, pc}
 313              		.cfi_endproc
 314              	.LFE37:
 315              		.size	Bootloader_Calc8BitSum, .-Bootloader_Calc8BitSum
 316 0056 C046     		.section	.text.Bootloader_Start,"ax",%progbits
 317              		.align	2
 318              		.global	Bootloader_Start
 319              		.code	16
 320              		.thumb_func
 321              		.type	Bootloader_Start, %function
 322              	Bootloader_Start:
 323              	.LFB38:
 553:.\Generated_Source\PSoC4/Bootloader.c **** 
 554:.\Generated_Source\PSoC4/Bootloader.c **** 
 555:.\Generated_Source\PSoC4/Bootloader.c **** #if (CYDEV_PROJ_TYPE == CYDEV_PROJ_TYPE_LAUNCHER)
 556:.\Generated_Source\PSoC4/Bootloader.c **** #if ((0u != Bootloader_COPIER_AVAIL) && (CY_PSOC4)) 
 557:.\Generated_Source\PSoC4/Bootloader.c **** /*******************************************************************************
 558:.\Generated_Source\PSoC4/Bootloader.c **** * Function Name: Bootloader_CopyRow
 559:.\Generated_Source\PSoC4/Bootloader.c **** ****************************************************************************//**
 560:.\Generated_Source\PSoC4/Bootloader.c **** * \internal
 561:.\Generated_Source\PSoC4/Bootloader.c **** *
 562:.\Generated_Source\PSoC4/Bootloader.c **** * \brief
 563:.\Generated_Source\PSoC4/Bootloader.c **** *   This function performs copying of a specified row to specified 
 564:.\Generated_Source\PSoC4/Bootloader.c **** *     location.
 565:.\Generated_Source\PSoC4/Bootloader.c **** *
 566:.\Generated_Source\PSoC4/Bootloader.c **** * \param
 567:.\Generated_Source\PSoC4/Bootloader.c **** *   srcRowNum - The number of a row to copy from.
 568:.\Generated_Source\PSoC4/Bootloader.c **** * \param             
 569:.\Generated_Source\PSoC4/Bootloader.c **** *   dstRowNum - The number of a row to be copied to.
 570:.\Generated_Source\PSoC4/Bootloader.c **** *
 571:.\Generated_Source\PSoC4/Bootloader.c **** * \return
 572:.\Generated_Source\PSoC4/Bootloader.c **** *   \n CYRET_SUCCESS - If everything went right. 
 573:.\Generated_Source\PSoC4/Bootloader.c **** *   \n Otherwise, produce an error code indicating a problem.  
 574:.\Generated_Source\PSoC4/Bootloader.c **** * 
 575:.\Generated_Source\PSoC4/Bootloader.c **** * \endinternal
 576:.\Generated_Source\PSoC4/Bootloader.c **** *******************************************************************************/
 577:.\Generated_Source\PSoC4/Bootloader.c **** static cystatus Bootloader_CopyRow(uint16 srcRowNum, uint16 dstRowNum) \
 578:.\Generated_Source\PSoC4/Bootloader.c ****                  CYSMALL 
 579:.\Generated_Source\PSoC4/Bootloader.c **** {
 580:.\Generated_Source\PSoC4/Bootloader.c ****     /*Buffer for row copy procedure*/
 581:.\Generated_Source\PSoC4/Bootloader.c ****     uint8  rowBuffer[CYDEV_FLS_ROW_SIZE];
 582:.\Generated_Source\PSoC4/Bootloader.c ****     cystatus result = CYRET_SUCCESS;
 583:.\Generated_Source\PSoC4/Bootloader.c **** 
 584:.\Generated_Source\PSoC4/Bootloader.c ****     uint32 srcBaseAddr = CYDEV_FLASH_BASE + srcRowNum * CYDEV_FLS_ROW_SIZE;
 585:.\Generated_Source\PSoC4/Bootloader.c ****     uint16 idx;
ARM GAS  C:\Users\LUKASC~1\AppData\Local\Temp\ccn8LSRc.s 			page 17


 586:.\Generated_Source\PSoC4/Bootloader.c **** 
 587:.\Generated_Source\PSoC4/Bootloader.c ****     for(idx = 0u; idx < CYDEV_FLS_ROW_SIZE; idx++)
 588:.\Generated_Source\PSoC4/Bootloader.c ****     {
 589:.\Generated_Source\PSoC4/Bootloader.c ****         rowBuffer[idx] = Bootloader_GET_CODE_BYTE(srcBaseAddr + idx);
 590:.\Generated_Source\PSoC4/Bootloader.c ****     }
 591:.\Generated_Source\PSoC4/Bootloader.c ****     
 592:.\Generated_Source\PSoC4/Bootloader.c ****     result = CySysFlashWriteRow((uint16) dstRowNum, rowBuffer);
 593:.\Generated_Source\PSoC4/Bootloader.c ****     
 594:.\Generated_Source\PSoC4/Bootloader.c ****     return (result);
 595:.\Generated_Source\PSoC4/Bootloader.c **** }
 596:.\Generated_Source\PSoC4/Bootloader.c **** 
 597:.\Generated_Source\PSoC4/Bootloader.c **** /*******************************************************************************
 598:.\Generated_Source\PSoC4/Bootloader.c **** * Function Name: Bootloader_Copier
 599:.\Generated_Source\PSoC4/Bootloader.c **** ****************************************************************************//**
 600:.\Generated_Source\PSoC4/Bootloader.c **** *  \internal
 601:.\Generated_Source\PSoC4/Bootloader.c **** *  
 602:.\Generated_Source\PSoC4/Bootloader.c **** *  \brief
 603:.\Generated_Source\PSoC4/Bootloader.c **** *    This option is specific for Launcher-Combination architecture only and to 
 604:.\Generated_Source\PSoC4/Bootloader.c **** *    the case when there is a large communication component like BLE. To save 
 605:.\Generated_Source\PSoC4/Bootloader.c **** *    flash space for the user application, such a large communication component 
 606:.\Generated_Source\PSoC4/Bootloader.c **** *    is present only in the first application (Stack application) and is "shared" 
 607:.\Generated_Source\PSoC4/Bootloader.c **** *    with the second application (the user's application actually) by "Code 
 608:.\Generated_Source\PSoC4/Bootloader.c **** *    sharing feature" (See code sharing and BLE Upgradable Stack example project). 
 609:.\Generated_Source\PSoC4/Bootloader.c **** *
 610:.\Generated_Source\PSoC4/Bootloader.c **** * \n If this option is enabled and the "need-to-copy" flag is set in the second 
 611:.\Generated_Source\PSoC4/Bootloader.c **** *    application's metadata, Copier performs copying of a previously saved Stack 
 612:.\Generated_Source\PSoC4/Bootloader.c **** *    application image from a "temporary location" to the app#1 flash 
 613:.\Generated_Source\PSoC4/Bootloader.c **** *    space (over the current app#1).
 614:.\Generated_Source\PSoC4/Bootloader.c **** *   
 615:.\Generated_Source\PSoC4/Bootloader.c **** * \n Before performing the copying operation the new Stack application image 
 616:.\Generated_Source\PSoC4/Bootloader.c **** *    should be received and stored at the temporary location by the current 
 617:.\Generated_Source\PSoC4/Bootloader.c **** *    Stack application. The "need-to-copy" flag should be set in app#2 metadata 
 618:.\Generated_Source\PSoC4/Bootloader.c **** *    indicating that copying operation is required.
 619:.\Generated_Source\PSoC4/Bootloader.c **** *
 620:.\Generated_Source\PSoC4/Bootloader.c **** * \n The temporary location is half of the flash space that left after Launcher 
 621:.\Generated_Source\PSoC4/Bootloader.c **** *    and 2 metadata rows. This implies that Stack application should fit in 
 622:.\Generated_Source\PSoC4/Bootloader.c **** *    that half of the flash space. 
 623:.\Generated_Source\PSoC4/Bootloader.c **** *
 624:.\Generated_Source\PSoC4/Bootloader.c **** * \n The destination for the copy operation is obtained as the first row after 
 625:.\Generated_Source\PSoC4/Bootloader.c **** *    Launcher (from app#1 metadata). 
 626:.\Generated_Source\PSoC4/Bootloader.c **** *
 627:.\Generated_Source\PSoC4/Bootloader.c **** * \n The source of copy operation is the first row of temporary location that 
 628:.\Generated_Source\PSoC4/Bootloader.c **** *    is calculated by the following formula: 
 629:.\Generated_Source\PSoC4/Bootloader.c **** * \n     srcRow = (((CY_FLASH_NUMBER_ROWS - dstRow - metaRows) / 2) + dstRow);
 630:.\Generated_Source\PSoC4/Bootloader.c **** * \n     where:
 631:.\Generated_Source\PSoC4/Bootloader.c **** *          - dstRow - the destination's first row (mentioned above);
 632:.\Generated_Source\PSoC4/Bootloader.c **** *          - CY_FLASH_NUMBER_ROWS - number of all flash rows; 
 633:.\Generated_Source\PSoC4/Bootloader.c **** *          - metaRows - 2 metadata rows;   
 634:.\Generated_Source\PSoC4/Bootloader.c **** *
 635:.\Generated_Source\PSoC4/Bootloader.c **** * \n Copying itself means row-by-row copying of the stored application's image.
 636:.\Generated_Source\PSoC4/Bootloader.c **** *    If it fails to copy some row, there is a defined number of attempts 
 637:.\Generated_Source\PSoC4/Bootloader.c **** *    (Bootloader_MAX_ATTEMPTS) to try again. In case of no success, 
 638:.\Generated_Source\PSoC4/Bootloader.c **** *    a user callback function Launcher_CopierCallback() is called. 
 639:.\Generated_Source\PSoC4/Bootloader.c **** *    If it is not defined, then the device is going to be halted.
 640:.\Generated_Source\PSoC4/Bootloader.c **** * 
 641:.\Generated_Source\PSoC4/Bootloader.c **** * \n After performing the application image copying, in case of success 
 642:.\Generated_Source\PSoC4/Bootloader.c **** *    the app#2 metadata is copied in the stead of app#1 metadata and then
ARM GAS  C:\Users\LUKASC~1\AppData\Local\Temp\ccn8LSRc.s 			page 18


 643:.\Generated_Source\PSoC4/Bootloader.c **** *    app#2 metadata is cleared.
 644:.\Generated_Source\PSoC4/Bootloader.c **** *
 645:.\Generated_Source\PSoC4/Bootloader.c **** * \n A "need-to-copy" flag is cleared just after performing the app#1 image
 646:.\Generated_Source\PSoC4/Bootloader.c **** *    copying from the temporary location to avoid another consecutive 
 647:.\Generated_Source\PSoC4/Bootloader.c **** *    copying operation.
 648:.\Generated_Source\PSoC4/Bootloader.c **** *   
 649:.\Generated_Source\PSoC4/Bootloader.c **** * \endinternal 
 650:.\Generated_Source\PSoC4/Bootloader.c **** *******************************************************************************/
 651:.\Generated_Source\PSoC4/Bootloader.c **** static void Bootloader_Copier(void) CYSMALL \
 652:.\Generated_Source\PSoC4/Bootloader.c ****            
 653:.\Generated_Source\PSoC4/Bootloader.c **** {
 654:.\Generated_Source\PSoC4/Bootloader.c ****     uint16 idx = 0u;
 655:.\Generated_Source\PSoC4/Bootloader.c **** 
 656:.\Generated_Source\PSoC4/Bootloader.c ****     /* Number of attempts to perform copying again */
 657:.\Generated_Source\PSoC4/Bootloader.c ****     uint8 copierAttempts;
 658:.\Generated_Source\PSoC4/Bootloader.c ****     
 659:.\Generated_Source\PSoC4/Bootloader.c ****     /* "need-to-copy" flag from second application metadata */
 660:.\Generated_Source\PSoC4/Bootloader.c ****     uint8 copyFlag = Bootloader_GetMetadata(Bootloader_GET_BTLDB_COPY_FLAG, Bootloader_MD_BTLDB_ACT
 661:.\Generated_Source\PSoC4/Bootloader.c **** 
 662:.\Generated_Source\PSoC4/Bootloader.c ****     /* Buffer to temporary hold metadata before flashing */
 663:.\Generated_Source\PSoC4/Bootloader.c ****     uint8 metaBuf[CYDEV_FLS_ROW_SIZE];
 664:.\Generated_Source\PSoC4/Bootloader.c **** 
 665:.\Generated_Source\PSoC4/Bootloader.c ****     /* Launcher's last row number */
 666:.\Generated_Source\PSoC4/Bootloader.c ****     uint16 launcherLastRow = Bootloader_GetMetadata(Bootloader_GET_BTLDR_LAST_ROW, Bootloader_MD_BT
 667:.\Generated_Source\PSoC4/Bootloader.c **** 
 668:.\Generated_Source\PSoC4/Bootloader.c ****     /* Calculating destination's start row number (first row of app#1) */
 669:.\Generated_Source\PSoC4/Bootloader.c ****     uint16 dstRow = launcherLastRow + 1u;
 670:.\Generated_Source\PSoC4/Bootloader.c ****     
 671:.\Generated_Source\PSoC4/Bootloader.c ****     /* Calculating the source's/temporary location's start row number */
 672:.\Generated_Source\PSoC4/Bootloader.c ****     uint16 srcRow = ((((CY_FLASH_NUMBER_ROWS - dstRow - 2u) + 1u) >> 1u) + dstRow); 
 673:.\Generated_Source\PSoC4/Bootloader.c ****     
 674:.\Generated_Source\PSoC4/Bootloader.c ****     /* Taking length from app#2's metadata*/
 675:.\Generated_Source\PSoC4/Bootloader.c ****     uint32 srcLength = Bootloader_GetMetadata(Bootloader_GET_BTLDB_LENGTH, Bootloader_MD_BTLDB_ACTI
 676:.\Generated_Source\PSoC4/Bootloader.c **** 
 677:.\Generated_Source\PSoC4/Bootloader.c ****     /* Copy operation status initialization */
 678:.\Generated_Source\PSoC4/Bootloader.c ****     cystatus copyStatus = CYRET_SUCCESS;
 679:.\Generated_Source\PSoC4/Bootloader.c ****     
 680:.\Generated_Source\PSoC4/Bootloader.c ****     /* Calculating number of rows for copying */
 681:.\Generated_Source\PSoC4/Bootloader.c ****     uint16 numberOfRows = srcLength / CYDEV_FLS_ROW_SIZE;
 682:.\Generated_Source\PSoC4/Bootloader.c ****     
 683:.\Generated_Source\PSoC4/Bootloader.c ****     if (0u != (srcLength % CYDEV_FLS_ROW_SIZE))
 684:.\Generated_Source\PSoC4/Bootloader.c ****     {
 685:.\Generated_Source\PSoC4/Bootloader.c ****         numberOfRows++;
 686:.\Generated_Source\PSoC4/Bootloader.c ****     }
 687:.\Generated_Source\PSoC4/Bootloader.c ****         
 688:.\Generated_Source\PSoC4/Bootloader.c ****     /*************************************************************************
 689:.\Generated_Source\PSoC4/Bootloader.c ****     * Copying the number of rows from source (temporary location) to destination.
 690:.\Generated_Source\PSoC4/Bootloader.c ****     * If the operation is unsuccessful, there will be a few more attempts to
 691:.\Generated_Source\PSoC4/Bootloader.c ****     * perform the copying operation (a number is defined by Bootloader_MAX_ATTEMPTS)
 692:.\Generated_Source\PSoC4/Bootloader.c ****     ***************************************************************************/
 693:.\Generated_Source\PSoC4/Bootloader.c ****     for(idx = 0; idx < numberOfRows; idx++)
 694:.\Generated_Source\PSoC4/Bootloader.c ****     {
 695:.\Generated_Source\PSoC4/Bootloader.c ****         copierAttempts = Bootloader_MAX_ATTEMPTS;
 696:.\Generated_Source\PSoC4/Bootloader.c ****         
 697:.\Generated_Source\PSoC4/Bootloader.c ****         do 
 698:.\Generated_Source\PSoC4/Bootloader.c ****         {
 699:.\Generated_Source\PSoC4/Bootloader.c ****             /* Copying row */
ARM GAS  C:\Users\LUKASC~1\AppData\Local\Temp\ccn8LSRc.s 			page 19


 700:.\Generated_Source\PSoC4/Bootloader.c ****             copyStatus = Bootloader_CopyRow(srcRow + idx, dstRow + idx);
 701:.\Generated_Source\PSoC4/Bootloader.c ****             
 702:.\Generated_Source\PSoC4/Bootloader.c ****             /* Decrementing counter of attempts to repeat copying operation */
 703:.\Generated_Source\PSoC4/Bootloader.c ****             copierAttempts--;       
 704:.\Generated_Source\PSoC4/Bootloader.c ****         } while ((CYRET_SUCCESS != copyStatus) && (0u != copierAttempts));
 705:.\Generated_Source\PSoC4/Bootloader.c **** 
 706:.\Generated_Source\PSoC4/Bootloader.c ****         
 707:.\Generated_Source\PSoC4/Bootloader.c ****         /*************************************************************************
 708:.\Generated_Source\PSoC4/Bootloader.c ****         * If a problem occurs, when a row can't be copied, "CopyFlag" should be
 709:.\Generated_Source\PSoC4/Bootloader.c ****         * cleared to prevent the recurrent copying that might follow the software reset.        
 710:.\Generated_Source\PSoC4/Bootloader.c ****         ***************************************************************************/
 711:.\Generated_Source\PSoC4/Bootloader.c ****         if (CYRET_SUCCESS != copyStatus)
 712:.\Generated_Source\PSoC4/Bootloader.c ****         {
 713:.\Generated_Source\PSoC4/Bootloader.c ****             /* Clear copy flag in metadata#1 */
 714:.\Generated_Source\PSoC4/Bootloader.c ****             Bootloader_SetFlashByte(Bootloader_MD_BTLDB_COPY_FLAG_OFFSET(Bootloader_MD_BTLDB_ACTIVE
 715:.\Generated_Source\PSoC4/Bootloader.c ****                                          (copyFlag & (~Bootloader_NEED_TO_COPY_SET_BIT)));
 716:.\Generated_Source\PSoC4/Bootloader.c ****                 
 717:.\Generated_Source\PSoC4/Bootloader.c ****             /* Callback macro definition */
 718:.\Generated_Source\PSoC4/Bootloader.c ****             #if (0u != LAUNCHER_COPIER_CALLBACK)
 719:.\Generated_Source\PSoC4/Bootloader.c ****                 Bootloader_CopierCallback();
 720:.\Generated_Source\PSoC4/Bootloader.c ****             #endif /* 0u != LAUNCHER_COPIER_CALLBACK */ 
 721:.\Generated_Source\PSoC4/Bootloader.c ****             
 722:.\Generated_Source\PSoC4/Bootloader.c ****             /*************************************************************************
 723:.\Generated_Source\PSoC4/Bootloader.c ****             * If the copying operation was unsuccessful after certain number of attempts
 724:.\Generated_Source\PSoC4/Bootloader.c ****             * and Bootloader_CopierCallback() is either undefined or returns, then the
 725:.\Generated_Source\PSoC4/Bootloader.c ****             * device should be halted.
 726:.\Generated_Source\PSoC4/Bootloader.c ****             *************************************************************************/
 727:.\Generated_Source\PSoC4/Bootloader.c ****             CyHalt(0x00u);
 728:.\Generated_Source\PSoC4/Bootloader.c ****         }
 729:.\Generated_Source\PSoC4/Bootloader.c ****     }    
 730:.\Generated_Source\PSoC4/Bootloader.c ****     
 731:.\Generated_Source\PSoC4/Bootloader.c ****     /* Copy metadata app#2 -> app#1*/
 732:.\Generated_Source\PSoC4/Bootloader.c ****     if (CYRET_SUCCESS == copyStatus)
 733:.\Generated_Source\PSoC4/Bootloader.c ****     {
 734:.\Generated_Source\PSoC4/Bootloader.c ****         /******************************************************************************
 735:.\Generated_Source\PSoC4/Bootloader.c ****         *                               Metadata#1 update             
 736:.\Generated_Source\PSoC4/Bootloader.c ****         ******************************************************************************/
 737:.\Generated_Source\PSoC4/Bootloader.c ****         /* Getting start address of metadata #2 */
 738:.\Generated_Source\PSoC4/Bootloader.c ****         uint32 metaStartAddr = Bootloader_MD_BASE_ADDR(Bootloader_MD_BTLDB_ACTIVE_1) + 
 739:.\Generated_Source\PSoC4/Bootloader.c ****                                Bootloader_MD_SIZEOF - CYDEV_FLS_ROW_SIZE; 
 740:.\Generated_Source\PSoC4/Bootloader.c ****         
 741:.\Generated_Source\PSoC4/Bootloader.c ****         /* Read all data from metadata #2 */
 742:.\Generated_Source\PSoC4/Bootloader.c ****         for (idx = 0u; idx < CYDEV_FLS_ROW_SIZE; idx++)
 743:.\Generated_Source\PSoC4/Bootloader.c ****         {
 744:.\Generated_Source\PSoC4/Bootloader.c ****             metaBuf[idx] = Bootloader_GET_CODE_BYTE(metaStartAddr + idx);
 745:.\Generated_Source\PSoC4/Bootloader.c ****         }
 746:.\Generated_Source\PSoC4/Bootloader.c ****         
 747:.\Generated_Source\PSoC4/Bootloader.c ****         /* Setting 'Copier available' flag (copyFlag field) in buffer to be stored in metadata#1 */
 748:.\Generated_Source\PSoC4/Bootloader.c ****         metaBuf[Bootloader_MD_BUFFER_START_OFFSET + Bootloader_MD_COPY_FLAG_BYTE_OFFSET] = Bootload
 749:.\Generated_Source\PSoC4/Bootloader.c **** 
 750:.\Generated_Source\PSoC4/Bootloader.c ****         /* Set active app#1 */
 751:.\Generated_Source\PSoC4/Bootloader.c ****         Bootloader_activeApp = Bootloader_MD_BTLDB_ACTIVE_0;
 752:.\Generated_Source\PSoC4/Bootloader.c ****         
 753:.\Generated_Source\PSoC4/Bootloader.c ****         /* Setting app#1 as active application in buffer to be stored in metadata#1 */
 754:.\Generated_Source\PSoC4/Bootloader.c ****         metaBuf[Bootloader_MD_BUFFER_START_OFFSET + Bootloader_MD_ACTIVE_APP_BYTE_OFFSET] = 0x01u; 
 755:.\Generated_Source\PSoC4/Bootloader.c **** 
 756:.\Generated_Source\PSoC4/Bootloader.c ****         /* Setting app#1 as valid for 'Fast validation' to be stored in metadata#1 */
ARM GAS  C:\Users\LUKASC~1\AppData\Local\Temp\ccn8LSRc.s 			page 20


 757:.\Generated_Source\PSoC4/Bootloader.c ****         metaBuf[Bootloader_MD_BUFFER_START_OFFSET + Bootloader_MD_FAST_VALID_BYTE_OFFSET] = 0x01u; 
 758:.\Generated_Source\PSoC4/Bootloader.c **** 
 759:.\Generated_Source\PSoC4/Bootloader.c ****         /* Update metadata#1 in flash */
 760:.\Generated_Source\PSoC4/Bootloader.c ****         copyStatus = CySysFlashWriteRow((uint16) (CY_FLASH_NUMBER_ROWS - 1u), metaBuf);  
 761:.\Generated_Source\PSoC4/Bootloader.c **** 
 762:.\Generated_Source\PSoC4/Bootloader.c ****         /******************************************************************************
 763:.\Generated_Source\PSoC4/Bootloader.c ****         *                               Metadata#2 update  
 764:.\Generated_Source\PSoC4/Bootloader.c ****         * Clear the whole buffer for metadata#2, which will make it invalid. 
 765:.\Generated_Source\PSoC4/Bootloader.c ****         * The 'Need-to-copy' flag will be cleared and app#2 will be set as non-active. 
 766:.\Generated_Source\PSoC4/Bootloader.c ****         *******************************************************************************/
 767:.\Generated_Source\PSoC4/Bootloader.c ****         (void) memset(&metaBuf, 0x00u, sizeof(metaBuf));
 768:.\Generated_Source\PSoC4/Bootloader.c ****         
 769:.\Generated_Source\PSoC4/Bootloader.c ****         /* Updating metadata#2 in flash */
 770:.\Generated_Source\PSoC4/Bootloader.c ****         copyStatus |= CySysFlashWriteRow((uint16) (CY_FLASH_NUMBER_ROWS - 2u), metaBuf);          
 771:.\Generated_Source\PSoC4/Bootloader.c ****     }
 772:.\Generated_Source\PSoC4/Bootloader.c ****     
 773:.\Generated_Source\PSoC4/Bootloader.c ****     if (CYRET_SUCCESS == copyStatus)
 774:.\Generated_Source\PSoC4/Bootloader.c ****     {
 775:.\Generated_Source\PSoC4/Bootloader.c ****         /* Schedule*/
 776:.\Generated_Source\PSoC4/Bootloader.c ****         Bootloader_SET_RUN_TYPE(Bootloader_SCHEDULE_BTLDB);
 777:.\Generated_Source\PSoC4/Bootloader.c **** 
 778:.\Generated_Source\PSoC4/Bootloader.c ****         /* Software reset */
 779:.\Generated_Source\PSoC4/Bootloader.c ****         CySoftwareReset();
 780:.\Generated_Source\PSoC4/Bootloader.c ****     }
 781:.\Generated_Source\PSoC4/Bootloader.c ****     else
 782:.\Generated_Source\PSoC4/Bootloader.c ****     {
 783:.\Generated_Source\PSoC4/Bootloader.c ****         /* Halt device */
 784:.\Generated_Source\PSoC4/Bootloader.c ****         CyHalt(0x00u);
 785:.\Generated_Source\PSoC4/Bootloader.c ****     }
 786:.\Generated_Source\PSoC4/Bootloader.c **** }
 787:.\Generated_Source\PSoC4/Bootloader.c **** #endif /*(0u != Bootloader_COPIER_AVAIL) && (CY_PSOC4)*/
 788:.\Generated_Source\PSoC4/Bootloader.c **** #endif /*(CYDEV_PROJ_TYPE == CYDEV_PROJ_TYPE_LAUNCHER)*/
 789:.\Generated_Source\PSoC4/Bootloader.c **** 
 790:.\Generated_Source\PSoC4/Bootloader.c **** 
 791:.\Generated_Source\PSoC4/Bootloader.c **** /*******************************************************************************
 792:.\Generated_Source\PSoC4/Bootloader.c **** * Function Name: Bootloader_Start
 793:.\Generated_Source\PSoC4/Bootloader.c **** ****************************************************************************//**
 794:.\Generated_Source\PSoC4/Bootloader.c **** * \brief
 795:.\Generated_Source\PSoC4/Bootloader.c **** *  This function is called to execute the following algorithm:
 796:.\Generated_Source\PSoC4/Bootloader.c **** *
 797:.\Generated_Source\PSoC4/Bootloader.c **** * -    Validate the Bootloadable application for the Classic Single-app Bootloader or 
 798:.\Generated_Source\PSoC4/Bootloader.c **** *   both Bootloadable/Combination applications for the Classic Dual-app Bootloader/
 799:.\Generated_Source\PSoC4/Bootloader.c **** *   Launch-only Bootloader (Launcher for short) respectively.
 800:.\Generated_Source\PSoC4/Bootloader.c **** *  
 801:.\Generated_Source\PSoC4/Bootloader.c **** * -    For the Classic Single-app Bootloader: if the Bootloadable application is valid, 
 802:.\Generated_Source\PSoC4/Bootloader.c **** *   then the flow switches to it after a software reset. Otherwise it stays in 
 803:.\Generated_Source\PSoC4/Bootloader.c **** *   the Bootloader, waiting for a command(s) from the host.
 804:.\Generated_Source\PSoC4/Bootloader.c **** * 
 805:.\Generated_Source\PSoC4/Bootloader.c **** * -    For the Classic Dual-app Bootloader: the flow acts according to the switching table 
 806:.\Generated_Source\PSoC4/Bootloader.c **** *  (see in the code below) and enabled/disabled options (for instance, auto-switching).
 807:.\Generated_Source\PSoC4/Bootloader.c **** *   NOTE If the valid Bootloadable application is identified, then the control is passed 
 808:.\Generated_Source\PSoC4/Bootloader.c **** *   to it after a software reset. Otherwise it stays in the Classic Dual-app Bootloader 
 809:.\Generated_Source\PSoC4/Bootloader.c **** *   waiting for a command(s) from the host.
 810:.\Generated_Source\PSoC4/Bootloader.c **** * 
 811:.\Generated_Source\PSoC4/Bootloader.c **** * -    For the Launcher: the flow acts according to the switching table (see below) and 
 812:.\Generated_Source\PSoC4/Bootloader.c **** *   enabled/disabled options. NOTE If the valid Combination application is identified, then 
 813:.\Generated_Source\PSoC4/Bootloader.c **** *   the control is passed to it after a software reset. Otherwise it stays in the Launcher 
ARM GAS  C:\Users\LUKASC~1\AppData\Local\Temp\ccn8LSRc.s 			page 21


 814:.\Generated_Source\PSoC4/Bootloader.c **** *   forever.
 815:.\Generated_Source\PSoC4/Bootloader.c **** * 
 816:.\Generated_Source\PSoC4/Bootloader.c **** * -    Validate the Bootloader/Launcher application(s) (design-time configurable, Bootloader 
 817:.\Generated_Source\PSoC4/Bootloader.c **** *   application validation option of the component customizer).
 818:.\Generated_Source\PSoC4/Bootloader.c **** * 
 819:.\Generated_Source\PSoC4/Bootloader.c **** * -    Run a communication subroutine (design-time configurable, the Wait for command 
 820:.\Generated_Source\PSoC4/Bootloader.c **** *   option of the component customizer). NOTE This is NOT applicable for the Launcher.
 821:.\Generated_Source\PSoC4/Bootloader.c **** *
 822:.\Generated_Source\PSoC4/Bootloader.c **** * -    Schedule the Bootloadable and reset the device.
 823:.\Generated_Source\PSoC4/Bootloader.c **** *
 824:.\Generated_Source\PSoC4/Bootloader.c **** *  \ref page_switching_logic
 825:.\Generated_Source\PSoC4/Bootloader.c **** *
 826:.\Generated_Source\PSoC4/Bootloader.c **** * \return
 827:.\Generated_Source\PSoC4/Bootloader.c **** *  This method will never return. It will either load a new application and
 828:.\Generated_Source\PSoC4/Bootloader.c **** *  reset the device or jump directly to the existing application. The CPU is
 829:.\Generated_Source\PSoC4/Bootloader.c **** *  halted, if the validation fails when the "Bootloader application validation" 
 830:.\Generated_Source\PSoC4/Bootloader.c **** *  option is enabled.
 831:.\Generated_Source\PSoC4/Bootloader.c **** *  PSoC 3/PSoC 5: The CPU is halted if flash initialization fails.
 832:.\Generated_Source\PSoC4/Bootloader.c **** *
 833:.\Generated_Source\PSoC4/Bootloader.c **** * \details
 834:.\Generated_Source\PSoC4/Bootloader.c **** *  If the "Bootloader application validation" option is enabled and this method
 835:.\Generated_Source\PSoC4/Bootloader.c **** *  determines that the Bootloader application itself is corrupt, this method
 836:.\Generated_Source\PSoC4/Bootloader.c **** *  will not return, instead it will simply hang the application.   
 837:.\Generated_Source\PSoC4/Bootloader.c **** *******************************************************************************/
 838:.\Generated_Source\PSoC4/Bootloader.c **** void Bootloader_Start(void) CYSMALL 
 839:.\Generated_Source\PSoC4/Bootloader.c **** {
 324              		.loc 1 839 0
 325              		.cfi_startproc
 326 0000 90B5     		push	{r4, r7, lr}
 327              		.cfi_def_cfa_offset 12
 328              		.cfi_offset 4, -12
 329              		.cfi_offset 7, -8
 330              		.cfi_offset 14, -4
 331 0002 83B0     		sub	sp, sp, #12
 332              		.cfi_def_cfa_offset 24
 333 0004 00AF     		add	r7, sp, #0
 334              		.cfi_def_cfa_register 7
 840:.\Generated_Source\PSoC4/Bootloader.c **** 
 841:.\Generated_Source\PSoC4/Bootloader.c **** #if (CYDEV_PROJ_TYPE != CYDEV_PROJ_TYPE_LOADABLEANDBOOTLOADER)
 842:.\Generated_Source\PSoC4/Bootloader.c **** 
 843:.\Generated_Source\PSoC4/Bootloader.c ****     #if(0u != Bootloader_DUAL_APP_BOOTLOADER)
 844:.\Generated_Source\PSoC4/Bootloader.c ****         cystatus app0Status = CYRET_BAD_DATA;
 845:.\Generated_Source\PSoC4/Bootloader.c ****         cystatus app1Status = CYRET_BAD_DATA;  
 846:.\Generated_Source\PSoC4/Bootloader.c ****     #endif /*0u != Bootloader_DUAL_APP_BOOTLOADER*/
 847:.\Generated_Source\PSoC4/Bootloader.c ****     
 848:.\Generated_Source\PSoC4/Bootloader.c ****     cystatus validApp  = CYRET_BAD_DATA;
 335              		.loc 1 848 0
 336 0006 0623     		mov	r3, #6
 337 0008 7B60     		str	r3, [r7, #4]
 849:.\Generated_Source\PSoC4/Bootloader.c **** 
 850:.\Generated_Source\PSoC4/Bootloader.c ****     #if(0u != Bootloader_BOOTLOADER_APP_VALIDATION)
 851:.\Generated_Source\PSoC4/Bootloader.c ****         uint8 CYDATA calcedChecksum;
 852:.\Generated_Source\PSoC4/Bootloader.c ****     #endif    /* (0u != Bootloader_BOOTLOADER_APP_VALIDATION) */
 853:.\Generated_Source\PSoC4/Bootloader.c **** 
 854:.\Generated_Source\PSoC4/Bootloader.c ****     #if(!CY_PSOC4)
 855:.\Generated_Source\PSoC4/Bootloader.c ****         #if(0u != Bootloader_FAST_APP_VALIDATION)
 856:.\Generated_Source\PSoC4/Bootloader.c ****             /* Initialize flash subsystem for non-PSoC 4 devices */
ARM GAS  C:\Users\LUKASC~1\AppData\Local\Temp\ccn8LSRc.s 			page 22


 857:.\Generated_Source\PSoC4/Bootloader.c ****             if (CYRET_SUCCESS != CySetTemp())
 858:.\Generated_Source\PSoC4/Bootloader.c ****             {
 859:.\Generated_Source\PSoC4/Bootloader.c ****                 CyHalt(0x00u);
 860:.\Generated_Source\PSoC4/Bootloader.c ****             }
 861:.\Generated_Source\PSoC4/Bootloader.c **** 
 862:.\Generated_Source\PSoC4/Bootloader.c ****             #if !defined(CY_BOOT_VERSION)
 863:.\Generated_Source\PSoC4/Bootloader.c ****                 /* Not required with cy_boot 4.20 */
 864:.\Generated_Source\PSoC4/Bootloader.c ****                 if (CYRET_SUCCESS != CySetFlashEEBuffer(Bootloader_flashBuffer))
 865:.\Generated_Source\PSoC4/Bootloader.c ****                 {
 866:.\Generated_Source\PSoC4/Bootloader.c ****                     CyHalt(0x00u);
 867:.\Generated_Source\PSoC4/Bootloader.c ****                 }
 868:.\Generated_Source\PSoC4/Bootloader.c **** 
 869:.\Generated_Source\PSoC4/Bootloader.c ****                 uint8 CYXDATA Bootloader_flashBuffer[Bootloader_FROW_SIZE];
 870:.\Generated_Source\PSoC4/Bootloader.c ****             #endif /* !defined(CY_BOOT_VERSION) */
 871:.\Generated_Source\PSoC4/Bootloader.c ****         #endif  /* (0u != Bootloader_FAST_APP_VALIDATION) */
 872:.\Generated_Source\PSoC4/Bootloader.c ****     #endif  /* (!CY_PSOC4) */
 873:.\Generated_Source\PSoC4/Bootloader.c **** 
 874:.\Generated_Source\PSoC4/Bootloader.c ****     #if (CYDEV_PROJ_TYPE == CYDEV_PROJ_TYPE_LAUNCHER) 
 875:.\Generated_Source\PSoC4/Bootloader.c ****     #if ((0u != Bootloader_COPIER_AVAIL) && (CY_PSOC4))
 876:.\Generated_Source\PSoC4/Bootloader.c ****         /* Checking "need-to-copy" flag in metadata#1. If it is set, then copy operation is require
 877:.\Generated_Source\PSoC4/Bootloader.c ****         uint8 needToCopyFlag = Bootloader_GetMetadata(Bootloader_GET_BTLDB_COPY_FLAG, 
 878:.\Generated_Source\PSoC4/Bootloader.c ****                                                         Bootloader_MD_BTLDB_ACTIVE_1);             
 879:.\Generated_Source\PSoC4/Bootloader.c ****         
 880:.\Generated_Source\PSoC4/Bootloader.c ****         /* Checking "Need to copy" flag in metadata#1 */
 881:.\Generated_Source\PSoC4/Bootloader.c ****         if (0u != (needToCopyFlag & Bootloader_NEED_TO_COPY_MASK))
 882:.\Generated_Source\PSoC4/Bootloader.c ****         {
 883:.\Generated_Source\PSoC4/Bootloader.c ****             /* Note that this function never returns */
 884:.\Generated_Source\PSoC4/Bootloader.c ****             Bootloader_Copier();
 885:.\Generated_Source\PSoC4/Bootloader.c ****         }
 886:.\Generated_Source\PSoC4/Bootloader.c ****     #endif  /* (CYDEV_PROJ_TYPE == CYDEV_PROJ_TYPE_LAUNCHER) */
 887:.\Generated_Source\PSoC4/Bootloader.c ****     #endif  /* (0u != Bootloader_COPIER_AVAIL) && (CY_PSOC4)*/
 888:.\Generated_Source\PSoC4/Bootloader.c ****         
 889:.\Generated_Source\PSoC4/Bootloader.c ****     /* Identify active Bootloadable/Combination application */
 890:.\Generated_Source\PSoC4/Bootloader.c ****     #if (0u != Bootloader_DUAL_APP_BOOTLOADER)
 891:.\Generated_Source\PSoC4/Bootloader.c ****         app0Status = Bootloader_ValidateBootloadable(Bootloader_MD_BTLDB_ACTIVE_0);
 892:.\Generated_Source\PSoC4/Bootloader.c ****         app1Status = Bootloader_ValidateBootloadable(Bootloader_MD_BTLDB_ACTIVE_1);  
 893:.\Generated_Source\PSoC4/Bootloader.c **** 
 894:.\Generated_Source\PSoC4/Bootloader.c ****         /* Assumes no active Bootloadable application. Bootloader is active. */
 895:.\Generated_Source\PSoC4/Bootloader.c ****         Bootloader_activeApp = Bootloader_MD_BTLDB_ACTIVE_NONE;
 896:.\Generated_Source\PSoC4/Bootloader.c **** 
 897:.\Generated_Source\PSoC4/Bootloader.c ****         /* Bootloadable app#1 is active */
 898:.\Generated_Source\PSoC4/Bootloader.c ****         if(Bootloader_GetMetadata(Bootloader_GET_BTLDB_ACTIVE, Bootloader_MD_BTLDB_ACTIVE_0) == \
 899:.\Generated_Source\PSoC4/Bootloader.c ****                                                                            Bootloader_MD_BTLDB_IS_A
 900:.\Generated_Source\PSoC4/Bootloader.c ****         {
 901:.\Generated_Source\PSoC4/Bootloader.c ****             /**************************************************************************************
 902:.\Generated_Source\PSoC4/Bootloader.c ****             * -------------------------------------------------------------------------------------
 903:.\Generated_Source\PSoC4/Bootloader.c ****             * |      |      app#1     |      app#2     |        Classic Dual-app       |     Launch
 904:.\Generated_Source\PSoC4/Bootloader.c ****             * | Case |---------------------------------|          Bootloader           |           
 905:.\Generated_Source\PSoC4/Bootloader.c ****             * |      | Active | Valid | Active | Valid |                               |           
 906:.\Generated_Source\PSoC4/Bootloader.c ****             * |------------------------------------------------------------------------------------
 907:.\Generated_Source\PSoC4/Bootloader.c ****             * |  9   |    1   |   0   |   0    |   0   | Bootloader                    | Launcher  
 908:.\Generated_Source\PSoC4/Bootloader.c ****             * |  10  |    1   |   0   |   0    |   1   | app#2, except if auto-app     | app#2     
 909:.\Generated_Source\PSoC4/Bootloader.c ****             * |      |        |       |        |       | switching is disabled, then   |           
 910:.\Generated_Source\PSoC4/Bootloader.c ****             * |      |        |       |        |       | stay in Bootloader            |           
 911:.\Generated_Source\PSoC4/Bootloader.c ****             * |  11  |    1   |   0   |   1    |   0   | Bootloader                    | Launcher  
 912:.\Generated_Source\PSoC4/Bootloader.c ****             * |  12  |    1   |   0   |   1    |   1   | app#2                         | app#2     
 913:.\Generated_Source\PSoC4/Bootloader.c ****             * |  13  |    1   |   1   |   0    |   0   | app#1                         | app#1     
ARM GAS  C:\Users\LUKASC~1\AppData\Local\Temp\ccn8LSRc.s 			page 23


 914:.\Generated_Source\PSoC4/Bootloader.c ****             * |  14  |    1   |   1   |   0    |   1   | app#1                         | app#1     
 915:.\Generated_Source\PSoC4/Bootloader.c ****             * |  15  |    1   |   1   |   1    |   0   | app#1                         | app#1     
 916:.\Generated_Source\PSoC4/Bootloader.c ****             * |  16  |    1   |   1   |   1    |   1   | app#1                         | app#1     
 917:.\Generated_Source\PSoC4/Bootloader.c ****             * -------------------------------------------------------------------------------------
 918:.\Generated_Source\PSoC4/Bootloader.c ****             ***************************************************************************************
 919:.\Generated_Source\PSoC4/Bootloader.c ****             if (CYRET_SUCCESS == app0Status)
 920:.\Generated_Source\PSoC4/Bootloader.c ****             {
 921:.\Generated_Source\PSoC4/Bootloader.c ****                 /* Cases # 13,  14, 15, and 16 */
 922:.\Generated_Source\PSoC4/Bootloader.c ****                 Bootloader_activeApp = Bootloader_MD_BTLDB_ACTIVE_0;
 923:.\Generated_Source\PSoC4/Bootloader.c ****                 validApp = CYRET_SUCCESS;
 924:.\Generated_Source\PSoC4/Bootloader.c ****             }
 925:.\Generated_Source\PSoC4/Bootloader.c ****             else /*Bootloadable app#1 is not valid*/
 926:.\Generated_Source\PSoC4/Bootloader.c ****             {
 927:.\Generated_Source\PSoC4/Bootloader.c ****                 #if (((1u == Bootloader_AUTO_SWITCHING_AVAIL) &&  \
 928:.\Generated_Source\PSoC4/Bootloader.c ****                       (CYDEV_PROJ_TYPE == CYDEV_PROJ_TYPE_MULTIAPPBOOTLOADER)) || \
 929:.\Generated_Source\PSoC4/Bootloader.c ****                       (CYDEV_PROJ_TYPE == CYDEV_PROJ_TYPE_LAUNCHER)) 
 930:.\Generated_Source\PSoC4/Bootloader.c ****                 if (CYRET_SUCCESS == app1Status )
 931:.\Generated_Source\PSoC4/Bootloader.c ****                 {
 932:.\Generated_Source\PSoC4/Bootloader.c ****                     /* Cases # 10 and 12 */
 933:.\Generated_Source\PSoC4/Bootloader.c ****                     Bootloader_activeApp = Bootloader_MD_BTLDB_ACTIVE_1;
 934:.\Generated_Source\PSoC4/Bootloader.c ****                     validApp = CYRET_SUCCESS;
 935:.\Generated_Source\PSoC4/Bootloader.c ****                 }
 936:.\Generated_Source\PSoC4/Bootloader.c ****                 #endif /*((1u == Bootloader_AUTO_SWITCHING_AVAIL) && 
 937:.\Generated_Source\PSoC4/Bootloader.c ****                           (CYDEV_PROJ_TYPE == CYDEV_PROJ_TYPE_MULTIAPPBOOTLOADER)) || 
 938:.\Generated_Source\PSoC4/Bootloader.c ****                           (CYDEV_PROJ_TYPE == CYDEV_PROJ_TYPE_LAUNCHER)*/
 939:.\Generated_Source\PSoC4/Bootloader.c ****             }
 940:.\Generated_Source\PSoC4/Bootloader.c ****         }
 941:.\Generated_Source\PSoC4/Bootloader.c **** 
 942:.\Generated_Source\PSoC4/Bootloader.c ****         /*  Active Bootloadable application is not identified */
 943:.\Generated_Source\PSoC4/Bootloader.c ****         if(Bootloader_activeApp == Bootloader_MD_BTLDB_ACTIVE_NONE)
 944:.\Generated_Source\PSoC4/Bootloader.c ****         {
 945:.\Generated_Source\PSoC4/Bootloader.c ****             /**************************************************************************************
 946:.\Generated_Source\PSoC4/Bootloader.c ****             * -------------------------------------------------------------------------------------
 947:.\Generated_Source\PSoC4/Bootloader.c ****             * |      |       app#1    |       app#2    |        Classic Dual-app       |     Launch
 948:.\Generated_Source\PSoC4/Bootloader.c ****             * | Case |---------------------------------|          Bootloader           |           
 949:.\Generated_Source\PSoC4/Bootloader.c ****             * |      | Active | Valid | Active | Valid |                               |           
 950:.\Generated_Source\PSoC4/Bootloader.c ****             * |------|-----------------------------------------------------------------------------
 951:.\Generated_Source\PSoC4/Bootloader.c ****             * |  1   |    0   |   0   |   0    |   0   | Bootloader                    | Launcher  
 952:.\Generated_Source\PSoC4/Bootloader.c ****             * |  2   |    0   |   0   |   0    |   1   | Bootloader                    | app#2     
 953:.\Generated_Source\PSoC4/Bootloader.c ****             * |  3   |    0   |   0   |   1    |   0   | Bootloader                    | Launcher  
 954:.\Generated_Source\PSoC4/Bootloader.c ****             * |  4   |    0   |   0   |   1    |   1   | app#2                         | app#2     
 955:.\Generated_Source\PSoC4/Bootloader.c ****             * |  5   |    0   |   1   |   0    |   0   | Bootloader                    | app#1     
 956:.\Generated_Source\PSoC4/Bootloader.c ****             * |  6   |    0   |   1   |   0    |   1   | Bootloader                    | app#1     
 957:.\Generated_Source\PSoC4/Bootloader.c ****             * |  7   |    0   |   1   |   1    |   0   | app#1, except if auto-app     | app#1     
 958:.\Generated_Source\PSoC4/Bootloader.c ****             * |      |        |       |        |       | switching is disabled, then   |           
 959:.\Generated_Source\PSoC4/Bootloader.c ****             * |      |        |       |        |       | stay in Bootloader            |           
 960:.\Generated_Source\PSoC4/Bootloader.c ****             * |  8   |    0   |   1   |   1    |   1   | app#2                         | app#2     
 961:.\Generated_Source\PSoC4/Bootloader.c ****             * -------------------------------------------------------------------------------------
 962:.\Generated_Source\PSoC4/Bootloader.c ****             ***************************************************************************************
 963:.\Generated_Source\PSoC4/Bootloader.c ****             if (Bootloader_GetMetadata(Bootloader_GET_BTLDB_ACTIVE, 1u) ==
 964:.\Generated_Source\PSoC4/Bootloader.c ****                     Bootloader_MD_BTLDB_IS_ACTIVE)
 965:.\Generated_Source\PSoC4/Bootloader.c ****             {
 966:.\Generated_Source\PSoC4/Bootloader.c ****                 /* Cases # 3, 4, 7, and 8 */
 967:.\Generated_Source\PSoC4/Bootloader.c ****                 if (CYRET_SUCCESS == app1Status)
 968:.\Generated_Source\PSoC4/Bootloader.c ****                 {
 969:.\Generated_Source\PSoC4/Bootloader.c ****                     /* Cases # 4 and 8 */
 970:.\Generated_Source\PSoC4/Bootloader.c ****                     Bootloader_activeApp = Bootloader_MD_BTLDB_ACTIVE_1;
ARM GAS  C:\Users\LUKASC~1\AppData\Local\Temp\ccn8LSRc.s 			page 24


 971:.\Generated_Source\PSoC4/Bootloader.c ****                     validApp = CYRET_SUCCESS;
 972:.\Generated_Source\PSoC4/Bootloader.c ****                 }
 973:.\Generated_Source\PSoC4/Bootloader.c ****                 else
 974:.\Generated_Source\PSoC4/Bootloader.c ****                 {
 975:.\Generated_Source\PSoC4/Bootloader.c ****                  #if (((1u == Bootloader_AUTO_SWITCHING_AVAIL) && \
 976:.\Generated_Source\PSoC4/Bootloader.c ****                        (CYDEV_PROJ_TYPE == CYDEV_PROJ_TYPE_MULTIAPPBOOTLOADER)) \
 977:.\Generated_Source\PSoC4/Bootloader.c ****                     || (CYDEV_PROJ_TYPE == CYDEV_PROJ_TYPE_LAUNCHER)) 
 978:.\Generated_Source\PSoC4/Bootloader.c ****                     if (CYRET_SUCCESS == app0Status)
 979:.\Generated_Source\PSoC4/Bootloader.c ****                     {
 980:.\Generated_Source\PSoC4/Bootloader.c ****                         /* Cases # 7 */
 981:.\Generated_Source\PSoC4/Bootloader.c ****                         Bootloader_activeApp = Bootloader_MD_BTLDB_ACTIVE_0;
 982:.\Generated_Source\PSoC4/Bootloader.c ****                         validApp = CYRET_SUCCESS;
 983:.\Generated_Source\PSoC4/Bootloader.c ****                     }
 984:.\Generated_Source\PSoC4/Bootloader.c ****                     #endif /*(((1u == Bootloader_AUTO_SWITCHING_AVAIL) && \
 985:.\Generated_Source\PSoC4/Bootloader.c ****                                (CYDEV_PROJ_TYPE == CYDEV_PROJ_TYPE_MULTIAPPBOOTLOADER)) \
 986:.\Generated_Source\PSoC4/Bootloader.c ****                             || (CYDEV_PROJ_TYPE == CYDEV_PROJ_TYPE_LAUNCHER))*/
 987:.\Generated_Source\PSoC4/Bootloader.c ****                 }
 988:.\Generated_Source\PSoC4/Bootloader.c ****             }
 989:.\Generated_Source\PSoC4/Bootloader.c ****         }
 990:.\Generated_Source\PSoC4/Bootloader.c ****         
 991:.\Generated_Source\PSoC4/Bootloader.c ****         #if (CYDEV_PROJ_TYPE == CYDEV_PROJ_TYPE_LAUNCHER) 
 992:.\Generated_Source\PSoC4/Bootloader.c ****             /*None of applications is active*/
 993:.\Generated_Source\PSoC4/Bootloader.c ****             if (Bootloader_MD_BTLDB_ACTIVE_NONE ==Bootloader_activeApp)
 994:.\Generated_Source\PSoC4/Bootloader.c ****             {
 995:.\Generated_Source\PSoC4/Bootloader.c ****                 /*case#5, case#6: pass control to Bootloadable app#1*/
 996:.\Generated_Source\PSoC4/Bootloader.c ****                 if(CYRET_SUCCESS == app0Status)
 997:.\Generated_Source\PSoC4/Bootloader.c ****                 {
 998:.\Generated_Source\PSoC4/Bootloader.c ****                     Bootloader_activeApp = Bootloader_MD_BTLDB_ACTIVE_0;
 999:.\Generated_Source\PSoC4/Bootloader.c ****                     validApp = CYRET_SUCCESS;
1000:.\Generated_Source\PSoC4/Bootloader.c ****                 }
1001:.\Generated_Source\PSoC4/Bootloader.c ****                 /*case#2: pass control to Bootloadable app#2*/
1002:.\Generated_Source\PSoC4/Bootloader.c ****                 else if (CYRET_SUCCESS == app1Status)
1003:.\Generated_Source\PSoC4/Bootloader.c ****                 {
1004:.\Generated_Source\PSoC4/Bootloader.c ****                     Bootloader_activeApp = Bootloader_MD_BTLDB_ACTIVE_1;
1005:.\Generated_Source\PSoC4/Bootloader.c ****                     validApp = CYRET_SUCCESS;
1006:.\Generated_Source\PSoC4/Bootloader.c ****                 }
1007:.\Generated_Source\PSoC4/Bootloader.c ****                 else
1008:.\Generated_Source\PSoC4/Bootloader.c ****                 {
1009:.\Generated_Source\PSoC4/Bootloader.c ****                     /* case#1, case#3, case#9, case#11: very bad situation, no valid application */
1010:.\Generated_Source\PSoC4/Bootloader.c ****                     /* Do nothing, stay in Bootloader/Launcher */
1011:.\Generated_Source\PSoC4/Bootloader.c ****                 }
1012:.\Generated_Source\PSoC4/Bootloader.c ****             }
1013:.\Generated_Source\PSoC4/Bootloader.c **** 
1014:.\Generated_Source\PSoC4/Bootloader.c **** 
1015:.\Generated_Source\PSoC4/Bootloader.c ****              /*********************************************************************************
1016:.\Generated_Source\PSoC4/Bootloader.c ****             * The next logic is an invalidation of the non-active application in the metadata
1017:.\Generated_Source\PSoC4/Bootloader.c ****             * section, because there could be a situation due to some error, when both  
1018:.\Generated_Source\PSoC4/Bootloader.c ****             * applications are set active (cases #12,15,16). Only one application can be active.
1019:.\Generated_Source\PSoC4/Bootloader.c ****             * This logic also stores the active application number in the metadata section.        
1020:.\Generated_Source\PSoC4/Bootloader.c ****             *********************************************************************************/
1021:.\Generated_Source\PSoC4/Bootloader.c ****             if (CYRET_SUCCESS == validApp)
1022:.\Generated_Source\PSoC4/Bootloader.c ****             {
1023:.\Generated_Source\PSoC4/Bootloader.c ****                 Bootloader_SetActiveAppInMetadata(Bootloader_activeApp);      
1024:.\Generated_Source\PSoC4/Bootloader.c ****             }
1025:.\Generated_Source\PSoC4/Bootloader.c ****         #endif /* CYDEV_PROJ_TYPE == CYDEV_PROJ_TYPE_LAUNCHER */
1026:.\Generated_Source\PSoC4/Bootloader.c ****     #else /*SINGLE_APP BOOTLOADER*/
1027:.\Generated_Source\PSoC4/Bootloader.c ****         if (CYRET_SUCCESS == Bootloader_ValidateBootloadable(Bootloader_MD_BTLDB_ACTIVE_0))
ARM GAS  C:\Users\LUKASC~1\AppData\Local\Temp\ccn8LSRc.s 			page 25


 338              		.loc 1 1027 0
 339 000a 0020     		mov	r0, #0
 340 000c FFF7FEFF 		bl	Bootloader_ValidateBootloadable
 341 0010 031E     		sub	r3, r0, #0
 342 0012 01D1     		bne	.L20
1028:.\Generated_Source\PSoC4/Bootloader.c ****         {
1029:.\Generated_Source\PSoC4/Bootloader.c ****             validApp = CYRET_SUCCESS;
 343              		.loc 1 1029 0
 344 0014 0023     		mov	r3, #0
 345 0016 7B60     		str	r3, [r7, #4]
 346              	.L20:
1030:.\Generated_Source\PSoC4/Bootloader.c ****         }
1031:.\Generated_Source\PSoC4/Bootloader.c ****     #endif  /* (0u != Bootloader_DUAL_APP_BOOTLOADER) */
1032:.\Generated_Source\PSoC4/Bootloader.c **** 
1033:.\Generated_Source\PSoC4/Bootloader.c ****     
1034:.\Generated_Source\PSoC4/Bootloader.c ****     /***********************************************************************
1035:.\Generated_Source\PSoC4/Bootloader.c ****     * Bootloader Application Validation
1036:.\Generated_Source\PSoC4/Bootloader.c ****     *
1037:.\Generated_Source\PSoC4/Bootloader.c ****     * Halt the device if:
1038:.\Generated_Source\PSoC4/Bootloader.c ****     *  - A calculated checksum does not match the one stored in the metadata
1039:.\Generated_Source\PSoC4/Bootloader.c ****     *     section.
1040:.\Generated_Source\PSoC4/Bootloader.c ****     *  - There is an invalid pointer to the place where the Bootloader
1041:.\Generated_Source\PSoC4/Bootloader.c ****     *    application ends.
1042:.\Generated_Source\PSoC4/Bootloader.c ****     *  - The flash subsystem was not initialized correctly.
1043:.\Generated_Source\PSoC4/Bootloader.c ****     ***********************************************************************/
1044:.\Generated_Source\PSoC4/Bootloader.c ****     #if(0u != Bootloader_BOOTLOADER_APP_VALIDATION)
1045:.\Generated_Source\PSoC4/Bootloader.c **** 
1046:.\Generated_Source\PSoC4/Bootloader.c ****         /* Calculate Bootloader application checksum */
1047:.\Generated_Source\PSoC4/Bootloader.c ****         calcedChecksum = Bootloader_Calc8BitSum(CY_FLASH_BASE,
1048:.\Generated_Source\PSoC4/Bootloader.c ****                 Bootloader_MD_BTLDR_ADDR_PTR,
1049:.\Generated_Source\PSoC4/Bootloader.c ****                 *Bootloader_SizeBytesAccess - Bootloader_MD_BTLDR_ADDR_PTR);
 347              		.loc 1 1049 0
 348 0018 1E4B     		ldr	r3, .L25
 349 001a 1B68     		ldr	r3, [r3]
 350 001c 1B68     		ldr	r3, [r3]
1047:.\Generated_Source\PSoC4/Bootloader.c ****                 Bootloader_MD_BTLDR_ADDR_PTR,
 351              		.loc 1 1047 0
 352 001e C03B     		sub	r3, r3, #192
 353 0020 FC1C     		add	r4, r7, #3
 354 0022 0020     		mov	r0, #0
 355 0024 C021     		mov	r1, #192
 356 0026 1A1C     		mov	r2, r3
 357 0028 FFF7FEFF 		bl	Bootloader_Calc8BitSum
 358 002c 031C     		mov	r3, r0
 359 002e 2370     		strb	r3, [r4]
1050:.\Generated_Source\PSoC4/Bootloader.c **** 
1051:.\Generated_Source\PSoC4/Bootloader.c ****         /* We included checksum, so remove it */
1052:.\Generated_Source\PSoC4/Bootloader.c ****         calcedChecksum -= *Bootloader_ChecksumAccess;
 360              		.loc 1 1052 0
 361 0030 194B     		ldr	r3, .L25+4
 362 0032 1B68     		ldr	r3, [r3]
 363 0034 1A78     		ldrb	r2, [r3]
 364 0036 FB1C     		add	r3, r7, #3
 365 0038 F91C     		add	r1, r7, #3
 366 003a 0978     		ldrb	r1, [r1]
 367 003c 8A1A     		sub	r2, r1, r2
 368 003e 1A70     		strb	r2, [r3]
ARM GAS  C:\Users\LUKASC~1\AppData\Local\Temp\ccn8LSRc.s 			page 26


1053:.\Generated_Source\PSoC4/Bootloader.c ****         calcedChecksum = ( uint8 )1u + ( uint8 )(~calcedChecksum);
 369              		.loc 1 1053 0
 370 0040 FB1C     		add	r3, r7, #3
 371 0042 FA1C     		add	r2, r7, #3
 372 0044 1278     		ldrb	r2, [r2]
 373 0046 5242     		neg	r2, r2
 374 0048 1A70     		strb	r2, [r3]
1054:.\Generated_Source\PSoC4/Bootloader.c **** 
1055:.\Generated_Source\PSoC4/Bootloader.c ****         /* Checksum and pointer to Bootloader verification */
1056:.\Generated_Source\PSoC4/Bootloader.c ****         if((calcedChecksum != *Bootloader_ChecksumAccess) ||
 375              		.loc 1 1056 0
 376 004a 134B     		ldr	r3, .L25+4
 377 004c 1B68     		ldr	r3, [r3]
 378 004e 1B78     		ldrb	r3, [r3]
 379 0050 FA1C     		add	r2, r7, #3
 380 0052 1278     		ldrb	r2, [r2]
 381 0054 9A42     		cmp	r2, r3
 382 0056 04D1     		bne	.L21
1057:.\Generated_Source\PSoC4/Bootloader.c ****            (0u == *Bootloader_SizeBytesAccess))
 383              		.loc 1 1057 0 discriminator 1
 384 0058 0E4B     		ldr	r3, .L25
 385 005a 1B68     		ldr	r3, [r3]
 386 005c 1B68     		ldr	r3, [r3]
1056:.\Generated_Source\PSoC4/Bootloader.c ****            (0u == *Bootloader_SizeBytesAccess))
 387              		.loc 1 1056 0 discriminator 1
 388 005e 002B     		cmp	r3, #0
 389 0060 02D1     		bne	.L22
 390              	.L21:
1058:.\Generated_Source\PSoC4/Bootloader.c ****         {
1059:.\Generated_Source\PSoC4/Bootloader.c ****             /***********************************************************************
1060:.\Generated_Source\PSoC4/Bootloader.c ****             * If the Bootloader/Launcher application calculated checksum does not match
1061:.\Generated_Source\PSoC4/Bootloader.c ****             * the checksum stored in special Bootloader_Checksum constant 
1062:.\Generated_Source\PSoC4/Bootloader.c ****             * (accessed through Bootloader_ChecksumAccess) constant or its size 
1063:.\Generated_Source\PSoC4/Bootloader.c ****             * stored in Bootloader_SizeBytes constant (accessed through
1064:.\Generated_Source\PSoC4/Bootloader.c ****             * Bootloader_SizeBytesAccess) then CPU is halted, all software 
1065:.\Generated_Source\PSoC4/Bootloader.c ****             * processing stops. 
1066:.\Generated_Source\PSoC4/Bootloader.c ****             ***********************************************************************/
1067:.\Generated_Source\PSoC4/Bootloader.c ****             CyHalt(0x00u);
 391              		.loc 1 1067 0
 392 0062 0020     		mov	r0, #0
 393 0064 FFF7FEFF 		bl	CyHalt
 394              	.L22:
1068:.\Generated_Source\PSoC4/Bootloader.c ****         }
1069:.\Generated_Source\PSoC4/Bootloader.c **** 
1070:.\Generated_Source\PSoC4/Bootloader.c ****     #endif /* 0u != Bootloader_BOOTLOADER_APP_VALIDATION */
1071:.\Generated_Source\PSoC4/Bootloader.c **** #endif /* CYDEV_PROJ_TYPE != CYDEV_PROJ_TYPE_LOADABLEANDBOOTLOADER*/ 
1072:.\Generated_Source\PSoC4/Bootloader.c **** 
1073:.\Generated_Source\PSoC4/Bootloader.c **** #if (CYDEV_PROJ_TYPE != CYDEV_PROJ_TYPE_LAUNCHER)    
1074:.\Generated_Source\PSoC4/Bootloader.c ****     /***********************************************************************
1075:.\Generated_Source\PSoC4/Bootloader.c ****     * If the active Bootloadable application is invalid or scheduled - do the following:
1076:.\Generated_Source\PSoC4/Bootloader.c ****     *  - schedule the Bootloader application to be run after a software reset;
1077:.\Generated_Source\PSoC4/Bootloader.c ****     *  - go to the communication subroutine. The HostLink() will wait for
1078:.\Generated_Source\PSoC4/Bootloader.c ****     *    commands forever.
1079:.\Generated_Source\PSoC4/Bootloader.c ****     ***********************************************************************/
1080:.\Generated_Source\PSoC4/Bootloader.c ****     if ((Bootloader_GET_RUN_TYPE == Bootloader_SCHEDULE_BTLDR) 
 395              		.loc 1 1080 0
 396 0068 0C4B     		ldr	r3, .L25+8
ARM GAS  C:\Users\LUKASC~1\AppData\Local\Temp\ccn8LSRc.s 			page 27


 397 006a 1B68     		ldr	r3, [r3]
 398 006c 402B     		cmp	r3, #64
 399 006e 02D0     		beq	.L23
1081:.\Generated_Source\PSoC4/Bootloader.c **** #if (CYDEV_PROJ_TYPE != CYDEV_PROJ_TYPE_LOADABLEANDBOOTLOADER)        
1082:.\Generated_Source\PSoC4/Bootloader.c ****         || (CYRET_SUCCESS != validApp)
 400              		.loc 1 1082 0
 401 0070 7B68     		ldr	r3, [r7, #4]
 402 0072 002B     		cmp	r3, #0
 403 0074 05D0     		beq	.L24
 404              	.L23:
1083:.\Generated_Source\PSoC4/Bootloader.c **** #endif        
1084:.\Generated_Source\PSoC4/Bootloader.c ****         )
1085:.\Generated_Source\PSoC4/Bootloader.c ****     {
1086:.\Generated_Source\PSoC4/Bootloader.c ****         Bootloader_SET_RUN_TYPE(Bootloader_SCHEDULE_BTLDR_INIT_STATE);
 405              		.loc 1 1086 0
 406 0076 094B     		ldr	r3, .L25+8
 407 0078 0022     		mov	r2, #0
 408 007a 1A60     		str	r2, [r3]
1087:.\Generated_Source\PSoC4/Bootloader.c **** 
1088:.\Generated_Source\PSoC4/Bootloader.c ****         Bootloader_HostLink(Bootloader_WAIT_FOR_COMMAND_FOREVER);
 409              		.loc 1 1088 0
 410 007c 0020     		mov	r0, #0
 411 007e FFF7FEFF 		bl	Bootloader_HostLink
 412              	.L24:
1089:.\Generated_Source\PSoC4/Bootloader.c ****     }
1090:.\Generated_Source\PSoC4/Bootloader.c **** 
1091:.\Generated_Source\PSoC4/Bootloader.c ****     /* Go to communication subroutine. Will wait for commands for specified time */
1092:.\Generated_Source\PSoC4/Bootloader.c ****     #if(0u != Bootloader_WAIT_FOR_COMMAND)
1093:.\Generated_Source\PSoC4/Bootloader.c **** 
1094:.\Generated_Source\PSoC4/Bootloader.c ****         /* Timeout is in 100s of milliseconds */
1095:.\Generated_Source\PSoC4/Bootloader.c ****         Bootloader_HostLink(Bootloader_WAIT_FOR_COMMAND_TIME);
 413              		.loc 1 1095 0
 414 0082 1420     		mov	r0, #20
 415 0084 FFF7FEFF 		bl	Bootloader_HostLink
1096:.\Generated_Source\PSoC4/Bootloader.c **** 
1097:.\Generated_Source\PSoC4/Bootloader.c ****     #endif  /* (0u != Bootloader_WAIT_FOR_COMMAND) */
1098:.\Generated_Source\PSoC4/Bootloader.c **** #else /* Launcher */
1099:.\Generated_Source\PSoC4/Bootloader.c ****     /* If none Bootloadable application is valid */
1100:.\Generated_Source\PSoC4/Bootloader.c ****     if (CYRET_SUCCESS != validApp)
1101:.\Generated_Source\PSoC4/Bootloader.c ****     {   
1102:.\Generated_Source\PSoC4/Bootloader.c ****         CyHalt(0x00u);
1103:.\Generated_Source\PSoC4/Bootloader.c ****     }         
1104:.\Generated_Source\PSoC4/Bootloader.c **** #endif /*CYDEV_PROJ_TYPE != CYDEV_PROJ_TYPE_LAUNCHER*/    
1105:.\Generated_Source\PSoC4/Bootloader.c **** 
1106:.\Generated_Source\PSoC4/Bootloader.c **** #if (CYDEV_PROJ_TYPE != CYDEV_PROJ_TYPE_LOADABLEANDBOOTLOADER)             
1107:.\Generated_Source\PSoC4/Bootloader.c ****     /* Schedule Bootloadable application and perform software reset */
1108:.\Generated_Source\PSoC4/Bootloader.c ****     Bootloader_LaunchApplication();
 416              		.loc 1 1108 0
 417 0088 FFF7FEFF 		bl	Bootloader_LaunchApplication
1109:.\Generated_Source\PSoC4/Bootloader.c **** #endif /*(CYDEV_PROJ_TYPE != CYDEV_PROJ_TYPE_LOADABLEANDBOOTLOADER)*/    
1110:.\Generated_Source\PSoC4/Bootloader.c **** }
 418              		.loc 1 1110 0
 419 008c BD46     		mov	sp, r7
 420 008e 03B0     		add	sp, sp, #12
 421              		@ sp needed
 422 0090 90BD     		pop	{r4, r7, pc}
 423              	.L26:
ARM GAS  C:\Users\LUKASC~1\AppData\Local\Temp\ccn8LSRc.s 			page 28


 424 0092 C046     		.align	2
 425              	.L25:
 426 0094 00000000 		.word	Bootloader_SizeBytesAccess
 427 0098 00000000 		.word	Bootloader_ChecksumAccess
 428 009c 00000000 		.word	cyBtldrRunType
 429              		.cfi_endproc
 430              	.LFE38:
 431              		.size	Bootloader_Start, .-Bootloader_Start
 432              		.section	.text.Bootloader_LaunchApplication,"ax",%progbits
 433              		.align	2
 434              		.code	16
 435              		.thumb_func
 436              		.type	Bootloader_LaunchApplication, %function
 437              	Bootloader_LaunchApplication:
 438              	.LFB39:
1111:.\Generated_Source\PSoC4/Bootloader.c **** 
1112:.\Generated_Source\PSoC4/Bootloader.c **** #if (CYDEV_PROJ_TYPE != CYDEV_PROJ_TYPE_LOADABLEANDBOOTLOADER)
1113:.\Generated_Source\PSoC4/Bootloader.c **** /*******************************************************************************
1114:.\Generated_Source\PSoC4/Bootloader.c **** * Function Name: Bootloader_LaunchApplication
1115:.\Generated_Source\PSoC4/Bootloader.c **** ****************************************************************************//**
1116:.\Generated_Source\PSoC4/Bootloader.c **** * \internal
1117:.\Generated_Source\PSoC4/Bootloader.c **** *
1118:.\Generated_Source\PSoC4/Bootloader.c **** * \brief
1119:.\Generated_Source\PSoC4/Bootloader.c **** *  Schedules the Bootloadable application and resets the device.
1120:.\Generated_Source\PSoC4/Bootloader.c **** *
1121:.\Generated_Source\PSoC4/Bootloader.c **** * \return
1122:.\Generated_Source\PSoC4/Bootloader.c **** *  This method will never return.
1123:.\Generated_Source\PSoC4/Bootloader.c **** *
1124:.\Generated_Source\PSoC4/Bootloader.c **** * \endinternal
1125:.\Generated_Source\PSoC4/Bootloader.c **** *******************************************************************************/
1126:.\Generated_Source\PSoC4/Bootloader.c **** static void Bootloader_LaunchApplication(void) CYSMALL \
1127:.\Generated_Source\PSoC4/Bootloader.c ****                     
1128:.\Generated_Source\PSoC4/Bootloader.c **** {
 439              		.loc 1 1128 0
 440              		.cfi_startproc
 441 0000 80B5     		push	{r7, lr}
 442              		.cfi_def_cfa_offset 8
 443              		.cfi_offset 7, -8
 444              		.cfi_offset 14, -4
 445 0002 00AF     		add	r7, sp, #0
 446              		.cfi_def_cfa_register 7
1129:.\Generated_Source\PSoC4/Bootloader.c ****     /* Schedule Bootloadable to start after a reset */
1130:.\Generated_Source\PSoC4/Bootloader.c ****     Bootloader_SET_RUN_TYPE(Bootloader_SCHEDULE_BTLDB);
 447              		.loc 1 1130 0
 448 0004 034B     		ldr	r3, .L28
 449 0006 8022     		mov	r2, #128
 450 0008 1A60     		str	r2, [r3]
1131:.\Generated_Source\PSoC4/Bootloader.c **** 
1132:.\Generated_Source\PSoC4/Bootloader.c ****     CySoftwareReset();
 451              		.loc 1 1132 0
 452 000a FFF7FEFF 		bl	CySoftwareReset
1133:.\Generated_Source\PSoC4/Bootloader.c **** }
 453              		.loc 1 1133 0
 454 000e BD46     		mov	sp, r7
 455              		@ sp needed
 456 0010 80BD     		pop	{r7, pc}
 457              	.L29:
ARM GAS  C:\Users\LUKASC~1\AppData\Local\Temp\ccn8LSRc.s 			page 29


 458 0012 C046     		.align	2
 459              	.L28:
 460 0014 00000000 		.word	cyBtldrRunType
 461              		.cfi_endproc
 462              	.LFE39:
 463              		.size	Bootloader_LaunchApplication, .-Bootloader_LaunchApplication
 464              		.section	.text.Bootloader_Exit,"ax",%progbits
 465              		.align	2
 466              		.global	Bootloader_Exit
 467              		.code	16
 468              		.thumb_func
 469              		.type	Bootloader_Exit, %function
 470              	Bootloader_Exit:
 471              	.LFB40:
1134:.\Generated_Source\PSoC4/Bootloader.c **** #endif /*(CYDEV_PROJ_TYPE != CYDEV_PROJ_TYPE_LOADABLEANDBOOTLOADER)*/
1135:.\Generated_Source\PSoC4/Bootloader.c **** 
1136:.\Generated_Source\PSoC4/Bootloader.c **** /*******************************************************************************
1137:.\Generated_Source\PSoC4/Bootloader.c **** * Function Name: Bootloader_Exit
1138:.\Generated_Source\PSoC4/Bootloader.c **** ****************************************************************************//**
1139:.\Generated_Source\PSoC4/Bootloader.c **** *
1140:.\Generated_Source\PSoC4/Bootloader.c **** *\brief
1141:.\Generated_Source\PSoC4/Bootloader.c **** *  Schedules the specified application and performs a software reset to launch
1142:.\Generated_Source\PSoC4/Bootloader.c **** *  a specified application.
1143:.\Generated_Source\PSoC4/Bootloader.c **** *
1144:.\Generated_Source\PSoC4/Bootloader.c **** *  If the specified application is not valid, the Bootloader (the result of the
1145:.\Generated_Source\PSoC4/Bootloader.c **** *  ValidateBootloadable() function execution returns other than CYRET_SUCCESS,
1146:.\Generated_Source\PSoC4/Bootloader.c **** *  the Bootloader application is launched.
1147:.\Generated_Source\PSoC4/Bootloader.c **** *
1148:.\Generated_Source\PSoC4/Bootloader.c **** * \param appId 
1149:.\Generated_Source\PSoC4/Bootloader.c **** *   The application to be started:
1150:.\Generated_Source\PSoC4/Bootloader.c **** *   - Bootloader_EXIT_TO_BTLDR - The Bootloader application will be started on
1151:.\Generated_Source\PSoC4/Bootloader.c **** *                                     a software reset.
1152:.\Generated_Source\PSoC4/Bootloader.c **** *   - Bootloader_EXIT_TO_BTLDB;
1153:.\Generated_Source\PSoC4/Bootloader.c **** *   - Bootloader_EXIT_TO_BTLDB_1 - Bootloadable application # 1 will be
1154:.\Generated_Source\PSoC4/Bootloader.c **** *                                     started on a software reset.
1155:.\Generated_Source\PSoC4/Bootloader.c **** *   - Bootloader_EXIT_TO_BTLDB_2 - Bootloadable application # 2 will be
1156:.\Generated_Source\PSoC4/Bootloader.c **** *                                     started on a software reset. Available only
1157:.\Generated_Source\PSoC4/Bootloader.c **** *                                     if the "Dual-application" option is enabled in
1158:.\Generated_Source\PSoC4/Bootloader.c **** *                                     the component customizer.
1159:.\Generated_Source\PSoC4/Bootloader.c **** * \return
1160:.\Generated_Source\PSoC4/Bootloader.c **** *  This function never returns.
1161:.\Generated_Source\PSoC4/Bootloader.c **** *
1162:.\Generated_Source\PSoC4/Bootloader.c **** *******************************************************************************/
1163:.\Generated_Source\PSoC4/Bootloader.c **** void Bootloader_Exit(uint8 appId) CYSMALL 
1164:.\Generated_Source\PSoC4/Bootloader.c **** {
 472              		.loc 1 1164 0
 473              		.cfi_startproc
 474 0000 80B5     		push	{r7, lr}
 475              		.cfi_def_cfa_offset 8
 476              		.cfi_offset 7, -8
 477              		.cfi_offset 14, -4
 478 0002 84B0     		sub	sp, sp, #16
 479              		.cfi_def_cfa_offset 24
 480 0004 00AF     		add	r7, sp, #0
 481              		.cfi_def_cfa_register 7
 482 0006 021C     		mov	r2, r0
 483 0008 FB1D     		add	r3, r7, #7
ARM GAS  C:\Users\LUKASC~1\AppData\Local\Temp\ccn8LSRc.s 			page 30


 484 000a 1A70     		strb	r2, [r3]
1165:.\Generated_Source\PSoC4/Bootloader.c ****     if(Bootloader_EXIT_TO_BTLDR == appId)
 485              		.loc 1 1165 0
 486 000c FB1D     		add	r3, r7, #7
 487 000e 1B78     		ldrb	r3, [r3]
 488 0010 022B     		cmp	r3, #2
 489 0012 03D1     		bne	.L31
1166:.\Generated_Source\PSoC4/Bootloader.c ****     {
1167:.\Generated_Source\PSoC4/Bootloader.c ****         Bootloader_SET_RUN_TYPE(Bootloader_SCHEDULE_BTLDR_INIT_STATE);
 490              		.loc 1 1167 0
 491 0014 1E4B     		ldr	r3, .L36
 492 0016 0022     		mov	r2, #0
 493 0018 1A60     		str	r2, [r3]
 494 001a 34E0     		b	.L32
 495              	.L31:
1168:.\Generated_Source\PSoC4/Bootloader.c ****     }
1169:.\Generated_Source\PSoC4/Bootloader.c ****     else
1170:.\Generated_Source\PSoC4/Bootloader.c ****     {
1171:.\Generated_Source\PSoC4/Bootloader.c ****         if(CYRET_SUCCESS == Bootloader_ValidateBootloadable(appId))
 496              		.loc 1 1171 0
 497 001c FB1D     		add	r3, r7, #7
 498 001e 1B78     		ldrb	r3, [r3]
 499 0020 181C     		mov	r0, r3
 500 0022 FFF7FEFF 		bl	Bootloader_ValidateBootloadable
 501 0026 031E     		sub	r3, r0, #0
 502 0028 2AD1     		bne	.L33
 503              	.LBB2:
1172:.\Generated_Source\PSoC4/Bootloader.c ****         {
1173:.\Generated_Source\PSoC4/Bootloader.c ****             /* Set active application in metadata */
1174:.\Generated_Source\PSoC4/Bootloader.c ****             uint8 CYDATA idx;
1175:.\Generated_Source\PSoC4/Bootloader.c ****             for(idx = 0u; idx < Bootloader_MAX_NUM_OF_BTLDB; idx++)
 504              		.loc 1 1175 0
 505 002a 0F23     		mov	r3, #15
 506 002c FB18     		add	r3, r7, r3
 507 002e 0022     		mov	r2, #0
 508 0030 1A70     		strb	r2, [r3]
 509 0032 1CE0     		b	.L34
 510              	.L35:
1176:.\Generated_Source\PSoC4/Bootloader.c ****             {
1177:.\Generated_Source\PSoC4/Bootloader.c ****                 Bootloader_SetFlashByte((uint32) Bootloader_MD_BTLDB_ACTIVE_OFFSET(idx),
 511              		.loc 1 1177 0 discriminator 3
 512 0034 0F23     		mov	r3, #15
 513 0036 FB18     		add	r3, r7, r3
 514 0038 1A78     		ldrb	r2, [r3]
 515 003a 131C     		mov	r3, r2
 516 003c 5B06     		lsl	r3, r3, #25
 517 003e 9B1A     		sub	r3, r3, r2
 518 0040 DB01     		lsl	r3, r3, #7
 519 0042 144A     		ldr	r2, .L36+4
 520 0044 9918     		add	r1, r3, r2
 521 0046 0F23     		mov	r3, #15
 522 0048 FA18     		add	r2, r7, r3
 523 004a FB1D     		add	r3, r7, #7
 524 004c 1278     		ldrb	r2, [r2]
 525 004e 1B78     		ldrb	r3, [r3]
 526 0050 D31A     		sub	r3, r2, r3
 527 0052 5A42     		neg	r2, r3
ARM GAS  C:\Users\LUKASC~1\AppData\Local\Temp\ccn8LSRc.s 			page 31


 528 0054 5341     		adc	r3, r3, r2
 529 0056 DBB2     		uxtb	r3, r3
 530 0058 081C     		mov	r0, r1
 531 005a 191C     		mov	r1, r3
 532 005c FFF7FEFF 		bl	Bootloader_SetFlashByte
1175:.\Generated_Source\PSoC4/Bootloader.c ****             {
 533              		.loc 1 1175 0 discriminator 3
 534 0060 0F23     		mov	r3, #15
 535 0062 FB18     		add	r3, r7, r3
 536 0064 1A78     		ldrb	r2, [r3]
 537 0066 0F23     		mov	r3, #15
 538 0068 FB18     		add	r3, r7, r3
 539 006a 0132     		add	r2, r2, #1
 540 006c 1A70     		strb	r2, [r3]
 541              	.L34:
1175:.\Generated_Source\PSoC4/Bootloader.c ****             {
 542              		.loc 1 1175 0 is_stmt 0 discriminator 1
 543 006e 0F23     		mov	r3, #15
 544 0070 FB18     		add	r3, r7, r3
 545 0072 1B78     		ldrb	r3, [r3]
 546 0074 002B     		cmp	r3, #0
 547 0076 DDD0     		beq	.L35
1178:.\Generated_Source\PSoC4/Bootloader.c ****                                               (uint8 )(idx == appId));
1179:.\Generated_Source\PSoC4/Bootloader.c ****             }
1180:.\Generated_Source\PSoC4/Bootloader.c **** 
1181:.\Generated_Source\PSoC4/Bootloader.c ****         #if((0u != Bootloader_DUAL_APP_BOOTLOADER) || \
1182:.\Generated_Source\PSoC4/Bootloader.c ****             (CYDEV_PROJ_TYPE == CYDEV_PROJ_TYPE_LOADABLEANDBOOTLOADER))
1183:.\Generated_Source\PSoC4/Bootloader.c ****             Bootloader_activeApp = appId;
1184:.\Generated_Source\PSoC4/Bootloader.c ****         #endif /* (0u != Bootloader_DUAL_APP_BOOTLOADER) || 
1185:.\Generated_Source\PSoC4/Bootloader.c ****                   (CYDEV_PROJ_TYPE == CYDEV_PROJ_TYPE_LOADABLEANDBOOTLOADER))*/
1186:.\Generated_Source\PSoC4/Bootloader.c **** 
1187:.\Generated_Source\PSoC4/Bootloader.c ****             Bootloader_SET_RUN_TYPE(Bootloader_SCHEDULE_BTLDB);
 548              		.loc 1 1187 0 is_stmt 1
 549 0078 054B     		ldr	r3, .L36
 550 007a 8022     		mov	r2, #128
 551 007c 1A60     		str	r2, [r3]
 552              	.LBE2:
 553 007e 02E0     		b	.L32
 554              	.L33:
1188:.\Generated_Source\PSoC4/Bootloader.c ****         }
1189:.\Generated_Source\PSoC4/Bootloader.c ****         else
1190:.\Generated_Source\PSoC4/Bootloader.c ****         {
1191:.\Generated_Source\PSoC4/Bootloader.c ****             Bootloader_SET_RUN_TYPE(Bootloader_SCHEDULE_BTLDR_INIT_STATE);
 555              		.loc 1 1191 0
 556 0080 034B     		ldr	r3, .L36
 557 0082 0022     		mov	r2, #0
 558 0084 1A60     		str	r2, [r3]
 559              	.L32:
1192:.\Generated_Source\PSoC4/Bootloader.c ****         }
1193:.\Generated_Source\PSoC4/Bootloader.c ****     }
1194:.\Generated_Source\PSoC4/Bootloader.c **** 
1195:.\Generated_Source\PSoC4/Bootloader.c ****     CySoftwareReset();
 560              		.loc 1 1195 0
 561 0086 FFF7FEFF 		bl	CySoftwareReset
1196:.\Generated_Source\PSoC4/Bootloader.c **** }
 562              		.loc 1 1196 0
 563 008a BD46     		mov	sp, r7
ARM GAS  C:\Users\LUKASC~1\AppData\Local\Temp\ccn8LSRc.s 			page 32


 564 008c 04B0     		add	sp, sp, #16
 565              		@ sp needed
 566 008e 80BD     		pop	{r7, pc}
 567              	.L37:
 568              		.align	2
 569              	.L36:
 570 0090 00000000 		.word	cyBtldrRunType
 571 0094 D07F0000 		.word	32720
 572              		.cfi_endproc
 573              	.LFE40:
 574              		.size	Bootloader_Exit, .-Bootloader_Exit
 575              		.section	.text.CyBtldr_CheckLaunch,"ax",%progbits
 576              		.align	2
 577              		.global	CyBtldr_CheckLaunch
 578              		.code	16
 579              		.thumb_func
 580              		.type	CyBtldr_CheckLaunch, %function
 581              	CyBtldr_CheckLaunch:
 582              	.LFB41:
1197:.\Generated_Source\PSoC4/Bootloader.c **** 
1198:.\Generated_Source\PSoC4/Bootloader.c **** #if (CYDEV_PROJ_TYPE != CYDEV_PROJ_TYPE_LOADABLEANDBOOTLOADER)
1199:.\Generated_Source\PSoC4/Bootloader.c **** /*******************************************************************************
1200:.\Generated_Source\PSoC4/Bootloader.c **** * Function Name: CyBtldr_CheckLaunch
1201:.\Generated_Source\PSoC4/Bootloader.c **** ****************************************************************************//**
1202:.\Generated_Source\PSoC4/Bootloader.c **** * \internal
1203:.\Generated_Source\PSoC4/Bootloader.c **** *
1204:.\Generated_Source\PSoC4/Bootloader.c **** * \brief
1205:.\Generated_Source\PSoC4/Bootloader.c **** *  This routine checks if the Bootloader or Bootloadable application has to
1206:.\Generated_Source\PSoC4/Bootloader.c **** *  be run.  If the application has to be run, it will start executing.
1207:.\Generated_Source\PSoC4/Bootloader.c **** *  If the Bootloader has to be run, it will return, so the Bootloader can
1208:.\Generated_Source\PSoC4/Bootloader.c **** *  continue starting up.
1209:.\Generated_Source\PSoC4/Bootloader.c **** *
1210:.\Generated_Source\PSoC4/Bootloader.c **** * \return
1211:.\Generated_Source\PSoC4/Bootloader.c **** *  It will not return if it determines that the Bootloadable application should
1212:.\Generated_Source\PSoC4/Bootloader.c **** *  be run.
1213:.\Generated_Source\PSoC4/Bootloader.c **** *
1214:.\Generated_Source\PSoC4/Bootloader.c **** * \endinternal
1215:.\Generated_Source\PSoC4/Bootloader.c **** *******************************************************************************/
1216:.\Generated_Source\PSoC4/Bootloader.c **** void CyBtldr_CheckLaunch(void) CYSMALL 
1217:.\Generated_Source\PSoC4/Bootloader.c **** {
 583              		.loc 1 1217 0
 584              		.cfi_startproc
 585 0000 80B5     		push	{r7, lr}
 586              		.cfi_def_cfa_offset 8
 587              		.cfi_offset 7, -8
 588              		.cfi_offset 14, -4
 589 0002 82B0     		sub	sp, sp, #8
 590              		.cfi_def_cfa_offset 16
 591 0004 00AF     		add	r7, sp, #0
 592              		.cfi_def_cfa_register 7
1218:.\Generated_Source\PSoC4/Bootloader.c **** 
1219:.\Generated_Source\PSoC4/Bootloader.c **** #if(CY_PSOC4)
1220:.\Generated_Source\PSoC4/Bootloader.c **** 
1221:.\Generated_Source\PSoC4/Bootloader.c ****     /*******************************************************************************
1222:.\Generated_Source\PSoC4/Bootloader.c ****     * Set cyBtldrRunType to zero in the case of a non-software reset. This means
1223:.\Generated_Source\PSoC4/Bootloader.c ****     * that the Bootloader application is scheduled - the initial clean state. The
1224:.\Generated_Source\PSoC4/Bootloader.c ****     * value of cyBtldrRunType is valid only in the case of a software reset.
ARM GAS  C:\Users\LUKASC~1\AppData\Local\Temp\ccn8LSRc.s 			page 33


1225:.\Generated_Source\PSoC4/Bootloader.c ****     *******************************************************************************/
1226:.\Generated_Source\PSoC4/Bootloader.c ****     if (0u == (Bootloader_RES_CAUSE_REG & Bootloader_RES_CAUSE_RESET_SOFT))
 593              		.loc 1 1226 0
 594 0006 134B     		ldr	r3, .L41
 595 0008 1B68     		ldr	r3, [r3]
 596 000a 1022     		mov	r2, #16
 597 000c 1340     		and	r3, r2
 598 000e 02D1     		bne	.L39
1227:.\Generated_Source\PSoC4/Bootloader.c ****     {
1228:.\Generated_Source\PSoC4/Bootloader.c ****         cyBtldrRunType = Bootloader_SCHEDULE_BTLDR_INIT_STATE;
 599              		.loc 1 1228 0
 600 0010 114B     		ldr	r3, .L41+4
 601 0012 0022     		mov	r2, #0
 602 0014 1A60     		str	r2, [r3]
 603              	.L39:
1229:.\Generated_Source\PSoC4/Bootloader.c ****     }
1230:.\Generated_Source\PSoC4/Bootloader.c **** 
1231:.\Generated_Source\PSoC4/Bootloader.c **** #endif /* (CY_PSOC4) */
1232:.\Generated_Source\PSoC4/Bootloader.c **** 
1233:.\Generated_Source\PSoC4/Bootloader.c **** 
1234:.\Generated_Source\PSoC4/Bootloader.c ****     if (Bootloader_GET_RUN_TYPE == Bootloader_SCHEDULE_BTLDB)
 604              		.loc 1 1234 0
 605 0016 104B     		ldr	r3, .L41+4
 606 0018 1B68     		ldr	r3, [r3]
 607 001a 802B     		cmp	r3, #128
 608 001c 17D1     		bne	.L38
 609              	.LBB3:
1235:.\Generated_Source\PSoC4/Bootloader.c ****     {
1236:.\Generated_Source\PSoC4/Bootloader.c **** 
1237:.\Generated_Source\PSoC4/Bootloader.c **** 
1238:.\Generated_Source\PSoC4/Bootloader.c ****     #if (CYDEV_PROJ_TYPE != CYDEV_PROJ_TYPE_LAUNCHER)
1239:.\Generated_Source\PSoC4/Bootloader.c ****         /******************************************************************************* 
1240:.\Generated_Source\PSoC4/Bootloader.c ****         * Classic Single-app or Dual-app Bootloader use cases.
1241:.\Generated_Source\PSoC4/Bootloader.c ****         * The active application number is taken from Bootloader_activeApp not
1242:.\Generated_Source\PSoC4/Bootloader.c ****         * to break backward compatibility.
1243:.\Generated_Source\PSoC4/Bootloader.c ****         *******************************************************************************/
1244:.\Generated_Source\PSoC4/Bootloader.c ****         uint8 activeApp = Bootloader_activeApp;
 610              		.loc 1 1244 0
 611 001e FB1D     		add	r3, r7, #7
 612 0020 0022     		mov	r2, #0
 613 0022 1A70     		strb	r2, [r3]
1245:.\Generated_Source\PSoC4/Bootloader.c ****         
1246:.\Generated_Source\PSoC4/Bootloader.c ****         
1247:.\Generated_Source\PSoC4/Bootloader.c ****         /******************************************************************************* 
1248:.\Generated_Source\PSoC4/Bootloader.c ****         * Classic Dual-app Bootloader with 2 Combination projects use case.
1249:.\Generated_Source\PSoC4/Bootloader.c ****         * In this use case Classic Dual-app Bootloader is not the only one, who switches
1250:.\Generated_Source\PSoC4/Bootloader.c ****         * between applications. So if there is no valid value for Bootloader_activeApp,
1251:.\Generated_Source\PSoC4/Bootloader.c ****         * then we should additionally check the metadata if one of the Combination application
1252:.\Generated_Source\PSoC4/Bootloader.c ****         * has set a value there.
1253:.\Generated_Source\PSoC4/Bootloader.c ****         *******************************************************************************/ 
1254:.\Generated_Source\PSoC4/Bootloader.c ****         #if (CYDEV_PROJ_TYPE == CYDEV_PROJ_TYPE_MULTIAPPBOOTLOADER)
1255:.\Generated_Source\PSoC4/Bootloader.c ****         if (activeApp >= Bootloader_MD_BTLDB_ACTIVE_NONE) 
1256:.\Generated_Source\PSoC4/Bootloader.c ****         {
1257:.\Generated_Source\PSoC4/Bootloader.c ****             activeApp = Bootloader_GetActiveAppFromMetadata();
1258:.\Generated_Source\PSoC4/Bootloader.c ****         }
1259:.\Generated_Source\PSoC4/Bootloader.c ****         #endif /*(CYDEV_PROJ_TYPE == CYDEV_PROJ_TYPE_MULTIAPPBOOTLOADER)*/ 
1260:.\Generated_Source\PSoC4/Bootloader.c ****     #else 
ARM GAS  C:\Users\LUKASC~1\AppData\Local\Temp\ccn8LSRc.s 			page 34


1261:.\Generated_Source\PSoC4/Bootloader.c ****         /* Launcher use case.  The active application number is taken from metadata. */
1262:.\Generated_Source\PSoC4/Bootloader.c ****         uint8 activeApp = Bootloader_GetActiveAppFromMetadata(); 
1263:.\Generated_Source\PSoC4/Bootloader.c ****     #endif /* (CYDEV_PROJ_TYPE != CYDEV_PROJ_TYPE_LAUNCHER) */
1264:.\Generated_Source\PSoC4/Bootloader.c ****         
1265:.\Generated_Source\PSoC4/Bootloader.c ****         Bootloader_SET_RUN_TYPE(Bootloader_SCHEDULE_BTLDR_INIT_STATE);
 614              		.loc 1 1265 0
 615 0024 0C4B     		ldr	r3, .L41+4
 616 0026 0022     		mov	r2, #0
 617 0028 1A60     		str	r2, [r3]
1266:.\Generated_Source\PSoC4/Bootloader.c **** 
1267:.\Generated_Source\PSoC4/Bootloader.c ****         /*******************************************************************************
1268:.\Generated_Source\PSoC4/Bootloader.c ****         * Indicates that we have told ourselves to jump to the application because we have
1269:.\Generated_Source\PSoC4/Bootloader.c ****         * already told ourselves to jump, we do not do any expensive verification of the
1270:.\Generated_Source\PSoC4/Bootloader.c ****         * application. We just check to make sure that the value at CY_APP_ADDR_ADDRESS
1271:.\Generated_Source\PSoC4/Bootloader.c ****         * is something other than 0 and active application is valid.
1272:.\Generated_Source\PSoC4/Bootloader.c ****         *******************************************************************************/
1273:.\Generated_Source\PSoC4/Bootloader.c ****         if ((0u != Bootloader_GetMetadata(Bootloader_GET_BTLDB_ADDR, activeApp)) 
 618              		.loc 1 1273 0
 619 002a FB1D     		add	r3, r7, #7
 620 002c 1B78     		ldrb	r3, [r3]
 621 002e 0220     		mov	r0, #2
 622 0030 191C     		mov	r1, r3
 623 0032 FFF7FEFF 		bl	Bootloader_GetMetadata
 624 0036 031E     		sub	r3, r0, #0
 625 0038 09D0     		beq	.L38
1274:.\Generated_Source\PSoC4/Bootloader.c ****     #if (CYDEV_PROJ_TYPE != CYDEV_PROJ_TYPE_BOOTLOADER)
1275:.\Generated_Source\PSoC4/Bootloader.c ****             && (activeApp < Bootloader_MD_BTLDB_ACTIVE_NONE)
1276:.\Generated_Source\PSoC4/Bootloader.c ****     #endif /* (CYDEV_PROJ_TYPE != CYDEV_PROJ_TYPE_BOOTLOADER) */        
1277:.\Generated_Source\PSoC4/Bootloader.c ****             )
1278:.\Generated_Source\PSoC4/Bootloader.c ****         {
1279:.\Generated_Source\PSoC4/Bootloader.c ****             /* Never returns from this method */
1280:.\Generated_Source\PSoC4/Bootloader.c ****             Bootloader_LaunchBootloadable(Bootloader_GetMetadata(Bootloader_GET_BTLDB_ADDR,
 626              		.loc 1 1280 0
 627 003a FB1D     		add	r3, r7, #7
 628 003c 1B78     		ldrb	r3, [r3]
 629 003e 0220     		mov	r0, #2
 630 0040 191C     		mov	r1, r3
 631 0042 FFF7FEFF 		bl	Bootloader_GetMetadata
 632 0046 031C     		mov	r3, r0
 633 0048 181C     		mov	r0, r3
 634 004a FFF7FEFF 		bl	Bootloader_LaunchBootloadable
 635              	.L38:
 636              	.LBE3:
1281:.\Generated_Source\PSoC4/Bootloader.c ****                                                                              activeApp));
1282:.\Generated_Source\PSoC4/Bootloader.c ****         }
1283:.\Generated_Source\PSoC4/Bootloader.c ****     }
1284:.\Generated_Source\PSoC4/Bootloader.c **** }
 637              		.loc 1 1284 0
 638 004e BD46     		mov	sp, r7
 639 0050 02B0     		add	sp, sp, #8
 640              		@ sp needed
 641 0052 80BD     		pop	{r7, pc}
 642              	.L42:
 643              		.align	2
 644              	.L41:
 645 0054 00030B40 		.word	1074463488
 646 0058 00000000 		.word	cyBtldrRunType
ARM GAS  C:\Users\LUKASC~1\AppData\Local\Temp\ccn8LSRc.s 			page 35


 647              		.cfi_endproc
 648              	.LFE41:
 649              		.size	CyBtldr_CheckLaunch, .-CyBtldr_CheckLaunch
 650              		.section	.text.Bootloader_LaunchBootloadable,"ax",%progbits
 651              		.align	2
 652              		.code	16
 653              		.thumb_func
 654              		.type	Bootloader_LaunchBootloadable, %function
 655              	Bootloader_LaunchBootloadable:
 656              	.LFB42:
1285:.\Generated_Source\PSoC4/Bootloader.c **** 
1286:.\Generated_Source\PSoC4/Bootloader.c **** 
1287:.\Generated_Source\PSoC4/Bootloader.c **** /* Moves argument appAddr (RO) into PC, moving execution to appAddr */
1288:.\Generated_Source\PSoC4/Bootloader.c **** #if defined (__ARMCC_VERSION)
1289:.\Generated_Source\PSoC4/Bootloader.c **** 
1290:.\Generated_Source\PSoC4/Bootloader.c ****     __asm static void Bootloader_LaunchBootloadable(uint32 appAddr)
1291:.\Generated_Source\PSoC4/Bootloader.c ****     {
1292:.\Generated_Source\PSoC4/Bootloader.c ****         BX  R0
1293:.\Generated_Source\PSoC4/Bootloader.c ****         ALIGN
1294:.\Generated_Source\PSoC4/Bootloader.c ****     }
1295:.\Generated_Source\PSoC4/Bootloader.c **** 
1296:.\Generated_Source\PSoC4/Bootloader.c **** #elif defined(__GNUC__)
1297:.\Generated_Source\PSoC4/Bootloader.c **** 
1298:.\Generated_Source\PSoC4/Bootloader.c ****     __attribute__((noinline)) /* Workaround for GCC toolchain bug with inlining */
1299:.\Generated_Source\PSoC4/Bootloader.c ****     __attribute__((naked))
1300:.\Generated_Source\PSoC4/Bootloader.c ****     static void Bootloader_LaunchBootloadable(uint32 appAddr)
1301:.\Generated_Source\PSoC4/Bootloader.c ****     {
 657              		.loc 1 1301 0
 658              		.cfi_startproc
1302:.\Generated_Source\PSoC4/Bootloader.c ****         __asm volatile("    BX  R0\n");
 659              		.loc 1 1302 0
 660              	@ 1302 ".\Generated_Source\PSoC4\Bootloader.c" 1
 661 0000 0047     		    BX  R0
 662              	
 663              	@ 0 "" 2
1303:.\Generated_Source\PSoC4/Bootloader.c ****     }
 664              		.loc 1 1303 0
 665              		.code	16
 666              		.cfi_endproc
 667              	.LFE42:
 668              		.size	Bootloader_LaunchBootloadable, .-Bootloader_LaunchBootloadable
 669 0002 C046     		.section	.text.Bootloader_ValidateBootloadable,"ax",%progbits
 670              		.align	2
 671              		.global	Bootloader_ValidateBootloadable
 672              		.code	16
 673              		.thumb_func
 674              		.type	Bootloader_ValidateBootloadable, %function
 675              	Bootloader_ValidateBootloadable:
 676              	.LFB43:
1304:.\Generated_Source\PSoC4/Bootloader.c **** 
1305:.\Generated_Source\PSoC4/Bootloader.c **** #elif defined (__ICCARM__)
1306:.\Generated_Source\PSoC4/Bootloader.c **** 
1307:.\Generated_Source\PSoC4/Bootloader.c ****     static void Bootloader_LaunchBootloadable(uint32 appAddr)
1308:.\Generated_Source\PSoC4/Bootloader.c ****     {
1309:.\Generated_Source\PSoC4/Bootloader.c ****         __asm volatile("    BX  R0\n");
1310:.\Generated_Source\PSoC4/Bootloader.c ****     }
1311:.\Generated_Source\PSoC4/Bootloader.c **** 
ARM GAS  C:\Users\LUKASC~1\AppData\Local\Temp\ccn8LSRc.s 			page 36


1312:.\Generated_Source\PSoC4/Bootloader.c **** #endif  /* (__ARMCC_VERSION) */
1313:.\Generated_Source\PSoC4/Bootloader.c **** #endif /* (CYDEV_PROJ_TYPE != CYDEV_PROJ_TYPE_LOADABLEANDBOOTLOADER)*/
1314:.\Generated_Source\PSoC4/Bootloader.c **** 
1315:.\Generated_Source\PSoC4/Bootloader.c **** /*******************************************************************************
1316:.\Generated_Source\PSoC4/Bootloader.c **** * Function Name: Bootloader_ValidateBootloadable
1317:.\Generated_Source\PSoC4/Bootloader.c **** ****************************************************************************//**
1318:.\Generated_Source\PSoC4/Bootloader.c **** * \brief
1319:.\Generated_Source\PSoC4/Bootloader.c **** *  Performs the Bootloadable application validation by calculating the
1320:.\Generated_Source\PSoC4/Bootloader.c **** *  application image checksum and comparing it with the checksum value stored
1321:.\Generated_Source\PSoC4/Bootloader.c **** *  in the Bootloadable Application Checksum field of the metadata section.
1322:.\Generated_Source\PSoC4/Bootloader.c **** *
1323:.\Generated_Source\PSoC4/Bootloader.c **** *  If the "Fast bootloadable application validation" option is enabled in the
1324:.\Generated_Source\PSoC4/Bootloader.c **** *  component customizer and Bootloadable application successfully passes
1325:.\Generated_Source\PSoC4/Bootloader.c **** *  validation, the Bootloadable Application Verification Status field of the
1326:.\Generated_Source\PSoC4/Bootloader.c **** *  metadata section is updated. Refer to the "Metadata Layout" section for the
1327:.\Generated_Source\PSoC4/Bootloader.c **** *  details.
1328:.\Generated_Source\PSoC4/Bootloader.c **** *
1329:.\Generated_Source\PSoC4/Bootloader.c **** *  If the "Fast bootloadable application validation" option is enabled and
1330:.\Generated_Source\PSoC4/Bootloader.c **** *  the Bootloadable Application Verification Status field of the metadata section
1331:.\Generated_Source\PSoC4/Bootloader.c **** *  claims that the Bootloadable application is valid, the function returns
1332:.\Generated_Source\PSoC4/Bootloader.c **** *  CYRET_SUCCESS without further checksum calculation.
1333:.\Generated_Source\PSoC4/Bootloader.c **** *
1334:.\Generated_Source\PSoC4/Bootloader.c **** *  \param appId
1335:.\Generated_Source\PSoC4/Bootloader.c **** *  The number of the Bootloadable application should be 0 for the normal
1336:.\Generated_Source\PSoC4/Bootloader.c **** *  bootloader and 0 or 1 for the dual-application bootloader.
1337:.\Generated_Source\PSoC4/Bootloader.c **** *
1338:.\Generated_Source\PSoC4/Bootloader.c **** * \return
1339:.\Generated_Source\PSoC4/Bootloader.c **** *  CYRET_SUCCESS - If the specified the Bootloadable application is valid.
1340:.\Generated_Source\PSoC4/Bootloader.c **** *  CYRET_BAD_DATA is returned if the input parameter is out of the specified range
1341:.\Generated_Source\PSoC4/Bootloader.c **** *      or the calculated checksum does not match the stored checksum.
1342:.\Generated_Source\PSoC4/Bootloader.c **** *******************************************************************************/
1343:.\Generated_Source\PSoC4/Bootloader.c **** cystatus Bootloader_ValidateBootloadable(uint8 appId) CYSMALL \
1344:.\Generated_Source\PSoC4/Bootloader.c **** 
1345:.\Generated_Source\PSoC4/Bootloader.c ****     {
 677              		.loc 1 1345 0
 678              		.cfi_startproc
 679 0000 90B5     		push	{r4, r7, lr}
 680              		.cfi_def_cfa_offset 12
 681              		.cfi_offset 4, -12
 682              		.cfi_offset 7, -8
 683              		.cfi_offset 14, -4
 684 0002 87B0     		sub	sp, sp, #28
 685              		.cfi_def_cfa_offset 40
 686 0004 00AF     		add	r7, sp, #0
 687              		.cfi_def_cfa_register 7
 688 0006 021C     		mov	r2, r0
 689 0008 FB1D     		add	r3, r7, #7
 690 000a 1A70     		strb	r2, [r3]
1346:.\Generated_Source\PSoC4/Bootloader.c ****         uint32 CYDATA idx;
1347:.\Generated_Source\PSoC4/Bootloader.c **** 
1348:.\Generated_Source\PSoC4/Bootloader.c ****         uint32 CYDATA end   = Bootloader_FIRST_APP_BYTE(appId) +
 691              		.loc 1 1348 0
 692 000c FB1D     		add	r3, r7, #7
 693 000e 1B78     		ldrb	r3, [r3]
 694 0010 0320     		mov	r0, #3
 695 0012 191C     		mov	r1, r3
 696 0014 FFF7FEFF 		bl	Bootloader_GetMetadata
ARM GAS  C:\Users\LUKASC~1\AppData\Local\Temp\ccn8LSRc.s 			page 37


 697 0018 031C     		mov	r3, r0
 698 001a 0133     		add	r3, r3, #1
 699 001c DC01     		lsl	r4, r3, #7
1349:.\Generated_Source\PSoC4/Bootloader.c ****                               Bootloader_GetMetadata(Bootloader_GET_BTLDB_LENGTH, appId);
 700              		.loc 1 1349 0
 701 001e FB1D     		add	r3, r7, #7
 702 0020 1B78     		ldrb	r3, [r3]
 703 0022 0420     		mov	r0, #4
 704 0024 191C     		mov	r1, r3
 705 0026 FFF7FEFF 		bl	Bootloader_GetMetadata
 706 002a 031C     		mov	r3, r0
1348:.\Generated_Source\PSoC4/Bootloader.c ****                               Bootloader_GetMetadata(Bootloader_GET_BTLDB_LENGTH, appId);
 707              		.loc 1 1348 0
 708 002c E318     		add	r3, r4, r3
 709 002e FB60     		str	r3, [r7, #12]
1350:.\Generated_Source\PSoC4/Bootloader.c **** 
1351:.\Generated_Source\PSoC4/Bootloader.c ****         CYBIT  valid = 0u; /* Assume bad flash image */
 710              		.loc 1 1351 0
 711 0030 1323     		mov	r3, #19
 712 0032 FB18     		add	r3, r7, r3
 713 0034 0022     		mov	r2, #0
 714 0036 1A70     		strb	r2, [r3]
1352:.\Generated_Source\PSoC4/Bootloader.c ****         uint8  CYDATA calcedChecksum = 0u;
 715              		.loc 1 1352 0
 716 0038 1223     		mov	r3, #18
 717 003a FB18     		add	r3, r7, r3
 718 003c 0022     		mov	r2, #0
 719 003e 1A70     		strb	r2, [r3]
1353:.\Generated_Source\PSoC4/Bootloader.c **** 
1354:.\Generated_Source\PSoC4/Bootloader.c **** 
1355:.\Generated_Source\PSoC4/Bootloader.c ****         #if(0u != Bootloader_DUAL_APP_BOOTLOADER)
1356:.\Generated_Source\PSoC4/Bootloader.c **** 
1357:.\Generated_Source\PSoC4/Bootloader.c ****             if(appId > 1u)
1358:.\Generated_Source\PSoC4/Bootloader.c ****             {
1359:.\Generated_Source\PSoC4/Bootloader.c ****                 return(CYRET_BAD_DATA);
1360:.\Generated_Source\PSoC4/Bootloader.c ****             }
1361:.\Generated_Source\PSoC4/Bootloader.c **** 
1362:.\Generated_Source\PSoC4/Bootloader.c ****         #endif  /* (0u != Bootloader_DUAL_APP_BOOTLOADER) */
1363:.\Generated_Source\PSoC4/Bootloader.c **** 
1364:.\Generated_Source\PSoC4/Bootloader.c **** 
1365:.\Generated_Source\PSoC4/Bootloader.c ****         #if(0u != Bootloader_FAST_APP_VALIDATION)
1366:.\Generated_Source\PSoC4/Bootloader.c ****             if(Bootloader_GetMetadata(Bootloader_GET_BTLDB_STATUS, appId) ==
 720              		.loc 1 1366 0
 721 0040 FB1D     		add	r3, r7, #7
 722 0042 1B78     		ldrb	r3, [r3]
 723 0044 0620     		mov	r0, #6
 724 0046 191C     		mov	r1, r3
 725 0048 FFF7FEFF 		bl	Bootloader_GetMetadata
 726 004c 031E     		sub	r3, r0, #0
 727 004e 012B     		cmp	r3, #1
 728 0050 01D1     		bne	.L45
1367:.\Generated_Source\PSoC4/Bootloader.c ****                Bootloader_MD_BTLDB_IS_VERIFIED)
1368:.\Generated_Source\PSoC4/Bootloader.c ****             {
1369:.\Generated_Source\PSoC4/Bootloader.c ****                 return(CYRET_SUCCESS);
 729              		.loc 1 1369 0
 730 0052 0023     		mov	r3, #0
 731 0054 56E0     		b	.L46
ARM GAS  C:\Users\LUKASC~1\AppData\Local\Temp\ccn8LSRc.s 			page 38


 732              	.L45:
1370:.\Generated_Source\PSoC4/Bootloader.c ****             }
1371:.\Generated_Source\PSoC4/Bootloader.c ****         #endif  /* (0u != Bootloader_FAST_APP_VALIDATION) */
1372:.\Generated_Source\PSoC4/Bootloader.c **** 
1373:.\Generated_Source\PSoC4/Bootloader.c **** 
1374:.\Generated_Source\PSoC4/Bootloader.c ****         /* Calculate checksum of bootloadable image */
1375:.\Generated_Source\PSoC4/Bootloader.c ****         for(idx = Bootloader_FIRST_APP_BYTE(appId); idx < end; ++idx)
 733              		.loc 1 1375 0
 734 0056 FB1D     		add	r3, r7, #7
 735 0058 1B78     		ldrb	r3, [r3]
 736 005a 0320     		mov	r0, #3
 737 005c 191C     		mov	r1, r3
 738 005e FFF7FEFF 		bl	Bootloader_GetMetadata
 739 0062 031C     		mov	r3, r0
 740 0064 0133     		add	r3, r3, #1
 741 0066 DB01     		lsl	r3, r3, #7
 742 0068 7B61     		str	r3, [r7, #20]
 743 006a 1FE0     		b	.L47
 744              	.L49:
 745              	.LBB4:
1376:.\Generated_Source\PSoC4/Bootloader.c ****         {
1377:.\Generated_Source\PSoC4/Bootloader.c ****             uint8 CYDATA curByte = Bootloader_GET_CODE_BYTE(idx);
 746              		.loc 1 1377 0
 747 006c 7A69     		ldr	r2, [r7, #20]
 748 006e 0B23     		mov	r3, #11
 749 0070 FB18     		add	r3, r7, r3
 750 0072 1278     		ldrb	r2, [r2]
 751 0074 1A70     		strb	r2, [r3]
1378:.\Generated_Source\PSoC4/Bootloader.c **** 
1379:.\Generated_Source\PSoC4/Bootloader.c ****             if((curByte != 0u) && (curByte != 0xFFu))
 752              		.loc 1 1379 0
 753 0076 0B23     		mov	r3, #11
 754 0078 FB18     		add	r3, r7, r3
 755 007a 1B78     		ldrb	r3, [r3]
 756 007c 002B     		cmp	r3, #0
 757 007e 08D0     		beq	.L48
 758              		.loc 1 1379 0 is_stmt 0 discriminator 1
 759 0080 0B23     		mov	r3, #11
 760 0082 FB18     		add	r3, r7, r3
 761 0084 1B78     		ldrb	r3, [r3]
 762 0086 FF2B     		cmp	r3, #255
 763 0088 03D0     		beq	.L48
1380:.\Generated_Source\PSoC4/Bootloader.c ****             {
1381:.\Generated_Source\PSoC4/Bootloader.c ****                 valid = 1u;
 764              		.loc 1 1381 0 is_stmt 1
 765 008a 1323     		mov	r3, #19
 766 008c FB18     		add	r3, r7, r3
 767 008e 0122     		mov	r2, #1
 768 0090 1A70     		strb	r2, [r3]
 769              	.L48:
1382:.\Generated_Source\PSoC4/Bootloader.c ****             }
1383:.\Generated_Source\PSoC4/Bootloader.c **** 
1384:.\Generated_Source\PSoC4/Bootloader.c ****             calcedChecksum += curByte;
 770              		.loc 1 1384 0 discriminator 2
 771 0092 1223     		mov	r3, #18
 772 0094 FB18     		add	r3, r7, r3
 773 0096 1222     		mov	r2, #18
ARM GAS  C:\Users\LUKASC~1\AppData\Local\Temp\ccn8LSRc.s 			page 39


 774 0098 B918     		add	r1, r7, r2
 775 009a 0B22     		mov	r2, #11
 776 009c BA18     		add	r2, r7, r2
 777 009e 0978     		ldrb	r1, [r1]
 778 00a0 1278     		ldrb	r2, [r2]
 779 00a2 8A18     		add	r2, r1, r2
 780 00a4 1A70     		strb	r2, [r3]
 781              	.LBE4:
1375:.\Generated_Source\PSoC4/Bootloader.c ****         {
 782              		.loc 1 1375 0 discriminator 2
 783 00a6 7B69     		ldr	r3, [r7, #20]
 784 00a8 0133     		add	r3, r3, #1
 785 00aa 7B61     		str	r3, [r7, #20]
 786              	.L47:
1375:.\Generated_Source\PSoC4/Bootloader.c ****         {
 787              		.loc 1 1375 0 is_stmt 0 discriminator 1
 788 00ac 7A69     		ldr	r2, [r7, #20]
 789 00ae FB68     		ldr	r3, [r7, #12]
 790 00b0 9A42     		cmp	r2, r3
 791 00b2 DBD3     		bcc	.L49
1385:.\Generated_Source\PSoC4/Bootloader.c ****         }
1386:.\Generated_Source\PSoC4/Bootloader.c **** 
1387:.\Generated_Source\PSoC4/Bootloader.c **** 
1388:.\Generated_Source\PSoC4/Bootloader.c ****         /***************************************************************************
1389:.\Generated_Source\PSoC4/Bootloader.c ****         * We do not compute a checksum over the meta data section, so no need to
1390:.\Generated_Source\PSoC4/Bootloader.c ****         * subtract App Verified or App Active information here like we do when
1391:.\Generated_Source\PSoC4/Bootloader.c ****         * verifying a row.
1392:.\Generated_Source\PSoC4/Bootloader.c ****         ***************************************************************************/
1393:.\Generated_Source\PSoC4/Bootloader.c **** 
1394:.\Generated_Source\PSoC4/Bootloader.c ****         #if((!CY_PSOC4) && (CYDEV_ECC_ENABLE == 0u))
1395:.\Generated_Source\PSoC4/Bootloader.c **** 
1396:.\Generated_Source\PSoC4/Bootloader.c ****             /* Add ECC data to checksum */
1397:.\Generated_Source\PSoC4/Bootloader.c ****             idx = ((Bootloader_FIRST_APP_BYTE(appId)) >> 3u);
1398:.\Generated_Source\PSoC4/Bootloader.c **** 
1399:.\Generated_Source\PSoC4/Bootloader.c ****             /* Flash may run into meta data, so ECC does not use full row */
1400:.\Generated_Source\PSoC4/Bootloader.c ****             end = (end == (CY_FLASH_SIZE - Bootloader_MD_SIZEOF))
1401:.\Generated_Source\PSoC4/Bootloader.c ****                 ? (CY_FLASH_SIZE >> 3u)
1402:.\Generated_Source\PSoC4/Bootloader.c ****                 : (end >> 3u);
1403:.\Generated_Source\PSoC4/Bootloader.c **** 
1404:.\Generated_Source\PSoC4/Bootloader.c ****             for (; idx < end; ++idx)
1405:.\Generated_Source\PSoC4/Bootloader.c ****             {
1406:.\Generated_Source\PSoC4/Bootloader.c ****                 calcedChecksum += CY_GET_XTND_REG8((volatile uint8 *)(CYDEV_ECC_BASE + idx));
1407:.\Generated_Source\PSoC4/Bootloader.c ****             }
1408:.\Generated_Source\PSoC4/Bootloader.c **** 
1409:.\Generated_Source\PSoC4/Bootloader.c ****         #endif  /* ((!CY_PSOC4) && (CYDEV_ECC_ENABLE == 0u)) */
1410:.\Generated_Source\PSoC4/Bootloader.c **** 
1411:.\Generated_Source\PSoC4/Bootloader.c ****         calcedChecksum = ( uint8 )1u + ( uint8 )(~calcedChecksum);
 792              		.loc 1 1411 0 is_stmt 1
 793 00b4 1223     		mov	r3, #18
 794 00b6 FB18     		add	r3, r7, r3
 795 00b8 1222     		mov	r2, #18
 796 00ba BA18     		add	r2, r7, r2
 797 00bc 1278     		ldrb	r2, [r2]
 798 00be 5242     		neg	r2, r2
 799 00c0 1A70     		strb	r2, [r3]
1412:.\Generated_Source\PSoC4/Bootloader.c **** 
1413:.\Generated_Source\PSoC4/Bootloader.c ****         if((calcedChecksum != Bootloader_GetMetadata(Bootloader_GET_BTLDB_CHECKSUM, appId)) ||
ARM GAS  C:\Users\LUKASC~1\AppData\Local\Temp\ccn8LSRc.s 			page 40


 800              		.loc 1 1413 0
 801 00c2 1223     		mov	r3, #18
 802 00c4 FB18     		add	r3, r7, r3
 803 00c6 1C78     		ldrb	r4, [r3]
 804 00c8 FB1D     		add	r3, r7, #7
 805 00ca 1B78     		ldrb	r3, [r3]
 806 00cc 0120     		mov	r0, #1
 807 00ce 191C     		mov	r1, r3
 808 00d0 FFF7FEFF 		bl	Bootloader_GetMetadata
 809 00d4 031C     		mov	r3, r0
 810 00d6 9C42     		cmp	r4, r3
 811 00d8 04D1     		bne	.L50
 812              		.loc 1 1413 0 is_stmt 0 discriminator 1
 813 00da 1323     		mov	r3, #19
 814 00dc FB18     		add	r3, r7, r3
 815 00de 1B78     		ldrb	r3, [r3]
 816 00e0 002B     		cmp	r3, #0
 817 00e2 01D1     		bne	.L51
 818              	.L50:
1414:.\Generated_Source\PSoC4/Bootloader.c ****            (0u == valid))
1415:.\Generated_Source\PSoC4/Bootloader.c ****         {
1416:.\Generated_Source\PSoC4/Bootloader.c ****             return(CYRET_BAD_DATA);
 819              		.loc 1 1416 0 is_stmt 1
 820 00e4 0623     		mov	r3, #6
 821 00e6 0DE0     		b	.L46
 822              	.L51:
1417:.\Generated_Source\PSoC4/Bootloader.c ****         }
1418:.\Generated_Source\PSoC4/Bootloader.c **** 
1419:.\Generated_Source\PSoC4/Bootloader.c **** 
1420:.\Generated_Source\PSoC4/Bootloader.c ****         #if(0u != Bootloader_FAST_APP_VALIDATION)
1421:.\Generated_Source\PSoC4/Bootloader.c ****             Bootloader_SetFlashByte((uint32) Bootloader_MD_BTLDB_VERIFIED_OFFSET(appId),
 823              		.loc 1 1421 0
 824 00e8 FB1D     		add	r3, r7, #7
 825 00ea 1A78     		ldrb	r2, [r3]
 826 00ec 131C     		mov	r3, r2
 827 00ee 5B06     		lsl	r3, r3, #25
 828 00f0 9B1A     		sub	r3, r3, r2
 829 00f2 DB01     		lsl	r3, r3, #7
 830 00f4 054A     		ldr	r2, .L52
 831 00f6 9446     		mov	ip, r2
 832 00f8 6344     		add	r3, r3, ip
 833 00fa 181C     		mov	r0, r3
 834 00fc 0121     		mov	r1, #1
 835 00fe FFF7FEFF 		bl	Bootloader_SetFlashByte
1422:.\Generated_Source\PSoC4/Bootloader.c ****                                           Bootloader_MD_BTLDB_IS_VERIFIED);
1423:.\Generated_Source\PSoC4/Bootloader.c ****         #endif  /* (0u != Bootloader_FAST_APP_VALIDATION) */
1424:.\Generated_Source\PSoC4/Bootloader.c **** 
1425:.\Generated_Source\PSoC4/Bootloader.c **** 
1426:.\Generated_Source\PSoC4/Bootloader.c ****         return(CYRET_SUCCESS);
 836              		.loc 1 1426 0
 837 0102 0023     		mov	r3, #0
 838              	.L46:
1427:.\Generated_Source\PSoC4/Bootloader.c **** }
 839              		.loc 1 1427 0
 840 0104 181C     		mov	r0, r3
 841 0106 BD46     		mov	sp, r7
 842 0108 07B0     		add	sp, sp, #28
ARM GAS  C:\Users\LUKASC~1\AppData\Local\Temp\ccn8LSRc.s 			page 41


 843              		@ sp needed
 844 010a 90BD     		pop	{r4, r7, pc}
 845              	.L53:
 846              		.align	2
 847              	.L52:
 848 010c D17F0000 		.word	32721
 849              		.cfi_endproc
 850              	.LFE43:
 851              		.size	Bootloader_ValidateBootloadable, .-Bootloader_ValidateBootloadable
 852              		.section	.rodata
 853              		.align	2
 854              	.LC0:
 855 0000 9311C804 		.word	80220563
 856 0004 11       		.byte	17
 857 0005 32       		.byte	50
 858 0006 01       		.byte	1
 859 0007 01       		.byte	1
 860              		.section	.text.Bootloader_HostLink,"ax",%progbits
 861              		.align	2
 862              		.code	16
 863              		.thumb_func
 864              		.type	Bootloader_HostLink, %function
 865              	Bootloader_HostLink:
 866              	.LFB44:
1428:.\Generated_Source\PSoC4/Bootloader.c **** 
1429:.\Generated_Source\PSoC4/Bootloader.c **** #if (((0u != Bootloader_DUAL_APP_BOOTLOADER) && (CYDEV_PROJ_TYPE != CYDEV_PROJ_TYPE_LAUNCHER)) \
1430:.\Generated_Source\PSoC4/Bootloader.c ****                                           || (CYDEV_PROJ_TYPE == CYDEV_PROJ_TYPE_LOADABLEANDBOOTLOA
1431:.\Generated_Source\PSoC4/Bootloader.c **** /*******************************************************************************
1432:.\Generated_Source\PSoC4/Bootloader.c **** * Function Name: Bootloader_CheckImage
1433:.\Generated_Source\PSoC4/Bootloader.c **** ********************************************************************************
1434:.\Generated_Source\PSoC4/Bootloader.c **** * \internal
1435:.\Generated_Source\PSoC4/Bootloader.c **** *
1436:.\Generated_Source\PSoC4/Bootloader.c **** * \brief 
1437:.\Generated_Source\PSoC4/Bootloader.c **** *   This API checks if there is a permission to write to a certain image.
1438:.\Generated_Source\PSoC4/Bootloader.c **** *   It is used to check the active application as well as to check the Golden image.
1439:.\Generated_Source\PSoC4/Bootloader.c **** *
1440:.\Generated_Source\PSoC4/Bootloader.c **** * \param 
1441:.\Generated_Source\PSoC4/Bootloader.c **** *   appNumber - The application number.
1442:.\Generated_Source\PSoC4/Bootloader.c **** * \param 
1443:.\Generated_Source\PSoC4/Bootloader.c **** *   arrayNumber - The number of the flash page to write to.
1444:.\Generated_Source\PSoC4/Bootloader.c **** * \param 
1445:.\Generated_Source\PSoC4/Bootloader.c **** *   row - The row number to write to the flash.
1446:.\Generated_Source\PSoC4/Bootloader.c **** * \param 
1447:.\Generated_Source\PSoC4/Bootloader.c **** *   rowNumInArray - The row number inside the array.
1448:.\Generated_Source\PSoC4/Bootloader.c **** *
1449:.\Generated_Source\PSoC4/Bootloader.c **** * \return 
1450:.\Generated_Source\PSoC4/Bootloader.c **** *   CYRET_SUCCESS - Writing to a specified image is permitted.
1451:.\Generated_Source\PSoC4/Bootloader.c **** *   Bootloader_ERR_ACTIVE - Writing to this image is NOT permitted
1452:.\Generated_Source\PSoC4/Bootloader.c **** *   because the specified image is active or Golden.
1453:.\Generated_Source\PSoC4/Bootloader.c **** *
1454:.\Generated_Source\PSoC4/Bootloader.c **** * \endinternal
1455:.\Generated_Source\PSoC4/Bootloader.c **** *******************************************************************************/
1456:.\Generated_Source\PSoC4/Bootloader.c **** static uint8 Bootloader_CheckImage(uint8 appNumber, uint8 arrayNumber, uint16 row, uint16 rowNumInA
1457:.\Generated_Source\PSoC4/Bootloader.c ****                                          
1458:.\Generated_Source\PSoC4/Bootloader.c **** {
1459:.\Generated_Source\PSoC4/Bootloader.c ****     uint16 CYDATA firstRow = 0xFFFFu;
1460:.\Generated_Source\PSoC4/Bootloader.c ****     uint16 CYDATA lastRow = 0xFFFFu;
ARM GAS  C:\Users\LUKASC~1\AppData\Local\Temp\ccn8LSRc.s 			page 42


1461:.\Generated_Source\PSoC4/Bootloader.c ****     uint8 CYDATA ackCode = CYRET_SUCCESS;
1462:.\Generated_Source\PSoC4/Bootloader.c **** 
1463:.\Generated_Source\PSoC4/Bootloader.c ****     if (appNumber < Bootloader_MAX_NUM_OF_BTLDB)
1464:.\Generated_Source\PSoC4/Bootloader.c ****     {    
1465:.\Generated_Source\PSoC4/Bootloader.c ****         /*******************************************************************************
1466:.\Generated_Source\PSoC4/Bootloader.c ****         * For the first Bootloadable application - gets the last flash row occupied by
1467:.\Generated_Source\PSoC4/Bootloader.c ****         * the Bootloader application image:
1468:.\Generated_Source\PSoC4/Bootloader.c ****         *  ---------------------------------------------------------------------------
1469:.\Generated_Source\PSoC4/Bootloader.c ****         * | Bootloader   | Bootloadable # 1 |     | Bootloadable # 2 |     | M2 | M1 |
1470:.\Generated_Source\PSoC4/Bootloader.c ****         *  ---------------------------------------------------------------------------
1471:.\Generated_Source\PSoC4/Bootloader.c ****         * |<--firstRow---|>
1472:.\Generated_Source\PSoC4/Bootloader.c ****         *
1473:.\Generated_Source\PSoC4/Bootloader.c ****         * For the second Bootloadable application - gets the last flash row occupied by
1474:.\Generated_Source\PSoC4/Bootloader.c ****         * the first Bootloadable application:
1475:.\Generated_Source\PSoC4/Bootloader.c ****         *  ---------------------------------------------------------------------------
1476:.\Generated_Source\PSoC4/Bootloader.c ****         * | Bootloader   | Bootloadable # 1 |     | Bootloadable # 2 |     | M2 | M1 |
1477:.\Generated_Source\PSoC4/Bootloader.c ****         *  ---------------------------------------------------------------------------
1478:.\Generated_Source\PSoC4/Bootloader.c ****         * |<-------------firstRow-----------------|>
1479:.\Generated_Source\PSoC4/Bootloader.c ****         *
1480:.\Generated_Source\PSoC4/Bootloader.c ****         * Incremented by 1 to get the first available row.
1481:.\Generated_Source\PSoC4/Bootloader.c ****         *
1482:.\Generated_Source\PSoC4/Bootloader.c ****         * NOTE M1 and M2 stand for metadata # 1 and metadata # 2, metadata 
1483:.\Generated_Source\PSoC4/Bootloader.c ****         * sections for the 1st and 2nd Bootloadable applications.
1484:.\Generated_Source\PSoC4/Bootloader.c ****         *******************************************************************************/
1485:.\Generated_Source\PSoC4/Bootloader.c ****         firstRow = (uint16) 1u +
1486:.\Generated_Source\PSoC4/Bootloader.c ****             (uint16) Bootloader_GetMetadata(Bootloader_GET_BTLDR_LAST_ROW,  appNumber);
1487:.\Generated_Source\PSoC4/Bootloader.c **** 
1488:.\Generated_Source\PSoC4/Bootloader.c ****     
1489:.\Generated_Source\PSoC4/Bootloader.c ****     /***********************************************************************************
1490:.\Generated_Source\PSoC4/Bootloader.c ****     * If this is the Upgradable Stack use case, then Stack application and User application
1491:.\Generated_Source\PSoC4/Bootloader.c ****     * do not occupy the half of flash each, as the other applications do for Classic Dual-app 
1492:.\Generated_Source\PSoC4/Bootloader.c ****     * and the general Launcher-Combination use cases. Another approach for calculation 
1493:.\Generated_Source\PSoC4/Bootloader.c ****     * lastRow is used for the Upgradable Stack use case. See Bootloader datasheet for more 
1494:.\Generated_Source\PSoC4/Bootloader.c ****     * details (use cases description).
1495:.\Generated_Source\PSoC4/Bootloader.c ****     ***********************************************************************************/
1496:.\Generated_Source\PSoC4/Bootloader.c **** 
1497:.\Generated_Source\PSoC4/Bootloader.c ****     
1498:.\Generated_Source\PSoC4/Bootloader.c ****     #if ((CYDEV_PROJ_TYPE == CYDEV_PROJ_TYPE_LOADABLEANDBOOTLOADER) && \
1499:.\Generated_Source\PSoC4/Bootloader.c ****          (0u != Bootloader_IS_STACK_APPLICATION))
1500:.\Generated_Source\PSoC4/Bootloader.c ****         /*******************************************************************************
1501:.\Generated_Source\PSoC4/Bootloader.c ****         * The Upgradable Stack application case implies that only this application can 
1502:.\Generated_Source\PSoC4/Bootloader.c ****         * perform a bootloading operation (the other one can't). So a verification 
1503:.\Generated_Source\PSoC4/Bootloader.c ****         * will be run to check if the Stack application is not overwritten. 
1504:.\Generated_Source\PSoC4/Bootloader.c ****         *
1505:.\Generated_Source\PSoC4/Bootloader.c ****         * The Stack application is defined as the first application.
1506:.\Generated_Source\PSoC4/Bootloader.c ****           * The User application is defined as the second application.
1507:.\Generated_Source\PSoC4/Bootloader.c ****         *
1508:.\Generated_Source\PSoC4/Bootloader.c ****         * This check is intended for the case when the Stack application is active
1509:.\Generated_Source\PSoC4/Bootloader.c ****         * and performs bootloading for the User application:
1510:.\Generated_Source\PSoC4/Bootloader.c ****         *  ---------------------------------------------------------------------------
1511:.\Generated_Source\PSoC4/Bootloader.c ****         * |   Launcher   |       Stack     |           User app            | M2 | M1 |
1512:.\Generated_Source\PSoC4/Bootloader.c ****         *  ---------------------------------------------------------------------------
1513:.\Generated_Source\PSoC4/Bootloader.c ****         *                |<-------------------lastRow -------------------->|
1514:.\Generated_Source\PSoC4/Bootloader.c ****         *******************************************************************************/
1515:.\Generated_Source\PSoC4/Bootloader.c ****         lastRow = (uint16) Bootloader_GetMetadata(Bootloader_GET_BTLDR_LAST_ROW,
1516:.\Generated_Source\PSoC4/Bootloader.c ****                                                         Bootloader_USER_APPLICATION);    
1517:.\Generated_Source\PSoC4/Bootloader.c ****     
ARM GAS  C:\Users\LUKASC~1\AppData\Local\Temp\ccn8LSRc.s 			page 43


1518:.\Generated_Source\PSoC4/Bootloader.c ****     #else /* Classic Dual-app and the general Launcher-Combination use cases */    
1519:.\Generated_Source\PSoC4/Bootloader.c ****         /*******************************************************************************
1520:.\Generated_Source\PSoC4/Bootloader.c ****         * The number of flash rows available for both Bootloadable applications:
1521:.\Generated_Source\PSoC4/Bootloader.c ****         *
1522:.\Generated_Source\PSoC4/Bootloader.c ****         * The first Bootloadable application is active:
1523:.\Generated_Source\PSoC4/Bootloader.c ****         *  ---------------------------------------------------------------------------
1524:.\Generated_Source\PSoC4/Bootloader.c ****         * | Bootloader   | Bootloadable # 1 |     | Bootloadable # 2 |     | M2 | M1 |
1525:.\Generated_Source\PSoC4/Bootloader.c ****         *  ---------------------------------------------------------------------------
1526:.\Generated_Source\PSoC4/Bootloader.c ****         *                |<-------------------lastRow -------------------->|
1527:.\Generated_Source\PSoC4/Bootloader.c ****         *
1528:.\Generated_Source\PSoC4/Bootloader.c ****         * The second Bootloadable application is active:
1529:.\Generated_Source\PSoC4/Bootloader.c ****         *  ---------------------------------------------------------------------------
1530:.\Generated_Source\PSoC4/Bootloader.c ****         * | Bootloader   | Bootloadable # 1 |     | Bootloadable # 2 |     | M2 | M1 |
1531:.\Generated_Source\PSoC4/Bootloader.c ****         *  ---------------------------------------------------------------------------
1532:.\Generated_Source\PSoC4/Bootloader.c ****         *                                         |<-------lastRow-------->|
1533:.\Generated_Source\PSoC4/Bootloader.c ****         *******************************************************************************/
1534:.\Generated_Source\PSoC4/Bootloader.c ****         lastRow = (uint16)(CY_FLASH_NUMBER_ROWS - Bootloader_NUMBER_OF_METADATA_ROWS - firstRow);
1535:.\Generated_Source\PSoC4/Bootloader.c **** 
1536:.\Generated_Source\PSoC4/Bootloader.c ****         /*******************************************************************************
1537:.\Generated_Source\PSoC4/Bootloader.c ****         * The number of flash rows available for the active Bootloadable application:
1538:.\Generated_Source\PSoC4/Bootloader.c ****         *
1539:.\Generated_Source\PSoC4/Bootloader.c ****         * The first Bootloadable application is active: the number of flash rows available
1540:.\Generated_Source\PSoC4/Bootloader.c ****         * for both Bootloadable applications should be divided by 2, meaning 2 
1541:.\Generated_Source\PSoC4/Bootloader.c ****         * Bootloadable applications should fit there.
1542:.\Generated_Source\PSoC4/Bootloader.c ****         *
1543:.\Generated_Source\PSoC4/Bootloader.c ****         * The second Bootloadable application is active: the number of flash rows available
1544:.\Generated_Source\PSoC4/Bootloader.c ****         * for both Bootloadable applications should be divided by 1, meaning 1 
1545:.\Generated_Source\PSoC4/Bootloader.c ****         * Bootloadable application should fit there.
1546:.\Generated_Source\PSoC4/Bootloader.c ****         *******************************************************************************/
1547:.\Generated_Source\PSoC4/Bootloader.c ****         lastRow = (uint16)(lastRow / (uint8)(Bootloader_NUMBER_OF_BTLDBLE_APPS - appNumber));
1548:.\Generated_Source\PSoC4/Bootloader.c **** 
1549:.\Generated_Source\PSoC4/Bootloader.c ****         /*******************************************************************************
1550:.\Generated_Source\PSoC4/Bootloader.c ****         * The last row equals the first row plus the number of rows available for
1551:.\Generated_Source\PSoC4/Bootloader.c ****         * each Bootloadable application. That gives the flash row number right
1552:.\Generated_Source\PSoC4/Bootloader.c ****         * beyond the valid range, so we subtract 1.
1553:.\Generated_Source\PSoC4/Bootloader.c ****         *
1554:.\Generated_Source\PSoC4/Bootloader.c ****         * The first Bootloadable application is active:
1555:.\Generated_Source\PSoC4/Bootloader.c ****         *  ---------------------------------------------------------------------------
1556:.\Generated_Source\PSoC4/Bootloader.c ****         * | Bootloader   | Bootloadable # 1 |     | Bootloadable # 2 |     | M2 | M1 |
1557:.\Generated_Source\PSoC4/Bootloader.c ****         *  ---------------------------------------------------------------------------
1558:.\Generated_Source\PSoC4/Bootloader.c ****         * |<----------------lastRow ------------->|
1559:.\Generated_Source\PSoC4/Bootloader.c ****         *
1560:.\Generated_Source\PSoC4/Bootloader.c ****         * The second Bootloadable application is active:
1561:.\Generated_Source\PSoC4/Bootloader.c ****         *  ---------------------------------------------------------------------------
1562:.\Generated_Source\PSoC4/Bootloader.c ****         * | Bootloader   | Bootloadable # 1 |     | Bootloadable # 2 |     | M2 | M1 |
1563:.\Generated_Source\PSoC4/Bootloader.c ****         *  ---------------------------------------------------------------------------
1564:.\Generated_Source\PSoC4/Bootloader.c ****         * |<-----------------------------lastRow-------------------------->|
1565:.\Generated_Source\PSoC4/Bootloader.c ****         *******************************************************************************/
1566:.\Generated_Source\PSoC4/Bootloader.c ****         lastRow = (firstRow + lastRow) - 1u;
1567:.\Generated_Source\PSoC4/Bootloader.c ****     #endif /*(0u == Bootloader_IS_STACK_APPLICATION)*/    
1568:.\Generated_Source\PSoC4/Bootloader.c **** 
1569:.\Generated_Source\PSoC4/Bootloader.c ****         /*******************************************************************************
1570:.\Generated_Source\PSoC4/Bootloader.c ****         * 1. Refuses to write a row within the range of the active application.
1571:.\Generated_Source\PSoC4/Bootloader.c ****         *
1572:.\Generated_Source\PSoC4/Bootloader.c ****         *  The first Bootloadable application is active:
1573:.\Generated_Source\PSoC4/Bootloader.c ****         *   ---------------------------------------------------------------------------
1574:.\Generated_Source\PSoC4/Bootloader.c ****         *  | Bootloader   | Bootloadable # 1 |     | Bootloadable # 2 |     | M2 | M1 |
ARM GAS  C:\Users\LUKASC~1\AppData\Local\Temp\ccn8LSRc.s 			page 44


1575:.\Generated_Source\PSoC4/Bootloader.c ****         *   ---------------------------------------------------------------------------
1576:.\Generated_Source\PSoC4/Bootloader.c ****         *  |<----------------lastRow ------------->|
1577:.\Generated_Source\PSoC4/Bootloader.c ****         *  |<--firstRow---|>
1578:.\Generated_Source\PSoC4/Bootloader.c ****         *                 |<-------protected------>|
1579:.\Generated_Source\PSoC4/Bootloader.c ****         *
1580:.\Generated_Source\PSoC4/Bootloader.c ****         *  the second Bootloadable application is active:
1581:.\Generated_Source\PSoC4/Bootloader.c ****         *   ---------------------------------------------------------------------------
1582:.\Generated_Source\PSoC4/Bootloader.c ****         *  | Bootloader   | Bootloadable # 1 |     | Bootloadable # 2 |     | M2 | M1 |
1583:.\Generated_Source\PSoC4/Bootloader.c ****         *   ---------------------------------------------------------------------------
1584:.\Generated_Source\PSoC4/Bootloader.c ****         *  |<-------------firstRow-----------------|>
1585:.\Generated_Source\PSoC4/Bootloader.c ****         *  |<-----------------------------lastRow-------------------------->|
1586:.\Generated_Source\PSoC4/Bootloader.c ****         *                                          |<-------protected------>|
1587:.\Generated_Source\PSoC4/Bootloader.c ****         *
1588:.\Generated_Source\PSoC4/Bootloader.c ****         * 2. Refuses to write to the row that contains metadata of the active
1589:.\Generated_Source\PSoC4/Bootloader.c ****         *    Bootloadable application.
1590:.\Generated_Source\PSoC4/Bootloader.c ****         *
1591:.\Generated_Source\PSoC4/Bootloader.c ****         *******************************************************************************/
1592:.\Generated_Source\PSoC4/Bootloader.c ****         if (((row >= firstRow) && (row <= lastRow)) || ((arrayNumber == Bootloader_MD_FLASH_ARRAY_N
1593:.\Generated_Source\PSoC4/Bootloader.c ****             (rowNumInArray == Bootloader_MD_ROW_NUM(appNumber))))
1594:.\Generated_Source\PSoC4/Bootloader.c ****         {
1595:.\Generated_Source\PSoC4/Bootloader.c ****             ackCode = Bootloader_ERR_ACTIVE;
1596:.\Generated_Source\PSoC4/Bootloader.c ****         }
1597:.\Generated_Source\PSoC4/Bootloader.c ****     }
1598:.\Generated_Source\PSoC4/Bootloader.c ****     else /*(appNumber < Bootloader_MAX_NUM_OF_BTLDB)*/
1599:.\Generated_Source\PSoC4/Bootloader.c ****     {
1600:.\Generated_Source\PSoC4/Bootloader.c ****         ackCode = Bootloader_ERR_ACTIVE;
1601:.\Generated_Source\PSoC4/Bootloader.c ****     }
1602:.\Generated_Source\PSoC4/Bootloader.c ****     
1603:.\Generated_Source\PSoC4/Bootloader.c ****     return ackCode;
1604:.\Generated_Source\PSoC4/Bootloader.c **** }
1605:.\Generated_Source\PSoC4/Bootloader.c **** #endif  /* (0u != Bootloader_DUAL_APP_BOOTLOADER) || \
1606:.\Generated_Source\PSoC4/Bootloader.c ****            (CYDEV_PROJ_TYPE == CYDEV_PROJ_TYPE_LOADABLEANDBOOTLOADER) */
1607:.\Generated_Source\PSoC4/Bootloader.c **** 
1608:.\Generated_Source\PSoC4/Bootloader.c **** #if (CYDEV_PROJ_TYPE != CYDEV_PROJ_TYPE_LAUNCHER)
1609:.\Generated_Source\PSoC4/Bootloader.c **** /*******************************************************************************
1610:.\Generated_Source\PSoC4/Bootloader.c **** * Function Name: Bootloader_HostLink
1611:.\Generated_Source\PSoC4/Bootloader.c **** ****************************************************************************//**
1612:.\Generated_Source\PSoC4/Bootloader.c **** *
1613:.\Generated_Source\PSoC4/Bootloader.c **** * \brief
1614:.\Generated_Source\PSoC4/Bootloader.c **** *  Causes the Bootloader to attempt to read data being transmitted by the
1615:.\Generated_Source\PSoC4/Bootloader.c **** *  host application.  If data is sent from the host, this establishes the
1616:.\Generated_Source\PSoC4/Bootloader.c **** *  communication interface to process all requests.
1617:.\Generated_Source\PSoC4/Bootloader.c **** *
1618:.\Generated_Source\PSoC4/Bootloader.c **** * \param
1619:.\Generated_Source\PSoC4/Bootloader.c **** *  timeOut:
1620:.\Generated_Source\PSoC4/Bootloader.c **** *   The amount of time to listen for data before giving up. The timeout is
1621:.\Generated_Source\PSoC4/Bootloader.c **** *   measured in 10s of ms.  Use 0 for an infinite wait.
1622:.\Generated_Source\PSoC4/Bootloader.c **** * 
1623:.\Generated_Source\PSoC4/Bootloader.c **** * \details
1624:.\Generated_Source\PSoC4/Bootloader.c **** *  This function is public only for Launcher-Combination architecture. For 
1625:.\Generated_Source\PSoC4/Bootloader.c **** *  Classic Bootloader it is static, meaning private. 
1626:.\Generated_Source\PSoC4/Bootloader.c **** *******************************************************************************/
1627:.\Generated_Source\PSoC4/Bootloader.c **** #if (CYDEV_PROJ_TYPE != CYDEV_PROJ_TYPE_LOADABLEANDBOOTLOADER)
1628:.\Generated_Source\PSoC4/Bootloader.c **** static void Bootloader_HostLink(uint8 timeOut) CYLARGE 
1629:.\Generated_Source\PSoC4/Bootloader.c ****                    
1630:.\Generated_Source\PSoC4/Bootloader.c **** #else
1631:.\Generated_Source\PSoC4/Bootloader.c **** void Bootloader_HostLink(uint8 timeOut) CYLARGE 
ARM GAS  C:\Users\LUKASC~1\AppData\Local\Temp\ccn8LSRc.s 			page 45


1632:.\Generated_Source\PSoC4/Bootloader.c ****                    
1633:.\Generated_Source\PSoC4/Bootloader.c **** #endif /*(CYDEV_PROJ_TYPE != CYDEV_PROJ_TYPE_LOADABLEANDBOOTLOADER)*/    
1634:.\Generated_Source\PSoC4/Bootloader.c **** {
 867              		.loc 1 1634 0
 868              		.cfi_startproc
 869 0000 90B5     		push	{r4, r7, lr}
 870              		.cfi_def_cfa_offset 12
 871              		.cfi_offset 4, -12
 872              		.cfi_offset 7, -8
 873              		.cfi_offset 14, -4
 874 0002 DC4C     		ldr	r4, .L123
 875 0004 A544     		add	sp, sp, r4
 876              		.cfi_def_cfa_offset 840
 877 0006 00AF     		add	r7, sp, #0
 878              		.cfi_def_cfa_register 7
 879 0008 021C     		mov	r2, r0
 880 000a DB4B     		ldr	r3, .L123+4
 881 000c CE21     		mov	r1, #206
 882 000e 8900     		lsl	r1, r1, #2
 883 0010 8C46     		mov	ip, r1
 884 0012 BC44     		add	ip, ip, r7
 885 0014 6344     		add	r3, r3, ip
 886 0016 1A70     		strb	r2, [r3]
1635:.\Generated_Source\PSoC4/Bootloader.c ****     uint16    CYDATA numberRead;
1636:.\Generated_Source\PSoC4/Bootloader.c ****     uint16    CYDATA rspSize;
1637:.\Generated_Source\PSoC4/Bootloader.c ****     uint8     CYDATA ackCode;
1638:.\Generated_Source\PSoC4/Bootloader.c ****     uint16    CYDATA pktChecksum;
1639:.\Generated_Source\PSoC4/Bootloader.c ****     cystatus  CYDATA readStat;
1640:.\Generated_Source\PSoC4/Bootloader.c ****     uint16    CYDATA pktSize    = 0u;
 887              		.loc 1 1640 0
 888 0018 D84B     		ldr	r3, .L123+8
 889 001a FB18     		add	r3, r7, r3
 890 001c 0022     		mov	r2, #0
 891 001e 1A80     		strh	r2, [r3]
1641:.\Generated_Source\PSoC4/Bootloader.c ****     uint8     CYDATA timeOutCnt = 10u;
 892              		.loc 1 1641 0
 893 0020 D74B     		ldr	r3, .L123+12
 894 0022 FB18     		add	r3, r7, r3
 895 0024 0A22     		mov	r2, #10
 896 0026 1A70     		strb	r2, [r3]
1642:.\Generated_Source\PSoC4/Bootloader.c **** 
1643:.\Generated_Source\PSoC4/Bootloader.c ****     #if(0u != Bootloader_FAST_APP_VALIDATION)
1644:.\Generated_Source\PSoC4/Bootloader.c ****         uint8 CYDATA clearedMetaData = 0u;
 897              		.loc 1 1644 0
 898 0028 CC23     		mov	r3, #204
 899 002a 9B00     		lsl	r3, r3, #2
 900 002c FB18     		add	r3, r7, r3
 901 002e 0022     		mov	r2, #0
 902 0030 1A70     		strb	r2, [r3]
1645:.\Generated_Source\PSoC4/Bootloader.c ****     #endif  /* (0u != Bootloader_FAST_APP_VALIDATION) */
1646:.\Generated_Source\PSoC4/Bootloader.c **** 
1647:.\Generated_Source\PSoC4/Bootloader.c **** #if (CYDEV_PROJ_TYPE == CYDEV_PROJ_TYPE_LOADABLEANDBOOTLOADER)
1648:.\Generated_Source\PSoC4/Bootloader.c ****     static  CYBIT communicationState = Bootloader_COMMUNICATION_STATE_IDLE; 
1649:.\Generated_Source\PSoC4/Bootloader.c ****     static uint16 CYDATA dataOffset = 0u; 
1650:.\Generated_Source\PSoC4/Bootloader.c ****     uint16  CYDATA btldrLastRow = 0xFFFFu;
1651:.\Generated_Source\PSoC4/Bootloader.c ****     uint8 needToCopyFlag = 0u;
1652:.\Generated_Source\PSoC4/Bootloader.c ****     uint32 app2StartAddress = Bootloader_GetMetadata(Bootloader_GET_BTLDB_ADDR, 
ARM GAS  C:\Users\LUKASC~1\AppData\Local\Temp\ccn8LSRc.s 			page 46


1653:.\Generated_Source\PSoC4/Bootloader.c ****                               Bootloader_MD_BTLDB_ACTIVE_1);
1654:.\Generated_Source\PSoC4/Bootloader.c **** #else
1655:.\Generated_Source\PSoC4/Bootloader.c ****     CYBIT     communicationState = Bootloader_COMMUNICATION_STATE_IDLE;
 903              		.loc 1 1655 0
 904 0032 D44B     		ldr	r3, .L123+16
 905 0034 FB18     		add	r3, r7, r3
 906 0036 0022     		mov	r2, #0
 907 0038 1A70     		strb	r2, [r3]
1656:.\Generated_Source\PSoC4/Bootloader.c ****     uint16 CYDATA dataOffset = 0u; 
 908              		.loc 1 1656 0
 909 003a CB23     		mov	r3, #203
 910 003c 9B00     		lsl	r3, r3, #2
 911 003e FB18     		add	r3, r7, r3
 912 0040 0022     		mov	r2, #0
 913 0042 1A80     		strh	r2, [r3]
1657:.\Generated_Source\PSoC4/Bootloader.c **** #endif /*CYDEV_PROJ_TYPE == CYDEV_PROJ_TYPE_LOADABLEANDBOOTLOADER*/
1658:.\Generated_Source\PSoC4/Bootloader.c **** 
1659:.\Generated_Source\PSoC4/Bootloader.c ****     uint8     packetBuffer[Bootloader_SIZEOF_COMMAND_BUFFER];
1660:.\Generated_Source\PSoC4/Bootloader.c ****     uint8     dataBuffer  [Bootloader_SIZEOF_COMMAND_BUFFER];
1661:.\Generated_Source\PSoC4/Bootloader.c **** 
1662:.\Generated_Source\PSoC4/Bootloader.c **** 
1663:.\Generated_Source\PSoC4/Bootloader.c ****     #if(!CY_PSOC4)
1664:.\Generated_Source\PSoC4/Bootloader.c ****         #if(0u == Bootloader_FAST_APP_VALIDATION)
1665:.\Generated_Source\PSoC4/Bootloader.c ****             #if !defined(CY_BOOT_VERSION)
1666:.\Generated_Source\PSoC4/Bootloader.c **** 
1667:.\Generated_Source\PSoC4/Bootloader.c ****                 /* Not required with cy_boot 4.20 */
1668:.\Generated_Source\PSoC4/Bootloader.c ****                 uint8 CYXDATA Bootloader_flashBuffer[Bootloader_FROW_SIZE];
1669:.\Generated_Source\PSoC4/Bootloader.c **** 
1670:.\Generated_Source\PSoC4/Bootloader.c ****             #endif /* !defined(CY_BOOT_VERSION) */
1671:.\Generated_Source\PSoC4/Bootloader.c ****         #endif  /* (0u == Bootloader_FAST_APP_VALIDATION) */
1672:.\Generated_Source\PSoC4/Bootloader.c ****     #endif  /* (CY_PSOC4) */
1673:.\Generated_Source\PSoC4/Bootloader.c **** 
1674:.\Generated_Source\PSoC4/Bootloader.c **** 
1675:.\Generated_Source\PSoC4/Bootloader.c **** 
1676:.\Generated_Source\PSoC4/Bootloader.c ****     #if(!CY_PSOC4)
1677:.\Generated_Source\PSoC4/Bootloader.c ****         #if((0u == Bootloader_FAST_APP_VALIDATION) || \
1678:.\Generated_Source\PSoC4/Bootloader.c ****             (CYDEV_PROJ_TYPE == CYDEV_PROJ_TYPE_LOADABLEANDBOOTLOADER))
1679:.\Generated_Source\PSoC4/Bootloader.c **** 
1680:.\Generated_Source\PSoC4/Bootloader.c ****             /* Initialize flash subsystem for non-PSoC 4 devices */
1681:.\Generated_Source\PSoC4/Bootloader.c ****             if (CYRET_SUCCESS != CySetTemp())
1682:.\Generated_Source\PSoC4/Bootloader.c ****             {
1683:.\Generated_Source\PSoC4/Bootloader.c ****                 CyHalt(0x00u);
1684:.\Generated_Source\PSoC4/Bootloader.c ****             }
1685:.\Generated_Source\PSoC4/Bootloader.c **** 
1686:.\Generated_Source\PSoC4/Bootloader.c ****         #endif  /* (0u == Bootloader_FAST_APP_VALIDATION) ||
1687:.\Generated_Source\PSoC4/Bootloader.c ****                    (CYDEV_PROJ_TYPE == CYDEV_PROJ_TYPE_LOADABLEANDBOOTLOADER) */
1688:.\Generated_Source\PSoC4/Bootloader.c ****     #endif  /* (CY_PSOC4) */
1689:.\Generated_Source\PSoC4/Bootloader.c **** 
1690:.\Generated_Source\PSoC4/Bootloader.c ****     /* Initialize communications channel. */
1691:.\Generated_Source\PSoC4/Bootloader.c ****     CyBtldrCommStart();
 914              		.loc 1 1691 0
 915 0044 FFF7FEFF 		bl	I2C_Slave_I2CCyBtldrCommStart
1692:.\Generated_Source\PSoC4/Bootloader.c **** 
1693:.\Generated_Source\PSoC4/Bootloader.c ****     /* Enable global interrupts */
1694:.\Generated_Source\PSoC4/Bootloader.c ****     CyGlobalIntEnable;
 916              		.loc 1 1694 0
 917              	@ 1694 ".\Generated_Source\PSoC4\Bootloader.c" 1
ARM GAS  C:\Users\LUKASC~1\AppData\Local\Temp\ccn8LSRc.s 			page 47


 918 0048 62B6     		CPSIE   i
 919              	@ 0 "" 2
 920              		.code	16
 921              	.L121:
1695:.\Generated_Source\PSoC4/Bootloader.c **** 
1696:.\Generated_Source\PSoC4/Bootloader.c ****     do
1697:.\Generated_Source\PSoC4/Bootloader.c ****     {
1698:.\Generated_Source\PSoC4/Bootloader.c ****         ackCode = CYRET_SUCCESS;
 922              		.loc 1 1698 0
 923 004a CF4B     		ldr	r3, .L123+20
 924 004c FB18     		add	r3, r7, r3
 925 004e 0022     		mov	r2, #0
 926 0050 1A70     		strb	r2, [r3]
 927              	.L59:
1699:.\Generated_Source\PSoC4/Bootloader.c **** 
1700:.\Generated_Source\PSoC4/Bootloader.c ****         do
1701:.\Generated_Source\PSoC4/Bootloader.c ****         {
1702:.\Generated_Source\PSoC4/Bootloader.c ****             readStat = CyBtldrCommRead(packetBuffer,
 928              		.loc 1 1702 0
 929 0052 C94B     		ldr	r3, .L123+4
 930 0054 CE22     		mov	r2, #206
 931 0056 9200     		lsl	r2, r2, #2
 932 0058 9446     		mov	ip, r2
 933 005a BC44     		add	ip, ip, r7
 934 005c 6344     		add	r3, r3, ip
 935 005e 1B78     		ldrb	r3, [r3]
 936 0060 002B     		cmp	r3, #0
 937 0062 07D0     		beq	.L55
 938              		.loc 1 1702 0 is_stmt 0 discriminator 1
 939 0064 C44B     		ldr	r3, .L123+4
 940 0066 CE22     		mov	r2, #206
 941 0068 9200     		lsl	r2, r2, #2
 942 006a 9446     		mov	ip, r2
 943 006c BC44     		add	ip, ip, r7
 944 006e 6344     		add	r3, r3, ip
 945 0070 1B78     		ldrb	r3, [r3]
 946 0072 00E0     		b	.L56
 947              	.L55:
 948              		.loc 1 1702 0 discriminator 2
 949 0074 FF23     		mov	r3, #255
 950              	.L56:
 951              		.loc 1 1702 0 discriminator 4
 952 0076 EA22     		mov	r2, #234
 953 0078 5200     		lsl	r2, r2, #1
 954 007a B818     		add	r0, r7, r2
 955 007c 9622     		mov	r2, #150
 956 007e 5100     		lsl	r1, r2, #1
 957 0080 C022     		mov	r2, #192
 958 0082 9200     		lsl	r2, r2, #2
 959 0084 BA18     		add	r2, r7, r2
 960 0086 FFF7FEFF 		bl	I2C_Slave_I2CCyBtldrCommRead
 961 008a 031C     		mov	r3, r0
 962 008c C822     		mov	r2, #200
 963 008e 9200     		lsl	r2, r2, #2
 964 0090 BA18     		add	r2, r7, r2
 965 0092 1360     		str	r3, [r2]
1703:.\Generated_Source\PSoC4/Bootloader.c ****                                         Bootloader_SIZEOF_COMMAND_BUFFER,
ARM GAS  C:\Users\LUKASC~1\AppData\Local\Temp\ccn8LSRc.s 			page 48


1704:.\Generated_Source\PSoC4/Bootloader.c ****                                         &numberRead,
1705:.\Generated_Source\PSoC4/Bootloader.c ****                                         (0u == timeOut) ? 0xFFu : timeOut);
1706:.\Generated_Source\PSoC4/Bootloader.c ****             if (0u != timeOut)
 966              		.loc 1 1706 0 is_stmt 1 discriminator 4
 967 0094 B84B     		ldr	r3, .L123+4
 968 0096 CE22     		mov	r2, #206
 969 0098 9200     		lsl	r2, r2, #2
 970 009a 9446     		mov	ip, r2
 971 009c BC44     		add	ip, ip, r7
 972 009e 6344     		add	r3, r3, ip
 973 00a0 1B78     		ldrb	r3, [r3]
 974 00a2 002B     		cmp	r3, #0
 975 00a4 06D0     		beq	.L57
1707:.\Generated_Source\PSoC4/Bootloader.c ****             {
1708:.\Generated_Source\PSoC4/Bootloader.c ****                 timeOutCnt--;
 976              		.loc 1 1708 0
 977 00a6 B64B     		ldr	r3, .L123+12
 978 00a8 FB18     		add	r3, r7, r3
 979 00aa 1A78     		ldrb	r2, [r3]
 980 00ac B44B     		ldr	r3, .L123+12
 981 00ae FB18     		add	r3, r7, r3
 982 00b0 013A     		sub	r2, r2, #1
 983 00b2 1A70     		strb	r2, [r3]
 984              	.L57:
1709:.\Generated_Source\PSoC4/Bootloader.c ****             }
1710:.\Generated_Source\PSoC4/Bootloader.c **** 
1711:.\Generated_Source\PSoC4/Bootloader.c ****         } while ( (0u != timeOutCnt) && (readStat != CYRET_SUCCESS) );
 985              		.loc 1 1711 0
 986 00b4 B24B     		ldr	r3, .L123+12
 987 00b6 FB18     		add	r3, r7, r3
 988 00b8 1B78     		ldrb	r3, [r3]
 989 00ba 002B     		cmp	r3, #0
 990 00bc 05D0     		beq	.L58
 991              		.loc 1 1711 0 is_stmt 0 discriminator 1
 992 00be C823     		mov	r3, #200
 993 00c0 9B00     		lsl	r3, r3, #2
 994 00c2 FB18     		add	r3, r7, r3
 995 00c4 1B68     		ldr	r3, [r3]
 996 00c6 002B     		cmp	r3, #0
 997 00c8 C3D1     		bne	.L59
 998              	.L58:
1712:.\Generated_Source\PSoC4/Bootloader.c **** 
1713:.\Generated_Source\PSoC4/Bootloader.c **** 
1714:.\Generated_Source\PSoC4/Bootloader.c ****         if( readStat != CYRET_SUCCESS )
 999              		.loc 1 1714 0 is_stmt 1
 1000 00ca C823     		mov	r3, #200
 1001 00cc 9B00     		lsl	r3, r3, #2
 1002 00ce FB18     		add	r3, r7, r3
 1003 00d0 1B68     		ldr	r3, [r3]
 1004 00d2 002B     		cmp	r3, #0
 1005 00d4 01D0     		beq	.L60
1715:.\Generated_Source\PSoC4/Bootloader.c ****         {
1716:.\Generated_Source\PSoC4/Bootloader.c ****             continue;
 1006              		.loc 1 1716 0
 1007 00d6 00F0DCFC 		bl	.L61	@ far jump
 1008              	.L60:
1717:.\Generated_Source\PSoC4/Bootloader.c ****         }
ARM GAS  C:\Users\LUKASC~1\AppData\Local\Temp\ccn8LSRc.s 			page 49


1718:.\Generated_Source\PSoC4/Bootloader.c **** 
1719:.\Generated_Source\PSoC4/Bootloader.c ****         if((numberRead < Bootloader_MIN_PKT_SIZE) ||
 1009              		.loc 1 1719 0
 1010 00da C023     		mov	r3, #192
 1011 00dc 9B00     		lsl	r3, r3, #2
 1012 00de FB18     		add	r3, r7, r3
 1013 00e0 1B88     		ldrh	r3, [r3]
 1014 00e2 062B     		cmp	r3, #6
 1015 00e4 08D9     		bls	.L62
1720:.\Generated_Source\PSoC4/Bootloader.c ****            (packetBuffer[Bootloader_SOP_ADDR] != Bootloader_SOP))
 1016              		.loc 1 1720 0 discriminator 1
 1017 00e6 A94B     		ldr	r3, .L123+24
 1018 00e8 CE22     		mov	r2, #206
 1019 00ea 9200     		lsl	r2, r2, #2
 1020 00ec 9446     		mov	ip, r2
 1021 00ee BC44     		add	ip, ip, r7
 1022 00f0 6344     		add	r3, r3, ip
 1023 00f2 1B78     		ldrb	r3, [r3]
1719:.\Generated_Source\PSoC4/Bootloader.c ****            (packetBuffer[Bootloader_SOP_ADDR] != Bootloader_SOP))
 1024              		.loc 1 1719 0 discriminator 1
 1025 00f4 012B     		cmp	r3, #1
 1026 00f6 04D0     		beq	.L63
 1027              	.L62:
1721:.\Generated_Source\PSoC4/Bootloader.c ****         {
1722:.\Generated_Source\PSoC4/Bootloader.c ****             ackCode = Bootloader_ERR_DATA;
 1028              		.loc 1 1722 0
 1029 00f8 A34B     		ldr	r3, .L123+20
 1030 00fa FB18     		add	r3, r7, r3
 1031 00fc 0422     		mov	r2, #4
 1032 00fe 1A70     		strb	r2, [r3]
 1033 0100 73E0     		b	.L64
 1034              	.L63:
1723:.\Generated_Source\PSoC4/Bootloader.c ****         }
1724:.\Generated_Source\PSoC4/Bootloader.c ****         else
1725:.\Generated_Source\PSoC4/Bootloader.c ****         {
1726:.\Generated_Source\PSoC4/Bootloader.c ****             pktSize = ((uint16)((uint16)packetBuffer[Bootloader_SIZE_ADDR + 1u] << 8u)) |
 1035              		.loc 1 1726 0
 1036 0102 A24B     		ldr	r3, .L123+24
 1037 0104 CE22     		mov	r2, #206
 1038 0106 9200     		lsl	r2, r2, #2
 1039 0108 9446     		mov	ip, r2
 1040 010a BC44     		add	ip, ip, r7
 1041 010c 6344     		add	r3, r3, ip
 1042 010e DB78     		ldrb	r3, [r3, #3]
 1043 0110 9BB2     		uxth	r3, r3
 1044 0112 1B02     		lsl	r3, r3, #8
 1045 0114 99B2     		uxth	r1, r3
1727:.\Generated_Source\PSoC4/Bootloader.c ****                                packetBuffer[Bootloader_SIZE_ADDR];
 1046              		.loc 1 1727 0
 1047 0116 9D4B     		ldr	r3, .L123+24
 1048 0118 CE22     		mov	r2, #206
 1049 011a 9200     		lsl	r2, r2, #2
 1050 011c 9446     		mov	ip, r2
 1051 011e BC44     		add	ip, ip, r7
 1052 0120 6344     		add	r3, r3, ip
 1053 0122 9B78     		ldrb	r3, [r3, #2]
1726:.\Generated_Source\PSoC4/Bootloader.c ****                                packetBuffer[Bootloader_SIZE_ADDR];
ARM GAS  C:\Users\LUKASC~1\AppData\Local\Temp\ccn8LSRc.s 			page 50


 1054              		.loc 1 1726 0
 1055 0124 9AB2     		uxth	r2, r3
 1056 0126 954B     		ldr	r3, .L123+8
 1057 0128 FB18     		add	r3, r7, r3
 1058 012a 0A43     		orr	r2, r1
 1059 012c 1A80     		strh	r2, [r3]
1728:.\Generated_Source\PSoC4/Bootloader.c **** 
1729:.\Generated_Source\PSoC4/Bootloader.c **** 
1730:.\Generated_Source\PSoC4/Bootloader.c ****             /**************************************************************************************
1731:.\Generated_Source\PSoC4/Bootloader.c ****             * If the whole packet length exceeds the number of bytes that have been read by the com
1732:.\Generated_Source\PSoC4/Bootloader.c ****             * component or the size of the buffer that is reserved for the packet, then give an err
1733:.\Generated_Source\PSoC4/Bootloader.c ****             **************************************************************************************/
1734:.\Generated_Source\PSoC4/Bootloader.c ****             if (((pktSize + Bootloader_MIN_PKT_SIZE) > numberRead) || 
 1060              		.loc 1 1734 0
 1061 012e 934B     		ldr	r3, .L123+8
 1062 0130 FB18     		add	r3, r7, r3
 1063 0132 1B88     		ldrh	r3, [r3]
 1064 0134 0733     		add	r3, r3, #7
 1065 0136 C022     		mov	r2, #192
 1066 0138 9200     		lsl	r2, r2, #2
 1067 013a BA18     		add	r2, r7, r2
 1068 013c 1288     		ldrh	r2, [r2]
 1069 013e 9342     		cmp	r3, r2
 1070 0140 07D8     		bhi	.L65
1735:.\Generated_Source\PSoC4/Bootloader.c ****                 ((pktSize + Bootloader_MIN_PKT_SIZE) > Bootloader_SIZEOF_COMMAND_BUFFER)) 
 1071              		.loc 1 1735 0 discriminator 1
 1072 0142 8E4B     		ldr	r3, .L123+8
 1073 0144 FB18     		add	r3, r7, r3
 1074 0146 1B88     		ldrh	r3, [r3]
 1075 0148 DA1D     		add	r2, r3, #7
1734:.\Generated_Source\PSoC4/Bootloader.c ****                 ((pktSize + Bootloader_MIN_PKT_SIZE) > Bootloader_SIZEOF_COMMAND_BUFFER)) 
 1076              		.loc 1 1734 0 discriminator 1
 1077 014a 9623     		mov	r3, #150
 1078 014c 5B00     		lsl	r3, r3, #1
 1079 014e 9A42     		cmp	r2, r3
 1080 0150 04D9     		bls	.L66
 1081              	.L65:
1736:.\Generated_Source\PSoC4/Bootloader.c ****             {
1737:.\Generated_Source\PSoC4/Bootloader.c ****                 ackCode = Bootloader_ERR_LENGTH;
 1082              		.loc 1 1737 0
 1083 0152 8D4B     		ldr	r3, .L123+20
 1084 0154 FB18     		add	r3, r7, r3
 1085 0156 0322     		mov	r2, #3
 1086 0158 1A70     		strb	r2, [r3]
 1087 015a 46E0     		b	.L64
 1088              	.L66:
1738:.\Generated_Source\PSoC4/Bootloader.c ****             }
1739:.\Generated_Source\PSoC4/Bootloader.c ****             else /* Packet length is OK*/
1740:.\Generated_Source\PSoC4/Bootloader.c ****             {
1741:.\Generated_Source\PSoC4/Bootloader.c ****                 pktChecksum = ((uint16)((uint16)packetBuffer[Bootloader_CHK_ADDR(pktSize) + 1u] << 
 1089              		.loc 1 1741 0
 1090 015c 874B     		ldr	r3, .L123+8
 1091 015e FB18     		add	r3, r7, r3
 1092 0160 1B88     		ldrh	r3, [r3]
 1093 0162 0533     		add	r3, r3, #5
 1094 0164 894A     		ldr	r2, .L123+24
 1095 0166 CE21     		mov	r1, #206
ARM GAS  C:\Users\LUKASC~1\AppData\Local\Temp\ccn8LSRc.s 			page 51


 1096 0168 8900     		lsl	r1, r1, #2
 1097 016a 8C46     		mov	ip, r1
 1098 016c BC44     		add	ip, ip, r7
 1099 016e 6244     		add	r2, r2, ip
 1100 0170 D35C     		ldrb	r3, [r2, r3]
 1101 0172 9BB2     		uxth	r3, r3
 1102 0174 1B02     		lsl	r3, r3, #8
 1103 0176 99B2     		uxth	r1, r3
1742:.\Generated_Source\PSoC4/Bootloader.c ****                                    packetBuffer[Bootloader_CHK_ADDR(pktSize)];
 1104              		.loc 1 1742 0
 1105 0178 804B     		ldr	r3, .L123+8
 1106 017a FB18     		add	r3, r7, r3
 1107 017c 1B88     		ldrh	r3, [r3]
 1108 017e 0433     		add	r3, r3, #4
 1109 0180 824A     		ldr	r2, .L123+24
 1110 0182 CE20     		mov	r0, #206
 1111 0184 8000     		lsl	r0, r0, #2
 1112 0186 8446     		mov	ip, r0
 1113 0188 BC44     		add	ip, ip, r7
 1114 018a 6244     		add	r2, r2, ip
 1115 018c D35C     		ldrb	r3, [r2, r3]
1741:.\Generated_Source\PSoC4/Bootloader.c ****                                    packetBuffer[Bootloader_CHK_ADDR(pktSize)];
 1116              		.loc 1 1741 0
 1117 018e 9AB2     		uxth	r2, r3
 1118 0190 7F4B     		ldr	r3, .L123+28
 1119 0192 FB18     		add	r3, r7, r3
 1120 0194 0A43     		orr	r2, r1
 1121 0196 1A80     		strh	r2, [r3]
1743:.\Generated_Source\PSoC4/Bootloader.c ****    
1744:.\Generated_Source\PSoC4/Bootloader.c ****                 if (packetBuffer[Bootloader_EOP_ADDR(pktSize)] != Bootloader_EOP)
 1122              		.loc 1 1744 0
 1123 0198 784B     		ldr	r3, .L123+8
 1124 019a FB18     		add	r3, r7, r3
 1125 019c 1B88     		ldrh	r3, [r3]
 1126 019e 0633     		add	r3, r3, #6
 1127 01a0 7A4A     		ldr	r2, .L123+24
 1128 01a2 CE21     		mov	r1, #206
 1129 01a4 8900     		lsl	r1, r1, #2
 1130 01a6 8C46     		mov	ip, r1
 1131 01a8 BC44     		add	ip, ip, r7
 1132 01aa 6244     		add	r2, r2, ip
 1133 01ac D35C     		ldrb	r3, [r2, r3]
 1134 01ae 172B     		cmp	r3, #23
 1135 01b0 04D0     		beq	.L67
1745:.\Generated_Source\PSoC4/Bootloader.c ****                 {
1746:.\Generated_Source\PSoC4/Bootloader.c ****                     ackCode = Bootloader_ERR_DATA;
 1136              		.loc 1 1746 0
 1137 01b2 754B     		ldr	r3, .L123+20
 1138 01b4 FB18     		add	r3, r7, r3
 1139 01b6 0422     		mov	r2, #4
 1140 01b8 1A70     		strb	r2, [r3]
 1141 01ba 16E0     		b	.L64
 1142              	.L67:
1747:.\Generated_Source\PSoC4/Bootloader.c ****                 }
1748:.\Generated_Source\PSoC4/Bootloader.c ****                 else if(pktChecksum != Bootloader_CalcPacketChecksum(packetBuffer,
 1143              		.loc 1 1748 0
 1144 01bc 6F4B     		ldr	r3, .L123+8
ARM GAS  C:\Users\LUKASC~1\AppData\Local\Temp\ccn8LSRc.s 			page 52


 1145 01be FB18     		add	r3, r7, r3
 1146 01c0 1B88     		ldrh	r3, [r3]
 1147 01c2 0433     		add	r3, r3, #4
 1148 01c4 9BB2     		uxth	r3, r3
 1149 01c6 EA22     		mov	r2, #234
 1150 01c8 5200     		lsl	r2, r2, #1
 1151 01ca BA18     		add	r2, r7, r2
 1152 01cc 101C     		mov	r0, r2
 1153 01ce 191C     		mov	r1, r3
 1154 01d0 FFF7FEFF 		bl	Bootloader_CalcPacketChecksum
 1155 01d4 031C     		mov	r3, r0
 1156 01d6 1A1C     		mov	r2, r3
 1157 01d8 6D4B     		ldr	r3, .L123+28
 1158 01da FB18     		add	r3, r7, r3
 1159 01dc 1B88     		ldrh	r3, [r3]
 1160 01de 9342     		cmp	r3, r2
 1161 01e0 03D0     		beq	.L64
1749:.\Generated_Source\PSoC4/Bootloader.c ****                                                                         pktSize + Bootloader_DATA_A
1750:.\Generated_Source\PSoC4/Bootloader.c ****                 {
1751:.\Generated_Source\PSoC4/Bootloader.c ****                     ackCode = Bootloader_ERR_CHECKSUM;
 1162              		.loc 1 1751 0
 1163 01e2 694B     		ldr	r3, .L123+20
 1164 01e4 FB18     		add	r3, r7, r3
 1165 01e6 0822     		mov	r2, #8
 1166 01e8 1A70     		strb	r2, [r3]
 1167              	.L64:
1752:.\Generated_Source\PSoC4/Bootloader.c ****                 }
1753:.\Generated_Source\PSoC4/Bootloader.c ****                 else
1754:.\Generated_Source\PSoC4/Bootloader.c ****                 {
1755:.\Generated_Source\PSoC4/Bootloader.c ****                     /* Empty section */
1756:.\Generated_Source\PSoC4/Bootloader.c ****                 }
1757:.\Generated_Source\PSoC4/Bootloader.c ****             }    
1758:.\Generated_Source\PSoC4/Bootloader.c ****         }
1759:.\Generated_Source\PSoC4/Bootloader.c **** 
1760:.\Generated_Source\PSoC4/Bootloader.c ****         rspSize = Bootloader_RSP_SIZE_0;
 1168              		.loc 1 1760 0
 1169 01ea 6A4B     		ldr	r3, .L123+32
 1170 01ec FB18     		add	r3, r7, r3
 1171 01ee 0022     		mov	r2, #0
 1172 01f0 1A80     		strh	r2, [r3]
1761:.\Generated_Source\PSoC4/Bootloader.c ****         if(ackCode == CYRET_SUCCESS)
 1173              		.loc 1 1761 0
 1174 01f2 654B     		ldr	r3, .L123+20
 1175 01f4 FB18     		add	r3, r7, r3
 1176 01f6 1B78     		ldrb	r3, [r3]
 1177 01f8 002B     		cmp	r3, #0
 1178 01fa 01D0     		beq	.LCB1015
 1179 01fc 00F03BFC 		bl	.L68	@far jump
 1180              	.LCB1015:
 1181              	.LBB5:
1762:.\Generated_Source\PSoC4/Bootloader.c ****         {
1763:.\Generated_Source\PSoC4/Bootloader.c ****             uint8 CYDATA btldrData = packetBuffer[Bootloader_DATA_ADDR];
 1182              		.loc 1 1763 0
 1183 0200 654B     		ldr	r3, .L123+36
 1184 0202 FB18     		add	r3, r7, r3
 1185 0204 614A     		ldr	r2, .L123+24
 1186 0206 CE21     		mov	r1, #206
ARM GAS  C:\Users\LUKASC~1\AppData\Local\Temp\ccn8LSRc.s 			page 53


 1187 0208 8900     		lsl	r1, r1, #2
 1188 020a 8C46     		mov	ip, r1
 1189 020c BC44     		add	ip, ip, r7
 1190 020e 6244     		add	r2, r2, ip
 1191 0210 1279     		ldrb	r2, [r2, #4]
 1192 0212 1A70     		strb	r2, [r3]
1764:.\Generated_Source\PSoC4/Bootloader.c **** 
1765:.\Generated_Source\PSoC4/Bootloader.c ****             ackCode = Bootloader_ERR_DATA;
 1193              		.loc 1 1765 0
 1194 0214 5C4B     		ldr	r3, .L123+20
 1195 0216 FB18     		add	r3, r7, r3
 1196 0218 0422     		mov	r2, #4
 1197 021a 1A70     		strb	r2, [r3]
1766:.\Generated_Source\PSoC4/Bootloader.c ****             switch(packetBuffer[Bootloader_CMD_ADDR])
 1198              		.loc 1 1766 0
 1199 021c 5B4B     		ldr	r3, .L123+24
 1200 021e CE22     		mov	r2, #206
 1201 0220 9200     		lsl	r2, r2, #2
 1202 0222 9446     		mov	ip, r2
 1203 0224 BC44     		add	ip, ip, r7
 1204 0226 6344     		add	r3, r3, ip
 1205 0228 5B78     		ldrb	r3, [r3, #1]
 1206 022a 313B     		sub	r3, r3, #49
 1207 022c 142B     		cmp	r3, #20
 1208 022e 01D9     		bls	.LCB1040
 1209 0230 00F074FB 		bl	.L69	@far jump
 1210              	.LCB1040:
 1211 0234 9A00     		lsl	r2, r3, #2
 1212 0236 594B     		ldr	r3, .L123+40
 1213 0238 D318     		add	r3, r2, r3
 1214 023a 1B68     		ldr	r3, [r3]
 1215 023c 9F46     		mov	pc, r3
 1216              		.section	.rodata
 1217              		.align	2
 1218              	.L71:
 1219 0008 3E020000 		.word	.L70
 1220 000c D0030000 		.word	.L72
 1221 0010 1C090000 		.word	.L69
 1222 0014 AA040000 		.word	.L73
 1223 0018 BC060000 		.word	.L74
 1224 001c 1C090000 		.word	.L69
 1225 0020 00070000 		.word	.L75
 1226 0024 76070000 		.word	.L76
 1227 0028 AA040000 		.word	.L73
 1228 002c DA070000 		.word	.L77
 1229 0030 02090000 		.word	.L78
 1230 0034 1C090000 		.word	.L69
 1231 0038 1C090000 		.word	.L69
 1232 003c 1C090000 		.word	.L69
 1233 0040 1C090000 		.word	.L69
 1234 0044 1C090000 		.word	.L69
 1235 0048 1C090000 		.word	.L69
 1236 004c 1C090000 		.word	.L69
 1237 0050 1C090000 		.word	.L69
 1238 0054 1C090000 		.word	.L69
 1239 0058 88020000 		.word	.L79
 1240              		.section	.text.Bootloader_HostLink
ARM GAS  C:\Users\LUKASC~1\AppData\Local\Temp\ccn8LSRc.s 			page 54


 1241              	.L70:
1767:.\Generated_Source\PSoC4/Bootloader.c ****             {
1768:.\Generated_Source\PSoC4/Bootloader.c **** 
1769:.\Generated_Source\PSoC4/Bootloader.c **** 
1770:.\Generated_Source\PSoC4/Bootloader.c ****             /***************************************************************************
1771:.\Generated_Source\PSoC4/Bootloader.c ****             *   Get metadata (0x3C)
1772:.\Generated_Source\PSoC4/Bootloader.c ****             ***************************************************************************/
1773:.\Generated_Source\PSoC4/Bootloader.c ****             #if(0u != Bootloader_CMD_GET_METADATA)
1774:.\Generated_Source\PSoC4/Bootloader.c **** 
1775:.\Generated_Source\PSoC4/Bootloader.c ****                 case Bootloader_COMMAND_GET_METADATA:
1776:.\Generated_Source\PSoC4/Bootloader.c **** 
1777:.\Generated_Source\PSoC4/Bootloader.c ****                     if((Bootloader_COMMUNICATION_STATE_ACTIVE == communicationState) && (pktSize ==
1778:.\Generated_Source\PSoC4/Bootloader.c ****                     {
1779:.\Generated_Source\PSoC4/Bootloader.c ****                         if (btldrData >= Bootloader_MAX_NUM_OF_BTLDB)
1780:.\Generated_Source\PSoC4/Bootloader.c ****                         {
1781:.\Generated_Source\PSoC4/Bootloader.c ****                             ackCode = Bootloader_ERR_APP;
1782:.\Generated_Source\PSoC4/Bootloader.c ****                         }
1783:.\Generated_Source\PSoC4/Bootloader.c ****                         else if(CYRET_SUCCESS == Bootloader_ValidateBootloadable(btldrData))
1784:.\Generated_Source\PSoC4/Bootloader.c ****                         {
1785:.\Generated_Source\PSoC4/Bootloader.c ****                             #if(CY_PSOC3)
1786:.\Generated_Source\PSoC4/Bootloader.c ****                                 (void) memcpy(&packetBuffer[Bootloader_DATA_ADDR],
1787:.\Generated_Source\PSoC4/Bootloader.c ****                                             ((uint8  CYCODE *) (Bootloader_MD_BASE_ADDR(btldrData))
1788:.\Generated_Source\PSoC4/Bootloader.c ****                                             Bootloader_GET_METADATA_RESPONSE_SIZE);
1789:.\Generated_Source\PSoC4/Bootloader.c ****                             #else
1790:.\Generated_Source\PSoC4/Bootloader.c ****                                 (void) memcpy(&packetBuffer[Bootloader_DATA_ADDR],
1791:.\Generated_Source\PSoC4/Bootloader.c ****                                             (uint8 *) Bootloader_MD_BASE_ADDR(btldrData),
1792:.\Generated_Source\PSoC4/Bootloader.c ****                                             Bootloader_GET_METADATA_RESPONSE_SIZE);
1793:.\Generated_Source\PSoC4/Bootloader.c ****                             #endif  /* (CY_PSOC3) */
1794:.\Generated_Source\PSoC4/Bootloader.c **** 
1795:.\Generated_Source\PSoC4/Bootloader.c ****                             rspSize = Bootloader_RSP_SIZE_GET_METADATA;
1796:.\Generated_Source\PSoC4/Bootloader.c ****                             ackCode = CYRET_SUCCESS;
1797:.\Generated_Source\PSoC4/Bootloader.c ****                         }
1798:.\Generated_Source\PSoC4/Bootloader.c ****                         else
1799:.\Generated_Source\PSoC4/Bootloader.c ****                         {
1800:.\Generated_Source\PSoC4/Bootloader.c ****                             ackCode = Bootloader_ERR_APP;
1801:.\Generated_Source\PSoC4/Bootloader.c ****                         }
1802:.\Generated_Source\PSoC4/Bootloader.c ****                     }
1803:.\Generated_Source\PSoC4/Bootloader.c ****                     break;
1804:.\Generated_Source\PSoC4/Bootloader.c **** 
1805:.\Generated_Source\PSoC4/Bootloader.c ****             #endif  /* (0u != Bootloader_CMD_GET_METADATA) */
1806:.\Generated_Source\PSoC4/Bootloader.c **** 
1807:.\Generated_Source\PSoC4/Bootloader.c **** 
1808:.\Generated_Source\PSoC4/Bootloader.c ****             /***************************************************************************
1809:.\Generated_Source\PSoC4/Bootloader.c ****             *   Verify application checksum (0x31)
1810:.\Generated_Source\PSoC4/Bootloader.c ****             ***************************************************************************/
1811:.\Generated_Source\PSoC4/Bootloader.c ****         #if (0u != Bootloader_CMD_VERIFY_APP_CHKSUM_AVAIL)     
1812:.\Generated_Source\PSoC4/Bootloader.c ****             case Bootloader_COMMAND_CHECKSUM:
1813:.\Generated_Source\PSoC4/Bootloader.c **** 
1814:.\Generated_Source\PSoC4/Bootloader.c ****                 if((Bootloader_COMMUNICATION_STATE_ACTIVE == communicationState) && (pktSize == 0u)
 1242              		.loc 1 1814 0
 1243 023e 514B     		ldr	r3, .L123+16
 1244 0240 FB18     		add	r3, r7, r3
 1245 0242 1B78     		ldrb	r3, [r3]
 1246 0244 012B     		cmp	r3, #1
 1247 0246 1DD1     		bne	.L80
 1248              		.loc 1 1814 0 is_stmt 0 discriminator 1
 1249 0248 4C4B     		ldr	r3, .L123+8
ARM GAS  C:\Users\LUKASC~1\AppData\Local\Temp\ccn8LSRc.s 			page 55


 1250 024a FB18     		add	r3, r7, r3
 1251 024c 1B88     		ldrh	r3, [r3]
 1252 024e 002B     		cmp	r3, #0
 1253 0250 18D1     		bne	.L80
1815:.\Generated_Source\PSoC4/Bootloader.c ****                 {
1816:.\Generated_Source\PSoC4/Bootloader.c ****                     packetBuffer[Bootloader_DATA_ADDR] =
1817:.\Generated_Source\PSoC4/Bootloader.c ****                             (uint8)(Bootloader_ValidateBootloadable(Bootloader_activeApp) == CYRET_
 1254              		.loc 1 1817 0 is_stmt 1
 1255 0252 0020     		mov	r0, #0
 1256 0254 FFF7FEFF 		bl	Bootloader_ValidateBootloadable
 1257 0258 031C     		mov	r3, r0
 1258 025a 5A42     		neg	r2, r3
 1259 025c 5341     		adc	r3, r3, r2
 1260 025e DBB2     		uxtb	r3, r3
 1261 0260 1A1C     		mov	r2, r3
1816:.\Generated_Source\PSoC4/Bootloader.c ****                             (uint8)(Bootloader_ValidateBootloadable(Bootloader_activeApp) == CYRET_
 1262              		.loc 1 1816 0
 1263 0262 4A4B     		ldr	r3, .L123+24
 1264 0264 CE21     		mov	r1, #206
 1265 0266 8900     		lsl	r1, r1, #2
 1266 0268 8C46     		mov	ip, r1
 1267 026a BC44     		add	ip, ip, r7
 1268 026c 6344     		add	r3, r3, ip
 1269 026e 1A71     		strb	r2, [r3, #4]
1818:.\Generated_Source\PSoC4/Bootloader.c **** 
1819:.\Generated_Source\PSoC4/Bootloader.c ****                     rspSize = Bootloader_RSP_SIZE_VERIFY_CHKSM;
 1270              		.loc 1 1819 0
 1271 0270 484B     		ldr	r3, .L123+32
 1272 0272 FB18     		add	r3, r7, r3
 1273 0274 0122     		mov	r2, #1
 1274 0276 1A80     		strh	r2, [r3]
1820:.\Generated_Source\PSoC4/Bootloader.c ****                     ackCode = CYRET_SUCCESS;
 1275              		.loc 1 1820 0
 1276 0278 434B     		ldr	r3, .L123+20
 1277 027a FB18     		add	r3, r7, r3
 1278 027c 0022     		mov	r2, #0
 1279 027e 1A70     		strb	r2, [r3]
1821:.\Generated_Source\PSoC4/Bootloader.c ****                 }
1822:.\Generated_Source\PSoC4/Bootloader.c ****                 break;
 1280              		.loc 1 1822 0
 1281 0280 00F0F9FB 		bl	.L68	@ far jump
 1282              	.L80:
 1283 0284 00F0F7FB 		bl	.L68	@ far jump
 1284              	.L79:
1823:.\Generated_Source\PSoC4/Bootloader.c ****         #endif /* (0u != Bootloader_CMD_VERIFY_APP_CHKSUM_AVAIL) */
1824:.\Generated_Source\PSoC4/Bootloader.c **** 
1825:.\Generated_Source\PSoC4/Bootloader.c ****             /*****************************************************************************
1826:.\Generated_Source\PSoC4/Bootloader.c ****             *   Verify row (0x45u)
1827:.\Generated_Source\PSoC4/Bootloader.c ****             ***************************************************************************/
1828:.\Generated_Source\PSoC4/Bootloader.c ****         #if(0u != Bootloader_CMD_VERIFY_FLS_ROW_AVAIL)
1829:.\Generated_Source\PSoC4/Bootloader.c ****             case Bootloader_COMMAND_VERIFY_FLS_ROW:
1830:.\Generated_Source\PSoC4/Bootloader.c **** 
1831:.\Generated_Source\PSoC4/Bootloader.c ****                 /* Packet size is either 3 (data is already in buffer) or (3u + Bootloader_FROW_SIZ
1832:.\Generated_Source\PSoC4/Bootloader.c ****                  * then data is in packetBuffer[]*/
1833:.\Generated_Source\PSoC4/Bootloader.c ****                 if ((Bootloader_COMMUNICATION_STATE_ACTIVE == communicationState) && ((3u == pktSiz
 1285              		.loc 1 1833 0
 1286 0288 3E4B     		ldr	r3, .L123+16
ARM GAS  C:\Users\LUKASC~1\AppData\Local\Temp\ccn8LSRc.s 			page 56


 1287 028a FB18     		add	r3, r7, r3
 1288 028c 1B78     		ldrb	r3, [r3]
 1289 028e 012B     		cmp	r3, #1
 1290 0290 00D0     		beq	.LCB1095
 1291 0292 9CE0     		b	.L81	@long jump
 1292              	.LCB1095:
 1293              		.loc 1 1833 0 is_stmt 0 discriminator 1
 1294 0294 394B     		ldr	r3, .L123+8
 1295 0296 FB18     		add	r3, r7, r3
 1296 0298 1B88     		ldrh	r3, [r3]
 1297 029a 032B     		cmp	r3, #3
 1298 029c 05D0     		beq	.L82
 1299              		.loc 1 1833 0 discriminator 2
 1300 029e 374B     		ldr	r3, .L123+8
 1301 02a0 FB18     		add	r3, r7, r3
 1302 02a2 1B88     		ldrh	r3, [r3]
 1303 02a4 832B     		cmp	r3, #131
 1304 02a6 00D0     		beq	.LCB1105
 1305 02a8 91E0     		b	.L81	@long jump
 1306              	.LCB1105:
 1307              	.L82:
 1308              	.LBB6:
1834:.\Generated_Source\PSoC4/Bootloader.c ****                    ((3u + Bootloader_FROW_SIZE) == pktSize)))
1835:.\Generated_Source\PSoC4/Bootloader.c ****                 {
1836:.\Generated_Source\PSoC4/Bootloader.c ****                     uint16 CYDATA rowNum = ((uint16)((uint16)packetBuffer[Bootloader_DATA_ADDR + 2u
 1309              		.loc 1 1836 0 is_stmt 1
 1310 02aa 384B     		ldr	r3, .L123+24
 1311 02ac CE22     		mov	r2, #206
 1312 02ae 9200     		lsl	r2, r2, #2
 1313 02b0 9446     		mov	ip, r2
 1314 02b2 BC44     		add	ip, ip, r7
 1315 02b4 6344     		add	r3, r3, ip
 1316 02b6 9B79     		ldrb	r3, [r3, #6]
 1317 02b8 9BB2     		uxth	r3, r3
 1318 02ba 1B02     		lsl	r3, r3, #8
 1319 02bc 99B2     		uxth	r1, r3
1837:.\Generated_Source\PSoC4/Bootloader.c ****                                                              packetBuffer[Bootloader_DATA_ADDR + 1u
 1320              		.loc 1 1837 0
 1321 02be 334B     		ldr	r3, .L123+24
 1322 02c0 CE22     		mov	r2, #206
 1323 02c2 9200     		lsl	r2, r2, #2
 1324 02c4 9446     		mov	ip, r2
 1325 02c6 BC44     		add	ip, ip, r7
 1326 02c8 6344     		add	r3, r3, ip
 1327 02ca 5B79     		ldrb	r3, [r3, #5]
1836:.\Generated_Source\PSoC4/Bootloader.c ****                                                              packetBuffer[Bootloader_DATA_ADDR + 1u
 1328              		.loc 1 1836 0
 1329 02cc 9AB2     		uxth	r2, r3
 1330 02ce 344B     		ldr	r3, .L123+44
 1331 02d0 FB18     		add	r3, r7, r3
 1332 02d2 0A43     		orr	r2, r1
 1333 02d4 1A80     		strh	r2, [r3]
1838:.\Generated_Source\PSoC4/Bootloader.c ****                     
1839:.\Generated_Source\PSoC4/Bootloader.c ****                     uint32 CYDATA startAddr;
1840:.\Generated_Source\PSoC4/Bootloader.c ****                     uint16 upperRange = 0u;
 1334              		.loc 1 1840 0
 1335 02d6 C623     		mov	r3, #198
ARM GAS  C:\Users\LUKASC~1\AppData\Local\Temp\ccn8LSRc.s 			page 57


 1336 02d8 9B00     		lsl	r3, r3, #2
 1337 02da FB18     		add	r3, r7, r3
 1338 02dc 0022     		mov	r2, #0
 1339 02de 1A80     		strh	r2, [r3]
1841:.\Generated_Source\PSoC4/Bootloader.c ****                 #if (!CY_PSOC4)
1842:.\Generated_Source\PSoC4/Bootloader.c ****                     uint16 CYDATA rowSize; 
1843:.\Generated_Source\PSoC4/Bootloader.c ****                 #endif /*(!CY_PSOC4)*/    
1844:.\Generated_Source\PSoC4/Bootloader.c ****                     
1845:.\Generated_Source\PSoC4/Bootloader.c ****                     ackCode = CYRET_SUCCESS;
 1340              		.loc 1 1845 0
 1341 02e0 294B     		ldr	r3, .L123+20
 1342 02e2 FB18     		add	r3, r7, r3
 1343 02e4 0022     		mov	r2, #0
 1344 02e6 1A70     		strb	r2, [r3]
1846:.\Generated_Source\PSoC4/Bootloader.c ****                     rspSize = Bootloader_RSP_SIZE_0;
 1345              		.loc 1 1846 0
 1346 02e8 2A4B     		ldr	r3, .L123+32
 1347 02ea FB18     		add	r3, r7, r3
 1348 02ec 0022     		mov	r2, #0
 1349 02ee 1A80     		strh	r2, [r3]
1847:.\Generated_Source\PSoC4/Bootloader.c ****                         
1848:.\Generated_Source\PSoC4/Bootloader.c ****                     if (3u == pktSize)
 1350              		.loc 1 1848 0
 1351 02f0 224B     		ldr	r3, .L123+8
 1352 02f2 FB18     		add	r3, r7, r3
 1353 02f4 1B88     		ldrh	r3, [r3]
 1354 02f6 032B     		cmp	r3, #3
 1355 02f8 0DD0     		beq	.L83
1849:.\Generated_Source\PSoC4/Bootloader.c ****                     {
1850:.\Generated_Source\PSoC4/Bootloader.c ****                         /* Do nothing, data is already in dataBuffer[] */
1851:.\Generated_Source\PSoC4/Bootloader.c ****                     }
1852:.\Generated_Source\PSoC4/Bootloader.c ****                     else 
1853:.\Generated_Source\PSoC4/Bootloader.c ****                     {
1854:.\Generated_Source\PSoC4/Bootloader.c ****                     #if (CY_PSOC3)
1855:.\Generated_Source\PSoC4/Bootloader.c ****                         /*Data is in packetBuffer[], needs to be copied to dataBuffer[]*/
1856:.\Generated_Source\PSoC4/Bootloader.c ****                         (void) memcpy(dataBuffer, &packetBuffer[Bootloader_DATA_ADDR + 3u],
1857:.\Generated_Source\PSoC4/Bootloader.c ****                                       (int16)pktSize - 3);
1858:.\Generated_Source\PSoC4/Bootloader.c ****                     #else              
1859:.\Generated_Source\PSoC4/Bootloader.c ****                         /*Data is in packetBuffer[], needs to be copied to dataBuffer[]*/
1860:.\Generated_Source\PSoC4/Bootloader.c ****                         (void) memcpy(dataBuffer, &packetBuffer[Bootloader_DATA_ADDR + 3u],
1861:.\Generated_Source\PSoC4/Bootloader.c ****                                       (uint32)pktSize - 3u);
 1356              		.loc 1 1861 0
 1357 02fa 204B     		ldr	r3, .L123+8
 1358 02fc FB18     		add	r3, r7, r3
 1359 02fe 1B88     		ldrh	r3, [r3]
 1360 0300 DA1E     		sub	r2, r3, #3
1860:.\Generated_Source\PSoC4/Bootloader.c ****                                       (uint32)pktSize - 3u);
 1361              		.loc 1 1860 0
 1362 0302 A823     		mov	r3, #168
 1363 0304 F918     		add	r1, r7, r3
 1364 0306 EA23     		mov	r3, #234
 1365 0308 5B00     		lsl	r3, r3, #1
 1366 030a FB18     		add	r3, r7, r3
 1367 030c 0733     		add	r3, r3, #7
 1368 030e 081C     		mov	r0, r1
 1369 0310 191C     		mov	r1, r3
 1370 0312 FFF7FEFF 		bl	memcpy
ARM GAS  C:\Users\LUKASC~1\AppData\Local\Temp\ccn8LSRc.s 			page 58


 1371              	.L83:
1862:.\Generated_Source\PSoC4/Bootloader.c ****                     #endif /*CY_PSOC3)*/              
1863:.\Generated_Source\PSoC4/Bootloader.c ****                     }
1864:.\Generated_Source\PSoC4/Bootloader.c ****                         
1865:.\Generated_Source\PSoC4/Bootloader.c ****                 #if (!CY_PSOC4) 
1866:.\Generated_Source\PSoC4/Bootloader.c ****                     if((btldrData >= Bootloader_FIRST_EE_ARRAYID) &&
1867:.\Generated_Source\PSoC4/Bootloader.c ****                        (btldrData <= Bootloader_LAST_EE_ARRAYID))
1868:.\Generated_Source\PSoC4/Bootloader.c ****                     {
1869:.\Generated_Source\PSoC4/Bootloader.c ****                         /* EEPROM */
1870:.\Generated_Source\PSoC4/Bootloader.c ****                         /* Both PSoC 3 and PSoC 5LP architecture have one EEPROM array. */
1871:.\Generated_Source\PSoC4/Bootloader.c ****                         startAddr = CY_EEPROM_BASE + ((uint32)rowNum * CYDEV_EEPROM_ROW_SIZE);
1872:.\Generated_Source\PSoC4/Bootloader.c ****                         rowSize = CYDEV_EEPROM_ROW_SIZE;
1873:.\Generated_Source\PSoC4/Bootloader.c ****                         upperRange = Bootloader_NUMBER_OF_EEPROM_SECTORS * Bootloader_NUMBER_OF_ROW
1874:.\Generated_Source\PSoC4/Bootloader.c ****                     }
1875:.\Generated_Source\PSoC4/Bootloader.c ****                     else if (btldrData < CY_FLASH_NUMBER_ARRAYS)    
1876:.\Generated_Source\PSoC4/Bootloader.c ****                     {
1877:.\Generated_Source\PSoC4/Bootloader.c ****                         startAddr = CY_FLASH_BASE + ((uint32)btldrData * CYDEV_FLS_SECTOR_SIZE) +
1878:.\Generated_Source\PSoC4/Bootloader.c ****                                                      ((uint32)rowNum * CYDEV_FLS_ROW_SIZE);
1879:.\Generated_Source\PSoC4/Bootloader.c ****                         rowSize = CYDEV_FLS_ROW_SIZE;        
1880:.\Generated_Source\PSoC4/Bootloader.c ****                         upperRange = Bootloader_NUMBER_OF_ROWS_IN_ARRAY;                        
1881:.\Generated_Source\PSoC4/Bootloader.c ****                     }
1882:.\Generated_Source\PSoC4/Bootloader.c ****                     else
1883:.\Generated_Source\PSoC4/Bootloader.c ****                     {
1884:.\Generated_Source\PSoC4/Bootloader.c ****                         ackCode = Bootloader_ERR_ARRAY;
1885:.\Generated_Source\PSoC4/Bootloader.c ****                         break;                              
1886:.\Generated_Source\PSoC4/Bootloader.c ****                     }
1887:.\Generated_Source\PSoC4/Bootloader.c **** 
1888:.\Generated_Source\PSoC4/Bootloader.c ****                     /*Checking if row number is within array address range*/
1889:.\Generated_Source\PSoC4/Bootloader.c ****                     ackCode = Bootloader_CHECK_ROW_NUMBER(rowNum, upperRange);
1890:.\Generated_Source\PSoC4/Bootloader.c ****                     
1891:.\Generated_Source\PSoC4/Bootloader.c ****                     if (CYRET_SUCCESS != ackCode)
1892:.\Generated_Source\PSoC4/Bootloader.c ****                     {
1893:.\Generated_Source\PSoC4/Bootloader.c ****                         break;
1894:.\Generated_Source\PSoC4/Bootloader.c ****                     }
1895:.\Generated_Source\PSoC4/Bootloader.c ****                     
1896:.\Generated_Source\PSoC4/Bootloader.c ****                     ackCode = Bootloader_VerifyRow(startAddr, dataBuffer, rowSize);
1897:.\Generated_Source\PSoC4/Bootloader.c ****                     
1898:.\Generated_Source\PSoC4/Bootloader.c ****                     /******************************************************************************
1899:.\Generated_Source\PSoC4/Bootloader.c ****                     * If flash row check has completed successfully and ECC is disabled and there i
1900:.\Generated_Source\PSoC4/Bootloader.c ****                     * data in the buffer for ECC row.
1901:.\Generated_Source\PSoC4/Bootloader.c ****                     *******************************************************************************
1902:.\Generated_Source\PSoC4/Bootloader.c ****                     #if (CYDEV_ECC_ENABLE == 0u)
1903:.\Generated_Source\PSoC4/Bootloader.c ****                         if ((CYRET_SUCCESS == ackCode) && (btldrData < CY_FLASH_NUMBER_ARRAYS) && (
1904:.\Generated_Source\PSoC4/Bootloader.c ****                         {
1905:.\Generated_Source\PSoC4/Bootloader.c ****                             startAddr = CYDEV_ECC_BASE + ((uint32)btldrData * (CYDEV_FLS_SECTOR_SIZ
1906:.\Generated_Source\PSoC4/Bootloader.c ****                                         ((uint32)rowNum * CYDEV_ECC_ROW_SIZE);
1907:.\Generated_Source\PSoC4/Bootloader.c ****                                                 
1908:.\Generated_Source\PSoC4/Bootloader.c ****                             ackCode = Bootloader_VerifyRow(startAddr, &dataBuffer[rowSize], (uint16
1909:.\Generated_Source\PSoC4/Bootloader.c ****                         }
1910:.\Generated_Source\PSoC4/Bootloader.c ****                     #endif /*(CYDEV_ECC_ENABLE == 0u)*/
1911:.\Generated_Source\PSoC4/Bootloader.c ****                     
1912:.\Generated_Source\PSoC4/Bootloader.c ****                 #else /*CY_PSOC4*/
1913:.\Generated_Source\PSoC4/Bootloader.c ****                     if (btldrData < CY_FLASH_NUMBER_ARRAYS)
 1372              		.loc 1 1913 0
 1373 0316 204B     		ldr	r3, .L123+36
 1374 0318 FB18     		add	r3, r7, r3
 1375 031a 1B78     		ldrb	r3, [r3]
ARM GAS  C:\Users\LUKASC~1\AppData\Local\Temp\ccn8LSRc.s 			page 59


 1376 031c 002B     		cmp	r3, #0
 1377 031e 51D1     		bne	.L84
1914:.\Generated_Source\PSoC4/Bootloader.c ****                     {
1915:.\Generated_Source\PSoC4/Bootloader.c ****                         startAddr = CY_FLASH_BASE + ((uint32)btldrData * CYDEV_FLS_SECTOR_SIZE)
 1378              		.loc 1 1915 0
 1379 0320 1D4B     		ldr	r3, .L123+36
 1380 0322 FB18     		add	r3, r7, r3
 1381 0324 1B78     		ldrb	r3, [r3]
1916:.\Generated_Source\PSoC4/Bootloader.c ****                                             + ((uint32)rowNum * CYDEV_FLS_ROW_SIZE);
 1382              		.loc 1 1916 0
 1383 0326 1A02     		lsl	r2, r3, #8
 1384 0328 1D4B     		ldr	r3, .L123+44
 1385 032a FB18     		add	r3, r7, r3
 1386 032c 1B88     		ldrh	r3, [r3]
 1387 032e D318     		add	r3, r2, r3
1915:.\Generated_Source\PSoC4/Bootloader.c ****                                             + ((uint32)rowNum * CYDEV_FLS_ROW_SIZE);
 1388              		.loc 1 1915 0
 1389 0330 DB01     		lsl	r3, r3, #7
 1390 0332 C522     		mov	r2, #197
 1391 0334 9200     		lsl	r2, r2, #2
 1392 0336 BA18     		add	r2, r7, r2
 1393 0338 1360     		str	r3, [r2]
1917:.\Generated_Source\PSoC4/Bootloader.c **** 
1918:.\Generated_Source\PSoC4/Bootloader.c ****                         upperRange = Bootloader_NUMBER_OF_ROWS_IN_ARRAY;         
 1394              		.loc 1 1918 0
 1395 033a C623     		mov	r3, #198
 1396 033c 9B00     		lsl	r3, r3, #2
 1397 033e FB18     		add	r3, r7, r3
 1398 0340 8022     		mov	r2, #128
 1399 0342 5200     		lsl	r2, r2, #1
 1400 0344 1A80     		strh	r2, [r3]
1919:.\Generated_Source\PSoC4/Bootloader.c ****                         
1920:.\Generated_Source\PSoC4/Bootloader.c ****                         /*Checking if row number is within array address range*/
1921:.\Generated_Source\PSoC4/Bootloader.c ****                         ackCode = Bootloader_CHECK_ROW_NUMBER(rowNum, upperRange);
 1401              		.loc 1 1921 0
 1402 0346 164B     		ldr	r3, .L123+44
 1403 0348 FA18     		add	r2, r7, r3
 1404 034a C623     		mov	r3, #198
 1405 034c 9B00     		lsl	r3, r3, #2
 1406 034e FB18     		add	r3, r7, r3
 1407 0350 1288     		ldrh	r2, [r2]
 1408 0352 1B88     		ldrh	r3, [r3]
 1409 0354 9A42     		cmp	r2, r3
 1410 0356 01D2     		bcs	.L85
 1411              		.loc 1 1921 0 is_stmt 0 discriminator 1
 1412 0358 0022     		mov	r2, #0
 1413 035a 00E0     		b	.L86
 1414              	.L85:
 1415              		.loc 1 1921 0 discriminator 2
 1416 035c 0A22     		mov	r2, #10
 1417              	.L86:
 1418              		.loc 1 1921 0 discriminator 4
 1419 035e 0A4B     		ldr	r3, .L123+20
 1420 0360 FB18     		add	r3, r7, r3
 1421 0362 1A70     		strb	r2, [r3]
1922:.\Generated_Source\PSoC4/Bootloader.c ****                     
1923:.\Generated_Source\PSoC4/Bootloader.c ****                         if (CYRET_SUCCESS != ackCode)
ARM GAS  C:\Users\LUKASC~1\AppData\Local\Temp\ccn8LSRc.s 			page 60


 1422              		.loc 1 1923 0 is_stmt 1 discriminator 4
 1423 0364 084B     		ldr	r3, .L123+20
 1424 0366 FB18     		add	r3, r7, r3
 1425 0368 1B78     		ldrb	r3, [r3]
 1426 036a 002B     		cmp	r3, #0
 1427 036c 1AD0     		beq	.L87
1924:.\Generated_Source\PSoC4/Bootloader.c ****                         {
1925:.\Generated_Source\PSoC4/Bootloader.c ****                             break;
 1428              		.loc 1 1925 0
 1429 036e 00F082FB 		bl	.L68	@ far jump
 1430              	.L124:
 1431 0372 C046     		.align	2
 1432              	.L123:
 1433 0374 C4FCFFFF 		.word	-828
 1434 0378 CFFCFFFF 		.word	-817
 1435 037c 32030000 		.word	818
 1436 0380 31030000 		.word	817
 1437 0384 2F030000 		.word	815
 1438 0388 35030000 		.word	821
 1439 038c 9CFEFFFF 		.word	-356
 1440 0390 1E030000 		.word	798
 1441 0394 36030000 		.word	822
 1442 0398 1D030000 		.word	797
 1443 039c 08000000 		.word	.L71
 1444 03a0 1A030000 		.word	794
 1445              	.L87:
1926:.\Generated_Source\PSoC4/Bootloader.c ****                         }
1927:.\Generated_Source\PSoC4/Bootloader.c ****                         
1928:.\Generated_Source\PSoC4/Bootloader.c ****                         ackCode = Bootloader_VerifyRow(startAddr, dataBuffer, (uint16)CYDEV_FLS_ROW
 1446              		.loc 1 1928 0
 1447 03a4 CB4B     		ldr	r3, .L125
 1448 03a6 FC18     		add	r4, r7, r3
 1449 03a8 C523     		mov	r3, #197
 1450 03aa 9B00     		lsl	r3, r3, #2
 1451 03ac FB18     		add	r3, r7, r3
 1452 03ae 1A68     		ldr	r2, [r3]
 1453 03b0 A823     		mov	r3, #168
 1454 03b2 FB18     		add	r3, r7, r3
 1455 03b4 101C     		mov	r0, r2
 1456 03b6 191C     		mov	r1, r3
 1457 03b8 8022     		mov	r2, #128
 1458 03ba FFF7FEFF 		bl	Bootloader_VerifyRow
 1459 03be 031C     		mov	r3, r0
 1460 03c0 2370     		strb	r3, [r4]
 1461 03c2 04E0     		b	.L81
 1462              	.L84:
1929:.\Generated_Source\PSoC4/Bootloader.c ****                     }
1930:.\Generated_Source\PSoC4/Bootloader.c ****                     else
1931:.\Generated_Source\PSoC4/Bootloader.c ****                     {
1932:.\Generated_Source\PSoC4/Bootloader.c ****                         ackCode = Bootloader_ERR_ARRAY;
 1463              		.loc 1 1932 0
 1464 03c4 C34B     		ldr	r3, .L125
 1465 03c6 FB18     		add	r3, r7, r3
 1466 03c8 0922     		mov	r2, #9
 1467 03ca 1A70     		strb	r2, [r3]
1933:.\Generated_Source\PSoC4/Bootloader.c ****                         break;                     
 1468              		.loc 1 1933 0
ARM GAS  C:\Users\LUKASC~1\AppData\Local\Temp\ccn8LSRc.s 			page 61


 1469 03cc 53E3     		b	.L68
 1470              	.L81:
 1471              	.LBE6:
1934:.\Generated_Source\PSoC4/Bootloader.c ****                     }
1935:.\Generated_Source\PSoC4/Bootloader.c ****                 #endif  /* (!CY_PSOC4) */
1936:.\Generated_Source\PSoC4/Bootloader.c ****                 
1937:.\Generated_Source\PSoC4/Bootloader.c ****                 } 
1938:.\Generated_Source\PSoC4/Bootloader.c ****                 break;
 1472              		.loc 1 1938 0
 1473 03ce 52E3     		b	.L68
 1474              	.L72:
1939:.\Generated_Source\PSoC4/Bootloader.c ****         #endif /*(0u != Bootloader_CMD_VERIFY_ROW_FLS_AVAIL)*/
1940:.\Generated_Source\PSoC4/Bootloader.c **** 
1941:.\Generated_Source\PSoC4/Bootloader.c ****             /***************************************************************************
1942:.\Generated_Source\PSoC4/Bootloader.c ****             *   Get flash size (0x32)
1943:.\Generated_Source\PSoC4/Bootloader.c ****             ***************************************************************************/
1944:.\Generated_Source\PSoC4/Bootloader.c ****             #if(0u != Bootloader_CMD_GET_FLASH_SIZE_AVAIL)
1945:.\Generated_Source\PSoC4/Bootloader.c **** 
1946:.\Generated_Source\PSoC4/Bootloader.c ****                 case Bootloader_COMMAND_REPORT_SIZE:
1947:.\Generated_Source\PSoC4/Bootloader.c **** 
1948:.\Generated_Source\PSoC4/Bootloader.c ****                     /* btldrData - holds flash array ID sent by host */
1949:.\Generated_Source\PSoC4/Bootloader.c ****                     if((Bootloader_COMMUNICATION_STATE_ACTIVE == communicationState) && (pktSize ==
 1475              		.loc 1 1949 0
 1476 03d0 C14B     		ldr	r3, .L125+4
 1477 03d2 FB18     		add	r3, r7, r3
 1478 03d4 1B78     		ldrb	r3, [r3]
 1479 03d6 012B     		cmp	r3, #1
 1480 03d8 66D1     		bne	.L88
 1481              		.loc 1 1949 0 is_stmt 0 discriminator 1
 1482 03da C04B     		ldr	r3, .L125+8
 1483 03dc FB18     		add	r3, r7, r3
 1484 03de 1B88     		ldrh	r3, [r3]
 1485 03e0 012B     		cmp	r3, #1
 1486 03e2 61D1     		bne	.L88
1950:.\Generated_Source\PSoC4/Bootloader.c ****                     {
1951:.\Generated_Source\PSoC4/Bootloader.c ****                         if(btldrData < CY_FLASH_NUMBER_ARRAYS)
 1487              		.loc 1 1951 0 is_stmt 1
 1488 03e4 BE4B     		ldr	r3, .L125+12
 1489 03e6 FB18     		add	r3, r7, r3
 1490 03e8 1B78     		ldrb	r3, [r3]
 1491 03ea 002B     		cmp	r3, #0
 1492 03ec 5CD1     		bne	.L88
 1493              	.LBB7:
1952:.\Generated_Source\PSoC4/Bootloader.c ****                         {
1953:.\Generated_Source\PSoC4/Bootloader.c ****                             uint16 CYDATA startRow;
1954:.\Generated_Source\PSoC4/Bootloader.c ****                             uint8  CYDATA arrayIdBtlderEnds;
1955:.\Generated_Source\PSoC4/Bootloader.c **** 
1956:.\Generated_Source\PSoC4/Bootloader.c ****                             /**********************************************************************
1957:.\Generated_Source\PSoC4/Bootloader.c ****                             * - For the flash array where the Bootloader application ends, returns 
1958:.\Generated_Source\PSoC4/Bootloader.c ****                             *   full row after the Bootloader application.
1959:.\Generated_Source\PSoC4/Bootloader.c ****                             *
1960:.\Generated_Source\PSoC4/Bootloader.c ****                             * - For a fully occupied flash array, the number of rows in the array i
1961:.\Generated_Source\PSoC4/Bootloader.c ****                             *   because there is no space for the Bootloadable application in this 
1962:.\Generated_Source\PSoC4/Bootloader.c ****                             *
1963:.\Generated_Source\PSoC4/Bootloader.c ****                             * - For the arrays next to the occupied array, zero is returned.
1964:.\Generated_Source\PSoC4/Bootloader.c ****                             *   The Bootloadable application can be written from those arrays begin
1965:.\Generated_Source\PSoC4/Bootloader.c ****                             *
ARM GAS  C:\Users\LUKASC~1\AppData\Local\Temp\ccn8LSRc.s 			page 62


1966:.\Generated_Source\PSoC4/Bootloader.c ****                             *   If this is a Bootloader that is located in an application (Combinat
1967:.\Generated_Source\PSoC4/Bootloader.c ****                             *   then we do not use the Bootloader_SizeBytes and Bootloader_SizeByte
1968:.\Generated_Source\PSoC4/Bootloader.c ****                             *   variables, instead we take the Launcher's last row from metadata.
1969:.\Generated_Source\PSoC4/Bootloader.c ****                             ***********************************************************************
1970:.\Generated_Source\PSoC4/Bootloader.c ****                         #if (CYDEV_PROJ_TYPE != CYDEV_PROJ_TYPE_LOADABLEANDBOOTLOADER) 
1971:.\Generated_Source\PSoC4/Bootloader.c ****                             arrayIdBtlderEnds = (uint8) (*Bootloader_SizeBytesAccess / CY_FLASH_SIZ
 1494              		.loc 1 1971 0
 1495 03ee BD4B     		ldr	r3, .L125+16
 1496 03f0 1B68     		ldr	r3, [r3]
 1497 03f2 1B68     		ldr	r3, [r3]
 1498 03f4 DA0B     		lsr	r2, r3, #15
 1499 03f6 BC4B     		ldr	r3, .L125+20
 1500 03f8 FB18     		add	r3, r7, r3
 1501 03fa 1A70     		strb	r2, [r3]
1972:.\Generated_Source\PSoC4/Bootloader.c **** 
1973:.\Generated_Source\PSoC4/Bootloader.c ****                             if (btldrData == arrayIdBtlderEnds)
 1502              		.loc 1 1973 0
 1503 03fc B84B     		ldr	r3, .L125+12
 1504 03fe FA18     		add	r2, r7, r3
 1505 0400 B94B     		ldr	r3, .L125+20
 1506 0402 FB18     		add	r3, r7, r3
 1507 0404 1278     		ldrb	r2, [r2]
 1508 0406 1B78     		ldrb	r3, [r3]
 1509 0408 9A42     		cmp	r2, r3
 1510 040a 0AD1     		bne	.L89
1974:.\Generated_Source\PSoC4/Bootloader.c ****                             {
1975:.\Generated_Source\PSoC4/Bootloader.c ****                                 startRow = (uint16) (*Bootloader_SizeBytesAccess / CY_FLASH_SIZEOF_
 1511              		.loc 1 1975 0
 1512 040c B54B     		ldr	r3, .L125+16
 1513 040e 1B68     		ldr	r3, [r3]
 1514 0410 1B68     		ldr	r3, [r3]
 1515 0412 DB09     		lsr	r3, r3, #7
 1516 0414 9AB2     		uxth	r2, r3
 1517 0416 B54B     		ldr	r3, .L125+24
 1518 0418 FB18     		add	r3, r7, r3
 1519 041a FF21     		mov	r1, #255
 1520 041c 0A40     		and	r2, r1
 1521 041e 1A80     		strh	r2, [r3]
 1522 0420 11E0     		b	.L90
 1523              	.L89:
1976:.\Generated_Source\PSoC4/Bootloader.c ****                                             Bootloader_NUMBER_OF_ROWS_IN_ARRAY;
1977:.\Generated_Source\PSoC4/Bootloader.c ****                             }
1978:.\Generated_Source\PSoC4/Bootloader.c ****                         #else /*Combination project type*/   
1979:.\Generated_Source\PSoC4/Bootloader.c ****                             btldrLastRow = (uint16)(Bootloader_GetMetadata(Bootloader_GET_BTLDR_LAS
1980:.\Generated_Source\PSoC4/Bootloader.c ****                                                                                 Bootloader_MD_BTLDB
1981:.\Generated_Source\PSoC4/Bootloader.c ****                             arrayIdBtlderEnds = (uint8) (((uint32)btldrLastRow * CY_FLASH_SIZEOF_RO
1982:.\Generated_Source\PSoC4/Bootloader.c ****                             if (btldrData == arrayIdBtlderEnds)
1983:.\Generated_Source\PSoC4/Bootloader.c ****                             {
1984:.\Generated_Source\PSoC4/Bootloader.c ****                                 startRow = (uint16)((btldrLastRow) % Bootloader_NUMBER_OF_ROWS_IN_A
1985:.\Generated_Source\PSoC4/Bootloader.c ****                             }
1986:.\Generated_Source\PSoC4/Bootloader.c ****                         #endif /*(CYDEV_PROJ_TYPE != CYDEV_PROJ_TYPE_LOADABLEANDBOOTLOADER)*/
1987:.\Generated_Source\PSoC4/Bootloader.c ****                         
1988:.\Generated_Source\PSoC4/Bootloader.c ****                             else if (btldrData > arrayIdBtlderEnds)
 1524              		.loc 1 1988 0
 1525 0422 AF4B     		ldr	r3, .L125+12
 1526 0424 FA18     		add	r2, r7, r3
 1527 0426 B04B     		ldr	r3, .L125+20
ARM GAS  C:\Users\LUKASC~1\AppData\Local\Temp\ccn8LSRc.s 			page 63


 1528 0428 FB18     		add	r3, r7, r3
 1529 042a 1278     		ldrb	r2, [r2]
 1530 042c 1B78     		ldrb	r3, [r3]
 1531 042e 9A42     		cmp	r2, r3
 1532 0430 04D9     		bls	.L91
1989:.\Generated_Source\PSoC4/Bootloader.c ****                             {
1990:.\Generated_Source\PSoC4/Bootloader.c ****                                 startRow = Bootloader_FIRST_ROW_IN_ARRAY;
 1533              		.loc 1 1990 0
 1534 0432 AE4B     		ldr	r3, .L125+24
 1535 0434 FB18     		add	r3, r7, r3
 1536 0436 0022     		mov	r2, #0
 1537 0438 1A80     		strh	r2, [r3]
 1538 043a 04E0     		b	.L90
 1539              	.L91:
1991:.\Generated_Source\PSoC4/Bootloader.c ****                             }
1992:.\Generated_Source\PSoC4/Bootloader.c ****                             else /* (btldrData < ArrayIdBtlderEnds) */
1993:.\Generated_Source\PSoC4/Bootloader.c ****                             {
1994:.\Generated_Source\PSoC4/Bootloader.c ****                                 startRow = Bootloader_NUMBER_OF_ROWS_IN_ARRAY;
 1540              		.loc 1 1994 0
 1541 043c AB4B     		ldr	r3, .L125+24
 1542 043e FB18     		add	r3, r7, r3
 1543 0440 8022     		mov	r2, #128
 1544 0442 5200     		lsl	r2, r2, #1
 1545 0444 1A80     		strh	r2, [r3]
 1546              	.L90:
1995:.\Generated_Source\PSoC4/Bootloader.c ****                             }
1996:.\Generated_Source\PSoC4/Bootloader.c **** 
1997:.\Generated_Source\PSoC4/Bootloader.c ****                             packetBuffer[Bootloader_DATA_ADDR]      = LO8(startRow);
 1547              		.loc 1 1997 0
 1548 0446 A94B     		ldr	r3, .L125+24
 1549 0448 FB18     		add	r3, r7, r3
 1550 044a 1B88     		ldrh	r3, [r3]
 1551 044c DAB2     		uxtb	r2, r3
 1552 044e A84B     		ldr	r3, .L125+28
 1553 0450 CE21     		mov	r1, #206
 1554 0452 8900     		lsl	r1, r1, #2
 1555 0454 8C46     		mov	ip, r1
 1556 0456 BC44     		add	ip, ip, r7
 1557 0458 6344     		add	r3, r3, ip
 1558 045a 1A71     		strb	r2, [r3, #4]
1998:.\Generated_Source\PSoC4/Bootloader.c ****                             packetBuffer[Bootloader_DATA_ADDR + 1u] = HI8(startRow);
 1559              		.loc 1 1998 0
 1560 045c A34B     		ldr	r3, .L125+24
 1561 045e FB18     		add	r3, r7, r3
 1562 0460 1B88     		ldrh	r3, [r3]
 1563 0462 1B0A     		lsr	r3, r3, #8
 1564 0464 9BB2     		uxth	r3, r3
 1565 0466 DAB2     		uxtb	r2, r3
 1566 0468 A14B     		ldr	r3, .L125+28
 1567 046a CE21     		mov	r1, #206
 1568 046c 8900     		lsl	r1, r1, #2
 1569 046e 8C46     		mov	ip, r1
 1570 0470 BC44     		add	ip, ip, r7
 1571 0472 6344     		add	r3, r3, ip
 1572 0474 5A71     		strb	r2, [r3, #5]
1999:.\Generated_Source\PSoC4/Bootloader.c **** 
2000:.\Generated_Source\PSoC4/Bootloader.c ****                             packetBuffer[Bootloader_DATA_ADDR + 2u] =
ARM GAS  C:\Users\LUKASC~1\AppData\Local\Temp\ccn8LSRc.s 			page 64


 1573              		.loc 1 2000 0
 1574 0476 9E4B     		ldr	r3, .L125+28
 1575 0478 CE22     		mov	r2, #206
 1576 047a 9200     		lsl	r2, r2, #2
 1577 047c 9446     		mov	ip, r2
 1578 047e BC44     		add	ip, ip, r7
 1579 0480 6344     		add	r3, r3, ip
 1580 0482 FF22     		mov	r2, #255
 1581 0484 9A71     		strb	r2, [r3, #6]
2001:.\Generated_Source\PSoC4/Bootloader.c ****                                         LO8(Bootloader_NUMBER_OF_ROWS_IN_ARRAY - 1u);
2002:.\Generated_Source\PSoC4/Bootloader.c **** 
2003:.\Generated_Source\PSoC4/Bootloader.c ****                             packetBuffer[Bootloader_DATA_ADDR + 3u] =
 1582              		.loc 1 2003 0
 1583 0486 9A4B     		ldr	r3, .L125+28
 1584 0488 CE22     		mov	r2, #206
 1585 048a 9200     		lsl	r2, r2, #2
 1586 048c 9446     		mov	ip, r2
 1587 048e BC44     		add	ip, ip, r7
 1588 0490 6344     		add	r3, r3, ip
 1589 0492 0022     		mov	r2, #0
 1590 0494 DA71     		strb	r2, [r3, #7]
2004:.\Generated_Source\PSoC4/Bootloader.c ****                                         HI8(Bootloader_NUMBER_OF_ROWS_IN_ARRAY - 1u);
2005:.\Generated_Source\PSoC4/Bootloader.c **** 
2006:.\Generated_Source\PSoC4/Bootloader.c ****                             rspSize = Bootloader_RSP_SIZE_GET_FLASH_SIZE;
 1591              		.loc 1 2006 0
 1592 0496 974B     		ldr	r3, .L125+32
 1593 0498 FB18     		add	r3, r7, r3
 1594 049a 0422     		mov	r2, #4
 1595 049c 1A80     		strh	r2, [r3]
2007:.\Generated_Source\PSoC4/Bootloader.c ****                             ackCode = CYRET_SUCCESS;
 1596              		.loc 1 2007 0
 1597 049e 8D4B     		ldr	r3, .L125
 1598 04a0 FB18     		add	r3, r7, r3
 1599 04a2 0022     		mov	r2, #0
 1600 04a4 1A70     		strb	r2, [r3]
 1601              	.LBE7:
2008:.\Generated_Source\PSoC4/Bootloader.c ****                         }
2009:.\Generated_Source\PSoC4/Bootloader.c **** 
2010:.\Generated_Source\PSoC4/Bootloader.c ****                     }
2011:.\Generated_Source\PSoC4/Bootloader.c ****                     break;
 1602              		.loc 1 2011 0
 1603 04a6 E6E2     		b	.L68
 1604              	.L88:
 1605 04a8 E5E2     		b	.L68
 1606              	.L73:
2012:.\Generated_Source\PSoC4/Bootloader.c **** 
2013:.\Generated_Source\PSoC4/Bootloader.c ****             #endif  /* (0u != Bootloader_CMD_GET_FLASH_SIZE_AVAIL) */
2014:.\Generated_Source\PSoC4/Bootloader.c **** 
2015:.\Generated_Source\PSoC4/Bootloader.c **** 
2016:.\Generated_Source\PSoC4/Bootloader.c ****             /***************************************************************************
2017:.\Generated_Source\PSoC4/Bootloader.c ****             *   Get application status (0x33)
