ARM GAS  C:\Users\LUKASC~1\AppData\Local\Temp\ccAn5ShL.s 			page 1


   1              		.cpu cortex-m0
   2              		.fpu softvfp
   3              		.eabi_attribute 20, 1
   4              		.eabi_attribute 21, 1
   5              		.eabi_attribute 23, 3
   6              		.eabi_attribute 24, 1
   7              		.eabi_attribute 25, 1
   8              		.eabi_attribute 26, 1
   9              		.eabi_attribute 30, 6
  10              		.eabi_attribute 34, 0
  11              		.eabi_attribute 18, 4
  12              		.code	16
  13              		.file	"I2C_Slave_I2C_BOOT.c"
  14              		.text
  15              	.Ltext0:
  16              		.cfi_sections	.debug_frame
  17              		.bss
  18              		.align	2
  19              	I2C_Slave_slReadBuf:
  20 0000 00000000 		.space	64
  20      00000000 
  20      00000000 
  20      00000000 
  20      00000000 
  21              		.align	2
  22              	I2C_Slave_slWriteBuf:
  23 0040 00000000 		.space	64
  23      00000000 
  23      00000000 
  23      00000000 
  23      00000000 
  24              		.align	2
  25              	I2C_Slave_applyBuffer:
  26 0080 00000000 		.space	4
  27              		.section	.text.I2C_Slave_I2CCyBtldrCommStart,"ax",%progbits
  28              		.align	2
  29              		.global	I2C_Slave_I2CCyBtldrCommStart
  30              		.code	16
  31              		.thumb_func
  32              		.type	I2C_Slave_I2CCyBtldrCommStart, %function
  33              	I2C_Slave_I2CCyBtldrCommStart:
  34              	.LFB0:
  35              		.file 1 ".\\Generated_Source\\PSoC4\\I2C_Slave_I2C_BOOT.c"
   1:.\Generated_Source\PSoC4/I2C_Slave_I2C_BOOT.c **** /*******************************************************************************
   2:.\Generated_Source\PSoC4/I2C_Slave_I2C_BOOT.c **** * File Name: I2C_Slave_I2C_BOOT.c
   3:.\Generated_Source\PSoC4/I2C_Slave_I2C_BOOT.c **** * Version 3.10
   4:.\Generated_Source\PSoC4/I2C_Slave_I2C_BOOT.c **** *
   5:.\Generated_Source\PSoC4/I2C_Slave_I2C_BOOT.c **** * Description:
   6:.\Generated_Source\PSoC4/I2C_Slave_I2C_BOOT.c **** *  This file provides the source code of the bootloader communication APIs
   7:.\Generated_Source\PSoC4/I2C_Slave_I2C_BOOT.c **** *  for the SCB Component I2C mode.
   8:.\Generated_Source\PSoC4/I2C_Slave_I2C_BOOT.c **** 
   9:.\Generated_Source\PSoC4/I2C_Slave_I2C_BOOT.c **** *
  10:.\Generated_Source\PSoC4/I2C_Slave_I2C_BOOT.c **** * Note:
  11:.\Generated_Source\PSoC4/I2C_Slave_I2C_BOOT.c **** *
  12:.\Generated_Source\PSoC4/I2C_Slave_I2C_BOOT.c **** ********************************************************************************
  13:.\Generated_Source\PSoC4/I2C_Slave_I2C_BOOT.c **** * Copyright 2013-2015, Cypress Semiconductor Corporation.  All rights reserved.
  14:.\Generated_Source\PSoC4/I2C_Slave_I2C_BOOT.c **** * You may use this file only in accordance with the license, terms, conditions,
ARM GAS  C:\Users\LUKASC~1\AppData\Local\Temp\ccAn5ShL.s 			page 2


  15:.\Generated_Source\PSoC4/I2C_Slave_I2C_BOOT.c **** * disclaimers, and limitations in the end user license agreement accompanying
  16:.\Generated_Source\PSoC4/I2C_Slave_I2C_BOOT.c **** * the software package with which this file was provided.
  17:.\Generated_Source\PSoC4/I2C_Slave_I2C_BOOT.c **** *******************************************************************************/
  18:.\Generated_Source\PSoC4/I2C_Slave_I2C_BOOT.c **** 
  19:.\Generated_Source\PSoC4/I2C_Slave_I2C_BOOT.c **** #include "I2C_Slave_BOOT.h"
  20:.\Generated_Source\PSoC4/I2C_Slave_I2C_BOOT.c **** #include "I2C_Slave_I2C_PVT.h"
  21:.\Generated_Source\PSoC4/I2C_Slave_I2C_BOOT.c **** 
  22:.\Generated_Source\PSoC4/I2C_Slave_I2C_BOOT.c **** #if defined(CYDEV_BOOTLOADER_IO_COMP) && (I2C_Slave_I2C_BTLDR_COMM_ENABLED)
  23:.\Generated_Source\PSoC4/I2C_Slave_I2C_BOOT.c **** 
  24:.\Generated_Source\PSoC4/I2C_Slave_I2C_BOOT.c **** /***************************************
  25:.\Generated_Source\PSoC4/I2C_Slave_I2C_BOOT.c **** *    Private I/O Component Vars
  26:.\Generated_Source\PSoC4/I2C_Slave_I2C_BOOT.c **** ***************************************/
  27:.\Generated_Source\PSoC4/I2C_Slave_I2C_BOOT.c **** 
  28:.\Generated_Source\PSoC4/I2C_Slave_I2C_BOOT.c **** /* Writes to this buffer */
  29:.\Generated_Source\PSoC4/I2C_Slave_I2C_BOOT.c **** static uint8 I2C_Slave_slReadBuf[I2C_Slave_I2C_BTLDR_SIZEOF_READ_BUFFER];
  30:.\Generated_Source\PSoC4/I2C_Slave_I2C_BOOT.c **** 
  31:.\Generated_Source\PSoC4/I2C_Slave_I2C_BOOT.c **** /* Reads from this buffer */
  32:.\Generated_Source\PSoC4/I2C_Slave_I2C_BOOT.c **** static uint8 I2C_Slave_slWriteBuf[I2C_Slave_I2C_BTLDR_SIZEOF_WRITE_BUFFER];
  33:.\Generated_Source\PSoC4/I2C_Slave_I2C_BOOT.c **** 
  34:.\Generated_Source\PSoC4/I2C_Slave_I2C_BOOT.c **** /* Flag to release buffer to be read */
  35:.\Generated_Source\PSoC4/I2C_Slave_I2C_BOOT.c **** static uint32 I2C_Slave_applyBuffer;
  36:.\Generated_Source\PSoC4/I2C_Slave_I2C_BOOT.c **** 
  37:.\Generated_Source\PSoC4/I2C_Slave_I2C_BOOT.c **** 
  38:.\Generated_Source\PSoC4/I2C_Slave_I2C_BOOT.c **** /***************************************
  39:.\Generated_Source\PSoC4/I2C_Slave_I2C_BOOT.c **** *    Private Function Prototypes
  40:.\Generated_Source\PSoC4/I2C_Slave_I2C_BOOT.c **** ***************************************/
  41:.\Generated_Source\PSoC4/I2C_Slave_I2C_BOOT.c **** 
  42:.\Generated_Source\PSoC4/I2C_Slave_I2C_BOOT.c **** static void I2C_Slave_I2CResposeInsert(void);
  43:.\Generated_Source\PSoC4/I2C_Slave_I2C_BOOT.c **** 
  44:.\Generated_Source\PSoC4/I2C_Slave_I2C_BOOT.c **** 
  45:.\Generated_Source\PSoC4/I2C_Slave_I2C_BOOT.c **** /*******************************************************************************
  46:.\Generated_Source\PSoC4/I2C_Slave_I2C_BOOT.c **** * Function Name: I2C_Slave_I2CCyBtldrCommStart
  47:.\Generated_Source\PSoC4/I2C_Slave_I2C_BOOT.c **** ********************************************************************************
  48:.\Generated_Source\PSoC4/I2C_Slave_I2C_BOOT.c **** *
  49:.\Generated_Source\PSoC4/I2C_Slave_I2C_BOOT.c **** * Summary:
  50:.\Generated_Source\PSoC4/I2C_Slave_I2C_BOOT.c **** *  Starts the I2C component and enables its interrupt.
  51:.\Generated_Source\PSoC4/I2C_Slave_I2C_BOOT.c **** *  Every incoming I2C write transaction is treated as a command for the
  52:.\Generated_Source\PSoC4/I2C_Slave_I2C_BOOT.c **** *  bootloader.
  53:.\Generated_Source\PSoC4/I2C_Slave_I2C_BOOT.c **** *  Every incoming I2C read transaction returns 0xFF until the bootloader
  54:.\Generated_Source\PSoC4/I2C_Slave_I2C_BOOT.c **** *  provides a response to the executed command.
  55:.\Generated_Source\PSoC4/I2C_Slave_I2C_BOOT.c **** *
  56:.\Generated_Source\PSoC4/I2C_Slave_I2C_BOOT.c **** * Parameters:
  57:.\Generated_Source\PSoC4/I2C_Slave_I2C_BOOT.c **** *  None
  58:.\Generated_Source\PSoC4/I2C_Slave_I2C_BOOT.c **** *
  59:.\Generated_Source\PSoC4/I2C_Slave_I2C_BOOT.c **** * Return:
  60:.\Generated_Source\PSoC4/I2C_Slave_I2C_BOOT.c **** *  None
  61:.\Generated_Source\PSoC4/I2C_Slave_I2C_BOOT.c **** *
  62:.\Generated_Source\PSoC4/I2C_Slave_I2C_BOOT.c **** *******************************************************************************/
  63:.\Generated_Source\PSoC4/I2C_Slave_I2C_BOOT.c **** void I2C_Slave_I2CCyBtldrCommStart(void)
  64:.\Generated_Source\PSoC4/I2C_Slave_I2C_BOOT.c **** {
  36              		.loc 1 64 0
  37              		.cfi_startproc
  38 0000 80B5     		push	{r7, lr}
  39              		.cfi_def_cfa_offset 8
  40              		.cfi_offset 7, -8
  41              		.cfi_offset 14, -4
  42 0002 00AF     		add	r7, sp, #0
ARM GAS  C:\Users\LUKASC~1\AppData\Local\Temp\ccAn5ShL.s 			page 3


  43              		.cfi_def_cfa_register 7
  65:.\Generated_Source\PSoC4/I2C_Slave_I2C_BOOT.c ****     I2C_Slave_I2CSlaveInitWriteBuf(I2C_Slave_slWriteBuf, I2C_Slave_I2C_BTLDR_SIZEOF_WRITE_BUFFER);
  44              		.loc 1 65 0
  45 0004 0A4B     		ldr	r3, .L2
  46 0006 181C     		mov	r0, r3
  47 0008 4021     		mov	r1, #64
  48 000a FFF7FEFF 		bl	I2C_Slave_I2CSlaveInitWriteBuf
  66:.\Generated_Source\PSoC4/I2C_Slave_I2C_BOOT.c ****     I2C_Slave_I2CSlaveInitReadBuf (I2C_Slave_slReadBuf, 0u);
  49              		.loc 1 66 0
  50 000e 094B     		ldr	r3, .L2+4
  51 0010 181C     		mov	r0, r3
  52 0012 0021     		mov	r1, #0
  53 0014 FFF7FEFF 		bl	I2C_Slave_I2CSlaveInitReadBuf
  67:.\Generated_Source\PSoC4/I2C_Slave_I2C_BOOT.c **** 
  68:.\Generated_Source\PSoC4/I2C_Slave_I2C_BOOT.c ****     I2C_Slave_SetCustomInterruptHandler(&I2C_Slave_I2CResposeInsert);
  54              		.loc 1 68 0
  55 0018 074B     		ldr	r3, .L2+8
  56 001a 181C     		mov	r0, r3
  57 001c FFF7FEFF 		bl	I2C_Slave_SetCustomInterruptHandler
  69:.\Generated_Source\PSoC4/I2C_Slave_I2C_BOOT.c ****     I2C_Slave_applyBuffer = 0u;
  58              		.loc 1 69 0
  59 0020 064B     		ldr	r3, .L2+12
  60 0022 0022     		mov	r2, #0
  61 0024 1A60     		str	r2, [r3]
  70:.\Generated_Source\PSoC4/I2C_Slave_I2C_BOOT.c **** 
  71:.\Generated_Source\PSoC4/I2C_Slave_I2C_BOOT.c ****     I2C_Slave_Start();
  62              		.loc 1 71 0
  63 0026 FFF7FEFF 		bl	I2C_Slave_Start
  72:.\Generated_Source\PSoC4/I2C_Slave_I2C_BOOT.c **** }
  64              		.loc 1 72 0
  65 002a BD46     		mov	sp, r7
  66              		@ sp needed
  67 002c 80BD     		pop	{r7, pc}
  68              	.L3:
  69 002e C046     		.align	2
  70              	.L2:
  71 0030 40000000 		.word	I2C_Slave_slWriteBuf
  72 0034 00000000 		.word	I2C_Slave_slReadBuf
  73 0038 00000000 		.word	I2C_Slave_I2CResposeInsert
  74 003c 80000000 		.word	I2C_Slave_applyBuffer
  75              		.cfi_endproc
  76              	.LFE0:
  77              		.size	I2C_Slave_I2CCyBtldrCommStart, .-I2C_Slave_I2CCyBtldrCommStart
  78              		.section	.text.I2C_Slave_I2CCyBtldrCommStop,"ax",%progbits
  79              		.align	2
  80              		.global	I2C_Slave_I2CCyBtldrCommStop
  81              		.code	16
  82              		.thumb_func
  83              		.type	I2C_Slave_I2CCyBtldrCommStop, %function
  84              	I2C_Slave_I2CCyBtldrCommStop:
  85              	.LFB1:
  73:.\Generated_Source\PSoC4/I2C_Slave_I2C_BOOT.c **** 
  74:.\Generated_Source\PSoC4/I2C_Slave_I2C_BOOT.c **** 
  75:.\Generated_Source\PSoC4/I2C_Slave_I2C_BOOT.c **** /*******************************************************************************
  76:.\Generated_Source\PSoC4/I2C_Slave_I2C_BOOT.c **** * Function Name: I2C_Slave_I2CCyBtldrCommStop
  77:.\Generated_Source\PSoC4/I2C_Slave_I2C_BOOT.c **** ********************************************************************************
  78:.\Generated_Source\PSoC4/I2C_Slave_I2C_BOOT.c **** *
ARM GAS  C:\Users\LUKASC~1\AppData\Local\Temp\ccAn5ShL.s 			page 4


  79:.\Generated_Source\PSoC4/I2C_Slave_I2C_BOOT.c **** * Summary:
  80:.\Generated_Source\PSoC4/I2C_Slave_I2C_BOOT.c **** *  Disables the I2C component.
  81:.\Generated_Source\PSoC4/I2C_Slave_I2C_BOOT.c **** *
  82:.\Generated_Source\PSoC4/I2C_Slave_I2C_BOOT.c **** * Parameters:
  83:.\Generated_Source\PSoC4/I2C_Slave_I2C_BOOT.c **** *  None
  84:.\Generated_Source\PSoC4/I2C_Slave_I2C_BOOT.c **** *
  85:.\Generated_Source\PSoC4/I2C_Slave_I2C_BOOT.c **** * Return:
  86:.\Generated_Source\PSoC4/I2C_Slave_I2C_BOOT.c **** *  None
  87:.\Generated_Source\PSoC4/I2C_Slave_I2C_BOOT.c **** *
  88:.\Generated_Source\PSoC4/I2C_Slave_I2C_BOOT.c **** *******************************************************************************/
  89:.\Generated_Source\PSoC4/I2C_Slave_I2C_BOOT.c **** void I2C_Slave_I2CCyBtldrCommStop(void)
  90:.\Generated_Source\PSoC4/I2C_Slave_I2C_BOOT.c **** {
  86              		.loc 1 90 0
  87              		.cfi_startproc
  88 0000 80B5     		push	{r7, lr}
  89              		.cfi_def_cfa_offset 8
  90              		.cfi_offset 7, -8
  91              		.cfi_offset 14, -4
  92 0002 00AF     		add	r7, sp, #0
  93              		.cfi_def_cfa_register 7
  91:.\Generated_Source\PSoC4/I2C_Slave_I2C_BOOT.c ****     I2C_Slave_Stop();
  94              		.loc 1 91 0
  95 0004 FFF7FEFF 		bl	I2C_Slave_Stop
  92:.\Generated_Source\PSoC4/I2C_Slave_I2C_BOOT.c **** }
  96              		.loc 1 92 0
  97 0008 BD46     		mov	sp, r7
  98              		@ sp needed
  99 000a 80BD     		pop	{r7, pc}
 100              		.cfi_endproc
 101              	.LFE1:
 102              		.size	I2C_Slave_I2CCyBtldrCommStop, .-I2C_Slave_I2CCyBtldrCommStop
 103              		.section	.text.I2C_Slave_I2CCyBtldrCommReset,"ax",%progbits
 104              		.align	2
 105              		.global	I2C_Slave_I2CCyBtldrCommReset
 106              		.code	16
 107              		.thumb_func
 108              		.type	I2C_Slave_I2CCyBtldrCommReset, %function
 109              	I2C_Slave_I2CCyBtldrCommReset:
 110              	.LFB2:
  93:.\Generated_Source\PSoC4/I2C_Slave_I2C_BOOT.c **** 
  94:.\Generated_Source\PSoC4/I2C_Slave_I2C_BOOT.c **** 
  95:.\Generated_Source\PSoC4/I2C_Slave_I2C_BOOT.c **** /*******************************************************************************
  96:.\Generated_Source\PSoC4/I2C_Slave_I2C_BOOT.c **** * Function Name: I2C_Slave_I2CCyBtldrCommReset
  97:.\Generated_Source\PSoC4/I2C_Slave_I2C_BOOT.c **** ********************************************************************************
  98:.\Generated_Source\PSoC4/I2C_Slave_I2C_BOOT.c **** *
  99:.\Generated_Source\PSoC4/I2C_Slave_I2C_BOOT.c **** * Summary:
 100:.\Generated_Source\PSoC4/I2C_Slave_I2C_BOOT.c **** *  Resets read and write I2C buffers to the initial state and resets the slave
 101:.\Generated_Source\PSoC4/I2C_Slave_I2C_BOOT.c **** *  status.
 102:.\Generated_Source\PSoC4/I2C_Slave_I2C_BOOT.c **** *
 103:.\Generated_Source\PSoC4/I2C_Slave_I2C_BOOT.c **** * Parameters:
 104:.\Generated_Source\PSoC4/I2C_Slave_I2C_BOOT.c **** *  None
 105:.\Generated_Source\PSoC4/I2C_Slave_I2C_BOOT.c **** *
 106:.\Generated_Source\PSoC4/I2C_Slave_I2C_BOOT.c **** * Return:
 107:.\Generated_Source\PSoC4/I2C_Slave_I2C_BOOT.c **** *  None
 108:.\Generated_Source\PSoC4/I2C_Slave_I2C_BOOT.c **** *
 109:.\Generated_Source\PSoC4/I2C_Slave_I2C_BOOT.c **** * Global variables:
 110:.\Generated_Source\PSoC4/I2C_Slave_I2C_BOOT.c **** *  Refer to functions below for global variables description.
ARM GAS  C:\Users\LUKASC~1\AppData\Local\Temp\ccAn5ShL.s 			page 5


 111:.\Generated_Source\PSoC4/I2C_Slave_I2C_BOOT.c **** *
 112:.\Generated_Source\PSoC4/I2C_Slave_I2C_BOOT.c **** *******************************************************************************/
 113:.\Generated_Source\PSoC4/I2C_Slave_I2C_BOOT.c **** void I2C_Slave_I2CCyBtldrCommReset(void)
 114:.\Generated_Source\PSoC4/I2C_Slave_I2C_BOOT.c **** {
 111              		.loc 1 114 0
 112              		.cfi_startproc
 113 0000 80B5     		push	{r7, lr}
 114              		.cfi_def_cfa_offset 8
 115              		.cfi_offset 7, -8
 116              		.cfi_offset 14, -4
 117 0002 00AF     		add	r7, sp, #0
 118              		.cfi_def_cfa_register 7
 115:.\Generated_Source\PSoC4/I2C_Slave_I2C_BOOT.c ****     /* Make read buffer full */
 116:.\Generated_Source\PSoC4/I2C_Slave_I2C_BOOT.c ****     I2C_Slave_slRdBufSize = 0u;
 119              		.loc 1 116 0
 120 0004 064B     		ldr	r3, .L6
 121 0006 0022     		mov	r2, #0
 122 0008 1A60     		str	r2, [r3]
 117:.\Generated_Source\PSoC4/I2C_Slave_I2C_BOOT.c **** 
 118:.\Generated_Source\PSoC4/I2C_Slave_I2C_BOOT.c ****     /* Reset write buffer and Read buffer */
 119:.\Generated_Source\PSoC4/I2C_Slave_I2C_BOOT.c ****     I2C_Slave_slRdBufIndex = 0u;
 123              		.loc 1 119 0
 124 000a 064B     		ldr	r3, .L6+4
 125 000c 0022     		mov	r2, #0
 126 000e 1A60     		str	r2, [r3]
 120:.\Generated_Source\PSoC4/I2C_Slave_I2C_BOOT.c ****     I2C_Slave_slWrBufIndex = 0u;
 127              		.loc 1 120 0
 128 0010 054B     		ldr	r3, .L6+8
 129 0012 0022     		mov	r2, #0
 130 0014 1A60     		str	r2, [r3]
 121:.\Generated_Source\PSoC4/I2C_Slave_I2C_BOOT.c **** 
 122:.\Generated_Source\PSoC4/I2C_Slave_I2C_BOOT.c ****     /* Clear read and write status */
 123:.\Generated_Source\PSoC4/I2C_Slave_I2C_BOOT.c ****     I2C_Slave_slStatus = 0u;
 131              		.loc 1 123 0
 132 0016 054B     		ldr	r3, .L6+12
 133 0018 0022     		mov	r2, #0
 134 001a 1A70     		strb	r2, [r3]
 124:.\Generated_Source\PSoC4/I2C_Slave_I2C_BOOT.c **** }
 135              		.loc 1 124 0
 136 001c BD46     		mov	sp, r7
 137              		@ sp needed
 138 001e 80BD     		pop	{r7, pc}
 139              	.L7:
 140              		.align	2
 141              	.L6:
 142 0020 00000000 		.word	I2C_Slave_slRdBufSize
 143 0024 00000000 		.word	I2C_Slave_slRdBufIndex
 144 0028 00000000 		.word	I2C_Slave_slWrBufIndex
 145 002c 00000000 		.word	I2C_Slave_slStatus
 146              		.cfi_endproc
 147              	.LFE2:
 148              		.size	I2C_Slave_I2CCyBtldrCommReset, .-I2C_Slave_I2CCyBtldrCommReset
 149              		.section	.text.I2C_Slave_I2CCyBtldrCommRead,"ax",%progbits
 150              		.align	2
 151              		.global	I2C_Slave_I2CCyBtldrCommRead
 152              		.code	16
 153              		.thumb_func
ARM GAS  C:\Users\LUKASC~1\AppData\Local\Temp\ccAn5ShL.s 			page 6


 154              		.type	I2C_Slave_I2CCyBtldrCommRead, %function
 155              	I2C_Slave_I2CCyBtldrCommRead:
 156              	.LFB3:
 125:.\Generated_Source\PSoC4/I2C_Slave_I2C_BOOT.c **** 
 126:.\Generated_Source\PSoC4/I2C_Slave_I2C_BOOT.c **** 
 127:.\Generated_Source\PSoC4/I2C_Slave_I2C_BOOT.c **** /*******************************************************************************
 128:.\Generated_Source\PSoC4/I2C_Slave_I2C_BOOT.c **** * Function Name: I2C_Slave_I2CCyBtldrCommRead
 129:.\Generated_Source\PSoC4/I2C_Slave_I2C_BOOT.c **** ********************************************************************************
 130:.\Generated_Source\PSoC4/I2C_Slave_I2C_BOOT.c **** *
 131:.\Generated_Source\PSoC4/I2C_Slave_I2C_BOOT.c **** * Summary:
 132:.\Generated_Source\PSoC4/I2C_Slave_I2C_BOOT.c **** *  Allows the caller to read data from the bootloader host (the host writes the
 133:.\Generated_Source\PSoC4/I2C_Slave_I2C_BOOT.c **** *  data). The function handles polling to allow a block of data to be completely
 134:.\Generated_Source\PSoC4/I2C_Slave_I2C_BOOT.c **** *  received from the host device.
 135:.\Generated_Source\PSoC4/I2C_Slave_I2C_BOOT.c **** *
 136:.\Generated_Source\PSoC4/I2C_Slave_I2C_BOOT.c **** * Parameters:
 137:.\Generated_Source\PSoC4/I2C_Slave_I2C_BOOT.c **** *  pData:    Pointer to storage for the block of data to be read from the
 138:.\Generated_Source\PSoC4/I2C_Slave_I2C_BOOT.c **** *            bootloader host
 139:.\Generated_Source\PSoC4/I2C_Slave_I2C_BOOT.c **** *  size:     Number of bytes to be read.
 140:.\Generated_Source\PSoC4/I2C_Slave_I2C_BOOT.c **** *  count:    Pointer to the variable to write the number of bytes actually
 141:.\Generated_Source\PSoC4/I2C_Slave_I2C_BOOT.c **** *            read.
 142:.\Generated_Source\PSoC4/I2C_Slave_I2C_BOOT.c **** *  timeOut:  Number of units in 10 ms to wait before returning because of a
 143:.\Generated_Source\PSoC4/I2C_Slave_I2C_BOOT.c **** *            timeout.
 144:.\Generated_Source\PSoC4/I2C_Slave_I2C_BOOT.c **** *
 145:.\Generated_Source\PSoC4/I2C_Slave_I2C_BOOT.c **** * Return:
 146:.\Generated_Source\PSoC4/I2C_Slave_I2C_BOOT.c **** *  Returns CYRET_SUCCESS if no problem was encountered or returns the value
 147:.\Generated_Source\PSoC4/I2C_Slave_I2C_BOOT.c **** *  that best describes the problem. For more information refer to the
 148:.\Generated_Source\PSoC4/I2C_Slave_I2C_BOOT.c **** *  "Return Codes" section of the System Reference Guide.
 149:.\Generated_Source\PSoC4/I2C_Slave_I2C_BOOT.c **** *
 150:.\Generated_Source\PSoC4/I2C_Slave_I2C_BOOT.c **** * Global variables:
 151:.\Generated_Source\PSoC4/I2C_Slave_I2C_BOOT.c **** *  I2C_Slave_slWriteBuf - used to store received command.
 152:.\Generated_Source\PSoC4/I2C_Slave_I2C_BOOT.c **** *  I2C_Slave_slWrBufIndex - used to store current index within slave
 153:.\Generated_Source\PSoC4/I2C_Slave_I2C_BOOT.c **** *  write buffer.
 154:.\Generated_Source\PSoC4/I2C_Slave_I2C_BOOT.c **** *
 155:.\Generated_Source\PSoC4/I2C_Slave_I2C_BOOT.c **** *******************************************************************************/
 156:.\Generated_Source\PSoC4/I2C_Slave_I2C_BOOT.c **** cystatus I2C_Slave_I2CCyBtldrCommRead(uint8 pData[], uint16 size, uint16 * count, uint8 timeOut)
 157:.\Generated_Source\PSoC4/I2C_Slave_I2C_BOOT.c **** {
 157              		.loc 1 157 0
 158              		.cfi_startproc
 159 0000 90B5     		push	{r4, r7, lr}
 160              		.cfi_def_cfa_offset 12
 161              		.cfi_offset 4, -12
 162              		.cfi_offset 7, -8
 163              		.cfi_offset 14, -4
 164 0002 87B0     		sub	sp, sp, #28
 165              		.cfi_def_cfa_offset 40
 166 0004 00AF     		add	r7, sp, #0
 167              		.cfi_def_cfa_register 7
 168 0006 F860     		str	r0, [r7, #12]
 169 0008 081C     		mov	r0, r1
 170 000a 7A60     		str	r2, [r7, #4]
 171 000c 191C     		mov	r1, r3
 172 000e 0A23     		mov	r3, #10
 173 0010 FB18     		add	r3, r7, r3
 174 0012 021C     		add	r2, r0, #0
 175 0014 1A80     		strh	r2, [r3]
 176 0016 0923     		mov	r3, #9
 177 0018 FB18     		add	r3, r7, r3
ARM GAS  C:\Users\LUKASC~1\AppData\Local\Temp\ccAn5ShL.s 			page 7


 178 001a 0A1C     		add	r2, r1, #0
 179 001c 1A70     		strb	r2, [r3]
 158:.\Generated_Source\PSoC4/I2C_Slave_I2C_BOOT.c ****     cystatus status;
 159:.\Generated_Source\PSoC4/I2C_Slave_I2C_BOOT.c ****     uint32 timeoutMs;
 160:.\Generated_Source\PSoC4/I2C_Slave_I2C_BOOT.c **** 
 161:.\Generated_Source\PSoC4/I2C_Slave_I2C_BOOT.c ****     status = CYRET_BAD_PARAM;
 180              		.loc 1 161 0
 181 001e 0123     		mov	r3, #1
 182 0020 7B61     		str	r3, [r7, #20]
 162:.\Generated_Source\PSoC4/I2C_Slave_I2C_BOOT.c **** 
 163:.\Generated_Source\PSoC4/I2C_Slave_I2C_BOOT.c ****     if ((NULL != pData) && (size > 0u))
 183              		.loc 1 163 0
 184 0022 FB68     		ldr	r3, [r7, #12]
 185 0024 002B     		cmp	r3, #0
 186 0026 42D0     		beq	.L9
 187              		.loc 1 163 0 is_stmt 0 discriminator 1
 188 0028 0A23     		mov	r3, #10
 189 002a FB18     		add	r3, r7, r3
 190 002c 1B88     		ldrh	r3, [r3]
 191 002e 002B     		cmp	r3, #0
 192 0030 3DD0     		beq	.L9
 164:.\Generated_Source\PSoC4/I2C_Slave_I2C_BOOT.c ****     {
 165:.\Generated_Source\PSoC4/I2C_Slave_I2C_BOOT.c ****         status = CYRET_TIMEOUT;
 193              		.loc 1 165 0 is_stmt 1
 194 0032 1023     		mov	r3, #16
 195 0034 7B61     		str	r3, [r7, #20]
 166:.\Generated_Source\PSoC4/I2C_Slave_I2C_BOOT.c ****         timeoutMs = ((uint32) 10u * timeOut); /* Convert from 10mS check to 1mS checks */
 196              		.loc 1 166 0
 197 0036 0923     		mov	r3, #9
 198 0038 FB18     		add	r3, r7, r3
 199 003a 1A78     		ldrb	r2, [r3]
 200 003c 131C     		mov	r3, r2
 201 003e 9B00     		lsl	r3, r3, #2
 202 0040 9B18     		add	r3, r3, r2
 203 0042 5B00     		lsl	r3, r3, #1
 204 0044 3B61     		str	r3, [r7, #16]
 167:.\Generated_Source\PSoC4/I2C_Slave_I2C_BOOT.c **** 
 168:.\Generated_Source\PSoC4/I2C_Slave_I2C_BOOT.c ****         while (0u != timeoutMs)
 205              		.loc 1 168 0
 206 0046 2FE0     		b	.L10
 207              	.L13:
 169:.\Generated_Source\PSoC4/I2C_Slave_I2C_BOOT.c ****         {
 170:.\Generated_Source\PSoC4/I2C_Slave_I2C_BOOT.c ****             /* Check if host complete write */
 171:.\Generated_Source\PSoC4/I2C_Slave_I2C_BOOT.c ****             if (0u != (I2C_Slave_I2C_SSTAT_WR_CMPLT & I2C_Slave_slStatus))
 208              		.loc 1 171 0
 209 0048 1B4B     		ldr	r3, .L15
 210 004a 1B78     		ldrb	r3, [r3]
 211 004c DBB2     		uxtb	r3, r3
 212 004e 1022     		mov	r2, #16
 213 0050 1340     		and	r3, r2
 214 0052 DBB2     		uxtb	r3, r3
 215 0054 002B     		cmp	r3, #0
 216 0056 21D0     		beq	.L11
 172:.\Generated_Source\PSoC4/I2C_Slave_I2C_BOOT.c ****             {
 173:.\Generated_Source\PSoC4/I2C_Slave_I2C_BOOT.c ****                 /* Copy number of written bytes */
 174:.\Generated_Source\PSoC4/I2C_Slave_I2C_BOOT.c ****                 *count = (uint16) I2C_Slave_slWrBufIndex;
 217              		.loc 1 174 0
ARM GAS  C:\Users\LUKASC~1\AppData\Local\Temp\ccAn5ShL.s 			page 8


 218 0058 184B     		ldr	r3, .L15+4
 219 005a 1B68     		ldr	r3, [r3]
 220 005c 9AB2     		uxth	r2, r3
 221 005e 7B68     		ldr	r3, [r7, #4]
 222 0060 1A80     		strh	r2, [r3]
 175:.\Generated_Source\PSoC4/I2C_Slave_I2C_BOOT.c **** 
 176:.\Generated_Source\PSoC4/I2C_Slave_I2C_BOOT.c ****                 /* Clear slave status and write index */
 177:.\Generated_Source\PSoC4/I2C_Slave_I2C_BOOT.c ****                 I2C_Slave_slStatus = 0u;
 223              		.loc 1 177 0
 224 0062 154B     		ldr	r3, .L15
 225 0064 0022     		mov	r2, #0
 226 0066 1A70     		strb	r2, [r3]
 178:.\Generated_Source\PSoC4/I2C_Slave_I2C_BOOT.c ****                 I2C_Slave_slWrBufIndex = 0u;
 227              		.loc 1 178 0
 228 0068 144B     		ldr	r3, .L15+4
 229 006a 0022     		mov	r2, #0
 230 006c 1A60     		str	r2, [r3]
 179:.\Generated_Source\PSoC4/I2C_Slave_I2C_BOOT.c **** 
 180:.\Generated_Source\PSoC4/I2C_Slave_I2C_BOOT.c ****                 /* Copy command into bootloader buffer */
 181:.\Generated_Source\PSoC4/I2C_Slave_I2C_BOOT.c ****                 (void) memcpy((void *) pData, (const void *) I2C_Slave_slWriteBuf,
 182:.\Generated_Source\PSoC4/I2C_Slave_I2C_BOOT.c ****                                               I2C_Slave_BYTES_TO_COPY(*count, size));
 231              		.loc 1 182 0
 232 006e 7B68     		ldr	r3, [r7, #4]
 233 0070 1A88     		ldrh	r2, [r3]
 234 0072 0A23     		mov	r3, #10
 235 0074 FB18     		add	r3, r7, r3
 236 0076 1988     		ldrh	r1, [r3]
 237 0078 101C     		add	r0, r2, #0
 238 007a 82B2     		uxth	r2, r0
 239 007c 8BB2     		uxth	r3, r1
 240 007e 9A42     		cmp	r2, r3
 241 0080 00D9     		bls	.L12
 242 0082 081C     		add	r0, r1, #0
 243              	.L12:
 244 0084 83B2     		uxth	r3, r0
 181:.\Generated_Source\PSoC4/I2C_Slave_I2C_BOOT.c ****                                               I2C_Slave_BYTES_TO_COPY(*count, size));
 245              		.loc 1 181 0
 246 0086 1C1C     		mov	r4, r3
 247 0088 FA68     		ldr	r2, [r7, #12]
 248 008a 0D4B     		ldr	r3, .L15+8
 249 008c 101C     		mov	r0, r2
 250 008e 191C     		mov	r1, r3
 251 0090 221C     		mov	r2, r4
 252 0092 FFF7FEFF 		bl	memcpy
 183:.\Generated_Source\PSoC4/I2C_Slave_I2C_BOOT.c **** 
 184:.\Generated_Source\PSoC4/I2C_Slave_I2C_BOOT.c ****                 status = CYRET_SUCCESS;
 253              		.loc 1 184 0
 254 0096 0023     		mov	r3, #0
 255 0098 7B61     		str	r3, [r7, #20]
 185:.\Generated_Source\PSoC4/I2C_Slave_I2C_BOOT.c ****                 break;
 256              		.loc 1 185 0
 257 009a 08E0     		b	.L9
 258              	.L11:
 186:.\Generated_Source\PSoC4/I2C_Slave_I2C_BOOT.c ****             }
 187:.\Generated_Source\PSoC4/I2C_Slave_I2C_BOOT.c **** 
 188:.\Generated_Source\PSoC4/I2C_Slave_I2C_BOOT.c ****             CyDelay(I2C_Slave_WAIT_1_MS);
 259              		.loc 1 188 0
ARM GAS  C:\Users\LUKASC~1\AppData\Local\Temp\ccAn5ShL.s 			page 9


 260 009c 0120     		mov	r0, #1
 261 009e FFF7FEFF 		bl	CyDelay
 189:.\Generated_Source\PSoC4/I2C_Slave_I2C_BOOT.c ****             --timeoutMs;
 262              		.loc 1 189 0
 263 00a2 3B69     		ldr	r3, [r7, #16]
 264 00a4 013B     		sub	r3, r3, #1
 265 00a6 3B61     		str	r3, [r7, #16]
 266              	.L10:
 168:.\Generated_Source\PSoC4/I2C_Slave_I2C_BOOT.c ****         {
 267              		.loc 1 168 0
 268 00a8 3B69     		ldr	r3, [r7, #16]
 269 00aa 002B     		cmp	r3, #0
 270 00ac CCD1     		bne	.L13
 271              	.L9:
 190:.\Generated_Source\PSoC4/I2C_Slave_I2C_BOOT.c ****         }
 191:.\Generated_Source\PSoC4/I2C_Slave_I2C_BOOT.c ****     }
 192:.\Generated_Source\PSoC4/I2C_Slave_I2C_BOOT.c **** 
 193:.\Generated_Source\PSoC4/I2C_Slave_I2C_BOOT.c ****     return(status);
 272              		.loc 1 193 0
 273 00ae 7B69     		ldr	r3, [r7, #20]
 194:.\Generated_Source\PSoC4/I2C_Slave_I2C_BOOT.c **** }
 274              		.loc 1 194 0
 275 00b0 181C     		mov	r0, r3
 276 00b2 BD46     		mov	sp, r7
 277 00b4 07B0     		add	sp, sp, #28
 278              		@ sp needed
 279 00b6 90BD     		pop	{r4, r7, pc}
 280              	.L16:
 281              		.align	2
 282              	.L15:
 283 00b8 00000000 		.word	I2C_Slave_slStatus
 284 00bc 00000000 		.word	I2C_Slave_slWrBufIndex
 285 00c0 40000000 		.word	I2C_Slave_slWriteBuf
 286              		.cfi_endproc
 287              	.LFE3:
 288              		.size	I2C_Slave_I2CCyBtldrCommRead, .-I2C_Slave_I2CCyBtldrCommRead
 289              		.section	.text.I2C_Slave_I2CCyBtldrCommWrite,"ax",%progbits
 290              		.align	2
 291              		.global	I2C_Slave_I2CCyBtldrCommWrite
 292              		.code	16
 293              		.thumb_func
 294              		.type	I2C_Slave_I2CCyBtldrCommWrite, %function
 295              	I2C_Slave_I2CCyBtldrCommWrite:
 296              	.LFB4:
 195:.\Generated_Source\PSoC4/I2C_Slave_I2C_BOOT.c **** 
 196:.\Generated_Source\PSoC4/I2C_Slave_I2C_BOOT.c **** 
 197:.\Generated_Source\PSoC4/I2C_Slave_I2C_BOOT.c **** /*******************************************************************************
 198:.\Generated_Source\PSoC4/I2C_Slave_I2C_BOOT.c **** * Function Name: I2C_Slave_I2CCyBtldrCommWrite
 199:.\Generated_Source\PSoC4/I2C_Slave_I2C_BOOT.c **** ********************************************************************************
 200:.\Generated_Source\PSoC4/I2C_Slave_I2C_BOOT.c **** *
 201:.\Generated_Source\PSoC4/I2C_Slave_I2C_BOOT.c **** * Summary:
 202:.\Generated_Source\PSoC4/I2C_Slave_I2C_BOOT.c **** *  Allows the caller to write data to the bootloader host (the host reads the
 203:.\Generated_Source\PSoC4/I2C_Slave_I2C_BOOT.c **** *  data). The function does not use timeout and returns after data has been
 204:.\Generated_Source\PSoC4/I2C_Slave_I2C_BOOT.c **** *  copied into the slave read buffer. This data is available to be read by the
 205:.\Generated_Source\PSoC4/I2C_Slave_I2C_BOOT.c **** *  bootloader host until following host data write.
 206:.\Generated_Source\PSoC4/I2C_Slave_I2C_BOOT.c **** *
 207:.\Generated_Source\PSoC4/I2C_Slave_I2C_BOOT.c **** * Parameters:
ARM GAS  C:\Users\LUKASC~1\AppData\Local\Temp\ccAn5ShL.s 			page 10


 208:.\Generated_Source\PSoC4/I2C_Slave_I2C_BOOT.c **** *  pData:    Pointer to the block of data to be written to the bootloader host.
 209:.\Generated_Source\PSoC4/I2C_Slave_I2C_BOOT.c **** *  size:     Number of bytes to be written.
 210:.\Generated_Source\PSoC4/I2C_Slave_I2C_BOOT.c **** *  count:    Pointer to the variable to write the number of bytes actually
 211:.\Generated_Source\PSoC4/I2C_Slave_I2C_BOOT.c **** *            written.
 212:.\Generated_Source\PSoC4/I2C_Slave_I2C_BOOT.c **** *  timeOut:  The timeout is not used by this function. The function returns
 213:.\Generated_Source\PSoC4/I2C_Slave_I2C_BOOT.c **** *            as soon as data is copied into the slave read buffer.
 214:.\Generated_Source\PSoC4/I2C_Slave_I2C_BOOT.c **** *
 215:.\Generated_Source\PSoC4/I2C_Slave_I2C_BOOT.c **** * Return:
 216:.\Generated_Source\PSoC4/I2C_Slave_I2C_BOOT.c **** *  Returns CYRET_SUCCESS if no problem was encountered or returns the value
 217:.\Generated_Source\PSoC4/I2C_Slave_I2C_BOOT.c **** *  that best describes the problem. For more information refer to the
 218:.\Generated_Source\PSoC4/I2C_Slave_I2C_BOOT.c **** *  "Return Codes" section of the System Reference Guide.
 219:.\Generated_Source\PSoC4/I2C_Slave_I2C_BOOT.c **** *
 220:.\Generated_Source\PSoC4/I2C_Slave_I2C_BOOT.c **** * Global variables:
 221:.\Generated_Source\PSoC4/I2C_Slave_I2C_BOOT.c **** *  I2C_Slave_slReadBuf - used to store response.
 222:.\Generated_Source\PSoC4/I2C_Slave_I2C_BOOT.c **** *
 223:.\Generated_Source\PSoC4/I2C_Slave_I2C_BOOT.c **** *******************************************************************************/
 224:.\Generated_Source\PSoC4/I2C_Slave_I2C_BOOT.c **** cystatus I2C_Slave_I2CCyBtldrCommWrite(const uint8 pData[], uint16 size, uint16 * count, uint8 time
 225:.\Generated_Source\PSoC4/I2C_Slave_I2C_BOOT.c **** {
 297              		.loc 1 225 0
 298              		.cfi_startproc
 299 0000 80B5     		push	{r7, lr}
 300              		.cfi_def_cfa_offset 8
 301              		.cfi_offset 7, -8
 302              		.cfi_offset 14, -4
 303 0002 86B0     		sub	sp, sp, #24
 304              		.cfi_def_cfa_offset 32
 305 0004 00AF     		add	r7, sp, #0
 306              		.cfi_def_cfa_register 7
 307 0006 F860     		str	r0, [r7, #12]
 308 0008 081C     		mov	r0, r1
 309 000a 7A60     		str	r2, [r7, #4]
 310 000c 191C     		mov	r1, r3
 311 000e 0A23     		mov	r3, #10
 312 0010 FB18     		add	r3, r7, r3
 313 0012 021C     		add	r2, r0, #0
 314 0014 1A80     		strh	r2, [r3]
 315 0016 0923     		mov	r3, #9
 316 0018 FB18     		add	r3, r7, r3
 317 001a 0A1C     		add	r2, r1, #0
 318 001c 1A70     		strb	r2, [r3]
 226:.\Generated_Source\PSoC4/I2C_Slave_I2C_BOOT.c ****     cystatus status;
 227:.\Generated_Source\PSoC4/I2C_Slave_I2C_BOOT.c **** 
 228:.\Generated_Source\PSoC4/I2C_Slave_I2C_BOOT.c ****     status = CYRET_BAD_PARAM;
 319              		.loc 1 228 0
 320 001e 0123     		mov	r3, #1
 321 0020 7B61     		str	r3, [r7, #20]
 229:.\Generated_Source\PSoC4/I2C_Slave_I2C_BOOT.c **** 
 230:.\Generated_Source\PSoC4/I2C_Slave_I2C_BOOT.c ****     if ((NULL != pData) && (size > 0u))
 322              		.loc 1 230 0
 323 0022 FB68     		ldr	r3, [r7, #12]
 324 0024 002B     		cmp	r3, #0
 325 0026 1AD0     		beq	.L18
 326              		.loc 1 230 0 is_stmt 0 discriminator 1
 327 0028 0A23     		mov	r3, #10
 328 002a FB18     		add	r3, r7, r3
 329 002c 1B88     		ldrh	r3, [r3]
 330 002e 002B     		cmp	r3, #0
ARM GAS  C:\Users\LUKASC~1\AppData\Local\Temp\ccAn5ShL.s 			page 11


 331 0030 15D0     		beq	.L18
 231:.\Generated_Source\PSoC4/I2C_Slave_I2C_BOOT.c ****     {
 232:.\Generated_Source\PSoC4/I2C_Slave_I2C_BOOT.c ****         /* Copy response into read buffer */
 233:.\Generated_Source\PSoC4/I2C_Slave_I2C_BOOT.c ****         *count = size;
 332              		.loc 1 233 0 is_stmt 1
 333 0032 7B68     		ldr	r3, [r7, #4]
 334 0034 0A22     		mov	r2, #10
 335 0036 BA18     		add	r2, r7, r2
 336 0038 1288     		ldrh	r2, [r2]
 337 003a 1A80     		strh	r2, [r3]
 234:.\Generated_Source\PSoC4/I2C_Slave_I2C_BOOT.c ****         (void) memcpy((void *) I2C_Slave_slReadBuf, (const void *) pData, (uint32) size);
 338              		.loc 1 234 0
 339 003c 0A23     		mov	r3, #10
 340 003e FB18     		add	r3, r7, r3
 341 0040 1B88     		ldrh	r3, [r3]
 342 0042 0949     		ldr	r1, .L20
 343 0044 FA68     		ldr	r2, [r7, #12]
 344 0046 081C     		mov	r0, r1
 345 0048 111C     		mov	r1, r2
 346 004a 1A1C     		mov	r2, r3
 347 004c FFF7FEFF 		bl	memcpy
 235:.\Generated_Source\PSoC4/I2C_Slave_I2C_BOOT.c **** 
 236:.\Generated_Source\PSoC4/I2C_Slave_I2C_BOOT.c ****         /* Read buffer is ready to be released to host */
 237:.\Generated_Source\PSoC4/I2C_Slave_I2C_BOOT.c ****         I2C_Slave_applyBuffer = (uint32) size;
 348              		.loc 1 237 0
 349 0050 0A23     		mov	r3, #10
 350 0052 FB18     		add	r3, r7, r3
 351 0054 1A88     		ldrh	r2, [r3]
 352 0056 054B     		ldr	r3, .L20+4
 353 0058 1A60     		str	r2, [r3]
 238:.\Generated_Source\PSoC4/I2C_Slave_I2C_BOOT.c **** 
 239:.\Generated_Source\PSoC4/I2C_Slave_I2C_BOOT.c ****         if (0u != timeOut)
 240:.\Generated_Source\PSoC4/I2C_Slave_I2C_BOOT.c ****         {
 241:.\Generated_Source\PSoC4/I2C_Slave_I2C_BOOT.c ****             /* Suppress compiler warning */
 242:.\Generated_Source\PSoC4/I2C_Slave_I2C_BOOT.c ****         }
 243:.\Generated_Source\PSoC4/I2C_Slave_I2C_BOOT.c **** 
 244:.\Generated_Source\PSoC4/I2C_Slave_I2C_BOOT.c ****         status = CYRET_SUCCESS;
 354              		.loc 1 244 0
 355 005a 0023     		mov	r3, #0
 356 005c 7B61     		str	r3, [r7, #20]
 357              	.L18:
 245:.\Generated_Source\PSoC4/I2C_Slave_I2C_BOOT.c ****     }
 246:.\Generated_Source\PSoC4/I2C_Slave_I2C_BOOT.c **** 
 247:.\Generated_Source\PSoC4/I2C_Slave_I2C_BOOT.c ****     return(status);
 358              		.loc 1 247 0
 359 005e 7B69     		ldr	r3, [r7, #20]
 248:.\Generated_Source\PSoC4/I2C_Slave_I2C_BOOT.c **** }
 360              		.loc 1 248 0
 361 0060 181C     		mov	r0, r3
 362 0062 BD46     		mov	sp, r7
 363 0064 06B0     		add	sp, sp, #24
 364              		@ sp needed
 365 0066 80BD     		pop	{r7, pc}
 366              	.L21:
 367              		.align	2
 368              	.L20:
 369 0068 00000000 		.word	I2C_Slave_slReadBuf
ARM GAS  C:\Users\LUKASC~1\AppData\Local\Temp\ccAn5ShL.s 			page 12


 370 006c 80000000 		.word	I2C_Slave_applyBuffer
 371              		.cfi_endproc
 372              	.LFE4:
 373              		.size	I2C_Slave_I2CCyBtldrCommWrite, .-I2C_Slave_I2CCyBtldrCommWrite
 374              		.section	.text.I2C_Slave_I2CResposeInsert,"ax",%progbits
 375              		.align	2
 376              		.code	16
 377              		.thumb_func
 378              		.type	I2C_Slave_I2CResposeInsert, %function
 379              	I2C_Slave_I2CResposeInsert:
 380              	.LFB5:
 249:.\Generated_Source\PSoC4/I2C_Slave_I2C_BOOT.c **** 
 250:.\Generated_Source\PSoC4/I2C_Slave_I2C_BOOT.c **** 
 251:.\Generated_Source\PSoC4/I2C_Slave_I2C_BOOT.c **** /*******************************************************************************
 252:.\Generated_Source\PSoC4/I2C_Slave_I2C_BOOT.c **** * Function Name: I2C_Slave_I2CResposeInsert
 253:.\Generated_Source\PSoC4/I2C_Slave_I2C_BOOT.c **** ********************************************************************************
 254:.\Generated_Source\PSoC4/I2C_Slave_I2C_BOOT.c **** *
 255:.\Generated_Source\PSoC4/I2C_Slave_I2C_BOOT.c **** * Summary:
 256:.\Generated_Source\PSoC4/I2C_Slave_I2C_BOOT.c **** *  Releases the read buffer to be read when a response is copied to the buffer
 257:.\Generated_Source\PSoC4/I2C_Slave_I2C_BOOT.c **** *  and a new read transaction starts.
 258:.\Generated_Source\PSoC4/I2C_Slave_I2C_BOOT.c **** *  Closes the read buffer when write transaction is started.
 259:.\Generated_Source\PSoC4/I2C_Slave_I2C_BOOT.c **** *
 260:.\Generated_Source\PSoC4/I2C_Slave_I2C_BOOT.c **** * Parameters:
 261:.\Generated_Source\PSoC4/I2C_Slave_I2C_BOOT.c **** *  None
 262:.\Generated_Source\PSoC4/I2C_Slave_I2C_BOOT.c **** *
 263:.\Generated_Source\PSoC4/I2C_Slave_I2C_BOOT.c **** * Return:
 264:.\Generated_Source\PSoC4/I2C_Slave_I2C_BOOT.c **** *  None
 265:.\Generated_Source\PSoC4/I2C_Slave_I2C_BOOT.c **** *
 266:.\Generated_Source\PSoC4/I2C_Slave_I2C_BOOT.c **** * Global variables:
 267:.\Generated_Source\PSoC4/I2C_Slave_I2C_BOOT.c **** *  I2C_Slave_slRdBufSize - used to store slave read buffer size.
 268:.\Generated_Source\PSoC4/I2C_Slave_I2C_BOOT.c **** *  I2C_Slave_slRdBufIndex - used to store the current index within the
 269:.\Generated_Source\PSoC4/I2C_Slave_I2C_BOOT.c **** *  slave read buffer.
 270:.\Generated_Source\PSoC4/I2C_Slave_I2C_BOOT.c **** *  I2C_Slave_applyBuffer - the flag to release the buffer with
 271:.\Generated_Source\PSoC4/I2C_Slave_I2C_BOOT.c **** *  a response to read.
 272:.\Generated_Source\PSoC4/I2C_Slave_I2C_BOOT.c **** *
 273:.\Generated_Source\PSoC4/I2C_Slave_I2C_BOOT.c **** *******************************************************************************/
 274:.\Generated_Source\PSoC4/I2C_Slave_I2C_BOOT.c **** static void I2C_Slave_I2CResposeInsert(void)
 275:.\Generated_Source\PSoC4/I2C_Slave_I2C_BOOT.c **** {
 381              		.loc 1 275 0
 382              		.cfi_startproc
 383 0000 80B5     		push	{r7, lr}
 384              		.cfi_def_cfa_offset 8
 385              		.cfi_offset 7, -8
 386              		.cfi_offset 14, -4
 387 0002 00AF     		add	r7, sp, #0
 388              		.cfi_def_cfa_register 7
 276:.\Generated_Source\PSoC4/I2C_Slave_I2C_BOOT.c ****     if (I2C_Slave_CHECK_INTR_SLAVE_MASKED(I2C_Slave_INTR_SLAVE_I2C_ADDR_MATCH))
 389              		.loc 1 276 0
 390 0004 124B     		ldr	r3, .L26
 391 0006 1B68     		ldr	r3, [r3]
 392 0008 4022     		mov	r2, #64
 393 000a 1340     		and	r3, r2
 394 000c 1DD0     		beq	.L22
 277:.\Generated_Source\PSoC4/I2C_Slave_I2C_BOOT.c ****     {
 278:.\Generated_Source\PSoC4/I2C_Slave_I2C_BOOT.c ****         if (I2C_Slave_CHECK_I2C_STATUS(I2C_Slave_I2C_STATUS_S_READ))
 395              		.loc 1 278 0
 396 000e 114B     		ldr	r3, .L26+4
ARM GAS  C:\Users\LUKASC~1\AppData\Local\Temp\ccAn5ShL.s 			page 13


 397 0010 1B68     		ldr	r3, [r3]
 398 0012 1022     		mov	r2, #16
 399 0014 1340     		and	r3, r2
 400 0016 0ED0     		beq	.L24
 279:.\Generated_Source\PSoC4/I2C_Slave_I2C_BOOT.c ****         {
 280:.\Generated_Source\PSoC4/I2C_Slave_I2C_BOOT.c ****             /* Address phase, host reads: release read buffer */
 281:.\Generated_Source\PSoC4/I2C_Slave_I2C_BOOT.c ****             if (0u != I2C_Slave_applyBuffer)
 401              		.loc 1 281 0
 402 0018 0F4B     		ldr	r3, .L26+8
 403 001a 1B68     		ldr	r3, [r3]
 404 001c 002B     		cmp	r3, #0
 405 001e 14D0     		beq	.L22
 282:.\Generated_Source\PSoC4/I2C_Slave_I2C_BOOT.c ****             {
 283:.\Generated_Source\PSoC4/I2C_Slave_I2C_BOOT.c ****                 I2C_Slave_slRdBufSize  = I2C_Slave_applyBuffer;
 406              		.loc 1 283 0
 407 0020 0D4B     		ldr	r3, .L26+8
 408 0022 1A68     		ldr	r2, [r3]
 409 0024 0D4B     		ldr	r3, .L26+12
 410 0026 1A60     		str	r2, [r3]
 284:.\Generated_Source\PSoC4/I2C_Slave_I2C_BOOT.c ****                 I2C_Slave_slRdBufIndex = 0u;
 411              		.loc 1 284 0
 412 0028 0D4B     		ldr	r3, .L26+16
 413 002a 0022     		mov	r2, #0
 414 002c 1A60     		str	r2, [r3]
 285:.\Generated_Source\PSoC4/I2C_Slave_I2C_BOOT.c ****                 I2C_Slave_applyBuffer  = 0u;
 415              		.loc 1 285 0
 416 002e 0A4B     		ldr	r3, .L26+8
 417 0030 0022     		mov	r2, #0
 418 0032 1A60     		str	r2, [r3]
 419 0034 09E0     		b	.L22
 420              	.L24:
 286:.\Generated_Source\PSoC4/I2C_Slave_I2C_BOOT.c ****             }
 287:.\Generated_Source\PSoC4/I2C_Slave_I2C_BOOT.c ****         }
 288:.\Generated_Source\PSoC4/I2C_Slave_I2C_BOOT.c ****         else
 289:.\Generated_Source\PSoC4/I2C_Slave_I2C_BOOT.c ****         {
 290:.\Generated_Source\PSoC4/I2C_Slave_I2C_BOOT.c ****             /* Address phase, host writes: close read buffer */
 291:.\Generated_Source\PSoC4/I2C_Slave_I2C_BOOT.c ****             if (I2C_Slave_slRdBufIndex != I2C_Slave_slRdBufSize)
 421              		.loc 1 291 0
 422 0036 0A4B     		ldr	r3, .L26+16
 423 0038 1A68     		ldr	r2, [r3]
 424 003a 084B     		ldr	r3, .L26+12
 425 003c 1B68     		ldr	r3, [r3]
 426 003e 9A42     		cmp	r2, r3
 427 0040 03D0     		beq	.L22
 292:.\Generated_Source\PSoC4/I2C_Slave_I2C_BOOT.c ****             {
 293:.\Generated_Source\PSoC4/I2C_Slave_I2C_BOOT.c ****                 I2C_Slave_slRdBufIndex = I2C_Slave_slRdBufSize;
 428              		.loc 1 293 0
 429 0042 064B     		ldr	r3, .L26+12
 430 0044 1A68     		ldr	r2, [r3]
 431 0046 064B     		ldr	r3, .L26+16
 432 0048 1A60     		str	r2, [r3]
 433              	.L22:
 294:.\Generated_Source\PSoC4/I2C_Slave_I2C_BOOT.c ****             }
 295:.\Generated_Source\PSoC4/I2C_Slave_I2C_BOOT.c ****         }
 296:.\Generated_Source\PSoC4/I2C_Slave_I2C_BOOT.c ****     }
 297:.\Generated_Source\PSoC4/I2C_Slave_I2C_BOOT.c **** }
 434              		.loc 1 297 0
ARM GAS  C:\Users\LUKASC~1\AppData\Local\Temp\ccAn5ShL.s 			page 14


 435 004a BD46     		mov	sp, r7
 436              		@ sp needed
 437 004c 80BD     		pop	{r7, pc}
 438              	.L27:
 439 004e C046     		.align	2
 440              	.L26:
 441 0050 4C0F0740 		.word	1074204492
 442 0054 64000740 		.word	1074200676
 443 0058 80000000 		.word	I2C_Slave_applyBuffer
 444 005c 00000000 		.word	I2C_Slave_slRdBufSize
 445 0060 00000000 		.word	I2C_Slave_slRdBufIndex
 446              		.cfi_endproc
 447              	.LFE5:
 448              		.size	I2C_Slave_I2CResposeInsert, .-I2C_Slave_I2CResposeInsert
 449              		.text
 450              	.Letext0:
 451              		.file 2 "Generated_Source\\PSoC4/cytypes.h"
 452              		.file 3 ".\\Generated_Source\\PSoC4\\I2C_Slave_I2C_PVT.h"