ARM GAS  C:\Users\LUKASC~1\AppData\Local\Temp\cct5VnaP.s 			page 1


   1              		.syntax unified
   2              		.cpu cortex-m3
   3              		.fpu softvfp
   4              		.eabi_attribute 20, 1
   5              		.eabi_attribute 21, 1
   6              		.eabi_attribute 23, 3
   7              		.eabi_attribute 24, 1
   8              		.eabi_attribute 25, 1
   9              		.eabi_attribute 26, 1
  10              		.eabi_attribute 30, 6
  11              		.eabi_attribute 34, 1
  12              		.eabi_attribute 18, 4
  13              		.thumb
  14              		.file	"main.c"
  15              		.text
  16              	.Ltext0:
  17              		.cfi_sections	.debug_frame
  18              		.global _printf_float
  19              		.thumb
  20              		.global	parity
  21              		.section	.rodata
  22              		.align	2
  23              	.LC0:
  24 0000 4E6F6E65 		.ascii	"None\000"
  24      00
  25 0005 000000   		.align	2
  26              	.LC1:
  27 0008 4F646400 		.ascii	"Odd\000"
  28              		.align	2
  29              	.LC2:
  30 000c 4576656E 		.ascii	"Even\000"
  30      00
  31 0011 000000   		.align	2
  32              	.LC3:
  33 0014 4D61726B 		.ascii	"Mark\000"
  33      00
  34 0019 000000   		.align	2
  35              	.LC4:
  36 001c 53706163 		.ascii	"Space\000"
  36      6500
  37              		.data
  38              		.align	2
  39              		.type	parity, %object
  40              		.size	parity, 20
  41              	parity:
  42 0000 00000000 		.word	.LC0
  43 0004 08000000 		.word	.LC1
  44 0008 0C000000 		.word	.LC2
  45 000c 14000000 		.word	.LC3
  46 0010 1C000000 		.word	.LC4
  47              		.global	stop
  48              		.section	.rodata
  49 0022 0000     		.align	2
  50              	.LC5:
  51 0024 3100     		.ascii	"1\000"
  52 0026 0000     		.align	2
  53              	.LC6:
ARM GAS  C:\Users\LUKASC~1\AppData\Local\Temp\cct5VnaP.s 			page 2


  54 0028 312E3500 		.ascii	"1.5\000"
  55              		.align	2
  56              	.LC7:
  57 002c 3200     		.ascii	"2\000"
  58              		.data
  59              		.align	2
  60              		.type	stop, %object
  61              		.size	stop, 12
  62              	stop:
  63 0014 24000000 		.word	.LC5
  64 0018 28000000 		.word	.LC6
  65 001c 2C000000 		.word	.LC7
  66              		.global	i2cReadBuffer
  67              		.align	2
  68              		.type	i2cReadBuffer, %object
  69              		.size	i2cReadBuffer, 3
  70              	i2cReadBuffer:
  71 0020 01       		.byte	1
  72 0021 FF       		.byte	-1
  73 0022 17       		.byte	23
  74              		.comm	i2cWriteBuffer,3,4
  75 0023 00       		.section	.text.main,"ax",%progbits
  76              		.align	2
  77              		.global	main
  78              		.thumb
  79              		.thumb_func
  80              		.type	main, %function
  81              	main:
  82              	.LFB63:
  83              		.file 1 ".\\main.c"
   1:.\main.c      **** /*******************************************************************************
   2:.\main.c      **** * File Name: main.c
   3:.\main.c      **** *
   4:.\main.c      **** * Version: 2.0
   5:.\main.c      **** *
   6:.\main.c      **** * Description:
   7:.\main.c      **** *   The component is enumerated as a Virtual Com port. Receives data from the 
   8:.\main.c      **** *   hyper terminal, then sends back the received data.
   9:.\main.c      **** *   For PSoC3/PSoC5LP, the LCD shows the line settings.
  10:.\main.c      **** *
  11:.\main.c      **** * Related Document:
  12:.\main.c      **** *  Universal Serial Bus Specification Revision 2.0
  13:.\main.c      **** *  Universal Serial Bus Class Definitions for Communications Devices
  14:.\main.c      **** *  Revision 1.2
  15:.\main.c      **** *
  16:.\main.c      **** ********************************************************************************
  17:.\main.c      **** * Copyright 2015, Cypress Semiconductor Corporation. All rights reserved.
  18:.\main.c      **** * This software is owned by Cypress Semiconductor Corporation and is protected
  19:.\main.c      **** * by and subject to worldwide patent and copyright laws and treaties.
  20:.\main.c      **** * Therefore, you may use this software only as provided in the license agreement
  21:.\main.c      **** * accompanying the software package from which you obtained this software.
  22:.\main.c      **** * CYPRESS AND ITS SUPPLIERS MAKE NO WARRANTY OF ANY KIND, EXPRESS OR IMPLIED,
  23:.\main.c      **** * WITH REGARD TO THIS SOFTWARE, INCLUDING, BUT NOT LIMITED TO, NONINFRINGEMENT,
  24:.\main.c      **** * IMPLIED WARRANTIES OF MERCHANTABILITY AND FITNESS FOR A PARTICULAR PURPOSE.
  25:.\main.c      **** *******************************************************************************/
  26:.\main.c      **** 
  27:.\main.c      **** #include "main.h"
ARM GAS  C:\Users\LUKASC~1\AppData\Local\Temp\cct5VnaP.s 			page 3


  28:.\main.c      **** 
  29:.\main.c      **** #if defined (__GNUC__)
  30:.\main.c      ****     /* Add an explicit reference to the floating point printf library */
  31:.\main.c      ****     /* to allow usage of the floating point conversion specifiers. */
  32:.\main.c      ****     /* This is not linked in by default with the newlib-nano library. */
  33:.\main.c      ****     asm (".global _printf_float");
  34:.\main.c      **** #endif
  35:.\main.c      **** 
  36:.\main.c      **** #define USBFS_DEVICE    (0u)
  37:.\main.c      **** 
  38:.\main.c      **** /* The buffer size is equal to the maximum packet size of the IN and OUT bulk
  39:.\main.c      **** * endpoints.
  40:.\main.c      **** */
  41:.\main.c      **** #define USBUART_BUFFER_SIZE (64u)
  42:.\main.c      **** #define LINE_STR_LENGTH     (20u)
  43:.\main.c      **** 
  44:.\main.c      **** char8* parity[] = {"None", "Odd", "Even", "Mark", "Space"};
  45:.\main.c      **** char8* stop[]   = {"1", "1.5", "2"};
  46:.\main.c      **** 
  47:.\main.c      **** /* I2C slave read and write buffers */
  48:.\main.c      **** uint8 i2cReadBuffer [BUFFER_SIZE] = {PACKET_SOP, STS_CMD_FAIL, PACKET_EOP};
  49:.\main.c      **** uint8 i2cWriteBuffer[BUFFER_SIZE];
  50:.\main.c      **** 
  51:.\main.c      **** 
  52:.\main.c      **** /*******************************************************************************
  53:.\main.c      **** * Function Name: main
  54:.\main.c      **** ********************************************************************************
  55:.\main.c      **** *
  56:.\main.c      **** * Summary:
  57:.\main.c      **** *  The main function performs the following actions:
  58:.\main.c      **** *   1. Waits until VBUS becomes valid and starts the USBFS component which is
  59:.\main.c      **** *      enumerated as virtual Com port.
  60:.\main.c      **** *   2. Waits until the device is enumerated by the host.
  61:.\main.c      **** *   3. Waits for data coming from the hyper terminal and sends it back.
  62:.\main.c      **** *   4. PSoC3/PSoC5LP: the LCD shows the line settings.
  63:.\main.c      **** *
  64:.\main.c      **** * Parameters:
  65:.\main.c      **** *  None.
  66:.\main.c      **** *
  67:.\main.c      **** * Return:
  68:.\main.c      **** *  None.
  69:.\main.c      **** *
  70:.\main.c      **** *******************************************************************************/
  71:.\main.c      **** int main()
  72:.\main.c      **** {
  84              		.loc 1 72 0
  85              		.cfi_startproc
  86              		@ args = 0, pretend = 0, frame = 24
  87              		@ frame_needed = 1, uses_anonymous_args = 0
  88 0000 80B5     		push	{r7, lr}
  89              		.cfi_def_cfa_offset 8
  90              		.cfi_offset 7, -8
  91              		.cfi_offset 14, -4
  92 0002 86B0     		sub	sp, sp, #24
  93              		.cfi_def_cfa_offset 32
  94 0004 00AF     		add	r7, sp, #0
  95              		.cfi_def_cfa_register 7
ARM GAS  C:\Users\LUKASC~1\AppData\Local\Temp\cct5VnaP.s 			page 4


  73:.\main.c      ****     //I2C target
  74:.\main.c      ****     uint8 status = STS_CMD_FAIL;
  96              		.loc 1 74 0
  97 0006 FF23     		movs	r3, #255
  98 0008 FB75     		strb	r3, [r7, #23]
  75:.\main.c      ****     
  76:.\main.c      **** #if (CY_PSOC3 || CY_PSOC5LP)
  77:.\main.c      ****     uint8 state;
  78:.\main.c      ****     char8 lineStr[LINE_STR_LENGTH];
  79:.\main.c      ****     
  80:.\main.c      ****     I2CS_Start();
  99              		.loc 1 80 0
 100 000a FFF7FEFF 		bl	I2CS_Start
  81:.\main.c      **** #endif /* (CY_PSOC3 || CY_PSOC5LP) */
  82:.\main.c      ****     
  83:.\main.c      ****     CyGlobalIntEnable;
 101              		.loc 1 83 0
 102              	@ 83 ".\main.c" 1
 103 000e 62B6     		CPSIE   i
 104              	@ 0 "" 2
  84:.\main.c      **** 
  85:.\main.c      ****     /* Start USBFS operation with 5-V operation. */
  86:.\main.c      ****     USBUART_Start(USBFS_DEVICE, USBUART_5V_OPERATION);
 105              		.loc 1 86 0
 106              		.thumb
 107 0010 0020     		movs	r0, #0
 108 0012 0121     		movs	r1, #1
 109 0014 FFF7FEFF 		bl	USBUART_Start
 110              	.L5:
  87:.\main.c      ****     
  88:.\main.c      ****     for(;;)
  89:.\main.c      ****     {
  90:.\main.c      ****         
  91:.\main.c      ****         /* Write complete: parse command packet */
  92:.\main.c      ****         if (0u != (I2CS_SlaveStatus() & I2CS_SSTAT_WR_CMPLT))
 111              		.loc 1 92 0
 112 0018 FFF7FEFF 		bl	I2CS_SlaveStatus
 113 001c 0346     		mov	r3, r0
 114 001e 03F01003 		and	r3, r3, #16
 115 0022 002B     		cmp	r3, #0
 116 0024 1CD0     		beq	.L2
  93:.\main.c      ****         {
  94:.\main.c      ****             /* Check packet length */
  95:.\main.c      ****             if (PACKET_SIZE == I2CS_SlaveGetWriteBufSize())
 117              		.loc 1 95 0
 118 0026 FFF7FEFF 		bl	I2CS_SlaveGetWriteBufSize
 119 002a 0346     		mov	r3, r0
 120 002c 032B     		cmp	r3, #3
 121 002e 0ED1     		bne	.L3
  96:.\main.c      ****             {
  97:.\main.c      ****                 /* Check start and end of packet markers */
  98:.\main.c      ****                 if ((i2cWriteBuffer[PACKET_SOP_POS] == PACKET_SOP) &&
 122              		.loc 1 98 0
 123 0030 114B     		ldr	r3, .L6
 124 0032 1B78     		ldrb	r3, [r3]	@ zero_extendqisi2
 125 0034 012B     		cmp	r3, #1
 126 0036 0AD1     		bne	.L3
ARM GAS  C:\Users\LUKASC~1\AppData\Local\Temp\cct5VnaP.s 			page 5


  99:.\main.c      ****                     (i2cWriteBuffer[PACKET_EOP_POS] == PACKET_EOP))
 127              		.loc 1 99 0 discriminator 1
 128 0038 0F4B     		ldr	r3, .L6
 129 003a 9B78     		ldrb	r3, [r3, #2]	@ zero_extendqisi2
  98:.\main.c      ****                     (i2cWriteBuffer[PACKET_EOP_POS] == PACKET_EOP))
 130              		.loc 1 98 0 discriminator 1
 131 003c 172B     		cmp	r3, #23
 132 003e 06D1     		bne	.L3
 100:.\main.c      ****                 {
 101:.\main.c      ****                     status = ExecuteCommand(i2cWriteBuffer[PACKET_CMD_POS]);
 133              		.loc 1 101 0
 134 0040 0D4B     		ldr	r3, .L6
 135 0042 5B78     		ldrb	r3, [r3, #1]	@ zero_extendqisi2
 136 0044 1846     		mov	r0, r3
 137 0046 FFF7FEFF 		bl	ExecuteCommand
 138 004a 0346     		mov	r3, r0
 139 004c FB75     		strb	r3, [r7, #23]
 140              	.L3:
 102:.\main.c      ****                 }
 103:.\main.c      ****             }
 104:.\main.c      **** 
 105:.\main.c      ****             /* Clear slave write buffer and status */
 106:.\main.c      ****             I2CS_SlaveClearWriteBuf();
 141              		.loc 1 106 0
 142 004e FFF7FEFF 		bl	I2CS_SlaveClearWriteBuf
 107:.\main.c      ****             (void) I2CS_SlaveClearWriteStatus();
 143              		.loc 1 107 0
 144 0052 FFF7FEFF 		bl	I2CS_SlaveClearWriteStatus
 108:.\main.c      **** 
 109:.\main.c      ****             /* Update read buffer */
 110:.\main.c      ****             i2cReadBuffer[PACKET_STS_POS] = status;
 145              		.loc 1 110 0
 146 0056 094A     		ldr	r2, .L6+4
 147 0058 FB7D     		ldrb	r3, [r7, #23]
 148 005a 5370     		strb	r3, [r2, #1]
 111:.\main.c      ****             status = STS_CMD_FAIL;
 149              		.loc 1 111 0
 150 005c FF23     		movs	r3, #255
 151 005e FB75     		strb	r3, [r7, #23]
 152              	.L2:
 112:.\main.c      ****         }
 113:.\main.c      **** 
 114:.\main.c      ****         /* Read complete: expose buffer to master */
 115:.\main.c      ****         if (0u != (I2CS_SlaveStatus() & I2CS_SSTAT_RD_CMPLT))
 153              		.loc 1 115 0
 154 0060 FFF7FEFF 		bl	I2CS_SlaveStatus
 155 0064 0346     		mov	r3, r0
 156 0066 03F00103 		and	r3, r3, #1
 157 006a 002B     		cmp	r3, #0
 158 006c 03D0     		beq	.L4
 116:.\main.c      ****         {
 117:.\main.c      ****             /* Clear slave read buffer and status */
 118:.\main.c      ****             I2CS_SlaveClearReadBuf();
 159              		.loc 1 118 0
 160 006e FFF7FEFF 		bl	I2CS_SlaveClearReadBuf
 119:.\main.c      ****             (void) I2CS_SlaveClearReadStatus();
 161              		.loc 1 119 0
ARM GAS  C:\Users\LUKASC~1\AppData\Local\Temp\cct5VnaP.s 			page 6


 162 0072 FFF7FEFF 		bl	I2CS_SlaveClearReadStatus
 163              	.L4:
 120:.\main.c      ****         }
 121:.\main.c      ****         
 122:.\main.c      ****         
 123:.\main.c      ****     }
 164              		.loc 1 123 0
 165 0076 CFE7     		b	.L5
 166              	.L7:
 167              		.align	2
 168              	.L6:
 169 0078 00000000 		.word	i2cWriteBuffer
 170 007c 00000000 		.word	i2cReadBuffer
 171              		.cfi_endproc
 172              	.LFE63:
 173              		.size	main, .-main
 174              		.section	.rodata
 175 002e 0000     		.align	2
 176              	.LC8:
 177 0030 426C6162 		.ascii	"Blabla\012\000"
 177      6C610A00 
 178              		.section	.text.ExecuteCommand,"ax",%progbits
 179              		.align	2
 180              		.global	ExecuteCommand
 181              		.thumb
 182              		.thumb_func
 183              		.type	ExecuteCommand, %function
 184              	ExecuteCommand:
 185              	.LFB64:
 124:.\main.c      **** }
 125:.\main.c      **** 
 126:.\main.c      **** uint8 ExecuteCommand(uint32 cmd)
 127:.\main.c      **** {
 186              		.loc 1 127 0
 187              		.cfi_startproc
 188              		@ args = 0, pretend = 0, frame = 16
 189              		@ frame_needed = 1, uses_anonymous_args = 0
 190 0000 80B5     		push	{r7, lr}
 191              		.cfi_def_cfa_offset 8
 192              		.cfi_offset 7, -8
 193              		.cfi_offset 14, -4
 194 0002 84B0     		sub	sp, sp, #16
 195              		.cfi_def_cfa_offset 24
 196 0004 00AF     		add	r7, sp, #0
 197              		.cfi_def_cfa_register 7
 198 0006 7860     		str	r0, [r7, #4]
 128:.\main.c      ****     uint8 status;
 129:.\main.c      **** 
 130:.\main.c      ****     status = STS_CMD_DONE;
 199              		.loc 1 130 0
 200 0008 0023     		movs	r3, #0
 201 000a FB73     		strb	r3, [r7, #15]
 131:.\main.c      ****     /* Host can send double SET_INTERFACE request. */
 132:.\main.c      ****     if (0u != USBUART_IsConfigurationChanged())
 202              		.loc 1 132 0
 203 000c FFF7FEFF 		bl	USBUART_IsConfigurationChanged
 204 0010 0346     		mov	r3, r0
ARM GAS  C:\Users\LUKASC~1\AppData\Local\Temp\cct5VnaP.s 			page 7


 205 0012 002B     		cmp	r3, #0
 206 0014 06D0     		beq	.L9
 133:.\main.c      ****     {
 134:.\main.c      ****         /* Initialize IN endpoints when device is configured. */
 135:.\main.c      ****         if (0u != USBUART_GetConfiguration())
 207              		.loc 1 135 0
 208 0016 FFF7FEFF 		bl	USBUART_GetConfiguration
 209 001a 0346     		mov	r3, r0
 210 001c 002B     		cmp	r3, #0
 211 001e 01D0     		beq	.L9
 136:.\main.c      ****         {
 137:.\main.c      ****             /* Enumeration is done, enable OUT endpoint to receive data 
 138:.\main.c      ****              * from host. */
 139:.\main.c      ****             USBUART_CDC_Init();
 212              		.loc 1 139 0
 213 0020 FFF7FEFF 		bl	USBUART_CDC_Init
 214              	.L9:
 140:.\main.c      ****         }
 141:.\main.c      ****     }
 142:.\main.c      **** 
 143:.\main.c      ****     /* Service USB CDC when device is configured. */
 144:.\main.c      ****     if (0u != USBUART_GetConfiguration())
 215              		.loc 1 144 0
 216 0024 FFF7FEFF 		bl	USBUART_GetConfiguration
 217 0028 0346     		mov	r3, r0
 218 002a 002B     		cmp	r3, #0
 219 002c 0CD0     		beq	.L10
 145:.\main.c      ****     {
 146:.\main.c      ****         /* Wait until component is ready to send data to host. */
 147:.\main.c      ****         while (0u == USBUART_CDCIsReady())
 220              		.loc 1 147 0
 221 002e 00BF     		nop
 222              	.L11:
 223              		.loc 1 147 0 is_stmt 0 discriminator 1
 224 0030 FFF7FEFF 		bl	USBUART_CDCIsReady
 225 0034 0346     		mov	r3, r0
 226 0036 002B     		cmp	r3, #0
 227 0038 FAD0     		beq	.L11
 148:.\main.c      ****         {
 149:.\main.c      ****         }
 150:.\main.c      **** 
 151:.\main.c      ****         /* Send data back to host. */
 152:.\main.c      ****         //USBUART_PutData(buffer, count);
 153:.\main.c      ****         USBUART_PutString("Blabla\n");
 228              		.loc 1 153 0 is_stmt 1
 229 003a 0648     		ldr	r0, .L13
 230 003c FFF7FEFF 		bl	USBUART_PutString
 154:.\main.c      ****         
 155:.\main.c      ****         CyDelay(500);
 231              		.loc 1 155 0
 232 0040 4FF4FA70 		mov	r0, #500
 233 0044 FFF7FEFF 		bl	CyDelay
 234              	.L10:
 156:.\main.c      ****     }
 157:.\main.c      **** 
 158:.\main.c      ****     return (status);
 235              		.loc 1 158 0
ARM GAS  C:\Users\LUKASC~1\AppData\Local\Temp\cct5VnaP.s 			page 8


 236 0048 FB7B     		ldrb	r3, [r7, #15]	@ zero_extendqisi2
 159:.\main.c      **** }
 237              		.loc 1 159 0
 238 004a 1846     		mov	r0, r3
 239 004c 1037     		adds	r7, r7, #16
 240              		.cfi_def_cfa_offset 8
 241 004e BD46     		mov	sp, r7
 242              		.cfi_def_cfa_register 13
 243              		@ sp needed
 244 0050 80BD     		pop	{r7, pc}
 245              	.L14:
 246 0052 00BF     		.align	2
 247              	.L13:
 248 0054 30000000 		.word	.LC8
 249              		.cfi_endproc
 250              	.LFE64:
 251              		.size	ExecuteCommand, .-ExecuteCommand
 252              		.text
 253              	.Letext0:
 254              		.file 2 "c:\\program files (x86)\\cypress\\psoc creator\\3.3\\psoc creator\\import\\gnu\\arm\\4.9.
 255              		.file 3 "c:\\program files (x86)\\cypress\\psoc creator\\3.3\\psoc creator\\import\\gnu\\arm\\4.9.
 256              		.file 4 "Generated_Source\\PSoC5/cytypes.h"
 257              		.file 5 "Generated_Source\\PSoC5/core_cm3.h"